ARM GAS  C:\Users\28576\AppData\Local\Temp\ccNaodsS.s 			page 1


   1              		.cpu cortex-m7
   2              		.arch armv7e-m
   3              		.fpu fpv5-d16
   4              		.eabi_attribute 28, 1
   5              		.eabi_attribute 20, 1
   6              		.eabi_attribute 21, 1
   7              		.eabi_attribute 23, 3
   8              		.eabi_attribute 24, 1
   9              		.eabi_attribute 25, 1
  10              		.eabi_attribute 26, 1
  11              		.eabi_attribute 30, 1
  12              		.eabi_attribute 34, 1
  13              		.eabi_attribute 18, 4
  14              		.file	"lv_button.c"
  15              		.text
  16              	.Ltext0:
  17              		.cfi_sections	.debug_frame
  18              		.file 1 "../../Middlewares/LVGL/GUI/lvgl/src/widgets/button/lv_button.c"
  19              		.section	.text.lv_button_constructor,"ax",%progbits
  20              		.align	1
  21              		.syntax unified
  22              		.thumb
  23              		.thumb_func
  25              	lv_button_constructor:
  26              	.LVL0:
  27              	.LFB173:
   1:../../Middlewares/LVGL/GUI/lvgl/src/widgets/button/lv_button.c **** /**
   2:../../Middlewares/LVGL/GUI/lvgl/src/widgets/button/lv_button.c ****  * @file lv_btn.c
   3:../../Middlewares/LVGL/GUI/lvgl/src/widgets/button/lv_button.c ****  *
   4:../../Middlewares/LVGL/GUI/lvgl/src/widgets/button/lv_button.c ****  */
   5:../../Middlewares/LVGL/GUI/lvgl/src/widgets/button/lv_button.c **** 
   6:../../Middlewares/LVGL/GUI/lvgl/src/widgets/button/lv_button.c **** /*********************
   7:../../Middlewares/LVGL/GUI/lvgl/src/widgets/button/lv_button.c ****  *      INCLUDES
   8:../../Middlewares/LVGL/GUI/lvgl/src/widgets/button/lv_button.c ****  *********************/
   9:../../Middlewares/LVGL/GUI/lvgl/src/widgets/button/lv_button.c **** 
  10:../../Middlewares/LVGL/GUI/lvgl/src/widgets/button/lv_button.c **** #include "lv_button_private.h"
  11:../../Middlewares/LVGL/GUI/lvgl/src/widgets/button/lv_button.c **** #include "../../core/lv_obj_class_private.h"
  12:../../Middlewares/LVGL/GUI/lvgl/src/widgets/button/lv_button.c **** #if LV_USE_BUTTON != 0
  13:../../Middlewares/LVGL/GUI/lvgl/src/widgets/button/lv_button.c **** 
  14:../../Middlewares/LVGL/GUI/lvgl/src/widgets/button/lv_button.c **** /*********************
  15:../../Middlewares/LVGL/GUI/lvgl/src/widgets/button/lv_button.c ****  *      DEFINES
  16:../../Middlewares/LVGL/GUI/lvgl/src/widgets/button/lv_button.c ****  *********************/
  17:../../Middlewares/LVGL/GUI/lvgl/src/widgets/button/lv_button.c **** #define MY_CLASS (&lv_button_class)
  18:../../Middlewares/LVGL/GUI/lvgl/src/widgets/button/lv_button.c **** 
  19:../../Middlewares/LVGL/GUI/lvgl/src/widgets/button/lv_button.c **** /**********************
  20:../../Middlewares/LVGL/GUI/lvgl/src/widgets/button/lv_button.c ****  *      TYPEDEFS
  21:../../Middlewares/LVGL/GUI/lvgl/src/widgets/button/lv_button.c ****  **********************/
  22:../../Middlewares/LVGL/GUI/lvgl/src/widgets/button/lv_button.c **** 
  23:../../Middlewares/LVGL/GUI/lvgl/src/widgets/button/lv_button.c **** /**********************
  24:../../Middlewares/LVGL/GUI/lvgl/src/widgets/button/lv_button.c ****  *  STATIC PROTOTYPES
  25:../../Middlewares/LVGL/GUI/lvgl/src/widgets/button/lv_button.c ****  **********************/
  26:../../Middlewares/LVGL/GUI/lvgl/src/widgets/button/lv_button.c **** static void lv_button_constructor(const lv_obj_class_t * class_p, lv_obj_t * obj);
  27:../../Middlewares/LVGL/GUI/lvgl/src/widgets/button/lv_button.c **** 
  28:../../Middlewares/LVGL/GUI/lvgl/src/widgets/button/lv_button.c **** /**********************
  29:../../Middlewares/LVGL/GUI/lvgl/src/widgets/button/lv_button.c ****  *  STATIC VARIABLES
  30:../../Middlewares/LVGL/GUI/lvgl/src/widgets/button/lv_button.c ****  **********************/
  31:../../Middlewares/LVGL/GUI/lvgl/src/widgets/button/lv_button.c **** const lv_obj_class_t lv_button_class  = {
ARM GAS  C:\Users\28576\AppData\Local\Temp\ccNaodsS.s 			page 2


  32:../../Middlewares/LVGL/GUI/lvgl/src/widgets/button/lv_button.c ****     .constructor_cb = lv_button_constructor,
  33:../../Middlewares/LVGL/GUI/lvgl/src/widgets/button/lv_button.c ****     .width_def = LV_SIZE_CONTENT,
  34:../../Middlewares/LVGL/GUI/lvgl/src/widgets/button/lv_button.c ****     .height_def = LV_SIZE_CONTENT,
  35:../../Middlewares/LVGL/GUI/lvgl/src/widgets/button/lv_button.c ****     .group_def = LV_OBJ_CLASS_GROUP_DEF_TRUE,
  36:../../Middlewares/LVGL/GUI/lvgl/src/widgets/button/lv_button.c ****     .instance_size = sizeof(lv_button_t),
  37:../../Middlewares/LVGL/GUI/lvgl/src/widgets/button/lv_button.c ****     .base_class = &lv_obj_class,
  38:../../Middlewares/LVGL/GUI/lvgl/src/widgets/button/lv_button.c ****     .name = "lv_button",
  39:../../Middlewares/LVGL/GUI/lvgl/src/widgets/button/lv_button.c **** };
  40:../../Middlewares/LVGL/GUI/lvgl/src/widgets/button/lv_button.c **** 
  41:../../Middlewares/LVGL/GUI/lvgl/src/widgets/button/lv_button.c **** /**********************
  42:../../Middlewares/LVGL/GUI/lvgl/src/widgets/button/lv_button.c ****  *      MACROS
  43:../../Middlewares/LVGL/GUI/lvgl/src/widgets/button/lv_button.c ****  **********************/
  44:../../Middlewares/LVGL/GUI/lvgl/src/widgets/button/lv_button.c **** 
  45:../../Middlewares/LVGL/GUI/lvgl/src/widgets/button/lv_button.c **** /**********************
  46:../../Middlewares/LVGL/GUI/lvgl/src/widgets/button/lv_button.c ****  *   GLOBAL FUNCTIONS
  47:../../Middlewares/LVGL/GUI/lvgl/src/widgets/button/lv_button.c ****  **********************/
  48:../../Middlewares/LVGL/GUI/lvgl/src/widgets/button/lv_button.c **** 
  49:../../Middlewares/LVGL/GUI/lvgl/src/widgets/button/lv_button.c **** lv_obj_t * lv_button_create(lv_obj_t * parent)
  50:../../Middlewares/LVGL/GUI/lvgl/src/widgets/button/lv_button.c **** {
  51:../../Middlewares/LVGL/GUI/lvgl/src/widgets/button/lv_button.c ****     LV_LOG_INFO("begin");
  52:../../Middlewares/LVGL/GUI/lvgl/src/widgets/button/lv_button.c ****     lv_obj_t * obj = lv_obj_class_create_obj(MY_CLASS, parent);
  53:../../Middlewares/LVGL/GUI/lvgl/src/widgets/button/lv_button.c ****     lv_obj_class_init_obj(obj);
  54:../../Middlewares/LVGL/GUI/lvgl/src/widgets/button/lv_button.c ****     return obj;
  55:../../Middlewares/LVGL/GUI/lvgl/src/widgets/button/lv_button.c **** }
  56:../../Middlewares/LVGL/GUI/lvgl/src/widgets/button/lv_button.c **** 
  57:../../Middlewares/LVGL/GUI/lvgl/src/widgets/button/lv_button.c **** /**********************
  58:../../Middlewares/LVGL/GUI/lvgl/src/widgets/button/lv_button.c ****  *   STATIC FUNCTIONS
  59:../../Middlewares/LVGL/GUI/lvgl/src/widgets/button/lv_button.c ****  **********************/
  60:../../Middlewares/LVGL/GUI/lvgl/src/widgets/button/lv_button.c **** 
  61:../../Middlewares/LVGL/GUI/lvgl/src/widgets/button/lv_button.c **** static void lv_button_constructor(const lv_obj_class_t * class_p, lv_obj_t * obj)
  62:../../Middlewares/LVGL/GUI/lvgl/src/widgets/button/lv_button.c **** {
  28              		.loc 1 62 1 view -0
  29              		.cfi_startproc
  30              		@ args = 0, pretend = 0, frame = 0
  31              		@ frame_needed = 0, uses_anonymous_args = 0
  32              		.loc 1 62 1 is_stmt 0 view .LVU1
  33 0000 10B5     		push	{r4, lr}
  34              	.LCFI0:
  35              		.cfi_def_cfa_offset 8
  36              		.cfi_offset 4, -8
  37              		.cfi_offset 14, -4
  38 0002 0C46     		mov	r4, r1
  63:../../Middlewares/LVGL/GUI/lvgl/src/widgets/button/lv_button.c ****     LV_UNUSED(class_p);
  39              		.loc 1 63 5 is_stmt 1 view .LVU2
  64:../../Middlewares/LVGL/GUI/lvgl/src/widgets/button/lv_button.c ****     LV_TRACE_OBJ_CREATE("begin");
  40              		.loc 1 64 33 view .LVU3
  65:../../Middlewares/LVGL/GUI/lvgl/src/widgets/button/lv_button.c **** 
  66:../../Middlewares/LVGL/GUI/lvgl/src/widgets/button/lv_button.c ****     lv_obj_remove_flag(obj, LV_OBJ_FLAG_SCROLLABLE);
  41              		.loc 1 66 5 view .LVU4
  42 0004 1021     		movs	r1, #16
  43              	.LVL1:
  44              		.loc 1 66 5 is_stmt 0 view .LVU5
  45 0006 2046     		mov	r0, r4
  46              	.LVL2:
  47              		.loc 1 66 5 view .LVU6
  48 0008 FFF7FEFF 		bl	lv_obj_remove_flag
  49              	.LVL3:
ARM GAS  C:\Users\28576\AppData\Local\Temp\ccNaodsS.s 			page 3


  67:../../Middlewares/LVGL/GUI/lvgl/src/widgets/button/lv_button.c ****     lv_obj_add_flag(obj, LV_OBJ_FLAG_SCROLL_ON_FOCUS);
  50              		.loc 1 67 5 is_stmt 1 view .LVU7
  51 000c 4FF48061 		mov	r1, #1024
  52 0010 2046     		mov	r0, r4
  53 0012 FFF7FEFF 		bl	lv_obj_add_flag
  54              	.LVL4:
  68:../../Middlewares/LVGL/GUI/lvgl/src/widgets/button/lv_button.c **** 
  69:../../Middlewares/LVGL/GUI/lvgl/src/widgets/button/lv_button.c ****     LV_TRACE_OBJ_CREATE("finished");
  55              		.loc 1 69 36 view .LVU8
  70:../../Middlewares/LVGL/GUI/lvgl/src/widgets/button/lv_button.c **** }
  56              		.loc 1 70 1 is_stmt 0 view .LVU9
  57 0016 10BD     		pop	{r4, pc}
  58              		.loc 1 70 1 view .LVU10
  59              		.cfi_endproc
  60              	.LFE173:
  62              		.section	.text.lv_button_create,"ax",%progbits
  63              		.align	1
  64              		.global	lv_button_create
  65              		.syntax unified
  66              		.thumb
  67              		.thumb_func
  69              	lv_button_create:
  70              	.LVL5:
  71              	.LFB172:
  50:../../Middlewares/LVGL/GUI/lvgl/src/widgets/button/lv_button.c ****     LV_LOG_INFO("begin");
  72              		.loc 1 50 1 is_stmt 1 view -0
  73              		.cfi_startproc
  74              		@ args = 0, pretend = 0, frame = 0
  75              		@ frame_needed = 0, uses_anonymous_args = 0
  50:../../Middlewares/LVGL/GUI/lvgl/src/widgets/button/lv_button.c ****     LV_LOG_INFO("begin");
  76              		.loc 1 50 1 is_stmt 0 view .LVU12
  77 0000 10B5     		push	{r4, lr}
  78              	.LCFI1:
  79              		.cfi_def_cfa_offset 8
  80              		.cfi_offset 4, -8
  81              		.cfi_offset 14, -4
  82 0002 0146     		mov	r1, r0
  51:../../Middlewares/LVGL/GUI/lvgl/src/widgets/button/lv_button.c ****     lv_obj_t * obj = lv_obj_class_create_obj(MY_CLASS, parent);
  83              		.loc 1 51 5 is_stmt 1 view .LVU13
  51:../../Middlewares/LVGL/GUI/lvgl/src/widgets/button/lv_button.c ****     lv_obj_t * obj = lv_obj_class_create_obj(MY_CLASS, parent);
  84              		.loc 1 51 5 view .LVU14
  51:../../Middlewares/LVGL/GUI/lvgl/src/widgets/button/lv_button.c ****     lv_obj_t * obj = lv_obj_class_create_obj(MY_CLASS, parent);
  85              		.loc 1 51 5 view .LVU15
  52:../../Middlewares/LVGL/GUI/lvgl/src/widgets/button/lv_button.c ****     lv_obj_class_init_obj(obj);
  86              		.loc 1 52 5 view .LVU16
  52:../../Middlewares/LVGL/GUI/lvgl/src/widgets/button/lv_button.c ****     lv_obj_class_init_obj(obj);
  87              		.loc 1 52 22 is_stmt 0 view .LVU17
  88 0004 0348     		ldr	r0, .L5
  89              	.LVL6:
  52:../../Middlewares/LVGL/GUI/lvgl/src/widgets/button/lv_button.c ****     lv_obj_class_init_obj(obj);
  90              		.loc 1 52 22 view .LVU18
  91 0006 FFF7FEFF 		bl	lv_obj_class_create_obj
  92              	.LVL7:
  52:../../Middlewares/LVGL/GUI/lvgl/src/widgets/button/lv_button.c ****     lv_obj_class_init_obj(obj);
  93              		.loc 1 52 22 view .LVU19
  94 000a 0446     		mov	r4, r0
  95              	.LVL8:
ARM GAS  C:\Users\28576\AppData\Local\Temp\ccNaodsS.s 			page 4


  53:../../Middlewares/LVGL/GUI/lvgl/src/widgets/button/lv_button.c ****     return obj;
  96              		.loc 1 53 5 is_stmt 1 view .LVU20
  97 000c FFF7FEFF 		bl	lv_obj_class_init_obj
  98              	.LVL9:
  54:../../Middlewares/LVGL/GUI/lvgl/src/widgets/button/lv_button.c **** }
  99              		.loc 1 54 5 view .LVU21
  55:../../Middlewares/LVGL/GUI/lvgl/src/widgets/button/lv_button.c **** 
 100              		.loc 1 55 1 is_stmt 0 view .LVU22
 101 0010 2046     		mov	r0, r4
 102 0012 10BD     		pop	{r4, pc}
 103              	.LVL10:
 104              	.L6:
  55:../../Middlewares/LVGL/GUI/lvgl/src/widgets/button/lv_button.c **** 
 105              		.loc 1 55 1 view .LVU23
 106              		.align	2
 107              	.L5:
 108 0014 00000000 		.word	lv_button_class
 109              		.cfi_endproc
 110              	.LFE172:
 112              		.global	lv_button_class
 113              		.section	.rodata.str1.4,"aMS",%progbits,1
 114              		.align	2
 115              	.LC0:
 116 0000 6C765F62 		.ascii	"lv_button\000"
 116      7574746F 
 116      6E00
 117              		.section	.rodata.lv_button_class,"a"
 118              		.align	2
 121              	lv_button_class:
 122 0000 00000000 		.word	lv_obj_class
 123 0004 00000000 		.word	lv_button_constructor
 124 0008 00000000 		.space	12
 124      00000000 
 124      00000000 
 125 0014 00000000 		.word	.LC0
 126 0018 FFFFFF3F 		.word	1073741823
 127 001c FFFFFF3F 		.word	1073741823
 128 0020 C4       		.byte	196
 129 0021 02       		.byte	2
 130 0022 00       		.byte	0
 131 0023 00       		.space	1
 132              		.text
 133              	.Letext0:
 134              		.file 2 "C:/Users/28576/AppData/Roaming/xPacks/@xpack-dev-tools/arm-none-eabi-gcc/15.2.1-1.1.1/.co
 135              		.file 3 "C:/Users/28576/AppData/Roaming/xPacks/@xpack-dev-tools/arm-none-eabi-gcc/15.2.1-1.1.1/.co
 136              		.file 4 "H:/STM32H7/RGB_LVGL/Middlewares/LVGL/GUI/lvgl/src/misc/lv_types.h"
 137              		.file 5 "H:/STM32H7/RGB_LVGL/Middlewares/LVGL/GUI/lvgl/src/core/lv_obj_private.h"
 138              		.file 6 "H:/STM32H7/RGB_LVGL/Middlewares/LVGL/GUI/lvgl/src/core/lv_obj_class_private.h"
 139              		.file 7 "H:/STM32H7/RGB_LVGL/Middlewares/LVGL/GUI/lvgl/src/misc/lv_array.h"
 140              		.file 8 "H:/STM32H7/RGB_LVGL/Middlewares/LVGL/GUI/lvgl/src/misc/lv_area.h"
 141              		.file 9 "H:/STM32H7/RGB_LVGL/Middlewares/LVGL/GUI/lvgl/src/misc/lv_event.h"
 142              		.file 10 "H:/STM32H7/RGB_LVGL/Middlewares/LVGL/GUI/lvgl/src/core/lv_obj_class.h"
 143              		.file 11 "H:/STM32H7/RGB_LVGL/Middlewares/LVGL/GUI/lvgl/src/indev/lv_indev.h"
 144              		.file 12 "H:/STM32H7/RGB_LVGL/Middlewares/LVGL/GUI/lvgl/src/core/lv_obj.h"
 145              		.file 13 "../../Middlewares/LVGL/GUI/lvgl/src/widgets/button/lv_button.h"
ARM GAS  C:\Users\28576\AppData\Local\Temp\ccNaodsS.s 			page 5

