ARM GAS  C:\Users\28576\AppData\Local\Temp\ccyxHldv.s 			page 1


   1              		.cpu cortex-m7
   2              		.arch armv7e-m
   3              		.fpu fpv5-d16
   4              		.eabi_attribute 28, 1
   5              		.eabi_attribute 20, 1
   6              		.eabi_attribute 21, 1
   7              		.eabi_attribute 23, 3
   8              		.eabi_attribute 24, 1
   9              		.eabi_attribute 25, 1
  10              		.eabi_attribute 26, 1
  11              		.eabi_attribute 30, 1
  12              		.eabi_attribute 34, 1
  13              		.eabi_attribute 18, 4
  14              		.file	"lv_cache.c"
  15              		.text
  16              	.Ltext0:
  17              		.cfi_sections	.debug_frame
  18              		.file 1 "../../Middlewares/LVGL/GUI/lvgl/src/misc/cache/lv_cache.c"
  19              		.section	.text.cache_evict_one_internal_no_lock,"ax",%progbits
  20              		.align	1
  21              		.syntax unified
  22              		.thumb
  23              		.thumb_func
  25              	cache_evict_one_internal_no_lock:
  26              	.LVL0:
  27              	.LFB39:
   1:../../Middlewares/LVGL/GUI/lvgl/src/misc/cache/lv_cache.c **** /**
   2:../../Middlewares/LVGL/GUI/lvgl/src/misc/cache/lv_cache.c **** * @file lv_cache.c
   3:../../Middlewares/LVGL/GUI/lvgl/src/misc/cache/lv_cache.c **** *
   4:../../Middlewares/LVGL/GUI/lvgl/src/misc/cache/lv_cache.c **** */
   5:../../Middlewares/LVGL/GUI/lvgl/src/misc/cache/lv_cache.c **** 
   6:../../Middlewares/LVGL/GUI/lvgl/src/misc/cache/lv_cache.c **** /*********************
   7:../../Middlewares/LVGL/GUI/lvgl/src/misc/cache/lv_cache.c ****  *      INCLUDES
   8:../../Middlewares/LVGL/GUI/lvgl/src/misc/cache/lv_cache.c ****  *********************/
   9:../../Middlewares/LVGL/GUI/lvgl/src/misc/cache/lv_cache.c **** #include "lv_cache.h"
  10:../../Middlewares/LVGL/GUI/lvgl/src/misc/cache/lv_cache.c **** #include "../../stdlib/lv_sprintf.h"
  11:../../Middlewares/LVGL/GUI/lvgl/src/misc/cache/lv_cache.c **** #include "../lv_assert.h"
  12:../../Middlewares/LVGL/GUI/lvgl/src/misc/cache/lv_cache.c **** #include "lv_cache_entry_private.h"
  13:../../Middlewares/LVGL/GUI/lvgl/src/misc/cache/lv_cache.c **** #include "lv_cache_private.h"
  14:../../Middlewares/LVGL/GUI/lvgl/src/misc/cache/lv_cache.c **** 
  15:../../Middlewares/LVGL/GUI/lvgl/src/misc/cache/lv_cache.c **** /*********************
  16:../../Middlewares/LVGL/GUI/lvgl/src/misc/cache/lv_cache.c ****  *      DEFINES
  17:../../Middlewares/LVGL/GUI/lvgl/src/misc/cache/lv_cache.c ****  *********************/
  18:../../Middlewares/LVGL/GUI/lvgl/src/misc/cache/lv_cache.c **** 
  19:../../Middlewares/LVGL/GUI/lvgl/src/misc/cache/lv_cache.c **** /**********************
  20:../../Middlewares/LVGL/GUI/lvgl/src/misc/cache/lv_cache.c ****  *      TYPEDEFS
  21:../../Middlewares/LVGL/GUI/lvgl/src/misc/cache/lv_cache.c ****  **********************/
  22:../../Middlewares/LVGL/GUI/lvgl/src/misc/cache/lv_cache.c **** 
  23:../../Middlewares/LVGL/GUI/lvgl/src/misc/cache/lv_cache.c **** /**********************
  24:../../Middlewares/LVGL/GUI/lvgl/src/misc/cache/lv_cache.c ****  *  STATIC PROTOTYPES
  25:../../Middlewares/LVGL/GUI/lvgl/src/misc/cache/lv_cache.c ****  **********************/
  26:../../Middlewares/LVGL/GUI/lvgl/src/misc/cache/lv_cache.c **** static void cache_drop_internal_no_lock(lv_cache_t * cache, const void * key, void * user_data);
  27:../../Middlewares/LVGL/GUI/lvgl/src/misc/cache/lv_cache.c **** static bool cache_evict_one_internal_no_lock(lv_cache_t * cache, void * user_data);
  28:../../Middlewares/LVGL/GUI/lvgl/src/misc/cache/lv_cache.c **** static lv_cache_entry_t * cache_add_internal_no_lock(lv_cache_t * cache, const void * key, void * u
  29:../../Middlewares/LVGL/GUI/lvgl/src/misc/cache/lv_cache.c **** 
  30:../../Middlewares/LVGL/GUI/lvgl/src/misc/cache/lv_cache.c **** /**********************
  31:../../Middlewares/LVGL/GUI/lvgl/src/misc/cache/lv_cache.c ****  *  GLOBAL VARIABLES
ARM GAS  C:\Users\28576\AppData\Local\Temp\ccyxHldv.s 			page 2


  32:../../Middlewares/LVGL/GUI/lvgl/src/misc/cache/lv_cache.c ****  **********************/
  33:../../Middlewares/LVGL/GUI/lvgl/src/misc/cache/lv_cache.c **** 
  34:../../Middlewares/LVGL/GUI/lvgl/src/misc/cache/lv_cache.c **** /**********************
  35:../../Middlewares/LVGL/GUI/lvgl/src/misc/cache/lv_cache.c ****  *  STATIC VARIABLES
  36:../../Middlewares/LVGL/GUI/lvgl/src/misc/cache/lv_cache.c ****  **********************/
  37:../../Middlewares/LVGL/GUI/lvgl/src/misc/cache/lv_cache.c **** 
  38:../../Middlewares/LVGL/GUI/lvgl/src/misc/cache/lv_cache.c **** /**********************
  39:../../Middlewares/LVGL/GUI/lvgl/src/misc/cache/lv_cache.c ****  *      MACROS
  40:../../Middlewares/LVGL/GUI/lvgl/src/misc/cache/lv_cache.c ****  **********************/
  41:../../Middlewares/LVGL/GUI/lvgl/src/misc/cache/lv_cache.c **** 
  42:../../Middlewares/LVGL/GUI/lvgl/src/misc/cache/lv_cache.c **** /**********************
  43:../../Middlewares/LVGL/GUI/lvgl/src/misc/cache/lv_cache.c ****  *   GLOBAL FUNCTIONS
  44:../../Middlewares/LVGL/GUI/lvgl/src/misc/cache/lv_cache.c ****  **********************/
  45:../../Middlewares/LVGL/GUI/lvgl/src/misc/cache/lv_cache.c **** 
  46:../../Middlewares/LVGL/GUI/lvgl/src/misc/cache/lv_cache.c **** lv_cache_t * lv_cache_create(const lv_cache_class_t * cache_class,
  47:../../Middlewares/LVGL/GUI/lvgl/src/misc/cache/lv_cache.c ****                              size_t node_size, size_t max_size,
  48:../../Middlewares/LVGL/GUI/lvgl/src/misc/cache/lv_cache.c ****                              lv_cache_ops_t ops)
  49:../../Middlewares/LVGL/GUI/lvgl/src/misc/cache/lv_cache.c **** {
  50:../../Middlewares/LVGL/GUI/lvgl/src/misc/cache/lv_cache.c ****     lv_cache_t * cache = cache_class->alloc_cb();
  51:../../Middlewares/LVGL/GUI/lvgl/src/misc/cache/lv_cache.c ****     LV_ASSERT_MALLOC(cache);
  52:../../Middlewares/LVGL/GUI/lvgl/src/misc/cache/lv_cache.c **** 
  53:../../Middlewares/LVGL/GUI/lvgl/src/misc/cache/lv_cache.c ****     cache->clz = cache_class;
  54:../../Middlewares/LVGL/GUI/lvgl/src/misc/cache/lv_cache.c ****     cache->node_size = node_size;
  55:../../Middlewares/LVGL/GUI/lvgl/src/misc/cache/lv_cache.c ****     cache->max_size = max_size;
  56:../../Middlewares/LVGL/GUI/lvgl/src/misc/cache/lv_cache.c ****     cache->size = 0;
  57:../../Middlewares/LVGL/GUI/lvgl/src/misc/cache/lv_cache.c ****     cache->ops = ops;
  58:../../Middlewares/LVGL/GUI/lvgl/src/misc/cache/lv_cache.c **** 
  59:../../Middlewares/LVGL/GUI/lvgl/src/misc/cache/lv_cache.c ****     if(cache->clz->init_cb(cache) == false) {
  60:../../Middlewares/LVGL/GUI/lvgl/src/misc/cache/lv_cache.c ****         LV_LOG_ERROR("Cache init failed");
  61:../../Middlewares/LVGL/GUI/lvgl/src/misc/cache/lv_cache.c ****         lv_free(cache);
  62:../../Middlewares/LVGL/GUI/lvgl/src/misc/cache/lv_cache.c ****         return NULL;
  63:../../Middlewares/LVGL/GUI/lvgl/src/misc/cache/lv_cache.c ****     }
  64:../../Middlewares/LVGL/GUI/lvgl/src/misc/cache/lv_cache.c **** 
  65:../../Middlewares/LVGL/GUI/lvgl/src/misc/cache/lv_cache.c ****     lv_mutex_init(&cache->lock);
  66:../../Middlewares/LVGL/GUI/lvgl/src/misc/cache/lv_cache.c **** 
  67:../../Middlewares/LVGL/GUI/lvgl/src/misc/cache/lv_cache.c ****     return cache;
  68:../../Middlewares/LVGL/GUI/lvgl/src/misc/cache/lv_cache.c **** }
  69:../../Middlewares/LVGL/GUI/lvgl/src/misc/cache/lv_cache.c **** 
  70:../../Middlewares/LVGL/GUI/lvgl/src/misc/cache/lv_cache.c **** void lv_cache_destroy(lv_cache_t * cache, void * user_data)
  71:../../Middlewares/LVGL/GUI/lvgl/src/misc/cache/lv_cache.c **** {
  72:../../Middlewares/LVGL/GUI/lvgl/src/misc/cache/lv_cache.c ****     LV_ASSERT_NULL(cache);
  73:../../Middlewares/LVGL/GUI/lvgl/src/misc/cache/lv_cache.c **** 
  74:../../Middlewares/LVGL/GUI/lvgl/src/misc/cache/lv_cache.c ****     lv_mutex_lock(&cache->lock);
  75:../../Middlewares/LVGL/GUI/lvgl/src/misc/cache/lv_cache.c ****     cache->clz->destroy_cb(cache, user_data);
  76:../../Middlewares/LVGL/GUI/lvgl/src/misc/cache/lv_cache.c ****     lv_mutex_unlock(&cache->lock);
  77:../../Middlewares/LVGL/GUI/lvgl/src/misc/cache/lv_cache.c ****     lv_mutex_delete(&cache->lock);
  78:../../Middlewares/LVGL/GUI/lvgl/src/misc/cache/lv_cache.c ****     lv_free(cache);
  79:../../Middlewares/LVGL/GUI/lvgl/src/misc/cache/lv_cache.c **** }
  80:../../Middlewares/LVGL/GUI/lvgl/src/misc/cache/lv_cache.c **** 
  81:../../Middlewares/LVGL/GUI/lvgl/src/misc/cache/lv_cache.c **** lv_cache_entry_t * lv_cache_acquire(lv_cache_t * cache, const void * key, void * user_data)
  82:../../Middlewares/LVGL/GUI/lvgl/src/misc/cache/lv_cache.c **** {
  83:../../Middlewares/LVGL/GUI/lvgl/src/misc/cache/lv_cache.c ****     LV_ASSERT_NULL(cache);
  84:../../Middlewares/LVGL/GUI/lvgl/src/misc/cache/lv_cache.c ****     LV_ASSERT_NULL(key);
  85:../../Middlewares/LVGL/GUI/lvgl/src/misc/cache/lv_cache.c **** 
  86:../../Middlewares/LVGL/GUI/lvgl/src/misc/cache/lv_cache.c ****     LV_PROFILER_CACHE_BEGIN;
  87:../../Middlewares/LVGL/GUI/lvgl/src/misc/cache/lv_cache.c **** 
  88:../../Middlewares/LVGL/GUI/lvgl/src/misc/cache/lv_cache.c ****     lv_mutex_lock(&cache->lock);
ARM GAS  C:\Users\28576\AppData\Local\Temp\ccyxHldv.s 			page 3


  89:../../Middlewares/LVGL/GUI/lvgl/src/misc/cache/lv_cache.c **** 
  90:../../Middlewares/LVGL/GUI/lvgl/src/misc/cache/lv_cache.c ****     if(cache->size == 0) {
  91:../../Middlewares/LVGL/GUI/lvgl/src/misc/cache/lv_cache.c ****         lv_mutex_unlock(&cache->lock);
  92:../../Middlewares/LVGL/GUI/lvgl/src/misc/cache/lv_cache.c **** 
  93:../../Middlewares/LVGL/GUI/lvgl/src/misc/cache/lv_cache.c ****         LV_PROFILER_CACHE_END;
  94:../../Middlewares/LVGL/GUI/lvgl/src/misc/cache/lv_cache.c ****         return NULL;
  95:../../Middlewares/LVGL/GUI/lvgl/src/misc/cache/lv_cache.c ****     }
  96:../../Middlewares/LVGL/GUI/lvgl/src/misc/cache/lv_cache.c **** 
  97:../../Middlewares/LVGL/GUI/lvgl/src/misc/cache/lv_cache.c ****     lv_cache_entry_t * entry = cache->clz->get_cb(cache, key, user_data);
  98:../../Middlewares/LVGL/GUI/lvgl/src/misc/cache/lv_cache.c ****     if(entry != NULL) {
  99:../../Middlewares/LVGL/GUI/lvgl/src/misc/cache/lv_cache.c ****         lv_cache_entry_acquire_data(entry);
 100:../../Middlewares/LVGL/GUI/lvgl/src/misc/cache/lv_cache.c ****     }
 101:../../Middlewares/LVGL/GUI/lvgl/src/misc/cache/lv_cache.c ****     lv_mutex_unlock(&cache->lock);
 102:../../Middlewares/LVGL/GUI/lvgl/src/misc/cache/lv_cache.c **** 
 103:../../Middlewares/LVGL/GUI/lvgl/src/misc/cache/lv_cache.c ****     LV_PROFILER_CACHE_END;
 104:../../Middlewares/LVGL/GUI/lvgl/src/misc/cache/lv_cache.c ****     return entry;
 105:../../Middlewares/LVGL/GUI/lvgl/src/misc/cache/lv_cache.c **** }
 106:../../Middlewares/LVGL/GUI/lvgl/src/misc/cache/lv_cache.c **** void lv_cache_release(lv_cache_t * cache, lv_cache_entry_t * entry, void * user_data)
 107:../../Middlewares/LVGL/GUI/lvgl/src/misc/cache/lv_cache.c **** {
 108:../../Middlewares/LVGL/GUI/lvgl/src/misc/cache/lv_cache.c ****     LV_ASSERT_NULL(entry);
 109:../../Middlewares/LVGL/GUI/lvgl/src/misc/cache/lv_cache.c **** 
 110:../../Middlewares/LVGL/GUI/lvgl/src/misc/cache/lv_cache.c ****     LV_PROFILER_CACHE_BEGIN;
 111:../../Middlewares/LVGL/GUI/lvgl/src/misc/cache/lv_cache.c **** 
 112:../../Middlewares/LVGL/GUI/lvgl/src/misc/cache/lv_cache.c ****     lv_mutex_lock(&cache->lock);
 113:../../Middlewares/LVGL/GUI/lvgl/src/misc/cache/lv_cache.c ****     lv_cache_entry_release_data(entry, user_data);
 114:../../Middlewares/LVGL/GUI/lvgl/src/misc/cache/lv_cache.c **** 
 115:../../Middlewares/LVGL/GUI/lvgl/src/misc/cache/lv_cache.c ****     if(lv_cache_entry_get_ref(entry) == 0 && lv_cache_entry_is_invalid(entry)) {
 116:../../Middlewares/LVGL/GUI/lvgl/src/misc/cache/lv_cache.c ****         cache->ops.free_cb(lv_cache_entry_get_data(entry), user_data);
 117:../../Middlewares/LVGL/GUI/lvgl/src/misc/cache/lv_cache.c ****         lv_cache_entry_delete(entry);
 118:../../Middlewares/LVGL/GUI/lvgl/src/misc/cache/lv_cache.c ****     }
 119:../../Middlewares/LVGL/GUI/lvgl/src/misc/cache/lv_cache.c ****     lv_mutex_unlock(&cache->lock);
 120:../../Middlewares/LVGL/GUI/lvgl/src/misc/cache/lv_cache.c **** 
 121:../../Middlewares/LVGL/GUI/lvgl/src/misc/cache/lv_cache.c ****     LV_PROFILER_CACHE_END;
 122:../../Middlewares/LVGL/GUI/lvgl/src/misc/cache/lv_cache.c **** }
 123:../../Middlewares/LVGL/GUI/lvgl/src/misc/cache/lv_cache.c **** lv_cache_entry_t * lv_cache_add(lv_cache_t * cache, const void * key, void * user_data)
 124:../../Middlewares/LVGL/GUI/lvgl/src/misc/cache/lv_cache.c **** {
 125:../../Middlewares/LVGL/GUI/lvgl/src/misc/cache/lv_cache.c ****     LV_ASSERT_NULL(cache);
 126:../../Middlewares/LVGL/GUI/lvgl/src/misc/cache/lv_cache.c ****     LV_ASSERT_NULL(key);
 127:../../Middlewares/LVGL/GUI/lvgl/src/misc/cache/lv_cache.c **** 
 128:../../Middlewares/LVGL/GUI/lvgl/src/misc/cache/lv_cache.c ****     LV_PROFILER_CACHE_BEGIN;
 129:../../Middlewares/LVGL/GUI/lvgl/src/misc/cache/lv_cache.c **** 
 130:../../Middlewares/LVGL/GUI/lvgl/src/misc/cache/lv_cache.c ****     lv_mutex_lock(&cache->lock);
 131:../../Middlewares/LVGL/GUI/lvgl/src/misc/cache/lv_cache.c ****     if(cache->max_size == 0) {
 132:../../Middlewares/LVGL/GUI/lvgl/src/misc/cache/lv_cache.c ****         lv_mutex_unlock(&cache->lock);
 133:../../Middlewares/LVGL/GUI/lvgl/src/misc/cache/lv_cache.c **** 
 134:../../Middlewares/LVGL/GUI/lvgl/src/misc/cache/lv_cache.c ****         LV_PROFILER_CACHE_END;
 135:../../Middlewares/LVGL/GUI/lvgl/src/misc/cache/lv_cache.c ****         return NULL;
 136:../../Middlewares/LVGL/GUI/lvgl/src/misc/cache/lv_cache.c ****     }
 137:../../Middlewares/LVGL/GUI/lvgl/src/misc/cache/lv_cache.c **** 
 138:../../Middlewares/LVGL/GUI/lvgl/src/misc/cache/lv_cache.c ****     lv_cache_entry_t * entry = cache_add_internal_no_lock(cache, key, user_data);
 139:../../Middlewares/LVGL/GUI/lvgl/src/misc/cache/lv_cache.c ****     if(entry != NULL) {
 140:../../Middlewares/LVGL/GUI/lvgl/src/misc/cache/lv_cache.c ****         lv_cache_entry_acquire_data(entry);
 141:../../Middlewares/LVGL/GUI/lvgl/src/misc/cache/lv_cache.c ****     }
 142:../../Middlewares/LVGL/GUI/lvgl/src/misc/cache/lv_cache.c ****     lv_mutex_unlock(&cache->lock);
 143:../../Middlewares/LVGL/GUI/lvgl/src/misc/cache/lv_cache.c **** 
 144:../../Middlewares/LVGL/GUI/lvgl/src/misc/cache/lv_cache.c ****     LV_PROFILER_CACHE_END;
 145:../../Middlewares/LVGL/GUI/lvgl/src/misc/cache/lv_cache.c ****     return entry;
ARM GAS  C:\Users\28576\AppData\Local\Temp\ccyxHldv.s 			page 4


 146:../../Middlewares/LVGL/GUI/lvgl/src/misc/cache/lv_cache.c **** }
 147:../../Middlewares/LVGL/GUI/lvgl/src/misc/cache/lv_cache.c **** lv_cache_entry_t * lv_cache_acquire_or_create(lv_cache_t * cache, const void * key, void * user_dat
 148:../../Middlewares/LVGL/GUI/lvgl/src/misc/cache/lv_cache.c **** {
 149:../../Middlewares/LVGL/GUI/lvgl/src/misc/cache/lv_cache.c ****     LV_ASSERT_NULL(cache);
 150:../../Middlewares/LVGL/GUI/lvgl/src/misc/cache/lv_cache.c ****     LV_ASSERT_NULL(key);
 151:../../Middlewares/LVGL/GUI/lvgl/src/misc/cache/lv_cache.c **** 
 152:../../Middlewares/LVGL/GUI/lvgl/src/misc/cache/lv_cache.c ****     LV_PROFILER_CACHE_BEGIN;
 153:../../Middlewares/LVGL/GUI/lvgl/src/misc/cache/lv_cache.c **** 
 154:../../Middlewares/LVGL/GUI/lvgl/src/misc/cache/lv_cache.c ****     lv_mutex_lock(&cache->lock);
 155:../../Middlewares/LVGL/GUI/lvgl/src/misc/cache/lv_cache.c ****     lv_cache_entry_t * entry = NULL;
 156:../../Middlewares/LVGL/GUI/lvgl/src/misc/cache/lv_cache.c **** 
 157:../../Middlewares/LVGL/GUI/lvgl/src/misc/cache/lv_cache.c ****     if(cache->size != 0) {
 158:../../Middlewares/LVGL/GUI/lvgl/src/misc/cache/lv_cache.c ****         entry = cache->clz->get_cb(cache, key, user_data);
 159:../../Middlewares/LVGL/GUI/lvgl/src/misc/cache/lv_cache.c ****         if(entry != NULL) {
 160:../../Middlewares/LVGL/GUI/lvgl/src/misc/cache/lv_cache.c ****             lv_cache_entry_acquire_data(entry);
 161:../../Middlewares/LVGL/GUI/lvgl/src/misc/cache/lv_cache.c ****             lv_mutex_unlock(&cache->lock);
 162:../../Middlewares/LVGL/GUI/lvgl/src/misc/cache/lv_cache.c **** 
 163:../../Middlewares/LVGL/GUI/lvgl/src/misc/cache/lv_cache.c ****             LV_PROFILER_CACHE_END;
 164:../../Middlewares/LVGL/GUI/lvgl/src/misc/cache/lv_cache.c ****             return entry;
 165:../../Middlewares/LVGL/GUI/lvgl/src/misc/cache/lv_cache.c ****         }
 166:../../Middlewares/LVGL/GUI/lvgl/src/misc/cache/lv_cache.c ****     }
 167:../../Middlewares/LVGL/GUI/lvgl/src/misc/cache/lv_cache.c **** 
 168:../../Middlewares/LVGL/GUI/lvgl/src/misc/cache/lv_cache.c ****     if(cache->max_size == 0) {
 169:../../Middlewares/LVGL/GUI/lvgl/src/misc/cache/lv_cache.c ****         lv_mutex_unlock(&cache->lock);
 170:../../Middlewares/LVGL/GUI/lvgl/src/misc/cache/lv_cache.c **** 
 171:../../Middlewares/LVGL/GUI/lvgl/src/misc/cache/lv_cache.c ****         LV_PROFILER_CACHE_END;
 172:../../Middlewares/LVGL/GUI/lvgl/src/misc/cache/lv_cache.c ****         return NULL;
 173:../../Middlewares/LVGL/GUI/lvgl/src/misc/cache/lv_cache.c ****     }
 174:../../Middlewares/LVGL/GUI/lvgl/src/misc/cache/lv_cache.c **** 
 175:../../Middlewares/LVGL/GUI/lvgl/src/misc/cache/lv_cache.c ****     entry = cache_add_internal_no_lock(cache, key, user_data);
 176:../../Middlewares/LVGL/GUI/lvgl/src/misc/cache/lv_cache.c ****     if(entry == NULL) {
 177:../../Middlewares/LVGL/GUI/lvgl/src/misc/cache/lv_cache.c ****         lv_mutex_unlock(&cache->lock);
 178:../../Middlewares/LVGL/GUI/lvgl/src/misc/cache/lv_cache.c **** 
 179:../../Middlewares/LVGL/GUI/lvgl/src/misc/cache/lv_cache.c ****         LV_PROFILER_CACHE_END;
 180:../../Middlewares/LVGL/GUI/lvgl/src/misc/cache/lv_cache.c ****         return NULL;
 181:../../Middlewares/LVGL/GUI/lvgl/src/misc/cache/lv_cache.c ****     }
 182:../../Middlewares/LVGL/GUI/lvgl/src/misc/cache/lv_cache.c ****     bool create_res = cache->ops.create_cb(lv_cache_entry_get_data(entry), user_data);
 183:../../Middlewares/LVGL/GUI/lvgl/src/misc/cache/lv_cache.c ****     if(create_res == false) {
 184:../../Middlewares/LVGL/GUI/lvgl/src/misc/cache/lv_cache.c ****         cache->clz->remove_cb(cache, entry, user_data);
 185:../../Middlewares/LVGL/GUI/lvgl/src/misc/cache/lv_cache.c ****         cache->ops.free_cb(lv_cache_entry_get_data(entry), user_data);
 186:../../Middlewares/LVGL/GUI/lvgl/src/misc/cache/lv_cache.c ****         lv_cache_entry_delete(entry);
 187:../../Middlewares/LVGL/GUI/lvgl/src/misc/cache/lv_cache.c ****         entry = NULL;
 188:../../Middlewares/LVGL/GUI/lvgl/src/misc/cache/lv_cache.c ****     }
 189:../../Middlewares/LVGL/GUI/lvgl/src/misc/cache/lv_cache.c ****     else {
 190:../../Middlewares/LVGL/GUI/lvgl/src/misc/cache/lv_cache.c ****         lv_cache_entry_acquire_data(entry);
 191:../../Middlewares/LVGL/GUI/lvgl/src/misc/cache/lv_cache.c ****     }
 192:../../Middlewares/LVGL/GUI/lvgl/src/misc/cache/lv_cache.c ****     lv_mutex_unlock(&cache->lock);
 193:../../Middlewares/LVGL/GUI/lvgl/src/misc/cache/lv_cache.c **** 
 194:../../Middlewares/LVGL/GUI/lvgl/src/misc/cache/lv_cache.c ****     LV_PROFILER_CACHE_END;
 195:../../Middlewares/LVGL/GUI/lvgl/src/misc/cache/lv_cache.c ****     return entry;
 196:../../Middlewares/LVGL/GUI/lvgl/src/misc/cache/lv_cache.c **** }
 197:../../Middlewares/LVGL/GUI/lvgl/src/misc/cache/lv_cache.c **** void lv_cache_reserve(lv_cache_t * cache, uint32_t reserved_size, void * user_data)
 198:../../Middlewares/LVGL/GUI/lvgl/src/misc/cache/lv_cache.c **** {
 199:../../Middlewares/LVGL/GUI/lvgl/src/misc/cache/lv_cache.c ****     LV_ASSERT_NULL(cache);
 200:../../Middlewares/LVGL/GUI/lvgl/src/misc/cache/lv_cache.c **** 
 201:../../Middlewares/LVGL/GUI/lvgl/src/misc/cache/lv_cache.c ****     LV_PROFILER_CACHE_BEGIN;
 202:../../Middlewares/LVGL/GUI/lvgl/src/misc/cache/lv_cache.c **** 
ARM GAS  C:\Users\28576\AppData\Local\Temp\ccyxHldv.s 			page 5


 203:../../Middlewares/LVGL/GUI/lvgl/src/misc/cache/lv_cache.c ****     for(lv_cache_reserve_cond_res_t reserve_cond_res = cache->clz->reserve_cond_cb(cache, NULL, res
 204:../../Middlewares/LVGL/GUI/lvgl/src/misc/cache/lv_cache.c ****         reserve_cond_res == LV_CACHE_RESERVE_COND_NEED_VICTIM;
 205:../../Middlewares/LVGL/GUI/lvgl/src/misc/cache/lv_cache.c ****         reserve_cond_res = cache->clz->reserve_cond_cb(cache, NULL, reserved_size, user_data))
 206:../../Middlewares/LVGL/GUI/lvgl/src/misc/cache/lv_cache.c ****         cache_evict_one_internal_no_lock(cache, user_data);
 207:../../Middlewares/LVGL/GUI/lvgl/src/misc/cache/lv_cache.c **** 
 208:../../Middlewares/LVGL/GUI/lvgl/src/misc/cache/lv_cache.c ****     LV_PROFILER_CACHE_END;
 209:../../Middlewares/LVGL/GUI/lvgl/src/misc/cache/lv_cache.c **** }
 210:../../Middlewares/LVGL/GUI/lvgl/src/misc/cache/lv_cache.c **** void lv_cache_drop(lv_cache_t * cache, const void * key, void * user_data)
 211:../../Middlewares/LVGL/GUI/lvgl/src/misc/cache/lv_cache.c **** {
 212:../../Middlewares/LVGL/GUI/lvgl/src/misc/cache/lv_cache.c ****     LV_ASSERT_NULL(cache);
 213:../../Middlewares/LVGL/GUI/lvgl/src/misc/cache/lv_cache.c ****     LV_ASSERT_NULL(key);
 214:../../Middlewares/LVGL/GUI/lvgl/src/misc/cache/lv_cache.c **** 
 215:../../Middlewares/LVGL/GUI/lvgl/src/misc/cache/lv_cache.c ****     LV_PROFILER_CACHE_BEGIN;
 216:../../Middlewares/LVGL/GUI/lvgl/src/misc/cache/lv_cache.c **** 
 217:../../Middlewares/LVGL/GUI/lvgl/src/misc/cache/lv_cache.c ****     lv_mutex_lock(&cache->lock);
 218:../../Middlewares/LVGL/GUI/lvgl/src/misc/cache/lv_cache.c ****     cache_drop_internal_no_lock(cache, key, user_data);
 219:../../Middlewares/LVGL/GUI/lvgl/src/misc/cache/lv_cache.c ****     lv_mutex_unlock(&cache->lock);
 220:../../Middlewares/LVGL/GUI/lvgl/src/misc/cache/lv_cache.c **** 
 221:../../Middlewares/LVGL/GUI/lvgl/src/misc/cache/lv_cache.c ****     LV_PROFILER_CACHE_END;
 222:../../Middlewares/LVGL/GUI/lvgl/src/misc/cache/lv_cache.c **** }
 223:../../Middlewares/LVGL/GUI/lvgl/src/misc/cache/lv_cache.c **** bool lv_cache_evict_one(lv_cache_t * cache, void * user_data)
 224:../../Middlewares/LVGL/GUI/lvgl/src/misc/cache/lv_cache.c **** {
 225:../../Middlewares/LVGL/GUI/lvgl/src/misc/cache/lv_cache.c ****     LV_ASSERT_NULL(cache);
 226:../../Middlewares/LVGL/GUI/lvgl/src/misc/cache/lv_cache.c **** 
 227:../../Middlewares/LVGL/GUI/lvgl/src/misc/cache/lv_cache.c ****     LV_PROFILER_CACHE_BEGIN;
 228:../../Middlewares/LVGL/GUI/lvgl/src/misc/cache/lv_cache.c **** 
 229:../../Middlewares/LVGL/GUI/lvgl/src/misc/cache/lv_cache.c ****     lv_mutex_lock(&cache->lock);
 230:../../Middlewares/LVGL/GUI/lvgl/src/misc/cache/lv_cache.c ****     bool res = cache_evict_one_internal_no_lock(cache, user_data);
 231:../../Middlewares/LVGL/GUI/lvgl/src/misc/cache/lv_cache.c ****     lv_mutex_unlock(&cache->lock);
 232:../../Middlewares/LVGL/GUI/lvgl/src/misc/cache/lv_cache.c **** 
 233:../../Middlewares/LVGL/GUI/lvgl/src/misc/cache/lv_cache.c ****     LV_PROFILER_CACHE_END;
 234:../../Middlewares/LVGL/GUI/lvgl/src/misc/cache/lv_cache.c ****     return res;
 235:../../Middlewares/LVGL/GUI/lvgl/src/misc/cache/lv_cache.c **** }
 236:../../Middlewares/LVGL/GUI/lvgl/src/misc/cache/lv_cache.c **** void lv_cache_drop_all(lv_cache_t * cache, void * user_data)
 237:../../Middlewares/LVGL/GUI/lvgl/src/misc/cache/lv_cache.c **** {
 238:../../Middlewares/LVGL/GUI/lvgl/src/misc/cache/lv_cache.c ****     LV_ASSERT_NULL(cache);
 239:../../Middlewares/LVGL/GUI/lvgl/src/misc/cache/lv_cache.c **** 
 240:../../Middlewares/LVGL/GUI/lvgl/src/misc/cache/lv_cache.c ****     LV_PROFILER_CACHE_BEGIN;
 241:../../Middlewares/LVGL/GUI/lvgl/src/misc/cache/lv_cache.c **** 
 242:../../Middlewares/LVGL/GUI/lvgl/src/misc/cache/lv_cache.c ****     lv_mutex_lock(&cache->lock);
 243:../../Middlewares/LVGL/GUI/lvgl/src/misc/cache/lv_cache.c ****     cache->clz->drop_all_cb(cache, user_data);
 244:../../Middlewares/LVGL/GUI/lvgl/src/misc/cache/lv_cache.c ****     lv_mutex_unlock(&cache->lock);
 245:../../Middlewares/LVGL/GUI/lvgl/src/misc/cache/lv_cache.c **** 
 246:../../Middlewares/LVGL/GUI/lvgl/src/misc/cache/lv_cache.c ****     LV_PROFILER_CACHE_END;
 247:../../Middlewares/LVGL/GUI/lvgl/src/misc/cache/lv_cache.c **** }
 248:../../Middlewares/LVGL/GUI/lvgl/src/misc/cache/lv_cache.c **** 
 249:../../Middlewares/LVGL/GUI/lvgl/src/misc/cache/lv_cache.c **** void lv_cache_set_max_size(lv_cache_t * cache, size_t max_size, void * user_data)
 250:../../Middlewares/LVGL/GUI/lvgl/src/misc/cache/lv_cache.c **** {
 251:../../Middlewares/LVGL/GUI/lvgl/src/misc/cache/lv_cache.c ****     LV_UNUSED(user_data);
 252:../../Middlewares/LVGL/GUI/lvgl/src/misc/cache/lv_cache.c ****     cache->max_size = max_size;
 253:../../Middlewares/LVGL/GUI/lvgl/src/misc/cache/lv_cache.c **** }
 254:../../Middlewares/LVGL/GUI/lvgl/src/misc/cache/lv_cache.c **** size_t lv_cache_get_max_size(lv_cache_t * cache, void * user_data)
 255:../../Middlewares/LVGL/GUI/lvgl/src/misc/cache/lv_cache.c **** {
 256:../../Middlewares/LVGL/GUI/lvgl/src/misc/cache/lv_cache.c ****     LV_UNUSED(user_data);
 257:../../Middlewares/LVGL/GUI/lvgl/src/misc/cache/lv_cache.c ****     return cache->max_size;
 258:../../Middlewares/LVGL/GUI/lvgl/src/misc/cache/lv_cache.c **** }
 259:../../Middlewares/LVGL/GUI/lvgl/src/misc/cache/lv_cache.c **** size_t lv_cache_get_size(lv_cache_t * cache, void * user_data)
ARM GAS  C:\Users\28576\AppData\Local\Temp\ccyxHldv.s 			page 6


 260:../../Middlewares/LVGL/GUI/lvgl/src/misc/cache/lv_cache.c **** {
 261:../../Middlewares/LVGL/GUI/lvgl/src/misc/cache/lv_cache.c ****     LV_UNUSED(user_data);
 262:../../Middlewares/LVGL/GUI/lvgl/src/misc/cache/lv_cache.c ****     return cache->size;
 263:../../Middlewares/LVGL/GUI/lvgl/src/misc/cache/lv_cache.c **** }
 264:../../Middlewares/LVGL/GUI/lvgl/src/misc/cache/lv_cache.c **** size_t lv_cache_get_free_size(lv_cache_t * cache, void * user_data)
 265:../../Middlewares/LVGL/GUI/lvgl/src/misc/cache/lv_cache.c **** {
 266:../../Middlewares/LVGL/GUI/lvgl/src/misc/cache/lv_cache.c ****     LV_UNUSED(user_data);
 267:../../Middlewares/LVGL/GUI/lvgl/src/misc/cache/lv_cache.c ****     return cache->max_size - cache->size;
 268:../../Middlewares/LVGL/GUI/lvgl/src/misc/cache/lv_cache.c **** }
 269:../../Middlewares/LVGL/GUI/lvgl/src/misc/cache/lv_cache.c **** bool lv_cache_is_enabled(lv_cache_t * cache)
 270:../../Middlewares/LVGL/GUI/lvgl/src/misc/cache/lv_cache.c **** {
 271:../../Middlewares/LVGL/GUI/lvgl/src/misc/cache/lv_cache.c ****     return cache->max_size > 0;
 272:../../Middlewares/LVGL/GUI/lvgl/src/misc/cache/lv_cache.c **** }
 273:../../Middlewares/LVGL/GUI/lvgl/src/misc/cache/lv_cache.c **** void lv_cache_set_compare_cb(lv_cache_t * cache, lv_cache_compare_cb_t compare_cb, void * user_data
 274:../../Middlewares/LVGL/GUI/lvgl/src/misc/cache/lv_cache.c **** {
 275:../../Middlewares/LVGL/GUI/lvgl/src/misc/cache/lv_cache.c ****     LV_UNUSED(user_data);
 276:../../Middlewares/LVGL/GUI/lvgl/src/misc/cache/lv_cache.c ****     cache->ops.compare_cb = compare_cb;
 277:../../Middlewares/LVGL/GUI/lvgl/src/misc/cache/lv_cache.c **** }
 278:../../Middlewares/LVGL/GUI/lvgl/src/misc/cache/lv_cache.c **** void lv_cache_set_create_cb(lv_cache_t * cache, lv_cache_create_cb_t alloc_cb, void * user_data)
 279:../../Middlewares/LVGL/GUI/lvgl/src/misc/cache/lv_cache.c **** {
 280:../../Middlewares/LVGL/GUI/lvgl/src/misc/cache/lv_cache.c ****     LV_UNUSED(user_data);
 281:../../Middlewares/LVGL/GUI/lvgl/src/misc/cache/lv_cache.c ****     cache->ops.create_cb = alloc_cb;
 282:../../Middlewares/LVGL/GUI/lvgl/src/misc/cache/lv_cache.c **** }
 283:../../Middlewares/LVGL/GUI/lvgl/src/misc/cache/lv_cache.c **** void lv_cache_set_free_cb(lv_cache_t * cache, lv_cache_free_cb_t free_cb, void * user_data)
 284:../../Middlewares/LVGL/GUI/lvgl/src/misc/cache/lv_cache.c **** {
 285:../../Middlewares/LVGL/GUI/lvgl/src/misc/cache/lv_cache.c ****     LV_UNUSED(user_data);
 286:../../Middlewares/LVGL/GUI/lvgl/src/misc/cache/lv_cache.c ****     cache->ops.free_cb = free_cb;
 287:../../Middlewares/LVGL/GUI/lvgl/src/misc/cache/lv_cache.c **** }
 288:../../Middlewares/LVGL/GUI/lvgl/src/misc/cache/lv_cache.c **** void lv_cache_set_name(lv_cache_t * cache, const char * name)
 289:../../Middlewares/LVGL/GUI/lvgl/src/misc/cache/lv_cache.c **** {
 290:../../Middlewares/LVGL/GUI/lvgl/src/misc/cache/lv_cache.c ****     if(cache == NULL) return;
 291:../../Middlewares/LVGL/GUI/lvgl/src/misc/cache/lv_cache.c ****     cache->name = name;
 292:../../Middlewares/LVGL/GUI/lvgl/src/misc/cache/lv_cache.c **** }
 293:../../Middlewares/LVGL/GUI/lvgl/src/misc/cache/lv_cache.c **** const char * lv_cache_get_name(lv_cache_t * cache)
 294:../../Middlewares/LVGL/GUI/lvgl/src/misc/cache/lv_cache.c **** {
 295:../../Middlewares/LVGL/GUI/lvgl/src/misc/cache/lv_cache.c ****     return cache->name;
 296:../../Middlewares/LVGL/GUI/lvgl/src/misc/cache/lv_cache.c **** }
 297:../../Middlewares/LVGL/GUI/lvgl/src/misc/cache/lv_cache.c **** 
 298:../../Middlewares/LVGL/GUI/lvgl/src/misc/cache/lv_cache.c **** lv_iter_t * lv_cache_iter_create(lv_cache_t * cache)
 299:../../Middlewares/LVGL/GUI/lvgl/src/misc/cache/lv_cache.c **** {
 300:../../Middlewares/LVGL/GUI/lvgl/src/misc/cache/lv_cache.c ****     LV_ASSERT_NULL(cache);
 301:../../Middlewares/LVGL/GUI/lvgl/src/misc/cache/lv_cache.c ****     if(cache == NULL || cache->clz->iter_create_cb == NULL) return NULL;
 302:../../Middlewares/LVGL/GUI/lvgl/src/misc/cache/lv_cache.c ****     return cache->clz->iter_create_cb(cache);
 303:../../Middlewares/LVGL/GUI/lvgl/src/misc/cache/lv_cache.c **** }
 304:../../Middlewares/LVGL/GUI/lvgl/src/misc/cache/lv_cache.c **** 
 305:../../Middlewares/LVGL/GUI/lvgl/src/misc/cache/lv_cache.c **** /**********************
 306:../../Middlewares/LVGL/GUI/lvgl/src/misc/cache/lv_cache.c ****  *   STATIC FUNCTIONS
 307:../../Middlewares/LVGL/GUI/lvgl/src/misc/cache/lv_cache.c ****  **********************/
 308:../../Middlewares/LVGL/GUI/lvgl/src/misc/cache/lv_cache.c **** 
 309:../../Middlewares/LVGL/GUI/lvgl/src/misc/cache/lv_cache.c **** static void cache_drop_internal_no_lock(lv_cache_t * cache, const void * key, void * user_data)
 310:../../Middlewares/LVGL/GUI/lvgl/src/misc/cache/lv_cache.c **** {
 311:../../Middlewares/LVGL/GUI/lvgl/src/misc/cache/lv_cache.c ****     lv_cache_entry_t * entry = cache->clz->get_cb(cache, key, user_data);
 312:../../Middlewares/LVGL/GUI/lvgl/src/misc/cache/lv_cache.c ****     if(entry == NULL) {
 313:../../Middlewares/LVGL/GUI/lvgl/src/misc/cache/lv_cache.c ****         return;
 314:../../Middlewares/LVGL/GUI/lvgl/src/misc/cache/lv_cache.c ****     }
 315:../../Middlewares/LVGL/GUI/lvgl/src/misc/cache/lv_cache.c **** 
 316:../../Middlewares/LVGL/GUI/lvgl/src/misc/cache/lv_cache.c ****     if(lv_cache_entry_get_ref(entry) == 0) {
ARM GAS  C:\Users\28576\AppData\Local\Temp\ccyxHldv.s 			page 7


 317:../../Middlewares/LVGL/GUI/lvgl/src/misc/cache/lv_cache.c ****         cache->clz->remove_cb(cache, entry, user_data);
 318:../../Middlewares/LVGL/GUI/lvgl/src/misc/cache/lv_cache.c ****         cache->ops.free_cb(lv_cache_entry_get_data(entry), user_data);
 319:../../Middlewares/LVGL/GUI/lvgl/src/misc/cache/lv_cache.c ****         lv_cache_entry_delete(entry);
 320:../../Middlewares/LVGL/GUI/lvgl/src/misc/cache/lv_cache.c ****     }
 321:../../Middlewares/LVGL/GUI/lvgl/src/misc/cache/lv_cache.c ****     else {
 322:../../Middlewares/LVGL/GUI/lvgl/src/misc/cache/lv_cache.c ****         lv_cache_entry_set_invalid(entry, true);
 323:../../Middlewares/LVGL/GUI/lvgl/src/misc/cache/lv_cache.c ****         cache->clz->remove_cb(cache, entry, user_data);
 324:../../Middlewares/LVGL/GUI/lvgl/src/misc/cache/lv_cache.c ****     }
 325:../../Middlewares/LVGL/GUI/lvgl/src/misc/cache/lv_cache.c **** }
 326:../../Middlewares/LVGL/GUI/lvgl/src/misc/cache/lv_cache.c **** 
 327:../../Middlewares/LVGL/GUI/lvgl/src/misc/cache/lv_cache.c **** static bool cache_evict_one_internal_no_lock(lv_cache_t * cache, void * user_data)
 328:../../Middlewares/LVGL/GUI/lvgl/src/misc/cache/lv_cache.c **** {
  28              		.loc 1 328 1 view -0
  29              		.cfi_startproc
  30              		@ args = 0, pretend = 0, frame = 0
  31              		@ frame_needed = 0, uses_anonymous_args = 0
  32              		.loc 1 328 1 is_stmt 0 view .LVU1
  33 0000 70B5     		push	{r4, r5, r6, lr}
  34              	.LCFI0:
  35              		.cfi_def_cfa_offset 16
  36              		.cfi_offset 4, -16
  37              		.cfi_offset 5, -12
  38              		.cfi_offset 6, -8
  39              		.cfi_offset 14, -4
  40 0002 0446     		mov	r4, r0
  41 0004 0E46     		mov	r6, r1
 329:../../Middlewares/LVGL/GUI/lvgl/src/misc/cache/lv_cache.c ****     lv_cache_entry_t * victim = cache->clz->get_victim_cb(cache, user_data);
  42              		.loc 1 329 5 is_stmt 1 view .LVU2
  43              		.loc 1 329 38 is_stmt 0 view .LVU3
  44 0006 0368     		ldr	r3, [r0]
  45              		.loc 1 329 43 view .LVU4
  46 0008 1B6A     		ldr	r3, [r3, #32]
  47              		.loc 1 329 33 view .LVU5
  48 000a 9847     		blx	r3
  49              	.LVL1:
 330:../../Middlewares/LVGL/GUI/lvgl/src/misc/cache/lv_cache.c **** 
 331:../../Middlewares/LVGL/GUI/lvgl/src/misc/cache/lv_cache.c ****     if(victim == NULL) {
  50              		.loc 1 331 5 is_stmt 1 view .LVU6
  51              		.loc 1 331 7 is_stmt 0 view .LVU7
  52 000c 80B1     		cbz	r0, .L2
  53 000e 0546     		mov	r5, r0
 332:../../Middlewares/LVGL/GUI/lvgl/src/misc/cache/lv_cache.c ****         LV_LOG_ERROR("No victim found");
 333:../../Middlewares/LVGL/GUI/lvgl/src/misc/cache/lv_cache.c ****         return false;
 334:../../Middlewares/LVGL/GUI/lvgl/src/misc/cache/lv_cache.c ****     }
 335:../../Middlewares/LVGL/GUI/lvgl/src/misc/cache/lv_cache.c **** 
 336:../../Middlewares/LVGL/GUI/lvgl/src/misc/cache/lv_cache.c ****     cache->clz->remove_cb(cache, victim, user_data);
  54              		.loc 1 336 5 is_stmt 1 view .LVU8
  55              		.loc 1 336 10 is_stmt 0 view .LVU9
  56 0010 2368     		ldr	r3, [r4]
  57              		.loc 1 336 15 view .LVU10
  58 0012 5B69     		ldr	r3, [r3, #20]
  59              		.loc 1 336 5 view .LVU11
  60 0014 3246     		mov	r2, r6
  61 0016 0146     		mov	r1, r0
  62 0018 2046     		mov	r0, r4
  63              	.LVL2:
  64              		.loc 1 336 5 view .LVU12
ARM GAS  C:\Users\28576\AppData\Local\Temp\ccyxHldv.s 			page 8


  65 001a 9847     		blx	r3
  66              	.LVL3:
 337:../../Middlewares/LVGL/GUI/lvgl/src/misc/cache/lv_cache.c ****     cache->ops.free_cb(lv_cache_entry_get_data(victim), user_data);
  67              		.loc 1 337 5 is_stmt 1 view .LVU13
  68              		.loc 1 337 15 is_stmt 0 view .LVU14
  69 001c A469     		ldr	r4, [r4, #24]
  70              	.LVL4:
  71              		.loc 1 337 5 view .LVU15
  72 001e 2846     		mov	r0, r5
  73 0020 FFF7FEFF 		bl	lv_cache_entry_get_data
  74              	.LVL5:
  75              		.loc 1 337 5 discriminator 1 view .LVU16
  76 0024 3146     		mov	r1, r6
  77 0026 A047     		blx	r4
  78              	.LVL6:
 338:../../Middlewares/LVGL/GUI/lvgl/src/misc/cache/lv_cache.c ****     lv_cache_entry_delete(victim);
  79              		.loc 1 338 5 is_stmt 1 view .LVU17
  80 0028 2846     		mov	r0, r5
  81 002a FFF7FEFF 		bl	lv_cache_entry_delete
  82              	.LVL7:
 339:../../Middlewares/LVGL/GUI/lvgl/src/misc/cache/lv_cache.c ****     return true;
  83              		.loc 1 339 5 view .LVU18
  84              		.loc 1 339 12 is_stmt 0 view .LVU19
  85 002e 0120     		movs	r0, #1
  86              	.LVL8:
  87              	.L2:
 340:../../Middlewares/LVGL/GUI/lvgl/src/misc/cache/lv_cache.c **** }
  88              		.loc 1 340 1 view .LVU20
  89 0030 70BD     		pop	{r4, r5, r6, pc}
  90              		.loc 1 340 1 view .LVU21
  91              		.cfi_endproc
  92              	.LFE39:
  94              		.section	.text.cache_add_internal_no_lock,"ax",%progbits
  95              		.align	1
  96              		.syntax unified
  97              		.thumb
  98              		.thumb_func
 100              	cache_add_internal_no_lock:
 101              	.LVL9:
 102              	.LFB40:
 341:../../Middlewares/LVGL/GUI/lvgl/src/misc/cache/lv_cache.c **** 
 342:../../Middlewares/LVGL/GUI/lvgl/src/misc/cache/lv_cache.c **** static lv_cache_entry_t * cache_add_internal_no_lock(lv_cache_t * cache, const void * key, void * u
 343:../../Middlewares/LVGL/GUI/lvgl/src/misc/cache/lv_cache.c **** {
 103              		.loc 1 343 1 is_stmt 1 view -0
 104              		.cfi_startproc
 105              		@ args = 0, pretend = 0, frame = 0
 106              		@ frame_needed = 0, uses_anonymous_args = 0
 107              		.loc 1 343 1 is_stmt 0 view .LVU23
 108 0000 F8B5     		push	{r3, r4, r5, r6, r7, lr}
 109              	.LCFI1:
 110              		.cfi_def_cfa_offset 24
 111              		.cfi_offset 3, -24
 112              		.cfi_offset 4, -20
 113              		.cfi_offset 5, -16
 114              		.cfi_offset 6, -12
 115              		.cfi_offset 7, -8
 116              		.cfi_offset 14, -4
ARM GAS  C:\Users\28576\AppData\Local\Temp\ccyxHldv.s 			page 9


 117 0002 0446     		mov	r4, r0
 118 0004 0F46     		mov	r7, r1
 119 0006 1546     		mov	r5, r2
 344:../../Middlewares/LVGL/GUI/lvgl/src/misc/cache/lv_cache.c ****     lv_cache_reserve_cond_res_t reserve_cond_res = cache->clz->reserve_cond_cb(cache, key, 0, user_
 120              		.loc 1 344 5 is_stmt 1 view .LVU24
 121              		.loc 1 344 57 is_stmt 0 view .LVU25
 122 0008 0368     		ldr	r3, [r0]
 123              		.loc 1 344 62 view .LVU26
 124 000a 5E6A     		ldr	r6, [r3, #36]
 125              		.loc 1 344 52 view .LVU27
 126 000c 1346     		mov	r3, r2
 127 000e 0022     		movs	r2, #0
 128              	.LVL10:
 129              		.loc 1 344 52 view .LVU28
 130 0010 B047     		blx	r6
 131              	.LVL11:
 345:../../Middlewares/LVGL/GUI/lvgl/src/misc/cache/lv_cache.c ****     if(reserve_cond_res == LV_CACHE_RESERVE_COND_TOO_LARGE) {
 132              		.loc 1 345 5 is_stmt 1 view .LVU29
 133              		.loc 1 345 7 is_stmt 0 view .LVU30
 134 0012 0128     		cmp	r0, #1
 135 0014 15D0     		beq	.L12
 136              	.LVL12:
 137              	.L7:
 346:../../Middlewares/LVGL/GUI/lvgl/src/misc/cache/lv_cache.c ****         LV_LOG_ERROR("data %p is too large that exceeds max size (%" LV_PRIu32 ")", key, cache->max
 347:../../Middlewares/LVGL/GUI/lvgl/src/misc/cache/lv_cache.c ****         return NULL;
 348:../../Middlewares/LVGL/GUI/lvgl/src/misc/cache/lv_cache.c ****     }
 349:../../Middlewares/LVGL/GUI/lvgl/src/misc/cache/lv_cache.c **** 
 350:../../Middlewares/LVGL/GUI/lvgl/src/misc/cache/lv_cache.c ****     for(; reserve_cond_res == LV_CACHE_RESERVE_COND_NEED_VICTIM;
 138              		.loc 1 350 28 is_stmt 1 view .LVU31
 139 0016 0228     		cmp	r0, #2
 140 0018 0CD1     		bne	.L13
 351:../../Middlewares/LVGL/GUI/lvgl/src/misc/cache/lv_cache.c ****         reserve_cond_res = cache->clz->reserve_cond_cb(cache, key, 0, user_data))
 352:../../Middlewares/LVGL/GUI/lvgl/src/misc/cache/lv_cache.c ****         if(cache_evict_one_internal_no_lock(cache, user_data) == false)
 141              		.loc 1 352 9 view .LVU32
 142              		.loc 1 352 12 is_stmt 0 view .LVU33
 143 001a 2946     		mov	r1, r5
 144 001c 2046     		mov	r0, r4
 145              	.LVL13:
 146              		.loc 1 352 12 view .LVU34
 147 001e FFF7FEFF 		bl	cache_evict_one_internal_no_lock
 148              	.LVL14:
 149              		.loc 1 352 11 discriminator 1 view .LVU35
 150 0022 68B1     		cbz	r0, .L5
 351:../../Middlewares/LVGL/GUI/lvgl/src/misc/cache/lv_cache.c ****         reserve_cond_res = cache->clz->reserve_cond_cb(cache, key, 0, user_data))
 151              		.loc 1 351 26 is_stmt 1 view .LVU36
 351:../../Middlewares/LVGL/GUI/lvgl/src/misc/cache/lv_cache.c ****         reserve_cond_res = cache->clz->reserve_cond_cb(cache, key, 0, user_data))
 152              		.loc 1 351 33 is_stmt 0 view .LVU37
 153 0024 2368     		ldr	r3, [r4]
 351:../../Middlewares/LVGL/GUI/lvgl/src/misc/cache/lv_cache.c ****         reserve_cond_res = cache->clz->reserve_cond_cb(cache, key, 0, user_data))
 154              		.loc 1 351 38 view .LVU38
 155 0026 5E6A     		ldr	r6, [r3, #36]
 351:../../Middlewares/LVGL/GUI/lvgl/src/misc/cache/lv_cache.c ****         reserve_cond_res = cache->clz->reserve_cond_cb(cache, key, 0, user_data))
 156              		.loc 1 351 28 view .LVU39
 157 0028 2B46     		mov	r3, r5
 158 002a 0022     		movs	r2, #0
 159 002c 3946     		mov	r1, r7
 160 002e 2046     		mov	r0, r4
ARM GAS  C:\Users\28576\AppData\Local\Temp\ccyxHldv.s 			page 10


 161 0030 B047     		blx	r6
 162              	.LVL15:
 163 0032 F0E7     		b	.L7
 164              	.LVL16:
 165              	.L13:
 353:../../Middlewares/LVGL/GUI/lvgl/src/misc/cache/lv_cache.c ****             return NULL;
 354:../../Middlewares/LVGL/GUI/lvgl/src/misc/cache/lv_cache.c **** 
 355:../../Middlewares/LVGL/GUI/lvgl/src/misc/cache/lv_cache.c ****     lv_cache_entry_t * entry = cache->clz->add_cb(cache, key, user_data);
 166              		.loc 1 355 5 is_stmt 1 view .LVU40
 167              		.loc 1 355 37 is_stmt 0 view .LVU41
 168 0034 2368     		ldr	r3, [r4]
 169              		.loc 1 355 42 view .LVU42
 170 0036 1B69     		ldr	r3, [r3, #16]
 171              		.loc 1 355 32 view .LVU43
 172 0038 2A46     		mov	r2, r5
 173 003a 3946     		mov	r1, r7
 174 003c 2046     		mov	r0, r4
 175              	.LVL17:
 176              		.loc 1 355 32 view .LVU44
 177 003e 9847     		blx	r3
 178              	.LVL18:
 356:../../Middlewares/LVGL/GUI/lvgl/src/misc/cache/lv_cache.c **** 
 357:../../Middlewares/LVGL/GUI/lvgl/src/misc/cache/lv_cache.c ****     return entry;
 179              		.loc 1 357 5 is_stmt 1 view .LVU45
 180              	.L5:
 358:../../Middlewares/LVGL/GUI/lvgl/src/misc/cache/lv_cache.c **** }
 181              		.loc 1 358 1 is_stmt 0 view .LVU46
 182 0040 F8BD     		pop	{r3, r4, r5, r6, r7, pc}
 183              	.LVL19:
 184              	.L12:
 347:../../Middlewares/LVGL/GUI/lvgl/src/misc/cache/lv_cache.c ****     }
 185              		.loc 1 347 16 view .LVU47
 186 0042 0020     		movs	r0, #0
 187              	.LVL20:
 347:../../Middlewares/LVGL/GUI/lvgl/src/misc/cache/lv_cache.c ****     }
 188              		.loc 1 347 16 view .LVU48
 189 0044 FCE7     		b	.L5
 190              		.cfi_endproc
 191              	.LFE40:
 193              		.section	.text.cache_drop_internal_no_lock,"ax",%progbits
 194              		.align	1
 195              		.syntax unified
 196              		.thumb
 197              		.thumb_func
 199              	cache_drop_internal_no_lock:
 200              	.LVL21:
 201              	.LFB38:
 310:../../Middlewares/LVGL/GUI/lvgl/src/misc/cache/lv_cache.c ****     lv_cache_entry_t * entry = cache->clz->get_cb(cache, key, user_data);
 202              		.loc 1 310 1 is_stmt 1 view -0
 203              		.cfi_startproc
 204              		@ args = 0, pretend = 0, frame = 0
 205              		@ frame_needed = 0, uses_anonymous_args = 0
 310:../../Middlewares/LVGL/GUI/lvgl/src/misc/cache/lv_cache.c ****     lv_cache_entry_t * entry = cache->clz->get_cb(cache, key, user_data);
 206              		.loc 1 310 1 is_stmt 0 view .LVU50
 207 0000 70B5     		push	{r4, r5, r6, lr}
 208              	.LCFI2:
 209              		.cfi_def_cfa_offset 16
ARM GAS  C:\Users\28576\AppData\Local\Temp\ccyxHldv.s 			page 11


 210              		.cfi_offset 4, -16
 211              		.cfi_offset 5, -12
 212              		.cfi_offset 6, -8
 213              		.cfi_offset 14, -4
 214 0002 0446     		mov	r4, r0
 215 0004 1646     		mov	r6, r2
 311:../../Middlewares/LVGL/GUI/lvgl/src/misc/cache/lv_cache.c ****     if(entry == NULL) {
 216              		.loc 1 311 5 is_stmt 1 view .LVU51
 311:../../Middlewares/LVGL/GUI/lvgl/src/misc/cache/lv_cache.c ****     if(entry == NULL) {
 217              		.loc 1 311 37 is_stmt 0 view .LVU52
 218 0006 0368     		ldr	r3, [r0]
 311:../../Middlewares/LVGL/GUI/lvgl/src/misc/cache/lv_cache.c ****     if(entry == NULL) {
 219              		.loc 1 311 42 view .LVU53
 220 0008 DB68     		ldr	r3, [r3, #12]
 311:../../Middlewares/LVGL/GUI/lvgl/src/misc/cache/lv_cache.c ****     if(entry == NULL) {
 221              		.loc 1 311 32 view .LVU54
 222 000a 9847     		blx	r3
 223              	.LVL22:
 312:../../Middlewares/LVGL/GUI/lvgl/src/misc/cache/lv_cache.c ****         return;
 224              		.loc 1 312 5 is_stmt 1 view .LVU55
 312:../../Middlewares/LVGL/GUI/lvgl/src/misc/cache/lv_cache.c ****         return;
 225              		.loc 1 312 7 is_stmt 0 view .LVU56
 226 000c 90B1     		cbz	r0, .L14
 227 000e 0546     		mov	r5, r0
 316:../../Middlewares/LVGL/GUI/lvgl/src/misc/cache/lv_cache.c ****         cache->clz->remove_cb(cache, entry, user_data);
 228              		.loc 1 316 5 is_stmt 1 view .LVU57
 316:../../Middlewares/LVGL/GUI/lvgl/src/misc/cache/lv_cache.c ****         cache->clz->remove_cb(cache, entry, user_data);
 229              		.loc 1 316 8 is_stmt 0 view .LVU58
 230 0010 FFF7FEFF 		bl	lv_cache_entry_get_ref
 231              	.LVL23:
 316:../../Middlewares/LVGL/GUI/lvgl/src/misc/cache/lv_cache.c ****         cache->clz->remove_cb(cache, entry, user_data);
 232              		.loc 1 316 7 discriminator 1 view .LVU59
 233 0014 78B9     		cbnz	r0, .L16
 317:../../Middlewares/LVGL/GUI/lvgl/src/misc/cache/lv_cache.c ****         cache->ops.free_cb(lv_cache_entry_get_data(entry), user_data);
 234              		.loc 1 317 9 is_stmt 1 view .LVU60
 317:../../Middlewares/LVGL/GUI/lvgl/src/misc/cache/lv_cache.c ****         cache->ops.free_cb(lv_cache_entry_get_data(entry), user_data);
 235              		.loc 1 317 14 is_stmt 0 view .LVU61
 236 0016 2368     		ldr	r3, [r4]
 317:../../Middlewares/LVGL/GUI/lvgl/src/misc/cache/lv_cache.c ****         cache->ops.free_cb(lv_cache_entry_get_data(entry), user_data);
 237              		.loc 1 317 19 view .LVU62
 238 0018 5B69     		ldr	r3, [r3, #20]
 317:../../Middlewares/LVGL/GUI/lvgl/src/misc/cache/lv_cache.c ****         cache->ops.free_cb(lv_cache_entry_get_data(entry), user_data);
 239              		.loc 1 317 9 view .LVU63
 240 001a 3246     		mov	r2, r6
 241 001c 2946     		mov	r1, r5
 242 001e 2046     		mov	r0, r4
 243 0020 9847     		blx	r3
 244              	.LVL24:
 318:../../Middlewares/LVGL/GUI/lvgl/src/misc/cache/lv_cache.c ****         lv_cache_entry_delete(entry);
 245              		.loc 1 318 9 is_stmt 1 view .LVU64
 318:../../Middlewares/LVGL/GUI/lvgl/src/misc/cache/lv_cache.c ****         lv_cache_entry_delete(entry);
 246              		.loc 1 318 19 is_stmt 0 view .LVU65
 247 0022 A469     		ldr	r4, [r4, #24]
 248              	.LVL25:
 318:../../Middlewares/LVGL/GUI/lvgl/src/misc/cache/lv_cache.c ****         lv_cache_entry_delete(entry);
 249              		.loc 1 318 9 view .LVU66
 250 0024 2846     		mov	r0, r5
ARM GAS  C:\Users\28576\AppData\Local\Temp\ccyxHldv.s 			page 12


 251 0026 FFF7FEFF 		bl	lv_cache_entry_get_data
 252              	.LVL26:
 318:../../Middlewares/LVGL/GUI/lvgl/src/misc/cache/lv_cache.c ****         lv_cache_entry_delete(entry);
 253              		.loc 1 318 9 discriminator 1 view .LVU67
 254 002a 3146     		mov	r1, r6
 255 002c A047     		blx	r4
 256              	.LVL27:
 319:../../Middlewares/LVGL/GUI/lvgl/src/misc/cache/lv_cache.c ****     }
 257              		.loc 1 319 9 is_stmt 1 view .LVU68
 258 002e 2846     		mov	r0, r5
 259 0030 FFF7FEFF 		bl	lv_cache_entry_delete
 260              	.LVL28:
 261              	.L14:
 325:../../Middlewares/LVGL/GUI/lvgl/src/misc/cache/lv_cache.c **** 
 262              		.loc 1 325 1 is_stmt 0 view .LVU69
 263 0034 70BD     		pop	{r4, r5, r6, pc}
 264              	.LVL29:
 265              	.L16:
 322:../../Middlewares/LVGL/GUI/lvgl/src/misc/cache/lv_cache.c ****         cache->clz->remove_cb(cache, entry, user_data);
 266              		.loc 1 322 9 is_stmt 1 view .LVU70
 267 0036 0121     		movs	r1, #1
 268 0038 2846     		mov	r0, r5
 269 003a FFF7FEFF 		bl	lv_cache_entry_set_invalid
 270              	.LVL30:
 323:../../Middlewares/LVGL/GUI/lvgl/src/misc/cache/lv_cache.c ****     }
 271              		.loc 1 323 9 view .LVU71
 323:../../Middlewares/LVGL/GUI/lvgl/src/misc/cache/lv_cache.c ****     }
 272              		.loc 1 323 14 is_stmt 0 view .LVU72
 273 003e 2368     		ldr	r3, [r4]
 323:../../Middlewares/LVGL/GUI/lvgl/src/misc/cache/lv_cache.c ****     }
 274              		.loc 1 323 19 view .LVU73
 275 0040 5B69     		ldr	r3, [r3, #20]
 323:../../Middlewares/LVGL/GUI/lvgl/src/misc/cache/lv_cache.c ****     }
 276              		.loc 1 323 9 view .LVU74
 277 0042 3246     		mov	r2, r6
 278 0044 2946     		mov	r1, r5
 279 0046 2046     		mov	r0, r4
 280 0048 9847     		blx	r3
 281              	.LVL31:
 282 004a F3E7     		b	.L14
 283              		.cfi_endproc
 284              	.LFE38:
 286              		.section	.text.lv_cache_create,"ax",%progbits
 287              		.align	1
 288              		.global	lv_cache_create
 289              		.syntax unified
 290              		.thumb
 291              		.thumb_func
 293              	lv_cache_create:
 294              	.LVL32:
 295              	.LFB17:
  49:../../Middlewares/LVGL/GUI/lvgl/src/misc/cache/lv_cache.c ****     lv_cache_t * cache = cache_class->alloc_cb();
 296              		.loc 1 49 1 is_stmt 1 view -0
 297              		.cfi_startproc
 298              		@ args = 16, pretend = 8, frame = 0
 299              		@ frame_needed = 0, uses_anonymous_args = 0
  49:../../Middlewares/LVGL/GUI/lvgl/src/misc/cache/lv_cache.c ****     lv_cache_t * cache = cache_class->alloc_cb();
ARM GAS  C:\Users\28576\AppData\Local\Temp\ccyxHldv.s 			page 13


 300              		.loc 1 49 1 is_stmt 0 view .LVU76
 301 0000 82B0     		sub	sp, sp, #8
 302              	.LCFI3:
 303              		.cfi_def_cfa_offset 8
 304 0002 F8B5     		push	{r3, r4, r5, r6, r7, lr}
 305              	.LCFI4:
 306              		.cfi_def_cfa_offset 32
 307              		.cfi_offset 3, -32
 308              		.cfi_offset 4, -28
 309              		.cfi_offset 5, -24
 310              		.cfi_offset 6, -20
 311              		.cfi_offset 7, -16
 312              		.cfi_offset 14, -12
 313 0004 0546     		mov	r5, r0
 314 0006 0E46     		mov	r6, r1
 315 0008 1746     		mov	r7, r2
 316 000a 0793     		str	r3, [sp, #28]
  50:../../Middlewares/LVGL/GUI/lvgl/src/misc/cache/lv_cache.c ****     LV_ASSERT_MALLOC(cache);
 317              		.loc 1 50 5 is_stmt 1 view .LVU77
  50:../../Middlewares/LVGL/GUI/lvgl/src/misc/cache/lv_cache.c ****     LV_ASSERT_MALLOC(cache);
 318              		.loc 1 50 37 is_stmt 0 view .LVU78
 319 000c 0368     		ldr	r3, [r0]
  50:../../Middlewares/LVGL/GUI/lvgl/src/misc/cache/lv_cache.c ****     LV_ASSERT_MALLOC(cache);
 320              		.loc 1 50 26 view .LVU79
 321 000e 9847     		blx	r3
 322              	.LVL33:
  51:../../Middlewares/LVGL/GUI/lvgl/src/misc/cache/lv_cache.c **** 
 323              		.loc 1 51 5 is_stmt 1 view .LVU80
  51:../../Middlewares/LVGL/GUI/lvgl/src/misc/cache/lv_cache.c **** 
 324              		.loc 1 51 5 view .LVU81
 325 0010 A0B1     		cbz	r0, .L20
 326 0012 0446     		mov	r4, r0
  51:../../Middlewares/LVGL/GUI/lvgl/src/misc/cache/lv_cache.c **** 
 327              		.loc 1 51 5 view .LVU82
  51:../../Middlewares/LVGL/GUI/lvgl/src/misc/cache/lv_cache.c **** 
 328              		.loc 1 51 28 view .LVU83
  53:../../Middlewares/LVGL/GUI/lvgl/src/misc/cache/lv_cache.c ****     cache->node_size = node_size;
 329              		.loc 1 53 5 view .LVU84
  53:../../Middlewares/LVGL/GUI/lvgl/src/misc/cache/lv_cache.c ****     cache->node_size = node_size;
 330              		.loc 1 53 16 is_stmt 0 view .LVU85
 331 0014 0560     		str	r5, [r0]
  54:../../Middlewares/LVGL/GUI/lvgl/src/misc/cache/lv_cache.c ****     cache->max_size = max_size;
 332              		.loc 1 54 5 is_stmt 1 view .LVU86
  54:../../Middlewares/LVGL/GUI/lvgl/src/misc/cache/lv_cache.c ****     cache->max_size = max_size;
 333              		.loc 1 54 22 is_stmt 0 view .LVU87
 334 0016 4660     		str	r6, [r0, #4]
  55:../../Middlewares/LVGL/GUI/lvgl/src/misc/cache/lv_cache.c ****     cache->size = 0;
 335              		.loc 1 55 5 is_stmt 1 view .LVU88
  55:../../Middlewares/LVGL/GUI/lvgl/src/misc/cache/lv_cache.c ****     cache->size = 0;
 336              		.loc 1 55 21 is_stmt 0 view .LVU89
 337 0018 8760     		str	r7, [r0, #8]
  56:../../Middlewares/LVGL/GUI/lvgl/src/misc/cache/lv_cache.c ****     cache->ops = ops;
 338              		.loc 1 56 5 is_stmt 1 view .LVU90
  56:../../Middlewares/LVGL/GUI/lvgl/src/misc/cache/lv_cache.c ****     cache->ops = ops;
 339              		.loc 1 56 17 is_stmt 0 view .LVU91
 340 001a 0023     		movs	r3, #0
 341 001c C360     		str	r3, [r0, #12]
ARM GAS  C:\Users\28576\AppData\Local\Temp\ccyxHldv.s 			page 14


  57:../../Middlewares/LVGL/GUI/lvgl/src/misc/cache/lv_cache.c **** 
 342              		.loc 1 57 5 is_stmt 1 view .LVU92
  57:../../Middlewares/LVGL/GUI/lvgl/src/misc/cache/lv_cache.c **** 
 343              		.loc 1 57 16 is_stmt 0 view .LVU93
 344 001e 00F11003 		add	r3, r0, #16
 345 0022 07AA     		add	r2, sp, #28
 346 0024 07CA     		ldm	r2, {r0, r1, r2}
 347              	.LVL34:
  57:../../Middlewares/LVGL/GUI/lvgl/src/misc/cache/lv_cache.c **** 
 348              		.loc 1 57 16 view .LVU94
 349 0026 83E80700 		stm	r3, {r0, r1, r2}
  59:../../Middlewares/LVGL/GUI/lvgl/src/misc/cache/lv_cache.c ****         LV_LOG_ERROR("Cache init failed");
 350              		.loc 1 59 5 is_stmt 1 view .LVU95
  59:../../Middlewares/LVGL/GUI/lvgl/src/misc/cache/lv_cache.c ****         LV_LOG_ERROR("Cache init failed");
 351              		.loc 1 59 18 is_stmt 0 view .LVU96
 352 002a 6B68     		ldr	r3, [r5, #4]
  59:../../Middlewares/LVGL/GUI/lvgl/src/misc/cache/lv_cache.c ****         LV_LOG_ERROR("Cache init failed");
 353              		.loc 1 59 8 view .LVU97
 354 002c 2046     		mov	r0, r4
 355 002e 9847     		blx	r3
 356              	.LVL35:
  59:../../Middlewares/LVGL/GUI/lvgl/src/misc/cache/lv_cache.c ****         LV_LOG_ERROR("Cache init failed");
 357              		.loc 1 59 7 discriminator 1 view .LVU98
 358 0030 28B1     		cbz	r0, .L23
 359              	.LVL36:
 360              	.L18:
  68:../../Middlewares/LVGL/GUI/lvgl/src/misc/cache/lv_cache.c **** 
 361              		.loc 1 68 1 view .LVU99
 362 0032 2046     		mov	r0, r4
 363 0034 BDE8F840 		pop	{r3, r4, r5, r6, r7, lr}
 364              	.LCFI5:
 365              		.cfi_remember_state
 366              		.cfi_restore 14
 367              		.cfi_restore 7
 368              		.cfi_restore 6
 369              		.cfi_restore 5
 370              		.cfi_restore 4
 371              		.cfi_restore 3
 372              		.cfi_def_cfa_offset 8
 373              	.LVL37:
  68:../../Middlewares/LVGL/GUI/lvgl/src/misc/cache/lv_cache.c **** 
 374              		.loc 1 68 1 view .LVU100
 375 0038 02B0     		add	sp, sp, #8
 376              	.LCFI6:
 377              		.cfi_def_cfa_offset 0
 378 003a 7047     		bx	lr
 379              	.LVL38:
 380              	.L20:
 381              	.LCFI7:
 382              		.cfi_restore_state
  51:../../Middlewares/LVGL/GUI/lvgl/src/misc/cache/lv_cache.c **** 
 383              		.loc 1 51 5 is_stmt 1 view .LVU101
  51:../../Middlewares/LVGL/GUI/lvgl/src/misc/cache/lv_cache.c **** 
 384              		.loc 1 51 5 view .LVU102
  51:../../Middlewares/LVGL/GUI/lvgl/src/misc/cache/lv_cache.c **** 
 385              		.loc 1 51 5 view .LVU103
  51:../../Middlewares/LVGL/GUI/lvgl/src/misc/cache/lv_cache.c **** 
ARM GAS  C:\Users\28576\AppData\Local\Temp\ccyxHldv.s 			page 15


 386              		.loc 1 51 5 view .LVU104
  51:../../Middlewares/LVGL/GUI/lvgl/src/misc/cache/lv_cache.c **** 
 387              		.loc 1 51 5 view .LVU105
 388 003c FEE7     		b	.L20
 389              	.LVL39:
 390              	.L23:
  60:../../Middlewares/LVGL/GUI/lvgl/src/misc/cache/lv_cache.c ****         lv_free(cache);
 391              		.loc 1 60 9 view .LVU106
  60:../../Middlewares/LVGL/GUI/lvgl/src/misc/cache/lv_cache.c ****         lv_free(cache);
 392              		.loc 1 60 9 view .LVU107
  60:../../Middlewares/LVGL/GUI/lvgl/src/misc/cache/lv_cache.c ****         lv_free(cache);
 393              		.loc 1 60 9 view .LVU108
  61:../../Middlewares/LVGL/GUI/lvgl/src/misc/cache/lv_cache.c ****         return NULL;
 394              		.loc 1 61 9 view .LVU109
 395 003e 2046     		mov	r0, r4
 396 0040 FFF7FEFF 		bl	lv_free
 397              	.LVL40:
  62:../../Middlewares/LVGL/GUI/lvgl/src/misc/cache/lv_cache.c ****     }
 398              		.loc 1 62 9 view .LVU110
  62:../../Middlewares/LVGL/GUI/lvgl/src/misc/cache/lv_cache.c ****     }
 399              		.loc 1 62 16 is_stmt 0 view .LVU111
 400 0044 0024     		movs	r4, #0
 401              	.LVL41:
  62:../../Middlewares/LVGL/GUI/lvgl/src/misc/cache/lv_cache.c ****     }
 402              		.loc 1 62 16 view .LVU112
 403 0046 F4E7     		b	.L18
 404              		.cfi_endproc
 405              	.LFE17:
 407              		.section	.text.lv_cache_destroy,"ax",%progbits
 408              		.align	1
 409              		.global	lv_cache_destroy
 410              		.syntax unified
 411              		.thumb
 412              		.thumb_func
 414              	lv_cache_destroy:
 415              	.LVL42:
 416              	.LFB18:
  71:../../Middlewares/LVGL/GUI/lvgl/src/misc/cache/lv_cache.c ****     LV_ASSERT_NULL(cache);
 417              		.loc 1 71 1 is_stmt 1 view -0
 418              		.cfi_startproc
 419              		@ args = 0, pretend = 0, frame = 0
 420              		@ frame_needed = 0, uses_anonymous_args = 0
  72:../../Middlewares/LVGL/GUI/lvgl/src/misc/cache/lv_cache.c **** 
 421              		.loc 1 72 5 view .LVU114
  72:../../Middlewares/LVGL/GUI/lvgl/src/misc/cache/lv_cache.c **** 
 422              		.loc 1 72 5 view .LVU115
 423 0000 40B1     		cbz	r0, .L26
  71:../../Middlewares/LVGL/GUI/lvgl/src/misc/cache/lv_cache.c ****     LV_ASSERT_NULL(cache);
 424              		.loc 1 71 1 is_stmt 0 view .LVU116
 425 0002 10B5     		push	{r4, lr}
 426              	.LCFI8:
 427              		.cfi_def_cfa_offset 8
 428              		.cfi_offset 4, -8
 429              		.cfi_offset 14, -4
 430 0004 0446     		mov	r4, r0
  72:../../Middlewares/LVGL/GUI/lvgl/src/misc/cache/lv_cache.c **** 
 431              		.loc 1 72 5 is_stmt 1 view .LVU117
ARM GAS  C:\Users\28576\AppData\Local\Temp\ccyxHldv.s 			page 16


  72:../../Middlewares/LVGL/GUI/lvgl/src/misc/cache/lv_cache.c **** 
 432              		.loc 1 72 26 view .LVU118
  74:../../Middlewares/LVGL/GUI/lvgl/src/misc/cache/lv_cache.c ****     cache->clz->destroy_cb(cache, user_data);
 433              		.loc 1 74 5 view .LVU119
  75:../../Middlewares/LVGL/GUI/lvgl/src/misc/cache/lv_cache.c ****     lv_mutex_unlock(&cache->lock);
 434              		.loc 1 75 5 view .LVU120
  75:../../Middlewares/LVGL/GUI/lvgl/src/misc/cache/lv_cache.c ****     lv_mutex_unlock(&cache->lock);
 435              		.loc 1 75 10 is_stmt 0 view .LVU121
 436 0006 0368     		ldr	r3, [r0]
  75:../../Middlewares/LVGL/GUI/lvgl/src/misc/cache/lv_cache.c ****     lv_mutex_unlock(&cache->lock);
 437              		.loc 1 75 15 view .LVU122
 438 0008 9B68     		ldr	r3, [r3, #8]
  75:../../Middlewares/LVGL/GUI/lvgl/src/misc/cache/lv_cache.c ****     lv_mutex_unlock(&cache->lock);
 439              		.loc 1 75 5 view .LVU123
 440 000a 9847     		blx	r3
 441              	.LVL43:
  76:../../Middlewares/LVGL/GUI/lvgl/src/misc/cache/lv_cache.c ****     lv_mutex_delete(&cache->lock);
 442              		.loc 1 76 5 is_stmt 1 view .LVU124
  77:../../Middlewares/LVGL/GUI/lvgl/src/misc/cache/lv_cache.c ****     lv_free(cache);
 443              		.loc 1 77 5 view .LVU125
  78:../../Middlewares/LVGL/GUI/lvgl/src/misc/cache/lv_cache.c **** }
 444              		.loc 1 78 5 view .LVU126
 445 000c 2046     		mov	r0, r4
 446 000e FFF7FEFF 		bl	lv_free
 447              	.LVL44:
  79:../../Middlewares/LVGL/GUI/lvgl/src/misc/cache/lv_cache.c **** 
 448              		.loc 1 79 1 is_stmt 0 view .LVU127
 449 0012 10BD     		pop	{r4, pc}
 450              	.LVL45:
 451              	.L26:
 452              	.LCFI9:
 453              		.cfi_def_cfa_offset 0
 454              		.cfi_restore 4
 455              		.cfi_restore 14
  72:../../Middlewares/LVGL/GUI/lvgl/src/misc/cache/lv_cache.c **** 
 456              		.loc 1 72 5 is_stmt 1 view .LVU128
  72:../../Middlewares/LVGL/GUI/lvgl/src/misc/cache/lv_cache.c **** 
 457              		.loc 1 72 5 view .LVU129
  72:../../Middlewares/LVGL/GUI/lvgl/src/misc/cache/lv_cache.c **** 
 458              		.loc 1 72 5 view .LVU130
  72:../../Middlewares/LVGL/GUI/lvgl/src/misc/cache/lv_cache.c **** 
 459              		.loc 1 72 5 view .LVU131
  72:../../Middlewares/LVGL/GUI/lvgl/src/misc/cache/lv_cache.c **** 
 460              		.loc 1 72 5 view .LVU132
 461 0014 FEE7     		b	.L26
 462              		.cfi_endproc
 463              	.LFE18:
 465              		.section	.text.lv_cache_acquire,"ax",%progbits
 466              		.align	1
 467              		.global	lv_cache_acquire
 468              		.syntax unified
 469              		.thumb
 470              		.thumb_func
 472              	lv_cache_acquire:
 473              	.LVL46:
 474              	.LFB19:
  82:../../Middlewares/LVGL/GUI/lvgl/src/misc/cache/lv_cache.c ****     LV_ASSERT_NULL(cache);
ARM GAS  C:\Users\28576\AppData\Local\Temp\ccyxHldv.s 			page 17


 475              		.loc 1 82 1 view -0
 476              		.cfi_startproc
 477              		@ args = 0, pretend = 0, frame = 0
 478              		@ frame_needed = 0, uses_anonymous_args = 0
  83:../../Middlewares/LVGL/GUI/lvgl/src/misc/cache/lv_cache.c ****     LV_ASSERT_NULL(key);
 479              		.loc 1 83 5 view .LVU134
  83:../../Middlewares/LVGL/GUI/lvgl/src/misc/cache/lv_cache.c ****     LV_ASSERT_NULL(key);
 480              		.loc 1 83 5 view .LVU135
 481 0000 78B1     		cbz	r0, .L31
 482 0002 0346     		mov	r3, r0
  83:../../Middlewares/LVGL/GUI/lvgl/src/misc/cache/lv_cache.c ****     LV_ASSERT_NULL(key);
 483              		.loc 1 83 5 view .LVU136
  83:../../Middlewares/LVGL/GUI/lvgl/src/misc/cache/lv_cache.c ****     LV_ASSERT_NULL(key);
 484              		.loc 1 83 26 view .LVU137
  84:../../Middlewares/LVGL/GUI/lvgl/src/misc/cache/lv_cache.c **** 
 485              		.loc 1 84 5 view .LVU138
  84:../../Middlewares/LVGL/GUI/lvgl/src/misc/cache/lv_cache.c **** 
 486              		.loc 1 84 5 view .LVU139
 487 0004 71B1     		cbz	r1, .L33
  82:../../Middlewares/LVGL/GUI/lvgl/src/misc/cache/lv_cache.c ****     LV_ASSERT_NULL(cache);
 488              		.loc 1 82 1 is_stmt 0 view .LVU140
 489 0006 10B5     		push	{r4, lr}
 490              	.LCFI10:
 491              		.cfi_def_cfa_offset 8
 492              		.cfi_offset 4, -8
 493              		.cfi_offset 14, -4
  84:../../Middlewares/LVGL/GUI/lvgl/src/misc/cache/lv_cache.c **** 
 494              		.loc 1 84 5 is_stmt 1 view .LVU141
  84:../../Middlewares/LVGL/GUI/lvgl/src/misc/cache/lv_cache.c **** 
 495              		.loc 1 84 24 view .LVU142
  86:../../Middlewares/LVGL/GUI/lvgl/src/misc/cache/lv_cache.c **** 
 496              		.loc 1 86 28 view .LVU143
  88:../../Middlewares/LVGL/GUI/lvgl/src/misc/cache/lv_cache.c **** 
 497              		.loc 1 88 5 view .LVU144
  90:../../Middlewares/LVGL/GUI/lvgl/src/misc/cache/lv_cache.c ****         lv_mutex_unlock(&cache->lock);
 498              		.loc 1 90 5 view .LVU145
  90:../../Middlewares/LVGL/GUI/lvgl/src/misc/cache/lv_cache.c ****         lv_mutex_unlock(&cache->lock);
 499              		.loc 1 90 13 is_stmt 0 view .LVU146
 500 0008 C068     		ldr	r0, [r0, #12]
 501              	.LVL47:
  90:../../Middlewares/LVGL/GUI/lvgl/src/misc/cache/lv_cache.c ****         lv_mutex_unlock(&cache->lock);
 502              		.loc 1 90 7 view .LVU147
 503 000a 60B1     		cbz	r0, .L36
  97:../../Middlewares/LVGL/GUI/lvgl/src/misc/cache/lv_cache.c ****     if(entry != NULL) {
 504              		.loc 1 97 5 is_stmt 1 view .LVU148
  97:../../Middlewares/LVGL/GUI/lvgl/src/misc/cache/lv_cache.c ****     if(entry != NULL) {
 505              		.loc 1 97 37 is_stmt 0 view .LVU149
 506 000c 1868     		ldr	r0, [r3]
  97:../../Middlewares/LVGL/GUI/lvgl/src/misc/cache/lv_cache.c ****     if(entry != NULL) {
 507              		.loc 1 97 42 view .LVU150
 508 000e C068     		ldr	r0, [r0, #12]
 509 0010 0446     		mov	r4, r0
  97:../../Middlewares/LVGL/GUI/lvgl/src/misc/cache/lv_cache.c ****     if(entry != NULL) {
 510              		.loc 1 97 32 view .LVU151
 511 0012 1846     		mov	r0, r3
 512 0014 A047     		blx	r4
 513              	.LVL48:
ARM GAS  C:\Users\28576\AppData\Local\Temp\ccyxHldv.s 			page 18


  98:../../Middlewares/LVGL/GUI/lvgl/src/misc/cache/lv_cache.c ****         lv_cache_entry_acquire_data(entry);
 514              		.loc 1 98 5 is_stmt 1 view .LVU152
  98:../../Middlewares/LVGL/GUI/lvgl/src/misc/cache/lv_cache.c ****         lv_cache_entry_acquire_data(entry);
 515              		.loc 1 98 7 is_stmt 0 view .LVU153
 516 0016 0446     		mov	r4, r0
 517 0018 08B1     		cbz	r0, .L29
  99:../../Middlewares/LVGL/GUI/lvgl/src/misc/cache/lv_cache.c ****     }
 518              		.loc 1 99 9 is_stmt 1 view .LVU154
 519 001a FFF7FEFF 		bl	lv_cache_entry_acquire_data
 520              	.LVL49:
 101:../../Middlewares/LVGL/GUI/lvgl/src/misc/cache/lv_cache.c **** 
 521              		.loc 1 101 5 view .LVU155
 103:../../Middlewares/LVGL/GUI/lvgl/src/misc/cache/lv_cache.c ****     return entry;
 522              		.loc 1 103 26 view .LVU156
 104:../../Middlewares/LVGL/GUI/lvgl/src/misc/cache/lv_cache.c **** }
 523              		.loc 1 104 5 view .LVU157
 524              	.L29:
 105:../../Middlewares/LVGL/GUI/lvgl/src/misc/cache/lv_cache.c **** void lv_cache_release(lv_cache_t * cache, lv_cache_entry_t * entry, void * user_data)
 525              		.loc 1 105 1 is_stmt 0 view .LVU158
 526 001e 2046     		mov	r0, r4
 527 0020 10BD     		pop	{r4, pc}
 528              	.LVL50:
 529              	.L31:
 530              	.LCFI11:
 531              		.cfi_def_cfa_offset 0
 532              		.cfi_restore 4
 533              		.cfi_restore 14
  83:../../Middlewares/LVGL/GUI/lvgl/src/misc/cache/lv_cache.c ****     LV_ASSERT_NULL(key);
 534              		.loc 1 83 5 is_stmt 1 view .LVU159
  83:../../Middlewares/LVGL/GUI/lvgl/src/misc/cache/lv_cache.c ****     LV_ASSERT_NULL(key);
 535              		.loc 1 83 5 view .LVU160
  83:../../Middlewares/LVGL/GUI/lvgl/src/misc/cache/lv_cache.c ****     LV_ASSERT_NULL(key);
 536              		.loc 1 83 5 view .LVU161
  83:../../Middlewares/LVGL/GUI/lvgl/src/misc/cache/lv_cache.c ****     LV_ASSERT_NULL(key);
 537              		.loc 1 83 5 view .LVU162
  83:../../Middlewares/LVGL/GUI/lvgl/src/misc/cache/lv_cache.c ****     LV_ASSERT_NULL(key);
 538              		.loc 1 83 5 view .LVU163
 539 0022 FEE7     		b	.L31
 540              	.L33:
  84:../../Middlewares/LVGL/GUI/lvgl/src/misc/cache/lv_cache.c **** 
 541              		.loc 1 84 5 view .LVU164
  84:../../Middlewares/LVGL/GUI/lvgl/src/misc/cache/lv_cache.c **** 
 542              		.loc 1 84 5 view .LVU165
  84:../../Middlewares/LVGL/GUI/lvgl/src/misc/cache/lv_cache.c **** 
 543              		.loc 1 84 5 view .LVU166
  84:../../Middlewares/LVGL/GUI/lvgl/src/misc/cache/lv_cache.c **** 
 544              		.loc 1 84 5 view .LVU167
  84:../../Middlewares/LVGL/GUI/lvgl/src/misc/cache/lv_cache.c **** 
 545              		.loc 1 84 5 view .LVU168
 546 0024 FEE7     		b	.L33
 547              	.LVL51:
 548              	.L36:
 549              	.LCFI12:
 550              		.cfi_def_cfa_offset 8
 551              		.cfi_offset 4, -8
 552              		.cfi_offset 14, -4
  94:../../Middlewares/LVGL/GUI/lvgl/src/misc/cache/lv_cache.c ****     }
ARM GAS  C:\Users\28576\AppData\Local\Temp\ccyxHldv.s 			page 19


 553              		.loc 1 94 16 is_stmt 0 view .LVU169
 554 0026 0446     		mov	r4, r0
 555 0028 F9E7     		b	.L29
 556              		.cfi_endproc
 557              	.LFE19:
 559              		.section	.text.lv_cache_release,"ax",%progbits
 560              		.align	1
 561              		.global	lv_cache_release
 562              		.syntax unified
 563              		.thumb
 564              		.thumb_func
 566              	lv_cache_release:
 567              	.LVL52:
 568              	.LFB20:
 107:../../Middlewares/LVGL/GUI/lvgl/src/misc/cache/lv_cache.c ****     LV_ASSERT_NULL(entry);
 569              		.loc 1 107 1 is_stmt 1 view -0
 570              		.cfi_startproc
 571              		@ args = 0, pretend = 0, frame = 0
 572              		@ frame_needed = 0, uses_anonymous_args = 0
 108:../../Middlewares/LVGL/GUI/lvgl/src/misc/cache/lv_cache.c **** 
 573              		.loc 1 108 5 view .LVU171
 108:../../Middlewares/LVGL/GUI/lvgl/src/misc/cache/lv_cache.c **** 
 574              		.loc 1 108 5 view .LVU172
 575 0000 61B1     		cbz	r1, .L41
 107:../../Middlewares/LVGL/GUI/lvgl/src/misc/cache/lv_cache.c ****     LV_ASSERT_NULL(entry);
 576              		.loc 1 107 1 is_stmt 0 view .LVU173
 577 0002 F8B5     		push	{r3, r4, r5, r6, r7, lr}
 578              	.LCFI13:
 579              		.cfi_def_cfa_offset 24
 580              		.cfi_offset 3, -24
 581              		.cfi_offset 4, -20
 582              		.cfi_offset 5, -16
 583              		.cfi_offset 6, -12
 584              		.cfi_offset 7, -8
 585              		.cfi_offset 14, -4
 586 0004 0746     		mov	r7, r0
 587 0006 1646     		mov	r6, r2
 588 0008 0D46     		mov	r5, r1
 108:../../Middlewares/LVGL/GUI/lvgl/src/misc/cache/lv_cache.c **** 
 589              		.loc 1 108 5 is_stmt 1 view .LVU174
 108:../../Middlewares/LVGL/GUI/lvgl/src/misc/cache/lv_cache.c **** 
 590              		.loc 1 108 26 view .LVU175
 110:../../Middlewares/LVGL/GUI/lvgl/src/misc/cache/lv_cache.c **** 
 591              		.loc 1 110 28 view .LVU176
 112:../../Middlewares/LVGL/GUI/lvgl/src/misc/cache/lv_cache.c ****     lv_cache_entry_release_data(entry, user_data);
 592              		.loc 1 112 5 view .LVU177
 113:../../Middlewares/LVGL/GUI/lvgl/src/misc/cache/lv_cache.c **** 
 593              		.loc 1 113 5 view .LVU178
 594 000a 1146     		mov	r1, r2
 595              	.LVL53:
 113:../../Middlewares/LVGL/GUI/lvgl/src/misc/cache/lv_cache.c **** 
 596              		.loc 1 113 5 is_stmt 0 view .LVU179
 597 000c 2846     		mov	r0, r5
 598              	.LVL54:
 113:../../Middlewares/LVGL/GUI/lvgl/src/misc/cache/lv_cache.c **** 
 599              		.loc 1 113 5 view .LVU180
 600 000e FFF7FEFF 		bl	lv_cache_entry_release_data
ARM GAS  C:\Users\28576\AppData\Local\Temp\ccyxHldv.s 			page 20


 601              	.LVL55:
 115:../../Middlewares/LVGL/GUI/lvgl/src/misc/cache/lv_cache.c ****         cache->ops.free_cb(lv_cache_entry_get_data(entry), user_data);
 602              		.loc 1 115 5 is_stmt 1 view .LVU181
 115:../../Middlewares/LVGL/GUI/lvgl/src/misc/cache/lv_cache.c ****         cache->ops.free_cb(lv_cache_entry_get_data(entry), user_data);
 603              		.loc 1 115 8 is_stmt 0 view .LVU182
 604 0012 2846     		mov	r0, r5
 605 0014 FFF7FEFF 		bl	lv_cache_entry_get_ref
 606              	.LVL56:
 115:../../Middlewares/LVGL/GUI/lvgl/src/misc/cache/lv_cache.c ****         cache->ops.free_cb(lv_cache_entry_get_data(entry), user_data);
 607              		.loc 1 115 7 discriminator 1 view .LVU183
 608 0018 08B1     		cbz	r0, .L45
 609              	.L39:
 122:../../Middlewares/LVGL/GUI/lvgl/src/misc/cache/lv_cache.c **** lv_cache_entry_t * lv_cache_add(lv_cache_t * cache, const void * key, void * user_data)
 610              		.loc 1 122 1 view .LVU184
 611 001a F8BD     		pop	{r3, r4, r5, r6, r7, pc}
 612              	.LVL57:
 613              	.L41:
 614              	.LCFI14:
 615              		.cfi_def_cfa_offset 0
 616              		.cfi_restore 3
 617              		.cfi_restore 4
 618              		.cfi_restore 5
 619              		.cfi_restore 6
 620              		.cfi_restore 7
 621              		.cfi_restore 14
 108:../../Middlewares/LVGL/GUI/lvgl/src/misc/cache/lv_cache.c **** 
 622              		.loc 1 108 5 is_stmt 1 view .LVU185
 108:../../Middlewares/LVGL/GUI/lvgl/src/misc/cache/lv_cache.c **** 
 623              		.loc 1 108 5 view .LVU186
 108:../../Middlewares/LVGL/GUI/lvgl/src/misc/cache/lv_cache.c **** 
 624              		.loc 1 108 5 view .LVU187
 108:../../Middlewares/LVGL/GUI/lvgl/src/misc/cache/lv_cache.c **** 
 625              		.loc 1 108 5 view .LVU188
 108:../../Middlewares/LVGL/GUI/lvgl/src/misc/cache/lv_cache.c **** 
 626              		.loc 1 108 5 view .LVU189
 627 001c FEE7     		b	.L41
 628              	.LVL58:
 629              	.L45:
 630              	.LCFI15:
 631              		.cfi_def_cfa_offset 24
 632              		.cfi_offset 3, -24
 633              		.cfi_offset 4, -20
 634              		.cfi_offset 5, -16
 635              		.cfi_offset 6, -12
 636              		.cfi_offset 7, -8
 637              		.cfi_offset 14, -4
 115:../../Middlewares/LVGL/GUI/lvgl/src/misc/cache/lv_cache.c ****         cache->ops.free_cb(lv_cache_entry_get_data(entry), user_data);
 638              		.loc 1 115 46 is_stmt 0 discriminator 2 view .LVU190
 639 001e 2846     		mov	r0, r5
 640 0020 FFF7FEFF 		bl	lv_cache_entry_is_invalid
 641              	.LVL59:
 115:../../Middlewares/LVGL/GUI/lvgl/src/misc/cache/lv_cache.c ****         cache->ops.free_cb(lv_cache_entry_get_data(entry), user_data);
 642              		.loc 1 115 43 discriminator 3 view .LVU191
 643 0024 0028     		cmp	r0, #0
 644 0026 F8D0     		beq	.L39
 116:../../Middlewares/LVGL/GUI/lvgl/src/misc/cache/lv_cache.c ****         lv_cache_entry_delete(entry);
 645              		.loc 1 116 9 is_stmt 1 view .LVU192
ARM GAS  C:\Users\28576\AppData\Local\Temp\ccyxHldv.s 			page 21


 116:../../Middlewares/LVGL/GUI/lvgl/src/misc/cache/lv_cache.c ****         lv_cache_entry_delete(entry);
 646              		.loc 1 116 19 is_stmt 0 view .LVU193
 647 0028 BC69     		ldr	r4, [r7, #24]
 116:../../Middlewares/LVGL/GUI/lvgl/src/misc/cache/lv_cache.c ****         lv_cache_entry_delete(entry);
 648              		.loc 1 116 9 view .LVU194
 649 002a 2846     		mov	r0, r5
 650 002c FFF7FEFF 		bl	lv_cache_entry_get_data
 651              	.LVL60:
 116:../../Middlewares/LVGL/GUI/lvgl/src/misc/cache/lv_cache.c ****         lv_cache_entry_delete(entry);
 652              		.loc 1 116 9 discriminator 1 view .LVU195
 653 0030 3146     		mov	r1, r6
 654 0032 A047     		blx	r4
 655              	.LVL61:
 117:../../Middlewares/LVGL/GUI/lvgl/src/misc/cache/lv_cache.c ****     }
 656              		.loc 1 117 9 is_stmt 1 view .LVU196
 657 0034 2846     		mov	r0, r5
 658 0036 FFF7FEFF 		bl	lv_cache_entry_delete
 659              	.LVL62:
 119:../../Middlewares/LVGL/GUI/lvgl/src/misc/cache/lv_cache.c **** 
 660              		.loc 1 119 5 view .LVU197
 121:../../Middlewares/LVGL/GUI/lvgl/src/misc/cache/lv_cache.c **** }
 661              		.loc 1 121 26 view .LVU198
 122:../../Middlewares/LVGL/GUI/lvgl/src/misc/cache/lv_cache.c **** lv_cache_entry_t * lv_cache_add(lv_cache_t * cache, const void * key, void * user_data)
 662              		.loc 1 122 1 is_stmt 0 view .LVU199
 663 003a EEE7     		b	.L39
 664              		.cfi_endproc
 665              	.LFE20:
 667              		.section	.text.lv_cache_add,"ax",%progbits
 668              		.align	1
 669              		.global	lv_cache_add
 670              		.syntax unified
 671              		.thumb
 672              		.thumb_func
 674              	lv_cache_add:
 675              	.LVL63:
 676              	.LFB21:
 124:../../Middlewares/LVGL/GUI/lvgl/src/misc/cache/lv_cache.c ****     LV_ASSERT_NULL(cache);
 677              		.loc 1 124 1 is_stmt 1 view -0
 678              		.cfi_startproc
 679              		@ args = 0, pretend = 0, frame = 0
 680              		@ frame_needed = 0, uses_anonymous_args = 0
 125:../../Middlewares/LVGL/GUI/lvgl/src/misc/cache/lv_cache.c ****     LV_ASSERT_NULL(key);
 681              		.loc 1 125 5 view .LVU201
 125:../../Middlewares/LVGL/GUI/lvgl/src/misc/cache/lv_cache.c ****     LV_ASSERT_NULL(key);
 682              		.loc 1 125 5 view .LVU202
 683 0000 68B1     		cbz	r0, .L48
 684 0002 0346     		mov	r3, r0
 125:../../Middlewares/LVGL/GUI/lvgl/src/misc/cache/lv_cache.c ****     LV_ASSERT_NULL(key);
 685              		.loc 1 125 5 view .LVU203
 125:../../Middlewares/LVGL/GUI/lvgl/src/misc/cache/lv_cache.c ****     LV_ASSERT_NULL(key);
 686              		.loc 1 125 26 view .LVU204
 126:../../Middlewares/LVGL/GUI/lvgl/src/misc/cache/lv_cache.c **** 
 687              		.loc 1 126 5 view .LVU205
 126:../../Middlewares/LVGL/GUI/lvgl/src/misc/cache/lv_cache.c **** 
 688              		.loc 1 126 5 view .LVU206
 689 0004 61B1     		cbz	r1, .L50
 124:../../Middlewares/LVGL/GUI/lvgl/src/misc/cache/lv_cache.c ****     LV_ASSERT_NULL(cache);
ARM GAS  C:\Users\28576\AppData\Local\Temp\ccyxHldv.s 			page 22


 690              		.loc 1 124 1 is_stmt 0 view .LVU207
 691 0006 10B5     		push	{r4, lr}
 692              	.LCFI16:
 693              		.cfi_def_cfa_offset 8
 694              		.cfi_offset 4, -8
 695              		.cfi_offset 14, -4
 126:../../Middlewares/LVGL/GUI/lvgl/src/misc/cache/lv_cache.c **** 
 696              		.loc 1 126 5 is_stmt 1 view .LVU208
 126:../../Middlewares/LVGL/GUI/lvgl/src/misc/cache/lv_cache.c **** 
 697              		.loc 1 126 24 view .LVU209
 128:../../Middlewares/LVGL/GUI/lvgl/src/misc/cache/lv_cache.c **** 
 698              		.loc 1 128 28 view .LVU210
 130:../../Middlewares/LVGL/GUI/lvgl/src/misc/cache/lv_cache.c ****     if(cache->max_size == 0) {
 699              		.loc 1 130 5 view .LVU211
 131:../../Middlewares/LVGL/GUI/lvgl/src/misc/cache/lv_cache.c ****         lv_mutex_unlock(&cache->lock);
 700              		.loc 1 131 5 view .LVU212
 131:../../Middlewares/LVGL/GUI/lvgl/src/misc/cache/lv_cache.c ****         lv_mutex_unlock(&cache->lock);
 701              		.loc 1 131 13 is_stmt 0 view .LVU213
 702 0008 8068     		ldr	r0, [r0, #8]
 703              	.LVL64:
 131:../../Middlewares/LVGL/GUI/lvgl/src/misc/cache/lv_cache.c ****         lv_mutex_unlock(&cache->lock);
 704              		.loc 1 131 7 view .LVU214
 705 000a 50B1     		cbz	r0, .L53
 138:../../Middlewares/LVGL/GUI/lvgl/src/misc/cache/lv_cache.c ****     if(entry != NULL) {
 706              		.loc 1 138 5 is_stmt 1 view .LVU215
 138:../../Middlewares/LVGL/GUI/lvgl/src/misc/cache/lv_cache.c ****     if(entry != NULL) {
 707              		.loc 1 138 32 is_stmt 0 view .LVU216
 708 000c 1846     		mov	r0, r3
 709 000e FFF7FEFF 		bl	cache_add_internal_no_lock
 710              	.LVL65:
 139:../../Middlewares/LVGL/GUI/lvgl/src/misc/cache/lv_cache.c ****         lv_cache_entry_acquire_data(entry);
 711              		.loc 1 139 5 is_stmt 1 view .LVU217
 139:../../Middlewares/LVGL/GUI/lvgl/src/misc/cache/lv_cache.c ****         lv_cache_entry_acquire_data(entry);
 712              		.loc 1 139 7 is_stmt 0 view .LVU218
 713 0012 0446     		mov	r4, r0
 714 0014 08B1     		cbz	r0, .L46
 140:../../Middlewares/LVGL/GUI/lvgl/src/misc/cache/lv_cache.c ****     }
 715              		.loc 1 140 9 is_stmt 1 view .LVU219
 716 0016 FFF7FEFF 		bl	lv_cache_entry_acquire_data
 717              	.LVL66:
 142:../../Middlewares/LVGL/GUI/lvgl/src/misc/cache/lv_cache.c **** 
 718              		.loc 1 142 5 view .LVU220
 144:../../Middlewares/LVGL/GUI/lvgl/src/misc/cache/lv_cache.c ****     return entry;
 719              		.loc 1 144 26 view .LVU221
 145:../../Middlewares/LVGL/GUI/lvgl/src/misc/cache/lv_cache.c **** }
 720              		.loc 1 145 5 view .LVU222
 721              	.L46:
 146:../../Middlewares/LVGL/GUI/lvgl/src/misc/cache/lv_cache.c **** lv_cache_entry_t * lv_cache_acquire_or_create(lv_cache_t * cache, const void * key, void * user_dat
 722              		.loc 1 146 1 is_stmt 0 view .LVU223
 723 001a 2046     		mov	r0, r4
 724 001c 10BD     		pop	{r4, pc}
 725              	.LVL67:
 726              	.L48:
 727              	.LCFI17:
 728              		.cfi_def_cfa_offset 0
 729              		.cfi_restore 4
 730              		.cfi_restore 14
ARM GAS  C:\Users\28576\AppData\Local\Temp\ccyxHldv.s 			page 23


 125:../../Middlewares/LVGL/GUI/lvgl/src/misc/cache/lv_cache.c ****     LV_ASSERT_NULL(key);
 731              		.loc 1 125 5 is_stmt 1 view .LVU224
 125:../../Middlewares/LVGL/GUI/lvgl/src/misc/cache/lv_cache.c ****     LV_ASSERT_NULL(key);
 732              		.loc 1 125 5 view .LVU225
 125:../../Middlewares/LVGL/GUI/lvgl/src/misc/cache/lv_cache.c ****     LV_ASSERT_NULL(key);
 733              		.loc 1 125 5 view .LVU226
 125:../../Middlewares/LVGL/GUI/lvgl/src/misc/cache/lv_cache.c ****     LV_ASSERT_NULL(key);
 734              		.loc 1 125 5 view .LVU227
 125:../../Middlewares/LVGL/GUI/lvgl/src/misc/cache/lv_cache.c ****     LV_ASSERT_NULL(key);
 735              		.loc 1 125 5 view .LVU228
 736 001e FEE7     		b	.L48
 737              	.L50:
 126:../../Middlewares/LVGL/GUI/lvgl/src/misc/cache/lv_cache.c **** 
 738              		.loc 1 126 5 view .LVU229
 126:../../Middlewares/LVGL/GUI/lvgl/src/misc/cache/lv_cache.c **** 
 739              		.loc 1 126 5 view .LVU230
 126:../../Middlewares/LVGL/GUI/lvgl/src/misc/cache/lv_cache.c **** 
 740              		.loc 1 126 5 view .LVU231
 126:../../Middlewares/LVGL/GUI/lvgl/src/misc/cache/lv_cache.c **** 
 741              		.loc 1 126 5 view .LVU232
 126:../../Middlewares/LVGL/GUI/lvgl/src/misc/cache/lv_cache.c **** 
 742              		.loc 1 126 5 view .LVU233
 743 0020 FEE7     		b	.L50
 744              	.LVL68:
 745              	.L53:
 746              	.LCFI18:
 747              		.cfi_def_cfa_offset 8
 748              		.cfi_offset 4, -8
 749              		.cfi_offset 14, -4
 135:../../Middlewares/LVGL/GUI/lvgl/src/misc/cache/lv_cache.c ****     }
 750              		.loc 1 135 16 is_stmt 0 view .LVU234
 751 0022 0446     		mov	r4, r0
 752 0024 F9E7     		b	.L46
 753              		.cfi_endproc
 754              	.LFE21:
 756              		.section	.text.lv_cache_acquire_or_create,"ax",%progbits
 757              		.align	1
 758              		.global	lv_cache_acquire_or_create
 759              		.syntax unified
 760              		.thumb
 761              		.thumb_func
 763              	lv_cache_acquire_or_create:
 764              	.LVL69:
 765              	.LFB22:
 148:../../Middlewares/LVGL/GUI/lvgl/src/misc/cache/lv_cache.c ****     LV_ASSERT_NULL(cache);
 766              		.loc 1 148 1 is_stmt 1 view -0
 767              		.cfi_startproc
 768              		@ args = 0, pretend = 0, frame = 0
 769              		@ frame_needed = 0, uses_anonymous_args = 0
 149:../../Middlewares/LVGL/GUI/lvgl/src/misc/cache/lv_cache.c ****     LV_ASSERT_NULL(key);
 770              		.loc 1 149 5 view .LVU236
 149:../../Middlewares/LVGL/GUI/lvgl/src/misc/cache/lv_cache.c ****     LV_ASSERT_NULL(key);
 771              		.loc 1 149 5 view .LVU237
 772 0000 88B3     		cbz	r0, .L58
 148:../../Middlewares/LVGL/GUI/lvgl/src/misc/cache/lv_cache.c ****     LV_ASSERT_NULL(cache);
 773              		.loc 1 148 1 is_stmt 0 view .LVU238
 774 0002 2DE9F041 		push	{r4, r5, r6, r7, r8, lr}
ARM GAS  C:\Users\28576\AppData\Local\Temp\ccyxHldv.s 			page 24


 775              	.LCFI19:
 776              		.cfi_def_cfa_offset 24
 777              		.cfi_offset 4, -24
 778              		.cfi_offset 5, -20
 779              		.cfi_offset 6, -16
 780              		.cfi_offset 7, -12
 781              		.cfi_offset 8, -8
 782              		.cfi_offset 14, -4
 783 0006 0D46     		mov	r5, r1
 784 0008 1646     		mov	r6, r2
 785 000a 0446     		mov	r4, r0
 149:../../Middlewares/LVGL/GUI/lvgl/src/misc/cache/lv_cache.c ****     LV_ASSERT_NULL(key);
 786              		.loc 1 149 5 is_stmt 1 view .LVU239
 149:../../Middlewares/LVGL/GUI/lvgl/src/misc/cache/lv_cache.c ****     LV_ASSERT_NULL(key);
 787              		.loc 1 149 26 view .LVU240
 150:../../Middlewares/LVGL/GUI/lvgl/src/misc/cache/lv_cache.c **** 
 788              		.loc 1 150 5 view .LVU241
 150:../../Middlewares/LVGL/GUI/lvgl/src/misc/cache/lv_cache.c **** 
 789              		.loc 1 150 5 view .LVU242
 790 000c 61B3     		cbz	r1, .L60
 150:../../Middlewares/LVGL/GUI/lvgl/src/misc/cache/lv_cache.c **** 
 791              		.loc 1 150 5 view .LVU243
 150:../../Middlewares/LVGL/GUI/lvgl/src/misc/cache/lv_cache.c **** 
 792              		.loc 1 150 24 view .LVU244
 152:../../Middlewares/LVGL/GUI/lvgl/src/misc/cache/lv_cache.c **** 
 793              		.loc 1 152 28 view .LVU245
 154:../../Middlewares/LVGL/GUI/lvgl/src/misc/cache/lv_cache.c ****     lv_cache_entry_t * entry = NULL;
 794              		.loc 1 154 5 view .LVU246
 155:../../Middlewares/LVGL/GUI/lvgl/src/misc/cache/lv_cache.c **** 
 795              		.loc 1 155 5 view .LVU247
 796              	.LVL70:
 157:../../Middlewares/LVGL/GUI/lvgl/src/misc/cache/lv_cache.c ****         entry = cache->clz->get_cb(cache, key, user_data);
 797              		.loc 1 157 5 view .LVU248
 157:../../Middlewares/LVGL/GUI/lvgl/src/misc/cache/lv_cache.c ****         entry = cache->clz->get_cb(cache, key, user_data);
 798              		.loc 1 157 13 is_stmt 0 view .LVU249
 799 000e C368     		ldr	r3, [r0, #12]
 157:../../Middlewares/LVGL/GUI/lvgl/src/misc/cache/lv_cache.c ****         entry = cache->clz->get_cb(cache, key, user_data);
 800              		.loc 1 157 7 view .LVU250
 801 0010 23B1     		cbz	r3, .L61
 158:../../Middlewares/LVGL/GUI/lvgl/src/misc/cache/lv_cache.c ****         if(entry != NULL) {
 802              		.loc 1 158 9 is_stmt 1 view .LVU251
 158:../../Middlewares/LVGL/GUI/lvgl/src/misc/cache/lv_cache.c ****         if(entry != NULL) {
 803              		.loc 1 158 22 is_stmt 0 view .LVU252
 804 0012 0368     		ldr	r3, [r0]
 158:../../Middlewares/LVGL/GUI/lvgl/src/misc/cache/lv_cache.c ****         if(entry != NULL) {
 805              		.loc 1 158 27 view .LVU253
 806 0014 DB68     		ldr	r3, [r3, #12]
 158:../../Middlewares/LVGL/GUI/lvgl/src/misc/cache/lv_cache.c ****         if(entry != NULL) {
 807              		.loc 1 158 17 view .LVU254
 808 0016 9847     		blx	r3
 809              	.LVL71:
 159:../../Middlewares/LVGL/GUI/lvgl/src/misc/cache/lv_cache.c ****             lv_cache_entry_acquire_data(entry);
 810              		.loc 1 159 9 is_stmt 1 view .LVU255
 159:../../Middlewares/LVGL/GUI/lvgl/src/misc/cache/lv_cache.c ****             lv_cache_entry_acquire_data(entry);
 811              		.loc 1 159 11 is_stmt 0 view .LVU256
 812 0018 8046     		mov	r8, r0
 813 001a 30BB     		cbnz	r0, .L68
ARM GAS  C:\Users\28576\AppData\Local\Temp\ccyxHldv.s 			page 25


 814              	.LVL72:
 815              	.L61:
 168:../../Middlewares/LVGL/GUI/lvgl/src/misc/cache/lv_cache.c ****         lv_mutex_unlock(&cache->lock);
 816              		.loc 1 168 5 is_stmt 1 view .LVU257
 168:../../Middlewares/LVGL/GUI/lvgl/src/misc/cache/lv_cache.c ****         lv_mutex_unlock(&cache->lock);
 817              		.loc 1 168 13 is_stmt 0 view .LVU258
 818 001c A368     		ldr	r3, [r4, #8]
 168:../../Middlewares/LVGL/GUI/lvgl/src/misc/cache/lv_cache.c ****         lv_mutex_unlock(&cache->lock);
 819              		.loc 1 168 7 view .LVU259
 820 001e 5BB3     		cbz	r3, .L65
 175:../../Middlewares/LVGL/GUI/lvgl/src/misc/cache/lv_cache.c ****     if(entry == NULL) {
 821              		.loc 1 175 5 is_stmt 1 view .LVU260
 175:../../Middlewares/LVGL/GUI/lvgl/src/misc/cache/lv_cache.c ****     if(entry == NULL) {
 822              		.loc 1 175 13 is_stmt 0 view .LVU261
 823 0020 3746     		mov	r7, r6
 824 0022 3246     		mov	r2, r6
 825 0024 2946     		mov	r1, r5
 826 0026 2046     		mov	r0, r4
 827 0028 FFF7FEFF 		bl	cache_add_internal_no_lock
 828              	.LVL73:
 176:../../Middlewares/LVGL/GUI/lvgl/src/misc/cache/lv_cache.c ****         lv_mutex_unlock(&cache->lock);
 829              		.loc 1 176 5 is_stmt 1 view .LVU262
 176:../../Middlewares/LVGL/GUI/lvgl/src/misc/cache/lv_cache.c ****         lv_mutex_unlock(&cache->lock);
 830              		.loc 1 176 7 is_stmt 0 view .LVU263
 831 002c 0646     		mov	r6, r0
 832              	.LVL74:
 176:../../Middlewares/LVGL/GUI/lvgl/src/misc/cache/lv_cache.c ****         lv_mutex_unlock(&cache->lock);
 833              		.loc 1 176 7 view .LVU264
 834 002e 8046     		mov	r8, r0
 835 0030 B0B1     		cbz	r0, .L56
 182:../../Middlewares/LVGL/GUI/lvgl/src/misc/cache/lv_cache.c ****     if(create_res == false) {
 836              		.loc 1 182 5 is_stmt 1 view .LVU265
 182:../../Middlewares/LVGL/GUI/lvgl/src/misc/cache/lv_cache.c ****     if(create_res == false) {
 837              		.loc 1 182 33 is_stmt 0 view .LVU266
 838 0032 6569     		ldr	r5, [r4, #20]
 839              	.LVL75:
 182:../../Middlewares/LVGL/GUI/lvgl/src/misc/cache/lv_cache.c ****     if(create_res == false) {
 840              		.loc 1 182 23 view .LVU267
 841 0034 FFF7FEFF 		bl	lv_cache_entry_get_data
 842              	.LVL76:
 182:../../Middlewares/LVGL/GUI/lvgl/src/misc/cache/lv_cache.c ****     if(create_res == false) {
 843              		.loc 1 182 23 discriminator 1 view .LVU268
 844 0038 3946     		mov	r1, r7
 845 003a A847     		blx	r5
 846              	.LVL77:
 183:../../Middlewares/LVGL/GUI/lvgl/src/misc/cache/lv_cache.c ****         cache->clz->remove_cb(cache, entry, user_data);
 847              		.loc 1 183 5 is_stmt 1 view .LVU269
 183:../../Middlewares/LVGL/GUI/lvgl/src/misc/cache/lv_cache.c ****         cache->clz->remove_cb(cache, entry, user_data);
 848              		.loc 1 183 7 is_stmt 0 view .LVU270
 849 003c C0B9     		cbnz	r0, .L63
 184:../../Middlewares/LVGL/GUI/lvgl/src/misc/cache/lv_cache.c ****         cache->ops.free_cb(lv_cache_entry_get_data(entry), user_data);
 850              		.loc 1 184 9 is_stmt 1 view .LVU271
 184:../../Middlewares/LVGL/GUI/lvgl/src/misc/cache/lv_cache.c ****         cache->ops.free_cb(lv_cache_entry_get_data(entry), user_data);
 851              		.loc 1 184 14 is_stmt 0 view .LVU272
 852 003e 2368     		ldr	r3, [r4]
 184:../../Middlewares/LVGL/GUI/lvgl/src/misc/cache/lv_cache.c ****         cache->ops.free_cb(lv_cache_entry_get_data(entry), user_data);
 853              		.loc 1 184 19 view .LVU273
ARM GAS  C:\Users\28576\AppData\Local\Temp\ccyxHldv.s 			page 26


 854 0040 5B69     		ldr	r3, [r3, #20]
 184:../../Middlewares/LVGL/GUI/lvgl/src/misc/cache/lv_cache.c ****         cache->ops.free_cb(lv_cache_entry_get_data(entry), user_data);
 855              		.loc 1 184 9 view .LVU274
 856 0042 3A46     		mov	r2, r7
 857 0044 3146     		mov	r1, r6
 858 0046 2046     		mov	r0, r4
 859              	.LVL78:
 184:../../Middlewares/LVGL/GUI/lvgl/src/misc/cache/lv_cache.c ****         cache->ops.free_cb(lv_cache_entry_get_data(entry), user_data);
 860              		.loc 1 184 9 view .LVU275
 861 0048 9847     		blx	r3
 862              	.LVL79:
 185:../../Middlewares/LVGL/GUI/lvgl/src/misc/cache/lv_cache.c ****         lv_cache_entry_delete(entry);
 863              		.loc 1 185 9 is_stmt 1 view .LVU276
 185:../../Middlewares/LVGL/GUI/lvgl/src/misc/cache/lv_cache.c ****         lv_cache_entry_delete(entry);
 864              		.loc 1 185 19 is_stmt 0 view .LVU277
 865 004a A469     		ldr	r4, [r4, #24]
 866              	.LVL80:
 185:../../Middlewares/LVGL/GUI/lvgl/src/misc/cache/lv_cache.c ****         lv_cache_entry_delete(entry);
 867              		.loc 1 185 9 view .LVU278
 868 004c 3046     		mov	r0, r6
 869 004e FFF7FEFF 		bl	lv_cache_entry_get_data
 870              	.LVL81:
 185:../../Middlewares/LVGL/GUI/lvgl/src/misc/cache/lv_cache.c ****         lv_cache_entry_delete(entry);
 871              		.loc 1 185 9 discriminator 1 view .LVU279
 872 0052 3946     		mov	r1, r7
 873 0054 A047     		blx	r4
 874              	.LVL82:
 186:../../Middlewares/LVGL/GUI/lvgl/src/misc/cache/lv_cache.c ****         entry = NULL;
 875              		.loc 1 186 9 is_stmt 1 view .LVU280
 876 0056 3046     		mov	r0, r6
 877 0058 FFF7FEFF 		bl	lv_cache_entry_delete
 878              	.LVL83:
 187:../../Middlewares/LVGL/GUI/lvgl/src/misc/cache/lv_cache.c ****     }
 879              		.loc 1 187 9 view .LVU281
 187:../../Middlewares/LVGL/GUI/lvgl/src/misc/cache/lv_cache.c ****     }
 880              		.loc 1 187 15 is_stmt 0 view .LVU282
 881 005c 0023     		movs	r3, #0
 882 005e 9846     		mov	r8, r3
 883              	.LVL84:
 884              	.L56:
 196:../../Middlewares/LVGL/GUI/lvgl/src/misc/cache/lv_cache.c **** void lv_cache_reserve(lv_cache_t * cache, uint32_t reserved_size, void * user_data)
 885              		.loc 1 196 1 view .LVU283
 886 0060 4046     		mov	r0, r8
 887 0062 BDE8F081 		pop	{r4, r5, r6, r7, r8, pc}
 888              	.LVL85:
 889              	.L58:
 890              	.LCFI20:
 891              		.cfi_def_cfa_offset 0
 892              		.cfi_restore 4
 893              		.cfi_restore 5
 894              		.cfi_restore 6
 895              		.cfi_restore 7
 896              		.cfi_restore 8
 897              		.cfi_restore 14
 149:../../Middlewares/LVGL/GUI/lvgl/src/misc/cache/lv_cache.c ****     LV_ASSERT_NULL(key);
 898              		.loc 1 149 5 is_stmt 1 view .LVU284
 149:../../Middlewares/LVGL/GUI/lvgl/src/misc/cache/lv_cache.c ****     LV_ASSERT_NULL(key);
ARM GAS  C:\Users\28576\AppData\Local\Temp\ccyxHldv.s 			page 27


 899              		.loc 1 149 5 view .LVU285
 149:../../Middlewares/LVGL/GUI/lvgl/src/misc/cache/lv_cache.c ****     LV_ASSERT_NULL(key);
 900              		.loc 1 149 5 view .LVU286
 149:../../Middlewares/LVGL/GUI/lvgl/src/misc/cache/lv_cache.c ****     LV_ASSERT_NULL(key);
 901              		.loc 1 149 5 view .LVU287
 149:../../Middlewares/LVGL/GUI/lvgl/src/misc/cache/lv_cache.c ****     LV_ASSERT_NULL(key);
 902              		.loc 1 149 5 view .LVU288
 903 0066 FEE7     		b	.L58
 904              	.L60:
 905              	.LCFI21:
 906              		.cfi_def_cfa_offset 24
 907              		.cfi_offset 4, -24
 908              		.cfi_offset 5, -20
 909              		.cfi_offset 6, -16
 910              		.cfi_offset 7, -12
 911              		.cfi_offset 8, -8
 912              		.cfi_offset 14, -4
 150:../../Middlewares/LVGL/GUI/lvgl/src/misc/cache/lv_cache.c **** 
 913              		.loc 1 150 5 view .LVU289
 150:../../Middlewares/LVGL/GUI/lvgl/src/misc/cache/lv_cache.c **** 
 914              		.loc 1 150 5 view .LVU290
 150:../../Middlewares/LVGL/GUI/lvgl/src/misc/cache/lv_cache.c **** 
 915              		.loc 1 150 5 view .LVU291
 150:../../Middlewares/LVGL/GUI/lvgl/src/misc/cache/lv_cache.c **** 
 916              		.loc 1 150 5 view .LVU292
 150:../../Middlewares/LVGL/GUI/lvgl/src/misc/cache/lv_cache.c **** 
 917              		.loc 1 150 5 view .LVU293
 918 0068 FEE7     		b	.L60
 919              	.LVL86:
 920              	.L68:
 160:../../Middlewares/LVGL/GUI/lvgl/src/misc/cache/lv_cache.c ****             lv_mutex_unlock(&cache->lock);
 921              		.loc 1 160 13 view .LVU294
 922 006a FFF7FEFF 		bl	lv_cache_entry_acquire_data
 923              	.LVL87:
 161:../../Middlewares/LVGL/GUI/lvgl/src/misc/cache/lv_cache.c **** 
 924              		.loc 1 161 13 view .LVU295
 163:../../Middlewares/LVGL/GUI/lvgl/src/misc/cache/lv_cache.c ****             return entry;
 925              		.loc 1 163 34 view .LVU296
 164:../../Middlewares/LVGL/GUI/lvgl/src/misc/cache/lv_cache.c ****         }
 926              		.loc 1 164 13 view .LVU297
 164:../../Middlewares/LVGL/GUI/lvgl/src/misc/cache/lv_cache.c ****         }
 927              		.loc 1 164 20 is_stmt 0 view .LVU298
 928 006e F7E7     		b	.L56
 929              	.LVL88:
 930              	.L63:
 190:../../Middlewares/LVGL/GUI/lvgl/src/misc/cache/lv_cache.c ****     }
 931              		.loc 1 190 9 is_stmt 1 view .LVU299
 932 0070 3046     		mov	r0, r6
 933              	.LVL89:
 190:../../Middlewares/LVGL/GUI/lvgl/src/misc/cache/lv_cache.c ****     }
 934              		.loc 1 190 9 is_stmt 0 view .LVU300
 935 0072 FFF7FEFF 		bl	lv_cache_entry_acquire_data
 936              	.LVL90:
 192:../../Middlewares/LVGL/GUI/lvgl/src/misc/cache/lv_cache.c **** 
 937              		.loc 1 192 5 is_stmt 1 view .LVU301
 194:../../Middlewares/LVGL/GUI/lvgl/src/misc/cache/lv_cache.c ****     return entry;
 938              		.loc 1 194 26 view .LVU302
ARM GAS  C:\Users\28576\AppData\Local\Temp\ccyxHldv.s 			page 28


 195:../../Middlewares/LVGL/GUI/lvgl/src/misc/cache/lv_cache.c **** }
 939              		.loc 1 195 5 view .LVU303
 195:../../Middlewares/LVGL/GUI/lvgl/src/misc/cache/lv_cache.c **** }
 940              		.loc 1 195 12 is_stmt 0 view .LVU304
 941 0076 F3E7     		b	.L56
 942              	.LVL91:
 943              	.L65:
 172:../../Middlewares/LVGL/GUI/lvgl/src/misc/cache/lv_cache.c ****     }
 944              		.loc 1 172 16 view .LVU305
 945 0078 9846     		mov	r8, r3
 946 007a F1E7     		b	.L56
 947              		.cfi_endproc
 948              	.LFE22:
 950              		.section	.text.lv_cache_reserve,"ax",%progbits
 951              		.align	1
 952              		.global	lv_cache_reserve
 953              		.syntax unified
 954              		.thumb
 955              		.thumb_func
 957              	lv_cache_reserve:
 958              	.LVL92:
 959              	.LFB23:
 198:../../Middlewares/LVGL/GUI/lvgl/src/misc/cache/lv_cache.c ****     LV_ASSERT_NULL(cache);
 960              		.loc 1 198 1 is_stmt 1 view -0
 961              		.cfi_startproc
 962              		@ args = 0, pretend = 0, frame = 0
 963              		@ frame_needed = 0, uses_anonymous_args = 0
 199:../../Middlewares/LVGL/GUI/lvgl/src/misc/cache/lv_cache.c **** 
 964              		.loc 1 199 5 view .LVU307
 199:../../Middlewares/LVGL/GUI/lvgl/src/misc/cache/lv_cache.c **** 
 965              		.loc 1 199 5 view .LVU308
 966 0000 50B1     		cbz	r0, .L71
 198:../../Middlewares/LVGL/GUI/lvgl/src/misc/cache/lv_cache.c ****     LV_ASSERT_NULL(cache);
 967              		.loc 1 198 1 is_stmt 0 view .LVU309
 968 0002 F8B5     		push	{r3, r4, r5, r6, r7, lr}
 969              	.LCFI22:
 970              		.cfi_def_cfa_offset 24
 971              		.cfi_offset 3, -24
 972              		.cfi_offset 4, -20
 973              		.cfi_offset 5, -16
 974              		.cfi_offset 6, -12
 975              		.cfi_offset 7, -8
 976              		.cfi_offset 14, -4
 977 0004 0F46     		mov	r7, r1
 978 0006 1546     		mov	r5, r2
 979 0008 0446     		mov	r4, r0
 199:../../Middlewares/LVGL/GUI/lvgl/src/misc/cache/lv_cache.c **** 
 980              		.loc 1 199 5 is_stmt 1 view .LVU310
 199:../../Middlewares/LVGL/GUI/lvgl/src/misc/cache/lv_cache.c **** 
 981              		.loc 1 199 26 view .LVU311
 201:../../Middlewares/LVGL/GUI/lvgl/src/misc/cache/lv_cache.c **** 
 982              		.loc 1 201 28 view .LVU312
 203:../../Middlewares/LVGL/GUI/lvgl/src/misc/cache/lv_cache.c ****         reserve_cond_res == LV_CACHE_RESERVE_COND_NEED_VICTIM;
 983              		.loc 1 203 5 view .LVU313
 984              	.LBB48:
 203:../../Middlewares/LVGL/GUI/lvgl/src/misc/cache/lv_cache.c ****         reserve_cond_res == LV_CACHE_RESERVE_COND_NEED_VICTIM;
 985              		.loc 1 203 9 view .LVU314
ARM GAS  C:\Users\28576\AppData\Local\Temp\ccyxHldv.s 			page 29


 203:../../Middlewares/LVGL/GUI/lvgl/src/misc/cache/lv_cache.c ****         reserve_cond_res == LV_CACHE_RESERVE_COND_NEED_VICTIM;
 986              		.loc 1 203 61 is_stmt 0 view .LVU315
 987 000a 0368     		ldr	r3, [r0]
 203:../../Middlewares/LVGL/GUI/lvgl/src/misc/cache/lv_cache.c ****         reserve_cond_res == LV_CACHE_RESERVE_COND_NEED_VICTIM;
 988              		.loc 1 203 66 view .LVU316
 989 000c 5E6A     		ldr	r6, [r3, #36]
 203:../../Middlewares/LVGL/GUI/lvgl/src/misc/cache/lv_cache.c ****         reserve_cond_res == LV_CACHE_RESERVE_COND_NEED_VICTIM;
 990              		.loc 1 203 56 view .LVU317
 991 000e 1346     		mov	r3, r2
 992 0010 0A46     		mov	r2, r1
 993              	.LVL93:
 203:../../Middlewares/LVGL/GUI/lvgl/src/misc/cache/lv_cache.c ****         reserve_cond_res == LV_CACHE_RESERVE_COND_NEED_VICTIM;
 994              		.loc 1 203 56 view .LVU318
 995 0012 0021     		movs	r1, #0
 996              	.LVL94:
 203:../../Middlewares/LVGL/GUI/lvgl/src/misc/cache/lv_cache.c ****         reserve_cond_res == LV_CACHE_RESERVE_COND_NEED_VICTIM;
 997              		.loc 1 203 56 view .LVU319
 998 0014 B047     		blx	r6
 999              	.LVL95:
 203:../../Middlewares/LVGL/GUI/lvgl/src/misc/cache/lv_cache.c ****         reserve_cond_res == LV_CACHE_RESERVE_COND_NEED_VICTIM;
 1000              		.loc 1 203 5 view .LVU320
 1001 0016 0BE0     		b	.L72
 1002              	.LVL96:
 1003              	.L71:
 1004              	.LCFI23:
 1005              		.cfi_def_cfa_offset 0
 1006              		.cfi_restore 3
 1007              		.cfi_restore 4
 1008              		.cfi_restore 5
 1009              		.cfi_restore 6
 1010              		.cfi_restore 7
 1011              		.cfi_restore 14
 203:../../Middlewares/LVGL/GUI/lvgl/src/misc/cache/lv_cache.c ****         reserve_cond_res == LV_CACHE_RESERVE_COND_NEED_VICTIM;
 1012              		.loc 1 203 5 view .LVU321
 1013              	.LBE48:
 199:../../Middlewares/LVGL/GUI/lvgl/src/misc/cache/lv_cache.c **** 
 1014              		.loc 1 199 5 is_stmt 1 view .LVU322
 199:../../Middlewares/LVGL/GUI/lvgl/src/misc/cache/lv_cache.c **** 
 1015              		.loc 1 199 5 view .LVU323
 199:../../Middlewares/LVGL/GUI/lvgl/src/misc/cache/lv_cache.c **** 
 1016              		.loc 1 199 5 view .LVU324
 199:../../Middlewares/LVGL/GUI/lvgl/src/misc/cache/lv_cache.c **** 
 1017              		.loc 1 199 5 view .LVU325
 199:../../Middlewares/LVGL/GUI/lvgl/src/misc/cache/lv_cache.c **** 
 1018              		.loc 1 199 5 view .LVU326
 1019 0018 FEE7     		b	.L71
 1020              	.LVL97:
 1021              	.L73:
 1022              	.LCFI24:
 1023              		.cfi_def_cfa_offset 24
 1024              		.cfi_offset 3, -24
 1025              		.cfi_offset 4, -20
 1026              		.cfi_offset 5, -16
 1027              		.cfi_offset 6, -12
 1028              		.cfi_offset 7, -8
 1029              		.cfi_offset 14, -4
 1030              	.LBB49:
ARM GAS  C:\Users\28576\AppData\Local\Temp\ccyxHldv.s 			page 30


 206:../../Middlewares/LVGL/GUI/lvgl/src/misc/cache/lv_cache.c **** 
 1031              		.loc 1 206 9 view .LVU327
 1032 001a 2946     		mov	r1, r5
 1033 001c 2046     		mov	r0, r4
 1034              	.LVL98:
 206:../../Middlewares/LVGL/GUI/lvgl/src/misc/cache/lv_cache.c **** 
 1035              		.loc 1 206 9 is_stmt 0 view .LVU328
 1036 001e FFF7FEFF 		bl	cache_evict_one_internal_no_lock
 1037              	.LVL99:
 205:../../Middlewares/LVGL/GUI/lvgl/src/misc/cache/lv_cache.c ****         cache_evict_one_internal_no_lock(cache, user_data);
 1038              		.loc 1 205 26 is_stmt 1 view .LVU329
 205:../../Middlewares/LVGL/GUI/lvgl/src/misc/cache/lv_cache.c ****         cache_evict_one_internal_no_lock(cache, user_data);
 1039              		.loc 1 205 33 is_stmt 0 view .LVU330
 1040 0022 2368     		ldr	r3, [r4]
 205:../../Middlewares/LVGL/GUI/lvgl/src/misc/cache/lv_cache.c ****         cache_evict_one_internal_no_lock(cache, user_data);
 1041              		.loc 1 205 38 view .LVU331
 1042 0024 5E6A     		ldr	r6, [r3, #36]
 205:../../Middlewares/LVGL/GUI/lvgl/src/misc/cache/lv_cache.c ****         cache_evict_one_internal_no_lock(cache, user_data);
 1043              		.loc 1 205 28 view .LVU332
 1044 0026 2B46     		mov	r3, r5
 1045 0028 3A46     		mov	r2, r7
 1046 002a 0021     		movs	r1, #0
 1047 002c 2046     		mov	r0, r4
 1048 002e B047     		blx	r6
 1049              	.LVL100:
 1050              	.L72:
 204:../../Middlewares/LVGL/GUI/lvgl/src/misc/cache/lv_cache.c ****         reserve_cond_res = cache->clz->reserve_cond_cb(cache, NULL, reserved_size, user_data))
 1051              		.loc 1 204 26 is_stmt 1 view .LVU333
 1052 0030 0228     		cmp	r0, #2
 1053 0032 F2D0     		beq	.L73
 1054              	.LBE49:
 209:../../Middlewares/LVGL/GUI/lvgl/src/misc/cache/lv_cache.c **** void lv_cache_drop(lv_cache_t * cache, const void * key, void * user_data)
 1055              		.loc 1 209 1 is_stmt 0 view .LVU334
 1056 0034 F8BD     		pop	{r3, r4, r5, r6, r7, pc}
 209:../../Middlewares/LVGL/GUI/lvgl/src/misc/cache/lv_cache.c **** void lv_cache_drop(lv_cache_t * cache, const void * key, void * user_data)
 1057              		.loc 1 209 1 view .LVU335
 1058              		.cfi_endproc
 1059              	.LFE23:
 1061              		.section	.text.lv_cache_drop,"ax",%progbits
 1062              		.align	1
 1063              		.global	lv_cache_drop
 1064              		.syntax unified
 1065              		.thumb
 1066              		.thumb_func
 1068              	lv_cache_drop:
 1069              	.LVL101:
 1070              	.LFB24:
 211:../../Middlewares/LVGL/GUI/lvgl/src/misc/cache/lv_cache.c ****     LV_ASSERT_NULL(cache);
 1071              		.loc 1 211 1 is_stmt 1 view -0
 1072              		.cfi_startproc
 1073              		@ args = 0, pretend = 0, frame = 0
 1074              		@ frame_needed = 0, uses_anonymous_args = 0
 212:../../Middlewares/LVGL/GUI/lvgl/src/misc/cache/lv_cache.c ****     LV_ASSERT_NULL(key);
 1075              		.loc 1 212 5 view .LVU337
 212:../../Middlewares/LVGL/GUI/lvgl/src/misc/cache/lv_cache.c ****     LV_ASSERT_NULL(key);
 1076              		.loc 1 212 5 view .LVU338
 1077 0000 20B1     		cbz	r0, .L78
ARM GAS  C:\Users\28576\AppData\Local\Temp\ccyxHldv.s 			page 31


 211:../../Middlewares/LVGL/GUI/lvgl/src/misc/cache/lv_cache.c ****     LV_ASSERT_NULL(cache);
 1078              		.loc 1 211 1 is_stmt 0 view .LVU339
 1079 0002 08B5     		push	{r3, lr}
 1080              	.LCFI25:
 1081              		.cfi_def_cfa_offset 8
 1082              		.cfi_offset 3, -8
 1083              		.cfi_offset 14, -4
 212:../../Middlewares/LVGL/GUI/lvgl/src/misc/cache/lv_cache.c ****     LV_ASSERT_NULL(key);
 1084              		.loc 1 212 5 is_stmt 1 view .LVU340
 212:../../Middlewares/LVGL/GUI/lvgl/src/misc/cache/lv_cache.c ****     LV_ASSERT_NULL(key);
 1085              		.loc 1 212 26 view .LVU341
 213:../../Middlewares/LVGL/GUI/lvgl/src/misc/cache/lv_cache.c **** 
 1086              		.loc 1 213 5 view .LVU342
 213:../../Middlewares/LVGL/GUI/lvgl/src/misc/cache/lv_cache.c **** 
 1087              		.loc 1 213 5 view .LVU343
 1088 0004 19B1     		cbz	r1, .L80
 213:../../Middlewares/LVGL/GUI/lvgl/src/misc/cache/lv_cache.c **** 
 1089              		.loc 1 213 5 view .LVU344
 213:../../Middlewares/LVGL/GUI/lvgl/src/misc/cache/lv_cache.c **** 
 1090              		.loc 1 213 24 view .LVU345
 215:../../Middlewares/LVGL/GUI/lvgl/src/misc/cache/lv_cache.c **** 
 1091              		.loc 1 215 28 view .LVU346
 217:../../Middlewares/LVGL/GUI/lvgl/src/misc/cache/lv_cache.c ****     cache_drop_internal_no_lock(cache, key, user_data);
 1092              		.loc 1 217 5 view .LVU347
 218:../../Middlewares/LVGL/GUI/lvgl/src/misc/cache/lv_cache.c ****     lv_mutex_unlock(&cache->lock);
 1093              		.loc 1 218 5 view .LVU348
 1094 0006 FFF7FEFF 		bl	cache_drop_internal_no_lock
 1095              	.LVL102:
 219:../../Middlewares/LVGL/GUI/lvgl/src/misc/cache/lv_cache.c **** 
 1096              		.loc 1 219 5 view .LVU349
 221:../../Middlewares/LVGL/GUI/lvgl/src/misc/cache/lv_cache.c **** }
 1097              		.loc 1 221 26 view .LVU350
 222:../../Middlewares/LVGL/GUI/lvgl/src/misc/cache/lv_cache.c **** bool lv_cache_evict_one(lv_cache_t * cache, void * user_data)
 1098              		.loc 1 222 1 is_stmt 0 view .LVU351
 1099 000a 08BD     		pop	{r3, pc}
 1100              	.LVL103:
 1101              	.L78:
 1102              	.LCFI26:
 1103              		.cfi_def_cfa_offset 0
 1104              		.cfi_restore 3
 1105              		.cfi_restore 14
 212:../../Middlewares/LVGL/GUI/lvgl/src/misc/cache/lv_cache.c ****     LV_ASSERT_NULL(key);
 1106              		.loc 1 212 5 is_stmt 1 view .LVU352
 212:../../Middlewares/LVGL/GUI/lvgl/src/misc/cache/lv_cache.c ****     LV_ASSERT_NULL(key);
 1107              		.loc 1 212 5 view .LVU353
 212:../../Middlewares/LVGL/GUI/lvgl/src/misc/cache/lv_cache.c ****     LV_ASSERT_NULL(key);
 1108              		.loc 1 212 5 view .LVU354
 212:../../Middlewares/LVGL/GUI/lvgl/src/misc/cache/lv_cache.c ****     LV_ASSERT_NULL(key);
 1109              		.loc 1 212 5 view .LVU355
 212:../../Middlewares/LVGL/GUI/lvgl/src/misc/cache/lv_cache.c ****     LV_ASSERT_NULL(key);
 1110              		.loc 1 212 5 view .LVU356
 1111 000c FEE7     		b	.L78
 1112              	.L80:
 1113              	.LCFI27:
 1114              		.cfi_def_cfa_offset 8
 1115              		.cfi_offset 3, -8
 1116              		.cfi_offset 14, -4
ARM GAS  C:\Users\28576\AppData\Local\Temp\ccyxHldv.s 			page 32


 213:../../Middlewares/LVGL/GUI/lvgl/src/misc/cache/lv_cache.c **** 
 1117              		.loc 1 213 5 view .LVU357
 213:../../Middlewares/LVGL/GUI/lvgl/src/misc/cache/lv_cache.c **** 
 1118              		.loc 1 213 5 view .LVU358
 213:../../Middlewares/LVGL/GUI/lvgl/src/misc/cache/lv_cache.c **** 
 1119              		.loc 1 213 5 view .LVU359
 213:../../Middlewares/LVGL/GUI/lvgl/src/misc/cache/lv_cache.c **** 
 1120              		.loc 1 213 5 view .LVU360
 213:../../Middlewares/LVGL/GUI/lvgl/src/misc/cache/lv_cache.c **** 
 1121              		.loc 1 213 5 view .LVU361
 1122 000e FEE7     		b	.L80
 1123              		.cfi_endproc
 1124              	.LFE24:
 1126              		.section	.text.lv_cache_evict_one,"ax",%progbits
 1127              		.align	1
 1128              		.global	lv_cache_evict_one
 1129              		.syntax unified
 1130              		.thumb
 1131              		.thumb_func
 1133              	lv_cache_evict_one:
 1134              	.LVL104:
 1135              	.LFB25:
 224:../../Middlewares/LVGL/GUI/lvgl/src/misc/cache/lv_cache.c ****     LV_ASSERT_NULL(cache);
 1136              		.loc 1 224 1 view -0
 1137              		.cfi_startproc
 1138              		@ args = 0, pretend = 0, frame = 0
 1139              		@ frame_needed = 0, uses_anonymous_args = 0
 225:../../Middlewares/LVGL/GUI/lvgl/src/misc/cache/lv_cache.c **** 
 1140              		.loc 1 225 5 view .LVU363
 225:../../Middlewares/LVGL/GUI/lvgl/src/misc/cache/lv_cache.c **** 
 1141              		.loc 1 225 5 view .LVU364
 1142 0000 18B1     		cbz	r0, .L85
 224:../../Middlewares/LVGL/GUI/lvgl/src/misc/cache/lv_cache.c ****     LV_ASSERT_NULL(cache);
 1143              		.loc 1 224 1 is_stmt 0 view .LVU365
 1144 0002 08B5     		push	{r3, lr}
 1145              	.LCFI28:
 1146              		.cfi_def_cfa_offset 8
 1147              		.cfi_offset 3, -8
 1148              		.cfi_offset 14, -4
 225:../../Middlewares/LVGL/GUI/lvgl/src/misc/cache/lv_cache.c **** 
 1149              		.loc 1 225 5 is_stmt 1 view .LVU366
 225:../../Middlewares/LVGL/GUI/lvgl/src/misc/cache/lv_cache.c **** 
 1150              		.loc 1 225 26 view .LVU367
 227:../../Middlewares/LVGL/GUI/lvgl/src/misc/cache/lv_cache.c **** 
 1151              		.loc 1 227 28 view .LVU368
 229:../../Middlewares/LVGL/GUI/lvgl/src/misc/cache/lv_cache.c ****     bool res = cache_evict_one_internal_no_lock(cache, user_data);
 1152              		.loc 1 229 5 view .LVU369
 230:../../Middlewares/LVGL/GUI/lvgl/src/misc/cache/lv_cache.c ****     lv_mutex_unlock(&cache->lock);
 1153              		.loc 1 230 5 view .LVU370
 230:../../Middlewares/LVGL/GUI/lvgl/src/misc/cache/lv_cache.c ****     lv_mutex_unlock(&cache->lock);
 1154              		.loc 1 230 16 is_stmt 0 view .LVU371
 1155 0004 FFF7FEFF 		bl	cache_evict_one_internal_no_lock
 1156              	.LVL105:
 231:../../Middlewares/LVGL/GUI/lvgl/src/misc/cache/lv_cache.c **** 
 1157              		.loc 1 231 5 is_stmt 1 view .LVU372
 233:../../Middlewares/LVGL/GUI/lvgl/src/misc/cache/lv_cache.c ****     return res;
 1158              		.loc 1 233 26 view .LVU373
ARM GAS  C:\Users\28576\AppData\Local\Temp\ccyxHldv.s 			page 33


 234:../../Middlewares/LVGL/GUI/lvgl/src/misc/cache/lv_cache.c **** }
 1159              		.loc 1 234 5 view .LVU374
 235:../../Middlewares/LVGL/GUI/lvgl/src/misc/cache/lv_cache.c **** void lv_cache_drop_all(lv_cache_t * cache, void * user_data)
 1160              		.loc 1 235 1 is_stmt 0 view .LVU375
 1161 0008 08BD     		pop	{r3, pc}
 1162              	.LVL106:
 1163              	.L85:
 1164              	.LCFI29:
 1165              		.cfi_def_cfa_offset 0
 1166              		.cfi_restore 3
 1167              		.cfi_restore 14
 225:../../Middlewares/LVGL/GUI/lvgl/src/misc/cache/lv_cache.c **** 
 1168              		.loc 1 225 5 is_stmt 1 view .LVU376
 225:../../Middlewares/LVGL/GUI/lvgl/src/misc/cache/lv_cache.c **** 
 1169              		.loc 1 225 5 view .LVU377
 225:../../Middlewares/LVGL/GUI/lvgl/src/misc/cache/lv_cache.c **** 
 1170              		.loc 1 225 5 view .LVU378
 225:../../Middlewares/LVGL/GUI/lvgl/src/misc/cache/lv_cache.c **** 
 1171              		.loc 1 225 5 view .LVU379
 225:../../Middlewares/LVGL/GUI/lvgl/src/misc/cache/lv_cache.c **** 
 1172              		.loc 1 225 5 view .LVU380
 1173 000a FEE7     		b	.L85
 1174              		.cfi_endproc
 1175              	.LFE25:
 1177              		.section	.text.lv_cache_drop_all,"ax",%progbits
 1178              		.align	1
 1179              		.global	lv_cache_drop_all
 1180              		.syntax unified
 1181              		.thumb
 1182              		.thumb_func
 1184              	lv_cache_drop_all:
 1185              	.LVL107:
 1186              	.LFB26:
 237:../../Middlewares/LVGL/GUI/lvgl/src/misc/cache/lv_cache.c ****     LV_ASSERT_NULL(cache);
 1187              		.loc 1 237 1 view -0
 1188              		.cfi_startproc
 1189              		@ args = 0, pretend = 0, frame = 0
 1190              		@ frame_needed = 0, uses_anonymous_args = 0
 238:../../Middlewares/LVGL/GUI/lvgl/src/misc/cache/lv_cache.c **** 
 1191              		.loc 1 238 5 view .LVU382
 238:../../Middlewares/LVGL/GUI/lvgl/src/misc/cache/lv_cache.c **** 
 1192              		.loc 1 238 5 view .LVU383
 1193 0000 20B1     		cbz	r0, .L90
 237:../../Middlewares/LVGL/GUI/lvgl/src/misc/cache/lv_cache.c ****     LV_ASSERT_NULL(cache);
 1194              		.loc 1 237 1 is_stmt 0 view .LVU384
 1195 0002 08B5     		push	{r3, lr}
 1196              	.LCFI30:
 1197              		.cfi_def_cfa_offset 8
 1198              		.cfi_offset 3, -8
 1199              		.cfi_offset 14, -4
 238:../../Middlewares/LVGL/GUI/lvgl/src/misc/cache/lv_cache.c **** 
 1200              		.loc 1 238 5 is_stmt 1 view .LVU385
 238:../../Middlewares/LVGL/GUI/lvgl/src/misc/cache/lv_cache.c **** 
 1201              		.loc 1 238 26 view .LVU386
 240:../../Middlewares/LVGL/GUI/lvgl/src/misc/cache/lv_cache.c **** 
 1202              		.loc 1 240 28 view .LVU387
 242:../../Middlewares/LVGL/GUI/lvgl/src/misc/cache/lv_cache.c ****     cache->clz->drop_all_cb(cache, user_data);
ARM GAS  C:\Users\28576\AppData\Local\Temp\ccyxHldv.s 			page 34


 1203              		.loc 1 242 5 view .LVU388
 243:../../Middlewares/LVGL/GUI/lvgl/src/misc/cache/lv_cache.c ****     lv_mutex_unlock(&cache->lock);
 1204              		.loc 1 243 5 view .LVU389
 243:../../Middlewares/LVGL/GUI/lvgl/src/misc/cache/lv_cache.c ****     lv_mutex_unlock(&cache->lock);
 1205              		.loc 1 243 10 is_stmt 0 view .LVU390
 1206 0004 0268     		ldr	r2, [r0]
 243:../../Middlewares/LVGL/GUI/lvgl/src/misc/cache/lv_cache.c ****     lv_mutex_unlock(&cache->lock);
 1207              		.loc 1 243 15 view .LVU391
 1208 0006 D269     		ldr	r2, [r2, #28]
 243:../../Middlewares/LVGL/GUI/lvgl/src/misc/cache/lv_cache.c ****     lv_mutex_unlock(&cache->lock);
 1209              		.loc 1 243 5 view .LVU392
 1210 0008 9047     		blx	r2
 1211              	.LVL108:
 244:../../Middlewares/LVGL/GUI/lvgl/src/misc/cache/lv_cache.c **** 
 1212              		.loc 1 244 5 is_stmt 1 view .LVU393
 246:../../Middlewares/LVGL/GUI/lvgl/src/misc/cache/lv_cache.c **** }
 1213              		.loc 1 246 26 view .LVU394
 247:../../Middlewares/LVGL/GUI/lvgl/src/misc/cache/lv_cache.c **** 
 1214              		.loc 1 247 1 is_stmt 0 view .LVU395
 1215 000a 08BD     		pop	{r3, pc}
 1216              	.LVL109:
 1217              	.L90:
 1218              	.LCFI31:
 1219              		.cfi_def_cfa_offset 0
 1220              		.cfi_restore 3
 1221              		.cfi_restore 14
 238:../../Middlewares/LVGL/GUI/lvgl/src/misc/cache/lv_cache.c **** 
 1222              		.loc 1 238 5 is_stmt 1 view .LVU396
 238:../../Middlewares/LVGL/GUI/lvgl/src/misc/cache/lv_cache.c **** 
 1223              		.loc 1 238 5 view .LVU397
 238:../../Middlewares/LVGL/GUI/lvgl/src/misc/cache/lv_cache.c **** 
 1224              		.loc 1 238 5 view .LVU398
 238:../../Middlewares/LVGL/GUI/lvgl/src/misc/cache/lv_cache.c **** 
 1225              		.loc 1 238 5 view .LVU399
 238:../../Middlewares/LVGL/GUI/lvgl/src/misc/cache/lv_cache.c **** 
 1226              		.loc 1 238 5 view .LVU400
 1227 000c FEE7     		b	.L90
 1228              		.cfi_endproc
 1229              	.LFE26:
 1231              		.section	.text.lv_cache_set_max_size,"ax",%progbits
 1232              		.align	1
 1233              		.global	lv_cache_set_max_size
 1234              		.syntax unified
 1235              		.thumb
 1236              		.thumb_func
 1238              	lv_cache_set_max_size:
 1239              	.LVL110:
 1240              	.LFB27:
 250:../../Middlewares/LVGL/GUI/lvgl/src/misc/cache/lv_cache.c ****     LV_UNUSED(user_data);
 1241              		.loc 1 250 1 view -0
 1242              		.cfi_startproc
 1243              		@ args = 0, pretend = 0, frame = 0
 1244              		@ frame_needed = 0, uses_anonymous_args = 0
 1245              		@ link register save eliminated.
 251:../../Middlewares/LVGL/GUI/lvgl/src/misc/cache/lv_cache.c ****     cache->max_size = max_size;
 1246              		.loc 1 251 5 view .LVU402
 252:../../Middlewares/LVGL/GUI/lvgl/src/misc/cache/lv_cache.c **** }
ARM GAS  C:\Users\28576\AppData\Local\Temp\ccyxHldv.s 			page 35


 1247              		.loc 1 252 5 view .LVU403
 252:../../Middlewares/LVGL/GUI/lvgl/src/misc/cache/lv_cache.c **** }
 1248              		.loc 1 252 21 is_stmt 0 view .LVU404
 1249 0000 8160     		str	r1, [r0, #8]
 253:../../Middlewares/LVGL/GUI/lvgl/src/misc/cache/lv_cache.c **** size_t lv_cache_get_max_size(lv_cache_t * cache, void * user_data)
 1250              		.loc 1 253 1 view .LVU405
 1251 0002 7047     		bx	lr
 1252              		.cfi_endproc
 1253              	.LFE27:
 1255              		.section	.text.lv_cache_get_max_size,"ax",%progbits
 1256              		.align	1
 1257              		.global	lv_cache_get_max_size
 1258              		.syntax unified
 1259              		.thumb
 1260              		.thumb_func
 1262              	lv_cache_get_max_size:
 1263              	.LVL111:
 1264              	.LFB28:
 255:../../Middlewares/LVGL/GUI/lvgl/src/misc/cache/lv_cache.c ****     LV_UNUSED(user_data);
 1265              		.loc 1 255 1 is_stmt 1 view -0
 1266              		.cfi_startproc
 1267              		@ args = 0, pretend = 0, frame = 0
 1268              		@ frame_needed = 0, uses_anonymous_args = 0
 1269              		@ link register save eliminated.
 256:../../Middlewares/LVGL/GUI/lvgl/src/misc/cache/lv_cache.c ****     return cache->max_size;
 1270              		.loc 1 256 5 view .LVU407
 257:../../Middlewares/LVGL/GUI/lvgl/src/misc/cache/lv_cache.c **** }
 1271              		.loc 1 257 5 view .LVU408
 258:../../Middlewares/LVGL/GUI/lvgl/src/misc/cache/lv_cache.c **** size_t lv_cache_get_size(lv_cache_t * cache, void * user_data)
 1272              		.loc 1 258 1 is_stmt 0 view .LVU409
 1273 0000 8068     		ldr	r0, [r0, #8]
 1274              	.LVL112:
 258:../../Middlewares/LVGL/GUI/lvgl/src/misc/cache/lv_cache.c **** size_t lv_cache_get_size(lv_cache_t * cache, void * user_data)
 1275              		.loc 1 258 1 view .LVU410
 1276 0002 7047     		bx	lr
 1277              		.cfi_endproc
 1278              	.LFE28:
 1280              		.section	.text.lv_cache_get_size,"ax",%progbits
 1281              		.align	1
 1282              		.global	lv_cache_get_size
 1283              		.syntax unified
 1284              		.thumb
 1285              		.thumb_func
 1287              	lv_cache_get_size:
 1288              	.LVL113:
 1289              	.LFB29:
 260:../../Middlewares/LVGL/GUI/lvgl/src/misc/cache/lv_cache.c ****     LV_UNUSED(user_data);
 1290              		.loc 1 260 1 is_stmt 1 view -0
 1291              		.cfi_startproc
 1292              		@ args = 0, pretend = 0, frame = 0
 1293              		@ frame_needed = 0, uses_anonymous_args = 0
 1294              		@ link register save eliminated.
 261:../../Middlewares/LVGL/GUI/lvgl/src/misc/cache/lv_cache.c ****     return cache->size;
 1295              		.loc 1 261 5 view .LVU412
 262:../../Middlewares/LVGL/GUI/lvgl/src/misc/cache/lv_cache.c **** }
 1296              		.loc 1 262 5 view .LVU413
 263:../../Middlewares/LVGL/GUI/lvgl/src/misc/cache/lv_cache.c **** size_t lv_cache_get_free_size(lv_cache_t * cache, void * user_data)
ARM GAS  C:\Users\28576\AppData\Local\Temp\ccyxHldv.s 			page 36


 1297              		.loc 1 263 1 is_stmt 0 view .LVU414
 1298 0000 C068     		ldr	r0, [r0, #12]
 1299              	.LVL114:
 263:../../Middlewares/LVGL/GUI/lvgl/src/misc/cache/lv_cache.c **** size_t lv_cache_get_free_size(lv_cache_t * cache, void * user_data)
 1300              		.loc 1 263 1 view .LVU415
 1301 0002 7047     		bx	lr
 1302              		.cfi_endproc
 1303              	.LFE29:
 1305              		.section	.text.lv_cache_get_free_size,"ax",%progbits
 1306              		.align	1
 1307              		.global	lv_cache_get_free_size
 1308              		.syntax unified
 1309              		.thumb
 1310              		.thumb_func
 1312              	lv_cache_get_free_size:
 1313              	.LVL115:
 1314              	.LFB30:
 265:../../Middlewares/LVGL/GUI/lvgl/src/misc/cache/lv_cache.c ****     LV_UNUSED(user_data);
 1315              		.loc 1 265 1 is_stmt 1 view -0
 1316              		.cfi_startproc
 1317              		@ args = 0, pretend = 0, frame = 0
 1318              		@ frame_needed = 0, uses_anonymous_args = 0
 1319              		@ link register save eliminated.
 266:../../Middlewares/LVGL/GUI/lvgl/src/misc/cache/lv_cache.c ****     return cache->max_size - cache->size;
 1320              		.loc 1 266 5 view .LVU417
 267:../../Middlewares/LVGL/GUI/lvgl/src/misc/cache/lv_cache.c **** }
 1321              		.loc 1 267 5 view .LVU418
 267:../../Middlewares/LVGL/GUI/lvgl/src/misc/cache/lv_cache.c **** }
 1322              		.loc 1 267 17 is_stmt 0 view .LVU419
 1323 0000 8268     		ldr	r2, [r0, #8]
 267:../../Middlewares/LVGL/GUI/lvgl/src/misc/cache/lv_cache.c **** }
 1324              		.loc 1 267 35 view .LVU420
 1325 0002 C068     		ldr	r0, [r0, #12]
 1326              	.LVL116:
 268:../../Middlewares/LVGL/GUI/lvgl/src/misc/cache/lv_cache.c **** bool lv_cache_is_enabled(lv_cache_t * cache)
 1327              		.loc 1 268 1 view .LVU421
 1328 0004 101A     		subs	r0, r2, r0
 1329 0006 7047     		bx	lr
 1330              		.cfi_endproc
 1331              	.LFE30:
 1333              		.section	.text.lv_cache_is_enabled,"ax",%progbits
 1334              		.align	1
 1335              		.global	lv_cache_is_enabled
 1336              		.syntax unified
 1337              		.thumb
 1338              		.thumb_func
 1340              	lv_cache_is_enabled:
 1341              	.LVL117:
 1342              	.LFB31:
 270:../../Middlewares/LVGL/GUI/lvgl/src/misc/cache/lv_cache.c ****     return cache->max_size > 0;
 1343              		.loc 1 270 1 is_stmt 1 view -0
 1344              		.cfi_startproc
 1345              		@ args = 0, pretend = 0, frame = 0
 1346              		@ frame_needed = 0, uses_anonymous_args = 0
 1347              		@ link register save eliminated.
 271:../../Middlewares/LVGL/GUI/lvgl/src/misc/cache/lv_cache.c **** }
 1348              		.loc 1 271 5 view .LVU423
ARM GAS  C:\Users\28576\AppData\Local\Temp\ccyxHldv.s 			page 37


 271:../../Middlewares/LVGL/GUI/lvgl/src/misc/cache/lv_cache.c **** }
 1349              		.loc 1 271 17 is_stmt 0 view .LVU424
 1350 0000 8068     		ldr	r0, [r0, #8]
 1351              	.LVL118:
 272:../../Middlewares/LVGL/GUI/lvgl/src/misc/cache/lv_cache.c **** void lv_cache_set_compare_cb(lv_cache_t * cache, lv_cache_compare_cb_t compare_cb, void * user_data
 1352              		.loc 1 272 1 view .LVU425
 1353 0002 0038     		subs	r0, r0, #0
 1354 0004 18BF     		it	ne
 1355 0006 0120     		movne	r0, #1
 1356 0008 7047     		bx	lr
 1357              		.cfi_endproc
 1358              	.LFE31:
 1360              		.section	.text.lv_cache_set_compare_cb,"ax",%progbits
 1361              		.align	1
 1362              		.global	lv_cache_set_compare_cb
 1363              		.syntax unified
 1364              		.thumb
 1365              		.thumb_func
 1367              	lv_cache_set_compare_cb:
 1368              	.LVL119:
 1369              	.LFB32:
 274:../../Middlewares/LVGL/GUI/lvgl/src/misc/cache/lv_cache.c ****     LV_UNUSED(user_data);
 1370              		.loc 1 274 1 is_stmt 1 view -0
 1371              		.cfi_startproc
 1372              		@ args = 0, pretend = 0, frame = 0
 1373              		@ frame_needed = 0, uses_anonymous_args = 0
 1374              		@ link register save eliminated.
 275:../../Middlewares/LVGL/GUI/lvgl/src/misc/cache/lv_cache.c ****     cache->ops.compare_cb = compare_cb;
 1375              		.loc 1 275 5 view .LVU427
 276:../../Middlewares/LVGL/GUI/lvgl/src/misc/cache/lv_cache.c **** }
 1376              		.loc 1 276 5 view .LVU428
 276:../../Middlewares/LVGL/GUI/lvgl/src/misc/cache/lv_cache.c **** }
 1377              		.loc 1 276 27 is_stmt 0 view .LVU429
 1378 0000 0161     		str	r1, [r0, #16]
 277:../../Middlewares/LVGL/GUI/lvgl/src/misc/cache/lv_cache.c **** void lv_cache_set_create_cb(lv_cache_t * cache, lv_cache_create_cb_t alloc_cb, void * user_data)
 1379              		.loc 1 277 1 view .LVU430
 1380 0002 7047     		bx	lr
 1381              		.cfi_endproc
 1382              	.LFE32:
 1384              		.section	.text.lv_cache_set_create_cb,"ax",%progbits
 1385              		.align	1
 1386              		.global	lv_cache_set_create_cb
 1387              		.syntax unified
 1388              		.thumb
 1389              		.thumb_func
 1391              	lv_cache_set_create_cb:
 1392              	.LVL120:
 1393              	.LFB33:
 279:../../Middlewares/LVGL/GUI/lvgl/src/misc/cache/lv_cache.c ****     LV_UNUSED(user_data);
 1394              		.loc 1 279 1 is_stmt 1 view -0
 1395              		.cfi_startproc
 1396              		@ args = 0, pretend = 0, frame = 0
 1397              		@ frame_needed = 0, uses_anonymous_args = 0
 1398              		@ link register save eliminated.
 280:../../Middlewares/LVGL/GUI/lvgl/src/misc/cache/lv_cache.c ****     cache->ops.create_cb = alloc_cb;
 1399              		.loc 1 280 5 view .LVU432
 281:../../Middlewares/LVGL/GUI/lvgl/src/misc/cache/lv_cache.c **** }
ARM GAS  C:\Users\28576\AppData\Local\Temp\ccyxHldv.s 			page 38


 1400              		.loc 1 281 5 view .LVU433
 281:../../Middlewares/LVGL/GUI/lvgl/src/misc/cache/lv_cache.c **** }
 1401              		.loc 1 281 26 is_stmt 0 view .LVU434
 1402 0000 4161     		str	r1, [r0, #20]
 282:../../Middlewares/LVGL/GUI/lvgl/src/misc/cache/lv_cache.c **** void lv_cache_set_free_cb(lv_cache_t * cache, lv_cache_free_cb_t free_cb, void * user_data)
 1403              		.loc 1 282 1 view .LVU435
 1404 0002 7047     		bx	lr
 1405              		.cfi_endproc
 1406              	.LFE33:
 1408              		.section	.text.lv_cache_set_free_cb,"ax",%progbits
 1409              		.align	1
 1410              		.global	lv_cache_set_free_cb
 1411              		.syntax unified
 1412              		.thumb
 1413              		.thumb_func
 1415              	lv_cache_set_free_cb:
 1416              	.LVL121:
 1417              	.LFB34:
 284:../../Middlewares/LVGL/GUI/lvgl/src/misc/cache/lv_cache.c ****     LV_UNUSED(user_data);
 1418              		.loc 1 284 1 is_stmt 1 view -0
 1419              		.cfi_startproc
 1420              		@ args = 0, pretend = 0, frame = 0
 1421              		@ frame_needed = 0, uses_anonymous_args = 0
 1422              		@ link register save eliminated.
 285:../../Middlewares/LVGL/GUI/lvgl/src/misc/cache/lv_cache.c ****     cache->ops.free_cb = free_cb;
 1423              		.loc 1 285 5 view .LVU437
 286:../../Middlewares/LVGL/GUI/lvgl/src/misc/cache/lv_cache.c **** }
 1424              		.loc 1 286 5 view .LVU438
 286:../../Middlewares/LVGL/GUI/lvgl/src/misc/cache/lv_cache.c **** }
 1425              		.loc 1 286 24 is_stmt 0 view .LVU439
 1426 0000 8161     		str	r1, [r0, #24]
 287:../../Middlewares/LVGL/GUI/lvgl/src/misc/cache/lv_cache.c **** void lv_cache_set_name(lv_cache_t * cache, const char * name)
 1427              		.loc 1 287 1 view .LVU440
 1428 0002 7047     		bx	lr
 1429              		.cfi_endproc
 1430              	.LFE34:
 1432              		.section	.text.lv_cache_set_name,"ax",%progbits
 1433              		.align	1
 1434              		.global	lv_cache_set_name
 1435              		.syntax unified
 1436              		.thumb
 1437              		.thumb_func
 1439              	lv_cache_set_name:
 1440              	.LVL122:
 1441              	.LFB35:
 289:../../Middlewares/LVGL/GUI/lvgl/src/misc/cache/lv_cache.c ****     if(cache == NULL) return;
 1442              		.loc 1 289 1 is_stmt 1 view -0
 1443              		.cfi_startproc
 1444              		@ args = 0, pretend = 0, frame = 0
 1445              		@ frame_needed = 0, uses_anonymous_args = 0
 1446              		@ link register save eliminated.
 290:../../Middlewares/LVGL/GUI/lvgl/src/misc/cache/lv_cache.c ****     cache->name = name;
 1447              		.loc 1 290 5 view .LVU442
 290:../../Middlewares/LVGL/GUI/lvgl/src/misc/cache/lv_cache.c ****     cache->name = name;
 1448              		.loc 1 290 7 is_stmt 0 view .LVU443
 1449 0000 00B1     		cbz	r0, .L101
 291:../../Middlewares/LVGL/GUI/lvgl/src/misc/cache/lv_cache.c **** }
ARM GAS  C:\Users\28576\AppData\Local\Temp\ccyxHldv.s 			page 39


 1450              		.loc 1 291 5 is_stmt 1 view .LVU444
 291:../../Middlewares/LVGL/GUI/lvgl/src/misc/cache/lv_cache.c **** }
 1451              		.loc 1 291 17 is_stmt 0 view .LVU445
 1452 0002 0162     		str	r1, [r0, #32]
 1453              	.L101:
 292:../../Middlewares/LVGL/GUI/lvgl/src/misc/cache/lv_cache.c **** const char * lv_cache_get_name(lv_cache_t * cache)
 1454              		.loc 1 292 1 view .LVU446
 1455 0004 7047     		bx	lr
 1456              		.cfi_endproc
 1457              	.LFE35:
 1459              		.section	.text.lv_cache_get_name,"ax",%progbits
 1460              		.align	1
 1461              		.global	lv_cache_get_name
 1462              		.syntax unified
 1463              		.thumb
 1464              		.thumb_func
 1466              	lv_cache_get_name:
 1467              	.LVL123:
 1468              	.LFB36:
 294:../../Middlewares/LVGL/GUI/lvgl/src/misc/cache/lv_cache.c ****     return cache->name;
 1469              		.loc 1 294 1 is_stmt 1 view -0
 1470              		.cfi_startproc
 1471              		@ args = 0, pretend = 0, frame = 0
 1472              		@ frame_needed = 0, uses_anonymous_args = 0
 1473              		@ link register save eliminated.
 295:../../Middlewares/LVGL/GUI/lvgl/src/misc/cache/lv_cache.c **** }
 1474              		.loc 1 295 5 view .LVU448
 296:../../Middlewares/LVGL/GUI/lvgl/src/misc/cache/lv_cache.c **** 
 1475              		.loc 1 296 1 is_stmt 0 view .LVU449
 1476 0000 006A     		ldr	r0, [r0, #32]
 1477              	.LVL124:
 296:../../Middlewares/LVGL/GUI/lvgl/src/misc/cache/lv_cache.c **** 
 1478              		.loc 1 296 1 view .LVU450
 1479 0002 7047     		bx	lr
 1480              		.cfi_endproc
 1481              	.LFE36:
 1483              		.section	.text.lv_cache_iter_create,"ax",%progbits
 1484              		.align	1
 1485              		.global	lv_cache_iter_create
 1486              		.syntax unified
 1487              		.thumb
 1488              		.thumb_func
 1490              	lv_cache_iter_create:
 1491              	.LVL125:
 1492              	.LFB37:
 299:../../Middlewares/LVGL/GUI/lvgl/src/misc/cache/lv_cache.c ****     LV_ASSERT_NULL(cache);
 1493              		.loc 1 299 1 is_stmt 1 view -0
 1494              		.cfi_startproc
 1495              		@ args = 0, pretend = 0, frame = 0
 1496              		@ frame_needed = 0, uses_anonymous_args = 0
 300:../../Middlewares/LVGL/GUI/lvgl/src/misc/cache/lv_cache.c ****     if(cache == NULL || cache->clz->iter_create_cb == NULL) return NULL;
 1497              		.loc 1 300 5 view .LVU452
 300:../../Middlewares/LVGL/GUI/lvgl/src/misc/cache/lv_cache.c ****     if(cache == NULL || cache->clz->iter_create_cb == NULL) return NULL;
 1498              		.loc 1 300 5 view .LVU453
 1499 0000 28B1     		cbz	r0, .L106
 299:../../Middlewares/LVGL/GUI/lvgl/src/misc/cache/lv_cache.c ****     LV_ASSERT_NULL(cache);
 1500              		.loc 1 299 1 is_stmt 0 view .LVU454
ARM GAS  C:\Users\28576\AppData\Local\Temp\ccyxHldv.s 			page 40


 1501 0002 08B5     		push	{r3, lr}
 1502              	.LCFI32:
 1503              		.cfi_def_cfa_offset 8
 1504              		.cfi_offset 3, -8
 1505              		.cfi_offset 14, -4
 300:../../Middlewares/LVGL/GUI/lvgl/src/misc/cache/lv_cache.c ****     if(cache == NULL || cache->clz->iter_create_cb == NULL) return NULL;
 1506              		.loc 1 300 5 is_stmt 1 view .LVU455
 300:../../Middlewares/LVGL/GUI/lvgl/src/misc/cache/lv_cache.c ****     if(cache == NULL || cache->clz->iter_create_cb == NULL) return NULL;
 1507              		.loc 1 300 26 view .LVU456
 301:../../Middlewares/LVGL/GUI/lvgl/src/misc/cache/lv_cache.c ****     return cache->clz->iter_create_cb(cache);
 1508              		.loc 1 301 5 view .LVU457
 301:../../Middlewares/LVGL/GUI/lvgl/src/misc/cache/lv_cache.c ****     return cache->clz->iter_create_cb(cache);
 1509              		.loc 1 301 30 is_stmt 0 discriminator 2 view .LVU458
 1510 0004 0268     		ldr	r2, [r0]
 301:../../Middlewares/LVGL/GUI/lvgl/src/misc/cache/lv_cache.c ****     return cache->clz->iter_create_cb(cache);
 1511              		.loc 1 301 35 discriminator 2 view .LVU459
 1512 0006 926A     		ldr	r2, [r2, #40]
 301:../../Middlewares/LVGL/GUI/lvgl/src/misc/cache/lv_cache.c ****     return cache->clz->iter_create_cb(cache);
 1513              		.loc 1 301 22 discriminator 2 view .LVU460
 1514 0008 12B1     		cbz	r2, .L108
 302:../../Middlewares/LVGL/GUI/lvgl/src/misc/cache/lv_cache.c **** }
 1515              		.loc 1 302 5 is_stmt 1 view .LVU461
 302:../../Middlewares/LVGL/GUI/lvgl/src/misc/cache/lv_cache.c **** }
 1516              		.loc 1 302 12 is_stmt 0 view .LVU462
 1517 000a 9047     		blx	r2
 1518              	.LVL126:
 1519              	.L104:
 303:../../Middlewares/LVGL/GUI/lvgl/src/misc/cache/lv_cache.c **** 
 1520              		.loc 1 303 1 view .LVU463
 1521 000c 08BD     		pop	{r3, pc}
 1522              	.LVL127:
 1523              	.L106:
 1524              	.LCFI33:
 1525              		.cfi_def_cfa_offset 0
 1526              		.cfi_restore 3
 1527              		.cfi_restore 14
 300:../../Middlewares/LVGL/GUI/lvgl/src/misc/cache/lv_cache.c ****     if(cache == NULL || cache->clz->iter_create_cb == NULL) return NULL;
 1528              		.loc 1 300 5 is_stmt 1 view .LVU464
 300:../../Middlewares/LVGL/GUI/lvgl/src/misc/cache/lv_cache.c ****     if(cache == NULL || cache->clz->iter_create_cb == NULL) return NULL;
 1529              		.loc 1 300 5 view .LVU465
 300:../../Middlewares/LVGL/GUI/lvgl/src/misc/cache/lv_cache.c ****     if(cache == NULL || cache->clz->iter_create_cb == NULL) return NULL;
 1530              		.loc 1 300 5 view .LVU466
 300:../../Middlewares/LVGL/GUI/lvgl/src/misc/cache/lv_cache.c ****     if(cache == NULL || cache->clz->iter_create_cb == NULL) return NULL;
 1531              		.loc 1 300 5 view .LVU467
 300:../../Middlewares/LVGL/GUI/lvgl/src/misc/cache/lv_cache.c ****     if(cache == NULL || cache->clz->iter_create_cb == NULL) return NULL;
 1532              		.loc 1 300 5 view .LVU468
 1533 000e FEE7     		b	.L106
 1534              	.L108:
 1535              	.LCFI34:
 1536              		.cfi_def_cfa_offset 8
 1537              		.cfi_offset 3, -8
 1538              		.cfi_offset 14, -4
 301:../../Middlewares/LVGL/GUI/lvgl/src/misc/cache/lv_cache.c ****     return cache->clz->iter_create_cb(cache);
 1539              		.loc 1 301 68 is_stmt 0 discriminator 3 view .LVU469
 1540 0010 1046     		mov	r0, r2
 1541              	.LVL128:
 301:../../Middlewares/LVGL/GUI/lvgl/src/misc/cache/lv_cache.c ****     return cache->clz->iter_create_cb(cache);
ARM GAS  C:\Users\28576\AppData\Local\Temp\ccyxHldv.s 			page 41


 1542              		.loc 1 301 68 discriminator 3 view .LVU470
 1543 0012 FBE7     		b	.L104
 1544              		.cfi_endproc
 1545              	.LFE37:
 1547              		.text
 1548              	.Letext0:
 1549              		.file 2 "C:/Users/28576/AppData/Roaming/xPacks/@xpack-dev-tools/arm-none-eabi-gcc/15.2.1-1.1.1/.co
 1550              		.file 3 "C:/Users/28576/AppData/Roaming/xPacks/@xpack-dev-tools/arm-none-eabi-gcc/15.2.1-1.1.1/.co
 1551              		.file 4 "C:/Users/28576/AppData/Roaming/xPacks/@xpack-dev-tools/arm-none-eabi-gcc/15.2.1-1.1.1/.co
 1552              		.file 5 "../../Middlewares/LVGL/GUI/lvgl/src/misc/cache/../lv_types.h"
 1553              		.file 6 "../../Middlewares/LVGL/GUI/lvgl/src/misc/cache/class/../lv_cache_private.h"
 1554              		.file 7 "H:/STM32H7/RGB_LVGL/Middlewares/LVGL/GUI/lvgl/src/osal/lv_os_none.h"
 1555              		.file 8 "../../Middlewares/LVGL/GUI/lvgl/src/misc/cache/lv_cache_entry_private.h"
 1556              		.file 9 "../../Middlewares/LVGL/GUI/lvgl/src/misc/cache/lv_cache_entry.h"
 1557              		.file 10 "H:/STM32H7/RGB_LVGL/Middlewares/LVGL/GUI/lvgl/src/stdlib/lv_mem.h"
 1558              		.file 11 "H:/STM32H7/RGB_LVGL/Middlewares/LVGL/GUI/lvgl/src/osal/lv_os.h"
ARM GAS  C:\Users\28576\AppData\Local\Temp\ccyxHldv.s 			page 42

