ARM GAS  C:\Users\28576\AppData\Local\Temp\cc5JojjZ.s 			page 1


   1              		.cpu cortex-m7
   2              		.arch armv7e-m
   3              		.fpu fpv5-d16
   4              		.eabi_attribute 28, 1
   5              		.eabi_attribute 20, 1
   6              		.eabi_attribute 21, 1
   7              		.eabi_attribute 23, 3
   8              		.eabi_attribute 24, 1
   9              		.eabi_attribute 25, 1
  10              		.eabi_attribute 26, 1
  11              		.eabi_attribute 30, 1
  12              		.eabi_attribute 34, 1
  13              		.eabi_attribute 18, 4
  14              		.file	"lv_calendar_header_dropdown.c"
  15              		.text
  16              	.Ltext0:
  17              		.cfi_sections	.debug_frame
  18              		.file 1 "../../Middlewares/LVGL/GUI/lvgl/src/widgets/calendar/lv_calendar_header_dropdown.c"
  19              		.section	.rodata.my_constructor.str1.4,"aMS",%progbits,1
  20              		.align	2
  21              	.LC0:
  22 0000 32303235 		.ascii	"2025\0122024\0122023\0122022\0122021\0122020\012201"
  22      0A323032 
  22      340A3230 
  22      32330A32 
  22      3032320A 
  23 0021 390A3230 		.ascii	"9\0122018\0122017\0122016\0122015\0122014\0122013\012"
  23      31380A32 
  23      3031370A 
  23      32303136 
  23      0A323031 
  24 0041 32303132 		.ascii	"2012\0122011\0122010\0122009\0122008\0122007\012200"
  24      0A323031 
  24      310A3230 
  24      31300A32 
  24      3030390A 
  25 0062 360A3230 		.ascii	"6\0122005\0122004\0122003\0122002\0122001\0122000\012"
  25      30350A32 
  25      3030340A 
  25      32303033 
  25      0A323030 
  26 0082 31393939 		.ascii	"1999\0121998\0121997\0121996\0121995\0121994\012199"
  26      0A313939 
  26      380A3139 
  26      39370A31 
  26      3939360A 
  27 00a3 330A3139 		.ascii	"3\0121992\0121991\0121990\0121989\0121988\0121987\012"
  27      39320A31 
  27      3939310A 
  27      31393930 
  27      0A313938 
  28 00c3 31393836 		.ascii	"1986\0121985\0121984\0121983\0121982\0121981\012198"
  28      0A313938 
  28      350A3139 
  28      38340A31 
  28      3938330A 
  29 00e4 300A3139 		.ascii	"0\0121979\0121978\0121977\0121976\0121975\0121974\012"
ARM GAS  C:\Users\28576\AppData\Local\Temp\cc5JojjZ.s 			page 2


  29      37390A31 
  29      3937380A 
  29      31393737 
  29      0A313937 
  30 0104 31393733 		.ascii	"1973\0121972\0121971\0121970\0121969\0121968\012196"
  30      0A313937 
  30      320A3139 
  30      37310A31 
  30      3937300A 
  31 0125 370A3139 		.ascii	"7\0121966\0121965\0121964\0121963\0121962\0121961\012"
  31      36360A31 
  31      3936350A 
  31      31393634 
  31      0A313936 
  32 0145 31393630 		.ascii	"1960\0121959\0121958\0121957\0121956\0121955\012195"
  32      0A313935 
  32      390A3139 
  32      35380A31 
  32      3935370A 
  33 0166 340A3139 		.ascii	"4\0121953\0121952\0121951\0121950\0121949\0121948\012"
  33      35330A31 
  33      3935320A 
  33      31393531 
  33      0A313935 
  34 0186 31393437 		.ascii	"1947\0121946\0121945\0121944\0121943\0121942\012194"
  34      0A313934 
  34      360A3139 
  34      34350A31 
  34      3934340A 
  35 01a7 310A3139 		.ascii	"1\0121940\0121939\0121938\0121937\0121936\0121935\012"
  35      34300A31 
  35      3933390A 
  35      31393338 
  35      0A313933 
  36 01c7 31393334 		.ascii	"1934\0121933\0121932\0121931\0121930\0121929\012192"
  36      0A313933 
  36      330A3139 
  36      33320A31 
  36      3933310A 
  37 01e8 380A3139 		.ascii	"8\0121927\0121926\0121925\0121924\0121923\0121922\012"
  37      32370A31 
  37      3932360A 
  37      31393235 
  37      0A313932 
  38 0208 31393231 		.ascii	"1921\0121920\0121919\0121918\0121917\0121916\012191"
  38      0A313932 
  38      300A3139 
  38      31390A31 
  38      3931380A 
  39 0229 350A3139 		.ascii	"5\0121914\0121913\0121912\0121911\0121910\0121909\012"
  39      31340A31 
  39      3931330A 
  39      31393132 
  39      0A313931 
  40 0249 31393038 		.ascii	"1908\0121907\0121906\0121905\0121904\0121903\012190"
  40      0A313930 
  40      370A3139 
ARM GAS  C:\Users\28576\AppData\Local\Temp\cc5JojjZ.s 			page 3


  40      30360A31 
  40      3930350A 
  41 026a 320A3139 		.ascii	"2\0121901\000"
  41      303100
  42 0271 000000   		.align	2
  43              	.LC1:
  44 0274 30310A30 		.ascii	"01\01202\01203\01204\01205\01206\01207\01208\01209\012"
  44      320A3033 
  44      0A30340A 
  44      30350A30 
  44      360A3037 
  45 028f 31300A31 		.ascii	"10\01211\01212\000"
  45      310A3132 
  45      00
  46              		.section	.text.my_constructor,"ax",%progbits
  47              		.align	1
  48              		.syntax unified
  49              		.thumb
  50              		.thumb_func
  52              	my_constructor:
  53              	.LVL0:
  54              	.LFB174:
   1:../../Middlewares/LVGL/GUI/lvgl/src/widgets/calendar/lv_calendar_header_dropdown.c **** /**
   2:../../Middlewares/LVGL/GUI/lvgl/src/widgets/calendar/lv_calendar_header_dropdown.c ****  * @file lv_calendar_obj_dropdown.c
   3:../../Middlewares/LVGL/GUI/lvgl/src/widgets/calendar/lv_calendar_header_dropdown.c ****  *
   4:../../Middlewares/LVGL/GUI/lvgl/src/widgets/calendar/lv_calendar_header_dropdown.c ****  */
   5:../../Middlewares/LVGL/GUI/lvgl/src/widgets/calendar/lv_calendar_header_dropdown.c **** 
   6:../../Middlewares/LVGL/GUI/lvgl/src/widgets/calendar/lv_calendar_header_dropdown.c **** /*********************
   7:../../Middlewares/LVGL/GUI/lvgl/src/widgets/calendar/lv_calendar_header_dropdown.c ****  *      INCLUDES
   8:../../Middlewares/LVGL/GUI/lvgl/src/widgets/calendar/lv_calendar_header_dropdown.c ****  *********************/
   9:../../Middlewares/LVGL/GUI/lvgl/src/widgets/calendar/lv_calendar_header_dropdown.c **** #include "../../core/lv_obj_class_private.h"
  10:../../Middlewares/LVGL/GUI/lvgl/src/widgets/calendar/lv_calendar_header_dropdown.c **** #include "lv_calendar_header_dropdown.h"
  11:../../Middlewares/LVGL/GUI/lvgl/src/widgets/calendar/lv_calendar_header_dropdown.c **** #if LV_USE_CALENDAR && LV_USE_CALENDAR_HEADER_DROPDOWN
  12:../../Middlewares/LVGL/GUI/lvgl/src/widgets/calendar/lv_calendar_header_dropdown.c **** 
  13:../../Middlewares/LVGL/GUI/lvgl/src/widgets/calendar/lv_calendar_header_dropdown.c **** #include "lv_calendar.h"
  14:../../Middlewares/LVGL/GUI/lvgl/src/widgets/calendar/lv_calendar_header_dropdown.c **** #include "../dropdown/lv_dropdown.h"
  15:../../Middlewares/LVGL/GUI/lvgl/src/widgets/calendar/lv_calendar_header_dropdown.c **** #include "../../layouts/flex/lv_flex.h"
  16:../../Middlewares/LVGL/GUI/lvgl/src/widgets/calendar/lv_calendar_header_dropdown.c **** 
  17:../../Middlewares/LVGL/GUI/lvgl/src/widgets/calendar/lv_calendar_header_dropdown.c **** /*********************
  18:../../Middlewares/LVGL/GUI/lvgl/src/widgets/calendar/lv_calendar_header_dropdown.c ****  *      DEFINES
  19:../../Middlewares/LVGL/GUI/lvgl/src/widgets/calendar/lv_calendar_header_dropdown.c ****  *********************/
  20:../../Middlewares/LVGL/GUI/lvgl/src/widgets/calendar/lv_calendar_header_dropdown.c **** 
  21:../../Middlewares/LVGL/GUI/lvgl/src/widgets/calendar/lv_calendar_header_dropdown.c **** /**********************
  22:../../Middlewares/LVGL/GUI/lvgl/src/widgets/calendar/lv_calendar_header_dropdown.c ****  *      TYPEDEFS
  23:../../Middlewares/LVGL/GUI/lvgl/src/widgets/calendar/lv_calendar_header_dropdown.c ****  **********************/
  24:../../Middlewares/LVGL/GUI/lvgl/src/widgets/calendar/lv_calendar_header_dropdown.c **** 
  25:../../Middlewares/LVGL/GUI/lvgl/src/widgets/calendar/lv_calendar_header_dropdown.c **** /**********************
  26:../../Middlewares/LVGL/GUI/lvgl/src/widgets/calendar/lv_calendar_header_dropdown.c ****  *  STATIC PROTOTYPES
  27:../../Middlewares/LVGL/GUI/lvgl/src/widgets/calendar/lv_calendar_header_dropdown.c ****  **********************/
  28:../../Middlewares/LVGL/GUI/lvgl/src/widgets/calendar/lv_calendar_header_dropdown.c **** static void my_constructor(const lv_obj_class_t * class_p, lv_obj_t * obj);
  29:../../Middlewares/LVGL/GUI/lvgl/src/widgets/calendar/lv_calendar_header_dropdown.c **** static void year_event_cb(lv_event_t * e);
  30:../../Middlewares/LVGL/GUI/lvgl/src/widgets/calendar/lv_calendar_header_dropdown.c **** static void month_event_cb(lv_event_t * e);
  31:../../Middlewares/LVGL/GUI/lvgl/src/widgets/calendar/lv_calendar_header_dropdown.c **** static void value_changed_event_cb(lv_event_t * e);
  32:../../Middlewares/LVGL/GUI/lvgl/src/widgets/calendar/lv_calendar_header_dropdown.c **** 
  33:../../Middlewares/LVGL/GUI/lvgl/src/widgets/calendar/lv_calendar_header_dropdown.c **** /**********************
  34:../../Middlewares/LVGL/GUI/lvgl/src/widgets/calendar/lv_calendar_header_dropdown.c ****  *  STATIC VARIABLES
  35:../../Middlewares/LVGL/GUI/lvgl/src/widgets/calendar/lv_calendar_header_dropdown.c ****  **********************/
ARM GAS  C:\Users\28576\AppData\Local\Temp\cc5JojjZ.s 			page 4


  36:../../Middlewares/LVGL/GUI/lvgl/src/widgets/calendar/lv_calendar_header_dropdown.c **** 
  37:../../Middlewares/LVGL/GUI/lvgl/src/widgets/calendar/lv_calendar_header_dropdown.c **** const lv_obj_class_t lv_calendar_header_dropdown_class = {
  38:../../Middlewares/LVGL/GUI/lvgl/src/widgets/calendar/lv_calendar_header_dropdown.c ****     .base_class = &lv_obj_class,
  39:../../Middlewares/LVGL/GUI/lvgl/src/widgets/calendar/lv_calendar_header_dropdown.c ****     .width_def = LV_PCT(100),
  40:../../Middlewares/LVGL/GUI/lvgl/src/widgets/calendar/lv_calendar_header_dropdown.c ****     .height_def = LV_SIZE_CONTENT,
  41:../../Middlewares/LVGL/GUI/lvgl/src/widgets/calendar/lv_calendar_header_dropdown.c ****     .constructor_cb = my_constructor,
  42:../../Middlewares/LVGL/GUI/lvgl/src/widgets/calendar/lv_calendar_header_dropdown.c ****     .name = "lv_calendar_header_dropdown",
  43:../../Middlewares/LVGL/GUI/lvgl/src/widgets/calendar/lv_calendar_header_dropdown.c **** };
  44:../../Middlewares/LVGL/GUI/lvgl/src/widgets/calendar/lv_calendar_header_dropdown.c **** 
  45:../../Middlewares/LVGL/GUI/lvgl/src/widgets/calendar/lv_calendar_header_dropdown.c **** static const char * month_list = "01\n02\n03\n04\n05\n06\n07\n08\n09\n10\n11\n12";
  46:../../Middlewares/LVGL/GUI/lvgl/src/widgets/calendar/lv_calendar_header_dropdown.c **** static const char * year_list = {
  47:../../Middlewares/LVGL/GUI/lvgl/src/widgets/calendar/lv_calendar_header_dropdown.c ****     "2025\n2024\n2023\n2022\n2021\n"
  48:../../Middlewares/LVGL/GUI/lvgl/src/widgets/calendar/lv_calendar_header_dropdown.c ****     "2020\n2019\n2018\n2017\n2016\n2015\n2014\n2013\n2012\n2011\n2010\n2009\n2008\n2007\n2006\n2005
  49:../../Middlewares/LVGL/GUI/lvgl/src/widgets/calendar/lv_calendar_header_dropdown.c ****     "2000\n1999\n1998\n1997\n1996\n1995\n1994\n1993\n1992\n1991\n1990\n1989\n1988\n1987\n1986\n1985
  50:../../Middlewares/LVGL/GUI/lvgl/src/widgets/calendar/lv_calendar_header_dropdown.c ****     "1980\n1979\n1978\n1977\n1976\n1975\n1974\n1973\n1972\n1971\n1970\n1969\n1968\n1967\n1966\n1965
  51:../../Middlewares/LVGL/GUI/lvgl/src/widgets/calendar/lv_calendar_header_dropdown.c ****     "1960\n1959\n1958\n1957\n1956\n1955\n1954\n1953\n1952\n1951\n1950\n1949\n1948\n1947\n1946\n1945
  52:../../Middlewares/LVGL/GUI/lvgl/src/widgets/calendar/lv_calendar_header_dropdown.c ****     "1940\n1939\n1938\n1937\n1936\n1935\n1934\n1933\n1932\n1931\n1930\n1929\n1928\n1927\n1926\n1925
  53:../../Middlewares/LVGL/GUI/lvgl/src/widgets/calendar/lv_calendar_header_dropdown.c ****     "1920\n1919\n1918\n1917\n1916\n1915\n1914\n1913\n1912\n1911\n1910\n1909\n1908\n1907\n1906\n1905
  54:../../Middlewares/LVGL/GUI/lvgl/src/widgets/calendar/lv_calendar_header_dropdown.c **** };
  55:../../Middlewares/LVGL/GUI/lvgl/src/widgets/calendar/lv_calendar_header_dropdown.c **** 
  56:../../Middlewares/LVGL/GUI/lvgl/src/widgets/calendar/lv_calendar_header_dropdown.c **** /**********************
  57:../../Middlewares/LVGL/GUI/lvgl/src/widgets/calendar/lv_calendar_header_dropdown.c ****  *      MACROS
  58:../../Middlewares/LVGL/GUI/lvgl/src/widgets/calendar/lv_calendar_header_dropdown.c ****  **********************/
  59:../../Middlewares/LVGL/GUI/lvgl/src/widgets/calendar/lv_calendar_header_dropdown.c **** 
  60:../../Middlewares/LVGL/GUI/lvgl/src/widgets/calendar/lv_calendar_header_dropdown.c **** /**********************
  61:../../Middlewares/LVGL/GUI/lvgl/src/widgets/calendar/lv_calendar_header_dropdown.c ****  *   GLOBAL FUNCTIONS
  62:../../Middlewares/LVGL/GUI/lvgl/src/widgets/calendar/lv_calendar_header_dropdown.c ****  **********************/
  63:../../Middlewares/LVGL/GUI/lvgl/src/widgets/calendar/lv_calendar_header_dropdown.c **** 
  64:../../Middlewares/LVGL/GUI/lvgl/src/widgets/calendar/lv_calendar_header_dropdown.c **** lv_obj_t * lv_calendar_add_header_dropdown(lv_obj_t * parent)
  65:../../Middlewares/LVGL/GUI/lvgl/src/widgets/calendar/lv_calendar_header_dropdown.c **** {
  66:../../Middlewares/LVGL/GUI/lvgl/src/widgets/calendar/lv_calendar_header_dropdown.c ****     lv_obj_t * obj = lv_obj_class_create_obj(&lv_calendar_header_dropdown_class, parent);
  67:../../Middlewares/LVGL/GUI/lvgl/src/widgets/calendar/lv_calendar_header_dropdown.c ****     lv_obj_class_init_obj(obj);
  68:../../Middlewares/LVGL/GUI/lvgl/src/widgets/calendar/lv_calendar_header_dropdown.c **** 
  69:../../Middlewares/LVGL/GUI/lvgl/src/widgets/calendar/lv_calendar_header_dropdown.c ****     return obj;
  70:../../Middlewares/LVGL/GUI/lvgl/src/widgets/calendar/lv_calendar_header_dropdown.c **** }
  71:../../Middlewares/LVGL/GUI/lvgl/src/widgets/calendar/lv_calendar_header_dropdown.c **** 
  72:../../Middlewares/LVGL/GUI/lvgl/src/widgets/calendar/lv_calendar_header_dropdown.c **** void lv_calendar_header_dropdown_set_year_list(lv_obj_t * parent, const char * years_list)
  73:../../Middlewares/LVGL/GUI/lvgl/src/widgets/calendar/lv_calendar_header_dropdown.c **** {
  74:../../Middlewares/LVGL/GUI/lvgl/src/widgets/calendar/lv_calendar_header_dropdown.c ****     /* Search for the header dropdown */
  75:../../Middlewares/LVGL/GUI/lvgl/src/widgets/calendar/lv_calendar_header_dropdown.c ****     lv_obj_t * header = lv_obj_get_child_by_type(parent, 0, &lv_calendar_header_dropdown_class);
  76:../../Middlewares/LVGL/GUI/lvgl/src/widgets/calendar/lv_calendar_header_dropdown.c ****     if(NULL == header) {
  77:../../Middlewares/LVGL/GUI/lvgl/src/widgets/calendar/lv_calendar_header_dropdown.c ****         /* Header not found */
  78:../../Middlewares/LVGL/GUI/lvgl/src/widgets/calendar/lv_calendar_header_dropdown.c ****         return;
  79:../../Middlewares/LVGL/GUI/lvgl/src/widgets/calendar/lv_calendar_header_dropdown.c ****     }
  80:../../Middlewares/LVGL/GUI/lvgl/src/widgets/calendar/lv_calendar_header_dropdown.c **** 
  81:../../Middlewares/LVGL/GUI/lvgl/src/widgets/calendar/lv_calendar_header_dropdown.c ****     /* Search for the year dropdown
  82:../../Middlewares/LVGL/GUI/lvgl/src/widgets/calendar/lv_calendar_header_dropdown.c ****      * Index is 0 because in the header dropdown constructor the year dropdown (year_dd)
  83:../../Middlewares/LVGL/GUI/lvgl/src/widgets/calendar/lv_calendar_header_dropdown.c ****      * is the first created child of the header */
  84:../../Middlewares/LVGL/GUI/lvgl/src/widgets/calendar/lv_calendar_header_dropdown.c ****     const int32_t year_dropdown_index = 0;
  85:../../Middlewares/LVGL/GUI/lvgl/src/widgets/calendar/lv_calendar_header_dropdown.c ****     lv_obj_t * year_dropdown = lv_obj_get_child_by_type(header, year_dropdown_index, &lv_dropdown_c
  86:../../Middlewares/LVGL/GUI/lvgl/src/widgets/calendar/lv_calendar_header_dropdown.c ****     if(NULL == year_dropdown) {
  87:../../Middlewares/LVGL/GUI/lvgl/src/widgets/calendar/lv_calendar_header_dropdown.c ****         /* year dropdown not found */
  88:../../Middlewares/LVGL/GUI/lvgl/src/widgets/calendar/lv_calendar_header_dropdown.c ****         return;
  89:../../Middlewares/LVGL/GUI/lvgl/src/widgets/calendar/lv_calendar_header_dropdown.c ****     }
  90:../../Middlewares/LVGL/GUI/lvgl/src/widgets/calendar/lv_calendar_header_dropdown.c **** 
  91:../../Middlewares/LVGL/GUI/lvgl/src/widgets/calendar/lv_calendar_header_dropdown.c ****     lv_dropdown_clear_options(year_dropdown);
  92:../../Middlewares/LVGL/GUI/lvgl/src/widgets/calendar/lv_calendar_header_dropdown.c ****     lv_dropdown_set_options(year_dropdown, years_list);
ARM GAS  C:\Users\28576\AppData\Local\Temp\cc5JojjZ.s 			page 5


  93:../../Middlewares/LVGL/GUI/lvgl/src/widgets/calendar/lv_calendar_header_dropdown.c **** 
  94:../../Middlewares/LVGL/GUI/lvgl/src/widgets/calendar/lv_calendar_header_dropdown.c ****     lv_obj_invalidate(parent);
  95:../../Middlewares/LVGL/GUI/lvgl/src/widgets/calendar/lv_calendar_header_dropdown.c **** }
  96:../../Middlewares/LVGL/GUI/lvgl/src/widgets/calendar/lv_calendar_header_dropdown.c **** 
  97:../../Middlewares/LVGL/GUI/lvgl/src/widgets/calendar/lv_calendar_header_dropdown.c **** /**********************
  98:../../Middlewares/LVGL/GUI/lvgl/src/widgets/calendar/lv_calendar_header_dropdown.c ****  *  STATIC FUNCTIONS
  99:../../Middlewares/LVGL/GUI/lvgl/src/widgets/calendar/lv_calendar_header_dropdown.c ****  **********************/
 100:../../Middlewares/LVGL/GUI/lvgl/src/widgets/calendar/lv_calendar_header_dropdown.c **** 
 101:../../Middlewares/LVGL/GUI/lvgl/src/widgets/calendar/lv_calendar_header_dropdown.c **** static void my_constructor(const lv_obj_class_t * class_p, lv_obj_t * obj)
 102:../../Middlewares/LVGL/GUI/lvgl/src/widgets/calendar/lv_calendar_header_dropdown.c **** {
  55              		.loc 1 102 1 view -0
  56              		.cfi_startproc
  57              		@ args = 0, pretend = 0, frame = 0
  58              		@ frame_needed = 0, uses_anonymous_args = 0
  59              		.loc 1 102 1 is_stmt 0 view .LVU1
  60 0000 70B5     		push	{r4, r5, r6, lr}
  61              	.LCFI0:
  62              		.cfi_def_cfa_offset 16
  63              		.cfi_offset 4, -16
  64              		.cfi_offset 5, -12
  65              		.cfi_offset 6, -8
  66              		.cfi_offset 14, -4
  67 0002 0C46     		mov	r4, r1
 103:../../Middlewares/LVGL/GUI/lvgl/src/widgets/calendar/lv_calendar_header_dropdown.c ****     LV_TRACE_OBJ_CREATE("begin");
  68              		.loc 1 103 33 is_stmt 1 view .LVU2
 104:../../Middlewares/LVGL/GUI/lvgl/src/widgets/calendar/lv_calendar_header_dropdown.c **** 
 105:../../Middlewares/LVGL/GUI/lvgl/src/widgets/calendar/lv_calendar_header_dropdown.c ****     LV_UNUSED(class_p);
  69              		.loc 1 105 5 view .LVU3
 106:../../Middlewares/LVGL/GUI/lvgl/src/widgets/calendar/lv_calendar_header_dropdown.c **** 
 107:../../Middlewares/LVGL/GUI/lvgl/src/widgets/calendar/lv_calendar_header_dropdown.c ****     lv_obj_t * calendar = lv_obj_get_parent(obj);
  70              		.loc 1 107 5 view .LVU4
  71              		.loc 1 107 27 is_stmt 0 view .LVU5
  72 0004 0846     		mov	r0, r1
  73              	.LVL1:
  74              		.loc 1 107 27 view .LVU6
  75 0006 FFF7FEFF 		bl	lv_obj_get_parent
  76              	.LVL2:
  77              		.loc 1 107 27 view .LVU7
  78 000a 0646     		mov	r6, r0
  79              	.LVL3:
 108:../../Middlewares/LVGL/GUI/lvgl/src/widgets/calendar/lv_calendar_header_dropdown.c ****     lv_obj_move_to_index(obj, 0);
  80              		.loc 1 108 5 is_stmt 1 view .LVU8
  81 000c 0021     		movs	r1, #0
  82 000e 2046     		mov	r0, r4
  83              	.LVL4:
  84              		.loc 1 108 5 is_stmt 0 view .LVU9
  85 0010 FFF7FEFF 		bl	lv_obj_move_to_index
  86              	.LVL5:
 109:../../Middlewares/LVGL/GUI/lvgl/src/widgets/calendar/lv_calendar_header_dropdown.c ****     lv_obj_set_flex_flow(obj, LV_FLEX_FLOW_ROW);
  87              		.loc 1 109 5 is_stmt 1 view .LVU10
  88 0014 0021     		movs	r1, #0
  89 0016 2046     		mov	r0, r4
  90 0018 FFF7FEFF 		bl	lv_obj_set_flex_flow
  91              	.LVL6:
 110:../../Middlewares/LVGL/GUI/lvgl/src/widgets/calendar/lv_calendar_header_dropdown.c **** 
 111:../../Middlewares/LVGL/GUI/lvgl/src/widgets/calendar/lv_calendar_header_dropdown.c ****     lv_obj_t * year_dd = lv_dropdown_create(obj);
  92              		.loc 1 111 5 view .LVU11
ARM GAS  C:\Users\28576\AppData\Local\Temp\cc5JojjZ.s 			page 6


  93              		.loc 1 111 26 is_stmt 0 view .LVU12
  94 001c 2046     		mov	r0, r4
  95 001e FFF7FEFF 		bl	lv_dropdown_create
  96              	.LVL7:
  97 0022 0546     		mov	r5, r0
  98              	.LVL8:
 112:../../Middlewares/LVGL/GUI/lvgl/src/widgets/calendar/lv_calendar_header_dropdown.c ****     lv_dropdown_set_options(year_dd, year_list);
  99              		.loc 1 112 5 is_stmt 1 view .LVU13
 100 0024 1449     		ldr	r1, .L3
 101 0026 FFF7FEFF 		bl	lv_dropdown_set_options
 102              	.LVL9:
 113:../../Middlewares/LVGL/GUI/lvgl/src/widgets/calendar/lv_calendar_header_dropdown.c ****     lv_obj_add_event_cb(year_dd, year_event_cb, LV_EVENT_VALUE_CHANGED, calendar);
 103              		.loc 1 113 5 view .LVU14
 104 002a 3346     		mov	r3, r6
 105 002c 2322     		movs	r2, #35
 106 002e 1349     		ldr	r1, .L3+4
 107 0030 2846     		mov	r0, r5
 108 0032 FFF7FEFF 		bl	lv_obj_add_event_cb
 109              	.LVL10:
 114:../../Middlewares/LVGL/GUI/lvgl/src/widgets/calendar/lv_calendar_header_dropdown.c ****     lv_obj_set_flex_grow(year_dd, 1);
 110              		.loc 1 114 5 view .LVU15
 111 0036 0121     		movs	r1, #1
 112 0038 2846     		mov	r0, r5
 113 003a FFF7FEFF 		bl	lv_obj_set_flex_grow
 114              	.LVL11:
 115:../../Middlewares/LVGL/GUI/lvgl/src/widgets/calendar/lv_calendar_header_dropdown.c **** 
 116:../../Middlewares/LVGL/GUI/lvgl/src/widgets/calendar/lv_calendar_header_dropdown.c ****     lv_obj_t * month_dd = lv_dropdown_create(obj);
 115              		.loc 1 116 5 view .LVU16
 116              		.loc 1 116 27 is_stmt 0 view .LVU17
 117 003e 2046     		mov	r0, r4
 118 0040 FFF7FEFF 		bl	lv_dropdown_create
 119              	.LVL12:
 120 0044 0546     		mov	r5, r0
 121              	.LVL13:
 117:../../Middlewares/LVGL/GUI/lvgl/src/widgets/calendar/lv_calendar_header_dropdown.c ****     lv_dropdown_set_options(month_dd, month_list);
 122              		.loc 1 117 5 is_stmt 1 view .LVU18
 123 0046 0E49     		ldr	r1, .L3+8
 124 0048 FFF7FEFF 		bl	lv_dropdown_set_options
 125              	.LVL14:
 118:../../Middlewares/LVGL/GUI/lvgl/src/widgets/calendar/lv_calendar_header_dropdown.c ****     lv_obj_add_event_cb(month_dd, month_event_cb, LV_EVENT_VALUE_CHANGED, calendar);
 126              		.loc 1 118 5 view .LVU19
 127 004c 3346     		mov	r3, r6
 128 004e 2322     		movs	r2, #35
 129 0050 0C49     		ldr	r1, .L3+12
 130 0052 2846     		mov	r0, r5
 131 0054 FFF7FEFF 		bl	lv_obj_add_event_cb
 132              	.LVL15:
 119:../../Middlewares/LVGL/GUI/lvgl/src/widgets/calendar/lv_calendar_header_dropdown.c ****     lv_obj_set_flex_grow(month_dd, 1);
 133              		.loc 1 119 5 view .LVU20
 134 0058 0121     		movs	r1, #1
 135 005a 2846     		mov	r0, r5
 136 005c FFF7FEFF 		bl	lv_obj_set_flex_grow
 137              	.LVL16:
 120:../../Middlewares/LVGL/GUI/lvgl/src/widgets/calendar/lv_calendar_header_dropdown.c **** 
 121:../../Middlewares/LVGL/GUI/lvgl/src/widgets/calendar/lv_calendar_header_dropdown.c ****     lv_obj_add_event_cb(obj, value_changed_event_cb, LV_EVENT_VALUE_CHANGED, NULL);
 138              		.loc 1 121 5 view .LVU21
 139 0060 0023     		movs	r3, #0
ARM GAS  C:\Users\28576\AppData\Local\Temp\cc5JojjZ.s 			page 7


 140 0062 2322     		movs	r2, #35
 141 0064 0849     		ldr	r1, .L3+16
 142 0066 2046     		mov	r0, r4
 143 0068 FFF7FEFF 		bl	lv_obj_add_event_cb
 144              	.LVL17:
 122:../../Middlewares/LVGL/GUI/lvgl/src/widgets/calendar/lv_calendar_header_dropdown.c ****     /*Refresh the drop downs*/
 123:../../Middlewares/LVGL/GUI/lvgl/src/widgets/calendar/lv_calendar_header_dropdown.c ****     lv_obj_send_event(obj, LV_EVENT_VALUE_CHANGED, NULL);
 145              		.loc 1 123 5 view .LVU22
 146 006c 0022     		movs	r2, #0
 147 006e 2321     		movs	r1, #35
 148 0070 2046     		mov	r0, r4
 149 0072 FFF7FEFF 		bl	lv_obj_send_event
 150              	.LVL18:
 124:../../Middlewares/LVGL/GUI/lvgl/src/widgets/calendar/lv_calendar_header_dropdown.c **** }
 151              		.loc 1 124 1 is_stmt 0 view .LVU23
 152 0076 70BD     		pop	{r4, r5, r6, pc}
 153              	.LVL19:
 154              	.L4:
 155              		.loc 1 124 1 view .LVU24
 156              		.align	2
 157              	.L3:
 158 0078 00000000 		.word	.LC0
 159 007c 00000000 		.word	year_event_cb
 160 0080 74020000 		.word	.LC1
 161 0084 00000000 		.word	month_event_cb
 162 0088 00000000 		.word	value_changed_event_cb
 163              		.cfi_endproc
 164              	.LFE174:
 166              		.section	.text.value_changed_event_cb,"ax",%progbits
 167              		.align	1
 168              		.syntax unified
 169              		.thumb
 170              		.thumb_func
 172              	value_changed_event_cb:
 173              	.LVL20:
 174              	.LFB177:
 125:../../Middlewares/LVGL/GUI/lvgl/src/widgets/calendar/lv_calendar_header_dropdown.c **** 
 126:../../Middlewares/LVGL/GUI/lvgl/src/widgets/calendar/lv_calendar_header_dropdown.c **** static void month_event_cb(lv_event_t * e)
 127:../../Middlewares/LVGL/GUI/lvgl/src/widgets/calendar/lv_calendar_header_dropdown.c **** {
 128:../../Middlewares/LVGL/GUI/lvgl/src/widgets/calendar/lv_calendar_header_dropdown.c ****     lv_obj_t * dropdown = lv_event_get_current_target(e);
 129:../../Middlewares/LVGL/GUI/lvgl/src/widgets/calendar/lv_calendar_header_dropdown.c ****     lv_obj_t * calendar = lv_event_get_user_data(e);
 130:../../Middlewares/LVGL/GUI/lvgl/src/widgets/calendar/lv_calendar_header_dropdown.c **** 
 131:../../Middlewares/LVGL/GUI/lvgl/src/widgets/calendar/lv_calendar_header_dropdown.c ****     uint32_t sel = lv_dropdown_get_selected(dropdown);
 132:../../Middlewares/LVGL/GUI/lvgl/src/widgets/calendar/lv_calendar_header_dropdown.c **** 
 133:../../Middlewares/LVGL/GUI/lvgl/src/widgets/calendar/lv_calendar_header_dropdown.c ****     const lv_calendar_date_t * d;
 134:../../Middlewares/LVGL/GUI/lvgl/src/widgets/calendar/lv_calendar_header_dropdown.c ****     d = lv_calendar_get_showed_date(calendar);
 135:../../Middlewares/LVGL/GUI/lvgl/src/widgets/calendar/lv_calendar_header_dropdown.c ****     lv_calendar_date_t newd = *d;
 136:../../Middlewares/LVGL/GUI/lvgl/src/widgets/calendar/lv_calendar_header_dropdown.c ****     newd.month = sel + 1;
 137:../../Middlewares/LVGL/GUI/lvgl/src/widgets/calendar/lv_calendar_header_dropdown.c **** 
 138:../../Middlewares/LVGL/GUI/lvgl/src/widgets/calendar/lv_calendar_header_dropdown.c ****     lv_calendar_set_month_shown(calendar, newd.year, newd.month);
 139:../../Middlewares/LVGL/GUI/lvgl/src/widgets/calendar/lv_calendar_header_dropdown.c **** }
 140:../../Middlewares/LVGL/GUI/lvgl/src/widgets/calendar/lv_calendar_header_dropdown.c **** 
 141:../../Middlewares/LVGL/GUI/lvgl/src/widgets/calendar/lv_calendar_header_dropdown.c **** static void year_event_cb(lv_event_t * e)
 142:../../Middlewares/LVGL/GUI/lvgl/src/widgets/calendar/lv_calendar_header_dropdown.c **** {
 143:../../Middlewares/LVGL/GUI/lvgl/src/widgets/calendar/lv_calendar_header_dropdown.c ****     lv_obj_t * dropdown = lv_event_get_current_target(e);
 144:../../Middlewares/LVGL/GUI/lvgl/src/widgets/calendar/lv_calendar_header_dropdown.c ****     lv_obj_t * calendar = lv_event_get_user_data(e);
 145:../../Middlewares/LVGL/GUI/lvgl/src/widgets/calendar/lv_calendar_header_dropdown.c **** 
ARM GAS  C:\Users\28576\AppData\Local\Temp\cc5JojjZ.s 			page 8


 146:../../Middlewares/LVGL/GUI/lvgl/src/widgets/calendar/lv_calendar_header_dropdown.c ****     uint32_t sel = lv_dropdown_get_selected(dropdown);
 147:../../Middlewares/LVGL/GUI/lvgl/src/widgets/calendar/lv_calendar_header_dropdown.c **** 
 148:../../Middlewares/LVGL/GUI/lvgl/src/widgets/calendar/lv_calendar_header_dropdown.c ****     const char * year_p = lv_dropdown_get_options(dropdown);
 149:../../Middlewares/LVGL/GUI/lvgl/src/widgets/calendar/lv_calendar_header_dropdown.c **** 
 150:../../Middlewares/LVGL/GUI/lvgl/src/widgets/calendar/lv_calendar_header_dropdown.c ****     LV_ASSERT(3 + sel * 5 < lv_strlen(year_p));
 151:../../Middlewares/LVGL/GUI/lvgl/src/widgets/calendar/lv_calendar_header_dropdown.c **** 
 152:../../Middlewares/LVGL/GUI/lvgl/src/widgets/calendar/lv_calendar_header_dropdown.c ****     /* NOTE: Assumes YYYY format */
 153:../../Middlewares/LVGL/GUI/lvgl/src/widgets/calendar/lv_calendar_header_dropdown.c ****     const uint32_t year = (year_p[0 + sel * 5] - '0') * 1000 +
 154:../../Middlewares/LVGL/GUI/lvgl/src/widgets/calendar/lv_calendar_header_dropdown.c ****                           (year_p[1 + sel * 5] - '0') * 100 +
 155:../../Middlewares/LVGL/GUI/lvgl/src/widgets/calendar/lv_calendar_header_dropdown.c ****                           (year_p[2 + sel * 5] - '0') * 10 +
 156:../../Middlewares/LVGL/GUI/lvgl/src/widgets/calendar/lv_calendar_header_dropdown.c ****                           (year_p[3 + sel * 5] - '0');
 157:../../Middlewares/LVGL/GUI/lvgl/src/widgets/calendar/lv_calendar_header_dropdown.c **** 
 158:../../Middlewares/LVGL/GUI/lvgl/src/widgets/calendar/lv_calendar_header_dropdown.c ****     const lv_calendar_date_t * d;
 159:../../Middlewares/LVGL/GUI/lvgl/src/widgets/calendar/lv_calendar_header_dropdown.c ****     d = lv_calendar_get_showed_date(calendar);
 160:../../Middlewares/LVGL/GUI/lvgl/src/widgets/calendar/lv_calendar_header_dropdown.c ****     lv_calendar_date_t newd = *d;
 161:../../Middlewares/LVGL/GUI/lvgl/src/widgets/calendar/lv_calendar_header_dropdown.c ****     newd.year = year;
 162:../../Middlewares/LVGL/GUI/lvgl/src/widgets/calendar/lv_calendar_header_dropdown.c **** 
 163:../../Middlewares/LVGL/GUI/lvgl/src/widgets/calendar/lv_calendar_header_dropdown.c ****     lv_calendar_set_month_shown(calendar, newd.year, newd.month);
 164:../../Middlewares/LVGL/GUI/lvgl/src/widgets/calendar/lv_calendar_header_dropdown.c **** }
 165:../../Middlewares/LVGL/GUI/lvgl/src/widgets/calendar/lv_calendar_header_dropdown.c **** 
 166:../../Middlewares/LVGL/GUI/lvgl/src/widgets/calendar/lv_calendar_header_dropdown.c **** static void value_changed_event_cb(lv_event_t * e)
 167:../../Middlewares/LVGL/GUI/lvgl/src/widgets/calendar/lv_calendar_header_dropdown.c **** {
 175              		.loc 1 167 1 is_stmt 1 view -0
 176              		.cfi_startproc
 177              		@ args = 0, pretend = 0, frame = 0
 178              		@ frame_needed = 0, uses_anonymous_args = 0
 179              		.loc 1 167 1 is_stmt 0 view .LVU26
 180 0000 70B5     		push	{r4, r5, r6, lr}
 181              	.LCFI1:
 182              		.cfi_def_cfa_offset 16
 183              		.cfi_offset 4, -16
 184              		.cfi_offset 5, -12
 185              		.cfi_offset 6, -8
 186              		.cfi_offset 14, -4
 168:../../Middlewares/LVGL/GUI/lvgl/src/widgets/calendar/lv_calendar_header_dropdown.c ****     lv_obj_t * header = lv_event_get_current_target(e);
 187              		.loc 1 168 5 is_stmt 1 view .LVU27
 188              		.loc 1 168 25 is_stmt 0 view .LVU28
 189 0002 FFF7FEFF 		bl	lv_event_get_current_target
 190              	.LVL21:
 191              		.loc 1 168 25 view .LVU29
 192 0006 0646     		mov	r6, r0
 193              	.LVL22:
 169:../../Middlewares/LVGL/GUI/lvgl/src/widgets/calendar/lv_calendar_header_dropdown.c ****     lv_obj_t * calendar = lv_obj_get_parent(header);
 194              		.loc 1 169 5 is_stmt 1 view .LVU30
 195              		.loc 1 169 27 is_stmt 0 view .LVU31
 196 0008 FFF7FEFF 		bl	lv_obj_get_parent
 197              	.LVL23:
 170:../../Middlewares/LVGL/GUI/lvgl/src/widgets/calendar/lv_calendar_header_dropdown.c ****     const lv_calendar_date_t * cur_date = lv_calendar_get_showed_date(calendar);
 198              		.loc 1 170 5 is_stmt 1 view .LVU32
 199              		.loc 1 170 43 is_stmt 0 view .LVU33
 200 000c FFF7FEFF 		bl	lv_calendar_get_showed_date
 201              	.LVL24:
 202              		.loc 1 170 43 view .LVU34
 203 0010 0446     		mov	r4, r0
 204              	.LVL25:
 171:../../Middlewares/LVGL/GUI/lvgl/src/widgets/calendar/lv_calendar_header_dropdown.c ****     lv_obj_t * year_dd = lv_obj_get_child(header, 0);
 205              		.loc 1 171 5 is_stmt 1 view .LVU35
ARM GAS  C:\Users\28576\AppData\Local\Temp\cc5JojjZ.s 			page 9


 206              		.loc 1 171 26 is_stmt 0 view .LVU36
 207 0012 0021     		movs	r1, #0
 208 0014 3046     		mov	r0, r6
 209              	.LVL26:
 210              		.loc 1 171 26 view .LVU37
 211 0016 FFF7FEFF 		bl	lv_obj_get_child
 212              	.LVL27:
 213 001a 0546     		mov	r5, r0
 214              	.LVL28:
 172:../../Middlewares/LVGL/GUI/lvgl/src/widgets/calendar/lv_calendar_header_dropdown.c ****     lv_obj_t * month_dd = lv_obj_get_child(header, 1);
 215              		.loc 1 172 5 is_stmt 1 view .LVU38
 216              		.loc 1 172 27 is_stmt 0 view .LVU39
 217 001c 0121     		movs	r1, #1
 218 001e 3046     		mov	r0, r6
 219              	.LVL29:
 220              		.loc 1 172 27 view .LVU40
 221 0020 FFF7FEFF 		bl	lv_obj_get_child
 222              	.LVL30:
 223 0024 0646     		mov	r6, r0
 224              	.LVL31:
 173:../../Middlewares/LVGL/GUI/lvgl/src/widgets/calendar/lv_calendar_header_dropdown.c ****     const char * year_p = lv_dropdown_get_options(year_dd);
 225              		.loc 1 173 5 is_stmt 1 view .LVU41
 226              		.loc 1 173 27 is_stmt 0 view .LVU42
 227 0026 2846     		mov	r0, r5
 228              	.LVL32:
 229              		.loc 1 173 27 view .LVU43
 230 0028 FFF7FEFF 		bl	lv_dropdown_get_options
 231              	.LVL33:
 174:../../Middlewares/LVGL/GUI/lvgl/src/widgets/calendar/lv_calendar_header_dropdown.c ****     /* NOTE: Assumes YYYY format */
 175:../../Middlewares/LVGL/GUI/lvgl/src/widgets/calendar/lv_calendar_header_dropdown.c ****     const int32_t first_year = (year_p[0] - '0') * 1000 +
 232              		.loc 1 175 5 is_stmt 1 view .LVU44
 233              		.loc 1 175 39 is_stmt 0 view .LVU45
 234 002c 0378     		ldrb	r3, [r0]	@ zero_extendqisi2
 235              		.loc 1 175 43 view .LVU46
 236 002e 303B     		subs	r3, r3, #48
 176:../../Middlewares/LVGL/GUI/lvgl/src/widgets/calendar/lv_calendar_header_dropdown.c ****                                (year_p[1] - '0') * 100 +
 237              		.loc 1 176 39 view .LVU47
 238 0030 4178     		ldrb	r1, [r0, #1]	@ zero_extendqisi2
 239              		.loc 1 176 43 view .LVU48
 240 0032 3039     		subs	r1, r1, #48
 241              		.loc 1 176 50 view .LVU49
 242 0034 6422     		movs	r2, #100
 243 0036 02FB01F1 		mul	r1, r2, r1
 175:../../Middlewares/LVGL/GUI/lvgl/src/widgets/calendar/lv_calendar_header_dropdown.c ****                                (year_p[1] - '0') * 100 +
 244              		.loc 1 175 57 view .LVU50
 245 003a 4FF47A72 		mov	r2, #1000
 246 003e 02FB0311 		mla	r1, r2, r3, r1
 177:../../Middlewares/LVGL/GUI/lvgl/src/widgets/calendar/lv_calendar_header_dropdown.c ****                                (year_p[2] - '0') * 10 + (year_p[3] - '0');
 247              		.loc 1 177 39 view .LVU51
 248 0042 8378     		ldrb	r3, [r0, #2]	@ zero_extendqisi2
 249              		.loc 1 177 43 view .LVU52
 250 0044 303B     		subs	r3, r3, #48
 251              		.loc 1 177 50 view .LVU53
 252 0046 03EB8303 		add	r3, r3, r3, lsl #2
 176:../../Middlewares/LVGL/GUI/lvgl/src/widgets/calendar/lv_calendar_header_dropdown.c ****                                (year_p[1] - '0') * 100 +
 253              		.loc 1 176 56 view .LVU54
 254 004a 01EB4301 		add	r1, r1, r3, lsl #1
ARM GAS  C:\Users\28576\AppData\Local\Temp\cc5JojjZ.s 			page 10


 255              		.loc 1 177 64 view .LVU55
 256 004e C378     		ldrb	r3, [r0, #3]	@ zero_extendqisi2
 257              		.loc 1 177 68 view .LVU56
 258 0050 303B     		subs	r3, r3, #48
 175:../../Middlewares/LVGL/GUI/lvgl/src/widgets/calendar/lv_calendar_header_dropdown.c ****                                (year_p[1] - '0') * 100 +
 259              		.loc 1 175 19 view .LVU57
 260 0052 1944     		add	r1, r1, r3
 261              	.LVL34:
 178:../../Middlewares/LVGL/GUI/lvgl/src/widgets/calendar/lv_calendar_header_dropdown.c ****     lv_dropdown_set_selected(year_dd, LV_ABS(first_year - cur_date->year));
 262              		.loc 1 178 5 is_stmt 1 view .LVU58
 263              		.loc 1 178 39 is_stmt 0 view .LVU59
 264 0054 2388     		ldrh	r3, [r4]
 265 0056 C91A     		subs	r1, r1, r3
 266              	.LVL35:
 267              		.loc 1 178 5 view .LVU60
 268 0058 0029     		cmp	r1, #0
 269 005a B8BF     		it	lt
 270 005c 4942     		rsblt	r1, r1, #0
 271 005e 2846     		mov	r0, r5
 272              	.LVL36:
 273              		.loc 1 178 5 view .LVU61
 274 0060 FFF7FEFF 		bl	lv_dropdown_set_selected
 275              	.LVL37:
 179:../../Middlewares/LVGL/GUI/lvgl/src/widgets/calendar/lv_calendar_header_dropdown.c ****     lv_dropdown_set_selected(month_dd, cur_date->month - 1);
 276              		.loc 1 179 5 is_stmt 1 view .LVU62
 277              		.loc 1 179 48 is_stmt 0 view .LVU63
 278 0064 94F90210 		ldrsb	r1, [r4, #2]
 279              		.loc 1 179 5 view .LVU64
 280 0068 0139     		subs	r1, r1, #1
 281 006a 3046     		mov	r0, r6
 282 006c FFF7FEFF 		bl	lv_dropdown_set_selected
 283              	.LVL38:
 180:../../Middlewares/LVGL/GUI/lvgl/src/widgets/calendar/lv_calendar_header_dropdown.c **** }
 284              		.loc 1 180 1 view .LVU65
 285 0070 70BD     		pop	{r4, r5, r6, pc}
 286              		.loc 1 180 1 view .LVU66
 287              		.cfi_endproc
 288              	.LFE177:
 290              		.section	.text.month_event_cb,"ax",%progbits
 291              		.align	1
 292              		.syntax unified
 293              		.thumb
 294              		.thumb_func
 296              	month_event_cb:
 297              	.LVL39:
 298              	.LFB175:
 127:../../Middlewares/LVGL/GUI/lvgl/src/widgets/calendar/lv_calendar_header_dropdown.c ****     lv_obj_t * dropdown = lv_event_get_current_target(e);
 299              		.loc 1 127 1 is_stmt 1 view -0
 300              		.cfi_startproc
 301              		@ args = 0, pretend = 0, frame = 8
 302              		@ frame_needed = 0, uses_anonymous_args = 0
 127:../../Middlewares/LVGL/GUI/lvgl/src/widgets/calendar/lv_calendar_header_dropdown.c ****     lv_obj_t * dropdown = lv_event_get_current_target(e);
 303              		.loc 1 127 1 is_stmt 0 view .LVU68
 304 0000 30B5     		push	{r4, r5, lr}
 305              	.LCFI2:
 306              		.cfi_def_cfa_offset 12
 307              		.cfi_offset 4, -12
ARM GAS  C:\Users\28576\AppData\Local\Temp\cc5JojjZ.s 			page 11


 308              		.cfi_offset 5, -8
 309              		.cfi_offset 14, -4
 310 0002 83B0     		sub	sp, sp, #12
 311              	.LCFI3:
 312              		.cfi_def_cfa_offset 24
 313 0004 0446     		mov	r4, r0
 128:../../Middlewares/LVGL/GUI/lvgl/src/widgets/calendar/lv_calendar_header_dropdown.c ****     lv_obj_t * calendar = lv_event_get_user_data(e);
 314              		.loc 1 128 5 is_stmt 1 view .LVU69
 128:../../Middlewares/LVGL/GUI/lvgl/src/widgets/calendar/lv_calendar_header_dropdown.c ****     lv_obj_t * calendar = lv_event_get_user_data(e);
 315              		.loc 1 128 27 is_stmt 0 view .LVU70
 316 0006 FFF7FEFF 		bl	lv_event_get_current_target
 317              	.LVL40:
 128:../../Middlewares/LVGL/GUI/lvgl/src/widgets/calendar/lv_calendar_header_dropdown.c ****     lv_obj_t * calendar = lv_event_get_user_data(e);
 318              		.loc 1 128 27 view .LVU71
 319 000a 0546     		mov	r5, r0
 320              	.LVL41:
 129:../../Middlewares/LVGL/GUI/lvgl/src/widgets/calendar/lv_calendar_header_dropdown.c **** 
 321              		.loc 1 129 5 is_stmt 1 view .LVU72
 129:../../Middlewares/LVGL/GUI/lvgl/src/widgets/calendar/lv_calendar_header_dropdown.c **** 
 322              		.loc 1 129 27 is_stmt 0 view .LVU73
 323 000c 2046     		mov	r0, r4
 324              	.LVL42:
 129:../../Middlewares/LVGL/GUI/lvgl/src/widgets/calendar/lv_calendar_header_dropdown.c **** 
 325              		.loc 1 129 27 view .LVU74
 326 000e FFF7FEFF 		bl	lv_event_get_user_data
 327              	.LVL43:
 328 0012 0446     		mov	r4, r0
 329              	.LVL44:
 131:../../Middlewares/LVGL/GUI/lvgl/src/widgets/calendar/lv_calendar_header_dropdown.c **** 
 330              		.loc 1 131 5 is_stmt 1 view .LVU75
 131:../../Middlewares/LVGL/GUI/lvgl/src/widgets/calendar/lv_calendar_header_dropdown.c **** 
 331              		.loc 1 131 20 is_stmt 0 view .LVU76
 332 0014 2846     		mov	r0, r5
 333              	.LVL45:
 131:../../Middlewares/LVGL/GUI/lvgl/src/widgets/calendar/lv_calendar_header_dropdown.c **** 
 334              		.loc 1 131 20 view .LVU77
 335 0016 FFF7FEFF 		bl	lv_dropdown_get_selected
 336              	.LVL46:
 337 001a 0546     		mov	r5, r0
 338              	.LVL47:
 133:../../Middlewares/LVGL/GUI/lvgl/src/widgets/calendar/lv_calendar_header_dropdown.c ****     d = lv_calendar_get_showed_date(calendar);
 339              		.loc 1 133 5 is_stmt 1 view .LVU78
 134:../../Middlewares/LVGL/GUI/lvgl/src/widgets/calendar/lv_calendar_header_dropdown.c ****     lv_calendar_date_t newd = *d;
 340              		.loc 1 134 5 view .LVU79
 134:../../Middlewares/LVGL/GUI/lvgl/src/widgets/calendar/lv_calendar_header_dropdown.c ****     lv_calendar_date_t newd = *d;
 341              		.loc 1 134 9 is_stmt 0 view .LVU80
 342 001c 2046     		mov	r0, r4
 343              	.LVL48:
 134:../../Middlewares/LVGL/GUI/lvgl/src/widgets/calendar/lv_calendar_header_dropdown.c ****     lv_calendar_date_t newd = *d;
 344              		.loc 1 134 9 view .LVU81
 345 001e FFF7FEFF 		bl	lv_calendar_get_showed_date
 346              	.LVL49:
 135:../../Middlewares/LVGL/GUI/lvgl/src/widgets/calendar/lv_calendar_header_dropdown.c ****     newd.month = sel + 1;
 347              		.loc 1 135 5 is_stmt 1 view .LVU82
 135:../../Middlewares/LVGL/GUI/lvgl/src/widgets/calendar/lv_calendar_header_dropdown.c ****     newd.month = sel + 1;
 348              		.loc 1 135 24 is_stmt 0 view .LVU83
 349 0022 0068     		ldr	r0, [r0]	@ unaligned
ARM GAS  C:\Users\28576\AppData\Local\Temp\cc5JojjZ.s 			page 12


 350              	.LVL50:
 135:../../Middlewares/LVGL/GUI/lvgl/src/widgets/calendar/lv_calendar_header_dropdown.c ****     newd.month = sel + 1;
 351              		.loc 1 135 24 view .LVU84
 352 0024 0190     		str	r0, [sp, #4]
 136:../../Middlewares/LVGL/GUI/lvgl/src/widgets/calendar/lv_calendar_header_dropdown.c **** 
 353              		.loc 1 136 5 is_stmt 1 view .LVU85
 136:../../Middlewares/LVGL/GUI/lvgl/src/widgets/calendar/lv_calendar_header_dropdown.c **** 
 354              		.loc 1 136 22 is_stmt 0 view .LVU86
 355 0026 2A46     		mov	r2, r5
 356 0028 0132     		adds	r2, r2, #1
 357 002a 52B2     		sxtb	r2, r2
 136:../../Middlewares/LVGL/GUI/lvgl/src/widgets/calendar/lv_calendar_header_dropdown.c **** 
 358              		.loc 1 136 16 view .LVU87
 359 002c 8DF80620 		strb	r2, [sp, #6]
 138:../../Middlewares/LVGL/GUI/lvgl/src/widgets/calendar/lv_calendar_header_dropdown.c **** }
 360              		.loc 1 138 5 is_stmt 1 view .LVU88
 361 0030 BDF80410 		ldrh	r1, [sp, #4]
 362 0034 2046     		mov	r0, r4
 363 0036 FFF7FEFF 		bl	lv_calendar_set_month_shown
 364              	.LVL51:
 139:../../Middlewares/LVGL/GUI/lvgl/src/widgets/calendar/lv_calendar_header_dropdown.c **** 
 365              		.loc 1 139 1 is_stmt 0 view .LVU89
 366 003a 03B0     		add	sp, sp, #12
 367              	.LCFI4:
 368              		.cfi_def_cfa_offset 12
 369              		@ sp needed
 370 003c 30BD     		pop	{r4, r5, pc}
 139:../../Middlewares/LVGL/GUI/lvgl/src/widgets/calendar/lv_calendar_header_dropdown.c **** 
 371              		.loc 1 139 1 view .LVU90
 372              		.cfi_endproc
 373              	.LFE175:
 375              		.section	.text.year_event_cb,"ax",%progbits
 376              		.align	1
 377              		.syntax unified
 378              		.thumb
 379              		.thumb_func
 381              	year_event_cb:
 382              	.LVL52:
 383              	.LFB176:
 142:../../Middlewares/LVGL/GUI/lvgl/src/widgets/calendar/lv_calendar_header_dropdown.c ****     lv_obj_t * dropdown = lv_event_get_current_target(e);
 384              		.loc 1 142 1 is_stmt 1 view -0
 385              		.cfi_startproc
 386              		@ args = 0, pretend = 0, frame = 8
 387              		@ frame_needed = 0, uses_anonymous_args = 0
 142:../../Middlewares/LVGL/GUI/lvgl/src/widgets/calendar/lv_calendar_header_dropdown.c ****     lv_obj_t * dropdown = lv_event_get_current_target(e);
 388              		.loc 1 142 1 is_stmt 0 view .LVU92
 389 0000 F0B5     		push	{r4, r5, r6, r7, lr}
 390              	.LCFI5:
 391              		.cfi_def_cfa_offset 20
 392              		.cfi_offset 4, -20
 393              		.cfi_offset 5, -16
 394              		.cfi_offset 6, -12
 395              		.cfi_offset 7, -8
 396              		.cfi_offset 14, -4
 397 0002 83B0     		sub	sp, sp, #12
 398              	.LCFI6:
 399              		.cfi_def_cfa_offset 32
ARM GAS  C:\Users\28576\AppData\Local\Temp\cc5JojjZ.s 			page 13


 400 0004 0446     		mov	r4, r0
 143:../../Middlewares/LVGL/GUI/lvgl/src/widgets/calendar/lv_calendar_header_dropdown.c ****     lv_obj_t * calendar = lv_event_get_user_data(e);
 401              		.loc 1 143 5 is_stmt 1 view .LVU93
 143:../../Middlewares/LVGL/GUI/lvgl/src/widgets/calendar/lv_calendar_header_dropdown.c ****     lv_obj_t * calendar = lv_event_get_user_data(e);
 402              		.loc 1 143 27 is_stmt 0 view .LVU94
 403 0006 FFF7FEFF 		bl	lv_event_get_current_target
 404              	.LVL53:
 143:../../Middlewares/LVGL/GUI/lvgl/src/widgets/calendar/lv_calendar_header_dropdown.c ****     lv_obj_t * calendar = lv_event_get_user_data(e);
 405              		.loc 1 143 27 view .LVU95
 406 000a 0546     		mov	r5, r0
 407              	.LVL54:
 144:../../Middlewares/LVGL/GUI/lvgl/src/widgets/calendar/lv_calendar_header_dropdown.c **** 
 408              		.loc 1 144 5 is_stmt 1 view .LVU96
 144:../../Middlewares/LVGL/GUI/lvgl/src/widgets/calendar/lv_calendar_header_dropdown.c **** 
 409              		.loc 1 144 27 is_stmt 0 view .LVU97
 410 000c 2046     		mov	r0, r4
 411              	.LVL55:
 144:../../Middlewares/LVGL/GUI/lvgl/src/widgets/calendar/lv_calendar_header_dropdown.c **** 
 412              		.loc 1 144 27 view .LVU98
 413 000e FFF7FEFF 		bl	lv_event_get_user_data
 414              	.LVL56:
 415 0012 0746     		mov	r7, r0
 416              	.LVL57:
 146:../../Middlewares/LVGL/GUI/lvgl/src/widgets/calendar/lv_calendar_header_dropdown.c **** 
 417              		.loc 1 146 5 is_stmt 1 view .LVU99
 146:../../Middlewares/LVGL/GUI/lvgl/src/widgets/calendar/lv_calendar_header_dropdown.c **** 
 418              		.loc 1 146 20 is_stmt 0 view .LVU100
 419 0014 2846     		mov	r0, r5
 420              	.LVL58:
 146:../../Middlewares/LVGL/GUI/lvgl/src/widgets/calendar/lv_calendar_header_dropdown.c **** 
 421              		.loc 1 146 20 view .LVU101
 422 0016 FFF7FEFF 		bl	lv_dropdown_get_selected
 423              	.LVL59:
 424 001a 0446     		mov	r4, r0
 425              	.LVL60:
 148:../../Middlewares/LVGL/GUI/lvgl/src/widgets/calendar/lv_calendar_header_dropdown.c **** 
 426              		.loc 1 148 5 is_stmt 1 view .LVU102
 148:../../Middlewares/LVGL/GUI/lvgl/src/widgets/calendar/lv_calendar_header_dropdown.c **** 
 427              		.loc 1 148 27 is_stmt 0 view .LVU103
 428 001c 2846     		mov	r0, r5
 429              	.LVL61:
 148:../../Middlewares/LVGL/GUI/lvgl/src/widgets/calendar/lv_calendar_header_dropdown.c **** 
 430              		.loc 1 148 27 view .LVU104
 431 001e FFF7FEFF 		bl	lv_dropdown_get_options
 432              	.LVL62:
 433 0022 0546     		mov	r5, r0
 434              	.LVL63:
 150:../../Middlewares/LVGL/GUI/lvgl/src/widgets/calendar/lv_calendar_header_dropdown.c **** 
 435              		.loc 1 150 5 is_stmt 1 view .LVU105
 150:../../Middlewares/LVGL/GUI/lvgl/src/widgets/calendar/lv_calendar_header_dropdown.c **** 
 436              		.loc 1 150 5 view .LVU106
 437 0024 04EB8404 		add	r4, r4, r4, lsl #2
 438              	.LVL64:
 150:../../Middlewares/LVGL/GUI/lvgl/src/widgets/calendar/lv_calendar_header_dropdown.c **** 
 439              		.loc 1 150 5 is_stmt 0 view .LVU107
 440 0028 E61C     		adds	r6, r4, #3
 441 002a FFF7FEFF 		bl	lv_strlen
ARM GAS  C:\Users\28576\AppData\Local\Temp\cc5JojjZ.s 			page 14


 442              	.LVL65:
 150:../../Middlewares/LVGL/GUI/lvgl/src/widgets/calendar/lv_calendar_header_dropdown.c **** 
 443              		.loc 1 150 5 discriminator 1 view .LVU108
 444 002e 8642     		cmp	r6, r0
 445 0030 00D3     		bcc	.L10
 446              	.L11:
 150:../../Middlewares/LVGL/GUI/lvgl/src/widgets/calendar/lv_calendar_header_dropdown.c **** 
 447              		.loc 1 150 5 is_stmt 1 view .LVU109
 150:../../Middlewares/LVGL/GUI/lvgl/src/widgets/calendar/lv_calendar_header_dropdown.c **** 
 448              		.loc 1 150 5 view .LVU110
 150:../../Middlewares/LVGL/GUI/lvgl/src/widgets/calendar/lv_calendar_header_dropdown.c **** 
 449              		.loc 1 150 5 view .LVU111
 150:../../Middlewares/LVGL/GUI/lvgl/src/widgets/calendar/lv_calendar_header_dropdown.c **** 
 450              		.loc 1 150 5 view .LVU112
 150:../../Middlewares/LVGL/GUI/lvgl/src/widgets/calendar/lv_calendar_header_dropdown.c **** 
 451              		.loc 1 150 5 view .LVU113
 452 0032 FEE7     		b	.L11
 453              	.L10:
 150:../../Middlewares/LVGL/GUI/lvgl/src/widgets/calendar/lv_calendar_header_dropdown.c **** 
 454              		.loc 1 150 5 view .LVU114
 153:../../Middlewares/LVGL/GUI/lvgl/src/widgets/calendar/lv_calendar_header_dropdown.c ****                           (year_p[1 + sel * 5] - '0') * 100 +
 455              		.loc 1 153 5 view .LVU115
 153:../../Middlewares/LVGL/GUI/lvgl/src/widgets/calendar/lv_calendar_header_dropdown.c ****                           (year_p[1 + sel * 5] - '0') * 100 +
 456              		.loc 1 153 34 is_stmt 0 view .LVU116
 457 0034 2A5D     		ldrb	r2, [r5, r4]	@ zero_extendqisi2
 153:../../Middlewares/LVGL/GUI/lvgl/src/widgets/calendar/lv_calendar_header_dropdown.c ****                           (year_p[1 + sel * 5] - '0') * 100 +
 458              		.loc 1 153 48 view .LVU117
 459 0036 303A     		subs	r2, r2, #48
 154:../../Middlewares/LVGL/GUI/lvgl/src/widgets/calendar/lv_calendar_header_dropdown.c ****                           (year_p[2 + sel * 5] - '0') * 10 +
 460              		.loc 1 154 37 view .LVU118
 461 0038 631C     		adds	r3, r4, #1
 154:../../Middlewares/LVGL/GUI/lvgl/src/widgets/calendar/lv_calendar_header_dropdown.c ****                           (year_p[2 + sel * 5] - '0') * 10 +
 462              		.loc 1 154 34 view .LVU119
 463 003a EB5C     		ldrb	r3, [r5, r3]	@ zero_extendqisi2
 154:../../Middlewares/LVGL/GUI/lvgl/src/widgets/calendar/lv_calendar_header_dropdown.c ****                           (year_p[2 + sel * 5] - '0') * 10 +
 464              		.loc 1 154 48 view .LVU120
 465 003c 303B     		subs	r3, r3, #48
 154:../../Middlewares/LVGL/GUI/lvgl/src/widgets/calendar/lv_calendar_header_dropdown.c ****                           (year_p[2 + sel * 5] - '0') * 10 +
 466              		.loc 1 154 55 view .LVU121
 467 003e 6421     		movs	r1, #100
 468 0040 01FB03F3 		mul	r3, r1, r3
 153:../../Middlewares/LVGL/GUI/lvgl/src/widgets/calendar/lv_calendar_header_dropdown.c ****                           (year_p[1 + sel * 5] - '0') * 100 +
 469              		.loc 1 153 62 view .LVU122
 470 0044 4FF47A71 		mov	r1, #1000
 471 0048 01FB0233 		mla	r3, r1, r2, r3
 155:../../Middlewares/LVGL/GUI/lvgl/src/widgets/calendar/lv_calendar_header_dropdown.c ****                           (year_p[3 + sel * 5] - '0');
 472              		.loc 1 155 37 view .LVU123
 473 004c 0234     		adds	r4, r4, #2
 155:../../Middlewares/LVGL/GUI/lvgl/src/widgets/calendar/lv_calendar_header_dropdown.c ****                           (year_p[3 + sel * 5] - '0');
 474              		.loc 1 155 34 view .LVU124
 475 004e 2A5D     		ldrb	r2, [r5, r4]	@ zero_extendqisi2
 155:../../Middlewares/LVGL/GUI/lvgl/src/widgets/calendar/lv_calendar_header_dropdown.c ****                           (year_p[3 + sel * 5] - '0');
 476              		.loc 1 155 48 view .LVU125
 477 0050 303A     		subs	r2, r2, #48
 155:../../Middlewares/LVGL/GUI/lvgl/src/widgets/calendar/lv_calendar_header_dropdown.c ****                           (year_p[3 + sel * 5] - '0');
 478              		.loc 1 155 55 view .LVU126
 479 0052 02EB8202 		add	r2, r2, r2, lsl #2
ARM GAS  C:\Users\28576\AppData\Local\Temp\cc5JojjZ.s 			page 15


 154:../../Middlewares/LVGL/GUI/lvgl/src/widgets/calendar/lv_calendar_header_dropdown.c ****                           (year_p[2 + sel * 5] - '0') * 10 +
 480              		.loc 1 154 61 view .LVU127
 481 0056 03EB4204 		add	r4, r3, r2, lsl #1
 156:../../Middlewares/LVGL/GUI/lvgl/src/widgets/calendar/lv_calendar_header_dropdown.c **** 
 482              		.loc 1 156 34 view .LVU128
 483 005a AB5D     		ldrb	r3, [r5, r6]	@ zero_extendqisi2
 156:../../Middlewares/LVGL/GUI/lvgl/src/widgets/calendar/lv_calendar_header_dropdown.c **** 
 484              		.loc 1 156 48 view .LVU129
 485 005c 303B     		subs	r3, r3, #48
 155:../../Middlewares/LVGL/GUI/lvgl/src/widgets/calendar/lv_calendar_header_dropdown.c ****                           (year_p[3 + sel * 5] - '0');
 486              		.loc 1 155 60 view .LVU130
 487 005e 1C44     		add	r4, r4, r3
 488              	.LVL66:
 158:../../Middlewares/LVGL/GUI/lvgl/src/widgets/calendar/lv_calendar_header_dropdown.c ****     d = lv_calendar_get_showed_date(calendar);
 489              		.loc 1 158 5 is_stmt 1 view .LVU131
 159:../../Middlewares/LVGL/GUI/lvgl/src/widgets/calendar/lv_calendar_header_dropdown.c ****     lv_calendar_date_t newd = *d;
 490              		.loc 1 159 5 view .LVU132
 159:../../Middlewares/LVGL/GUI/lvgl/src/widgets/calendar/lv_calendar_header_dropdown.c ****     lv_calendar_date_t newd = *d;
 491              		.loc 1 159 9 is_stmt 0 view .LVU133
 492 0060 3846     		mov	r0, r7
 493 0062 FFF7FEFF 		bl	lv_calendar_get_showed_date
 494              	.LVL67:
 160:../../Middlewares/LVGL/GUI/lvgl/src/widgets/calendar/lv_calendar_header_dropdown.c ****     newd.year = year;
 495              		.loc 1 160 5 is_stmt 1 view .LVU134
 160:../../Middlewares/LVGL/GUI/lvgl/src/widgets/calendar/lv_calendar_header_dropdown.c ****     newd.year = year;
 496              		.loc 1 160 24 is_stmt 0 view .LVU135
 497 0066 0068     		ldr	r0, [r0]	@ unaligned
 498              	.LVL68:
 160:../../Middlewares/LVGL/GUI/lvgl/src/widgets/calendar/lv_calendar_header_dropdown.c ****     newd.year = year;
 499              		.loc 1 160 24 view .LVU136
 500 0068 0190     		str	r0, [sp, #4]
 161:../../Middlewares/LVGL/GUI/lvgl/src/widgets/calendar/lv_calendar_header_dropdown.c **** 
 501              		.loc 1 161 5 is_stmt 1 view .LVU137
 161:../../Middlewares/LVGL/GUI/lvgl/src/widgets/calendar/lv_calendar_header_dropdown.c **** 
 502              		.loc 1 161 15 is_stmt 0 view .LVU138
 503 006a ADF80440 		strh	r4, [sp, #4]	@ movhi
 163:../../Middlewares/LVGL/GUI/lvgl/src/widgets/calendar/lv_calendar_header_dropdown.c **** }
 504              		.loc 1 163 5 is_stmt 1 view .LVU139
 505 006e 9DF90620 		ldrsb	r2, [sp, #6]
 506 0072 A1B2     		uxth	r1, r4
 507 0074 3846     		mov	r0, r7
 508 0076 FFF7FEFF 		bl	lv_calendar_set_month_shown
 509              	.LVL69:
 164:../../Middlewares/LVGL/GUI/lvgl/src/widgets/calendar/lv_calendar_header_dropdown.c **** 
 510              		.loc 1 164 1 is_stmt 0 view .LVU140
 511 007a 03B0     		add	sp, sp, #12
 512              	.LCFI7:
 513              		.cfi_def_cfa_offset 20
 514              		@ sp needed
 515 007c F0BD     		pop	{r4, r5, r6, r7, pc}
 164:../../Middlewares/LVGL/GUI/lvgl/src/widgets/calendar/lv_calendar_header_dropdown.c **** 
 516              		.loc 1 164 1 view .LVU141
 517              		.cfi_endproc
 518              	.LFE176:
 520              		.section	.text.lv_calendar_add_header_dropdown,"ax",%progbits
 521              		.align	1
 522              		.global	lv_calendar_add_header_dropdown
ARM GAS  C:\Users\28576\AppData\Local\Temp\cc5JojjZ.s 			page 16


 523              		.syntax unified
 524              		.thumb
 525              		.thumb_func
 527              	lv_calendar_add_header_dropdown:
 528              	.LVL70:
 529              	.LFB172:
  65:../../Middlewares/LVGL/GUI/lvgl/src/widgets/calendar/lv_calendar_header_dropdown.c ****     lv_obj_t * obj = lv_obj_class_create_obj(&lv_calendar_header_dropdown_class, parent);
 530              		.loc 1 65 1 is_stmt 1 view -0
 531              		.cfi_startproc
 532              		@ args = 0, pretend = 0, frame = 0
 533              		@ frame_needed = 0, uses_anonymous_args = 0
  65:../../Middlewares/LVGL/GUI/lvgl/src/widgets/calendar/lv_calendar_header_dropdown.c ****     lv_obj_t * obj = lv_obj_class_create_obj(&lv_calendar_header_dropdown_class, parent);
 534              		.loc 1 65 1 is_stmt 0 view .LVU143
 535 0000 10B5     		push	{r4, lr}
 536              	.LCFI8:
 537              		.cfi_def_cfa_offset 8
 538              		.cfi_offset 4, -8
 539              		.cfi_offset 14, -4
 540 0002 0146     		mov	r1, r0
  66:../../Middlewares/LVGL/GUI/lvgl/src/widgets/calendar/lv_calendar_header_dropdown.c ****     lv_obj_class_init_obj(obj);
 541              		.loc 1 66 5 is_stmt 1 view .LVU144
  66:../../Middlewares/LVGL/GUI/lvgl/src/widgets/calendar/lv_calendar_header_dropdown.c ****     lv_obj_class_init_obj(obj);
 542              		.loc 1 66 22 is_stmt 0 view .LVU145
 543 0004 0348     		ldr	r0, .L15
 544              	.LVL71:
  66:../../Middlewares/LVGL/GUI/lvgl/src/widgets/calendar/lv_calendar_header_dropdown.c ****     lv_obj_class_init_obj(obj);
 545              		.loc 1 66 22 view .LVU146
 546 0006 FFF7FEFF 		bl	lv_obj_class_create_obj
 547              	.LVL72:
  66:../../Middlewares/LVGL/GUI/lvgl/src/widgets/calendar/lv_calendar_header_dropdown.c ****     lv_obj_class_init_obj(obj);
 548              		.loc 1 66 22 view .LVU147
 549 000a 0446     		mov	r4, r0
 550              	.LVL73:
  67:../../Middlewares/LVGL/GUI/lvgl/src/widgets/calendar/lv_calendar_header_dropdown.c **** 
 551              		.loc 1 67 5 is_stmt 1 view .LVU148
 552 000c FFF7FEFF 		bl	lv_obj_class_init_obj
 553              	.LVL74:
  69:../../Middlewares/LVGL/GUI/lvgl/src/widgets/calendar/lv_calendar_header_dropdown.c **** }
 554              		.loc 1 69 5 view .LVU149
  70:../../Middlewares/LVGL/GUI/lvgl/src/widgets/calendar/lv_calendar_header_dropdown.c **** 
 555              		.loc 1 70 1 is_stmt 0 view .LVU150
 556 0010 2046     		mov	r0, r4
 557 0012 10BD     		pop	{r4, pc}
 558              	.LVL75:
 559              	.L16:
  70:../../Middlewares/LVGL/GUI/lvgl/src/widgets/calendar/lv_calendar_header_dropdown.c **** 
 560              		.loc 1 70 1 view .LVU151
 561              		.align	2
 562              	.L15:
 563 0014 00000000 		.word	lv_calendar_header_dropdown_class
 564              		.cfi_endproc
 565              	.LFE172:
 567              		.section	.text.lv_calendar_header_dropdown_set_year_list,"ax",%progbits
 568              		.align	1
 569              		.global	lv_calendar_header_dropdown_set_year_list
 570              		.syntax unified
 571              		.thumb
ARM GAS  C:\Users\28576\AppData\Local\Temp\cc5JojjZ.s 			page 17


 572              		.thumb_func
 574              	lv_calendar_header_dropdown_set_year_list:
 575              	.LVL76:
 576              	.LFB173:
  73:../../Middlewares/LVGL/GUI/lvgl/src/widgets/calendar/lv_calendar_header_dropdown.c ****     /* Search for the header dropdown */
 577              		.loc 1 73 1 is_stmt 1 view -0
 578              		.cfi_startproc
 579              		@ args = 0, pretend = 0, frame = 0
 580              		@ frame_needed = 0, uses_anonymous_args = 0
  73:../../Middlewares/LVGL/GUI/lvgl/src/widgets/calendar/lv_calendar_header_dropdown.c ****     /* Search for the header dropdown */
 581              		.loc 1 73 1 is_stmt 0 view .LVU153
 582 0000 70B5     		push	{r4, r5, r6, lr}
 583              	.LCFI9:
 584              		.cfi_def_cfa_offset 16
 585              		.cfi_offset 4, -16
 586              		.cfi_offset 5, -12
 587              		.cfi_offset 6, -8
 588              		.cfi_offset 14, -4
 589 0002 0646     		mov	r6, r0
 590 0004 0D46     		mov	r5, r1
  75:../../Middlewares/LVGL/GUI/lvgl/src/widgets/calendar/lv_calendar_header_dropdown.c ****     if(NULL == header) {
 591              		.loc 1 75 5 is_stmt 1 view .LVU154
  75:../../Middlewares/LVGL/GUI/lvgl/src/widgets/calendar/lv_calendar_header_dropdown.c ****     if(NULL == header) {
 592              		.loc 1 75 25 is_stmt 0 view .LVU155
 593 0006 0A4A     		ldr	r2, .L20
 594 0008 0021     		movs	r1, #0
 595              	.LVL77:
  75:../../Middlewares/LVGL/GUI/lvgl/src/widgets/calendar/lv_calendar_header_dropdown.c ****     if(NULL == header) {
 596              		.loc 1 75 25 view .LVU156
 597 000a FFF7FEFF 		bl	lv_obj_get_child_by_type
 598              	.LVL78:
  76:../../Middlewares/LVGL/GUI/lvgl/src/widgets/calendar/lv_calendar_header_dropdown.c ****         /* Header not found */
 599              		.loc 1 76 5 is_stmt 1 view .LVU157
  76:../../Middlewares/LVGL/GUI/lvgl/src/widgets/calendar/lv_calendar_header_dropdown.c ****         /* Header not found */
 600              		.loc 1 76 7 is_stmt 0 view .LVU158
 601 000e 70B1     		cbz	r0, .L17
  84:../../Middlewares/LVGL/GUI/lvgl/src/widgets/calendar/lv_calendar_header_dropdown.c ****     lv_obj_t * year_dropdown = lv_obj_get_child_by_type(header, year_dropdown_index, &lv_dropdown_c
 602              		.loc 1 84 5 is_stmt 1 view .LVU159
 603              	.LVL79:
  85:../../Middlewares/LVGL/GUI/lvgl/src/widgets/calendar/lv_calendar_header_dropdown.c ****     if(NULL == year_dropdown) {
 604              		.loc 1 85 5 view .LVU160
  85:../../Middlewares/LVGL/GUI/lvgl/src/widgets/calendar/lv_calendar_header_dropdown.c ****     if(NULL == year_dropdown) {
 605              		.loc 1 85 32 is_stmt 0 view .LVU161
 606 0010 084A     		ldr	r2, .L20+4
 607 0012 0021     		movs	r1, #0
 608 0014 FFF7FEFF 		bl	lv_obj_get_child_by_type
 609              	.LVL80:
  86:../../Middlewares/LVGL/GUI/lvgl/src/widgets/calendar/lv_calendar_header_dropdown.c ****         /* year dropdown not found */
 610              		.loc 1 86 5 is_stmt 1 view .LVU162
  86:../../Middlewares/LVGL/GUI/lvgl/src/widgets/calendar/lv_calendar_header_dropdown.c ****         /* year dropdown not found */
 611              		.loc 1 86 7 is_stmt 0 view .LVU163
 612 0018 0446     		mov	r4, r0
 613 001a 40B1     		cbz	r0, .L17
  91:../../Middlewares/LVGL/GUI/lvgl/src/widgets/calendar/lv_calendar_header_dropdown.c ****     lv_dropdown_set_options(year_dropdown, years_list);
 614              		.loc 1 91 5 is_stmt 1 view .LVU164
 615 001c FFF7FEFF 		bl	lv_dropdown_clear_options
 616              	.LVL81:
ARM GAS  C:\Users\28576\AppData\Local\Temp\cc5JojjZ.s 			page 18


  92:../../Middlewares/LVGL/GUI/lvgl/src/widgets/calendar/lv_calendar_header_dropdown.c **** 
 617              		.loc 1 92 5 view .LVU165
 618 0020 2946     		mov	r1, r5
 619 0022 2046     		mov	r0, r4
 620 0024 FFF7FEFF 		bl	lv_dropdown_set_options
 621              	.LVL82:
  94:../../Middlewares/LVGL/GUI/lvgl/src/widgets/calendar/lv_calendar_header_dropdown.c **** }
 622              		.loc 1 94 5 view .LVU166
 623 0028 3046     		mov	r0, r6
 624 002a FFF7FEFF 		bl	lv_obj_invalidate
 625              	.LVL83:
 626              	.L17:
  95:../../Middlewares/LVGL/GUI/lvgl/src/widgets/calendar/lv_calendar_header_dropdown.c **** 
 627              		.loc 1 95 1 is_stmt 0 view .LVU167
 628 002e 70BD     		pop	{r4, r5, r6, pc}
 629              	.LVL84:
 630              	.L21:
  95:../../Middlewares/LVGL/GUI/lvgl/src/widgets/calendar/lv_calendar_header_dropdown.c **** 
 631              		.loc 1 95 1 view .LVU168
 632              		.align	2
 633              	.L20:
 634 0030 00000000 		.word	lv_calendar_header_dropdown_class
 635 0034 00000000 		.word	lv_dropdown_class
 636              		.cfi_endproc
 637              	.LFE173:
 639              		.global	lv_calendar_header_dropdown_class
 640              		.section	.rodata.str1.4,"aMS",%progbits,1
 641              		.align	2
 642              	.LC2:
 643 0000 6C765F63 		.ascii	"lv_calendar_header_dropdown\000"
 643      616C656E 
 643      6461725F 
 643      68656164 
 643      65725F64 
 644              		.section	.rodata.lv_calendar_header_dropdown_class,"a"
 645              		.align	2
 648              	lv_calendar_header_dropdown_class:
 649 0000 00000000 		.word	lv_obj_class
 650 0004 00000000 		.word	my_constructor
 651 0008 00000000 		.space	12
 651      00000000 
 651      00000000 
 652 0014 00000000 		.word	.LC2
 653 0018 64000020 		.word	536871012
 654 001c FFFFFF3F 		.word	1073741823
 655 0020 00000000 		.space	4
 656              		.text
 657              	.Letext0:
 658              		.file 2 "C:/Users/28576/AppData/Roaming/xPacks/@xpack-dev-tools/arm-none-eabi-gcc/15.2.1-1.1.1/.co
 659              		.file 3 "C:/Users/28576/AppData/Roaming/xPacks/@xpack-dev-tools/arm-none-eabi-gcc/15.2.1-1.1.1/.co
 660              		.file 4 "C:/Users/28576/AppData/Roaming/xPacks/@xpack-dev-tools/arm-none-eabi-gcc/15.2.1-1.1.1/.co
 661              		.file 5 "H:/STM32H7/RGB_LVGL/Middlewares/LVGL/GUI/lvgl/src/misc/lv_types.h"
 662              		.file 6 "H:/STM32H7/RGB_LVGL/Middlewares/LVGL/GUI/lvgl/src/core/lv_obj_class_private.h"
 663              		.file 7 "H:/STM32H7/RGB_LVGL/Middlewares/LVGL/GUI/lvgl/src/layouts/flex/lv_flex.h"
 664              		.file 8 "H:/STM32H7/RGB_LVGL/Middlewares/LVGL/GUI/lvgl/src/misc/lv_event.h"
 665              		.file 9 "H:/STM32H7/RGB_LVGL/Middlewares/LVGL/GUI/lvgl/src/indev/lv_indev.h"
 666              		.file 10 "H:/STM32H7/RGB_LVGL/Middlewares/LVGL/GUI/lvgl/src/core/lv_obj.h"
ARM GAS  C:\Users\28576\AppData\Local\Temp\cc5JojjZ.s 			page 19


 667              		.file 11 "../../Middlewares/LVGL/GUI/lvgl/src/widgets/calendar/lv_calendar_header_dropdown.h"
 668              		.file 12 "../../Middlewares/LVGL/GUI/lvgl/src/widgets/calendar/lv_calendar.h"
 669              		.file 13 "../../Middlewares/LVGL/GUI/lvgl/src/widgets/calendar/../dropdown/lv_dropdown.h"
 670              		.file 14 "H:/STM32H7/RGB_LVGL/Middlewares/LVGL/GUI/lvgl/src/core/lv_obj_pos.h"
 671              		.file 15 "H:/STM32H7/RGB_LVGL/Middlewares/LVGL/GUI/lvgl/src/core/lv_obj_class.h"
 672              		.file 16 "H:/STM32H7/RGB_LVGL/Middlewares/LVGL/GUI/lvgl/src/core/lv_obj_tree.h"
 673              		.file 17 "H:/STM32H7/RGB_LVGL/Middlewares/LVGL/GUI/lvgl/src/stdlib/lv_string.h"
 674              		.file 18 "H:/STM32H7/RGB_LVGL/Middlewares/LVGL/GUI/lvgl/src/core/lv_obj_event.h"
ARM GAS  C:\Users\28576\AppData\Local\Temp\cc5JojjZ.s 			page 20

