ARM GAS  C:\Users\28576\AppData\Local\Temp\ccuvYuDt.s 			page 1


   1              		.cpu cortex-m7
   2              		.arch armv7e-m
   3              		.fpu fpv5-d16
   4              		.eabi_attribute 28, 1
   5              		.eabi_attribute 20, 1
   6              		.eabi_attribute 21, 1
   7              		.eabi_attribute 23, 3
   8              		.eabi_attribute 24, 1
   9              		.eabi_attribute 25, 1
  10              		.eabi_attribute 26, 1
  11              		.eabi_attribute 30, 1
  12              		.eabi_attribute 34, 1
  13              		.eabi_attribute 18, 4
  14              		.file	"lv_cache_entry.c"
  15              		.text
  16              	.Ltext0:
  17              		.cfi_sections	.debug_frame
  18              		.file 1 "../../Middlewares/LVGL/GUI/lvgl/src/misc/cache/lv_cache_entry.c"
  19              		.section	.text.lv_cache_entry_reset_ref,"ax",%progbits
  20              		.align	1
  21              		.global	lv_cache_entry_reset_ref
  22              		.syntax unified
  23              		.thumb
  24              		.thumb_func
  26              	lv_cache_entry_reset_ref:
  27              	.LVL0:
  28              	.LFB17:
   1:../../Middlewares/LVGL/GUI/lvgl/src/misc/cache/lv_cache_entry.c **** /**
   2:../../Middlewares/LVGL/GUI/lvgl/src/misc/cache/lv_cache_entry.c **** * @file lv_cache_entry.c
   3:../../Middlewares/LVGL/GUI/lvgl/src/misc/cache/lv_cache_entry.c **** *
   4:../../Middlewares/LVGL/GUI/lvgl/src/misc/cache/lv_cache_entry.c ****  */
   5:../../Middlewares/LVGL/GUI/lvgl/src/misc/cache/lv_cache_entry.c **** 
   6:../../Middlewares/LVGL/GUI/lvgl/src/misc/cache/lv_cache_entry.c **** /*********************
   7:../../Middlewares/LVGL/GUI/lvgl/src/misc/cache/lv_cache_entry.c ****  *      INCLUDES
   8:../../Middlewares/LVGL/GUI/lvgl/src/misc/cache/lv_cache_entry.c ****  *********************/
   9:../../Middlewares/LVGL/GUI/lvgl/src/misc/cache/lv_cache_entry.c **** #include "lv_cache_entry.h"
  10:../../Middlewares/LVGL/GUI/lvgl/src/misc/cache/lv_cache_entry.c **** #include "../../stdlib/lv_sprintf.h"
  11:../../Middlewares/LVGL/GUI/lvgl/src/misc/cache/lv_cache_entry.c **** #include "../lv_assert.h"
  12:../../Middlewares/LVGL/GUI/lvgl/src/misc/cache/lv_cache_entry.c **** #include "lv_cache.h"
  13:../../Middlewares/LVGL/GUI/lvgl/src/misc/cache/lv_cache_entry.c **** #include "lv_cache_entry_private.h"
  14:../../Middlewares/LVGL/GUI/lvgl/src/misc/cache/lv_cache_entry.c **** #include "lv_cache_private.h"
  15:../../Middlewares/LVGL/GUI/lvgl/src/misc/cache/lv_cache_entry.c **** 
  16:../../Middlewares/LVGL/GUI/lvgl/src/misc/cache/lv_cache_entry.c **** /*********************
  17:../../Middlewares/LVGL/GUI/lvgl/src/misc/cache/lv_cache_entry.c ****  *      DEFINES
  18:../../Middlewares/LVGL/GUI/lvgl/src/misc/cache/lv_cache_entry.c ****  *********************/
  19:../../Middlewares/LVGL/GUI/lvgl/src/misc/cache/lv_cache_entry.c **** 
  20:../../Middlewares/LVGL/GUI/lvgl/src/misc/cache/lv_cache_entry.c **** /**********************
  21:../../Middlewares/LVGL/GUI/lvgl/src/misc/cache/lv_cache_entry.c ****  *      TYPEDEFS
  22:../../Middlewares/LVGL/GUI/lvgl/src/misc/cache/lv_cache_entry.c ****  **********************/
  23:../../Middlewares/LVGL/GUI/lvgl/src/misc/cache/lv_cache_entry.c **** struct _lv_cache_entry_t {
  24:../../Middlewares/LVGL/GUI/lvgl/src/misc/cache/lv_cache_entry.c ****     const lv_cache_t * cache;
  25:../../Middlewares/LVGL/GUI/lvgl/src/misc/cache/lv_cache_entry.c ****     int32_t ref_cnt;
  26:../../Middlewares/LVGL/GUI/lvgl/src/misc/cache/lv_cache_entry.c ****     uint32_t node_size;
  27:../../Middlewares/LVGL/GUI/lvgl/src/misc/cache/lv_cache_entry.c **** 
  28:../../Middlewares/LVGL/GUI/lvgl/src/misc/cache/lv_cache_entry.c ****     bool is_invalid;
  29:../../Middlewares/LVGL/GUI/lvgl/src/misc/cache/lv_cache_entry.c **** };
  30:../../Middlewares/LVGL/GUI/lvgl/src/misc/cache/lv_cache_entry.c **** /**********************
ARM GAS  C:\Users\28576\AppData\Local\Temp\ccuvYuDt.s 			page 2


  31:../../Middlewares/LVGL/GUI/lvgl/src/misc/cache/lv_cache_entry.c ****  *  STATIC PROTOTYPES
  32:../../Middlewares/LVGL/GUI/lvgl/src/misc/cache/lv_cache_entry.c ****  **********************/
  33:../../Middlewares/LVGL/GUI/lvgl/src/misc/cache/lv_cache_entry.c **** 
  34:../../Middlewares/LVGL/GUI/lvgl/src/misc/cache/lv_cache_entry.c **** /**********************
  35:../../Middlewares/LVGL/GUI/lvgl/src/misc/cache/lv_cache_entry.c ****  *  GLOBAL VARIABLES
  36:../../Middlewares/LVGL/GUI/lvgl/src/misc/cache/lv_cache_entry.c ****  **********************/
  37:../../Middlewares/LVGL/GUI/lvgl/src/misc/cache/lv_cache_entry.c **** 
  38:../../Middlewares/LVGL/GUI/lvgl/src/misc/cache/lv_cache_entry.c **** /**********************
  39:../../Middlewares/LVGL/GUI/lvgl/src/misc/cache/lv_cache_entry.c ****  *  STATIC VARIABLES
  40:../../Middlewares/LVGL/GUI/lvgl/src/misc/cache/lv_cache_entry.c ****  **********************/
  41:../../Middlewares/LVGL/GUI/lvgl/src/misc/cache/lv_cache_entry.c **** 
  42:../../Middlewares/LVGL/GUI/lvgl/src/misc/cache/lv_cache_entry.c **** /**********************
  43:../../Middlewares/LVGL/GUI/lvgl/src/misc/cache/lv_cache_entry.c ****  *      MACROS
  44:../../Middlewares/LVGL/GUI/lvgl/src/misc/cache/lv_cache_entry.c ****  **********************/
  45:../../Middlewares/LVGL/GUI/lvgl/src/misc/cache/lv_cache_entry.c **** 
  46:../../Middlewares/LVGL/GUI/lvgl/src/misc/cache/lv_cache_entry.c **** /**********************
  47:../../Middlewares/LVGL/GUI/lvgl/src/misc/cache/lv_cache_entry.c ****  *   GLOBAL FUNCTIONS
  48:../../Middlewares/LVGL/GUI/lvgl/src/misc/cache/lv_cache_entry.c ****  **********************/
  49:../../Middlewares/LVGL/GUI/lvgl/src/misc/cache/lv_cache_entry.c **** 
  50:../../Middlewares/LVGL/GUI/lvgl/src/misc/cache/lv_cache_entry.c **** void lv_cache_entry_reset_ref(lv_cache_entry_t * entry)
  51:../../Middlewares/LVGL/GUI/lvgl/src/misc/cache/lv_cache_entry.c **** {
  29              		.loc 1 51 1 view -0
  30              		.cfi_startproc
  31              		@ args = 0, pretend = 0, frame = 0
  32              		@ frame_needed = 0, uses_anonymous_args = 0
  33              		@ link register save eliminated.
  52:../../Middlewares/LVGL/GUI/lvgl/src/misc/cache/lv_cache_entry.c ****     LV_ASSERT_NULL(entry);
  34              		.loc 1 52 5 view .LVU1
  35              		.loc 1 52 5 view .LVU2
  36 0000 10B1     		cbz	r0, .L3
  37              		.loc 1 52 5 view .LVU3
  38              		.loc 1 52 26 view .LVU4
  53:../../Middlewares/LVGL/GUI/lvgl/src/misc/cache/lv_cache_entry.c ****     entry->ref_cnt = 0;
  39              		.loc 1 53 5 view .LVU5
  40              		.loc 1 53 20 is_stmt 0 view .LVU6
  41 0002 0022     		movs	r2, #0
  42 0004 4260     		str	r2, [r0, #4]
  54:../../Middlewares/LVGL/GUI/lvgl/src/misc/cache/lv_cache_entry.c **** }
  43              		.loc 1 54 1 view .LVU7
  44 0006 7047     		bx	lr
  45              	.L3:
  52:../../Middlewares/LVGL/GUI/lvgl/src/misc/cache/lv_cache_entry.c ****     LV_ASSERT_NULL(entry);
  46              		.loc 1 52 5 is_stmt 1 view .LVU8
  52:../../Middlewares/LVGL/GUI/lvgl/src/misc/cache/lv_cache_entry.c ****     LV_ASSERT_NULL(entry);
  47              		.loc 1 52 5 view .LVU9
  52:../../Middlewares/LVGL/GUI/lvgl/src/misc/cache/lv_cache_entry.c ****     LV_ASSERT_NULL(entry);
  48              		.loc 1 52 5 view .LVU10
  52:../../Middlewares/LVGL/GUI/lvgl/src/misc/cache/lv_cache_entry.c ****     LV_ASSERT_NULL(entry);
  49              		.loc 1 52 5 view .LVU11
  52:../../Middlewares/LVGL/GUI/lvgl/src/misc/cache/lv_cache_entry.c ****     LV_ASSERT_NULL(entry);
  50              		.loc 1 52 5 view .LVU12
  51 0008 FEE7     		b	.L3
  52              		.cfi_endproc
  53              	.LFE17:
  55              		.section	.text.lv_cache_entry_inc_ref,"ax",%progbits
  56              		.align	1
  57              		.global	lv_cache_entry_inc_ref
ARM GAS  C:\Users\28576\AppData\Local\Temp\ccuvYuDt.s 			page 3


  58              		.syntax unified
  59              		.thumb
  60              		.thumb_func
  62              	lv_cache_entry_inc_ref:
  63              	.LVL1:
  64              	.LFB18:
  55:../../Middlewares/LVGL/GUI/lvgl/src/misc/cache/lv_cache_entry.c **** 
  56:../../Middlewares/LVGL/GUI/lvgl/src/misc/cache/lv_cache_entry.c **** void lv_cache_entry_inc_ref(lv_cache_entry_t * entry)
  57:../../Middlewares/LVGL/GUI/lvgl/src/misc/cache/lv_cache_entry.c **** {
  65              		.loc 1 57 1 view -0
  66              		.cfi_startproc
  67              		@ args = 0, pretend = 0, frame = 0
  68              		@ frame_needed = 0, uses_anonymous_args = 0
  69              		@ link register save eliminated.
  58:../../Middlewares/LVGL/GUI/lvgl/src/misc/cache/lv_cache_entry.c ****     LV_ASSERT_NULL(entry);
  70              		.loc 1 58 5 view .LVU14
  71              		.loc 1 58 5 view .LVU15
  72 0000 18B1     		cbz	r0, .L6
  73              		.loc 1 58 5 view .LVU16
  74              		.loc 1 58 26 view .LVU17
  59:../../Middlewares/LVGL/GUI/lvgl/src/misc/cache/lv_cache_entry.c ****     entry->ref_cnt++;
  75              		.loc 1 59 5 view .LVU18
  76              		.loc 1 59 10 is_stmt 0 view .LVU19
  77 0002 4368     		ldr	r3, [r0, #4]
  78              		.loc 1 59 19 view .LVU20
  79 0004 0133     		adds	r3, r3, #1
  80 0006 4360     		str	r3, [r0, #4]
  60:../../Middlewares/LVGL/GUI/lvgl/src/misc/cache/lv_cache_entry.c **** }
  81              		.loc 1 60 1 view .LVU21
  82 0008 7047     		bx	lr
  83              	.L6:
  58:../../Middlewares/LVGL/GUI/lvgl/src/misc/cache/lv_cache_entry.c ****     LV_ASSERT_NULL(entry);
  84              		.loc 1 58 5 is_stmt 1 view .LVU22
  58:../../Middlewares/LVGL/GUI/lvgl/src/misc/cache/lv_cache_entry.c ****     LV_ASSERT_NULL(entry);
  85              		.loc 1 58 5 view .LVU23
  58:../../Middlewares/LVGL/GUI/lvgl/src/misc/cache/lv_cache_entry.c ****     LV_ASSERT_NULL(entry);
  86              		.loc 1 58 5 view .LVU24
  58:../../Middlewares/LVGL/GUI/lvgl/src/misc/cache/lv_cache_entry.c ****     LV_ASSERT_NULL(entry);
  87              		.loc 1 58 5 view .LVU25
  58:../../Middlewares/LVGL/GUI/lvgl/src/misc/cache/lv_cache_entry.c ****     LV_ASSERT_NULL(entry);
  88              		.loc 1 58 5 view .LVU26
  89 000a FEE7     		b	.L6
  90              		.cfi_endproc
  91              	.LFE18:
  93              		.section	.text.lv_cache_entry_dec_ref,"ax",%progbits
  94              		.align	1
  95              		.global	lv_cache_entry_dec_ref
  96              		.syntax unified
  97              		.thumb
  98              		.thumb_func
 100              	lv_cache_entry_dec_ref:
 101              	.LVL2:
 102              	.LFB19:
  61:../../Middlewares/LVGL/GUI/lvgl/src/misc/cache/lv_cache_entry.c **** 
  62:../../Middlewares/LVGL/GUI/lvgl/src/misc/cache/lv_cache_entry.c **** void lv_cache_entry_dec_ref(lv_cache_entry_t * entry)
  63:../../Middlewares/LVGL/GUI/lvgl/src/misc/cache/lv_cache_entry.c **** {
 103              		.loc 1 63 1 view -0
ARM GAS  C:\Users\28576\AppData\Local\Temp\ccuvYuDt.s 			page 4


 104              		.cfi_startproc
 105              		@ args = 0, pretend = 0, frame = 0
 106              		@ frame_needed = 0, uses_anonymous_args = 0
 107              		@ link register save eliminated.
  64:../../Middlewares/LVGL/GUI/lvgl/src/misc/cache/lv_cache_entry.c ****     LV_ASSERT_NULL(entry);
 108              		.loc 1 64 5 view .LVU28
 109              		.loc 1 64 5 view .LVU29
 110 0000 28B1     		cbz	r0, .L9
 111              		.loc 1 64 5 view .LVU30
 112              		.loc 1 64 26 view .LVU31
  65:../../Middlewares/LVGL/GUI/lvgl/src/misc/cache/lv_cache_entry.c ****     entry->ref_cnt--;
 113              		.loc 1 65 5 view .LVU32
 114              		.loc 1 65 10 is_stmt 0 view .LVU33
 115 0002 4368     		ldr	r3, [r0, #4]
 116              		.loc 1 65 19 view .LVU34
 117 0004 013B     		subs	r3, r3, #1
 118 0006 4360     		str	r3, [r0, #4]
  66:../../Middlewares/LVGL/GUI/lvgl/src/misc/cache/lv_cache_entry.c ****     if(entry->ref_cnt < 0) {
 119              		.loc 1 66 5 is_stmt 1 view .LVU35
 120              		.loc 1 66 7 is_stmt 0 view .LVU36
 121 0008 002B     		cmp	r3, #0
 122 000a 01DB     		blt	.L11
 123              	.L7:
  67:../../Middlewares/LVGL/GUI/lvgl/src/misc/cache/lv_cache_entry.c ****         LV_LOG_WARN("ref_cnt(%" LV_PRIu32 ") < 0", entry->ref_cnt);
  68:../../Middlewares/LVGL/GUI/lvgl/src/misc/cache/lv_cache_entry.c ****         entry->ref_cnt = 0;
  69:../../Middlewares/LVGL/GUI/lvgl/src/misc/cache/lv_cache_entry.c ****     }
  70:../../Middlewares/LVGL/GUI/lvgl/src/misc/cache/lv_cache_entry.c **** }
 124              		.loc 1 70 1 view .LVU37
 125 000c 7047     		bx	lr
 126              	.L9:
  64:../../Middlewares/LVGL/GUI/lvgl/src/misc/cache/lv_cache_entry.c ****     entry->ref_cnt--;
 127              		.loc 1 64 5 is_stmt 1 view .LVU38
  64:../../Middlewares/LVGL/GUI/lvgl/src/misc/cache/lv_cache_entry.c ****     entry->ref_cnt--;
 128              		.loc 1 64 5 view .LVU39
  64:../../Middlewares/LVGL/GUI/lvgl/src/misc/cache/lv_cache_entry.c ****     entry->ref_cnt--;
 129              		.loc 1 64 5 view .LVU40
  64:../../Middlewares/LVGL/GUI/lvgl/src/misc/cache/lv_cache_entry.c ****     entry->ref_cnt--;
 130              		.loc 1 64 5 view .LVU41
  64:../../Middlewares/LVGL/GUI/lvgl/src/misc/cache/lv_cache_entry.c ****     entry->ref_cnt--;
 131              		.loc 1 64 5 view .LVU42
 132 000e FEE7     		b	.L9
 133              	.L11:
  67:../../Middlewares/LVGL/GUI/lvgl/src/misc/cache/lv_cache_entry.c ****         LV_LOG_WARN("ref_cnt(%" LV_PRIu32 ") < 0", entry->ref_cnt);
 134              		.loc 1 67 9 view .LVU43
  67:../../Middlewares/LVGL/GUI/lvgl/src/misc/cache/lv_cache_entry.c ****         LV_LOG_WARN("ref_cnt(%" LV_PRIu32 ") < 0", entry->ref_cnt);
 135              		.loc 1 67 9 view .LVU44
  67:../../Middlewares/LVGL/GUI/lvgl/src/misc/cache/lv_cache_entry.c ****         LV_LOG_WARN("ref_cnt(%" LV_PRIu32 ") < 0", entry->ref_cnt);
 136              		.loc 1 67 9 view .LVU45
  68:../../Middlewares/LVGL/GUI/lvgl/src/misc/cache/lv_cache_entry.c ****     }
 137              		.loc 1 68 9 view .LVU46
  68:../../Middlewares/LVGL/GUI/lvgl/src/misc/cache/lv_cache_entry.c ****     }
 138              		.loc 1 68 24 is_stmt 0 view .LVU47
 139 0010 0023     		movs	r3, #0
 140 0012 4360     		str	r3, [r0, #4]
 141              		.loc 1 70 1 view .LVU48
 142 0014 FAE7     		b	.L7
 143              		.cfi_endproc
ARM GAS  C:\Users\28576\AppData\Local\Temp\ccuvYuDt.s 			page 5


 144              	.LFE19:
 146              		.section	.text.lv_cache_entry_get_ref,"ax",%progbits
 147              		.align	1
 148              		.global	lv_cache_entry_get_ref
 149              		.syntax unified
 150              		.thumb
 151              		.thumb_func
 153              	lv_cache_entry_get_ref:
 154              	.LVL3:
 155              	.LFB20:
  71:../../Middlewares/LVGL/GUI/lvgl/src/misc/cache/lv_cache_entry.c **** 
  72:../../Middlewares/LVGL/GUI/lvgl/src/misc/cache/lv_cache_entry.c **** int32_t lv_cache_entry_get_ref(lv_cache_entry_t * entry)
  73:../../Middlewares/LVGL/GUI/lvgl/src/misc/cache/lv_cache_entry.c **** {
 156              		.loc 1 73 1 is_stmt 1 view -0
 157              		.cfi_startproc
 158              		@ args = 0, pretend = 0, frame = 0
 159              		@ frame_needed = 0, uses_anonymous_args = 0
 160              		@ link register save eliminated.
  74:../../Middlewares/LVGL/GUI/lvgl/src/misc/cache/lv_cache_entry.c ****     LV_ASSERT_NULL(entry);
 161              		.loc 1 74 5 view .LVU50
 162              		.loc 1 74 5 view .LVU51
 163 0000 08B1     		cbz	r0, .L14
 164              		.loc 1 74 5 view .LVU52
 165              		.loc 1 74 26 view .LVU53
  75:../../Middlewares/LVGL/GUI/lvgl/src/misc/cache/lv_cache_entry.c ****     return entry->ref_cnt;
 166              		.loc 1 75 5 view .LVU54
  76:../../Middlewares/LVGL/GUI/lvgl/src/misc/cache/lv_cache_entry.c **** }
 167              		.loc 1 76 1 is_stmt 0 view .LVU55
 168 0002 4068     		ldr	r0, [r0, #4]
 169              	.LVL4:
 170              		.loc 1 76 1 view .LVU56
 171 0004 7047     		bx	lr
 172              	.LVL5:
 173              	.L14:
  74:../../Middlewares/LVGL/GUI/lvgl/src/misc/cache/lv_cache_entry.c ****     LV_ASSERT_NULL(entry);
 174              		.loc 1 74 5 is_stmt 1 view .LVU57
  74:../../Middlewares/LVGL/GUI/lvgl/src/misc/cache/lv_cache_entry.c ****     LV_ASSERT_NULL(entry);
 175              		.loc 1 74 5 view .LVU58
  74:../../Middlewares/LVGL/GUI/lvgl/src/misc/cache/lv_cache_entry.c ****     LV_ASSERT_NULL(entry);
 176              		.loc 1 74 5 view .LVU59
  74:../../Middlewares/LVGL/GUI/lvgl/src/misc/cache/lv_cache_entry.c ****     LV_ASSERT_NULL(entry);
 177              		.loc 1 74 5 view .LVU60
  74:../../Middlewares/LVGL/GUI/lvgl/src/misc/cache/lv_cache_entry.c ****     LV_ASSERT_NULL(entry);
 178              		.loc 1 74 5 view .LVU61
 179 0006 FEE7     		b	.L14
 180              		.cfi_endproc
 181              	.LFE20:
 183              		.section	.text.lv_cache_entry_get_node_size,"ax",%progbits
 184              		.align	1
 185              		.global	lv_cache_entry_get_node_size
 186              		.syntax unified
 187              		.thumb
 188              		.thumb_func
 190              	lv_cache_entry_get_node_size:
 191              	.LVL6:
 192              	.LFB21:
  77:../../Middlewares/LVGL/GUI/lvgl/src/misc/cache/lv_cache_entry.c **** 
ARM GAS  C:\Users\28576\AppData\Local\Temp\ccuvYuDt.s 			page 6


  78:../../Middlewares/LVGL/GUI/lvgl/src/misc/cache/lv_cache_entry.c **** uint32_t lv_cache_entry_get_node_size(lv_cache_entry_t * entry)
  79:../../Middlewares/LVGL/GUI/lvgl/src/misc/cache/lv_cache_entry.c **** {
 193              		.loc 1 79 1 view -0
 194              		.cfi_startproc
 195              		@ args = 0, pretend = 0, frame = 0
 196              		@ frame_needed = 0, uses_anonymous_args = 0
 197              		@ link register save eliminated.
  80:../../Middlewares/LVGL/GUI/lvgl/src/misc/cache/lv_cache_entry.c ****     return entry->node_size;
 198              		.loc 1 80 5 view .LVU63
  81:../../Middlewares/LVGL/GUI/lvgl/src/misc/cache/lv_cache_entry.c **** }
 199              		.loc 1 81 1 is_stmt 0 view .LVU64
 200 0000 8068     		ldr	r0, [r0, #8]
 201              	.LVL7:
 202              		.loc 1 81 1 view .LVU65
 203 0002 7047     		bx	lr
 204              		.cfi_endproc
 205              	.LFE21:
 207              		.section	.text.lv_cache_entry_set_node_size,"ax",%progbits
 208              		.align	1
 209              		.global	lv_cache_entry_set_node_size
 210              		.syntax unified
 211              		.thumb
 212              		.thumb_func
 214              	lv_cache_entry_set_node_size:
 215              	.LVL8:
 216              	.LFB22:
  82:../../Middlewares/LVGL/GUI/lvgl/src/misc/cache/lv_cache_entry.c **** 
  83:../../Middlewares/LVGL/GUI/lvgl/src/misc/cache/lv_cache_entry.c **** void lv_cache_entry_set_node_size(lv_cache_entry_t * entry, uint32_t node_size)
  84:../../Middlewares/LVGL/GUI/lvgl/src/misc/cache/lv_cache_entry.c **** {
 217              		.loc 1 84 1 is_stmt 1 view -0
 218              		.cfi_startproc
 219              		@ args = 0, pretend = 0, frame = 0
 220              		@ frame_needed = 0, uses_anonymous_args = 0
 221              		@ link register save eliminated.
  85:../../Middlewares/LVGL/GUI/lvgl/src/misc/cache/lv_cache_entry.c ****     LV_ASSERT_NULL(entry);
 222              		.loc 1 85 5 view .LVU67
 223              		.loc 1 85 5 view .LVU68
 224 0000 08B1     		cbz	r0, .L18
 225              		.loc 1 85 5 view .LVU69
 226              		.loc 1 85 26 view .LVU70
  86:../../Middlewares/LVGL/GUI/lvgl/src/misc/cache/lv_cache_entry.c ****     entry->node_size = node_size;
 227              		.loc 1 86 5 view .LVU71
 228              		.loc 1 86 22 is_stmt 0 view .LVU72
 229 0002 8160     		str	r1, [r0, #8]
  87:../../Middlewares/LVGL/GUI/lvgl/src/misc/cache/lv_cache_entry.c **** }
 230              		.loc 1 87 1 view .LVU73
 231 0004 7047     		bx	lr
 232              	.L18:
  85:../../Middlewares/LVGL/GUI/lvgl/src/misc/cache/lv_cache_entry.c ****     LV_ASSERT_NULL(entry);
 233              		.loc 1 85 5 is_stmt 1 view .LVU74
  85:../../Middlewares/LVGL/GUI/lvgl/src/misc/cache/lv_cache_entry.c ****     LV_ASSERT_NULL(entry);
 234              		.loc 1 85 5 view .LVU75
  85:../../Middlewares/LVGL/GUI/lvgl/src/misc/cache/lv_cache_entry.c ****     LV_ASSERT_NULL(entry);
 235              		.loc 1 85 5 view .LVU76
  85:../../Middlewares/LVGL/GUI/lvgl/src/misc/cache/lv_cache_entry.c ****     LV_ASSERT_NULL(entry);
 236              		.loc 1 85 5 view .LVU77
  85:../../Middlewares/LVGL/GUI/lvgl/src/misc/cache/lv_cache_entry.c ****     LV_ASSERT_NULL(entry);
ARM GAS  C:\Users\28576\AppData\Local\Temp\ccuvYuDt.s 			page 7


 237              		.loc 1 85 5 view .LVU78
 238 0006 FEE7     		b	.L18
 239              		.cfi_endproc
 240              	.LFE22:
 242              		.section	.text.lv_cache_entry_set_invalid,"ax",%progbits
 243              		.align	1
 244              		.global	lv_cache_entry_set_invalid
 245              		.syntax unified
 246              		.thumb
 247              		.thumb_func
 249              	lv_cache_entry_set_invalid:
 250              	.LVL9:
 251              	.LFB23:
  88:../../Middlewares/LVGL/GUI/lvgl/src/misc/cache/lv_cache_entry.c **** 
  89:../../Middlewares/LVGL/GUI/lvgl/src/misc/cache/lv_cache_entry.c **** void lv_cache_entry_set_invalid(lv_cache_entry_t * entry, bool is_invalid)
  90:../../Middlewares/LVGL/GUI/lvgl/src/misc/cache/lv_cache_entry.c **** {
 252              		.loc 1 90 1 view -0
 253              		.cfi_startproc
 254              		@ args = 0, pretend = 0, frame = 0
 255              		@ frame_needed = 0, uses_anonymous_args = 0
 256              		@ link register save eliminated.
  91:../../Middlewares/LVGL/GUI/lvgl/src/misc/cache/lv_cache_entry.c ****     LV_ASSERT_NULL(entry);
 257              		.loc 1 91 5 view .LVU80
 258              		.loc 1 91 5 view .LVU81
 259 0000 08B1     		cbz	r0, .L21
 260              		.loc 1 91 5 view .LVU82
 261              		.loc 1 91 26 view .LVU83
  92:../../Middlewares/LVGL/GUI/lvgl/src/misc/cache/lv_cache_entry.c ****     entry->is_invalid = is_invalid;
 262              		.loc 1 92 5 view .LVU84
 263              		.loc 1 92 23 is_stmt 0 view .LVU85
 264 0002 0173     		strb	r1, [r0, #12]
  93:../../Middlewares/LVGL/GUI/lvgl/src/misc/cache/lv_cache_entry.c **** }
 265              		.loc 1 93 1 view .LVU86
 266 0004 7047     		bx	lr
 267              	.L21:
  91:../../Middlewares/LVGL/GUI/lvgl/src/misc/cache/lv_cache_entry.c ****     LV_ASSERT_NULL(entry);
 268              		.loc 1 91 5 is_stmt 1 view .LVU87
  91:../../Middlewares/LVGL/GUI/lvgl/src/misc/cache/lv_cache_entry.c ****     LV_ASSERT_NULL(entry);
 269              		.loc 1 91 5 view .LVU88
  91:../../Middlewares/LVGL/GUI/lvgl/src/misc/cache/lv_cache_entry.c ****     LV_ASSERT_NULL(entry);
 270              		.loc 1 91 5 view .LVU89
  91:../../Middlewares/LVGL/GUI/lvgl/src/misc/cache/lv_cache_entry.c ****     LV_ASSERT_NULL(entry);
 271              		.loc 1 91 5 view .LVU90
  91:../../Middlewares/LVGL/GUI/lvgl/src/misc/cache/lv_cache_entry.c ****     LV_ASSERT_NULL(entry);
 272              		.loc 1 91 5 view .LVU91
 273 0006 FEE7     		b	.L21
 274              		.cfi_endproc
 275              	.LFE23:
 277              		.section	.text.lv_cache_entry_is_invalid,"ax",%progbits
 278              		.align	1
 279              		.global	lv_cache_entry_is_invalid
 280              		.syntax unified
 281              		.thumb
 282              		.thumb_func
 284              	lv_cache_entry_is_invalid:
 285              	.LVL10:
 286              	.LFB24:
ARM GAS  C:\Users\28576\AppData\Local\Temp\ccuvYuDt.s 			page 8


  94:../../Middlewares/LVGL/GUI/lvgl/src/misc/cache/lv_cache_entry.c **** 
  95:../../Middlewares/LVGL/GUI/lvgl/src/misc/cache/lv_cache_entry.c **** bool lv_cache_entry_is_invalid(lv_cache_entry_t * entry)
  96:../../Middlewares/LVGL/GUI/lvgl/src/misc/cache/lv_cache_entry.c **** {
 287              		.loc 1 96 1 view -0
 288              		.cfi_startproc
 289              		@ args = 0, pretend = 0, frame = 0
 290              		@ frame_needed = 0, uses_anonymous_args = 0
 291              		@ link register save eliminated.
  97:../../Middlewares/LVGL/GUI/lvgl/src/misc/cache/lv_cache_entry.c ****     LV_ASSERT_NULL(entry);
 292              		.loc 1 97 5 view .LVU93
 293              		.loc 1 97 5 view .LVU94
 294 0000 08B1     		cbz	r0, .L24
 295              		.loc 1 97 5 view .LVU95
 296              		.loc 1 97 26 view .LVU96
  98:../../Middlewares/LVGL/GUI/lvgl/src/misc/cache/lv_cache_entry.c ****     return entry->is_invalid;
 297              		.loc 1 98 5 view .LVU97
  99:../../Middlewares/LVGL/GUI/lvgl/src/misc/cache/lv_cache_entry.c **** }
 298              		.loc 1 99 1 is_stmt 0 view .LVU98
 299 0002 007B     		ldrb	r0, [r0, #12]	@ zero_extendqisi2
 300              	.LVL11:
 301              		.loc 1 99 1 view .LVU99
 302 0004 7047     		bx	lr
 303              	.LVL12:
 304              	.L24:
  97:../../Middlewares/LVGL/GUI/lvgl/src/misc/cache/lv_cache_entry.c ****     LV_ASSERT_NULL(entry);
 305              		.loc 1 97 5 is_stmt 1 view .LVU100
  97:../../Middlewares/LVGL/GUI/lvgl/src/misc/cache/lv_cache_entry.c ****     LV_ASSERT_NULL(entry);
 306              		.loc 1 97 5 view .LVU101
  97:../../Middlewares/LVGL/GUI/lvgl/src/misc/cache/lv_cache_entry.c ****     LV_ASSERT_NULL(entry);
 307              		.loc 1 97 5 view .LVU102
  97:../../Middlewares/LVGL/GUI/lvgl/src/misc/cache/lv_cache_entry.c ****     LV_ASSERT_NULL(entry);
 308              		.loc 1 97 5 view .LVU103
  97:../../Middlewares/LVGL/GUI/lvgl/src/misc/cache/lv_cache_entry.c ****     LV_ASSERT_NULL(entry);
 309              		.loc 1 97 5 view .LVU104
 310 0006 FEE7     		b	.L24
 311              		.cfi_endproc
 312              	.LFE24:
 314              		.section	.text.lv_cache_entry_get_data,"ax",%progbits
 315              		.align	1
 316              		.global	lv_cache_entry_get_data
 317              		.syntax unified
 318              		.thumb
 319              		.thumb_func
 321              	lv_cache_entry_get_data:
 322              	.LVL13:
 323              	.LFB25:
 100:../../Middlewares/LVGL/GUI/lvgl/src/misc/cache/lv_cache_entry.c **** 
 101:../../Middlewares/LVGL/GUI/lvgl/src/misc/cache/lv_cache_entry.c **** void * lv_cache_entry_get_data(lv_cache_entry_t * entry)
 102:../../Middlewares/LVGL/GUI/lvgl/src/misc/cache/lv_cache_entry.c **** {
 324              		.loc 1 102 1 view -0
 325              		.cfi_startproc
 326              		@ args = 0, pretend = 0, frame = 0
 327              		@ frame_needed = 0, uses_anonymous_args = 0
 328              		@ link register save eliminated.
 103:../../Middlewares/LVGL/GUI/lvgl/src/misc/cache/lv_cache_entry.c ****     LV_ASSERT_NULL(entry);
 329              		.loc 1 103 5 view .LVU106
 330              		.loc 1 103 5 view .LVU107
ARM GAS  C:\Users\28576\AppData\Local\Temp\ccuvYuDt.s 			page 9


 331 0000 0346     		mov	r3, r0
 332 0002 10B1     		cbz	r0, .L27
 333              		.loc 1 103 5 view .LVU108
 334              		.loc 1 103 26 view .LVU109
 104:../../Middlewares/LVGL/GUI/lvgl/src/misc/cache/lv_cache_entry.c ****     return (uint8_t *)entry - entry->node_size;
 335              		.loc 1 104 5 view .LVU110
 336              		.loc 1 104 36 is_stmt 0 view .LVU111
 337 0004 8068     		ldr	r0, [r0, #8]
 338              	.LVL14:
 105:../../Middlewares/LVGL/GUI/lvgl/src/misc/cache/lv_cache_entry.c **** }
 339              		.loc 1 105 1 view .LVU112
 340 0006 181A     		subs	r0, r3, r0
 341 0008 7047     		bx	lr
 342              	.LVL15:
 343              	.L27:
 103:../../Middlewares/LVGL/GUI/lvgl/src/misc/cache/lv_cache_entry.c ****     LV_ASSERT_NULL(entry);
 344              		.loc 1 103 5 is_stmt 1 view .LVU113
 103:../../Middlewares/LVGL/GUI/lvgl/src/misc/cache/lv_cache_entry.c ****     LV_ASSERT_NULL(entry);
 345              		.loc 1 103 5 view .LVU114
 103:../../Middlewares/LVGL/GUI/lvgl/src/misc/cache/lv_cache_entry.c ****     LV_ASSERT_NULL(entry);
 346              		.loc 1 103 5 view .LVU115
 103:../../Middlewares/LVGL/GUI/lvgl/src/misc/cache/lv_cache_entry.c ****     LV_ASSERT_NULL(entry);
 347              		.loc 1 103 5 view .LVU116
 103:../../Middlewares/LVGL/GUI/lvgl/src/misc/cache/lv_cache_entry.c ****     LV_ASSERT_NULL(entry);
 348              		.loc 1 103 5 view .LVU117
 349 000a FEE7     		b	.L27
 350              		.cfi_endproc
 351              	.LFE25:
 353              		.section	.text.lv_cache_entry_acquire_data,"ax",%progbits
 354              		.align	1
 355              		.global	lv_cache_entry_acquire_data
 356              		.syntax unified
 357              		.thumb
 358              		.thumb_func
 360              	lv_cache_entry_acquire_data:
 361              	.LVL16:
 362              	.LFB26:
 106:../../Middlewares/LVGL/GUI/lvgl/src/misc/cache/lv_cache_entry.c **** 
 107:../../Middlewares/LVGL/GUI/lvgl/src/misc/cache/lv_cache_entry.c **** void * lv_cache_entry_acquire_data(lv_cache_entry_t * entry)
 108:../../Middlewares/LVGL/GUI/lvgl/src/misc/cache/lv_cache_entry.c **** {
 363              		.loc 1 108 1 view -0
 364              		.cfi_startproc
 365              		@ args = 0, pretend = 0, frame = 0
 366              		@ frame_needed = 0, uses_anonymous_args = 0
 109:../../Middlewares/LVGL/GUI/lvgl/src/misc/cache/lv_cache_entry.c ****     LV_ASSERT_NULL(entry);
 367              		.loc 1 109 5 view .LVU119
 368              		.loc 1 109 5 view .LVU120
 369 0000 38B1     		cbz	r0, .L30
 108:../../Middlewares/LVGL/GUI/lvgl/src/misc/cache/lv_cache_entry.c ****     LV_ASSERT_NULL(entry);
 370              		.loc 1 108 1 is_stmt 0 view .LVU121
 371 0002 10B5     		push	{r4, lr}
 372              	.LCFI0:
 373              		.cfi_def_cfa_offset 8
 374              		.cfi_offset 4, -8
 375              		.cfi_offset 14, -4
 376              		.loc 1 109 5 is_stmt 1 view .LVU122
 377              		.loc 1 109 26 view .LVU123
ARM GAS  C:\Users\28576\AppData\Local\Temp\ccuvYuDt.s 			page 10


 110:../../Middlewares/LVGL/GUI/lvgl/src/misc/cache/lv_cache_entry.c **** 
 111:../../Middlewares/LVGL/GUI/lvgl/src/misc/cache/lv_cache_entry.c ****     lv_cache_entry_inc_ref(entry);
 378              		.loc 1 111 5 view .LVU124
 379 0004 0446     		mov	r4, r0
 380 0006 FFF7FEFF 		bl	lv_cache_entry_inc_ref
 381              	.LVL17:
 112:../../Middlewares/LVGL/GUI/lvgl/src/misc/cache/lv_cache_entry.c ****     return lv_cache_entry_get_data(entry);
 382              		.loc 1 112 5 view .LVU125
 383              		.loc 1 112 12 is_stmt 0 view .LVU126
 384 000a 2046     		mov	r0, r4
 385 000c FFF7FEFF 		bl	lv_cache_entry_get_data
 386              	.LVL18:
 113:../../Middlewares/LVGL/GUI/lvgl/src/misc/cache/lv_cache_entry.c **** }
 387              		.loc 1 113 1 view .LVU127
 388 0010 10BD     		pop	{r4, pc}
 389              	.LVL19:
 390              	.L30:
 391              	.LCFI1:
 392              		.cfi_def_cfa_offset 0
 393              		.cfi_restore 4
 394              		.cfi_restore 14
 109:../../Middlewares/LVGL/GUI/lvgl/src/misc/cache/lv_cache_entry.c **** 
 395              		.loc 1 109 5 is_stmt 1 view .LVU128
 109:../../Middlewares/LVGL/GUI/lvgl/src/misc/cache/lv_cache_entry.c **** 
 396              		.loc 1 109 5 view .LVU129
 109:../../Middlewares/LVGL/GUI/lvgl/src/misc/cache/lv_cache_entry.c **** 
 397              		.loc 1 109 5 view .LVU130
 109:../../Middlewares/LVGL/GUI/lvgl/src/misc/cache/lv_cache_entry.c **** 
 398              		.loc 1 109 5 view .LVU131
 109:../../Middlewares/LVGL/GUI/lvgl/src/misc/cache/lv_cache_entry.c **** 
 399              		.loc 1 109 5 view .LVU132
 400 0012 FEE7     		b	.L30
 401              		.cfi_endproc
 402              	.LFE26:
 404              		.section	.text.lv_cache_entry_release_data,"ax",%progbits
 405              		.align	1
 406              		.global	lv_cache_entry_release_data
 407              		.syntax unified
 408              		.thumb
 409              		.thumb_func
 411              	lv_cache_entry_release_data:
 412              	.LVL20:
 413              	.LFB27:
 114:../../Middlewares/LVGL/GUI/lvgl/src/misc/cache/lv_cache_entry.c **** 
 115:../../Middlewares/LVGL/GUI/lvgl/src/misc/cache/lv_cache_entry.c **** void lv_cache_entry_release_data(lv_cache_entry_t * entry, void * user_data)
 116:../../Middlewares/LVGL/GUI/lvgl/src/misc/cache/lv_cache_entry.c **** {
 414              		.loc 1 116 1 view -0
 415              		.cfi_startproc
 416              		@ args = 0, pretend = 0, frame = 0
 417              		@ frame_needed = 0, uses_anonymous_args = 0
 117:../../Middlewares/LVGL/GUI/lvgl/src/misc/cache/lv_cache_entry.c ****     LV_UNUSED(user_data);
 418              		.loc 1 117 5 view .LVU134
 118:../../Middlewares/LVGL/GUI/lvgl/src/misc/cache/lv_cache_entry.c **** 
 119:../../Middlewares/LVGL/GUI/lvgl/src/misc/cache/lv_cache_entry.c ****     LV_ASSERT_NULL(entry);
 419              		.loc 1 119 5 view .LVU135
 420              		.loc 1 119 5 view .LVU136
 421 0000 28B1     		cbz	r0, .L35
ARM GAS  C:\Users\28576\AppData\Local\Temp\ccuvYuDt.s 			page 11


 116:../../Middlewares/LVGL/GUI/lvgl/src/misc/cache/lv_cache_entry.c ****     LV_UNUSED(user_data);
 422              		.loc 1 116 1 is_stmt 0 view .LVU137
 423 0002 10B5     		push	{r4, lr}
 424              	.LCFI2:
 425              		.cfi_def_cfa_offset 8
 426              		.cfi_offset 4, -8
 427              		.cfi_offset 14, -4
 428              		.loc 1 119 5 is_stmt 1 view .LVU138
 429              		.loc 1 119 26 view .LVU139
 120:../../Middlewares/LVGL/GUI/lvgl/src/misc/cache/lv_cache_entry.c ****     if(lv_cache_entry_get_ref(entry) == 0) {
 430              		.loc 1 120 5 view .LVU140
 431              		.loc 1 120 8 is_stmt 0 view .LVU141
 432 0004 0446     		mov	r4, r0
 433 0006 FFF7FEFF 		bl	lv_cache_entry_get_ref
 434              	.LVL21:
 435              		.loc 1 120 7 discriminator 1 view .LVU142
 436 000a 08B9     		cbnz	r0, .L39
 437              	.L33:
 121:../../Middlewares/LVGL/GUI/lvgl/src/misc/cache/lv_cache_entry.c ****         LV_LOG_ERROR("ref_cnt(%" LV_PRIu32 ") == 0", entry->ref_cnt);
 122:../../Middlewares/LVGL/GUI/lvgl/src/misc/cache/lv_cache_entry.c ****         return;
 123:../../Middlewares/LVGL/GUI/lvgl/src/misc/cache/lv_cache_entry.c ****     }
 124:../../Middlewares/LVGL/GUI/lvgl/src/misc/cache/lv_cache_entry.c **** 
 125:../../Middlewares/LVGL/GUI/lvgl/src/misc/cache/lv_cache_entry.c ****     lv_cache_entry_dec_ref(entry);
 126:../../Middlewares/LVGL/GUI/lvgl/src/misc/cache/lv_cache_entry.c **** }
 438              		.loc 1 126 1 view .LVU143
 439 000c 10BD     		pop	{r4, pc}
 440              	.LVL22:
 441              	.L35:
 442              	.LCFI3:
 443              		.cfi_def_cfa_offset 0
 444              		.cfi_restore 4
 445              		.cfi_restore 14
 119:../../Middlewares/LVGL/GUI/lvgl/src/misc/cache/lv_cache_entry.c ****     if(lv_cache_entry_get_ref(entry) == 0) {
 446              		.loc 1 119 5 is_stmt 1 view .LVU144
 119:../../Middlewares/LVGL/GUI/lvgl/src/misc/cache/lv_cache_entry.c ****     if(lv_cache_entry_get_ref(entry) == 0) {
 447              		.loc 1 119 5 view .LVU145
 119:../../Middlewares/LVGL/GUI/lvgl/src/misc/cache/lv_cache_entry.c ****     if(lv_cache_entry_get_ref(entry) == 0) {
 448              		.loc 1 119 5 view .LVU146
 119:../../Middlewares/LVGL/GUI/lvgl/src/misc/cache/lv_cache_entry.c ****     if(lv_cache_entry_get_ref(entry) == 0) {
 449              		.loc 1 119 5 view .LVU147
 119:../../Middlewares/LVGL/GUI/lvgl/src/misc/cache/lv_cache_entry.c ****     if(lv_cache_entry_get_ref(entry) == 0) {
 450              		.loc 1 119 5 view .LVU148
 451 000e FEE7     		b	.L35
 452              	.LVL23:
 453              	.L39:
 454              	.LCFI4:
 455              		.cfi_def_cfa_offset 8
 456              		.cfi_offset 4, -8
 457              		.cfi_offset 14, -4
 125:../../Middlewares/LVGL/GUI/lvgl/src/misc/cache/lv_cache_entry.c **** }
 458              		.loc 1 125 5 view .LVU149
 459 0010 2046     		mov	r0, r4
 460 0012 FFF7FEFF 		bl	lv_cache_entry_dec_ref
 461              	.LVL24:
 462 0016 F9E7     		b	.L33
 463              		.cfi_endproc
 464              	.LFE27:
ARM GAS  C:\Users\28576\AppData\Local\Temp\ccuvYuDt.s 			page 12


 466              		.section	.text.lv_cache_entry_get_entry,"ax",%progbits
 467              		.align	1
 468              		.global	lv_cache_entry_get_entry
 469              		.syntax unified
 470              		.thumb
 471              		.thumb_func
 473              	lv_cache_entry_get_entry:
 474              	.LVL25:
 475              	.LFB28:
 127:../../Middlewares/LVGL/GUI/lvgl/src/misc/cache/lv_cache_entry.c **** 
 128:../../Middlewares/LVGL/GUI/lvgl/src/misc/cache/lv_cache_entry.c **** lv_cache_entry_t * lv_cache_entry_get_entry(void * data, const uint32_t node_size)
 129:../../Middlewares/LVGL/GUI/lvgl/src/misc/cache/lv_cache_entry.c **** {
 476              		.loc 1 129 1 view -0
 477              		.cfi_startproc
 478              		@ args = 0, pretend = 0, frame = 0
 479              		@ frame_needed = 0, uses_anonymous_args = 0
 480              		@ link register save eliminated.
 130:../../Middlewares/LVGL/GUI/lvgl/src/misc/cache/lv_cache_entry.c ****     LV_ASSERT_NULL(data);
 481              		.loc 1 130 5 view .LVU151
 482              		.loc 1 130 5 view .LVU152
 483 0000 08B1     		cbz	r0, .L42
 484              		.loc 1 130 5 view .LVU153
 485              		.loc 1 130 25 view .LVU154
 131:../../Middlewares/LVGL/GUI/lvgl/src/misc/cache/lv_cache_entry.c ****     return (lv_cache_entry_t *)((uint8_t *)data + node_size);
 486              		.loc 1 131 5 view .LVU155
 132:../../Middlewares/LVGL/GUI/lvgl/src/misc/cache/lv_cache_entry.c **** }
 487              		.loc 1 132 1 is_stmt 0 view .LVU156
 488 0002 0844     		add	r0, r0, r1
 489              	.LVL26:
 490              		.loc 1 132 1 view .LVU157
 491 0004 7047     		bx	lr
 492              	.LVL27:
 493              	.L42:
 130:../../Middlewares/LVGL/GUI/lvgl/src/misc/cache/lv_cache_entry.c ****     LV_ASSERT_NULL(data);
 494              		.loc 1 130 5 is_stmt 1 view .LVU158
 130:../../Middlewares/LVGL/GUI/lvgl/src/misc/cache/lv_cache_entry.c ****     LV_ASSERT_NULL(data);
 495              		.loc 1 130 5 view .LVU159
 130:../../Middlewares/LVGL/GUI/lvgl/src/misc/cache/lv_cache_entry.c ****     LV_ASSERT_NULL(data);
 496              		.loc 1 130 5 view .LVU160
 130:../../Middlewares/LVGL/GUI/lvgl/src/misc/cache/lv_cache_entry.c ****     LV_ASSERT_NULL(data);
 497              		.loc 1 130 5 view .LVU161
 130:../../Middlewares/LVGL/GUI/lvgl/src/misc/cache/lv_cache_entry.c ****     LV_ASSERT_NULL(data);
 498              		.loc 1 130 5 view .LVU162
 499 0006 FEE7     		b	.L42
 500              		.cfi_endproc
 501              	.LFE28:
 503              		.section	.text.lv_cache_entry_set_cache,"ax",%progbits
 504              		.align	1
 505              		.global	lv_cache_entry_set_cache
 506              		.syntax unified
 507              		.thumb
 508              		.thumb_func
 510              	lv_cache_entry_set_cache:
 511              	.LVL28:
 512              	.LFB29:
 133:../../Middlewares/LVGL/GUI/lvgl/src/misc/cache/lv_cache_entry.c **** 
 134:../../Middlewares/LVGL/GUI/lvgl/src/misc/cache/lv_cache_entry.c **** void lv_cache_entry_set_cache(lv_cache_entry_t * entry, const lv_cache_t * cache)
ARM GAS  C:\Users\28576\AppData\Local\Temp\ccuvYuDt.s 			page 13


 135:../../Middlewares/LVGL/GUI/lvgl/src/misc/cache/lv_cache_entry.c **** {
 513              		.loc 1 135 1 view -0
 514              		.cfi_startproc
 515              		@ args = 0, pretend = 0, frame = 0
 516              		@ frame_needed = 0, uses_anonymous_args = 0
 517              		@ link register save eliminated.
 136:../../Middlewares/LVGL/GUI/lvgl/src/misc/cache/lv_cache_entry.c ****     LV_ASSERT_NULL(entry);
 518              		.loc 1 136 5 view .LVU164
 519              		.loc 1 136 5 view .LVU165
 520 0000 08B1     		cbz	r0, .L45
 521              		.loc 1 136 5 view .LVU166
 522              		.loc 1 136 26 view .LVU167
 137:../../Middlewares/LVGL/GUI/lvgl/src/misc/cache/lv_cache_entry.c ****     entry->cache = cache;
 523              		.loc 1 137 5 view .LVU168
 524              		.loc 1 137 18 is_stmt 0 view .LVU169
 525 0002 0160     		str	r1, [r0]
 138:../../Middlewares/LVGL/GUI/lvgl/src/misc/cache/lv_cache_entry.c **** }
 526              		.loc 1 138 1 view .LVU170
 527 0004 7047     		bx	lr
 528              	.L45:
 136:../../Middlewares/LVGL/GUI/lvgl/src/misc/cache/lv_cache_entry.c ****     LV_ASSERT_NULL(entry);
 529              		.loc 1 136 5 is_stmt 1 view .LVU171
 136:../../Middlewares/LVGL/GUI/lvgl/src/misc/cache/lv_cache_entry.c ****     LV_ASSERT_NULL(entry);
 530              		.loc 1 136 5 view .LVU172
 136:../../Middlewares/LVGL/GUI/lvgl/src/misc/cache/lv_cache_entry.c ****     LV_ASSERT_NULL(entry);
 531              		.loc 1 136 5 view .LVU173
 136:../../Middlewares/LVGL/GUI/lvgl/src/misc/cache/lv_cache_entry.c ****     LV_ASSERT_NULL(entry);
 532              		.loc 1 136 5 view .LVU174
 136:../../Middlewares/LVGL/GUI/lvgl/src/misc/cache/lv_cache_entry.c ****     LV_ASSERT_NULL(entry);
 533              		.loc 1 136 5 view .LVU175
 534 0006 FEE7     		b	.L45
 535              		.cfi_endproc
 536              	.LFE29:
 538              		.section	.text.lv_cache_entry_get_cache,"ax",%progbits
 539              		.align	1
 540              		.global	lv_cache_entry_get_cache
 541              		.syntax unified
 542              		.thumb
 543              		.thumb_func
 545              	lv_cache_entry_get_cache:
 546              	.LVL29:
 547              	.LFB30:
 139:../../Middlewares/LVGL/GUI/lvgl/src/misc/cache/lv_cache_entry.c **** 
 140:../../Middlewares/LVGL/GUI/lvgl/src/misc/cache/lv_cache_entry.c **** const lv_cache_t * lv_cache_entry_get_cache(const lv_cache_entry_t * entry)
 141:../../Middlewares/LVGL/GUI/lvgl/src/misc/cache/lv_cache_entry.c **** {
 548              		.loc 1 141 1 view -0
 549              		.cfi_startproc
 550              		@ args = 0, pretend = 0, frame = 0
 551              		@ frame_needed = 0, uses_anonymous_args = 0
 552              		@ link register save eliminated.
 142:../../Middlewares/LVGL/GUI/lvgl/src/misc/cache/lv_cache_entry.c ****     LV_ASSERT_NULL(entry);
 553              		.loc 1 142 5 view .LVU177
 554              		.loc 1 142 5 view .LVU178
 555 0000 08B1     		cbz	r0, .L48
 556              		.loc 1 142 5 view .LVU179
 557              		.loc 1 142 26 view .LVU180
 143:../../Middlewares/LVGL/GUI/lvgl/src/misc/cache/lv_cache_entry.c ****     return entry->cache;
ARM GAS  C:\Users\28576\AppData\Local\Temp\ccuvYuDt.s 			page 14


 558              		.loc 1 143 5 view .LVU181
 144:../../Middlewares/LVGL/GUI/lvgl/src/misc/cache/lv_cache_entry.c **** }
 559              		.loc 1 144 1 is_stmt 0 view .LVU182
 560 0002 0068     		ldr	r0, [r0]
 561              	.LVL30:
 562              		.loc 1 144 1 view .LVU183
 563 0004 7047     		bx	lr
 564              	.LVL31:
 565              	.L48:
 142:../../Middlewares/LVGL/GUI/lvgl/src/misc/cache/lv_cache_entry.c ****     LV_ASSERT_NULL(entry);
 566              		.loc 1 142 5 is_stmt 1 view .LVU184
 142:../../Middlewares/LVGL/GUI/lvgl/src/misc/cache/lv_cache_entry.c ****     LV_ASSERT_NULL(entry);
 567              		.loc 1 142 5 view .LVU185
 142:../../Middlewares/LVGL/GUI/lvgl/src/misc/cache/lv_cache_entry.c ****     LV_ASSERT_NULL(entry);
 568              		.loc 1 142 5 view .LVU186
 142:../../Middlewares/LVGL/GUI/lvgl/src/misc/cache/lv_cache_entry.c ****     LV_ASSERT_NULL(entry);
 569              		.loc 1 142 5 view .LVU187
 142:../../Middlewares/LVGL/GUI/lvgl/src/misc/cache/lv_cache_entry.c ****     LV_ASSERT_NULL(entry);
 570              		.loc 1 142 5 view .LVU188
 571 0006 FEE7     		b	.L48
 572              		.cfi_endproc
 573              	.LFE30:
 575              		.section	.text.lv_cache_entry_get_size,"ax",%progbits
 576              		.align	1
 577              		.global	lv_cache_entry_get_size
 578              		.syntax unified
 579              		.thumb
 580              		.thumb_func
 582              	lv_cache_entry_get_size:
 583              	.LVL32:
 584              	.LFB31:
 145:../../Middlewares/LVGL/GUI/lvgl/src/misc/cache/lv_cache_entry.c **** 
 146:../../Middlewares/LVGL/GUI/lvgl/src/misc/cache/lv_cache_entry.c **** uint32_t lv_cache_entry_get_size(const uint32_t node_size)
 147:../../Middlewares/LVGL/GUI/lvgl/src/misc/cache/lv_cache_entry.c **** {
 585              		.loc 1 147 1 view -0
 586              		.cfi_startproc
 587              		@ args = 0, pretend = 0, frame = 0
 588              		@ frame_needed = 0, uses_anonymous_args = 0
 589              		@ link register save eliminated.
 148:../../Middlewares/LVGL/GUI/lvgl/src/misc/cache/lv_cache_entry.c ****     return node_size + sizeof(lv_cache_entry_t);
 590              		.loc 1 148 5 view .LVU190
 149:../../Middlewares/LVGL/GUI/lvgl/src/misc/cache/lv_cache_entry.c **** }
 591              		.loc 1 149 1 is_stmt 0 view .LVU191
 592 0000 1030     		adds	r0, r0, #16
 593              	.LVL33:
 594              		.loc 1 149 1 view .LVU192
 595 0002 7047     		bx	lr
 596              		.cfi_endproc
 597              	.LFE31:
 599              		.section	.text.lv_cache_entry_init,"ax",%progbits
 600              		.align	1
 601              		.global	lv_cache_entry_init
 602              		.syntax unified
 603              		.thumb
 604              		.thumb_func
 606              	lv_cache_entry_init:
 607              	.LVL34:
ARM GAS  C:\Users\28576\AppData\Local\Temp\ccuvYuDt.s 			page 15


 608              	.LFB33:
 150:../../Middlewares/LVGL/GUI/lvgl/src/misc/cache/lv_cache_entry.c **** 
 151:../../Middlewares/LVGL/GUI/lvgl/src/misc/cache/lv_cache_entry.c **** lv_cache_entry_t * lv_cache_entry_alloc(const uint32_t node_size, const lv_cache_t * cache)
 152:../../Middlewares/LVGL/GUI/lvgl/src/misc/cache/lv_cache_entry.c **** {
 153:../../Middlewares/LVGL/GUI/lvgl/src/misc/cache/lv_cache_entry.c ****     void * res = lv_malloc_zeroed(lv_cache_entry_get_size(node_size));
 154:../../Middlewares/LVGL/GUI/lvgl/src/misc/cache/lv_cache_entry.c ****     LV_ASSERT_MALLOC(res)
 155:../../Middlewares/LVGL/GUI/lvgl/src/misc/cache/lv_cache_entry.c ****     if(res == NULL) {
 156:../../Middlewares/LVGL/GUI/lvgl/src/misc/cache/lv_cache_entry.c ****         LV_LOG_ERROR("malloc failed");
 157:../../Middlewares/LVGL/GUI/lvgl/src/misc/cache/lv_cache_entry.c ****         return NULL;
 158:../../Middlewares/LVGL/GUI/lvgl/src/misc/cache/lv_cache_entry.c ****     }
 159:../../Middlewares/LVGL/GUI/lvgl/src/misc/cache/lv_cache_entry.c ****     lv_cache_entry_t * entry = (lv_cache_entry_t *)res;
 160:../../Middlewares/LVGL/GUI/lvgl/src/misc/cache/lv_cache_entry.c ****     lv_cache_entry_init(entry, cache, node_size);
 161:../../Middlewares/LVGL/GUI/lvgl/src/misc/cache/lv_cache_entry.c ****     return (lv_cache_entry_t *)((uint8_t *)entry + node_size);
 162:../../Middlewares/LVGL/GUI/lvgl/src/misc/cache/lv_cache_entry.c **** }
 163:../../Middlewares/LVGL/GUI/lvgl/src/misc/cache/lv_cache_entry.c **** 
 164:../../Middlewares/LVGL/GUI/lvgl/src/misc/cache/lv_cache_entry.c **** void lv_cache_entry_init(lv_cache_entry_t * entry, const lv_cache_t * cache, const uint32_t node_si
 165:../../Middlewares/LVGL/GUI/lvgl/src/misc/cache/lv_cache_entry.c **** {
 609              		.loc 1 165 1 is_stmt 1 view -0
 610              		.cfi_startproc
 611              		@ args = 0, pretend = 0, frame = 0
 612              		@ frame_needed = 0, uses_anonymous_args = 0
 613              		@ link register save eliminated.
 166:../../Middlewares/LVGL/GUI/lvgl/src/misc/cache/lv_cache_entry.c ****     LV_ASSERT_NULL(entry);
 614              		.loc 1 166 5 view .LVU194
 615              		.loc 1 166 5 view .LVU195
 616 0000 30B1     		cbz	r0, .L52
 617              		.loc 1 166 5 view .LVU196
 618              		.loc 1 166 26 view .LVU197
 167:../../Middlewares/LVGL/GUI/lvgl/src/misc/cache/lv_cache_entry.c ****     LV_ASSERT_NULL(cache);
 619              		.loc 1 167 5 view .LVU198
 620              		.loc 1 167 5 view .LVU199
 621 0002 31B1     		cbz	r1, .L54
 622              		.loc 1 167 5 view .LVU200
 623              		.loc 1 167 26 view .LVU201
 168:../../Middlewares/LVGL/GUI/lvgl/src/misc/cache/lv_cache_entry.c **** 
 169:../../Middlewares/LVGL/GUI/lvgl/src/misc/cache/lv_cache_entry.c ****     entry->cache = cache;
 624              		.loc 1 169 5 view .LVU202
 625              		.loc 1 169 18 is_stmt 0 view .LVU203
 626 0004 0160     		str	r1, [r0]
 170:../../Middlewares/LVGL/GUI/lvgl/src/misc/cache/lv_cache_entry.c ****     entry->node_size = node_size;
 627              		.loc 1 170 5 is_stmt 1 view .LVU204
 628              		.loc 1 170 22 is_stmt 0 view .LVU205
 629 0006 8260     		str	r2, [r0, #8]
 171:../../Middlewares/LVGL/GUI/lvgl/src/misc/cache/lv_cache_entry.c ****     entry->ref_cnt = 0;
 630              		.loc 1 171 5 is_stmt 1 view .LVU206
 631              		.loc 1 171 20 is_stmt 0 view .LVU207
 632 0008 0022     		movs	r2, #0
 633              	.LVL35:
 634              		.loc 1 171 20 view .LVU208
 635 000a 4260     		str	r2, [r0, #4]
 172:../../Middlewares/LVGL/GUI/lvgl/src/misc/cache/lv_cache_entry.c ****     entry->is_invalid = false;
 636              		.loc 1 172 5 is_stmt 1 view .LVU209
 637              		.loc 1 172 23 is_stmt 0 view .LVU210
 638 000c 0273     		strb	r2, [r0, #12]
 173:../../Middlewares/LVGL/GUI/lvgl/src/misc/cache/lv_cache_entry.c **** }
 639              		.loc 1 173 1 view .LVU211
 640 000e 7047     		bx	lr
ARM GAS  C:\Users\28576\AppData\Local\Temp\ccuvYuDt.s 			page 16


 641              	.LVL36:
 642              	.L52:
 166:../../Middlewares/LVGL/GUI/lvgl/src/misc/cache/lv_cache_entry.c ****     LV_ASSERT_NULL(cache);
 643              		.loc 1 166 5 is_stmt 1 view .LVU212
 166:../../Middlewares/LVGL/GUI/lvgl/src/misc/cache/lv_cache_entry.c ****     LV_ASSERT_NULL(cache);
 644              		.loc 1 166 5 view .LVU213
 166:../../Middlewares/LVGL/GUI/lvgl/src/misc/cache/lv_cache_entry.c ****     LV_ASSERT_NULL(cache);
 645              		.loc 1 166 5 view .LVU214
 166:../../Middlewares/LVGL/GUI/lvgl/src/misc/cache/lv_cache_entry.c ****     LV_ASSERT_NULL(cache);
 646              		.loc 1 166 5 view .LVU215
 166:../../Middlewares/LVGL/GUI/lvgl/src/misc/cache/lv_cache_entry.c ****     LV_ASSERT_NULL(cache);
 647              		.loc 1 166 5 view .LVU216
 648 0010 FEE7     		b	.L52
 649              	.L54:
 167:../../Middlewares/LVGL/GUI/lvgl/src/misc/cache/lv_cache_entry.c **** 
 650              		.loc 1 167 5 view .LVU217
 167:../../Middlewares/LVGL/GUI/lvgl/src/misc/cache/lv_cache_entry.c **** 
 651              		.loc 1 167 5 view .LVU218
 167:../../Middlewares/LVGL/GUI/lvgl/src/misc/cache/lv_cache_entry.c **** 
 652              		.loc 1 167 5 view .LVU219
 167:../../Middlewares/LVGL/GUI/lvgl/src/misc/cache/lv_cache_entry.c **** 
 653              		.loc 1 167 5 view .LVU220
 167:../../Middlewares/LVGL/GUI/lvgl/src/misc/cache/lv_cache_entry.c **** 
 654              		.loc 1 167 5 view .LVU221
 655 0012 FEE7     		b	.L54
 656              		.cfi_endproc
 657              	.LFE33:
 659              		.section	.text.lv_cache_entry_alloc,"ax",%progbits
 660              		.align	1
 661              		.global	lv_cache_entry_alloc
 662              		.syntax unified
 663              		.thumb
 664              		.thumb_func
 666              	lv_cache_entry_alloc:
 667              	.LVL37:
 668              	.LFB32:
 152:../../Middlewares/LVGL/GUI/lvgl/src/misc/cache/lv_cache_entry.c ****     void * res = lv_malloc_zeroed(lv_cache_entry_get_size(node_size));
 669              		.loc 1 152 1 view -0
 670              		.cfi_startproc
 671              		@ args = 0, pretend = 0, frame = 0
 672              		@ frame_needed = 0, uses_anonymous_args = 0
 152:../../Middlewares/LVGL/GUI/lvgl/src/misc/cache/lv_cache_entry.c ****     void * res = lv_malloc_zeroed(lv_cache_entry_get_size(node_size));
 673              		.loc 1 152 1 is_stmt 0 view .LVU223
 674 0000 70B5     		push	{r4, r5, r6, lr}
 675              	.LCFI5:
 676              		.cfi_def_cfa_offset 16
 677              		.cfi_offset 4, -16
 678              		.cfi_offset 5, -12
 679              		.cfi_offset 6, -8
 680              		.cfi_offset 14, -4
 681 0002 0446     		mov	r4, r0
 682 0004 0E46     		mov	r6, r1
 153:../../Middlewares/LVGL/GUI/lvgl/src/misc/cache/lv_cache_entry.c ****     LV_ASSERT_MALLOC(res)
 683              		.loc 1 153 5 is_stmt 1 view .LVU224
 153:../../Middlewares/LVGL/GUI/lvgl/src/misc/cache/lv_cache_entry.c ****     LV_ASSERT_MALLOC(res)
 684              		.loc 1 153 35 is_stmt 0 view .LVU225
 685 0006 FFF7FEFF 		bl	lv_cache_entry_get_size
ARM GAS  C:\Users\28576\AppData\Local\Temp\ccuvYuDt.s 			page 17


 686              	.LVL38:
 153:../../Middlewares/LVGL/GUI/lvgl/src/misc/cache/lv_cache_entry.c ****     LV_ASSERT_MALLOC(res)
 687              		.loc 1 153 18 discriminator 1 view .LVU226
 688 000a FFF7FEFF 		bl	lv_malloc_zeroed
 689              	.LVL39:
 154:../../Middlewares/LVGL/GUI/lvgl/src/misc/cache/lv_cache_entry.c ****     if(res == NULL) {
 690              		.loc 1 154 5 is_stmt 1 view .LVU227
 154:../../Middlewares/LVGL/GUI/lvgl/src/misc/cache/lv_cache_entry.c ****     if(res == NULL) {
 691              		.loc 1 154 5 view .LVU228
 692 000e 40B1     		cbz	r0, .L57
 154:../../Middlewares/LVGL/GUI/lvgl/src/misc/cache/lv_cache_entry.c ****     if(res == NULL) {
 693              		.loc 1 154 5 view .LVU229
 155:../../Middlewares/LVGL/GUI/lvgl/src/misc/cache/lv_cache_entry.c ****         LV_LOG_ERROR("malloc failed");
 694              		.loc 1 155 5 view .LVU230
 159:../../Middlewares/LVGL/GUI/lvgl/src/misc/cache/lv_cache_entry.c ****     lv_cache_entry_init(entry, cache, node_size);
 695              		.loc 1 159 5 view .LVU231
 696              	.LVL40:
 160:../../Middlewares/LVGL/GUI/lvgl/src/misc/cache/lv_cache_entry.c ****     return (lv_cache_entry_t *)((uint8_t *)entry + node_size);
 697              		.loc 1 160 5 view .LVU232
 698 0010 2546     		mov	r5, r4
 699 0012 2246     		mov	r2, r4
 700 0014 3146     		mov	r1, r6
 701 0016 0446     		mov	r4, r0
 702              	.LVL41:
 160:../../Middlewares/LVGL/GUI/lvgl/src/misc/cache/lv_cache_entry.c ****     return (lv_cache_entry_t *)((uint8_t *)entry + node_size);
 703              		.loc 1 160 5 is_stmt 0 view .LVU233
 704 0018 FFF7FEFF 		bl	lv_cache_entry_init
 705              	.LVL42:
 161:../../Middlewares/LVGL/GUI/lvgl/src/misc/cache/lv_cache_entry.c **** }
 706              		.loc 1 161 5 is_stmt 1 view .LVU234
 162:../../Middlewares/LVGL/GUI/lvgl/src/misc/cache/lv_cache_entry.c **** 
 707              		.loc 1 162 1 is_stmt 0 view .LVU235
 708 001c 2046     		mov	r0, r4
 709 001e 2844     		add	r0, r0, r5
 710 0020 70BD     		pop	{r4, r5, r6, pc}
 711              	.LVL43:
 712              	.L57:
 154:../../Middlewares/LVGL/GUI/lvgl/src/misc/cache/lv_cache_entry.c ****     if(res == NULL) {
 713              		.loc 1 154 5 is_stmt 1 view .LVU236
 154:../../Middlewares/LVGL/GUI/lvgl/src/misc/cache/lv_cache_entry.c ****     if(res == NULL) {
 714              		.loc 1 154 5 view .LVU237
 154:../../Middlewares/LVGL/GUI/lvgl/src/misc/cache/lv_cache_entry.c ****     if(res == NULL) {
 715              		.loc 1 154 5 view .LVU238
 154:../../Middlewares/LVGL/GUI/lvgl/src/misc/cache/lv_cache_entry.c ****     if(res == NULL) {
 716              		.loc 1 154 5 view .LVU239
 154:../../Middlewares/LVGL/GUI/lvgl/src/misc/cache/lv_cache_entry.c ****     if(res == NULL) {
 717              		.loc 1 154 5 view .LVU240
 718 0022 FEE7     		b	.L57
 719              		.cfi_endproc
 720              	.LFE32:
 722              		.section	.text.lv_cache_entry_delete,"ax",%progbits
 723              		.align	1
 724              		.global	lv_cache_entry_delete
 725              		.syntax unified
 726              		.thumb
 727              		.thumb_func
 729              	lv_cache_entry_delete:
ARM GAS  C:\Users\28576\AppData\Local\Temp\ccuvYuDt.s 			page 18


 730              	.LVL44:
 731              	.LFB34:
 174:../../Middlewares/LVGL/GUI/lvgl/src/misc/cache/lv_cache_entry.c **** 
 175:../../Middlewares/LVGL/GUI/lvgl/src/misc/cache/lv_cache_entry.c **** void lv_cache_entry_delete(lv_cache_entry_t * entry)
 176:../../Middlewares/LVGL/GUI/lvgl/src/misc/cache/lv_cache_entry.c **** {
 732              		.loc 1 176 1 view -0
 733              		.cfi_startproc
 734              		@ args = 0, pretend = 0, frame = 0
 735              		@ frame_needed = 0, uses_anonymous_args = 0
 177:../../Middlewares/LVGL/GUI/lvgl/src/misc/cache/lv_cache_entry.c ****     LV_ASSERT_NULL(entry);
 736              		.loc 1 177 5 view .LVU242
 737              		.loc 1 177 5 view .LVU243
 738 0000 28B1     		cbz	r0, .L61
 176:../../Middlewares/LVGL/GUI/lvgl/src/misc/cache/lv_cache_entry.c ****     LV_ASSERT_NULL(entry);
 739              		.loc 1 176 1 is_stmt 0 view .LVU244
 740 0002 08B5     		push	{r3, lr}
 741              	.LCFI6:
 742              		.cfi_def_cfa_offset 8
 743              		.cfi_offset 3, -8
 744              		.cfi_offset 14, -4
 745              		.loc 1 177 5 is_stmt 1 view .LVU245
 746              		.loc 1 177 26 view .LVU246
 178:../../Middlewares/LVGL/GUI/lvgl/src/misc/cache/lv_cache_entry.c **** 
 179:../../Middlewares/LVGL/GUI/lvgl/src/misc/cache/lv_cache_entry.c ****     void * data = lv_cache_entry_get_data(entry);
 747              		.loc 1 179 5 view .LVU247
 748              		.loc 1 179 19 is_stmt 0 view .LVU248
 749 0004 FFF7FEFF 		bl	lv_cache_entry_get_data
 750              	.LVL45:
 180:../../Middlewares/LVGL/GUI/lvgl/src/misc/cache/lv_cache_entry.c ****     lv_free(data);
 751              		.loc 1 180 5 is_stmt 1 view .LVU249
 752 0008 FFF7FEFF 		bl	lv_free
 753              	.LVL46:
 181:../../Middlewares/LVGL/GUI/lvgl/src/misc/cache/lv_cache_entry.c **** }
 754              		.loc 1 181 1 is_stmt 0 view .LVU250
 755 000c 08BD     		pop	{r3, pc}
 756              	.LVL47:
 757              	.L61:
 758              	.LCFI7:
 759              		.cfi_def_cfa_offset 0
 760              		.cfi_restore 3
 761              		.cfi_restore 14
 177:../../Middlewares/LVGL/GUI/lvgl/src/misc/cache/lv_cache_entry.c **** 
 762              		.loc 1 177 5 is_stmt 1 view .LVU251
 177:../../Middlewares/LVGL/GUI/lvgl/src/misc/cache/lv_cache_entry.c **** 
 763              		.loc 1 177 5 view .LVU252
 177:../../Middlewares/LVGL/GUI/lvgl/src/misc/cache/lv_cache_entry.c **** 
 764              		.loc 1 177 5 view .LVU253
 177:../../Middlewares/LVGL/GUI/lvgl/src/misc/cache/lv_cache_entry.c **** 
 765              		.loc 1 177 5 view .LVU254
 177:../../Middlewares/LVGL/GUI/lvgl/src/misc/cache/lv_cache_entry.c **** 
 766              		.loc 1 177 5 view .LVU255
 767 000e FEE7     		b	.L61
 768              		.cfi_endproc
 769              	.LFE34:
 771              		.text
 772              	.Letext0:
 773              		.file 2 "C:/Users/28576/AppData/Roaming/xPacks/@xpack-dev-tools/arm-none-eabi-gcc/15.2.1-1.1.1/.co
ARM GAS  C:\Users\28576\AppData\Local\Temp\ccuvYuDt.s 			page 19


 774              		.file 3 "C:/Users/28576/AppData/Roaming/xPacks/@xpack-dev-tools/arm-none-eabi-gcc/15.2.1-1.1.1/.co
 775              		.file 4 "C:/Users/28576/AppData/Roaming/xPacks/@xpack-dev-tools/arm-none-eabi-gcc/15.2.1-1.1.1/.co
 776              		.file 5 "../../Middlewares/LVGL/GUI/lvgl/src/misc/cache/../lv_types.h"
 777              		.file 6 "../../Middlewares/LVGL/GUI/lvgl/src/misc/cache/class/../lv_cache_private.h"
 778              		.file 7 "H:/STM32H7/RGB_LVGL/Middlewares/LVGL/GUI/lvgl/src/osal/lv_os_none.h"
 779              		.file 8 "H:/STM32H7/RGB_LVGL/Middlewares/LVGL/GUI/lvgl/src/stdlib/lv_mem.h"
ARM GAS  C:\Users\28576\AppData\Local\Temp\ccuvYuDt.s 			page 20

