ARM GAS  C:\Users\28576\AppData\Local\Temp\ccBAh4dU.s 			page 1


   1              		.cpu cortex-m7
   2              		.arch armv7e-m
   3              		.fpu fpv5-d16
   4              		.eabi_attribute 28, 1
   5              		.eabi_attribute 20, 1
   6              		.eabi_attribute 21, 1
   7              		.eabi_attribute 23, 3
   8              		.eabi_attribute 24, 1
   9              		.eabi_attribute 25, 1
  10              		.eabi_attribute 26, 1
  11              		.eabi_attribute 30, 1
  12              		.eabi_attribute 34, 1
  13              		.eabi_attribute 18, 4
  14              		.file	"lv_calendar.c"
  15              		.text
  16              	.Ltext0:
  17              		.cfi_sections	.debug_frame
  18              		.file 1 "../../Middlewares/LVGL/GUI/lvgl/src/widgets/calendar/lv_calendar.c"
  19              		.section	.text.is_leap_year,"ax",%progbits
  20              		.align	1
  21              		.syntax unified
  22              		.thumb
  23              		.thumb_func
  25              	is_leap_year:
  26              	.LVL0:
  27              	.LFB210:
   1:../../Middlewares/LVGL/GUI/lvgl/src/widgets/calendar/lv_calendar.c **** /**
   2:../../Middlewares/LVGL/GUI/lvgl/src/widgets/calendar/lv_calendar.c ****  * @file lv_calendar.c
   3:../../Middlewares/LVGL/GUI/lvgl/src/widgets/calendar/lv_calendar.c ****  *
   4:../../Middlewares/LVGL/GUI/lvgl/src/widgets/calendar/lv_calendar.c ****  */
   5:../../Middlewares/LVGL/GUI/lvgl/src/widgets/calendar/lv_calendar.c **** 
   6:../../Middlewares/LVGL/GUI/lvgl/src/widgets/calendar/lv_calendar.c **** /*********************
   7:../../Middlewares/LVGL/GUI/lvgl/src/widgets/calendar/lv_calendar.c ****  *      INCLUDES
   8:../../Middlewares/LVGL/GUI/lvgl/src/widgets/calendar/lv_calendar.c ****  *********************/
   9:../../Middlewares/LVGL/GUI/lvgl/src/widgets/calendar/lv_calendar.c **** #include "lv_calendar_private.h"
  10:../../Middlewares/LVGL/GUI/lvgl/src/widgets/calendar/lv_calendar.c **** #include "../../draw/lv_draw_private.h"
  11:../../Middlewares/LVGL/GUI/lvgl/src/widgets/calendar/lv_calendar.c **** #include "../../core/lv_obj_class_private.h"
  12:../../Middlewares/LVGL/GUI/lvgl/src/widgets/calendar/lv_calendar.c **** #include "../../../lvgl.h"
  13:../../Middlewares/LVGL/GUI/lvgl/src/widgets/calendar/lv_calendar.c **** #if LV_USE_CALENDAR
  14:../../Middlewares/LVGL/GUI/lvgl/src/widgets/calendar/lv_calendar.c **** 
  15:../../Middlewares/LVGL/GUI/lvgl/src/widgets/calendar/lv_calendar.c **** #include "../../misc/lv_assert.h"
  16:../../Middlewares/LVGL/GUI/lvgl/src/widgets/calendar/lv_calendar.c **** 
  17:../../Middlewares/LVGL/GUI/lvgl/src/widgets/calendar/lv_calendar.c **** /*********************
  18:../../Middlewares/LVGL/GUI/lvgl/src/widgets/calendar/lv_calendar.c ****  *      DEFINES
  19:../../Middlewares/LVGL/GUI/lvgl/src/widgets/calendar/lv_calendar.c ****  *********************/
  20:../../Middlewares/LVGL/GUI/lvgl/src/widgets/calendar/lv_calendar.c **** #define LV_CALENDAR_CTRL_TODAY      LV_BUTTONMATRIX_CTRL_CUSTOM_1
  21:../../Middlewares/LVGL/GUI/lvgl/src/widgets/calendar/lv_calendar.c **** #define LV_CALENDAR_CTRL_HIGHLIGHT  LV_BUTTONMATRIX_CTRL_CUSTOM_2
  22:../../Middlewares/LVGL/GUI/lvgl/src/widgets/calendar/lv_calendar.c **** 
  23:../../Middlewares/LVGL/GUI/lvgl/src/widgets/calendar/lv_calendar.c **** #define MY_CLASS (&lv_calendar_class)
  24:../../Middlewares/LVGL/GUI/lvgl/src/widgets/calendar/lv_calendar.c **** 
  25:../../Middlewares/LVGL/GUI/lvgl/src/widgets/calendar/lv_calendar.c **** /**********************
  26:../../Middlewares/LVGL/GUI/lvgl/src/widgets/calendar/lv_calendar.c ****  *      TYPEDEFS
  27:../../Middlewares/LVGL/GUI/lvgl/src/widgets/calendar/lv_calendar.c ****  **********************/
  28:../../Middlewares/LVGL/GUI/lvgl/src/widgets/calendar/lv_calendar.c **** 
  29:../../Middlewares/LVGL/GUI/lvgl/src/widgets/calendar/lv_calendar.c **** /**********************
  30:../../Middlewares/LVGL/GUI/lvgl/src/widgets/calendar/lv_calendar.c ****  *  STATIC PROTOTYPES
  31:../../Middlewares/LVGL/GUI/lvgl/src/widgets/calendar/lv_calendar.c ****  **********************/
ARM GAS  C:\Users\28576\AppData\Local\Temp\ccBAh4dU.s 			page 2


  32:../../Middlewares/LVGL/GUI/lvgl/src/widgets/calendar/lv_calendar.c **** static void lv_calendar_constructor(const lv_obj_class_t * class_p, lv_obj_t * obj);
  33:../../Middlewares/LVGL/GUI/lvgl/src/widgets/calendar/lv_calendar.c **** static void draw_task_added_event_cb(lv_event_t * e);
  34:../../Middlewares/LVGL/GUI/lvgl/src/widgets/calendar/lv_calendar.c **** 
  35:../../Middlewares/LVGL/GUI/lvgl/src/widgets/calendar/lv_calendar.c **** static uint8_t get_day_of_week(uint32_t year, uint32_t month, uint32_t day);
  36:../../Middlewares/LVGL/GUI/lvgl/src/widgets/calendar/lv_calendar.c **** static uint8_t get_month_length(int32_t year, int32_t month);
  37:../../Middlewares/LVGL/GUI/lvgl/src/widgets/calendar/lv_calendar.c **** static uint8_t is_leap_year(uint32_t year);
  38:../../Middlewares/LVGL/GUI/lvgl/src/widgets/calendar/lv_calendar.c **** static void highlight_update(lv_obj_t * calendar);
  39:../../Middlewares/LVGL/GUI/lvgl/src/widgets/calendar/lv_calendar.c **** 
  40:../../Middlewares/LVGL/GUI/lvgl/src/widgets/calendar/lv_calendar.c **** #if LV_USE_CALENDAR_CHINESE
  41:../../Middlewares/LVGL/GUI/lvgl/src/widgets/calendar/lv_calendar.c **** static lv_calendar_date_t gregorian_get_last_month_time(lv_calendar_date_t * time);
  42:../../Middlewares/LVGL/GUI/lvgl/src/widgets/calendar/lv_calendar.c **** static lv_calendar_date_t gregorian_get_next_month_time(lv_calendar_date_t * time);
  43:../../Middlewares/LVGL/GUI/lvgl/src/widgets/calendar/lv_calendar.c **** static void chinese_calendar_set_day_name(lv_obj_t * calendar, uint8_t index, uint8_t day,
  44:../../Middlewares/LVGL/GUI/lvgl/src/widgets/calendar/lv_calendar.c ****                                           lv_calendar_date_t * gregorian_time);
  45:../../Middlewares/LVGL/GUI/lvgl/src/widgets/calendar/lv_calendar.c **** #endif
  46:../../Middlewares/LVGL/GUI/lvgl/src/widgets/calendar/lv_calendar.c **** 
  47:../../Middlewares/LVGL/GUI/lvgl/src/widgets/calendar/lv_calendar.c **** /**********************
  48:../../Middlewares/LVGL/GUI/lvgl/src/widgets/calendar/lv_calendar.c ****  *  STATIC VARIABLES
  49:../../Middlewares/LVGL/GUI/lvgl/src/widgets/calendar/lv_calendar.c ****  **********************/
  50:../../Middlewares/LVGL/GUI/lvgl/src/widgets/calendar/lv_calendar.c **** 
  51:../../Middlewares/LVGL/GUI/lvgl/src/widgets/calendar/lv_calendar.c **** const lv_obj_class_t lv_calendar_class = {
  52:../../Middlewares/LVGL/GUI/lvgl/src/widgets/calendar/lv_calendar.c ****     .constructor_cb = lv_calendar_constructor,
  53:../../Middlewares/LVGL/GUI/lvgl/src/widgets/calendar/lv_calendar.c ****     .width_def = (LV_DPI_DEF * 3) / 2,
  54:../../Middlewares/LVGL/GUI/lvgl/src/widgets/calendar/lv_calendar.c ****     .height_def = (LV_DPI_DEF * 3) / 2,
  55:../../Middlewares/LVGL/GUI/lvgl/src/widgets/calendar/lv_calendar.c ****     .group_def = LV_OBJ_CLASS_GROUP_DEF_TRUE,
  56:../../Middlewares/LVGL/GUI/lvgl/src/widgets/calendar/lv_calendar.c ****     .instance_size = sizeof(lv_calendar_t),
  57:../../Middlewares/LVGL/GUI/lvgl/src/widgets/calendar/lv_calendar.c ****     .base_class = &lv_obj_class,
  58:../../Middlewares/LVGL/GUI/lvgl/src/widgets/calendar/lv_calendar.c ****     .name = "lv_calendar",
  59:../../Middlewares/LVGL/GUI/lvgl/src/widgets/calendar/lv_calendar.c **** };
  60:../../Middlewares/LVGL/GUI/lvgl/src/widgets/calendar/lv_calendar.c **** 
  61:../../Middlewares/LVGL/GUI/lvgl/src/widgets/calendar/lv_calendar.c **** static const char * day_names_def[7] = LV_CALENDAR_DEFAULT_DAY_NAMES;
  62:../../Middlewares/LVGL/GUI/lvgl/src/widgets/calendar/lv_calendar.c **** 
  63:../../Middlewares/LVGL/GUI/lvgl/src/widgets/calendar/lv_calendar.c **** /**********************
  64:../../Middlewares/LVGL/GUI/lvgl/src/widgets/calendar/lv_calendar.c ****  *      MACROS
  65:../../Middlewares/LVGL/GUI/lvgl/src/widgets/calendar/lv_calendar.c ****  **********************/
  66:../../Middlewares/LVGL/GUI/lvgl/src/widgets/calendar/lv_calendar.c **** 
  67:../../Middlewares/LVGL/GUI/lvgl/src/widgets/calendar/lv_calendar.c **** /**********************
  68:../../Middlewares/LVGL/GUI/lvgl/src/widgets/calendar/lv_calendar.c ****  *   GLOBAL FUNCTIONS
  69:../../Middlewares/LVGL/GUI/lvgl/src/widgets/calendar/lv_calendar.c ****  **********************/
  70:../../Middlewares/LVGL/GUI/lvgl/src/widgets/calendar/lv_calendar.c **** 
  71:../../Middlewares/LVGL/GUI/lvgl/src/widgets/calendar/lv_calendar.c **** lv_obj_t * lv_calendar_create(lv_obj_t * parent)
  72:../../Middlewares/LVGL/GUI/lvgl/src/widgets/calendar/lv_calendar.c **** {
  73:../../Middlewares/LVGL/GUI/lvgl/src/widgets/calendar/lv_calendar.c ****     LV_LOG_INFO("begin");
  74:../../Middlewares/LVGL/GUI/lvgl/src/widgets/calendar/lv_calendar.c ****     lv_obj_t * obj = lv_obj_class_create_obj(&lv_calendar_class, parent);
  75:../../Middlewares/LVGL/GUI/lvgl/src/widgets/calendar/lv_calendar.c ****     lv_obj_class_init_obj(obj);
  76:../../Middlewares/LVGL/GUI/lvgl/src/widgets/calendar/lv_calendar.c ****     return obj;
  77:../../Middlewares/LVGL/GUI/lvgl/src/widgets/calendar/lv_calendar.c **** }
  78:../../Middlewares/LVGL/GUI/lvgl/src/widgets/calendar/lv_calendar.c **** 
  79:../../Middlewares/LVGL/GUI/lvgl/src/widgets/calendar/lv_calendar.c **** /*=====================
  80:../../Middlewares/LVGL/GUI/lvgl/src/widgets/calendar/lv_calendar.c ****  * Setter functions
  81:../../Middlewares/LVGL/GUI/lvgl/src/widgets/calendar/lv_calendar.c ****  *====================*/
  82:../../Middlewares/LVGL/GUI/lvgl/src/widgets/calendar/lv_calendar.c **** 
  83:../../Middlewares/LVGL/GUI/lvgl/src/widgets/calendar/lv_calendar.c **** void lv_calendar_set_day_names(lv_obj_t * obj, const char * day_names[])
  84:../../Middlewares/LVGL/GUI/lvgl/src/widgets/calendar/lv_calendar.c **** {
  85:../../Middlewares/LVGL/GUI/lvgl/src/widgets/calendar/lv_calendar.c ****     LV_ASSERT_OBJ(obj, MY_CLASS);
  86:../../Middlewares/LVGL/GUI/lvgl/src/widgets/calendar/lv_calendar.c ****     lv_calendar_t * calendar = (lv_calendar_t *)obj;
  87:../../Middlewares/LVGL/GUI/lvgl/src/widgets/calendar/lv_calendar.c **** 
  88:../../Middlewares/LVGL/GUI/lvgl/src/widgets/calendar/lv_calendar.c ****     uint32_t i;
ARM GAS  C:\Users\28576\AppData\Local\Temp\ccBAh4dU.s 			page 3


  89:../../Middlewares/LVGL/GUI/lvgl/src/widgets/calendar/lv_calendar.c ****     for(i = 0; i < 7; i++) {
  90:../../Middlewares/LVGL/GUI/lvgl/src/widgets/calendar/lv_calendar.c ****         calendar->map[i] = day_names[i];
  91:../../Middlewares/LVGL/GUI/lvgl/src/widgets/calendar/lv_calendar.c ****     }
  92:../../Middlewares/LVGL/GUI/lvgl/src/widgets/calendar/lv_calendar.c ****     lv_obj_invalidate(obj);
  93:../../Middlewares/LVGL/GUI/lvgl/src/widgets/calendar/lv_calendar.c **** }
  94:../../Middlewares/LVGL/GUI/lvgl/src/widgets/calendar/lv_calendar.c **** 
  95:../../Middlewares/LVGL/GUI/lvgl/src/widgets/calendar/lv_calendar.c **** void lv_calendar_set_today_date(lv_obj_t * obj, uint32_t year, uint32_t month, uint32_t day)
  96:../../Middlewares/LVGL/GUI/lvgl/src/widgets/calendar/lv_calendar.c **** {
  97:../../Middlewares/LVGL/GUI/lvgl/src/widgets/calendar/lv_calendar.c ****     LV_ASSERT_OBJ(obj, MY_CLASS);
  98:../../Middlewares/LVGL/GUI/lvgl/src/widgets/calendar/lv_calendar.c ****     lv_calendar_t * calendar = (lv_calendar_t *)obj;
  99:../../Middlewares/LVGL/GUI/lvgl/src/widgets/calendar/lv_calendar.c **** 
 100:../../Middlewares/LVGL/GUI/lvgl/src/widgets/calendar/lv_calendar.c ****     calendar->today.year         = year;
 101:../../Middlewares/LVGL/GUI/lvgl/src/widgets/calendar/lv_calendar.c ****     calendar->today.month        = month;
 102:../../Middlewares/LVGL/GUI/lvgl/src/widgets/calendar/lv_calendar.c ****     calendar->today.day          = day;
 103:../../Middlewares/LVGL/GUI/lvgl/src/widgets/calendar/lv_calendar.c **** 
 104:../../Middlewares/LVGL/GUI/lvgl/src/widgets/calendar/lv_calendar.c ****     highlight_update(obj);
 105:../../Middlewares/LVGL/GUI/lvgl/src/widgets/calendar/lv_calendar.c **** }
 106:../../Middlewares/LVGL/GUI/lvgl/src/widgets/calendar/lv_calendar.c **** 
 107:../../Middlewares/LVGL/GUI/lvgl/src/widgets/calendar/lv_calendar.c **** void lv_calendar_set_highlighted_dates(lv_obj_t * obj, lv_calendar_date_t highlighted[], size_t dat
 108:../../Middlewares/LVGL/GUI/lvgl/src/widgets/calendar/lv_calendar.c **** {
 109:../../Middlewares/LVGL/GUI/lvgl/src/widgets/calendar/lv_calendar.c ****     LV_ASSERT_NULL(highlighted);
 110:../../Middlewares/LVGL/GUI/lvgl/src/widgets/calendar/lv_calendar.c **** 
 111:../../Middlewares/LVGL/GUI/lvgl/src/widgets/calendar/lv_calendar.c ****     LV_ASSERT_OBJ(obj, MY_CLASS);
 112:../../Middlewares/LVGL/GUI/lvgl/src/widgets/calendar/lv_calendar.c ****     lv_calendar_t * calendar = (lv_calendar_t *)obj;
 113:../../Middlewares/LVGL/GUI/lvgl/src/widgets/calendar/lv_calendar.c **** 
 114:../../Middlewares/LVGL/GUI/lvgl/src/widgets/calendar/lv_calendar.c ****     calendar->highlighted_dates     = highlighted;
 115:../../Middlewares/LVGL/GUI/lvgl/src/widgets/calendar/lv_calendar.c ****     calendar->highlighted_dates_num = date_num;
 116:../../Middlewares/LVGL/GUI/lvgl/src/widgets/calendar/lv_calendar.c **** 
 117:../../Middlewares/LVGL/GUI/lvgl/src/widgets/calendar/lv_calendar.c ****     highlight_update(obj);
 118:../../Middlewares/LVGL/GUI/lvgl/src/widgets/calendar/lv_calendar.c **** }
 119:../../Middlewares/LVGL/GUI/lvgl/src/widgets/calendar/lv_calendar.c **** 
 120:../../Middlewares/LVGL/GUI/lvgl/src/widgets/calendar/lv_calendar.c **** void lv_calendar_set_month_shown(lv_obj_t * obj, uint32_t year, uint32_t month)
 121:../../Middlewares/LVGL/GUI/lvgl/src/widgets/calendar/lv_calendar.c **** {
 122:../../Middlewares/LVGL/GUI/lvgl/src/widgets/calendar/lv_calendar.c ****     LV_ASSERT_OBJ(obj, MY_CLASS);
 123:../../Middlewares/LVGL/GUI/lvgl/src/widgets/calendar/lv_calendar.c ****     lv_calendar_t * calendar = (lv_calendar_t *)obj;
 124:../../Middlewares/LVGL/GUI/lvgl/src/widgets/calendar/lv_calendar.c **** 
 125:../../Middlewares/LVGL/GUI/lvgl/src/widgets/calendar/lv_calendar.c ****     calendar->showed_date.year   = year;
 126:../../Middlewares/LVGL/GUI/lvgl/src/widgets/calendar/lv_calendar.c ****     calendar->showed_date.month  = month;
 127:../../Middlewares/LVGL/GUI/lvgl/src/widgets/calendar/lv_calendar.c ****     calendar->showed_date.day    = 1;
 128:../../Middlewares/LVGL/GUI/lvgl/src/widgets/calendar/lv_calendar.c **** 
 129:../../Middlewares/LVGL/GUI/lvgl/src/widgets/calendar/lv_calendar.c ****     lv_calendar_date_t d;
 130:../../Middlewares/LVGL/GUI/lvgl/src/widgets/calendar/lv_calendar.c ****     d.year = calendar->showed_date.year;
 131:../../Middlewares/LVGL/GUI/lvgl/src/widgets/calendar/lv_calendar.c ****     d.month = calendar->showed_date.month;
 132:../../Middlewares/LVGL/GUI/lvgl/src/widgets/calendar/lv_calendar.c ****     d.day = calendar->showed_date.day;
 133:../../Middlewares/LVGL/GUI/lvgl/src/widgets/calendar/lv_calendar.c **** 
 134:../../Middlewares/LVGL/GUI/lvgl/src/widgets/calendar/lv_calendar.c ****     uint32_t i;
 135:../../Middlewares/LVGL/GUI/lvgl/src/widgets/calendar/lv_calendar.c **** 
 136:../../Middlewares/LVGL/GUI/lvgl/src/widgets/calendar/lv_calendar.c ****     /*Remove the disabled state but revert it for day names*/
 137:../../Middlewares/LVGL/GUI/lvgl/src/widgets/calendar/lv_calendar.c ****     lv_buttonmatrix_clear_button_ctrl_all(calendar->btnm, LV_BUTTONMATRIX_CTRL_DISABLED);
 138:../../Middlewares/LVGL/GUI/lvgl/src/widgets/calendar/lv_calendar.c ****     for(i = 0; i < 7; i++) {
 139:../../Middlewares/LVGL/GUI/lvgl/src/widgets/calendar/lv_calendar.c ****         lv_buttonmatrix_set_button_ctrl(calendar->btnm, i, LV_BUTTONMATRIX_CTRL_DISABLED);
 140:../../Middlewares/LVGL/GUI/lvgl/src/widgets/calendar/lv_calendar.c ****     }
 141:../../Middlewares/LVGL/GUI/lvgl/src/widgets/calendar/lv_calendar.c **** 
 142:../../Middlewares/LVGL/GUI/lvgl/src/widgets/calendar/lv_calendar.c ****     uint8_t act_mo_len = get_month_length(d.year, d.month);
 143:../../Middlewares/LVGL/GUI/lvgl/src/widgets/calendar/lv_calendar.c ****     uint8_t day_first = get_day_of_week(d.year, d.month, 1);
 144:../../Middlewares/LVGL/GUI/lvgl/src/widgets/calendar/lv_calendar.c ****     uint8_t c;
 145:../../Middlewares/LVGL/GUI/lvgl/src/widgets/calendar/lv_calendar.c **** 
ARM GAS  C:\Users\28576\AppData\Local\Temp\ccBAh4dU.s 			page 4


 146:../../Middlewares/LVGL/GUI/lvgl/src/widgets/calendar/lv_calendar.c **** #if LV_USE_CALENDAR_CHINESE
 147:../../Middlewares/LVGL/GUI/lvgl/src/widgets/calendar/lv_calendar.c ****     lv_calendar_date_t gregorian_time;
 148:../../Middlewares/LVGL/GUI/lvgl/src/widgets/calendar/lv_calendar.c ****     gregorian_time = d;
 149:../../Middlewares/LVGL/GUI/lvgl/src/widgets/calendar/lv_calendar.c **** #endif
 150:../../Middlewares/LVGL/GUI/lvgl/src/widgets/calendar/lv_calendar.c **** 
 151:../../Middlewares/LVGL/GUI/lvgl/src/widgets/calendar/lv_calendar.c ****     for(i = day_first, c = 1; i < act_mo_len + day_first; i++, c++) {
 152:../../Middlewares/LVGL/GUI/lvgl/src/widgets/calendar/lv_calendar.c **** #if LV_USE_CALENDAR_CHINESE
 153:../../Middlewares/LVGL/GUI/lvgl/src/widgets/calendar/lv_calendar.c ****         if(calendar->use_chinese_calendar) {
 154:../../Middlewares/LVGL/GUI/lvgl/src/widgets/calendar/lv_calendar.c ****             gregorian_time.day = c;
 155:../../Middlewares/LVGL/GUI/lvgl/src/widgets/calendar/lv_calendar.c ****             chinese_calendar_set_day_name(obj, i, c, &gregorian_time);
 156:../../Middlewares/LVGL/GUI/lvgl/src/widgets/calendar/lv_calendar.c ****         }
 157:../../Middlewares/LVGL/GUI/lvgl/src/widgets/calendar/lv_calendar.c ****         else
 158:../../Middlewares/LVGL/GUI/lvgl/src/widgets/calendar/lv_calendar.c **** #endif
 159:../../Middlewares/LVGL/GUI/lvgl/src/widgets/calendar/lv_calendar.c ****             lv_snprintf(calendar->nums[i], sizeof(calendar->nums[0]), "%d", c);
 160:../../Middlewares/LVGL/GUI/lvgl/src/widgets/calendar/lv_calendar.c ****     }
 161:../../Middlewares/LVGL/GUI/lvgl/src/widgets/calendar/lv_calendar.c **** 
 162:../../Middlewares/LVGL/GUI/lvgl/src/widgets/calendar/lv_calendar.c ****     uint8_t prev_mo_len = get_month_length(d.year, d.month - 1);
 163:../../Middlewares/LVGL/GUI/lvgl/src/widgets/calendar/lv_calendar.c **** 
 164:../../Middlewares/LVGL/GUI/lvgl/src/widgets/calendar/lv_calendar.c **** #if LV_USE_CALENDAR_CHINESE
 165:../../Middlewares/LVGL/GUI/lvgl/src/widgets/calendar/lv_calendar.c ****     gregorian_time = gregorian_get_last_month_time(&d);
 166:../../Middlewares/LVGL/GUI/lvgl/src/widgets/calendar/lv_calendar.c **** #endif
 167:../../Middlewares/LVGL/GUI/lvgl/src/widgets/calendar/lv_calendar.c **** 
 168:../../Middlewares/LVGL/GUI/lvgl/src/widgets/calendar/lv_calendar.c ****     for(i = 0, c = prev_mo_len - day_first + 1; i < day_first; i++, c++) {
 169:../../Middlewares/LVGL/GUI/lvgl/src/widgets/calendar/lv_calendar.c **** #if LV_USE_CALENDAR_CHINESE
 170:../../Middlewares/LVGL/GUI/lvgl/src/widgets/calendar/lv_calendar.c ****         if(calendar->use_chinese_calendar) {
 171:../../Middlewares/LVGL/GUI/lvgl/src/widgets/calendar/lv_calendar.c ****             gregorian_time.day = c;
 172:../../Middlewares/LVGL/GUI/lvgl/src/widgets/calendar/lv_calendar.c ****             chinese_calendar_set_day_name(obj, i, c, &gregorian_time);
 173:../../Middlewares/LVGL/GUI/lvgl/src/widgets/calendar/lv_calendar.c ****         }
 174:../../Middlewares/LVGL/GUI/lvgl/src/widgets/calendar/lv_calendar.c ****         else
 175:../../Middlewares/LVGL/GUI/lvgl/src/widgets/calendar/lv_calendar.c **** #endif
 176:../../Middlewares/LVGL/GUI/lvgl/src/widgets/calendar/lv_calendar.c ****             lv_snprintf(calendar->nums[i], sizeof(calendar->nums[0]), "%d", c);
 177:../../Middlewares/LVGL/GUI/lvgl/src/widgets/calendar/lv_calendar.c ****         lv_buttonmatrix_set_button_ctrl(calendar->btnm, i + 7, LV_BUTTONMATRIX_CTRL_DISABLED);
 178:../../Middlewares/LVGL/GUI/lvgl/src/widgets/calendar/lv_calendar.c ****     }
 179:../../Middlewares/LVGL/GUI/lvgl/src/widgets/calendar/lv_calendar.c **** 
 180:../../Middlewares/LVGL/GUI/lvgl/src/widgets/calendar/lv_calendar.c **** #if LV_USE_CALENDAR_CHINESE
 181:../../Middlewares/LVGL/GUI/lvgl/src/widgets/calendar/lv_calendar.c ****     gregorian_time = gregorian_get_next_month_time(&d);
 182:../../Middlewares/LVGL/GUI/lvgl/src/widgets/calendar/lv_calendar.c **** #endif
 183:../../Middlewares/LVGL/GUI/lvgl/src/widgets/calendar/lv_calendar.c **** 
 184:../../Middlewares/LVGL/GUI/lvgl/src/widgets/calendar/lv_calendar.c ****     for(i = day_first + act_mo_len, c = 1; i < 6 * 7; i++, c++) {
 185:../../Middlewares/LVGL/GUI/lvgl/src/widgets/calendar/lv_calendar.c **** #if LV_USE_CALENDAR_CHINESE
 186:../../Middlewares/LVGL/GUI/lvgl/src/widgets/calendar/lv_calendar.c ****         if(calendar->use_chinese_calendar) {
 187:../../Middlewares/LVGL/GUI/lvgl/src/widgets/calendar/lv_calendar.c ****             gregorian_time.day = c;
 188:../../Middlewares/LVGL/GUI/lvgl/src/widgets/calendar/lv_calendar.c ****             chinese_calendar_set_day_name(obj, i, c, &gregorian_time);
 189:../../Middlewares/LVGL/GUI/lvgl/src/widgets/calendar/lv_calendar.c ****         }
 190:../../Middlewares/LVGL/GUI/lvgl/src/widgets/calendar/lv_calendar.c ****         else
 191:../../Middlewares/LVGL/GUI/lvgl/src/widgets/calendar/lv_calendar.c **** #endif
 192:../../Middlewares/LVGL/GUI/lvgl/src/widgets/calendar/lv_calendar.c ****             lv_snprintf(calendar->nums[i], sizeof(calendar->nums[0]), "%d", c);
 193:../../Middlewares/LVGL/GUI/lvgl/src/widgets/calendar/lv_calendar.c ****         lv_buttonmatrix_set_button_ctrl(calendar->btnm, i + 7, LV_BUTTONMATRIX_CTRL_DISABLED);
 194:../../Middlewares/LVGL/GUI/lvgl/src/widgets/calendar/lv_calendar.c ****     }
 195:../../Middlewares/LVGL/GUI/lvgl/src/widgets/calendar/lv_calendar.c **** 
 196:../../Middlewares/LVGL/GUI/lvgl/src/widgets/calendar/lv_calendar.c ****     highlight_update(obj);
 197:../../Middlewares/LVGL/GUI/lvgl/src/widgets/calendar/lv_calendar.c **** 
 198:../../Middlewares/LVGL/GUI/lvgl/src/widgets/calendar/lv_calendar.c ****     /*Reset the focused button if the days changes*/
 199:../../Middlewares/LVGL/GUI/lvgl/src/widgets/calendar/lv_calendar.c ****     if(lv_buttonmatrix_get_selected_button(calendar->btnm) != LV_BUTTONMATRIX_BUTTON_NONE) {
 200:../../Middlewares/LVGL/GUI/lvgl/src/widgets/calendar/lv_calendar.c ****         lv_buttonmatrix_set_selected_button(calendar->btnm, day_first + 7);
 201:../../Middlewares/LVGL/GUI/lvgl/src/widgets/calendar/lv_calendar.c ****     }
 202:../../Middlewares/LVGL/GUI/lvgl/src/widgets/calendar/lv_calendar.c **** 
ARM GAS  C:\Users\28576\AppData\Local\Temp\ccBAh4dU.s 			page 5


 203:../../Middlewares/LVGL/GUI/lvgl/src/widgets/calendar/lv_calendar.c ****     lv_obj_invalidate(obj);
 204:../../Middlewares/LVGL/GUI/lvgl/src/widgets/calendar/lv_calendar.c **** 
 205:../../Middlewares/LVGL/GUI/lvgl/src/widgets/calendar/lv_calendar.c ****     /* The children of the calendar are probably headers.
 206:../../Middlewares/LVGL/GUI/lvgl/src/widgets/calendar/lv_calendar.c ****      * Notify them to let the headers updated to the new date*/
 207:../../Middlewares/LVGL/GUI/lvgl/src/widgets/calendar/lv_calendar.c ****     uint32_t child_cnt = lv_obj_get_child_count(obj);
 208:../../Middlewares/LVGL/GUI/lvgl/src/widgets/calendar/lv_calendar.c ****     for(i = 0; i < child_cnt; i++) {
 209:../../Middlewares/LVGL/GUI/lvgl/src/widgets/calendar/lv_calendar.c ****         lv_obj_t * child = lv_obj_get_child(obj, i);
 210:../../Middlewares/LVGL/GUI/lvgl/src/widgets/calendar/lv_calendar.c ****         if(child == calendar->btnm) continue;
 211:../../Middlewares/LVGL/GUI/lvgl/src/widgets/calendar/lv_calendar.c ****         lv_obj_send_event(child, LV_EVENT_VALUE_CHANGED, obj);
 212:../../Middlewares/LVGL/GUI/lvgl/src/widgets/calendar/lv_calendar.c ****     }
 213:../../Middlewares/LVGL/GUI/lvgl/src/widgets/calendar/lv_calendar.c **** }
 214:../../Middlewares/LVGL/GUI/lvgl/src/widgets/calendar/lv_calendar.c **** 
 215:../../Middlewares/LVGL/GUI/lvgl/src/widgets/calendar/lv_calendar.c **** /*=====================
 216:../../Middlewares/LVGL/GUI/lvgl/src/widgets/calendar/lv_calendar.c ****  * Getter functions
 217:../../Middlewares/LVGL/GUI/lvgl/src/widgets/calendar/lv_calendar.c ****  *====================*/
 218:../../Middlewares/LVGL/GUI/lvgl/src/widgets/calendar/lv_calendar.c **** 
 219:../../Middlewares/LVGL/GUI/lvgl/src/widgets/calendar/lv_calendar.c **** lv_obj_t * lv_calendar_get_btnmatrix(const lv_obj_t * obj)
 220:../../Middlewares/LVGL/GUI/lvgl/src/widgets/calendar/lv_calendar.c **** {
 221:../../Middlewares/LVGL/GUI/lvgl/src/widgets/calendar/lv_calendar.c ****     LV_ASSERT_OBJ(obj, MY_CLASS);
 222:../../Middlewares/LVGL/GUI/lvgl/src/widgets/calendar/lv_calendar.c ****     const lv_calendar_t * calendar = (lv_calendar_t *)obj;
 223:../../Middlewares/LVGL/GUI/lvgl/src/widgets/calendar/lv_calendar.c ****     return calendar->btnm;
 224:../../Middlewares/LVGL/GUI/lvgl/src/widgets/calendar/lv_calendar.c **** }
 225:../../Middlewares/LVGL/GUI/lvgl/src/widgets/calendar/lv_calendar.c **** 
 226:../../Middlewares/LVGL/GUI/lvgl/src/widgets/calendar/lv_calendar.c **** const lv_calendar_date_t * lv_calendar_get_today_date(const lv_obj_t * obj)
 227:../../Middlewares/LVGL/GUI/lvgl/src/widgets/calendar/lv_calendar.c **** {
 228:../../Middlewares/LVGL/GUI/lvgl/src/widgets/calendar/lv_calendar.c ****     LV_ASSERT_OBJ(obj, MY_CLASS);
 229:../../Middlewares/LVGL/GUI/lvgl/src/widgets/calendar/lv_calendar.c ****     const lv_calendar_t * calendar = (lv_calendar_t *)obj;
 230:../../Middlewares/LVGL/GUI/lvgl/src/widgets/calendar/lv_calendar.c **** 
 231:../../Middlewares/LVGL/GUI/lvgl/src/widgets/calendar/lv_calendar.c ****     return &calendar->today;
 232:../../Middlewares/LVGL/GUI/lvgl/src/widgets/calendar/lv_calendar.c **** }
 233:../../Middlewares/LVGL/GUI/lvgl/src/widgets/calendar/lv_calendar.c **** 
 234:../../Middlewares/LVGL/GUI/lvgl/src/widgets/calendar/lv_calendar.c **** const lv_calendar_date_t * lv_calendar_get_showed_date(const lv_obj_t * obj)
 235:../../Middlewares/LVGL/GUI/lvgl/src/widgets/calendar/lv_calendar.c **** {
 236:../../Middlewares/LVGL/GUI/lvgl/src/widgets/calendar/lv_calendar.c ****     LV_ASSERT_OBJ(obj, MY_CLASS);
 237:../../Middlewares/LVGL/GUI/lvgl/src/widgets/calendar/lv_calendar.c ****     const lv_calendar_t * calendar = (lv_calendar_t *)obj;
 238:../../Middlewares/LVGL/GUI/lvgl/src/widgets/calendar/lv_calendar.c **** 
 239:../../Middlewares/LVGL/GUI/lvgl/src/widgets/calendar/lv_calendar.c ****     return &calendar->showed_date;
 240:../../Middlewares/LVGL/GUI/lvgl/src/widgets/calendar/lv_calendar.c **** }
 241:../../Middlewares/LVGL/GUI/lvgl/src/widgets/calendar/lv_calendar.c **** 
 242:../../Middlewares/LVGL/GUI/lvgl/src/widgets/calendar/lv_calendar.c **** lv_calendar_date_t * lv_calendar_get_highlighted_dates(const lv_obj_t * obj)
 243:../../Middlewares/LVGL/GUI/lvgl/src/widgets/calendar/lv_calendar.c **** {
 244:../../Middlewares/LVGL/GUI/lvgl/src/widgets/calendar/lv_calendar.c ****     LV_ASSERT_OBJ(obj, MY_CLASS);
 245:../../Middlewares/LVGL/GUI/lvgl/src/widgets/calendar/lv_calendar.c ****     lv_calendar_t * calendar = (lv_calendar_t *)obj;
 246:../../Middlewares/LVGL/GUI/lvgl/src/widgets/calendar/lv_calendar.c **** 
 247:../../Middlewares/LVGL/GUI/lvgl/src/widgets/calendar/lv_calendar.c ****     return calendar->highlighted_dates;
 248:../../Middlewares/LVGL/GUI/lvgl/src/widgets/calendar/lv_calendar.c **** }
 249:../../Middlewares/LVGL/GUI/lvgl/src/widgets/calendar/lv_calendar.c **** 
 250:../../Middlewares/LVGL/GUI/lvgl/src/widgets/calendar/lv_calendar.c **** size_t lv_calendar_get_highlighted_dates_num(const lv_obj_t * obj)
 251:../../Middlewares/LVGL/GUI/lvgl/src/widgets/calendar/lv_calendar.c **** {
 252:../../Middlewares/LVGL/GUI/lvgl/src/widgets/calendar/lv_calendar.c ****     LV_ASSERT_OBJ(obj, MY_CLASS);
 253:../../Middlewares/LVGL/GUI/lvgl/src/widgets/calendar/lv_calendar.c ****     lv_calendar_t * calendar = (lv_calendar_t *)obj;
 254:../../Middlewares/LVGL/GUI/lvgl/src/widgets/calendar/lv_calendar.c **** 
 255:../../Middlewares/LVGL/GUI/lvgl/src/widgets/calendar/lv_calendar.c ****     return calendar->highlighted_dates_num;
 256:../../Middlewares/LVGL/GUI/lvgl/src/widgets/calendar/lv_calendar.c **** }
 257:../../Middlewares/LVGL/GUI/lvgl/src/widgets/calendar/lv_calendar.c **** 
 258:../../Middlewares/LVGL/GUI/lvgl/src/widgets/calendar/lv_calendar.c **** lv_result_t lv_calendar_get_pressed_date(const lv_obj_t * obj, lv_calendar_date_t * date)
 259:../../Middlewares/LVGL/GUI/lvgl/src/widgets/calendar/lv_calendar.c **** {
ARM GAS  C:\Users\28576\AppData\Local\Temp\ccBAh4dU.s 			page 6


 260:../../Middlewares/LVGL/GUI/lvgl/src/widgets/calendar/lv_calendar.c ****     LV_ASSERT_OBJ(obj, MY_CLASS);
 261:../../Middlewares/LVGL/GUI/lvgl/src/widgets/calendar/lv_calendar.c ****     lv_calendar_t * calendar = (lv_calendar_t *)obj;
 262:../../Middlewares/LVGL/GUI/lvgl/src/widgets/calendar/lv_calendar.c **** 
 263:../../Middlewares/LVGL/GUI/lvgl/src/widgets/calendar/lv_calendar.c ****     uint32_t d = lv_buttonmatrix_get_selected_button(calendar->btnm);
 264:../../Middlewares/LVGL/GUI/lvgl/src/widgets/calendar/lv_calendar.c ****     if(d == LV_BUTTONMATRIX_BUTTON_NONE) {
 265:../../Middlewares/LVGL/GUI/lvgl/src/widgets/calendar/lv_calendar.c ****         date->year = 0;
 266:../../Middlewares/LVGL/GUI/lvgl/src/widgets/calendar/lv_calendar.c ****         date->month = 0;
 267:../../Middlewares/LVGL/GUI/lvgl/src/widgets/calendar/lv_calendar.c ****         date->day = 0;
 268:../../Middlewares/LVGL/GUI/lvgl/src/widgets/calendar/lv_calendar.c ****         return LV_RESULT_INVALID;
 269:../../Middlewares/LVGL/GUI/lvgl/src/widgets/calendar/lv_calendar.c ****     }
 270:../../Middlewares/LVGL/GUI/lvgl/src/widgets/calendar/lv_calendar.c **** 
 271:../../Middlewares/LVGL/GUI/lvgl/src/widgets/calendar/lv_calendar.c ****     const char * txt = lv_buttonmatrix_get_button_text(calendar->btnm, lv_buttonmatrix_get_selected
 272:../../Middlewares/LVGL/GUI/lvgl/src/widgets/calendar/lv_calendar.c **** 
 273:../../Middlewares/LVGL/GUI/lvgl/src/widgets/calendar/lv_calendar.c ****     if(txt[1] == 0) date->day = txt[0] - '0';
 274:../../Middlewares/LVGL/GUI/lvgl/src/widgets/calendar/lv_calendar.c ****     else date->day = (txt[0] - '0') * 10 + (txt[1] - '0');
 275:../../Middlewares/LVGL/GUI/lvgl/src/widgets/calendar/lv_calendar.c **** 
 276:../../Middlewares/LVGL/GUI/lvgl/src/widgets/calendar/lv_calendar.c ****     date->year = calendar->showed_date.year;
 277:../../Middlewares/LVGL/GUI/lvgl/src/widgets/calendar/lv_calendar.c ****     date->month = calendar->showed_date.month;
 278:../../Middlewares/LVGL/GUI/lvgl/src/widgets/calendar/lv_calendar.c **** 
 279:../../Middlewares/LVGL/GUI/lvgl/src/widgets/calendar/lv_calendar.c ****     return LV_RESULT_OK;
 280:../../Middlewares/LVGL/GUI/lvgl/src/widgets/calendar/lv_calendar.c **** }
 281:../../Middlewares/LVGL/GUI/lvgl/src/widgets/calendar/lv_calendar.c **** 
 282:../../Middlewares/LVGL/GUI/lvgl/src/widgets/calendar/lv_calendar.c **** /**********************
 283:../../Middlewares/LVGL/GUI/lvgl/src/widgets/calendar/lv_calendar.c ****  *  STATIC FUNCTIONS
 284:../../Middlewares/LVGL/GUI/lvgl/src/widgets/calendar/lv_calendar.c ****  **********************/
 285:../../Middlewares/LVGL/GUI/lvgl/src/widgets/calendar/lv_calendar.c **** 
 286:../../Middlewares/LVGL/GUI/lvgl/src/widgets/calendar/lv_calendar.c **** static void lv_calendar_constructor(const lv_obj_class_t * class_p, lv_obj_t * obj)
 287:../../Middlewares/LVGL/GUI/lvgl/src/widgets/calendar/lv_calendar.c **** {
 288:../../Middlewares/LVGL/GUI/lvgl/src/widgets/calendar/lv_calendar.c ****     LV_UNUSED(class_p);
 289:../../Middlewares/LVGL/GUI/lvgl/src/widgets/calendar/lv_calendar.c ****     lv_calendar_t * calendar = (lv_calendar_t *)obj;
 290:../../Middlewares/LVGL/GUI/lvgl/src/widgets/calendar/lv_calendar.c **** 
 291:../../Middlewares/LVGL/GUI/lvgl/src/widgets/calendar/lv_calendar.c ****     /*Initialize the allocated 'ext'*/
 292:../../Middlewares/LVGL/GUI/lvgl/src/widgets/calendar/lv_calendar.c **** 
 293:../../Middlewares/LVGL/GUI/lvgl/src/widgets/calendar/lv_calendar.c ****     calendar->today.year  = 2024;
 294:../../Middlewares/LVGL/GUI/lvgl/src/widgets/calendar/lv_calendar.c ****     calendar->today.month = 1;
 295:../../Middlewares/LVGL/GUI/lvgl/src/widgets/calendar/lv_calendar.c ****     calendar->today.day   = 1;
 296:../../Middlewares/LVGL/GUI/lvgl/src/widgets/calendar/lv_calendar.c **** 
 297:../../Middlewares/LVGL/GUI/lvgl/src/widgets/calendar/lv_calendar.c ****     calendar->showed_date.year  = 2024;
 298:../../Middlewares/LVGL/GUI/lvgl/src/widgets/calendar/lv_calendar.c ****     calendar->showed_date.month = 1;
 299:../../Middlewares/LVGL/GUI/lvgl/src/widgets/calendar/lv_calendar.c ****     calendar->showed_date.day   = 1;
 300:../../Middlewares/LVGL/GUI/lvgl/src/widgets/calendar/lv_calendar.c **** 
 301:../../Middlewares/LVGL/GUI/lvgl/src/widgets/calendar/lv_calendar.c ****     calendar->highlighted_dates      = NULL;
 302:../../Middlewares/LVGL/GUI/lvgl/src/widgets/calendar/lv_calendar.c ****     calendar->highlighted_dates_num  = 0;
 303:../../Middlewares/LVGL/GUI/lvgl/src/widgets/calendar/lv_calendar.c **** 
 304:../../Middlewares/LVGL/GUI/lvgl/src/widgets/calendar/lv_calendar.c ****     lv_memzero(calendar->nums, sizeof(calendar->nums));
 305:../../Middlewares/LVGL/GUI/lvgl/src/widgets/calendar/lv_calendar.c ****     uint8_t i;
 306:../../Middlewares/LVGL/GUI/lvgl/src/widgets/calendar/lv_calendar.c ****     uint8_t j = 0;
 307:../../Middlewares/LVGL/GUI/lvgl/src/widgets/calendar/lv_calendar.c ****     for(i = 0; i < 8 * 7; i++) {
 308:../../Middlewares/LVGL/GUI/lvgl/src/widgets/calendar/lv_calendar.c ****         /*Every 8th string is "\n"*/
 309:../../Middlewares/LVGL/GUI/lvgl/src/widgets/calendar/lv_calendar.c ****         if(i != 0 && (i + 1) % 8 == 0) {
 310:../../Middlewares/LVGL/GUI/lvgl/src/widgets/calendar/lv_calendar.c ****             calendar->map[i] = "\n";
 311:../../Middlewares/LVGL/GUI/lvgl/src/widgets/calendar/lv_calendar.c ****         }
 312:../../Middlewares/LVGL/GUI/lvgl/src/widgets/calendar/lv_calendar.c ****         else if(i < 7) {
 313:../../Middlewares/LVGL/GUI/lvgl/src/widgets/calendar/lv_calendar.c ****             calendar->map[i] = day_names_def[i];
 314:../../Middlewares/LVGL/GUI/lvgl/src/widgets/calendar/lv_calendar.c ****         }
 315:../../Middlewares/LVGL/GUI/lvgl/src/widgets/calendar/lv_calendar.c ****         else {
 316:../../Middlewares/LVGL/GUI/lvgl/src/widgets/calendar/lv_calendar.c ****             calendar->nums[j][0] = 'x';
ARM GAS  C:\Users\28576\AppData\Local\Temp\ccBAh4dU.s 			page 7


 317:../../Middlewares/LVGL/GUI/lvgl/src/widgets/calendar/lv_calendar.c ****             calendar->map[i] = calendar->nums[j];
 318:../../Middlewares/LVGL/GUI/lvgl/src/widgets/calendar/lv_calendar.c ****             j++;
 319:../../Middlewares/LVGL/GUI/lvgl/src/widgets/calendar/lv_calendar.c ****         }
 320:../../Middlewares/LVGL/GUI/lvgl/src/widgets/calendar/lv_calendar.c ****     }
 321:../../Middlewares/LVGL/GUI/lvgl/src/widgets/calendar/lv_calendar.c ****     calendar->map[8 * 7 - 1] = "";
 322:../../Middlewares/LVGL/GUI/lvgl/src/widgets/calendar/lv_calendar.c **** 
 323:../../Middlewares/LVGL/GUI/lvgl/src/widgets/calendar/lv_calendar.c ****     calendar->btnm = lv_buttonmatrix_create(obj);
 324:../../Middlewares/LVGL/GUI/lvgl/src/widgets/calendar/lv_calendar.c ****     lv_buttonmatrix_set_map(calendar->btnm, calendar->map);
 325:../../Middlewares/LVGL/GUI/lvgl/src/widgets/calendar/lv_calendar.c ****     lv_buttonmatrix_set_button_ctrl_all(calendar->btnm, LV_BUTTONMATRIX_CTRL_CLICK_TRIG | LV_BUTTON
 326:../../Middlewares/LVGL/GUI/lvgl/src/widgets/calendar/lv_calendar.c ****     lv_obj_add_event_cb(calendar->btnm, draw_task_added_event_cb, LV_EVENT_DRAW_TASK_ADDED, NULL);
 327:../../Middlewares/LVGL/GUI/lvgl/src/widgets/calendar/lv_calendar.c ****     lv_obj_set_width(calendar->btnm, lv_pct(100));
 328:../../Middlewares/LVGL/GUI/lvgl/src/widgets/calendar/lv_calendar.c ****     lv_obj_add_flag(calendar->btnm, LV_OBJ_FLAG_EVENT_BUBBLE | LV_OBJ_FLAG_SEND_DRAW_TASK_EVENTS);
 329:../../Middlewares/LVGL/GUI/lvgl/src/widgets/calendar/lv_calendar.c **** 
 330:../../Middlewares/LVGL/GUI/lvgl/src/widgets/calendar/lv_calendar.c ****     lv_obj_set_flex_flow(obj, LV_FLEX_FLOW_COLUMN);
 331:../../Middlewares/LVGL/GUI/lvgl/src/widgets/calendar/lv_calendar.c ****     lv_obj_set_flex_grow(calendar->btnm, 1);
 332:../../Middlewares/LVGL/GUI/lvgl/src/widgets/calendar/lv_calendar.c **** 
 333:../../Middlewares/LVGL/GUI/lvgl/src/widgets/calendar/lv_calendar.c ****     lv_obj_set_style_text_align(obj, LV_TEXT_ALIGN_CENTER, LV_PART_MAIN);
 334:../../Middlewares/LVGL/GUI/lvgl/src/widgets/calendar/lv_calendar.c **** 
 335:../../Middlewares/LVGL/GUI/lvgl/src/widgets/calendar/lv_calendar.c ****     lv_calendar_set_month_shown(obj, calendar->showed_date.year, calendar->showed_date.month);
 336:../../Middlewares/LVGL/GUI/lvgl/src/widgets/calendar/lv_calendar.c ****     lv_calendar_set_today_date(obj, calendar->today.year, calendar->today.month, calendar->today.da
 337:../../Middlewares/LVGL/GUI/lvgl/src/widgets/calendar/lv_calendar.c **** }
 338:../../Middlewares/LVGL/GUI/lvgl/src/widgets/calendar/lv_calendar.c **** 
 339:../../Middlewares/LVGL/GUI/lvgl/src/widgets/calendar/lv_calendar.c **** static void draw_task_added_event_cb(lv_event_t * e)
 340:../../Middlewares/LVGL/GUI/lvgl/src/widgets/calendar/lv_calendar.c **** {
 341:../../Middlewares/LVGL/GUI/lvgl/src/widgets/calendar/lv_calendar.c ****     lv_obj_t * obj = lv_event_get_current_target(e);
 342:../../Middlewares/LVGL/GUI/lvgl/src/widgets/calendar/lv_calendar.c ****     lv_draw_task_t * draw_task = lv_event_get_param(e);
 343:../../Middlewares/LVGL/GUI/lvgl/src/widgets/calendar/lv_calendar.c ****     if(((lv_draw_dsc_base_t *)draw_task->draw_dsc)->part != LV_PART_ITEMS) return;
 344:../../Middlewares/LVGL/GUI/lvgl/src/widgets/calendar/lv_calendar.c **** 
 345:../../Middlewares/LVGL/GUI/lvgl/src/widgets/calendar/lv_calendar.c ****     lv_draw_fill_dsc_t * fill_draw_dsc = lv_draw_task_get_fill_dsc(draw_task);
 346:../../Middlewares/LVGL/GUI/lvgl/src/widgets/calendar/lv_calendar.c ****     lv_draw_border_dsc_t * border_draw_dsc = lv_draw_task_get_border_dsc(draw_task);
 347:../../Middlewares/LVGL/GUI/lvgl/src/widgets/calendar/lv_calendar.c **** 
 348:../../Middlewares/LVGL/GUI/lvgl/src/widgets/calendar/lv_calendar.c ****     if(!fill_draw_dsc && !border_draw_dsc) {
 349:../../Middlewares/LVGL/GUI/lvgl/src/widgets/calendar/lv_calendar.c ****         return;
 350:../../Middlewares/LVGL/GUI/lvgl/src/widgets/calendar/lv_calendar.c ****     }
 351:../../Middlewares/LVGL/GUI/lvgl/src/widgets/calendar/lv_calendar.c **** 
 352:../../Middlewares/LVGL/GUI/lvgl/src/widgets/calendar/lv_calendar.c ****     int32_t id = ((lv_draw_dsc_base_t *)draw_task->draw_dsc)->id1;
 353:../../Middlewares/LVGL/GUI/lvgl/src/widgets/calendar/lv_calendar.c **** 
 354:../../Middlewares/LVGL/GUI/lvgl/src/widgets/calendar/lv_calendar.c ****     /*Day name styles*/
 355:../../Middlewares/LVGL/GUI/lvgl/src/widgets/calendar/lv_calendar.c ****     if(id < 7) {
 356:../../Middlewares/LVGL/GUI/lvgl/src/widgets/calendar/lv_calendar.c ****         if(fill_draw_dsc) fill_draw_dsc->opa = LV_OPA_TRANSP;
 357:../../Middlewares/LVGL/GUI/lvgl/src/widgets/calendar/lv_calendar.c ****         if(border_draw_dsc) border_draw_dsc->opa = LV_OPA_TRANSP;
 358:../../Middlewares/LVGL/GUI/lvgl/src/widgets/calendar/lv_calendar.c ****     }
 359:../../Middlewares/LVGL/GUI/lvgl/src/widgets/calendar/lv_calendar.c ****     else if(lv_buttonmatrix_has_button_ctrl(obj, id, LV_BUTTONMATRIX_CTRL_DISABLED)) {
 360:../../Middlewares/LVGL/GUI/lvgl/src/widgets/calendar/lv_calendar.c ****         if(fill_draw_dsc) fill_draw_dsc->opa = LV_OPA_TRANSP;
 361:../../Middlewares/LVGL/GUI/lvgl/src/widgets/calendar/lv_calendar.c ****         if(border_draw_dsc) border_draw_dsc->opa = LV_OPA_TRANSP;
 362:../../Middlewares/LVGL/GUI/lvgl/src/widgets/calendar/lv_calendar.c ****     }
 363:../../Middlewares/LVGL/GUI/lvgl/src/widgets/calendar/lv_calendar.c **** 
 364:../../Middlewares/LVGL/GUI/lvgl/src/widgets/calendar/lv_calendar.c ****     if(lv_buttonmatrix_has_button_ctrl(obj, id, LV_CALENDAR_CTRL_HIGHLIGHT)) {
 365:../../Middlewares/LVGL/GUI/lvgl/src/widgets/calendar/lv_calendar.c ****         if(border_draw_dsc) border_draw_dsc->color = lv_theme_get_color_primary(obj);
 366:../../Middlewares/LVGL/GUI/lvgl/src/widgets/calendar/lv_calendar.c ****         if(fill_draw_dsc) fill_draw_dsc->opa = LV_OPA_40;
 367:../../Middlewares/LVGL/GUI/lvgl/src/widgets/calendar/lv_calendar.c ****         if(fill_draw_dsc) fill_draw_dsc->color = lv_theme_get_color_primary(obj);
 368:../../Middlewares/LVGL/GUI/lvgl/src/widgets/calendar/lv_calendar.c ****         if(lv_buttonmatrix_get_selected_button(obj) == (uint32_t)id) {
 369:../../Middlewares/LVGL/GUI/lvgl/src/widgets/calendar/lv_calendar.c ****             if(fill_draw_dsc) fill_draw_dsc->opa = LV_OPA_70;
 370:../../Middlewares/LVGL/GUI/lvgl/src/widgets/calendar/lv_calendar.c ****         }
 371:../../Middlewares/LVGL/GUI/lvgl/src/widgets/calendar/lv_calendar.c ****     }
 372:../../Middlewares/LVGL/GUI/lvgl/src/widgets/calendar/lv_calendar.c **** 
 373:../../Middlewares/LVGL/GUI/lvgl/src/widgets/calendar/lv_calendar.c ****     if(lv_buttonmatrix_has_button_ctrl(obj, id, LV_CALENDAR_CTRL_TODAY)) {
ARM GAS  C:\Users\28576\AppData\Local\Temp\ccBAh4dU.s 			page 8


 374:../../Middlewares/LVGL/GUI/lvgl/src/widgets/calendar/lv_calendar.c ****         if(border_draw_dsc) border_draw_dsc->opa = LV_OPA_COVER;
 375:../../Middlewares/LVGL/GUI/lvgl/src/widgets/calendar/lv_calendar.c ****         if(border_draw_dsc) border_draw_dsc->color = lv_theme_get_color_primary(obj);
 376:../../Middlewares/LVGL/GUI/lvgl/src/widgets/calendar/lv_calendar.c ****         if(border_draw_dsc) border_draw_dsc->width += 1;
 377:../../Middlewares/LVGL/GUI/lvgl/src/widgets/calendar/lv_calendar.c ****     }
 378:../../Middlewares/LVGL/GUI/lvgl/src/widgets/calendar/lv_calendar.c **** }
 379:../../Middlewares/LVGL/GUI/lvgl/src/widgets/calendar/lv_calendar.c **** 
 380:../../Middlewares/LVGL/GUI/lvgl/src/widgets/calendar/lv_calendar.c **** /**
 381:../../Middlewares/LVGL/GUI/lvgl/src/widgets/calendar/lv_calendar.c ****  * Get the number of days in a month
 382:../../Middlewares/LVGL/GUI/lvgl/src/widgets/calendar/lv_calendar.c ****  * @param year a year
 383:../../Middlewares/LVGL/GUI/lvgl/src/widgets/calendar/lv_calendar.c ****  * @param month a month. The range is basically [1..12] but [-11..0] or [13..24] is also
 384:../../Middlewares/LVGL/GUI/lvgl/src/widgets/calendar/lv_calendar.c ****  *              supported to handle next/prev. year
 385:../../Middlewares/LVGL/GUI/lvgl/src/widgets/calendar/lv_calendar.c ****  * @return [28..31]
 386:../../Middlewares/LVGL/GUI/lvgl/src/widgets/calendar/lv_calendar.c ****  */
 387:../../Middlewares/LVGL/GUI/lvgl/src/widgets/calendar/lv_calendar.c **** static uint8_t get_month_length(int32_t year, int32_t month)
 388:../../Middlewares/LVGL/GUI/lvgl/src/widgets/calendar/lv_calendar.c **** {
 389:../../Middlewares/LVGL/GUI/lvgl/src/widgets/calendar/lv_calendar.c ****     month--;
 390:../../Middlewares/LVGL/GUI/lvgl/src/widgets/calendar/lv_calendar.c ****     if(month < 0) {
 391:../../Middlewares/LVGL/GUI/lvgl/src/widgets/calendar/lv_calendar.c ****         year--;             /*Already in the previous year (won't be less than -12 to skip a whole 
 392:../../Middlewares/LVGL/GUI/lvgl/src/widgets/calendar/lv_calendar.c ****         month = 12 + month; /*`month` is negative, the result will be < 12*/
 393:../../Middlewares/LVGL/GUI/lvgl/src/widgets/calendar/lv_calendar.c ****     }
 394:../../Middlewares/LVGL/GUI/lvgl/src/widgets/calendar/lv_calendar.c ****     if(month >= 12) {
 395:../../Middlewares/LVGL/GUI/lvgl/src/widgets/calendar/lv_calendar.c ****         year++;
 396:../../Middlewares/LVGL/GUI/lvgl/src/widgets/calendar/lv_calendar.c ****         month -= 12;
 397:../../Middlewares/LVGL/GUI/lvgl/src/widgets/calendar/lv_calendar.c ****     }
 398:../../Middlewares/LVGL/GUI/lvgl/src/widgets/calendar/lv_calendar.c **** 
 399:../../Middlewares/LVGL/GUI/lvgl/src/widgets/calendar/lv_calendar.c ****     /*month == 1 is february*/
 400:../../Middlewares/LVGL/GUI/lvgl/src/widgets/calendar/lv_calendar.c ****     return (month == 1) ? (28 + is_leap_year(year)) : 31 - month % 7 % 2;
 401:../../Middlewares/LVGL/GUI/lvgl/src/widgets/calendar/lv_calendar.c **** }
 402:../../Middlewares/LVGL/GUI/lvgl/src/widgets/calendar/lv_calendar.c **** 
 403:../../Middlewares/LVGL/GUI/lvgl/src/widgets/calendar/lv_calendar.c **** /**
 404:../../Middlewares/LVGL/GUI/lvgl/src/widgets/calendar/lv_calendar.c ****  * Tells whether a year is leap year or not
 405:../../Middlewares/LVGL/GUI/lvgl/src/widgets/calendar/lv_calendar.c ****  * @param year a year
 406:../../Middlewares/LVGL/GUI/lvgl/src/widgets/calendar/lv_calendar.c ****  * @return 0: not leap year; 1: leap year
 407:../../Middlewares/LVGL/GUI/lvgl/src/widgets/calendar/lv_calendar.c ****  */
 408:../../Middlewares/LVGL/GUI/lvgl/src/widgets/calendar/lv_calendar.c **** static uint8_t is_leap_year(uint32_t year)
 409:../../Middlewares/LVGL/GUI/lvgl/src/widgets/calendar/lv_calendar.c **** {
  28              		.loc 1 409 1 view -0
  29              		.cfi_startproc
  30              		@ args = 0, pretend = 0, frame = 0
  31              		@ frame_needed = 0, uses_anonymous_args = 0
  32              		@ link register save eliminated.
 410:../../Middlewares/LVGL/GUI/lvgl/src/widgets/calendar/lv_calendar.c ****     return (year % 4) || ((year % 100 == 0) && (year % 400)) ? 0 : 1;
  33              		.loc 1 410 5 view .LVU1
  34              		.loc 1 410 66 is_stmt 0 view .LVU2
  35 0000 10F0030F 		tst	r0, #3
  36 0004 12D1     		bne	.L3
  37              		.loc 1 410 33 discriminator 1 view .LVU3
  38 0006 0C4B     		ldr	r3, .L6
  39 0008 A3FB0023 		umull	r2, r3, r3, r0
  40 000c 5B09     		lsrs	r3, r3, #5
  41 000e 6422     		movs	r2, #100
  42 0010 02FB1303 		mls	r3, r2, r3, r0
  43              		.loc 1 410 66 discriminator 1 view .LVU4
  44 0014 63B9     		cbnz	r3, .L4
  45              		.loc 1 410 54 discriminator 4 view .LVU5
  46 0016 084B     		ldr	r3, .L6
  47 0018 A3FB0023 		umull	r2, r3, r3, r0
ARM GAS  C:\Users\28576\AppData\Local\Temp\ccBAh4dU.s 			page 9


  48 001c DB09     		lsrs	r3, r3, #7
  49 001e 4FF4C872 		mov	r2, #400
  50 0022 02FB1303 		mls	r3, r2, r3, r0
  51              		.loc 1 410 45 discriminator 4 view .LVU6
  52 0026 2BB1     		cbz	r3, .L5
  53              		.loc 1 410 66 discriminator 6 view .LVU7
  54 0028 0020     		movs	r0, #0
  55              	.LVL1:
  56              		.loc 1 410 66 discriminator 6 view .LVU8
  57 002a 7047     		bx	lr
  58              	.LVL2:
  59              	.L3:
  60              		.loc 1 410 66 discriminator 6 view .LVU9
  61 002c 0020     		movs	r0, #0
  62              	.LVL3:
  63              		.loc 1 410 66 discriminator 6 view .LVU10
  64 002e 7047     		bx	lr
  65              	.LVL4:
  66              	.L4:
  67              		.loc 1 410 66 discriminator 5 view .LVU11
  68 0030 0120     		movs	r0, #1
  69              	.LVL5:
  70              		.loc 1 410 66 discriminator 5 view .LVU12
  71 0032 7047     		bx	lr
  72              	.LVL6:
  73              	.L5:
  74              		.loc 1 410 66 discriminator 5 view .LVU13
  75 0034 0120     		movs	r0, #1
  76              	.LVL7:
 411:../../Middlewares/LVGL/GUI/lvgl/src/widgets/calendar/lv_calendar.c **** }
  77              		.loc 1 411 1 view .LVU14
  78 0036 7047     		bx	lr
  79              	.L7:
  80              		.align	2
  81              	.L6:
  82 0038 1F85EB51 		.word	1374389535
  83              		.cfi_endproc
  84              	.LFE210:
  86              		.section	.text.get_month_length,"ax",%progbits
  87              		.align	1
  88              		.syntax unified
  89              		.thumb
  90              		.thumb_func
  92              	get_month_length:
  93              	.LVL8:
  94              	.LFB209:
 388:../../Middlewares/LVGL/GUI/lvgl/src/widgets/calendar/lv_calendar.c ****     month--;
  95              		.loc 1 388 1 is_stmt 1 view -0
  96              		.cfi_startproc
  97              		@ args = 0, pretend = 0, frame = 0
  98              		@ frame_needed = 0, uses_anonymous_args = 0
 388:../../Middlewares/LVGL/GUI/lvgl/src/widgets/calendar/lv_calendar.c ****     month--;
  99              		.loc 1 388 1 is_stmt 0 view .LVU16
 100 0000 08B5     		push	{r3, lr}
 101              	.LCFI0:
 102              		.cfi_def_cfa_offset 8
 103              		.cfi_offset 3, -8
ARM GAS  C:\Users\28576\AppData\Local\Temp\ccBAh4dU.s 			page 10


 104              		.cfi_offset 14, -4
 389:../../Middlewares/LVGL/GUI/lvgl/src/widgets/calendar/lv_calendar.c ****     if(month < 0) {
 105              		.loc 1 389 5 is_stmt 1 view .LVU17
 106              	.LVL9:
 390:../../Middlewares/LVGL/GUI/lvgl/src/widgets/calendar/lv_calendar.c ****         year--;             /*Already in the previous year (won't be less than -12 to skip a whole 
 107              		.loc 1 390 5 view .LVU18
 390:../../Middlewares/LVGL/GUI/lvgl/src/widgets/calendar/lv_calendar.c ****         year--;             /*Already in the previous year (won't be less than -12 to skip a whole 
 108              		.loc 1 390 7 is_stmt 0 view .LVU19
 109 0002 4A1E     		subs	r2, r1, #1
 110              	.LVL10:
 390:../../Middlewares/LVGL/GUI/lvgl/src/widgets/calendar/lv_calendar.c ****         year--;             /*Already in the previous year (won't be less than -12 to skip a whole 
 111              		.loc 1 390 7 view .LVU20
 112 0004 18D4     		bmi	.L14
 113              	.LVL11:
 114              	.L9:
 394:../../Middlewares/LVGL/GUI/lvgl/src/widgets/calendar/lv_calendar.c ****         year++;
 115              		.loc 1 394 5 is_stmt 1 view .LVU21
 394:../../Middlewares/LVGL/GUI/lvgl/src/widgets/calendar/lv_calendar.c ****         year++;
 116              		.loc 1 394 7 is_stmt 0 view .LVU22
 117 0006 0B2A     		cmp	r2, #11
 118 0008 01DD     		ble	.L10
 395:../../Middlewares/LVGL/GUI/lvgl/src/widgets/calendar/lv_calendar.c ****         month -= 12;
 119              		.loc 1 395 9 is_stmt 1 view .LVU23
 395:../../Middlewares/LVGL/GUI/lvgl/src/widgets/calendar/lv_calendar.c ****         month -= 12;
 120              		.loc 1 395 13 is_stmt 0 view .LVU24
 121 000a 0130     		adds	r0, r0, #1
 122              	.LVL12:
 396:../../Middlewares/LVGL/GUI/lvgl/src/widgets/calendar/lv_calendar.c ****     }
 123              		.loc 1 396 9 is_stmt 1 view .LVU25
 396:../../Middlewares/LVGL/GUI/lvgl/src/widgets/calendar/lv_calendar.c ****     }
 124              		.loc 1 396 15 is_stmt 0 view .LVU26
 125 000c 0C3A     		subs	r2, r2, #12
 126              	.LVL13:
 127              	.L10:
 400:../../Middlewares/LVGL/GUI/lvgl/src/widgets/calendar/lv_calendar.c **** }
 128              		.loc 1 400 5 is_stmt 1 view .LVU27
 400:../../Middlewares/LVGL/GUI/lvgl/src/widgets/calendar/lv_calendar.c **** }
 129              		.loc 1 400 53 is_stmt 0 view .LVU28
 130 000e 012A     		cmp	r2, #1
 131 0010 16D0     		beq	.L15
 400:../../Middlewares/LVGL/GUI/lvgl/src/widgets/calendar/lv_calendar.c **** }
 132              		.loc 1 400 66 discriminator 2 view .LVU29
 133 0012 0E49     		ldr	r1, .L16
 134 0014 81FB0231 		smull	r3, r1, r1, r2
 135 0018 1144     		add	r1, r1, r2
 136 001a D317     		asrs	r3, r2, #31
 137 001c C3EBA103 		rsb	r3, r3, r1, asr #2
 138 0020 C3EBC303 		rsb	r3, r3, r3, lsl #3
 400:../../Middlewares/LVGL/GUI/lvgl/src/widgets/calendar/lv_calendar.c **** }
 139              		.loc 1 400 70 discriminator 2 view .LVU30
 140 0024 D31A     		subs	r3, r2, r3
 141 0026 03F00103 		and	r3, r3, #1
 142 002a 48BF     		it	mi
 143 002c 5B42     		rsbmi	r3, r3, #0
 400:../../Middlewares/LVGL/GUI/lvgl/src/widgets/calendar/lv_calendar.c **** }
 144              		.loc 1 400 58 discriminator 2 view .LVU31
 145 002e D8B2     		uxtb	r0, r3
ARM GAS  C:\Users\28576\AppData\Local\Temp\ccBAh4dU.s 			page 11


 146              	.LVL14:
 400:../../Middlewares/LVGL/GUI/lvgl/src/widgets/calendar/lv_calendar.c **** }
 147              		.loc 1 400 53 discriminator 2 view .LVU32
 148 0030 C0F11F00 		rsb	r0, r0, #31
 149 0034 C0B2     		uxtb	r0, r0
 150              	.LVL15:
 151              	.L12:
 401:../../Middlewares/LVGL/GUI/lvgl/src/widgets/calendar/lv_calendar.c **** 
 152              		.loc 1 401 1 view .LVU33
 153 0036 08BD     		pop	{r3, pc}
 154              	.LVL16:
 155              	.L14:
 391:../../Middlewares/LVGL/GUI/lvgl/src/widgets/calendar/lv_calendar.c ****         month = 12 + month; /*`month` is negative, the result will be < 12*/
 156              		.loc 1 391 9 is_stmt 1 view .LVU34
 391:../../Middlewares/LVGL/GUI/lvgl/src/widgets/calendar/lv_calendar.c ****         month = 12 + month; /*`month` is negative, the result will be < 12*/
 157              		.loc 1 391 13 is_stmt 0 view .LVU35
 158 0038 0138     		subs	r0, r0, #1
 159              	.LVL17:
 392:../../Middlewares/LVGL/GUI/lvgl/src/widgets/calendar/lv_calendar.c ****     }
 160              		.loc 1 392 9 is_stmt 1 view .LVU36
 392:../../Middlewares/LVGL/GUI/lvgl/src/widgets/calendar/lv_calendar.c ****     }
 161              		.loc 1 392 15 is_stmt 0 view .LVU37
 162 003a 01F10B02 		add	r2, r1, #11
 163              	.LVL18:
 392:../../Middlewares/LVGL/GUI/lvgl/src/widgets/calendar/lv_calendar.c ****     }
 164              		.loc 1 392 15 view .LVU38
 165 003e E2E7     		b	.L9
 166              	.LVL19:
 167              	.L15:
 400:../../Middlewares/LVGL/GUI/lvgl/src/widgets/calendar/lv_calendar.c **** }
 168              		.loc 1 400 33 discriminator 1 view .LVU39
 169 0040 FFF7FEFF 		bl	is_leap_year
 170              	.LVL20:
 400:../../Middlewares/LVGL/GUI/lvgl/src/widgets/calendar/lv_calendar.c **** }
 171              		.loc 1 400 53 discriminator 3 view .LVU40
 172 0044 1C30     		adds	r0, r0, #28
 173 0046 C0B2     		uxtb	r0, r0
 174 0048 F5E7     		b	.L12
 175              	.L17:
 176 004a 00BF     		.align	2
 177              	.L16:
 178 004c 93244992 		.word	-1840700269
 179              		.cfi_endproc
 180              	.LFE209:
 182              		.section	.text.get_day_of_week,"ax",%progbits
 183              		.align	1
 184              		.syntax unified
 185              		.thumb
 186              		.thumb_func
 188              	get_day_of_week:
 189              	.LVL21:
 190              	.LFB211:
 412:../../Middlewares/LVGL/GUI/lvgl/src/widgets/calendar/lv_calendar.c **** 
 413:../../Middlewares/LVGL/GUI/lvgl/src/widgets/calendar/lv_calendar.c **** /**
 414:../../Middlewares/LVGL/GUI/lvgl/src/widgets/calendar/lv_calendar.c ****  * Get the day of the week
 415:../../Middlewares/LVGL/GUI/lvgl/src/widgets/calendar/lv_calendar.c ****  * @param year a year
 416:../../Middlewares/LVGL/GUI/lvgl/src/widgets/calendar/lv_calendar.c ****  * @param month a  month [1..12]
ARM GAS  C:\Users\28576\AppData\Local\Temp\ccBAh4dU.s 			page 12


 417:../../Middlewares/LVGL/GUI/lvgl/src/widgets/calendar/lv_calendar.c ****  * @param day a day [1..32]
 418:../../Middlewares/LVGL/GUI/lvgl/src/widgets/calendar/lv_calendar.c ****  * @return [0..6] which means [Sun..Sat] or [Mon..Sun] depending on LV_CALENDAR_WEEK_STARTS_MONDAY
 419:../../Middlewares/LVGL/GUI/lvgl/src/widgets/calendar/lv_calendar.c ****  */
 420:../../Middlewares/LVGL/GUI/lvgl/src/widgets/calendar/lv_calendar.c **** static uint8_t get_day_of_week(uint32_t year, uint32_t month, uint32_t day)
 421:../../Middlewares/LVGL/GUI/lvgl/src/widgets/calendar/lv_calendar.c **** {
 191              		.loc 1 421 1 is_stmt 1 view -0
 192              		.cfi_startproc
 193              		@ args = 0, pretend = 0, frame = 0
 194              		@ frame_needed = 0, uses_anonymous_args = 0
 195              		@ link register save eliminated.
 422:../../Middlewares/LVGL/GUI/lvgl/src/widgets/calendar/lv_calendar.c ****     uint32_t a = month < 3 ? 1 : 0;
 196              		.loc 1 422 5 view .LVU42
 197              		.loc 1 422 32 is_stmt 0 view .LVU43
 198 0000 0229     		cmp	r1, #2
 199 0002 8CBF     		ite	hi
 200 0004 0023     		movhi	r3, #0
 201 0006 0123     		movls	r3, #1
 202              	.LVL22:
 423:../../Middlewares/LVGL/GUI/lvgl/src/widgets/calendar/lv_calendar.c ****     uint32_t b = year - a;
 203              		.loc 1 423 5 is_stmt 1 view .LVU44
 204              		.loc 1 423 14 is_stmt 0 view .LVU45
 205 0008 C01A     		subs	r0, r0, r3
 206              	.LVL23:
 424:../../Middlewares/LVGL/GUI/lvgl/src/widgets/calendar/lv_calendar.c **** 
 425:../../Middlewares/LVGL/GUI/lvgl/src/widgets/calendar/lv_calendar.c **** #if LV_CALENDAR_WEEK_STARTS_MONDAY
 426:../../Middlewares/LVGL/GUI/lvgl/src/widgets/calendar/lv_calendar.c ****     uint32_t day_of_week = (day + (31 * (month - 2 + 12 * a) / 12) + b + (b / 4) - (b / 100) + (b /
 427:../../Middlewares/LVGL/GUI/lvgl/src/widgets/calendar/lv_calendar.c **** #else
 428:../../Middlewares/LVGL/GUI/lvgl/src/widgets/calendar/lv_calendar.c ****     uint32_t day_of_week = (day + (31 * (month - 2 + 12 * a) / 12) + b + (b / 4) - (b / 100) + (b /
 207              		.loc 1 428 5 is_stmt 1 view .LVU46
 208              		.loc 1 428 57 is_stmt 0 view .LVU47
 209 000a 5B42     		rsbs	r3, r3, #0
 210              	.LVL24:
 211              		.loc 1 428 57 view .LVU48
 212 000c 03F00C03 		and	r3, r3, #12
 213              	.LVL25:
 214              		.loc 1 428 52 view .LVU49
 215 0010 0B44     		add	r3, r3, r1
 216              		.loc 1 428 39 view .LVU50
 217 0012 023B     		subs	r3, r3, #2
 218 0014 C3EB4313 		rsb	r3, r3, r3, lsl #5
 219              		.loc 1 428 62 view .LVU51
 220 0018 0D49     		ldr	r1, .L19
 221              	.LVL26:
 222              		.loc 1 428 62 view .LVU52
 223 001a A1FB0313 		umull	r1, r3, r1, r3
 224              		.loc 1 428 33 view .LVU53
 225 001e 02EBD303 		add	r3, r2, r3, lsr #3
 226              		.loc 1 428 68 view .LVU54
 227 0022 0344     		add	r3, r3, r0
 228              		.loc 1 428 72 view .LVU55
 229 0024 03EB9003 		add	r3, r3, r0, lsr #2
 230              		.loc 1 428 87 view .LVU56
 231 0028 0A4A     		ldr	r2, .L19+4
 232              	.LVL27:
 233              		.loc 1 428 87 view .LVU57
 234 002a A2FB0020 		umull	r2, r0, r2, r0
 235              	.LVL28:
ARM GAS  C:\Users\28576\AppData\Local\Temp\ccBAh4dU.s 			page 13


 236              		.loc 1 428 82 view .LVU58
 237 002e A3EB5013 		sub	r3, r3, r0, lsr #5
 238              		.loc 1 428 94 view .LVU59
 239 0032 03EBD013 		add	r3, r3, r0, lsr #7
 240              		.loc 1 428 14 view .LVU60
 241 0036 0848     		ldr	r0, .L19+8
 242 0038 A0FB0320 		umull	r2, r0, r0, r3
 243 003c 1A1A     		subs	r2, r3, r0
 244 003e 00EB5200 		add	r0, r0, r2, lsr #1
 245 0042 8008     		lsrs	r0, r0, #2
 246 0044 C0EBC000 		rsb	r0, r0, r0, lsl #3
 247 0048 181A     		subs	r0, r3, r0
 248              	.LVL29:
 429:../../Middlewares/LVGL/GUI/lvgl/src/widgets/calendar/lv_calendar.c **** #endif
 430:../../Middlewares/LVGL/GUI/lvgl/src/widgets/calendar/lv_calendar.c **** 
 431:../../Middlewares/LVGL/GUI/lvgl/src/widgets/calendar/lv_calendar.c ****     return day_of_week  ;
 249              		.loc 1 431 5 is_stmt 1 view .LVU61
 432:../../Middlewares/LVGL/GUI/lvgl/src/widgets/calendar/lv_calendar.c **** }
 250              		.loc 1 432 1 is_stmt 0 view .LVU62
 251 004a C0B2     		uxtb	r0, r0
 252              	.LVL30:
 253              		.loc 1 432 1 view .LVU63
 254 004c 7047     		bx	lr
 255              	.L20:
 256 004e 00BF     		.align	2
 257              	.L19:
 258 0050 ABAAAAAA 		.word	-1431655765
 259 0054 1F85EB51 		.word	1374389535
 260 0058 25499224 		.word	613566757
 261              		.cfi_endproc
 262              	.LFE211:
 264              		.section	.text.draw_task_added_event_cb,"ax",%progbits
 265              		.align	1
 266              		.syntax unified
 267              		.thumb
 268              		.thumb_func
 270              	draw_task_added_event_cb:
 271              	.LVL31:
 272              	.LFB208:
 340:../../Middlewares/LVGL/GUI/lvgl/src/widgets/calendar/lv_calendar.c ****     lv_obj_t * obj = lv_event_get_current_target(e);
 273              		.loc 1 340 1 is_stmt 1 view -0
 274              		.cfi_startproc
 275              		@ args = 0, pretend = 0, frame = 0
 276              		@ frame_needed = 0, uses_anonymous_args = 0
 340:../../Middlewares/LVGL/GUI/lvgl/src/widgets/calendar/lv_calendar.c ****     lv_obj_t * obj = lv_event_get_current_target(e);
 277              		.loc 1 340 1 is_stmt 0 view .LVU65
 278 0000 2DE9F041 		push	{r4, r5, r6, r7, r8, lr}
 279              	.LCFI1:
 280              		.cfi_def_cfa_offset 24
 281              		.cfi_offset 4, -24
 282              		.cfi_offset 5, -20
 283              		.cfi_offset 6, -16
 284              		.cfi_offset 7, -12
 285              		.cfi_offset 8, -8
 286              		.cfi_offset 14, -4
 287 0004 0446     		mov	r4, r0
 341:../../Middlewares/LVGL/GUI/lvgl/src/widgets/calendar/lv_calendar.c ****     lv_draw_task_t * draw_task = lv_event_get_param(e);
ARM GAS  C:\Users\28576\AppData\Local\Temp\ccBAh4dU.s 			page 14


 288              		.loc 1 341 5 is_stmt 1 view .LVU66
 341:../../Middlewares/LVGL/GUI/lvgl/src/widgets/calendar/lv_calendar.c ****     lv_draw_task_t * draw_task = lv_event_get_param(e);
 289              		.loc 1 341 22 is_stmt 0 view .LVU67
 290 0006 FFF7FEFF 		bl	lv_event_get_current_target
 291              	.LVL32:
 341:../../Middlewares/LVGL/GUI/lvgl/src/widgets/calendar/lv_calendar.c ****     lv_draw_task_t * draw_task = lv_event_get_param(e);
 292              		.loc 1 341 22 view .LVU68
 293 000a 0646     		mov	r6, r0
 294              	.LVL33:
 342:../../Middlewares/LVGL/GUI/lvgl/src/widgets/calendar/lv_calendar.c ****     if(((lv_draw_dsc_base_t *)draw_task->draw_dsc)->part != LV_PART_ITEMS) return;
 295              		.loc 1 342 5 is_stmt 1 view .LVU69
 342:../../Middlewares/LVGL/GUI/lvgl/src/widgets/calendar/lv_calendar.c ****     if(((lv_draw_dsc_base_t *)draw_task->draw_dsc)->part != LV_PART_ITEMS) return;
 296              		.loc 1 342 34 is_stmt 0 view .LVU70
 297 000c 2046     		mov	r0, r4
 298              	.LVL34:
 342:../../Middlewares/LVGL/GUI/lvgl/src/widgets/calendar/lv_calendar.c ****     if(((lv_draw_dsc_base_t *)draw_task->draw_dsc)->part != LV_PART_ITEMS) return;
 299              		.loc 1 342 34 view .LVU71
 300 000e FFF7FEFF 		bl	lv_event_get_param
 301              	.LVL35:
 343:../../Middlewares/LVGL/GUI/lvgl/src/widgets/calendar/lv_calendar.c **** 
 302              		.loc 1 343 5 is_stmt 1 view .LVU72
 343:../../Middlewares/LVGL/GUI/lvgl/src/widgets/calendar/lv_calendar.c **** 
 303              		.loc 1 343 40 is_stmt 0 view .LVU73
 304 0012 436D     		ldr	r3, [r0, #84]
 343:../../Middlewares/LVGL/GUI/lvgl/src/widgets/calendar/lv_calendar.c **** 
 305              		.loc 1 343 51 view .LVU74
 306 0014 5B68     		ldr	r3, [r3, #4]
 343:../../Middlewares/LVGL/GUI/lvgl/src/widgets/calendar/lv_calendar.c **** 
 307              		.loc 1 343 7 view .LVU75
 308 0016 B3F5A02F 		cmp	r3, #327680
 309 001a 01D0     		beq	.L31
 310              	.LVL36:
 311              	.L21:
 378:../../Middlewares/LVGL/GUI/lvgl/src/widgets/calendar/lv_calendar.c **** 
 312              		.loc 1 378 1 view .LVU76
 313 001c BDE8F081 		pop	{r4, r5, r6, r7, r8, pc}
 314              	.LVL37:
 315              	.L31:
 378:../../Middlewares/LVGL/GUI/lvgl/src/widgets/calendar/lv_calendar.c **** 
 316              		.loc 1 378 1 view .LVU77
 317 0020 0446     		mov	r4, r0
 318              	.LVL38:
 345:../../Middlewares/LVGL/GUI/lvgl/src/widgets/calendar/lv_calendar.c ****     lv_draw_border_dsc_t * border_draw_dsc = lv_draw_task_get_border_dsc(draw_task);
 319              		.loc 1 345 5 is_stmt 1 view .LVU78
 345:../../Middlewares/LVGL/GUI/lvgl/src/widgets/calendar/lv_calendar.c ****     lv_draw_border_dsc_t * border_draw_dsc = lv_draw_task_get_border_dsc(draw_task);
 320              		.loc 1 345 42 is_stmt 0 view .LVU79
 321 0022 FFF7FEFF 		bl	lv_draw_task_get_fill_dsc
 322              	.LVL39:
 345:../../Middlewares/LVGL/GUI/lvgl/src/widgets/calendar/lv_calendar.c ****     lv_draw_border_dsc_t * border_draw_dsc = lv_draw_task_get_border_dsc(draw_task);
 323              		.loc 1 345 42 view .LVU80
 324 0026 0546     		mov	r5, r0
 325 0028 8046     		mov	r8, r0
 326              	.LVL40:
 346:../../Middlewares/LVGL/GUI/lvgl/src/widgets/calendar/lv_calendar.c **** 
 327              		.loc 1 346 5 is_stmt 1 view .LVU81
 346:../../Middlewares/LVGL/GUI/lvgl/src/widgets/calendar/lv_calendar.c **** 
 328              		.loc 1 346 46 is_stmt 0 view .LVU82
ARM GAS  C:\Users\28576\AppData\Local\Temp\ccBAh4dU.s 			page 15


 329 002a 2046     		mov	r0, r4
 330              	.LVL41:
 346:../../Middlewares/LVGL/GUI/lvgl/src/widgets/calendar/lv_calendar.c **** 
 331              		.loc 1 346 46 view .LVU83
 332 002c FFF7FEFF 		bl	lv_draw_task_get_border_dsc
 333              	.LVL42:
 348:../../Middlewares/LVGL/GUI/lvgl/src/widgets/calendar/lv_calendar.c ****         return;
 334              		.loc 1 348 5 is_stmt 1 view .LVU84
 348:../../Middlewares/LVGL/GUI/lvgl/src/widgets/calendar/lv_calendar.c ****         return;
 335              		.loc 1 348 26 is_stmt 0 view .LVU85
 336 0030 0746     		mov	r7, r0
 348:../../Middlewares/LVGL/GUI/lvgl/src/widgets/calendar/lv_calendar.c ****         return;
 337              		.loc 1 348 7 view .LVU86
 338 0032 002D     		cmp	r5, #0
 339 0034 08BF     		it	eq
 340 0036 0028     		cmpeq	r0, #0
 341 0038 F0D0     		beq	.L21
 352:../../Middlewares/LVGL/GUI/lvgl/src/widgets/calendar/lv_calendar.c **** 
 342              		.loc 1 352 5 is_stmt 1 view .LVU87
 352:../../Middlewares/LVGL/GUI/lvgl/src/widgets/calendar/lv_calendar.c **** 
 343              		.loc 1 352 50 is_stmt 0 view .LVU88
 344 003a 636D     		ldr	r3, [r4, #84]
 352:../../Middlewares/LVGL/GUI/lvgl/src/widgets/calendar/lv_calendar.c **** 
 345              		.loc 1 352 61 view .LVU89
 346 003c 9C68     		ldr	r4, [r3, #8]
 347              	.LVL43:
 355:../../Middlewares/LVGL/GUI/lvgl/src/widgets/calendar/lv_calendar.c ****         if(fill_draw_dsc) fill_draw_dsc->opa = LV_OPA_TRANSP;
 348              		.loc 1 355 5 is_stmt 1 view .LVU90
 355:../../Middlewares/LVGL/GUI/lvgl/src/widgets/calendar/lv_calendar.c ****         if(fill_draw_dsc) fill_draw_dsc->opa = LV_OPA_TRANSP;
 349              		.loc 1 355 7 is_stmt 0 view .LVU91
 350 003e 062C     		cmp	r4, #6
 351 0040 51DC     		bgt	.L23
 356:../../Middlewares/LVGL/GUI/lvgl/src/widgets/calendar/lv_calendar.c ****         if(border_draw_dsc) border_draw_dsc->opa = LV_OPA_TRANSP;
 352              		.loc 1 356 9 is_stmt 1 view .LVU92
 356:../../Middlewares/LVGL/GUI/lvgl/src/widgets/calendar/lv_calendar.c ****         if(border_draw_dsc) border_draw_dsc->opa = LV_OPA_TRANSP;
 353              		.loc 1 356 11 is_stmt 0 view .LVU93
 354 0042 15B1     		cbz	r5, .L24
 356:../../Middlewares/LVGL/GUI/lvgl/src/widgets/calendar/lv_calendar.c ****         if(border_draw_dsc) border_draw_dsc->opa = LV_OPA_TRANSP;
 355              		.loc 1 356 27 is_stmt 1 discriminator 1 view .LVU94
 356:../../Middlewares/LVGL/GUI/lvgl/src/widgets/calendar/lv_calendar.c ****         if(border_draw_dsc) border_draw_dsc->opa = LV_OPA_TRANSP;
 356              		.loc 1 356 46 is_stmt 0 discriminator 1 view .LVU95
 357 0044 0023     		movs	r3, #0
 358 0046 85F82030 		strb	r3, [r5, #32]
 359              	.L24:
 357:../../Middlewares/LVGL/GUI/lvgl/src/widgets/calendar/lv_calendar.c ****     }
 360              		.loc 1 357 9 is_stmt 1 view .LVU96
 357:../../Middlewares/LVGL/GUI/lvgl/src/widgets/calendar/lv_calendar.c ****     }
 361              		.loc 1 357 11 is_stmt 0 view .LVU97
 362 004a 17B1     		cbz	r7, .L25
 357:../../Middlewares/LVGL/GUI/lvgl/src/widgets/calendar/lv_calendar.c ****     }
 363              		.loc 1 357 29 is_stmt 1 discriminator 1 view .LVU98
 357:../../Middlewares/LVGL/GUI/lvgl/src/widgets/calendar/lv_calendar.c ****     }
 364              		.loc 1 357 50 is_stmt 0 discriminator 1 view .LVU99
 365 004c 0023     		movs	r3, #0
 366 004e 87F82830 		strb	r3, [r7, #40]
 367              	.LVL44:
 368              	.L25:
ARM GAS  C:\Users\28576\AppData\Local\Temp\ccBAh4dU.s 			page 16


 364:../../Middlewares/LVGL/GUI/lvgl/src/widgets/calendar/lv_calendar.c ****         if(border_draw_dsc) border_draw_dsc->color = lv_theme_get_color_primary(obj);
 369              		.loc 1 364 5 is_stmt 1 view .LVU100
 364:../../Middlewares/LVGL/GUI/lvgl/src/widgets/calendar/lv_calendar.c ****         if(border_draw_dsc) border_draw_dsc->color = lv_theme_get_color_primary(obj);
 370              		.loc 1 364 8 is_stmt 0 view .LVU101
 371 0052 4FF40042 		mov	r2, #32768
 372 0056 2146     		mov	r1, r4
 373 0058 3046     		mov	r0, r6
 374 005a FFF7FEFF 		bl	lv_buttonmatrix_has_button_ctrl
 375              	.LVL45:
 364:../../Middlewares/LVGL/GUI/lvgl/src/widgets/calendar/lv_calendar.c ****         if(border_draw_dsc) border_draw_dsc->color = lv_theme_get_color_primary(obj);
 376              		.loc 1 364 7 discriminator 1 view .LVU102
 377 005e 20B3     		cbz	r0, .L27
 365:../../Middlewares/LVGL/GUI/lvgl/src/widgets/calendar/lv_calendar.c ****         if(fill_draw_dsc) fill_draw_dsc->opa = LV_OPA_40;
 378              		.loc 1 365 9 is_stmt 1 view .LVU103
 365:../../Middlewares/LVGL/GUI/lvgl/src/widgets/calendar/lv_calendar.c ****         if(fill_draw_dsc) fill_draw_dsc->opa = LV_OPA_40;
 379              		.loc 1 365 11 is_stmt 0 view .LVU104
 380 0060 67B1     		cbz	r7, .L28
 365:../../Middlewares/LVGL/GUI/lvgl/src/widgets/calendar/lv_calendar.c ****         if(fill_draw_dsc) fill_draw_dsc->opa = LV_OPA_40;
 381              		.loc 1 365 29 is_stmt 1 discriminator 1 view .LVU105
 365:../../Middlewares/LVGL/GUI/lvgl/src/widgets/calendar/lv_calendar.c ****         if(fill_draw_dsc) fill_draw_dsc->opa = LV_OPA_40;
 382              		.loc 1 365 54 is_stmt 0 discriminator 1 view .LVU106
 383 0062 3046     		mov	r0, r6
 384 0064 FFF7FEFF 		bl	lv_theme_get_color_primary
 385              	.LVL46:
 386 0068 87F82000 		strb	r0, [r7, #32]
 387 006c C0F30723 		ubfx	r3, r0, #8, #8
 388 0070 87F82130 		strb	r3, [r7, #33]
 389 0074 C0F30740 		ubfx	r0, r0, #16, #8
 390 0078 87F82200 		strb	r0, [r7, #34]
 391              	.L28:
 366:../../Middlewares/LVGL/GUI/lvgl/src/widgets/calendar/lv_calendar.c ****         if(fill_draw_dsc) fill_draw_dsc->color = lv_theme_get_color_primary(obj);
 392              		.loc 1 366 9 is_stmt 1 view .LVU107
 366:../../Middlewares/LVGL/GUI/lvgl/src/widgets/calendar/lv_calendar.c ****         if(fill_draw_dsc) fill_draw_dsc->color = lv_theme_get_color_primary(obj);
 393              		.loc 1 366 11 is_stmt 0 view .LVU108
 394 007c 4546     		mov	r5, r8
 395              	.LVL47:
 366:../../Middlewares/LVGL/GUI/lvgl/src/widgets/calendar/lv_calendar.c ****         if(fill_draw_dsc) fill_draw_dsc->color = lv_theme_get_color_primary(obj);
 396              		.loc 1 366 11 view .LVU109
 397 007e 7DB1     		cbz	r5, .L29
 398              	.LVL48:
 366:../../Middlewares/LVGL/GUI/lvgl/src/widgets/calendar/lv_calendar.c ****         if(fill_draw_dsc) fill_draw_dsc->color = lv_theme_get_color_primary(obj);
 399              		.loc 1 366 27 is_stmt 1 discriminator 1 view .LVU110
 366:../../Middlewares/LVGL/GUI/lvgl/src/widgets/calendar/lv_calendar.c ****         if(fill_draw_dsc) fill_draw_dsc->color = lv_theme_get_color_primary(obj);
 400              		.loc 1 366 46 is_stmt 0 discriminator 1 view .LVU111
 401 0080 6623     		movs	r3, #102
 402 0082 88F82030 		strb	r3, [r8, #32]
 367:../../Middlewares/LVGL/GUI/lvgl/src/widgets/calendar/lv_calendar.c ****         if(lv_buttonmatrix_get_selected_button(obj) == (uint32_t)id) {
 403              		.loc 1 367 9 is_stmt 1 view .LVU112
 367:../../Middlewares/LVGL/GUI/lvgl/src/widgets/calendar/lv_calendar.c ****         if(lv_buttonmatrix_get_selected_button(obj) == (uint32_t)id) {
 404              		.loc 1 367 27 discriminator 1 view .LVU113
 367:../../Middlewares/LVGL/GUI/lvgl/src/widgets/calendar/lv_calendar.c ****         if(lv_buttonmatrix_get_selected_button(obj) == (uint32_t)id) {
 405              		.loc 1 367 50 is_stmt 0 discriminator 1 view .LVU114
 406 0086 3046     		mov	r0, r6
 407 0088 FFF7FEFF 		bl	lv_theme_get_color_primary
 408              	.LVL49:
 409 008c 88F82100 		strb	r0, [r8, #33]
 410 0090 C0F30723 		ubfx	r3, r0, #8, #8
ARM GAS  C:\Users\28576\AppData\Local\Temp\ccBAh4dU.s 			page 17


 411 0094 88F82230 		strb	r3, [r8, #34]
 412 0098 C0F30740 		ubfx	r0, r0, #16, #8
 413 009c 88F82300 		strb	r0, [r8, #35]
 414              	.L29:
 368:../../Middlewares/LVGL/GUI/lvgl/src/widgets/calendar/lv_calendar.c ****             if(fill_draw_dsc) fill_draw_dsc->opa = LV_OPA_70;
 415              		.loc 1 368 9 is_stmt 1 view .LVU115
 368:../../Middlewares/LVGL/GUI/lvgl/src/widgets/calendar/lv_calendar.c ****             if(fill_draw_dsc) fill_draw_dsc->opa = LV_OPA_70;
 416              		.loc 1 368 12 is_stmt 0 view .LVU116
 417 00a0 3046     		mov	r0, r6
 418 00a2 FFF7FEFF 		bl	lv_buttonmatrix_get_selected_button
 419              	.LVL50:
 368:../../Middlewares/LVGL/GUI/lvgl/src/widgets/calendar/lv_calendar.c ****             if(fill_draw_dsc) fill_draw_dsc->opa = LV_OPA_70;
 420              		.loc 1 368 11 discriminator 1 view .LVU117
 421 00a6 8442     		cmp	r4, r0
 422 00a8 2ED0     		beq	.L32
 423              	.L27:
 373:../../Middlewares/LVGL/GUI/lvgl/src/widgets/calendar/lv_calendar.c ****         if(border_draw_dsc) border_draw_dsc->opa = LV_OPA_COVER;
 424              		.loc 1 373 5 is_stmt 1 view .LVU118
 373:../../Middlewares/LVGL/GUI/lvgl/src/widgets/calendar/lv_calendar.c ****         if(border_draw_dsc) border_draw_dsc->opa = LV_OPA_COVER;
 425              		.loc 1 373 8 is_stmt 0 view .LVU119
 426 00aa 4FF48042 		mov	r2, #16384
 427 00ae 2146     		mov	r1, r4
 428 00b0 3046     		mov	r0, r6
 429 00b2 FFF7FEFF 		bl	lv_buttonmatrix_has_button_ctrl
 430              	.LVL51:
 373:../../Middlewares/LVGL/GUI/lvgl/src/widgets/calendar/lv_calendar.c ****         if(border_draw_dsc) border_draw_dsc->opa = LV_OPA_COVER;
 431              		.loc 1 373 7 discriminator 1 view .LVU120
 432 00b6 0028     		cmp	r0, #0
 433 00b8 B0D0     		beq	.L21
 374:../../Middlewares/LVGL/GUI/lvgl/src/widgets/calendar/lv_calendar.c ****         if(border_draw_dsc) border_draw_dsc->color = lv_theme_get_color_primary(obj);
 434              		.loc 1 374 9 is_stmt 1 view .LVU121
 374:../../Middlewares/LVGL/GUI/lvgl/src/widgets/calendar/lv_calendar.c ****         if(border_draw_dsc) border_draw_dsc->color = lv_theme_get_color_primary(obj);
 435              		.loc 1 374 11 is_stmt 0 view .LVU122
 436 00ba 002F     		cmp	r7, #0
 437 00bc AED0     		beq	.L21
 374:../../Middlewares/LVGL/GUI/lvgl/src/widgets/calendar/lv_calendar.c ****         if(border_draw_dsc) border_draw_dsc->color = lv_theme_get_color_primary(obj);
 438              		.loc 1 374 29 is_stmt 1 discriminator 1 view .LVU123
 374:../../Middlewares/LVGL/GUI/lvgl/src/widgets/calendar/lv_calendar.c ****         if(border_draw_dsc) border_draw_dsc->color = lv_theme_get_color_primary(obj);
 439              		.loc 1 374 50 is_stmt 0 discriminator 1 view .LVU124
 440 00be FF23     		movs	r3, #255
 441 00c0 87F82830 		strb	r3, [r7, #40]
 375:../../Middlewares/LVGL/GUI/lvgl/src/widgets/calendar/lv_calendar.c ****         if(border_draw_dsc) border_draw_dsc->width += 1;
 442              		.loc 1 375 9 is_stmt 1 view .LVU125
 375:../../Middlewares/LVGL/GUI/lvgl/src/widgets/calendar/lv_calendar.c ****         if(border_draw_dsc) border_draw_dsc->width += 1;
 443              		.loc 1 375 29 discriminator 1 view .LVU126
 375:../../Middlewares/LVGL/GUI/lvgl/src/widgets/calendar/lv_calendar.c ****         if(border_draw_dsc) border_draw_dsc->width += 1;
 444              		.loc 1 375 54 is_stmt 0 discriminator 1 view .LVU127
 445 00c4 3046     		mov	r0, r6
 446 00c6 FFF7FEFF 		bl	lv_theme_get_color_primary
 447              	.LVL52:
 448 00ca 87F82000 		strb	r0, [r7, #32]
 449 00ce C0F30723 		ubfx	r3, r0, #8, #8
 450 00d2 87F82130 		strb	r3, [r7, #33]
 451 00d6 C0F30740 		ubfx	r0, r0, #16, #8
 452 00da 87F82200 		strb	r0, [r7, #34]
 376:../../Middlewares/LVGL/GUI/lvgl/src/widgets/calendar/lv_calendar.c ****     }
 453              		.loc 1 376 9 is_stmt 1 view .LVU128
ARM GAS  C:\Users\28576\AppData\Local\Temp\ccBAh4dU.s 			page 18


 376:../../Middlewares/LVGL/GUI/lvgl/src/widgets/calendar/lv_calendar.c ****     }
 454              		.loc 1 376 29 discriminator 1 view .LVU129
 376:../../Middlewares/LVGL/GUI/lvgl/src/widgets/calendar/lv_calendar.c ****     }
 455              		.loc 1 376 44 is_stmt 0 discriminator 1 view .LVU130
 456 00de 7B6A     		ldr	r3, [r7, #36]
 376:../../Middlewares/LVGL/GUI/lvgl/src/widgets/calendar/lv_calendar.c ****     }
 457              		.loc 1 376 52 discriminator 1 view .LVU131
 458 00e0 0133     		adds	r3, r3, #1
 459 00e2 7B62     		str	r3, [r7, #36]
 460 00e4 9AE7     		b	.L21
 461              	.LVL53:
 462              	.L23:
 359:../../Middlewares/LVGL/GUI/lvgl/src/widgets/calendar/lv_calendar.c ****         if(fill_draw_dsc) fill_draw_dsc->opa = LV_OPA_TRANSP;
 463              		.loc 1 359 10 is_stmt 1 view .LVU132
 359:../../Middlewares/LVGL/GUI/lvgl/src/widgets/calendar/lv_calendar.c ****         if(fill_draw_dsc) fill_draw_dsc->opa = LV_OPA_TRANSP;
 464              		.loc 1 359 13 is_stmt 0 view .LVU133
 465 00e6 4022     		movs	r2, #64
 466 00e8 2146     		mov	r1, r4
 467 00ea 3046     		mov	r0, r6
 468              	.LVL54:
 359:../../Middlewares/LVGL/GUI/lvgl/src/widgets/calendar/lv_calendar.c ****         if(fill_draw_dsc) fill_draw_dsc->opa = LV_OPA_TRANSP;
 469              		.loc 1 359 13 view .LVU134
 470 00ec FFF7FEFF 		bl	lv_buttonmatrix_has_button_ctrl
 471              	.LVL55:
 359:../../Middlewares/LVGL/GUI/lvgl/src/widgets/calendar/lv_calendar.c ****         if(fill_draw_dsc) fill_draw_dsc->opa = LV_OPA_TRANSP;
 472              		.loc 1 359 12 discriminator 1 view .LVU135
 473 00f0 0028     		cmp	r0, #0
 474 00f2 AED0     		beq	.L25
 360:../../Middlewares/LVGL/GUI/lvgl/src/widgets/calendar/lv_calendar.c ****         if(border_draw_dsc) border_draw_dsc->opa = LV_OPA_TRANSP;
 475              		.loc 1 360 9 is_stmt 1 view .LVU136
 360:../../Middlewares/LVGL/GUI/lvgl/src/widgets/calendar/lv_calendar.c ****         if(border_draw_dsc) border_draw_dsc->opa = LV_OPA_TRANSP;
 476              		.loc 1 360 11 is_stmt 0 view .LVU137
 477 00f4 15B1     		cbz	r5, .L26
 360:../../Middlewares/LVGL/GUI/lvgl/src/widgets/calendar/lv_calendar.c ****         if(border_draw_dsc) border_draw_dsc->opa = LV_OPA_TRANSP;
 478              		.loc 1 360 27 is_stmt 1 discriminator 1 view .LVU138
 360:../../Middlewares/LVGL/GUI/lvgl/src/widgets/calendar/lv_calendar.c ****         if(border_draw_dsc) border_draw_dsc->opa = LV_OPA_TRANSP;
 479              		.loc 1 360 46 is_stmt 0 discriminator 1 view .LVU139
 480 00f6 0023     		movs	r3, #0
 481 00f8 85F82030 		strb	r3, [r5, #32]
 482              	.L26:
 361:../../Middlewares/LVGL/GUI/lvgl/src/widgets/calendar/lv_calendar.c ****     }
 483              		.loc 1 361 9 is_stmt 1 view .LVU140
 361:../../Middlewares/LVGL/GUI/lvgl/src/widgets/calendar/lv_calendar.c ****     }
 484              		.loc 1 361 11 is_stmt 0 view .LVU141
 485 00fc 002F     		cmp	r7, #0
 486 00fe A8D0     		beq	.L25
 361:../../Middlewares/LVGL/GUI/lvgl/src/widgets/calendar/lv_calendar.c ****     }
 487              		.loc 1 361 29 is_stmt 1 discriminator 1 view .LVU142
 361:../../Middlewares/LVGL/GUI/lvgl/src/widgets/calendar/lv_calendar.c ****     }
 488              		.loc 1 361 50 is_stmt 0 discriminator 1 view .LVU143
 489 0100 0023     		movs	r3, #0
 490 0102 87F82830 		strb	r3, [r7, #40]
 491 0106 A4E7     		b	.L25
 492              	.L32:
 369:../../Middlewares/LVGL/GUI/lvgl/src/widgets/calendar/lv_calendar.c ****         }
 493              		.loc 1 369 13 is_stmt 1 view .LVU144
 369:../../Middlewares/LVGL/GUI/lvgl/src/widgets/calendar/lv_calendar.c ****         }
ARM GAS  C:\Users\28576\AppData\Local\Temp\ccBAh4dU.s 			page 19


 494              		.loc 1 369 15 is_stmt 0 view .LVU145
 495 0108 4246     		mov	r2, r8
 496 010a 002A     		cmp	r2, #0
 497 010c CDD0     		beq	.L27
 498              	.LVL56:
 369:../../Middlewares/LVGL/GUI/lvgl/src/widgets/calendar/lv_calendar.c ****         }
 499              		.loc 1 369 31 is_stmt 1 discriminator 1 view .LVU146
 369:../../Middlewares/LVGL/GUI/lvgl/src/widgets/calendar/lv_calendar.c ****         }
 500              		.loc 1 369 50 is_stmt 0 discriminator 1 view .LVU147
 501 010e B223     		movs	r3, #178
 502 0110 88F82030 		strb	r3, [r8, #32]
 503 0114 C9E7     		b	.L27
 504              		.cfi_endproc
 505              	.LFE208:
 507              		.section	.text.highlight_update,"ax",%progbits
 508              		.align	1
 509              		.syntax unified
 510              		.thumb
 511              		.thumb_func
 513              	highlight_update:
 514              	.LVL57:
 515              	.LFB212:
 433:../../Middlewares/LVGL/GUI/lvgl/src/widgets/calendar/lv_calendar.c **** 
 434:../../Middlewares/LVGL/GUI/lvgl/src/widgets/calendar/lv_calendar.c **** static void highlight_update(lv_obj_t * obj)
 435:../../Middlewares/LVGL/GUI/lvgl/src/widgets/calendar/lv_calendar.c **** {
 516              		.loc 1 435 1 is_stmt 1 view -0
 517              		.cfi_startproc
 518              		@ args = 0, pretend = 0, frame = 0
 519              		@ frame_needed = 0, uses_anonymous_args = 0
 520              		.loc 1 435 1 is_stmt 0 view .LVU149
 521 0000 70B5     		push	{r4, r5, r6, lr}
 522              	.LCFI2:
 523              		.cfi_def_cfa_offset 16
 524              		.cfi_offset 4, -16
 525              		.cfi_offset 5, -12
 526              		.cfi_offset 6, -8
 527              		.cfi_offset 14, -4
 528 0002 0446     		mov	r4, r0
 436:../../Middlewares/LVGL/GUI/lvgl/src/widgets/calendar/lv_calendar.c ****     lv_calendar_t * calendar = (lv_calendar_t *)obj;
 529              		.loc 1 436 5 is_stmt 1 view .LVU150
 530              	.LVL58:
 437:../../Middlewares/LVGL/GUI/lvgl/src/widgets/calendar/lv_calendar.c ****     uint32_t i;
 531              		.loc 1 437 5 view .LVU151
 438:../../Middlewares/LVGL/GUI/lvgl/src/widgets/calendar/lv_calendar.c **** 
 439:../../Middlewares/LVGL/GUI/lvgl/src/widgets/calendar/lv_calendar.c ****     /*Clear all kind of selection*/
 440:../../Middlewares/LVGL/GUI/lvgl/src/widgets/calendar/lv_calendar.c ****     lv_buttonmatrix_clear_button_ctrl_all(calendar->btnm, LV_CALENDAR_CTRL_TODAY | LV_CALENDAR_CTRL
 532              		.loc 1 440 5 view .LVU152
 533 0004 4FF44041 		mov	r1, #49152
 534 0008 C06A     		ldr	r0, [r0, #44]
 535              	.LVL59:
 536              		.loc 1 440 5 is_stmt 0 view .LVU153
 537 000a FFF7FEFF 		bl	lv_buttonmatrix_clear_button_ctrl_all
 538              	.LVL60:
 441:../../Middlewares/LVGL/GUI/lvgl/src/widgets/calendar/lv_calendar.c **** 
 442:../../Middlewares/LVGL/GUI/lvgl/src/widgets/calendar/lv_calendar.c ****     uint8_t day_first = get_day_of_week(calendar->showed_date.year, calendar->showed_date.month, 1)
 539              		.loc 1 442 5 is_stmt 1 view .LVU154
 540              		.loc 1 442 25 is_stmt 0 view .LVU155
ARM GAS  C:\Users\28576\AppData\Local\Temp\ccBAh4dU.s 			page 20


 541 000e 0122     		movs	r2, #1
 542 0010 94F93610 		ldrsb	r1, [r4, #54]
 543 0014 A08E     		ldrh	r0, [r4, #52]
 544 0016 FFF7FEFF 		bl	get_day_of_week
 545              	.LVL61:
 546 001a 0646     		mov	r6, r0
 547              	.LVL62:
 443:../../Middlewares/LVGL/GUI/lvgl/src/widgets/calendar/lv_calendar.c ****     if(calendar->highlighted_dates) {
 548              		.loc 1 443 5 is_stmt 1 view .LVU156
 549              		.loc 1 443 16 is_stmt 0 view .LVU157
 550 001c A36B     		ldr	r3, [r4, #56]
 551              		.loc 1 443 7 view .LVU158
 552 001e F3B1     		cbz	r3, .L35
 444:../../Middlewares/LVGL/GUI/lvgl/src/widgets/calendar/lv_calendar.c ****         for(i = 0; i < calendar->highlighted_dates_num; i++) {
 553              		.loc 1 444 15 view .LVU159
 554 0020 0025     		movs	r5, #0
 555 0022 00E0     		b	.L34
 556              	.LVL63:
 557              	.L36:
 558              		.loc 1 444 58 is_stmt 1 discriminator 2 view .LVU160
 559 0024 0135     		adds	r5, r5, #1
 560              	.LVL64:
 561              	.L34:
 562              		.loc 1 444 22 discriminator 1 view .LVU161
 563              		.loc 1 444 32 is_stmt 0 discriminator 1 view .LVU162
 564 0026 E36B     		ldr	r3, [r4, #60]
 565              		.loc 1 444 22 discriminator 1 view .LVU163
 566 0028 AB42     		cmp	r3, r5
 567 002a 18D9     		bls	.L35
 445:../../Middlewares/LVGL/GUI/lvgl/src/widgets/calendar/lv_calendar.c ****             if(calendar->highlighted_dates[i].year == calendar->showed_date.year &&
 568              		.loc 1 445 13 is_stmt 1 view .LVU164
 569              		.loc 1 445 24 is_stmt 0 view .LVU165
 570 002c A36B     		ldr	r3, [r4, #56]
 571              		.loc 1 445 43 view .LVU166
 572 002e 03EB8501 		add	r1, r3, r5, lsl #2
 573              		.loc 1 445 46 view .LVU167
 574 0032 33F82520 		ldrh	r2, [r3, r5, lsl #2]
 575              		.loc 1 445 76 view .LVU168
 576 0036 A38E     		ldrh	r3, [r4, #52]
 577              		.loc 1 445 15 view .LVU169
 578 0038 9A42     		cmp	r2, r3
 579 003a F3D1     		bne	.L36
 446:../../Middlewares/LVGL/GUI/lvgl/src/widgets/calendar/lv_calendar.c ****                calendar->highlighted_dates[i].month == calendar->showed_date.month) {
 580              		.loc 1 446 46 view .LVU170
 581 003c 91F90220 		ldrsb	r2, [r1, #2]
 582              		.loc 1 446 77 view .LVU171
 583 0040 94F93630 		ldrsb	r3, [r4, #54]
 445:../../Middlewares/LVGL/GUI/lvgl/src/widgets/calendar/lv_calendar.c ****             if(calendar->highlighted_dates[i].year == calendar->showed_date.year &&
 584              		.loc 1 445 82 discriminator 1 view .LVU172
 585 0044 9A42     		cmp	r2, r3
 586 0046 EDD1     		bne	.L36
 447:../../Middlewares/LVGL/GUI/lvgl/src/widgets/calendar/lv_calendar.c ****                 lv_buttonmatrix_set_button_ctrl(calendar->btnm, calendar->highlighted_dates[i].day 
 587              		.loc 1 447 17 is_stmt 1 view .LVU173
 588              		.loc 1 447 95 is_stmt 0 view .LVU174
 589 0048 91F90310 		ldrsb	r1, [r1, #3]
 590              		.loc 1 447 100 view .LVU175
 591 004c 0139     		subs	r1, r1, #1
ARM GAS  C:\Users\28576\AppData\Local\Temp\ccBAh4dU.s 			page 21


 592              		.loc 1 447 104 view .LVU176
 593 004e 3144     		add	r1, r1, r6
 594              		.loc 1 447 17 view .LVU177
 595 0050 4FF40042 		mov	r2, #32768
 596 0054 0731     		adds	r1, r1, #7
 597 0056 E06A     		ldr	r0, [r4, #44]
 598 0058 FFF7FEFF 		bl	lv_buttonmatrix_set_button_ctrl
 599              	.LVL65:
 600 005c E2E7     		b	.L36
 601              	.LVL66:
 602              	.L35:
 448:../../Middlewares/LVGL/GUI/lvgl/src/widgets/calendar/lv_calendar.c ****                                                 LV_CALENDAR_CTRL_HIGHLIGHT);
 449:../../Middlewares/LVGL/GUI/lvgl/src/widgets/calendar/lv_calendar.c ****             }
 450:../../Middlewares/LVGL/GUI/lvgl/src/widgets/calendar/lv_calendar.c ****         }
 451:../../Middlewares/LVGL/GUI/lvgl/src/widgets/calendar/lv_calendar.c ****     }
 452:../../Middlewares/LVGL/GUI/lvgl/src/widgets/calendar/lv_calendar.c **** 
 453:../../Middlewares/LVGL/GUI/lvgl/src/widgets/calendar/lv_calendar.c ****     if(calendar->showed_date.year == calendar->today.year && calendar->showed_date.month == calenda
 603              		.loc 1 453 5 is_stmt 1 view .LVU178
 604              		.loc 1 453 29 is_stmt 0 view .LVU179
 605 005e A28E     		ldrh	r2, [r4, #52]
 606              		.loc 1 453 53 view .LVU180
 607 0060 238E     		ldrh	r3, [r4, #48]
 608              		.loc 1 453 7 view .LVU181
 609 0062 9A42     		cmp	r2, r3
 610 0064 00D0     		beq	.L41
 611              	.L33:
 454:../../Middlewares/LVGL/GUI/lvgl/src/widgets/calendar/lv_calendar.c ****         lv_buttonmatrix_set_button_ctrl(calendar->btnm, calendar->today.day - 1 + day_first + 7, LV
 455:../../Middlewares/LVGL/GUI/lvgl/src/widgets/calendar/lv_calendar.c ****     }
 456:../../Middlewares/LVGL/GUI/lvgl/src/widgets/calendar/lv_calendar.c **** }
 612              		.loc 1 456 1 view .LVU182
 613 0066 70BD     		pop	{r4, r5, r6, pc}
 614              	.LVL67:
 615              	.L41:
 453:../../Middlewares/LVGL/GUI/lvgl/src/widgets/calendar/lv_calendar.c ****         lv_buttonmatrix_set_button_ctrl(calendar->btnm, calendar->today.day - 1 + day_first + 7, LV
 616              		.loc 1 453 83 discriminator 1 view .LVU183
 617 0068 94F93620 		ldrsb	r2, [r4, #54]
 453:../../Middlewares/LVGL/GUI/lvgl/src/widgets/calendar/lv_calendar.c ****         lv_buttonmatrix_set_button_ctrl(calendar->btnm, calendar->today.day - 1 + day_first + 7, LV
 618              		.loc 1 453 108 discriminator 1 view .LVU184
 619 006c 94F93230 		ldrsb	r3, [r4, #50]
 453:../../Middlewares/LVGL/GUI/lvgl/src/widgets/calendar/lv_calendar.c ****         lv_buttonmatrix_set_button_ctrl(calendar->btnm, calendar->today.day - 1 + day_first + 7, LV
 620              		.loc 1 453 59 discriminator 1 view .LVU185
 621 0070 9A42     		cmp	r2, r3
 622 0072 F8D1     		bne	.L33
 454:../../Middlewares/LVGL/GUI/lvgl/src/widgets/calendar/lv_calendar.c ****         lv_buttonmatrix_set_button_ctrl(calendar->btnm, calendar->today.day - 1 + day_first + 7, LV
 623              		.loc 1 454 9 is_stmt 1 view .LVU186
 454:../../Middlewares/LVGL/GUI/lvgl/src/widgets/calendar/lv_calendar.c ****         lv_buttonmatrix_set_button_ctrl(calendar->btnm, calendar->today.day - 1 + day_first + 7, LV
 624              		.loc 1 454 72 is_stmt 0 view .LVU187
 625 0074 94F93330 		ldrsb	r3, [r4, #51]
 454:../../Middlewares/LVGL/GUI/lvgl/src/widgets/calendar/lv_calendar.c ****         lv_buttonmatrix_set_button_ctrl(calendar->btnm, calendar->today.day - 1 + day_first + 7, LV
 626              		.loc 1 454 77 view .LVU188
 627 0078 013B     		subs	r3, r3, #1
 454:../../Middlewares/LVGL/GUI/lvgl/src/widgets/calendar/lv_calendar.c ****         lv_buttonmatrix_set_button_ctrl(calendar->btnm, calendar->today.day - 1 + day_first + 7, LV
 628              		.loc 1 454 81 view .LVU189
 629 007a 3146     		mov	r1, r6
 630 007c 1944     		add	r1, r1, r3
 454:../../Middlewares/LVGL/GUI/lvgl/src/widgets/calendar/lv_calendar.c ****         lv_buttonmatrix_set_button_ctrl(calendar->btnm, calendar->today.day - 1 + day_first + 7, LV
 631              		.loc 1 454 9 view .LVU190
ARM GAS  C:\Users\28576\AppData\Local\Temp\ccBAh4dU.s 			page 22


 632 007e 4FF48042 		mov	r2, #16384
 633 0082 0731     		adds	r1, r1, #7
 634 0084 E06A     		ldr	r0, [r4, #44]
 635 0086 FFF7FEFF 		bl	lv_buttonmatrix_set_button_ctrl
 636              	.LVL68:
 637              		.loc 1 456 1 view .LVU191
 638 008a ECE7     		b	.L33
 639              		.cfi_endproc
 640              	.LFE212:
 642              		.section	.text.lv_calendar_create,"ax",%progbits
 643              		.align	1
 644              		.global	lv_calendar_create
 645              		.syntax unified
 646              		.thumb
 647              		.thumb_func
 649              	lv_calendar_create:
 650              	.LVL69:
 651              	.LFB196:
  72:../../Middlewares/LVGL/GUI/lvgl/src/widgets/calendar/lv_calendar.c ****     LV_LOG_INFO("begin");
 652              		.loc 1 72 1 is_stmt 1 view -0
 653              		.cfi_startproc
 654              		@ args = 0, pretend = 0, frame = 0
 655              		@ frame_needed = 0, uses_anonymous_args = 0
  72:../../Middlewares/LVGL/GUI/lvgl/src/widgets/calendar/lv_calendar.c ****     LV_LOG_INFO("begin");
 656              		.loc 1 72 1 is_stmt 0 view .LVU193
 657 0000 10B5     		push	{r4, lr}
 658              	.LCFI3:
 659              		.cfi_def_cfa_offset 8
 660              		.cfi_offset 4, -8
 661              		.cfi_offset 14, -4
 662 0002 0146     		mov	r1, r0
  73:../../Middlewares/LVGL/GUI/lvgl/src/widgets/calendar/lv_calendar.c ****     lv_obj_t * obj = lv_obj_class_create_obj(&lv_calendar_class, parent);
 663              		.loc 1 73 5 is_stmt 1 view .LVU194
  73:../../Middlewares/LVGL/GUI/lvgl/src/widgets/calendar/lv_calendar.c ****     lv_obj_t * obj = lv_obj_class_create_obj(&lv_calendar_class, parent);
 664              		.loc 1 73 5 view .LVU195
  73:../../Middlewares/LVGL/GUI/lvgl/src/widgets/calendar/lv_calendar.c ****     lv_obj_t * obj = lv_obj_class_create_obj(&lv_calendar_class, parent);
 665              		.loc 1 73 5 view .LVU196
  74:../../Middlewares/LVGL/GUI/lvgl/src/widgets/calendar/lv_calendar.c ****     lv_obj_class_init_obj(obj);
 666              		.loc 1 74 5 view .LVU197
  74:../../Middlewares/LVGL/GUI/lvgl/src/widgets/calendar/lv_calendar.c ****     lv_obj_class_init_obj(obj);
 667              		.loc 1 74 22 is_stmt 0 view .LVU198
 668 0004 0348     		ldr	r0, .L44
 669              	.LVL70:
  74:../../Middlewares/LVGL/GUI/lvgl/src/widgets/calendar/lv_calendar.c ****     lv_obj_class_init_obj(obj);
 670              		.loc 1 74 22 view .LVU199
 671 0006 FFF7FEFF 		bl	lv_obj_class_create_obj
 672              	.LVL71:
  74:../../Middlewares/LVGL/GUI/lvgl/src/widgets/calendar/lv_calendar.c ****     lv_obj_class_init_obj(obj);
 673              		.loc 1 74 22 view .LVU200
 674 000a 0446     		mov	r4, r0
 675              	.LVL72:
  75:../../Middlewares/LVGL/GUI/lvgl/src/widgets/calendar/lv_calendar.c ****     return obj;
 676              		.loc 1 75 5 is_stmt 1 view .LVU201
 677 000c FFF7FEFF 		bl	lv_obj_class_init_obj
 678              	.LVL73:
  76:../../Middlewares/LVGL/GUI/lvgl/src/widgets/calendar/lv_calendar.c **** }
 679              		.loc 1 76 5 view .LVU202
ARM GAS  C:\Users\28576\AppData\Local\Temp\ccBAh4dU.s 			page 23


  77:../../Middlewares/LVGL/GUI/lvgl/src/widgets/calendar/lv_calendar.c **** 
 680              		.loc 1 77 1 is_stmt 0 view .LVU203
 681 0010 2046     		mov	r0, r4
 682 0012 10BD     		pop	{r4, pc}
 683              	.LVL74:
 684              	.L45:
  77:../../Middlewares/LVGL/GUI/lvgl/src/widgets/calendar/lv_calendar.c **** 
 685              		.loc 1 77 1 view .LVU204
 686              		.align	2
 687              	.L44:
 688 0014 00000000 		.word	lv_calendar_class
 689              		.cfi_endproc
 690              	.LFE196:
 692              		.section	.text.lv_calendar_set_day_names,"ax",%progbits
 693              		.align	1
 694              		.global	lv_calendar_set_day_names
 695              		.syntax unified
 696              		.thumb
 697              		.thumb_func
 699              	lv_calendar_set_day_names:
 700              	.LVL75:
 701              	.LFB197:
  84:../../Middlewares/LVGL/GUI/lvgl/src/widgets/calendar/lv_calendar.c ****     LV_ASSERT_OBJ(obj, MY_CLASS);
 702              		.loc 1 84 1 is_stmt 1 view -0
 703              		.cfi_startproc
 704              		@ args = 0, pretend = 0, frame = 0
 705              		@ frame_needed = 0, uses_anonymous_args = 0
  85:../../Middlewares/LVGL/GUI/lvgl/src/widgets/calendar/lv_calendar.c ****     lv_calendar_t * calendar = (lv_calendar_t *)obj;
 706              		.loc 1 85 5 view .LVU206
  85:../../Middlewares/LVGL/GUI/lvgl/src/widgets/calendar/lv_calendar.c ****     lv_calendar_t * calendar = (lv_calendar_t *)obj;
 707              		.loc 1 85 5 view .LVU207
 708 0000 18B1     		cbz	r0, .L48
  84:../../Middlewares/LVGL/GUI/lvgl/src/widgets/calendar/lv_calendar.c ****     LV_ASSERT_OBJ(obj, MY_CLASS);
 709              		.loc 1 84 1 is_stmt 0 view .LVU208
 710 0002 08B5     		push	{r3, lr}
 711              	.LCFI4:
 712              		.cfi_def_cfa_offset 8
 713              		.cfi_offset 3, -8
 714              		.cfi_offset 14, -4
 715 0004 8446     		mov	ip, r0
  89:../../Middlewares/LVGL/GUI/lvgl/src/widgets/calendar/lv_calendar.c ****         calendar->map[i] = day_names[i];
 716              		.loc 1 89 11 view .LVU209
 717 0006 0023     		movs	r3, #0
 718 0008 07E0     		b	.L47
 719              	.L48:
 720              	.LCFI5:
 721              		.cfi_def_cfa_offset 0
 722              		.cfi_restore 3
 723              		.cfi_restore 14
  85:../../Middlewares/LVGL/GUI/lvgl/src/widgets/calendar/lv_calendar.c ****     lv_calendar_t * calendar = (lv_calendar_t *)obj;
 724              		.loc 1 85 5 is_stmt 1 view .LVU210
  85:../../Middlewares/LVGL/GUI/lvgl/src/widgets/calendar/lv_calendar.c ****     lv_calendar_t * calendar = (lv_calendar_t *)obj;
 725              		.loc 1 85 5 view .LVU211
  85:../../Middlewares/LVGL/GUI/lvgl/src/widgets/calendar/lv_calendar.c ****     lv_calendar_t * calendar = (lv_calendar_t *)obj;
 726              		.loc 1 85 5 view .LVU212
  85:../../Middlewares/LVGL/GUI/lvgl/src/widgets/calendar/lv_calendar.c ****     lv_calendar_t * calendar = (lv_calendar_t *)obj;
 727              		.loc 1 85 5 view .LVU213
ARM GAS  C:\Users\28576\AppData\Local\Temp\ccBAh4dU.s 			page 24


  85:../../Middlewares/LVGL/GUI/lvgl/src/widgets/calendar/lv_calendar.c ****     lv_calendar_t * calendar = (lv_calendar_t *)obj;
 728              		.loc 1 85 5 view .LVU214
 729 000a FEE7     		b	.L48
 730              	.LVL76:
 731              	.L49:
 732              	.LCFI6:
 733              		.cfi_def_cfa_offset 8
 734              		.cfi_offset 3, -8
 735              		.cfi_offset 14, -4
  90:../../Middlewares/LVGL/GUI/lvgl/src/widgets/calendar/lv_calendar.c ****     }
 736              		.loc 1 90 9 view .LVU215
  90:../../Middlewares/LVGL/GUI/lvgl/src/widgets/calendar/lv_calendar.c ****     }
 737              		.loc 1 90 26 is_stmt 0 view .LVU216
 738 000c 03F11002 		add	r2, r3, #16
 739 0010 51F82300 		ldr	r0, [r1, r3, lsl #2]
 740 0014 4CF82200 		str	r0, [ip, r2, lsl #2]
  89:../../Middlewares/LVGL/GUI/lvgl/src/widgets/calendar/lv_calendar.c ****         calendar->map[i] = day_names[i];
 741              		.loc 1 89 24 is_stmt 1 discriminator 3 view .LVU217
 742 0018 0133     		adds	r3, r3, #1
 743              	.LVL77:
 744              	.L47:
  89:../../Middlewares/LVGL/GUI/lvgl/src/widgets/calendar/lv_calendar.c ****         calendar->map[i] = day_names[i];
 745              		.loc 1 89 18 discriminator 1 view .LVU218
 746 001a 062B     		cmp	r3, #6
 747 001c F6D9     		bls	.L49
  92:../../Middlewares/LVGL/GUI/lvgl/src/widgets/calendar/lv_calendar.c **** }
 748              		.loc 1 92 5 view .LVU219
 749 001e 6046     		mov	r0, ip
 750 0020 FFF7FEFF 		bl	lv_obj_invalidate
 751              	.LVL78:
  93:../../Middlewares/LVGL/GUI/lvgl/src/widgets/calendar/lv_calendar.c **** 
 752              		.loc 1 93 1 is_stmt 0 view .LVU220
 753 0024 08BD     		pop	{r3, pc}
 754              		.cfi_endproc
 755              	.LFE197:
 757              		.section	.text.lv_calendar_set_today_date,"ax",%progbits
 758              		.align	1
 759              		.global	lv_calendar_set_today_date
 760              		.syntax unified
 761              		.thumb
 762              		.thumb_func
 764              	lv_calendar_set_today_date:
 765              	.LVL79:
 766              	.LFB198:
  96:../../Middlewares/LVGL/GUI/lvgl/src/widgets/calendar/lv_calendar.c ****     LV_ASSERT_OBJ(obj, MY_CLASS);
 767              		.loc 1 96 1 is_stmt 1 view -0
 768              		.cfi_startproc
 769              		@ args = 0, pretend = 0, frame = 0
 770              		@ frame_needed = 0, uses_anonymous_args = 0
  97:../../Middlewares/LVGL/GUI/lvgl/src/widgets/calendar/lv_calendar.c ****     lv_calendar_t * calendar = (lv_calendar_t *)obj;
 771              		.loc 1 97 5 view .LVU222
  97:../../Middlewares/LVGL/GUI/lvgl/src/widgets/calendar/lv_calendar.c ****     lv_calendar_t * calendar = (lv_calendar_t *)obj;
 772              		.loc 1 97 5 view .LVU223
 773 0000 40B1     		cbz	r0, .L55
  96:../../Middlewares/LVGL/GUI/lvgl/src/widgets/calendar/lv_calendar.c ****     LV_ASSERT_OBJ(obj, MY_CLASS);
 774              		.loc 1 96 1 is_stmt 0 view .LVU224
 775 0002 08B5     		push	{r3, lr}
ARM GAS  C:\Users\28576\AppData\Local\Temp\ccBAh4dU.s 			page 25


 776              	.LCFI7:
 777              		.cfi_def_cfa_offset 8
 778              		.cfi_offset 3, -8
 779              		.cfi_offset 14, -4
  97:../../Middlewares/LVGL/GUI/lvgl/src/widgets/calendar/lv_calendar.c ****     lv_calendar_t * calendar = (lv_calendar_t *)obj;
 780              		.loc 1 97 5 is_stmt 1 view .LVU225
  97:../../Middlewares/LVGL/GUI/lvgl/src/widgets/calendar/lv_calendar.c ****     lv_calendar_t * calendar = (lv_calendar_t *)obj;
 781              		.loc 1 97 33 view .LVU226
  98:../../Middlewares/LVGL/GUI/lvgl/src/widgets/calendar/lv_calendar.c **** 
 782              		.loc 1 98 5 view .LVU227
 783              	.LVL80:
 100:../../Middlewares/LVGL/GUI/lvgl/src/widgets/calendar/lv_calendar.c ****     calendar->today.month        = month;
 784              		.loc 1 100 5 view .LVU228
 100:../../Middlewares/LVGL/GUI/lvgl/src/widgets/calendar/lv_calendar.c ****     calendar->today.month        = month;
 785              		.loc 1 100 34 is_stmt 0 view .LVU229
 786 0004 0186     		strh	r1, [r0, #48]	@ movhi
 101:../../Middlewares/LVGL/GUI/lvgl/src/widgets/calendar/lv_calendar.c ****     calendar->today.day          = day;
 787              		.loc 1 101 5 is_stmt 1 view .LVU230
 101:../../Middlewares/LVGL/GUI/lvgl/src/widgets/calendar/lv_calendar.c ****     calendar->today.day          = day;
 788              		.loc 1 101 34 is_stmt 0 view .LVU231
 789 0006 80F83220 		strb	r2, [r0, #50]
 102:../../Middlewares/LVGL/GUI/lvgl/src/widgets/calendar/lv_calendar.c **** 
 790              		.loc 1 102 5 is_stmt 1 view .LVU232
 102:../../Middlewares/LVGL/GUI/lvgl/src/widgets/calendar/lv_calendar.c **** 
 791              		.loc 1 102 34 is_stmt 0 view .LVU233
 792 000a 80F83330 		strb	r3, [r0, #51]
 104:../../Middlewares/LVGL/GUI/lvgl/src/widgets/calendar/lv_calendar.c **** }
 793              		.loc 1 104 5 is_stmt 1 view .LVU234
 794 000e FFF7FEFF 		bl	highlight_update
 795              	.LVL81:
 105:../../Middlewares/LVGL/GUI/lvgl/src/widgets/calendar/lv_calendar.c **** 
 796              		.loc 1 105 1 is_stmt 0 view .LVU235
 797 0012 08BD     		pop	{r3, pc}
 798              	.LVL82:
 799              	.L55:
 800              	.LCFI8:
 801              		.cfi_def_cfa_offset 0
 802              		.cfi_restore 3
 803              		.cfi_restore 14
  97:../../Middlewares/LVGL/GUI/lvgl/src/widgets/calendar/lv_calendar.c ****     lv_calendar_t * calendar = (lv_calendar_t *)obj;
 804              		.loc 1 97 5 is_stmt 1 view .LVU236
  97:../../Middlewares/LVGL/GUI/lvgl/src/widgets/calendar/lv_calendar.c ****     lv_calendar_t * calendar = (lv_calendar_t *)obj;
 805              		.loc 1 97 5 view .LVU237
  97:../../Middlewares/LVGL/GUI/lvgl/src/widgets/calendar/lv_calendar.c ****     lv_calendar_t * calendar = (lv_calendar_t *)obj;
 806              		.loc 1 97 5 view .LVU238
  97:../../Middlewares/LVGL/GUI/lvgl/src/widgets/calendar/lv_calendar.c ****     lv_calendar_t * calendar = (lv_calendar_t *)obj;
 807              		.loc 1 97 5 view .LVU239
  97:../../Middlewares/LVGL/GUI/lvgl/src/widgets/calendar/lv_calendar.c ****     lv_calendar_t * calendar = (lv_calendar_t *)obj;
 808              		.loc 1 97 5 view .LVU240
 809 0014 FEE7     		b	.L55
 810              		.cfi_endproc
 811              	.LFE198:
 813              		.section	.text.lv_calendar_set_highlighted_dates,"ax",%progbits
 814              		.align	1
 815              		.global	lv_calendar_set_highlighted_dates
 816              		.syntax unified
 817              		.thumb
ARM GAS  C:\Users\28576\AppData\Local\Temp\ccBAh4dU.s 			page 26


 818              		.thumb_func
 820              	lv_calendar_set_highlighted_dates:
 821              	.LVL83:
 822              	.LFB199:
 108:../../Middlewares/LVGL/GUI/lvgl/src/widgets/calendar/lv_calendar.c ****     LV_ASSERT_NULL(highlighted);
 823              		.loc 1 108 1 view -0
 824              		.cfi_startproc
 825              		@ args = 0, pretend = 0, frame = 0
 826              		@ frame_needed = 0, uses_anonymous_args = 0
 109:../../Middlewares/LVGL/GUI/lvgl/src/widgets/calendar/lv_calendar.c **** 
 827              		.loc 1 109 5 view .LVU242
 109:../../Middlewares/LVGL/GUI/lvgl/src/widgets/calendar/lv_calendar.c **** 
 828              		.loc 1 109 5 view .LVU243
 829 0000 31B1     		cbz	r1, .L60
 108:../../Middlewares/LVGL/GUI/lvgl/src/widgets/calendar/lv_calendar.c ****     LV_ASSERT_NULL(highlighted);
 830              		.loc 1 108 1 is_stmt 0 view .LVU244
 831 0002 08B5     		push	{r3, lr}
 832              	.LCFI9:
 833              		.cfi_def_cfa_offset 8
 834              		.cfi_offset 3, -8
 835              		.cfi_offset 14, -4
 109:../../Middlewares/LVGL/GUI/lvgl/src/widgets/calendar/lv_calendar.c **** 
 836              		.loc 1 109 5 is_stmt 1 view .LVU245
 109:../../Middlewares/LVGL/GUI/lvgl/src/widgets/calendar/lv_calendar.c **** 
 837              		.loc 1 109 32 view .LVU246
 111:../../Middlewares/LVGL/GUI/lvgl/src/widgets/calendar/lv_calendar.c ****     lv_calendar_t * calendar = (lv_calendar_t *)obj;
 838              		.loc 1 111 5 view .LVU247
 111:../../Middlewares/LVGL/GUI/lvgl/src/widgets/calendar/lv_calendar.c ****     lv_calendar_t * calendar = (lv_calendar_t *)obj;
 839              		.loc 1 111 5 view .LVU248
 840 0004 28B1     		cbz	r0, .L62
 111:../../Middlewares/LVGL/GUI/lvgl/src/widgets/calendar/lv_calendar.c ****     lv_calendar_t * calendar = (lv_calendar_t *)obj;
 841              		.loc 1 111 5 view .LVU249
 111:../../Middlewares/LVGL/GUI/lvgl/src/widgets/calendar/lv_calendar.c ****     lv_calendar_t * calendar = (lv_calendar_t *)obj;
 842              		.loc 1 111 33 view .LVU250
 112:../../Middlewares/LVGL/GUI/lvgl/src/widgets/calendar/lv_calendar.c **** 
 843              		.loc 1 112 5 view .LVU251
 844              	.LVL84:
 114:../../Middlewares/LVGL/GUI/lvgl/src/widgets/calendar/lv_calendar.c ****     calendar->highlighted_dates_num = date_num;
 845              		.loc 1 114 5 view .LVU252
 114:../../Middlewares/LVGL/GUI/lvgl/src/widgets/calendar/lv_calendar.c ****     calendar->highlighted_dates_num = date_num;
 846              		.loc 1 114 37 is_stmt 0 view .LVU253
 847 0006 8163     		str	r1, [r0, #56]
 115:../../Middlewares/LVGL/GUI/lvgl/src/widgets/calendar/lv_calendar.c **** 
 848              		.loc 1 115 5 is_stmt 1 view .LVU254
 115:../../Middlewares/LVGL/GUI/lvgl/src/widgets/calendar/lv_calendar.c **** 
 849              		.loc 1 115 37 is_stmt 0 view .LVU255
 850 0008 C263     		str	r2, [r0, #60]
 117:../../Middlewares/LVGL/GUI/lvgl/src/widgets/calendar/lv_calendar.c **** }
 851              		.loc 1 117 5 is_stmt 1 view .LVU256
 852 000a FFF7FEFF 		bl	highlight_update
 853              	.LVL85:
 118:../../Middlewares/LVGL/GUI/lvgl/src/widgets/calendar/lv_calendar.c **** 
 854              		.loc 1 118 1 is_stmt 0 view .LVU257
 855 000e 08BD     		pop	{r3, pc}
 856              	.LVL86:
 857              	.L60:
 858              	.LCFI10:
ARM GAS  C:\Users\28576\AppData\Local\Temp\ccBAh4dU.s 			page 27


 859              		.cfi_def_cfa_offset 0
 860              		.cfi_restore 3
 861              		.cfi_restore 14
 109:../../Middlewares/LVGL/GUI/lvgl/src/widgets/calendar/lv_calendar.c **** 
 862              		.loc 1 109 5 is_stmt 1 view .LVU258
 109:../../Middlewares/LVGL/GUI/lvgl/src/widgets/calendar/lv_calendar.c **** 
 863              		.loc 1 109 5 view .LVU259
 109:../../Middlewares/LVGL/GUI/lvgl/src/widgets/calendar/lv_calendar.c **** 
 864              		.loc 1 109 5 view .LVU260
 109:../../Middlewares/LVGL/GUI/lvgl/src/widgets/calendar/lv_calendar.c **** 
 865              		.loc 1 109 5 view .LVU261
 109:../../Middlewares/LVGL/GUI/lvgl/src/widgets/calendar/lv_calendar.c **** 
 866              		.loc 1 109 5 view .LVU262
 867 0010 FEE7     		b	.L60
 868              	.L62:
 869              	.LCFI11:
 870              		.cfi_def_cfa_offset 8
 871              		.cfi_offset 3, -8
 872              		.cfi_offset 14, -4
 111:../../Middlewares/LVGL/GUI/lvgl/src/widgets/calendar/lv_calendar.c ****     lv_calendar_t * calendar = (lv_calendar_t *)obj;
 873              		.loc 1 111 5 view .LVU263
 111:../../Middlewares/LVGL/GUI/lvgl/src/widgets/calendar/lv_calendar.c ****     lv_calendar_t * calendar = (lv_calendar_t *)obj;
 874              		.loc 1 111 5 view .LVU264
 111:../../Middlewares/LVGL/GUI/lvgl/src/widgets/calendar/lv_calendar.c ****     lv_calendar_t * calendar = (lv_calendar_t *)obj;
 875              		.loc 1 111 5 view .LVU265
 111:../../Middlewares/LVGL/GUI/lvgl/src/widgets/calendar/lv_calendar.c ****     lv_calendar_t * calendar = (lv_calendar_t *)obj;
 876              		.loc 1 111 5 view .LVU266
 111:../../Middlewares/LVGL/GUI/lvgl/src/widgets/calendar/lv_calendar.c ****     lv_calendar_t * calendar = (lv_calendar_t *)obj;
 877              		.loc 1 111 5 view .LVU267
 878 0012 FEE7     		b	.L62
 879              		.cfi_endproc
 880              	.LFE199:
 882              		.section	.rodata.lv_calendar_set_month_shown.str1.4,"aMS",%progbits,1
 883              		.align	2
 884              	.LC0:
 885 0000 256400   		.ascii	"%d\000"
 886              		.section	.text.lv_calendar_set_month_shown,"ax",%progbits
 887              		.align	1
 888              		.global	lv_calendar_set_month_shown
 889              		.syntax unified
 890              		.thumb
 891              		.thumb_func
 893              	lv_calendar_set_month_shown:
 894              	.LVL87:
 895              	.LFB200:
 121:../../Middlewares/LVGL/GUI/lvgl/src/widgets/calendar/lv_calendar.c ****     LV_ASSERT_OBJ(obj, MY_CLASS);
 896              		.loc 1 121 1 view -0
 897              		.cfi_startproc
 898              		@ args = 0, pretend = 0, frame = 8
 899              		@ frame_needed = 0, uses_anonymous_args = 0
 122:../../Middlewares/LVGL/GUI/lvgl/src/widgets/calendar/lv_calendar.c ****     lv_calendar_t * calendar = (lv_calendar_t *)obj;
 900              		.loc 1 122 5 view .LVU269
 122:../../Middlewares/LVGL/GUI/lvgl/src/widgets/calendar/lv_calendar.c ****     lv_calendar_t * calendar = (lv_calendar_t *)obj;
 901              		.loc 1 122 5 view .LVU270
 902 0000 C8B1     		cbz	r0, .L67
 121:../../Middlewares/LVGL/GUI/lvgl/src/widgets/calendar/lv_calendar.c ****     LV_ASSERT_OBJ(obj, MY_CLASS);
 903              		.loc 1 121 1 is_stmt 0 view .LVU271
ARM GAS  C:\Users\28576\AppData\Local\Temp\ccBAh4dU.s 			page 28


 904 0002 2DE9F04F 		push	{r4, r5, r6, r7, r8, r9, r10, fp, lr}
 905              	.LCFI12:
 906              		.cfi_def_cfa_offset 36
 907              		.cfi_offset 4, -36
 908              		.cfi_offset 5, -32
 909              		.cfi_offset 6, -28
 910              		.cfi_offset 7, -24
 911              		.cfi_offset 8, -20
 912              		.cfi_offset 9, -16
 913              		.cfi_offset 10, -12
 914              		.cfi_offset 11, -8
 915              		.cfi_offset 14, -4
 916 0006 83B0     		sub	sp, sp, #12
 917              	.LCFI13:
 918              		.cfi_def_cfa_offset 48
 919 0008 8B46     		mov	fp, r1
 920 000a 0446     		mov	r4, r0
 122:../../Middlewares/LVGL/GUI/lvgl/src/widgets/calendar/lv_calendar.c ****     lv_calendar_t * calendar = (lv_calendar_t *)obj;
 921              		.loc 1 122 5 is_stmt 1 view .LVU272
 122:../../Middlewares/LVGL/GUI/lvgl/src/widgets/calendar/lv_calendar.c ****     lv_calendar_t * calendar = (lv_calendar_t *)obj;
 922              		.loc 1 122 33 view .LVU273
 123:../../Middlewares/LVGL/GUI/lvgl/src/widgets/calendar/lv_calendar.c **** 
 923              		.loc 1 123 5 view .LVU274
 924              	.LVL88:
 125:../../Middlewares/LVGL/GUI/lvgl/src/widgets/calendar/lv_calendar.c ****     calendar->showed_date.month  = month;
 925              		.loc 1 125 5 view .LVU275
 125:../../Middlewares/LVGL/GUI/lvgl/src/widgets/calendar/lv_calendar.c ****     calendar->showed_date.month  = month;
 926              		.loc 1 125 34 is_stmt 0 view .LVU276
 927 000c 89B2     		uxth	r1, r1
 928              	.LVL89:
 125:../../Middlewares/LVGL/GUI/lvgl/src/widgets/calendar/lv_calendar.c ****     calendar->showed_date.month  = month;
 929              		.loc 1 125 34 view .LVU277
 930 000e 8186     		strh	r1, [r0, #52]	@ movhi
 126:../../Middlewares/LVGL/GUI/lvgl/src/widgets/calendar/lv_calendar.c ****     calendar->showed_date.day    = 1;
 931              		.loc 1 126 5 is_stmt 1 view .LVU278
 126:../../Middlewares/LVGL/GUI/lvgl/src/widgets/calendar/lv_calendar.c ****     calendar->showed_date.day    = 1;
 932              		.loc 1 126 34 is_stmt 0 view .LVU279
 933 0010 4FFA82F9 		sxtb	r9, r2
 934 0014 80F83690 		strb	r9, [r0, #54]
 127:../../Middlewares/LVGL/GUI/lvgl/src/widgets/calendar/lv_calendar.c **** 
 935              		.loc 1 127 5 is_stmt 1 view .LVU280
 127:../../Middlewares/LVGL/GUI/lvgl/src/widgets/calendar/lv_calendar.c **** 
 936              		.loc 1 127 34 is_stmt 0 view .LVU281
 937 0018 0123     		movs	r3, #1
 938 001a 80F83730 		strb	r3, [r0, #55]
 129:../../Middlewares/LVGL/GUI/lvgl/src/widgets/calendar/lv_calendar.c ****     d.year = calendar->showed_date.year;
 939              		.loc 1 129 5 is_stmt 1 view .LVU282
 130:../../Middlewares/LVGL/GUI/lvgl/src/widgets/calendar/lv_calendar.c ****     d.month = calendar->showed_date.month;
 940              		.loc 1 130 5 view .LVU283
 130:../../Middlewares/LVGL/GUI/lvgl/src/widgets/calendar/lv_calendar.c ****     d.month = calendar->showed_date.month;
 941              		.loc 1 130 12 is_stmt 0 view .LVU284
 942 001e ADF80410 		strh	r1, [sp, #4]	@ movhi
 131:../../Middlewares/LVGL/GUI/lvgl/src/widgets/calendar/lv_calendar.c ****     d.day = calendar->showed_date.day;
 943              		.loc 1 131 5 is_stmt 1 view .LVU285
 131:../../Middlewares/LVGL/GUI/lvgl/src/widgets/calendar/lv_calendar.c ****     d.day = calendar->showed_date.day;
 944              		.loc 1 131 13 is_stmt 0 view .LVU286
 945 0022 8DF80690 		strb	r9, [sp, #6]
ARM GAS  C:\Users\28576\AppData\Local\Temp\ccBAh4dU.s 			page 29


 132:../../Middlewares/LVGL/GUI/lvgl/src/widgets/calendar/lv_calendar.c **** 
 946              		.loc 1 132 5 is_stmt 1 view .LVU287
 132:../../Middlewares/LVGL/GUI/lvgl/src/widgets/calendar/lv_calendar.c **** 
 947              		.loc 1 132 11 is_stmt 0 view .LVU288
 948 0026 8DF80730 		strb	r3, [sp, #7]
 134:../../Middlewares/LVGL/GUI/lvgl/src/widgets/calendar/lv_calendar.c **** 
 949              		.loc 1 134 5 is_stmt 1 view .LVU289
 137:../../Middlewares/LVGL/GUI/lvgl/src/widgets/calendar/lv_calendar.c ****     for(i = 0; i < 7; i++) {
 950              		.loc 1 137 5 view .LVU290
 951 002a 4021     		movs	r1, #64
 952 002c C06A     		ldr	r0, [r0, #44]
 953              	.LVL90:
 137:../../Middlewares/LVGL/GUI/lvgl/src/widgets/calendar/lv_calendar.c ****     for(i = 0; i < 7; i++) {
 954              		.loc 1 137 5 is_stmt 0 view .LVU291
 955 002e FFF7FEFF 		bl	lv_buttonmatrix_clear_button_ctrl_all
 956              	.LVL91:
 138:../../Middlewares/LVGL/GUI/lvgl/src/widgets/calendar/lv_calendar.c ****         lv_buttonmatrix_set_button_ctrl(calendar->btnm, i, LV_BUTTONMATRIX_CTRL_DISABLED);
 957              		.loc 1 138 5 is_stmt 1 view .LVU292
 138:../../Middlewares/LVGL/GUI/lvgl/src/widgets/calendar/lv_calendar.c ****         lv_buttonmatrix_set_button_ctrl(calendar->btnm, i, LV_BUTTONMATRIX_CTRL_DISABLED);
 958              		.loc 1 138 11 is_stmt 0 view .LVU293
 959 0032 0025     		movs	r5, #0
 138:../../Middlewares/LVGL/GUI/lvgl/src/widgets/calendar/lv_calendar.c ****         lv_buttonmatrix_set_button_ctrl(calendar->btnm, i, LV_BUTTONMATRIX_CTRL_DISABLED);
 960              		.loc 1 138 5 view .LVU294
 961 0034 06E0     		b	.L68
 962              	.LVL92:
 963              	.L67:
 964              	.LCFI14:
 965              		.cfi_def_cfa_offset 0
 966              		.cfi_restore 4
 967              		.cfi_restore 5
 968              		.cfi_restore 6
 969              		.cfi_restore 7
 970              		.cfi_restore 8
 971              		.cfi_restore 9
 972              		.cfi_restore 10
 973              		.cfi_restore 11
 974              		.cfi_restore 14
 122:../../Middlewares/LVGL/GUI/lvgl/src/widgets/calendar/lv_calendar.c ****     lv_calendar_t * calendar = (lv_calendar_t *)obj;
 975              		.loc 1 122 5 is_stmt 1 view .LVU295
 122:../../Middlewares/LVGL/GUI/lvgl/src/widgets/calendar/lv_calendar.c ****     lv_calendar_t * calendar = (lv_calendar_t *)obj;
 976              		.loc 1 122 5 view .LVU296
 122:../../Middlewares/LVGL/GUI/lvgl/src/widgets/calendar/lv_calendar.c ****     lv_calendar_t * calendar = (lv_calendar_t *)obj;
 977              		.loc 1 122 5 view .LVU297
 122:../../Middlewares/LVGL/GUI/lvgl/src/widgets/calendar/lv_calendar.c ****     lv_calendar_t * calendar = (lv_calendar_t *)obj;
 978              		.loc 1 122 5 view .LVU298
 122:../../Middlewares/LVGL/GUI/lvgl/src/widgets/calendar/lv_calendar.c ****     lv_calendar_t * calendar = (lv_calendar_t *)obj;
 979              		.loc 1 122 5 view .LVU299
 980 0036 FEE7     		b	.L67
 981              	.LVL93:
 982              	.L69:
 983              	.LCFI15:
 984              		.cfi_def_cfa_offset 48
 985              		.cfi_offset 4, -36
 986              		.cfi_offset 5, -32
 987              		.cfi_offset 6, -28
 988              		.cfi_offset 7, -24
 989              		.cfi_offset 8, -20
ARM GAS  C:\Users\28576\AppData\Local\Temp\ccBAh4dU.s 			page 30


 990              		.cfi_offset 9, -16
 991              		.cfi_offset 10, -12
 992              		.cfi_offset 11, -8
 993              		.cfi_offset 14, -4
 139:../../Middlewares/LVGL/GUI/lvgl/src/widgets/calendar/lv_calendar.c ****     }
 994              		.loc 1 139 9 view .LVU300
 995 0038 4022     		movs	r2, #64
 996 003a 2946     		mov	r1, r5
 997 003c E06A     		ldr	r0, [r4, #44]
 998 003e FFF7FEFF 		bl	lv_buttonmatrix_set_button_ctrl
 999              	.LVL94:
 138:../../Middlewares/LVGL/GUI/lvgl/src/widgets/calendar/lv_calendar.c ****         lv_buttonmatrix_set_button_ctrl(calendar->btnm, i, LV_BUTTONMATRIX_CTRL_DISABLED);
 1000              		.loc 1 138 24 discriminator 3 view .LVU301
 1001 0042 0135     		adds	r5, r5, #1
 1002              	.LVL95:
 1003              	.L68:
 138:../../Middlewares/LVGL/GUI/lvgl/src/widgets/calendar/lv_calendar.c ****         lv_buttonmatrix_set_button_ctrl(calendar->btnm, i, LV_BUTTONMATRIX_CTRL_DISABLED);
 1004              		.loc 1 138 18 discriminator 1 view .LVU302
 1005 0044 062D     		cmp	r5, #6
 1006 0046 F7D9     		bls	.L69
 142:../../Middlewares/LVGL/GUI/lvgl/src/widgets/calendar/lv_calendar.c ****     uint8_t day_first = get_day_of_week(d.year, d.month, 1);
 1007              		.loc 1 142 5 view .LVU303
 142:../../Middlewares/LVGL/GUI/lvgl/src/widgets/calendar/lv_calendar.c ****     uint8_t day_first = get_day_of_week(d.year, d.month, 1);
 1008              		.loc 1 142 26 is_stmt 0 view .LVU304
 1009 0048 1FFA8BFB 		uxth	fp, fp
 1010              	.LVL96:
 142:../../Middlewares/LVGL/GUI/lvgl/src/widgets/calendar/lv_calendar.c ****     uint8_t day_first = get_day_of_week(d.year, d.month, 1);
 1011              		.loc 1 142 26 view .LVU305
 1012 004c 4946     		mov	r1, r9
 1013 004e 5846     		mov	r0, fp
 1014 0050 FFF7FEFF 		bl	get_month_length
 1015              	.LVL97:
 1016 0054 8246     		mov	r10, r0
 1017              	.LVL98:
 143:../../Middlewares/LVGL/GUI/lvgl/src/widgets/calendar/lv_calendar.c ****     uint8_t c;
 1018              		.loc 1 143 5 is_stmt 1 view .LVU306
 143:../../Middlewares/LVGL/GUI/lvgl/src/widgets/calendar/lv_calendar.c ****     uint8_t c;
 1019              		.loc 1 143 25 is_stmt 0 view .LVU307
 1020 0056 0122     		movs	r2, #1
 1021 0058 4946     		mov	r1, r9
 1022 005a 5846     		mov	r0, fp
 1023 005c FFF7FEFF 		bl	get_day_of_week
 1024              	.LVL99:
 1025 0060 0646     		mov	r6, r0
 1026              	.LVL100:
 144:../../Middlewares/LVGL/GUI/lvgl/src/widgets/calendar/lv_calendar.c **** 
 1027              		.loc 1 144 5 is_stmt 1 view .LVU308
 151:../../Middlewares/LVGL/GUI/lvgl/src/widgets/calendar/lv_calendar.c **** #if LV_USE_CALENDAR_CHINESE
 1028              		.loc 1 151 5 view .LVU309
 151:../../Middlewares/LVGL/GUI/lvgl/src/widgets/calendar/lv_calendar.c **** #if LV_USE_CALENDAR_CHINESE
 1029              		.loc 1 151 11 is_stmt 0 view .LVU310
 1030 0062 0746     		mov	r7, r0
 151:../../Middlewares/LVGL/GUI/lvgl/src/widgets/calendar/lv_calendar.c **** #if LV_USE_CALENDAR_CHINESE
 1031              		.loc 1 151 26 view .LVU311
 1032 0064 4FF00108 		mov	r8, #1
 151:../../Middlewares/LVGL/GUI/lvgl/src/widgets/calendar/lv_calendar.c **** #if LV_USE_CALENDAR_CHINESE
 1033              		.loc 1 151 5 view .LVU312
ARM GAS  C:\Users\28576\AppData\Local\Temp\ccBAh4dU.s 			page 31


 1034 0068 10E0     		b	.L70
 1035              	.LVL101:
 1036              	.L71:
 159:../../Middlewares/LVGL/GUI/lvgl/src/widgets/calendar/lv_calendar.c ****     }
 1037              		.loc 1 159 13 is_stmt 1 view .LVU313
 159:../../Middlewares/LVGL/GUI/lvgl/src/widgets/calendar/lv_calendar.c ****     }
 1038              		.loc 1 159 39 is_stmt 0 view .LVU314
 1039 006a 07EB8700 		add	r0, r7, r7, lsl #2
 1040 006e 8000     		lsls	r0, r0, #2
 1041 0070 00F59070 		add	r0, r0, #288
 1042 0074 2044     		add	r0, r0, r4
 159:../../Middlewares/LVGL/GUI/lvgl/src/widgets/calendar/lv_calendar.c ****     }
 1043              		.loc 1 159 13 view .LVU315
 1044 0076 4346     		mov	r3, r8
 1045 0078 3B4A     		ldr	r2, .L84
 1046 007a 1421     		movs	r1, #20
 1047 007c 0130     		adds	r0, r0, #1
 1048 007e FFF7FEFF 		bl	lv_snprintf
 1049              	.LVL102:
 151:../../Middlewares/LVGL/GUI/lvgl/src/widgets/calendar/lv_calendar.c **** #if LV_USE_CALENDAR_CHINESE
 1050              		.loc 1 151 62 is_stmt 1 discriminator 3 view .LVU316
 151:../../Middlewares/LVGL/GUI/lvgl/src/widgets/calendar/lv_calendar.c **** #if LV_USE_CALENDAR_CHINESE
 1051              		.loc 1 151 60 is_stmt 0 discriminator 3 view .LVU317
 1052 0082 0137     		adds	r7, r7, #1
 1053              	.LVL103:
 151:../../Middlewares/LVGL/GUI/lvgl/src/widgets/calendar/lv_calendar.c **** #if LV_USE_CALENDAR_CHINESE
 1054              		.loc 1 151 65 discriminator 3 view .LVU318
 1055 0084 08F10108 		add	r8, r8, #1
 1056              	.LVL104:
 151:../../Middlewares/LVGL/GUI/lvgl/src/widgets/calendar/lv_calendar.c **** #if LV_USE_CALENDAR_CHINESE
 1057              		.loc 1 151 65 discriminator 3 view .LVU319
 1058 0088 5FFA88F8 		uxtb	r8, r8
 1059              	.LVL105:
 1060              	.L70:
 151:../../Middlewares/LVGL/GUI/lvgl/src/widgets/calendar/lv_calendar.c **** #if LV_USE_CALENDAR_CHINESE
 1061              		.loc 1 151 33 is_stmt 1 discriminator 1 view .LVU320
 151:../../Middlewares/LVGL/GUI/lvgl/src/widgets/calendar/lv_calendar.c **** #if LV_USE_CALENDAR_CHINESE
 1062              		.loc 1 151 46 is_stmt 0 discriminator 1 view .LVU321
 1063 008c 0AEB0605 		add	r5, r10, r6
 151:../../Middlewares/LVGL/GUI/lvgl/src/widgets/calendar/lv_calendar.c **** #if LV_USE_CALENDAR_CHINESE
 1064              		.loc 1 151 33 discriminator 1 view .LVU322
 1065 0090 BD42     		cmp	r5, r7
 1066 0092 EAD8     		bhi	.L71
 162:../../Middlewares/LVGL/GUI/lvgl/src/widgets/calendar/lv_calendar.c **** 
 1067              		.loc 1 162 5 is_stmt 1 view .LVU323
 162:../../Middlewares/LVGL/GUI/lvgl/src/widgets/calendar/lv_calendar.c **** 
 1068              		.loc 1 162 27 is_stmt 0 view .LVU324
 1069 0094 09F1FF31 		add	r1, r9, #-1
 1070 0098 5846     		mov	r0, fp
 1071 009a FFF7FEFF 		bl	get_month_length
 1072              	.LVL106:
 168:../../Middlewares/LVGL/GUI/lvgl/src/widgets/calendar/lv_calendar.c **** #if LV_USE_CALENDAR_CHINESE
 1073              		.loc 1 168 5 is_stmt 1 view .LVU325
 168:../../Middlewares/LVGL/GUI/lvgl/src/widgets/calendar/lv_calendar.c **** #if LV_USE_CALENDAR_CHINESE
 1074              		.loc 1 168 32 is_stmt 0 view .LVU326
 1075 009e A0EB0608 		sub	r8, r0, r6
 1076              	.LVL107:
ARM GAS  C:\Users\28576\AppData\Local\Temp\ccBAh4dU.s 			page 32


 168:../../Middlewares/LVGL/GUI/lvgl/src/widgets/calendar/lv_calendar.c **** #if LV_USE_CALENDAR_CHINESE
 1077              		.loc 1 168 32 view .LVU327
 1078 00a2 5FFA88F8 		uxtb	r8, r8
 168:../../Middlewares/LVGL/GUI/lvgl/src/widgets/calendar/lv_calendar.c **** #if LV_USE_CALENDAR_CHINESE
 1079              		.loc 1 168 18 view .LVU328
 1080 00a6 08F10108 		add	r8, r8, #1
 1081 00aa 5FFA88F8 		uxtb	r8, r8
 1082              	.LVL108:
 168:../../Middlewares/LVGL/GUI/lvgl/src/widgets/calendar/lv_calendar.c **** #if LV_USE_CALENDAR_CHINESE
 1083              		.loc 1 168 11 view .LVU329
 1084 00ae 0027     		movs	r7, #0
 168:../../Middlewares/LVGL/GUI/lvgl/src/widgets/calendar/lv_calendar.c **** #if LV_USE_CALENDAR_CHINESE
 1085              		.loc 1 168 5 view .LVU330
 1086 00b0 15E0     		b	.L72
 1087              	.LVL109:
 1088              	.L73:
 176:../../Middlewares/LVGL/GUI/lvgl/src/widgets/calendar/lv_calendar.c ****         lv_buttonmatrix_set_button_ctrl(calendar->btnm, i + 7, LV_BUTTONMATRIX_CTRL_DISABLED);
 1089              		.loc 1 176 13 is_stmt 1 view .LVU331
 176:../../Middlewares/LVGL/GUI/lvgl/src/widgets/calendar/lv_calendar.c ****         lv_buttonmatrix_set_button_ctrl(calendar->btnm, i + 7, LV_BUTTONMATRIX_CTRL_DISABLED);
 1090              		.loc 1 176 39 is_stmt 0 view .LVU332
 1091 00b2 07EB8700 		add	r0, r7, r7, lsl #2
 1092 00b6 8000     		lsls	r0, r0, #2
 1093 00b8 00F59070 		add	r0, r0, #288
 1094 00bc 2044     		add	r0, r0, r4
 176:../../Middlewares/LVGL/GUI/lvgl/src/widgets/calendar/lv_calendar.c ****         lv_buttonmatrix_set_button_ctrl(calendar->btnm, i + 7, LV_BUTTONMATRIX_CTRL_DISABLED);
 1095              		.loc 1 176 13 view .LVU333
 1096 00be 4346     		mov	r3, r8
 1097 00c0 294A     		ldr	r2, .L84
 1098 00c2 1421     		movs	r1, #20
 1099 00c4 0130     		adds	r0, r0, #1
 1100 00c6 FFF7FEFF 		bl	lv_snprintf
 1101              	.LVL110:
 177:../../Middlewares/LVGL/GUI/lvgl/src/widgets/calendar/lv_calendar.c ****     }
 1102              		.loc 1 177 9 is_stmt 1 view .LVU334
 1103 00ca 4022     		movs	r2, #64
 1104 00cc F91D     		adds	r1, r7, #7
 1105 00ce E06A     		ldr	r0, [r4, #44]
 1106 00d0 FFF7FEFF 		bl	lv_buttonmatrix_set_button_ctrl
 1107              	.LVL111:
 168:../../Middlewares/LVGL/GUI/lvgl/src/widgets/calendar/lv_calendar.c **** #if LV_USE_CALENDAR_CHINESE
 1108              		.loc 1 168 67 discriminator 3 view .LVU335
 168:../../Middlewares/LVGL/GUI/lvgl/src/widgets/calendar/lv_calendar.c **** #if LV_USE_CALENDAR_CHINESE
 1109              		.loc 1 168 65 is_stmt 0 discriminator 3 view .LVU336
 1110 00d4 0137     		adds	r7, r7, #1
 1111              	.LVL112:
 168:../../Middlewares/LVGL/GUI/lvgl/src/widgets/calendar/lv_calendar.c **** #if LV_USE_CALENDAR_CHINESE
 1112              		.loc 1 168 70 discriminator 3 view .LVU337
 1113 00d6 08F10108 		add	r8, r8, #1
 1114              	.LVL113:
 168:../../Middlewares/LVGL/GUI/lvgl/src/widgets/calendar/lv_calendar.c **** #if LV_USE_CALENDAR_CHINESE
 1115              		.loc 1 168 70 discriminator 3 view .LVU338
 1116 00da 5FFA88F8 		uxtb	r8, r8
 1117              	.LVL114:
 1118              	.L72:
 168:../../Middlewares/LVGL/GUI/lvgl/src/widgets/calendar/lv_calendar.c **** #if LV_USE_CALENDAR_CHINESE
 1119              		.loc 1 168 51 is_stmt 1 discriminator 1 view .LVU339
 1120 00de B742     		cmp	r7, r6
ARM GAS  C:\Users\28576\AppData\Local\Temp\ccBAh4dU.s 			page 33


 1121 00e0 E7D3     		bcc	.L73
 184:../../Middlewares/LVGL/GUI/lvgl/src/widgets/calendar/lv_calendar.c **** #if LV_USE_CALENDAR_CHINESE
 1122              		.loc 1 184 39 is_stmt 0 view .LVU340
 1123 00e2 0127     		movs	r7, #1
 1124              	.LVL115:
 184:../../Middlewares/LVGL/GUI/lvgl/src/widgets/calendar/lv_calendar.c **** #if LV_USE_CALENDAR_CHINESE
 1125              		.loc 1 184 39 view .LVU341
 1126 00e4 13E0     		b	.L74
 1127              	.LVL116:
 1128              	.L75:
 192:../../Middlewares/LVGL/GUI/lvgl/src/widgets/calendar/lv_calendar.c ****         lv_buttonmatrix_set_button_ctrl(calendar->btnm, i + 7, LV_BUTTONMATRIX_CTRL_DISABLED);
 1129              		.loc 1 192 13 is_stmt 1 view .LVU342
 192:../../Middlewares/LVGL/GUI/lvgl/src/widgets/calendar/lv_calendar.c ****         lv_buttonmatrix_set_button_ctrl(calendar->btnm, i + 7, LV_BUTTONMATRIX_CTRL_DISABLED);
 1130              		.loc 1 192 39 is_stmt 0 view .LVU343
 1131 00e6 05EB8500 		add	r0, r5, r5, lsl #2
 1132 00ea 8000     		lsls	r0, r0, #2
 1133 00ec 00F59070 		add	r0, r0, #288
 1134 00f0 2044     		add	r0, r0, r4
 192:../../Middlewares/LVGL/GUI/lvgl/src/widgets/calendar/lv_calendar.c ****         lv_buttonmatrix_set_button_ctrl(calendar->btnm, i + 7, LV_BUTTONMATRIX_CTRL_DISABLED);
 1135              		.loc 1 192 13 view .LVU344
 1136 00f2 3B46     		mov	r3, r7
 1137 00f4 1C4A     		ldr	r2, .L84
 1138 00f6 1421     		movs	r1, #20
 1139 00f8 0130     		adds	r0, r0, #1
 1140 00fa FFF7FEFF 		bl	lv_snprintf
 1141              	.LVL117:
 193:../../Middlewares/LVGL/GUI/lvgl/src/widgets/calendar/lv_calendar.c ****     }
 1142              		.loc 1 193 9 is_stmt 1 view .LVU345
 1143 00fe 4022     		movs	r2, #64
 1144 0100 E91D     		adds	r1, r5, #7
 1145 0102 E06A     		ldr	r0, [r4, #44]
 1146 0104 FFF7FEFF 		bl	lv_buttonmatrix_set_button_ctrl
 1147              	.LVL118:
 184:../../Middlewares/LVGL/GUI/lvgl/src/widgets/calendar/lv_calendar.c **** #if LV_USE_CALENDAR_CHINESE
 1148              		.loc 1 184 58 discriminator 3 view .LVU346
 184:../../Middlewares/LVGL/GUI/lvgl/src/widgets/calendar/lv_calendar.c **** #if LV_USE_CALENDAR_CHINESE
 1149              		.loc 1 184 56 is_stmt 0 discriminator 3 view .LVU347
 1150 0108 0135     		adds	r5, r5, #1
 1151              	.LVL119:
 184:../../Middlewares/LVGL/GUI/lvgl/src/widgets/calendar/lv_calendar.c **** #if LV_USE_CALENDAR_CHINESE
 1152              		.loc 1 184 61 discriminator 3 view .LVU348
 1153 010a 0137     		adds	r7, r7, #1
 1154              	.LVL120:
 184:../../Middlewares/LVGL/GUI/lvgl/src/widgets/calendar/lv_calendar.c **** #if LV_USE_CALENDAR_CHINESE
 1155              		.loc 1 184 61 discriminator 3 view .LVU349
 1156 010c FFB2     		uxtb	r7, r7
 1157              	.LVL121:
 1158              	.L74:
 184:../../Middlewares/LVGL/GUI/lvgl/src/widgets/calendar/lv_calendar.c **** #if LV_USE_CALENDAR_CHINESE
 1159              		.loc 1 184 46 is_stmt 1 discriminator 1 view .LVU350
 1160 010e 292D     		cmp	r5, #41
 1161 0110 E9D9     		bls	.L75
 196:../../Middlewares/LVGL/GUI/lvgl/src/widgets/calendar/lv_calendar.c **** 
 1162              		.loc 1 196 5 view .LVU351
 1163 0112 2046     		mov	r0, r4
 1164 0114 FFF7FEFF 		bl	highlight_update
 1165              	.LVL122:
ARM GAS  C:\Users\28576\AppData\Local\Temp\ccBAh4dU.s 			page 34


 199:../../Middlewares/LVGL/GUI/lvgl/src/widgets/calendar/lv_calendar.c ****         lv_buttonmatrix_set_selected_button(calendar->btnm, day_first + 7);
 1166              		.loc 1 199 5 view .LVU352
 199:../../Middlewares/LVGL/GUI/lvgl/src/widgets/calendar/lv_calendar.c ****         lv_buttonmatrix_set_selected_button(calendar->btnm, day_first + 7);
 1167              		.loc 1 199 8 is_stmt 0 view .LVU353
 1168 0118 E06A     		ldr	r0, [r4, #44]
 1169 011a FFF7FEFF 		bl	lv_buttonmatrix_get_selected_button
 1170              	.LVL123:
 199:../../Middlewares/LVGL/GUI/lvgl/src/widgets/calendar/lv_calendar.c ****         lv_buttonmatrix_set_selected_button(calendar->btnm, day_first + 7);
 1171              		.loc 1 199 7 discriminator 1 view .LVU354
 1172 011e 4FF6FF73 		movw	r3, #65535
 1173 0122 9842     		cmp	r0, r3
 1174 0124 08D1     		bne	.L82
 1175              	.L76:
 203:../../Middlewares/LVGL/GUI/lvgl/src/widgets/calendar/lv_calendar.c **** 
 1176              		.loc 1 203 5 is_stmt 1 view .LVU355
 1177 0126 2046     		mov	r0, r4
 1178 0128 FFF7FEFF 		bl	lv_obj_invalidate
 1179              	.LVL124:
 207:../../Middlewares/LVGL/GUI/lvgl/src/widgets/calendar/lv_calendar.c ****     for(i = 0; i < child_cnt; i++) {
 1180              		.loc 1 207 5 view .LVU356
 207:../../Middlewares/LVGL/GUI/lvgl/src/widgets/calendar/lv_calendar.c ****     for(i = 0; i < child_cnt; i++) {
 1181              		.loc 1 207 26 is_stmt 0 view .LVU357
 1182 012c 2046     		mov	r0, r4
 1183 012e FFF7FEFF 		bl	lv_obj_get_child_count
 1184              	.LVL125:
 1185 0132 0646     		mov	r6, r0
 1186              	.LVL126:
 208:../../Middlewares/LVGL/GUI/lvgl/src/widgets/calendar/lv_calendar.c ****         lv_obj_t * child = lv_obj_get_child(obj, i);
 1187              		.loc 1 208 5 is_stmt 1 view .LVU358
 208:../../Middlewares/LVGL/GUI/lvgl/src/widgets/calendar/lv_calendar.c ****         lv_obj_t * child = lv_obj_get_child(obj, i);
 1188              		.loc 1 208 11 is_stmt 0 view .LVU359
 1189 0134 0025     		movs	r5, #0
 208:../../Middlewares/LVGL/GUI/lvgl/src/widgets/calendar/lv_calendar.c ****         lv_obj_t * child = lv_obj_get_child(obj, i);
 1190              		.loc 1 208 5 view .LVU360
 1191 0136 05E0     		b	.L77
 1192              	.LVL127:
 1193              	.L82:
 200:../../Middlewares/LVGL/GUI/lvgl/src/widgets/calendar/lv_calendar.c ****     }
 1194              		.loc 1 200 9 is_stmt 1 view .LVU361
 1195 0138 F11D     		adds	r1, r6, #7
 1196 013a E06A     		ldr	r0, [r4, #44]
 1197 013c FFF7FEFF 		bl	lv_buttonmatrix_set_selected_button
 1198              	.LVL128:
 1199 0140 F1E7     		b	.L76
 1200              	.LVL129:
 1201              	.L78:
 208:../../Middlewares/LVGL/GUI/lvgl/src/widgets/calendar/lv_calendar.c ****         lv_obj_t * child = lv_obj_get_child(obj, i);
 1202              		.loc 1 208 32 discriminator 2 view .LVU362
 1203 0142 0135     		adds	r5, r5, #1
 1204              	.LVL130:
 1205              	.L77:
 208:../../Middlewares/LVGL/GUI/lvgl/src/widgets/calendar/lv_calendar.c ****         lv_obj_t * child = lv_obj_get_child(obj, i);
 1206              		.loc 1 208 18 discriminator 1 view .LVU363
 1207 0144 B542     		cmp	r5, r6
 1208 0146 0BD2     		bcs	.L83
 1209              	.LBB4:
 209:../../Middlewares/LVGL/GUI/lvgl/src/widgets/calendar/lv_calendar.c ****         if(child == calendar->btnm) continue;
ARM GAS  C:\Users\28576\AppData\Local\Temp\ccBAh4dU.s 			page 35


 1210              		.loc 1 209 9 view .LVU364
 209:../../Middlewares/LVGL/GUI/lvgl/src/widgets/calendar/lv_calendar.c ****         if(child == calendar->btnm) continue;
 1211              		.loc 1 209 28 is_stmt 0 view .LVU365
 1212 0148 2946     		mov	r1, r5
 1213 014a 2046     		mov	r0, r4
 1214 014c FFF7FEFF 		bl	lv_obj_get_child
 1215              	.LVL131:
 210:../../Middlewares/LVGL/GUI/lvgl/src/widgets/calendar/lv_calendar.c ****         lv_obj_send_event(child, LV_EVENT_VALUE_CHANGED, obj);
 1216              		.loc 1 210 9 is_stmt 1 view .LVU366
 210:../../Middlewares/LVGL/GUI/lvgl/src/widgets/calendar/lv_calendar.c ****         lv_obj_send_event(child, LV_EVENT_VALUE_CHANGED, obj);
 1217              		.loc 1 210 29 is_stmt 0 view .LVU367
 1218 0150 E36A     		ldr	r3, [r4, #44]
 210:../../Middlewares/LVGL/GUI/lvgl/src/widgets/calendar/lv_calendar.c ****         lv_obj_send_event(child, LV_EVENT_VALUE_CHANGED, obj);
 1219              		.loc 1 210 11 view .LVU368
 1220 0152 8342     		cmp	r3, r0
 1221 0154 F5D0     		beq	.L78
 211:../../Middlewares/LVGL/GUI/lvgl/src/widgets/calendar/lv_calendar.c ****     }
 1222              		.loc 1 211 9 is_stmt 1 view .LVU369
 1223 0156 2246     		mov	r2, r4
 1224 0158 2321     		movs	r1, #35
 1225 015a FFF7FEFF 		bl	lv_obj_send_event
 1226              	.LVL132:
 211:../../Middlewares/LVGL/GUI/lvgl/src/widgets/calendar/lv_calendar.c ****     }
 1227              		.loc 1 211 9 is_stmt 0 view .LVU370
 1228 015e F0E7     		b	.L78
 1229              	.LVL133:
 1230              	.L83:
 211:../../Middlewares/LVGL/GUI/lvgl/src/widgets/calendar/lv_calendar.c ****     }
 1231              		.loc 1 211 9 view .LVU371
 1232              	.LBE4:
 213:../../Middlewares/LVGL/GUI/lvgl/src/widgets/calendar/lv_calendar.c **** 
 1233              		.loc 1 213 1 view .LVU372
 1234 0160 03B0     		add	sp, sp, #12
 1235              	.LCFI16:
 1236              		.cfi_def_cfa_offset 36
 1237              		@ sp needed
 1238 0162 BDE8F08F 		pop	{r4, r5, r6, r7, r8, r9, r10, fp, pc}
 1239              	.LVL134:
 1240              	.L85:
 213:../../Middlewares/LVGL/GUI/lvgl/src/widgets/calendar/lv_calendar.c **** 
 1241              		.loc 1 213 1 view .LVU373
 1242 0166 00BF     		.align	2
 1243              	.L84:
 1244 0168 00000000 		.word	.LC0
 1245              		.cfi_endproc
 1246              	.LFE200:
 1248              		.section	.rodata.lv_calendar_constructor.str1.4,"aMS",%progbits,1
 1249              		.align	2
 1250              	.LC1:
 1251 0000 0A00     		.ascii	"\012\000"
 1252 0002 0000     		.align	2
 1253              	.LC2:
 1254 0004 00       		.ascii	"\000"
 1255              		.section	.text.lv_calendar_constructor,"ax",%progbits
 1256              		.align	1
 1257              		.syntax unified
 1258              		.thumb
ARM GAS  C:\Users\28576\AppData\Local\Temp\ccBAh4dU.s 			page 36


 1259              		.thumb_func
 1261              	lv_calendar_constructor:
 1262              	.LVL135:
 1263              	.LFB207:
 287:../../Middlewares/LVGL/GUI/lvgl/src/widgets/calendar/lv_calendar.c ****     LV_UNUSED(class_p);
 1264              		.loc 1 287 1 is_stmt 1 view -0
 1265              		.cfi_startproc
 1266              		@ args = 0, pretend = 0, frame = 0
 1267              		@ frame_needed = 0, uses_anonymous_args = 0
 287:../../Middlewares/LVGL/GUI/lvgl/src/widgets/calendar/lv_calendar.c ****     LV_UNUSED(class_p);
 1268              		.loc 1 287 1 is_stmt 0 view .LVU375
 1269 0000 38B5     		push	{r3, r4, r5, lr}
 1270              	.LCFI17:
 1271              		.cfi_def_cfa_offset 16
 1272              		.cfi_offset 3, -16
 1273              		.cfi_offset 4, -12
 1274              		.cfi_offset 5, -8
 1275              		.cfi_offset 14, -4
 1276 0002 0C46     		mov	r4, r1
 288:../../Middlewares/LVGL/GUI/lvgl/src/widgets/calendar/lv_calendar.c ****     lv_calendar_t * calendar = (lv_calendar_t *)obj;
 1277              		.loc 1 288 5 is_stmt 1 view .LVU376
 289:../../Middlewares/LVGL/GUI/lvgl/src/widgets/calendar/lv_calendar.c **** 
 1278              		.loc 1 289 5 view .LVU377
 1279              	.LVL136:
 293:../../Middlewares/LVGL/GUI/lvgl/src/widgets/calendar/lv_calendar.c ****     calendar->today.month = 1;
 1280              		.loc 1 293 5 view .LVU378
 293:../../Middlewares/LVGL/GUI/lvgl/src/widgets/calendar/lv_calendar.c ****     calendar->today.month = 1;
 1281              		.loc 1 293 27 is_stmt 0 view .LVU379
 1282 0004 4FF4FD62 		mov	r2, #2024
 1283 0008 0A86     		strh	r2, [r1, #48]	@ movhi
 294:../../Middlewares/LVGL/GUI/lvgl/src/widgets/calendar/lv_calendar.c ****     calendar->today.day   = 1;
 1284              		.loc 1 294 5 is_stmt 1 view .LVU380
 294:../../Middlewares/LVGL/GUI/lvgl/src/widgets/calendar/lv_calendar.c ****     calendar->today.day   = 1;
 1285              		.loc 1 294 27 is_stmt 0 view .LVU381
 1286 000a 0123     		movs	r3, #1
 1287 000c 81F83230 		strb	r3, [r1, #50]
 295:../../Middlewares/LVGL/GUI/lvgl/src/widgets/calendar/lv_calendar.c **** 
 1288              		.loc 1 295 5 is_stmt 1 view .LVU382
 295:../../Middlewares/LVGL/GUI/lvgl/src/widgets/calendar/lv_calendar.c **** 
 1289              		.loc 1 295 27 is_stmt 0 view .LVU383
 1290 0010 81F83330 		strb	r3, [r1, #51]
 297:../../Middlewares/LVGL/GUI/lvgl/src/widgets/calendar/lv_calendar.c ****     calendar->showed_date.month = 1;
 1291              		.loc 1 297 5 is_stmt 1 view .LVU384
 297:../../Middlewares/LVGL/GUI/lvgl/src/widgets/calendar/lv_calendar.c ****     calendar->showed_date.month = 1;
 1292              		.loc 1 297 33 is_stmt 0 view .LVU385
 1293 0014 8A86     		strh	r2, [r1, #52]	@ movhi
 298:../../Middlewares/LVGL/GUI/lvgl/src/widgets/calendar/lv_calendar.c ****     calendar->showed_date.day   = 1;
 1294              		.loc 1 298 5 is_stmt 1 view .LVU386
 298:../../Middlewares/LVGL/GUI/lvgl/src/widgets/calendar/lv_calendar.c ****     calendar->showed_date.day   = 1;
 1295              		.loc 1 298 33 is_stmt 0 view .LVU387
 1296 0016 81F83630 		strb	r3, [r1, #54]
 299:../../Middlewares/LVGL/GUI/lvgl/src/widgets/calendar/lv_calendar.c **** 
 1297              		.loc 1 299 5 is_stmt 1 view .LVU388
 299:../../Middlewares/LVGL/GUI/lvgl/src/widgets/calendar/lv_calendar.c **** 
 1298              		.loc 1 299 33 is_stmt 0 view .LVU389
 1299 001a 81F83730 		strb	r3, [r1, #55]
 301:../../Middlewares/LVGL/GUI/lvgl/src/widgets/calendar/lv_calendar.c ****     calendar->highlighted_dates_num  = 0;
ARM GAS  C:\Users\28576\AppData\Local\Temp\ccBAh4dU.s 			page 37


 1300              		.loc 1 301 5 is_stmt 1 view .LVU390
 301:../../Middlewares/LVGL/GUI/lvgl/src/widgets/calendar/lv_calendar.c ****     calendar->highlighted_dates_num  = 0;
 1301              		.loc 1 301 38 is_stmt 0 view .LVU391
 1302 001e 0025     		movs	r5, #0
 1303 0020 8D63     		str	r5, [r1, #56]
 302:../../Middlewares/LVGL/GUI/lvgl/src/widgets/calendar/lv_calendar.c **** 
 1304              		.loc 1 302 5 is_stmt 1 view .LVU392
 302:../../Middlewares/LVGL/GUI/lvgl/src/widgets/calendar/lv_calendar.c **** 
 1305              		.loc 1 302 38 is_stmt 0 view .LVU393
 1306 0022 CD63     		str	r5, [r1, #60]
 304:../../Middlewares/LVGL/GUI/lvgl/src/widgets/calendar/lv_calendar.c ****     uint8_t i;
 1307              		.loc 1 304 5 is_stmt 1 view .LVU394
 1308              	.LVL137:
 1309              	.LBB5:
 1310              	.LBI5:
 1311              		.file 2 "H:/STM32H7/RGB_LVGL/Middlewares/LVGL/GUI/lvgl/src/stdlib/lv_string.h"
   1:H:/STM32H7/RGB_LVGL/Middlewares/LVGL/GUI/lvgl/src/stdlib\lv_string.h **** /**
   2:H:/STM32H7/RGB_LVGL/Middlewares/LVGL/GUI/lvgl/src/stdlib\lv_string.h ****  * @file lv_string.h
   3:H:/STM32H7/RGB_LVGL/Middlewares/LVGL/GUI/lvgl/src/stdlib\lv_string.h ****  *
   4:H:/STM32H7/RGB_LVGL/Middlewares/LVGL/GUI/lvgl/src/stdlib\lv_string.h ****  */
   5:H:/STM32H7/RGB_LVGL/Middlewares/LVGL/GUI/lvgl/src/stdlib\lv_string.h **** 
   6:H:/STM32H7/RGB_LVGL/Middlewares/LVGL/GUI/lvgl/src/stdlib\lv_string.h **** #ifndef LV_STRING_H
   7:H:/STM32H7/RGB_LVGL/Middlewares/LVGL/GUI/lvgl/src/stdlib\lv_string.h **** #define LV_STRING_H
   8:H:/STM32H7/RGB_LVGL/Middlewares/LVGL/GUI/lvgl/src/stdlib\lv_string.h **** 
   9:H:/STM32H7/RGB_LVGL/Middlewares/LVGL/GUI/lvgl/src/stdlib\lv_string.h **** #ifdef __cplusplus
  10:H:/STM32H7/RGB_LVGL/Middlewares/LVGL/GUI/lvgl/src/stdlib\lv_string.h **** extern "C" {
  11:H:/STM32H7/RGB_LVGL/Middlewares/LVGL/GUI/lvgl/src/stdlib\lv_string.h **** #endif
  12:H:/STM32H7/RGB_LVGL/Middlewares/LVGL/GUI/lvgl/src/stdlib\lv_string.h **** 
  13:H:/STM32H7/RGB_LVGL/Middlewares/LVGL/GUI/lvgl/src/stdlib\lv_string.h **** /*********************
  14:H:/STM32H7/RGB_LVGL/Middlewares/LVGL/GUI/lvgl/src/stdlib\lv_string.h ****  *      INCLUDES
  15:H:/STM32H7/RGB_LVGL/Middlewares/LVGL/GUI/lvgl/src/stdlib\lv_string.h ****  *********************/
  16:H:/STM32H7/RGB_LVGL/Middlewares/LVGL/GUI/lvgl/src/stdlib\lv_string.h **** #include "../lv_conf_internal.h"
  17:H:/STM32H7/RGB_LVGL/Middlewares/LVGL/GUI/lvgl/src/stdlib\lv_string.h **** #include "../misc/lv_types.h"
  18:H:/STM32H7/RGB_LVGL/Middlewares/LVGL/GUI/lvgl/src/stdlib\lv_string.h **** 
  19:H:/STM32H7/RGB_LVGL/Middlewares/LVGL/GUI/lvgl/src/stdlib\lv_string.h **** /*********************
  20:H:/STM32H7/RGB_LVGL/Middlewares/LVGL/GUI/lvgl/src/stdlib\lv_string.h ****  *      DEFINES
  21:H:/STM32H7/RGB_LVGL/Middlewares/LVGL/GUI/lvgl/src/stdlib\lv_string.h ****  *********************/
  22:H:/STM32H7/RGB_LVGL/Middlewares/LVGL/GUI/lvgl/src/stdlib\lv_string.h **** 
  23:H:/STM32H7/RGB_LVGL/Middlewares/LVGL/GUI/lvgl/src/stdlib\lv_string.h **** /**********************
  24:H:/STM32H7/RGB_LVGL/Middlewares/LVGL/GUI/lvgl/src/stdlib\lv_string.h ****  *      TYPEDEFS
  25:H:/STM32H7/RGB_LVGL/Middlewares/LVGL/GUI/lvgl/src/stdlib\lv_string.h ****  **********************/
  26:H:/STM32H7/RGB_LVGL/Middlewares/LVGL/GUI/lvgl/src/stdlib\lv_string.h **** 
  27:H:/STM32H7/RGB_LVGL/Middlewares/LVGL/GUI/lvgl/src/stdlib\lv_string.h **** /**********************
  28:H:/STM32H7/RGB_LVGL/Middlewares/LVGL/GUI/lvgl/src/stdlib\lv_string.h ****  * GLOBAL PROTOTYPES
  29:H:/STM32H7/RGB_LVGL/Middlewares/LVGL/GUI/lvgl/src/stdlib\lv_string.h ****  **********************/
  30:H:/STM32H7/RGB_LVGL/Middlewares/LVGL/GUI/lvgl/src/stdlib\lv_string.h **** 
  31:H:/STM32H7/RGB_LVGL/Middlewares/LVGL/GUI/lvgl/src/stdlib\lv_string.h **** /**
  32:H:/STM32H7/RGB_LVGL/Middlewares/LVGL/GUI/lvgl/src/stdlib\lv_string.h ****  * @brief Copies a block of memory from a source address to a destination address.
  33:H:/STM32H7/RGB_LVGL/Middlewares/LVGL/GUI/lvgl/src/stdlib\lv_string.h ****  * @param dst Pointer to the destination array where the content is to be copied.
  34:H:/STM32H7/RGB_LVGL/Middlewares/LVGL/GUI/lvgl/src/stdlib\lv_string.h ****  * @param src Pointer to the source of data to be copied.
  35:H:/STM32H7/RGB_LVGL/Middlewares/LVGL/GUI/lvgl/src/stdlib\lv_string.h ****  * @param len Number of bytes to copy.
  36:H:/STM32H7/RGB_LVGL/Middlewares/LVGL/GUI/lvgl/src/stdlib\lv_string.h ****  * @return Pointer to the destination array.
  37:H:/STM32H7/RGB_LVGL/Middlewares/LVGL/GUI/lvgl/src/stdlib\lv_string.h ****  * @note The function does not check for any overlapping of the source and destination memory block
  38:H:/STM32H7/RGB_LVGL/Middlewares/LVGL/GUI/lvgl/src/stdlib\lv_string.h ****  */
  39:H:/STM32H7/RGB_LVGL/Middlewares/LVGL/GUI/lvgl/src/stdlib\lv_string.h **** void * lv_memcpy(void * dst, const void * src, size_t len);
  40:H:/STM32H7/RGB_LVGL/Middlewares/LVGL/GUI/lvgl/src/stdlib\lv_string.h **** 
  41:H:/STM32H7/RGB_LVGL/Middlewares/LVGL/GUI/lvgl/src/stdlib\lv_string.h **** /**
ARM GAS  C:\Users\28576\AppData\Local\Temp\ccBAh4dU.s 			page 38


  42:H:/STM32H7/RGB_LVGL/Middlewares/LVGL/GUI/lvgl/src/stdlib\lv_string.h ****  * @brief Fills a block of memory with a specified value.
  43:H:/STM32H7/RGB_LVGL/Middlewares/LVGL/GUI/lvgl/src/stdlib\lv_string.h ****  * @param dst Pointer to the destination array to fill with the specified value.
  44:H:/STM32H7/RGB_LVGL/Middlewares/LVGL/GUI/lvgl/src/stdlib\lv_string.h ****  * @param v Value to be set. The value is passed as an int, but the function fills
  45:H:/STM32H7/RGB_LVGL/Middlewares/LVGL/GUI/lvgl/src/stdlib\lv_string.h ****  *          the block of memory using the unsigned char conversion of this value.
  46:H:/STM32H7/RGB_LVGL/Middlewares/LVGL/GUI/lvgl/src/stdlib\lv_string.h ****  * @param len Number of bytes to be set to the value.
  47:H:/STM32H7/RGB_LVGL/Middlewares/LVGL/GUI/lvgl/src/stdlib\lv_string.h ****  */
  48:H:/STM32H7/RGB_LVGL/Middlewares/LVGL/GUI/lvgl/src/stdlib\lv_string.h **** void lv_memset(void * dst, uint8_t v, size_t len);
  49:H:/STM32H7/RGB_LVGL/Middlewares/LVGL/GUI/lvgl/src/stdlib\lv_string.h **** 
  50:H:/STM32H7/RGB_LVGL/Middlewares/LVGL/GUI/lvgl/src/stdlib\lv_string.h **** /**
  51:H:/STM32H7/RGB_LVGL/Middlewares/LVGL/GUI/lvgl/src/stdlib\lv_string.h ****  * @brief Move a block of memory from source to destination
  52:H:/STM32H7/RGB_LVGL/Middlewares/LVGL/GUI/lvgl/src/stdlib\lv_string.h ****  * @param dst Pointer to the destination array where the content is to be copied.
  53:H:/STM32H7/RGB_LVGL/Middlewares/LVGL/GUI/lvgl/src/stdlib\lv_string.h ****  * @param src Pointer to the source of data to be copied.
  54:H:/STM32H7/RGB_LVGL/Middlewares/LVGL/GUI/lvgl/src/stdlib\lv_string.h ****  * @param len Number of bytes to copy
  55:H:/STM32H7/RGB_LVGL/Middlewares/LVGL/GUI/lvgl/src/stdlib\lv_string.h ****  * @return Pointer to the destination array.
  56:H:/STM32H7/RGB_LVGL/Middlewares/LVGL/GUI/lvgl/src/stdlib\lv_string.h ****  */
  57:H:/STM32H7/RGB_LVGL/Middlewares/LVGL/GUI/lvgl/src/stdlib\lv_string.h **** void * lv_memmove(void * dst, const void * src, size_t len);
  58:H:/STM32H7/RGB_LVGL/Middlewares/LVGL/GUI/lvgl/src/stdlib\lv_string.h **** 
  59:H:/STM32H7/RGB_LVGL/Middlewares/LVGL/GUI/lvgl/src/stdlib\lv_string.h **** /**
  60:H:/STM32H7/RGB_LVGL/Middlewares/LVGL/GUI/lvgl/src/stdlib\lv_string.h ****  * @brief This function will compare two memory blocks
  61:H:/STM32H7/RGB_LVGL/Middlewares/LVGL/GUI/lvgl/src/stdlib\lv_string.h ****  * @param p1 Pointer to the first memory block
  62:H:/STM32H7/RGB_LVGL/Middlewares/LVGL/GUI/lvgl/src/stdlib\lv_string.h ****  * @param p2 Pointer to the second memory block
  63:H:/STM32H7/RGB_LVGL/Middlewares/LVGL/GUI/lvgl/src/stdlib\lv_string.h ****  * @param len Number of bytes to compare
  64:H:/STM32H7/RGB_LVGL/Middlewares/LVGL/GUI/lvgl/src/stdlib\lv_string.h ****  * @return The difference between the value of the first unmatching byte.
  65:H:/STM32H7/RGB_LVGL/Middlewares/LVGL/GUI/lvgl/src/stdlib\lv_string.h ****  */
  66:H:/STM32H7/RGB_LVGL/Middlewares/LVGL/GUI/lvgl/src/stdlib\lv_string.h **** int lv_memcmp(const void * p1, const void * p2, size_t len);
  67:H:/STM32H7/RGB_LVGL/Middlewares/LVGL/GUI/lvgl/src/stdlib\lv_string.h **** 
  68:H:/STM32H7/RGB_LVGL/Middlewares/LVGL/GUI/lvgl/src/stdlib\lv_string.h **** /**
  69:H:/STM32H7/RGB_LVGL/Middlewares/LVGL/GUI/lvgl/src/stdlib\lv_string.h ****  * Same as `memset(dst, 0x00, len)`.
  70:H:/STM32H7/RGB_LVGL/Middlewares/LVGL/GUI/lvgl/src/stdlib\lv_string.h ****  * @param dst pointer to the destination buffer
  71:H:/STM32H7/RGB_LVGL/Middlewares/LVGL/GUI/lvgl/src/stdlib\lv_string.h ****  * @param len number of byte to set
  72:H:/STM32H7/RGB_LVGL/Middlewares/LVGL/GUI/lvgl/src/stdlib\lv_string.h ****  */
  73:H:/STM32H7/RGB_LVGL/Middlewares/LVGL/GUI/lvgl/src/stdlib\lv_string.h **** static inline void lv_memzero(void * dst, size_t len)
 1312              		.loc 2 73 20 view .LVU395
 1313              	.LBB6:
  74:H:/STM32H7/RGB_LVGL/Middlewares/LVGL/GUI/lvgl/src/stdlib\lv_string.h **** {
  75:H:/STM32H7/RGB_LVGL/Middlewares/LVGL/GUI/lvgl/src/stdlib\lv_string.h ****     lv_memset(dst, 0x00, len);
 1314              		.loc 2 75 5 view .LVU396
 1315 0024 4FF45272 		mov	r2, #840
 1316 0028 2946     		mov	r1, r5
 1317              	.LVL138:
 1318              		.loc 2 75 5 is_stmt 0 view .LVU397
 1319 002a 04F22110 		addw	r0, r4, #289
 1320              	.LVL139:
 1321              		.loc 2 75 5 view .LVU398
 1322 002e FFF7FEFF 		bl	lv_memset
 1323              	.LVL140:
 1324              		.loc 2 75 5 view .LVU399
 1325              	.LBE6:
 1326              	.LBE5:
 305:../../Middlewares/LVGL/GUI/lvgl/src/widgets/calendar/lv_calendar.c ****     uint8_t j = 0;
 1327              		.loc 1 305 5 is_stmt 1 view .LVU400
 306:../../Middlewares/LVGL/GUI/lvgl/src/widgets/calendar/lv_calendar.c ****     for(i = 0; i < 8 * 7; i++) {
 1328              		.loc 1 306 5 view .LVU401
 307:../../Middlewares/LVGL/GUI/lvgl/src/widgets/calendar/lv_calendar.c ****         /*Every 8th string is "\n"*/
 1329              		.loc 1 307 5 view .LVU402
 306:../../Middlewares/LVGL/GUI/lvgl/src/widgets/calendar/lv_calendar.c ****     for(i = 0; i < 8 * 7; i++) {
 1330              		.loc 1 306 13 is_stmt 0 view .LVU403
ARM GAS  C:\Users\28576\AppData\Local\Temp\ccBAh4dU.s 			page 39


 1331 0032 2946     		mov	r1, r5
 307:../../Middlewares/LVGL/GUI/lvgl/src/widgets/calendar/lv_calendar.c ****         /*Every 8th string is "\n"*/
 1332              		.loc 1 307 11 view .LVU404
 1333 0034 2B46     		mov	r3, r5
 307:../../Middlewares/LVGL/GUI/lvgl/src/widgets/calendar/lv_calendar.c ****         /*Every 8th string is "\n"*/
 1334              		.loc 1 307 5 view .LVU405
 1335 0036 1FE0     		b	.L87
 1336              	.LVL141:
 1337              	.L89:
 312:../../Middlewares/LVGL/GUI/lvgl/src/widgets/calendar/lv_calendar.c ****             calendar->map[i] = day_names_def[i];
 1338              		.loc 1 312 14 is_stmt 1 view .LVU406
 312:../../Middlewares/LVGL/GUI/lvgl/src/widgets/calendar/lv_calendar.c ****             calendar->map[i] = day_names_def[i];
 1339              		.loc 1 312 16 is_stmt 0 view .LVU407
 1340 0038 062B     		cmp	r3, #6
 1341 003a 14D9     		bls	.L88
 316:../../Middlewares/LVGL/GUI/lvgl/src/widgets/calendar/lv_calendar.c ****             calendar->map[i] = calendar->nums[j];
 1342              		.loc 1 316 13 is_stmt 1 view .LVU408
 316:../../Middlewares/LVGL/GUI/lvgl/src/widgets/calendar/lv_calendar.c ****             calendar->map[i] = calendar->nums[j];
 1343              		.loc 1 316 34 is_stmt 0 view .LVU409
 1344 003c 01EB8102 		add	r2, r1, r1, lsl #2
 1345 0040 04EB8202 		add	r2, r4, r2, lsl #2
 1346 0044 4FF0780C 		mov	ip, #120
 1347 0048 82F821C1 		strb	ip, [r2, #289]
 317:../../Middlewares/LVGL/GUI/lvgl/src/widgets/calendar/lv_calendar.c ****             j++;
 1348              		.loc 1 317 13 is_stmt 1 view .LVU410
 317:../../Middlewares/LVGL/GUI/lvgl/src/widgets/calendar/lv_calendar.c ****             j++;
 1349              		.loc 1 317 32 is_stmt 0 view .LVU411
 1350 004c 01EB8102 		add	r2, r1, r1, lsl #2
 1351 0050 9200     		lsls	r2, r2, #2
 1352 0052 02F59072 		add	r2, r2, #288
 1353 0056 2244     		add	r2, r2, r4
 1354 0058 0132     		adds	r2, r2, #1
 317:../../Middlewares/LVGL/GUI/lvgl/src/widgets/calendar/lv_calendar.c ****             j++;
 1355              		.loc 1 317 30 view .LVU412
 1356 005a 1030     		adds	r0, r0, #16
 1357 005c 44F82020 		str	r2, [r4, r0, lsl #2]
 318:../../Middlewares/LVGL/GUI/lvgl/src/widgets/calendar/lv_calendar.c ****         }
 1358              		.loc 1 318 13 is_stmt 1 view .LVU413
 318:../../Middlewares/LVGL/GUI/lvgl/src/widgets/calendar/lv_calendar.c ****         }
 1359              		.loc 1 318 14 is_stmt 0 view .LVU414
 1360 0060 0131     		adds	r1, r1, #1
 1361              	.LVL142:
 318:../../Middlewares/LVGL/GUI/lvgl/src/widgets/calendar/lv_calendar.c ****         }
 1362              		.loc 1 318 14 view .LVU415
 1363 0062 C9B2     		uxtb	r1, r1
 1364 0064 06E0     		b	.L90
 1365              	.LVL143:
 1366              	.L88:
 313:../../Middlewares/LVGL/GUI/lvgl/src/widgets/calendar/lv_calendar.c ****         }
 1367              		.loc 1 313 13 is_stmt 1 view .LVU416
 313:../../Middlewares/LVGL/GUI/lvgl/src/widgets/calendar/lv_calendar.c ****         }
 1368              		.loc 1 313 45 is_stmt 0 view .LVU417
 1369 0066 2B4A     		ldr	r2, .L95
 1370 0068 52F82300 		ldr	r0, [r2, r3, lsl #2]
 313:../../Middlewares/LVGL/GUI/lvgl/src/widgets/calendar/lv_calendar.c ****         }
 1371              		.loc 1 313 30 view .LVU418
 1372 006c 03F11002 		add	r2, r3, #16
ARM GAS  C:\Users\28576\AppData\Local\Temp\ccBAh4dU.s 			page 40


 1373 0070 44F82200 		str	r0, [r4, r2, lsl #2]
 1374              	.LVL144:
 1375              	.L90:
 307:../../Middlewares/LVGL/GUI/lvgl/src/widgets/calendar/lv_calendar.c ****         /*Every 8th string is "\n"*/
 1376              		.loc 1 307 28 is_stmt 1 discriminator 2 view .LVU419
 1377 0074 0133     		adds	r3, r3, #1
 1378              	.LVL145:
 307:../../Middlewares/LVGL/GUI/lvgl/src/widgets/calendar/lv_calendar.c ****         /*Every 8th string is "\n"*/
 1379              		.loc 1 307 28 is_stmt 0 discriminator 2 view .LVU420
 1380 0076 DBB2     		uxtb	r3, r3
 1381              	.LVL146:
 1382              	.L87:
 307:../../Middlewares/LVGL/GUI/lvgl/src/widgets/calendar/lv_calendar.c ****         /*Every 8th string is "\n"*/
 1383              		.loc 1 307 18 is_stmt 1 discriminator 1 view .LVU421
 1384 0078 372B     		cmp	r3, #55
 1385 007a 0CD8     		bhi	.L94
 309:../../Middlewares/LVGL/GUI/lvgl/src/widgets/calendar/lv_calendar.c ****             calendar->map[i] = "\n";
 1386              		.loc 1 309 9 view .LVU422
 309:../../Middlewares/LVGL/GUI/lvgl/src/widgets/calendar/lv_calendar.c ****             calendar->map[i] = "\n";
 1387              		.loc 1 309 11 is_stmt 0 view .LVU423
 1388 007c 002B     		cmp	r3, #0
 1389 007e F2D0     		beq	.L88
 309:../../Middlewares/LVGL/GUI/lvgl/src/widgets/calendar/lv_calendar.c ****             calendar->map[i] = "\n";
 1390              		.loc 1 309 25 discriminator 1 view .LVU424
 1391 0080 1846     		mov	r0, r3
 1392 0082 5A1C     		adds	r2, r3, #1
 309:../../Middlewares/LVGL/GUI/lvgl/src/widgets/calendar/lv_calendar.c ****             calendar->map[i] = "\n";
 1393              		.loc 1 309 19 discriminator 1 view .LVU425
 1394 0084 12F0070F 		tst	r2, #7
 1395 0088 D6D1     		bne	.L89
 310:../../Middlewares/LVGL/GUI/lvgl/src/widgets/calendar/lv_calendar.c ****         }
 1396              		.loc 1 310 13 is_stmt 1 view .LVU426
 310:../../Middlewares/LVGL/GUI/lvgl/src/widgets/calendar/lv_calendar.c ****         }
 1397              		.loc 1 310 30 is_stmt 0 view .LVU427
 1398 008a 03F11002 		add	r2, r3, #16
 1399 008e 2248     		ldr	r0, .L95+4
 1400 0090 44F82200 		str	r0, [r4, r2, lsl #2]
 1401 0094 EEE7     		b	.L90
 1402              	.L94:
 321:../../Middlewares/LVGL/GUI/lvgl/src/widgets/calendar/lv_calendar.c **** 
 1403              		.loc 1 321 5 is_stmt 1 view .LVU428
 321:../../Middlewares/LVGL/GUI/lvgl/src/widgets/calendar/lv_calendar.c **** 
 1404              		.loc 1 321 30 is_stmt 0 view .LVU429
 1405 0096 214B     		ldr	r3, .L95+8
 1406              	.LVL147:
 321:../../Middlewares/LVGL/GUI/lvgl/src/widgets/calendar/lv_calendar.c **** 
 1407              		.loc 1 321 30 view .LVU430
 1408 0098 C4F81C31 		str	r3, [r4, #284]
 323:../../Middlewares/LVGL/GUI/lvgl/src/widgets/calendar/lv_calendar.c ****     lv_buttonmatrix_set_map(calendar->btnm, calendar->map);
 1409              		.loc 1 323 5 is_stmt 1 view .LVU431
 323:../../Middlewares/LVGL/GUI/lvgl/src/widgets/calendar/lv_calendar.c ****     lv_buttonmatrix_set_map(calendar->btnm, calendar->map);
 1410              		.loc 1 323 22 is_stmt 0 view .LVU432
 1411 009c 2046     		mov	r0, r4
 1412 009e FFF7FEFF 		bl	lv_buttonmatrix_create
 1413              	.LVL148:
 323:../../Middlewares/LVGL/GUI/lvgl/src/widgets/calendar/lv_calendar.c ****     lv_buttonmatrix_set_map(calendar->btnm, calendar->map);
 1414              		.loc 1 323 20 discriminator 1 view .LVU433
ARM GAS  C:\Users\28576\AppData\Local\Temp\ccBAh4dU.s 			page 41


 1415 00a2 E062     		str	r0, [r4, #44]
 324:../../Middlewares/LVGL/GUI/lvgl/src/widgets/calendar/lv_calendar.c ****     lv_buttonmatrix_set_button_ctrl_all(calendar->btnm, LV_BUTTONMATRIX_CTRL_CLICK_TRIG | LV_BUTTON
 1416              		.loc 1 324 5 is_stmt 1 view .LVU434
 1417 00a4 04F14001 		add	r1, r4, #64
 1418 00a8 FFF7FEFF 		bl	lv_buttonmatrix_set_map
 1419              	.LVL149:
 325:../../Middlewares/LVGL/GUI/lvgl/src/widgets/calendar/lv_calendar.c ****     lv_obj_add_event_cb(calendar->btnm, draw_task_added_event_cb, LV_EVENT_DRAW_TASK_ADDED, NULL);
 1420              		.loc 1 325 5 view .LVU435
 1421 00ac 4FF40871 		mov	r1, #544
 1422 00b0 E06A     		ldr	r0, [r4, #44]
 1423 00b2 FFF7FEFF 		bl	lv_buttonmatrix_set_button_ctrl_all
 1424              	.LVL150:
 326:../../Middlewares/LVGL/GUI/lvgl/src/widgets/calendar/lv_calendar.c ****     lv_obj_set_width(calendar->btnm, lv_pct(100));
 1425              		.loc 1 326 5 view .LVU436
 1426 00b6 0023     		movs	r3, #0
 1427 00b8 2222     		movs	r2, #34
 1428 00ba 1949     		ldr	r1, .L95+12
 1429 00bc E06A     		ldr	r0, [r4, #44]
 1430 00be FFF7FEFF 		bl	lv_obj_add_event_cb
 1431              	.LVL151:
 327:../../Middlewares/LVGL/GUI/lvgl/src/widgets/calendar/lv_calendar.c ****     lv_obj_add_flag(calendar->btnm, LV_OBJ_FLAG_EVENT_BUBBLE | LV_OBJ_FLAG_SEND_DRAW_TASK_EVENTS);
 1432              		.loc 1 327 5 view .LVU437
 1433 00c2 E56A     		ldr	r5, [r4, #44]
 1434 00c4 6420     		movs	r0, #100
 1435 00c6 FFF7FEFF 		bl	lv_pct
 1436              	.LVL152:
 1437 00ca 0146     		mov	r1, r0
 327:../../Middlewares/LVGL/GUI/lvgl/src/widgets/calendar/lv_calendar.c ****     lv_obj_add_flag(calendar->btnm, LV_OBJ_FLAG_EVENT_BUBBLE | LV_OBJ_FLAG_SEND_DRAW_TASK_EVENTS);
 1438              		.loc 1 327 5 is_stmt 0 discriminator 1 view .LVU438
 1439 00cc 2846     		mov	r0, r5
 1440 00ce FFF7FEFF 		bl	lv_obj_set_width
 1441              	.LVL153:
 328:../../Middlewares/LVGL/GUI/lvgl/src/widgets/calendar/lv_calendar.c **** 
 1442              		.loc 1 328 5 is_stmt 1 view .LVU439
 1443 00d2 4FF40421 		mov	r1, #540672
 1444 00d6 E06A     		ldr	r0, [r4, #44]
 1445 00d8 FFF7FEFF 		bl	lv_obj_add_flag
 1446              	.LVL154:
 330:../../Middlewares/LVGL/GUI/lvgl/src/widgets/calendar/lv_calendar.c ****     lv_obj_set_flex_grow(calendar->btnm, 1);
 1447              		.loc 1 330 5 view .LVU440
 1448 00dc 0121     		movs	r1, #1
 1449 00de 2046     		mov	r0, r4
 1450 00e0 FFF7FEFF 		bl	lv_obj_set_flex_flow
 1451              	.LVL155:
 331:../../Middlewares/LVGL/GUI/lvgl/src/widgets/calendar/lv_calendar.c **** 
 1452              		.loc 1 331 5 view .LVU441
 1453 00e4 0121     		movs	r1, #1
 1454 00e6 E06A     		ldr	r0, [r4, #44]
 1455 00e8 FFF7FEFF 		bl	lv_obj_set_flex_grow
 1456              	.LVL156:
 333:../../Middlewares/LVGL/GUI/lvgl/src/widgets/calendar/lv_calendar.c **** 
 1457              		.loc 1 333 5 view .LVU442
 1458 00ec 0022     		movs	r2, #0
 1459 00ee 0221     		movs	r1, #2
 1460 00f0 2046     		mov	r0, r4
 1461 00f2 FFF7FEFF 		bl	lv_obj_set_style_text_align
 1462              	.LVL157:
ARM GAS  C:\Users\28576\AppData\Local\Temp\ccBAh4dU.s 			page 42


 335:../../Middlewares/LVGL/GUI/lvgl/src/widgets/calendar/lv_calendar.c ****     lv_calendar_set_today_date(obj, calendar->today.year, calendar->today.month, calendar->today.da
 1463              		.loc 1 335 5 view .LVU443
 1464 00f6 94F93620 		ldrsb	r2, [r4, #54]
 1465 00fa A18E     		ldrh	r1, [r4, #52]
 1466 00fc 2046     		mov	r0, r4
 1467 00fe FFF7FEFF 		bl	lv_calendar_set_month_shown
 1468              	.LVL158:
 336:../../Middlewares/LVGL/GUI/lvgl/src/widgets/calendar/lv_calendar.c **** }
 1469              		.loc 1 336 5 view .LVU444
 1470 0102 94F93330 		ldrsb	r3, [r4, #51]
 1471 0106 94F93220 		ldrsb	r2, [r4, #50]
 1472 010a 218E     		ldrh	r1, [r4, #48]
 1473 010c 2046     		mov	r0, r4
 1474 010e FFF7FEFF 		bl	lv_calendar_set_today_date
 1475              	.LVL159:
 337:../../Middlewares/LVGL/GUI/lvgl/src/widgets/calendar/lv_calendar.c **** 
 1476              		.loc 1 337 1 is_stmt 0 view .LVU445
 1477 0112 38BD     		pop	{r3, r4, r5, pc}
 1478              	.LVL160:
 1479              	.L96:
 337:../../Middlewares/LVGL/GUI/lvgl/src/widgets/calendar/lv_calendar.c **** 
 1480              		.loc 1 337 1 view .LVU446
 1481              		.align	2
 1482              	.L95:
 1483 0114 00000000 		.word	day_names_def
 1484 0118 00000000 		.word	.LC1
 1485 011c 04000000 		.word	.LC2
 1486 0120 00000000 		.word	draw_task_added_event_cb
 1487              		.cfi_endproc
 1488              	.LFE207:
 1490              		.section	.text.lv_calendar_get_btnmatrix,"ax",%progbits
 1491              		.align	1
 1492              		.global	lv_calendar_get_btnmatrix
 1493              		.syntax unified
 1494              		.thumb
 1495              		.thumb_func
 1497              	lv_calendar_get_btnmatrix:
 1498              	.LVL161:
 1499              	.LFB201:
 220:../../Middlewares/LVGL/GUI/lvgl/src/widgets/calendar/lv_calendar.c ****     LV_ASSERT_OBJ(obj, MY_CLASS);
 1500              		.loc 1 220 1 is_stmt 1 view -0
 1501              		.cfi_startproc
 1502              		@ args = 0, pretend = 0, frame = 0
 1503              		@ frame_needed = 0, uses_anonymous_args = 0
 1504              		@ link register save eliminated.
 221:../../Middlewares/LVGL/GUI/lvgl/src/widgets/calendar/lv_calendar.c ****     const lv_calendar_t * calendar = (lv_calendar_t *)obj;
 1505              		.loc 1 221 5 view .LVU448
 221:../../Middlewares/LVGL/GUI/lvgl/src/widgets/calendar/lv_calendar.c ****     const lv_calendar_t * calendar = (lv_calendar_t *)obj;
 1506              		.loc 1 221 5 view .LVU449
 1507 0000 08B1     		cbz	r0, .L99
 221:../../Middlewares/LVGL/GUI/lvgl/src/widgets/calendar/lv_calendar.c ****     const lv_calendar_t * calendar = (lv_calendar_t *)obj;
 1508              		.loc 1 221 5 view .LVU450
 221:../../Middlewares/LVGL/GUI/lvgl/src/widgets/calendar/lv_calendar.c ****     const lv_calendar_t * calendar = (lv_calendar_t *)obj;
 1509              		.loc 1 221 33 view .LVU451
 222:../../Middlewares/LVGL/GUI/lvgl/src/widgets/calendar/lv_calendar.c ****     return calendar->btnm;
 1510              		.loc 1 222 5 view .LVU452
 1511              	.LVL162:
ARM GAS  C:\Users\28576\AppData\Local\Temp\ccBAh4dU.s 			page 43


 223:../../Middlewares/LVGL/GUI/lvgl/src/widgets/calendar/lv_calendar.c **** }
 1512              		.loc 1 223 5 view .LVU453
 224:../../Middlewares/LVGL/GUI/lvgl/src/widgets/calendar/lv_calendar.c **** 
 1513              		.loc 1 224 1 is_stmt 0 view .LVU454
 1514 0002 C06A     		ldr	r0, [r0, #44]
 1515              	.LVL163:
 224:../../Middlewares/LVGL/GUI/lvgl/src/widgets/calendar/lv_calendar.c **** 
 1516              		.loc 1 224 1 view .LVU455
 1517 0004 7047     		bx	lr
 1518              	.LVL164:
 1519              	.L99:
 221:../../Middlewares/LVGL/GUI/lvgl/src/widgets/calendar/lv_calendar.c ****     const lv_calendar_t * calendar = (lv_calendar_t *)obj;
 1520              		.loc 1 221 5 is_stmt 1 view .LVU456
 221:../../Middlewares/LVGL/GUI/lvgl/src/widgets/calendar/lv_calendar.c ****     const lv_calendar_t * calendar = (lv_calendar_t *)obj;
 1521              		.loc 1 221 5 view .LVU457
 221:../../Middlewares/LVGL/GUI/lvgl/src/widgets/calendar/lv_calendar.c ****     const lv_calendar_t * calendar = (lv_calendar_t *)obj;
 1522              		.loc 1 221 5 view .LVU458
 221:../../Middlewares/LVGL/GUI/lvgl/src/widgets/calendar/lv_calendar.c ****     const lv_calendar_t * calendar = (lv_calendar_t *)obj;
 1523              		.loc 1 221 5 view .LVU459
 221:../../Middlewares/LVGL/GUI/lvgl/src/widgets/calendar/lv_calendar.c ****     const lv_calendar_t * calendar = (lv_calendar_t *)obj;
 1524              		.loc 1 221 5 view .LVU460
 1525 0006 FEE7     		b	.L99
 1526              		.cfi_endproc
 1527              	.LFE201:
 1529              		.section	.text.lv_calendar_get_today_date,"ax",%progbits
 1530              		.align	1
 1531              		.global	lv_calendar_get_today_date
 1532              		.syntax unified
 1533              		.thumb
 1534              		.thumb_func
 1536              	lv_calendar_get_today_date:
 1537              	.LVL165:
 1538              	.LFB202:
 227:../../Middlewares/LVGL/GUI/lvgl/src/widgets/calendar/lv_calendar.c ****     LV_ASSERT_OBJ(obj, MY_CLASS);
 1539              		.loc 1 227 1 view -0
 1540              		.cfi_startproc
 1541              		@ args = 0, pretend = 0, frame = 0
 1542              		@ frame_needed = 0, uses_anonymous_args = 0
 1543              		@ link register save eliminated.
 228:../../Middlewares/LVGL/GUI/lvgl/src/widgets/calendar/lv_calendar.c ****     const lv_calendar_t * calendar = (lv_calendar_t *)obj;
 1544              		.loc 1 228 5 view .LVU462
 228:../../Middlewares/LVGL/GUI/lvgl/src/widgets/calendar/lv_calendar.c ****     const lv_calendar_t * calendar = (lv_calendar_t *)obj;
 1545              		.loc 1 228 5 view .LVU463
 1546 0000 08B1     		cbz	r0, .L102
 228:../../Middlewares/LVGL/GUI/lvgl/src/widgets/calendar/lv_calendar.c ****     const lv_calendar_t * calendar = (lv_calendar_t *)obj;
 1547              		.loc 1 228 5 view .LVU464
 228:../../Middlewares/LVGL/GUI/lvgl/src/widgets/calendar/lv_calendar.c ****     const lv_calendar_t * calendar = (lv_calendar_t *)obj;
 1548              		.loc 1 228 33 view .LVU465
 229:../../Middlewares/LVGL/GUI/lvgl/src/widgets/calendar/lv_calendar.c **** 
 1549              		.loc 1 229 5 view .LVU466
 1550              	.LVL166:
 231:../../Middlewares/LVGL/GUI/lvgl/src/widgets/calendar/lv_calendar.c **** }
 1551              		.loc 1 231 5 view .LVU467
 232:../../Middlewares/LVGL/GUI/lvgl/src/widgets/calendar/lv_calendar.c **** 
 1552              		.loc 1 232 1 is_stmt 0 view .LVU468
 1553 0002 3030     		adds	r0, r0, #48
 1554              	.LVL167:
ARM GAS  C:\Users\28576\AppData\Local\Temp\ccBAh4dU.s 			page 44


 232:../../Middlewares/LVGL/GUI/lvgl/src/widgets/calendar/lv_calendar.c **** 
 1555              		.loc 1 232 1 view .LVU469
 1556 0004 7047     		bx	lr
 1557              	.LVL168:
 1558              	.L102:
 228:../../Middlewares/LVGL/GUI/lvgl/src/widgets/calendar/lv_calendar.c ****     const lv_calendar_t * calendar = (lv_calendar_t *)obj;
 1559              		.loc 1 228 5 is_stmt 1 view .LVU470
 228:../../Middlewares/LVGL/GUI/lvgl/src/widgets/calendar/lv_calendar.c ****     const lv_calendar_t * calendar = (lv_calendar_t *)obj;
 1560              		.loc 1 228 5 view .LVU471
 228:../../Middlewares/LVGL/GUI/lvgl/src/widgets/calendar/lv_calendar.c ****     const lv_calendar_t * calendar = (lv_calendar_t *)obj;
 1561              		.loc 1 228 5 view .LVU472
 228:../../Middlewares/LVGL/GUI/lvgl/src/widgets/calendar/lv_calendar.c ****     const lv_calendar_t * calendar = (lv_calendar_t *)obj;
 1562              		.loc 1 228 5 view .LVU473
 228:../../Middlewares/LVGL/GUI/lvgl/src/widgets/calendar/lv_calendar.c ****     const lv_calendar_t * calendar = (lv_calendar_t *)obj;
 1563              		.loc 1 228 5 view .LVU474
 1564 0006 FEE7     		b	.L102
 1565              		.cfi_endproc
 1566              	.LFE202:
 1568              		.section	.text.lv_calendar_get_showed_date,"ax",%progbits
 1569              		.align	1
 1570              		.global	lv_calendar_get_showed_date
 1571              		.syntax unified
 1572              		.thumb
 1573              		.thumb_func
 1575              	lv_calendar_get_showed_date:
 1576              	.LVL169:
 1577              	.LFB203:
 235:../../Middlewares/LVGL/GUI/lvgl/src/widgets/calendar/lv_calendar.c ****     LV_ASSERT_OBJ(obj, MY_CLASS);
 1578              		.loc 1 235 1 view -0
 1579              		.cfi_startproc
 1580              		@ args = 0, pretend = 0, frame = 0
 1581              		@ frame_needed = 0, uses_anonymous_args = 0
 1582              		@ link register save eliminated.
 236:../../Middlewares/LVGL/GUI/lvgl/src/widgets/calendar/lv_calendar.c ****     const lv_calendar_t * calendar = (lv_calendar_t *)obj;
 1583              		.loc 1 236 5 view .LVU476
 236:../../Middlewares/LVGL/GUI/lvgl/src/widgets/calendar/lv_calendar.c ****     const lv_calendar_t * calendar = (lv_calendar_t *)obj;
 1584              		.loc 1 236 5 view .LVU477
 1585 0000 08B1     		cbz	r0, .L105
 236:../../Middlewares/LVGL/GUI/lvgl/src/widgets/calendar/lv_calendar.c ****     const lv_calendar_t * calendar = (lv_calendar_t *)obj;
 1586              		.loc 1 236 5 view .LVU478
 236:../../Middlewares/LVGL/GUI/lvgl/src/widgets/calendar/lv_calendar.c ****     const lv_calendar_t * calendar = (lv_calendar_t *)obj;
 1587              		.loc 1 236 33 view .LVU479
 237:../../Middlewares/LVGL/GUI/lvgl/src/widgets/calendar/lv_calendar.c **** 
 1588              		.loc 1 237 5 view .LVU480
 1589              	.LVL170:
 239:../../Middlewares/LVGL/GUI/lvgl/src/widgets/calendar/lv_calendar.c **** }
 1590              		.loc 1 239 5 view .LVU481
 240:../../Middlewares/LVGL/GUI/lvgl/src/widgets/calendar/lv_calendar.c **** 
 1591              		.loc 1 240 1 is_stmt 0 view .LVU482
 1592 0002 3430     		adds	r0, r0, #52
 1593              	.LVL171:
 240:../../Middlewares/LVGL/GUI/lvgl/src/widgets/calendar/lv_calendar.c **** 
 1594              		.loc 1 240 1 view .LVU483
 1595 0004 7047     		bx	lr
 1596              	.LVL172:
 1597              	.L105:
 236:../../Middlewares/LVGL/GUI/lvgl/src/widgets/calendar/lv_calendar.c ****     const lv_calendar_t * calendar = (lv_calendar_t *)obj;
ARM GAS  C:\Users\28576\AppData\Local\Temp\ccBAh4dU.s 			page 45


 1598              		.loc 1 236 5 is_stmt 1 view .LVU484
 236:../../Middlewares/LVGL/GUI/lvgl/src/widgets/calendar/lv_calendar.c ****     const lv_calendar_t * calendar = (lv_calendar_t *)obj;
 1599              		.loc 1 236 5 view .LVU485
 236:../../Middlewares/LVGL/GUI/lvgl/src/widgets/calendar/lv_calendar.c ****     const lv_calendar_t * calendar = (lv_calendar_t *)obj;
 1600              		.loc 1 236 5 view .LVU486
 236:../../Middlewares/LVGL/GUI/lvgl/src/widgets/calendar/lv_calendar.c ****     const lv_calendar_t * calendar = (lv_calendar_t *)obj;
 1601              		.loc 1 236 5 view .LVU487
 236:../../Middlewares/LVGL/GUI/lvgl/src/widgets/calendar/lv_calendar.c ****     const lv_calendar_t * calendar = (lv_calendar_t *)obj;
 1602              		.loc 1 236 5 view .LVU488
 1603 0006 FEE7     		b	.L105
 1604              		.cfi_endproc
 1605              	.LFE203:
 1607              		.section	.text.lv_calendar_get_highlighted_dates,"ax",%progbits
 1608              		.align	1
 1609              		.global	lv_calendar_get_highlighted_dates
 1610              		.syntax unified
 1611              		.thumb
 1612              		.thumb_func
 1614              	lv_calendar_get_highlighted_dates:
 1615              	.LVL173:
 1616              	.LFB204:
 243:../../Middlewares/LVGL/GUI/lvgl/src/widgets/calendar/lv_calendar.c ****     LV_ASSERT_OBJ(obj, MY_CLASS);
 1617              		.loc 1 243 1 view -0
 1618              		.cfi_startproc
 1619              		@ args = 0, pretend = 0, frame = 0
 1620              		@ frame_needed = 0, uses_anonymous_args = 0
 1621              		@ link register save eliminated.
 244:../../Middlewares/LVGL/GUI/lvgl/src/widgets/calendar/lv_calendar.c ****     lv_calendar_t * calendar = (lv_calendar_t *)obj;
 1622              		.loc 1 244 5 view .LVU490
 244:../../Middlewares/LVGL/GUI/lvgl/src/widgets/calendar/lv_calendar.c ****     lv_calendar_t * calendar = (lv_calendar_t *)obj;
 1623              		.loc 1 244 5 view .LVU491
 1624 0000 08B1     		cbz	r0, .L108
 244:../../Middlewares/LVGL/GUI/lvgl/src/widgets/calendar/lv_calendar.c ****     lv_calendar_t * calendar = (lv_calendar_t *)obj;
 1625              		.loc 1 244 5 view .LVU492
 244:../../Middlewares/LVGL/GUI/lvgl/src/widgets/calendar/lv_calendar.c ****     lv_calendar_t * calendar = (lv_calendar_t *)obj;
 1626              		.loc 1 244 33 view .LVU493
 245:../../Middlewares/LVGL/GUI/lvgl/src/widgets/calendar/lv_calendar.c **** 
 1627              		.loc 1 245 5 view .LVU494
 1628              	.LVL174:
 247:../../Middlewares/LVGL/GUI/lvgl/src/widgets/calendar/lv_calendar.c **** }
 1629              		.loc 1 247 5 view .LVU495
 248:../../Middlewares/LVGL/GUI/lvgl/src/widgets/calendar/lv_calendar.c **** 
 1630              		.loc 1 248 1 is_stmt 0 view .LVU496
 1631 0002 806B     		ldr	r0, [r0, #56]
 1632              	.LVL175:
 248:../../Middlewares/LVGL/GUI/lvgl/src/widgets/calendar/lv_calendar.c **** 
 1633              		.loc 1 248 1 view .LVU497
 1634 0004 7047     		bx	lr
 1635              	.LVL176:
 1636              	.L108:
 244:../../Middlewares/LVGL/GUI/lvgl/src/widgets/calendar/lv_calendar.c ****     lv_calendar_t * calendar = (lv_calendar_t *)obj;
 1637              		.loc 1 244 5 is_stmt 1 view .LVU498
 244:../../Middlewares/LVGL/GUI/lvgl/src/widgets/calendar/lv_calendar.c ****     lv_calendar_t * calendar = (lv_calendar_t *)obj;
 1638              		.loc 1 244 5 view .LVU499
 244:../../Middlewares/LVGL/GUI/lvgl/src/widgets/calendar/lv_calendar.c ****     lv_calendar_t * calendar = (lv_calendar_t *)obj;
 1639              		.loc 1 244 5 view .LVU500
 244:../../Middlewares/LVGL/GUI/lvgl/src/widgets/calendar/lv_calendar.c ****     lv_calendar_t * calendar = (lv_calendar_t *)obj;
ARM GAS  C:\Users\28576\AppData\Local\Temp\ccBAh4dU.s 			page 46


 1640              		.loc 1 244 5 view .LVU501
 244:../../Middlewares/LVGL/GUI/lvgl/src/widgets/calendar/lv_calendar.c ****     lv_calendar_t * calendar = (lv_calendar_t *)obj;
 1641              		.loc 1 244 5 view .LVU502
 1642 0006 FEE7     		b	.L108
 1643              		.cfi_endproc
 1644              	.LFE204:
 1646              		.section	.text.lv_calendar_get_highlighted_dates_num,"ax",%progbits
 1647              		.align	1
 1648              		.global	lv_calendar_get_highlighted_dates_num
 1649              		.syntax unified
 1650              		.thumb
 1651              		.thumb_func
 1653              	lv_calendar_get_highlighted_dates_num:
 1654              	.LVL177:
 1655              	.LFB205:
 251:../../Middlewares/LVGL/GUI/lvgl/src/widgets/calendar/lv_calendar.c ****     LV_ASSERT_OBJ(obj, MY_CLASS);
 1656              		.loc 1 251 1 view -0
 1657              		.cfi_startproc
 1658              		@ args = 0, pretend = 0, frame = 0
 1659              		@ frame_needed = 0, uses_anonymous_args = 0
 1660              		@ link register save eliminated.
 252:../../Middlewares/LVGL/GUI/lvgl/src/widgets/calendar/lv_calendar.c ****     lv_calendar_t * calendar = (lv_calendar_t *)obj;
 1661              		.loc 1 252 5 view .LVU504
 252:../../Middlewares/LVGL/GUI/lvgl/src/widgets/calendar/lv_calendar.c ****     lv_calendar_t * calendar = (lv_calendar_t *)obj;
 1662              		.loc 1 252 5 view .LVU505
 1663 0000 08B1     		cbz	r0, .L111
 252:../../Middlewares/LVGL/GUI/lvgl/src/widgets/calendar/lv_calendar.c ****     lv_calendar_t * calendar = (lv_calendar_t *)obj;
 1664              		.loc 1 252 5 view .LVU506
 252:../../Middlewares/LVGL/GUI/lvgl/src/widgets/calendar/lv_calendar.c ****     lv_calendar_t * calendar = (lv_calendar_t *)obj;
 1665              		.loc 1 252 33 view .LVU507
 253:../../Middlewares/LVGL/GUI/lvgl/src/widgets/calendar/lv_calendar.c **** 
 1666              		.loc 1 253 5 view .LVU508
 1667              	.LVL178:
 255:../../Middlewares/LVGL/GUI/lvgl/src/widgets/calendar/lv_calendar.c **** }
 1668              		.loc 1 255 5 view .LVU509
 256:../../Middlewares/LVGL/GUI/lvgl/src/widgets/calendar/lv_calendar.c **** 
 1669              		.loc 1 256 1 is_stmt 0 view .LVU510
 1670 0002 C06B     		ldr	r0, [r0, #60]
 1671              	.LVL179:
 256:../../Middlewares/LVGL/GUI/lvgl/src/widgets/calendar/lv_calendar.c **** 
 1672              		.loc 1 256 1 view .LVU511
 1673 0004 7047     		bx	lr
 1674              	.LVL180:
 1675              	.L111:
 252:../../Middlewares/LVGL/GUI/lvgl/src/widgets/calendar/lv_calendar.c ****     lv_calendar_t * calendar = (lv_calendar_t *)obj;
 1676              		.loc 1 252 5 is_stmt 1 view .LVU512
 252:../../Middlewares/LVGL/GUI/lvgl/src/widgets/calendar/lv_calendar.c ****     lv_calendar_t * calendar = (lv_calendar_t *)obj;
 1677              		.loc 1 252 5 view .LVU513
 252:../../Middlewares/LVGL/GUI/lvgl/src/widgets/calendar/lv_calendar.c ****     lv_calendar_t * calendar = (lv_calendar_t *)obj;
 1678              		.loc 1 252 5 view .LVU514
 252:../../Middlewares/LVGL/GUI/lvgl/src/widgets/calendar/lv_calendar.c ****     lv_calendar_t * calendar = (lv_calendar_t *)obj;
 1679              		.loc 1 252 5 view .LVU515
 252:../../Middlewares/LVGL/GUI/lvgl/src/widgets/calendar/lv_calendar.c ****     lv_calendar_t * calendar = (lv_calendar_t *)obj;
 1680              		.loc 1 252 5 view .LVU516
 1681 0006 FEE7     		b	.L111
 1682              		.cfi_endproc
 1683              	.LFE205:
ARM GAS  C:\Users\28576\AppData\Local\Temp\ccBAh4dU.s 			page 47


 1685              		.section	.text.lv_calendar_get_pressed_date,"ax",%progbits
 1686              		.align	1
 1687              		.global	lv_calendar_get_pressed_date
 1688              		.syntax unified
 1689              		.thumb
 1690              		.thumb_func
 1692              	lv_calendar_get_pressed_date:
 1693              	.LVL181:
 1694              	.LFB206:
 259:../../Middlewares/LVGL/GUI/lvgl/src/widgets/calendar/lv_calendar.c ****     LV_ASSERT_OBJ(obj, MY_CLASS);
 1695              		.loc 1 259 1 view -0
 1696              		.cfi_startproc
 1697              		@ args = 0, pretend = 0, frame = 0
 1698              		@ frame_needed = 0, uses_anonymous_args = 0
 260:../../Middlewares/LVGL/GUI/lvgl/src/widgets/calendar/lv_calendar.c ****     lv_calendar_t * calendar = (lv_calendar_t *)obj;
 1699              		.loc 1 260 5 view .LVU518
 260:../../Middlewares/LVGL/GUI/lvgl/src/widgets/calendar/lv_calendar.c ****     lv_calendar_t * calendar = (lv_calendar_t *)obj;
 1700              		.loc 1 260 5 view .LVU519
 1701 0000 F0B1     		cbz	r0, .L114
 259:../../Middlewares/LVGL/GUI/lvgl/src/widgets/calendar/lv_calendar.c ****     LV_ASSERT_OBJ(obj, MY_CLASS);
 1702              		.loc 1 259 1 is_stmt 0 view .LVU520
 1703 0002 70B5     		push	{r4, r5, r6, lr}
 1704              	.LCFI18:
 1705              		.cfi_def_cfa_offset 16
 1706              		.cfi_offset 4, -16
 1707              		.cfi_offset 5, -12
 1708              		.cfi_offset 6, -8
 1709              		.cfi_offset 14, -4
 1710 0004 0C46     		mov	r4, r1
 1711 0006 0546     		mov	r5, r0
 260:../../Middlewares/LVGL/GUI/lvgl/src/widgets/calendar/lv_calendar.c ****     lv_calendar_t * calendar = (lv_calendar_t *)obj;
 1712              		.loc 1 260 5 is_stmt 1 view .LVU521
 260:../../Middlewares/LVGL/GUI/lvgl/src/widgets/calendar/lv_calendar.c ****     lv_calendar_t * calendar = (lv_calendar_t *)obj;
 1713              		.loc 1 260 33 view .LVU522
 261:../../Middlewares/LVGL/GUI/lvgl/src/widgets/calendar/lv_calendar.c **** 
 1714              		.loc 1 261 5 view .LVU523
 1715              	.LVL182:
 263:../../Middlewares/LVGL/GUI/lvgl/src/widgets/calendar/lv_calendar.c ****     if(d == LV_BUTTONMATRIX_BUTTON_NONE) {
 1716              		.loc 1 263 5 view .LVU524
 263:../../Middlewares/LVGL/GUI/lvgl/src/widgets/calendar/lv_calendar.c ****     if(d == LV_BUTTONMATRIX_BUTTON_NONE) {
 1717              		.loc 1 263 18 is_stmt 0 view .LVU525
 1718 0008 C06A     		ldr	r0, [r0, #44]
 1719              	.LVL183:
 263:../../Middlewares/LVGL/GUI/lvgl/src/widgets/calendar/lv_calendar.c ****     if(d == LV_BUTTONMATRIX_BUTTON_NONE) {
 1720              		.loc 1 263 18 view .LVU526
 1721 000a FFF7FEFF 		bl	lv_buttonmatrix_get_selected_button
 1722              	.LVL184:
 264:../../Middlewares/LVGL/GUI/lvgl/src/widgets/calendar/lv_calendar.c ****         date->year = 0;
 1723              		.loc 1 264 5 is_stmt 1 view .LVU527
 264:../../Middlewares/LVGL/GUI/lvgl/src/widgets/calendar/lv_calendar.c ****         date->year = 0;
 1724              		.loc 1 264 7 is_stmt 0 view .LVU528
 1725 000e 4FF6FF73 		movw	r3, #65535
 1726 0012 9842     		cmp	r0, r3
 1727 0014 15D0     		beq	.L121
 271:../../Middlewares/LVGL/GUI/lvgl/src/widgets/calendar/lv_calendar.c **** 
 1728              		.loc 1 271 5 is_stmt 1 view .LVU529
 271:../../Middlewares/LVGL/GUI/lvgl/src/widgets/calendar/lv_calendar.c **** 
ARM GAS  C:\Users\28576\AppData\Local\Temp\ccBAh4dU.s 			page 48


 1729              		.loc 1 271 64 is_stmt 0 view .LVU530
 1730 0016 EB6A     		ldr	r3, [r5, #44]
 1731 0018 1E46     		mov	r6, r3
 271:../../Middlewares/LVGL/GUI/lvgl/src/widgets/calendar/lv_calendar.c **** 
 1732              		.loc 1 271 24 view .LVU531
 1733 001a 1846     		mov	r0, r3
 1734              	.LVL185:
 271:../../Middlewares/LVGL/GUI/lvgl/src/widgets/calendar/lv_calendar.c **** 
 1735              		.loc 1 271 24 view .LVU532
 1736 001c FFF7FEFF 		bl	lv_buttonmatrix_get_selected_button
 1737              	.LVL186:
 1738 0020 0146     		mov	r1, r0
 271:../../Middlewares/LVGL/GUI/lvgl/src/widgets/calendar/lv_calendar.c **** 
 1739              		.loc 1 271 24 discriminator 1 view .LVU533
 1740 0022 3046     		mov	r0, r6
 1741 0024 FFF7FEFF 		bl	lv_buttonmatrix_get_button_text
 1742              	.LVL187:
 273:../../Middlewares/LVGL/GUI/lvgl/src/widgets/calendar/lv_calendar.c ****     else date->day = (txt[0] - '0') * 10 + (txt[1] - '0');
 1743              		.loc 1 273 5 is_stmt 1 view .LVU534
 273:../../Middlewares/LVGL/GUI/lvgl/src/widgets/calendar/lv_calendar.c ****     else date->day = (txt[0] - '0') * 10 + (txt[1] - '0');
 1744              		.loc 1 273 11 is_stmt 0 view .LVU535
 1745 0028 4378     		ldrb	r3, [r0, #1]	@ zero_extendqisi2
 273:../../Middlewares/LVGL/GUI/lvgl/src/widgets/calendar/lv_calendar.c ****     else date->day = (txt[0] - '0') * 10 + (txt[1] - '0');
 1746              		.loc 1 273 7 view .LVU536
 1747 002a 8BB9     		cbnz	r3, .L117
 273:../../Middlewares/LVGL/GUI/lvgl/src/widgets/calendar/lv_calendar.c ****     else date->day = (txt[0] - '0') * 10 + (txt[1] - '0');
 1748              		.loc 1 273 21 is_stmt 1 discriminator 1 view .LVU537
 273:../../Middlewares/LVGL/GUI/lvgl/src/widgets/calendar/lv_calendar.c ****     else date->day = (txt[0] - '0') * 10 + (txt[1] - '0');
 1749              		.loc 1 273 36 is_stmt 0 discriminator 1 view .LVU538
 1750 002c 0378     		ldrb	r3, [r0]	@ zero_extendqisi2
 273:../../Middlewares/LVGL/GUI/lvgl/src/widgets/calendar/lv_calendar.c ****     else date->day = (txt[0] - '0') * 10 + (txt[1] - '0');
 1751              		.loc 1 273 40 discriminator 1 view .LVU539
 1752 002e 303B     		subs	r3, r3, #48
 273:../../Middlewares/LVGL/GUI/lvgl/src/widgets/calendar/lv_calendar.c ****     else date->day = (txt[0] - '0') * 10 + (txt[1] - '0');
 1753              		.loc 1 273 31 discriminator 1 view .LVU540
 1754 0030 E370     		strb	r3, [r4, #3]
 1755              	.L118:
 276:../../Middlewares/LVGL/GUI/lvgl/src/widgets/calendar/lv_calendar.c ****     date->month = calendar->showed_date.month;
 1756              		.loc 1 276 5 is_stmt 1 view .LVU541
 276:../../Middlewares/LVGL/GUI/lvgl/src/widgets/calendar/lv_calendar.c ****     date->month = calendar->showed_date.month;
 1757              		.loc 1 276 39 is_stmt 0 view .LVU542
 1758 0032 AB8E     		ldrh	r3, [r5, #52]
 276:../../Middlewares/LVGL/GUI/lvgl/src/widgets/calendar/lv_calendar.c ****     date->month = calendar->showed_date.month;
 1759              		.loc 1 276 16 view .LVU543
 1760 0034 2380     		strh	r3, [r4]	@ movhi
 277:../../Middlewares/LVGL/GUI/lvgl/src/widgets/calendar/lv_calendar.c **** 
 1761              		.loc 1 277 5 is_stmt 1 view .LVU544
 277:../../Middlewares/LVGL/GUI/lvgl/src/widgets/calendar/lv_calendar.c **** 
 1762              		.loc 1 277 40 is_stmt 0 view .LVU545
 1763 0036 95F93630 		ldrsb	r3, [r5, #54]
 277:../../Middlewares/LVGL/GUI/lvgl/src/widgets/calendar/lv_calendar.c **** 
 1764              		.loc 1 277 17 view .LVU546
 1765 003a A370     		strb	r3, [r4, #2]
 279:../../Middlewares/LVGL/GUI/lvgl/src/widgets/calendar/lv_calendar.c **** }
 1766              		.loc 1 279 5 is_stmt 1 view .LVU547
 279:../../Middlewares/LVGL/GUI/lvgl/src/widgets/calendar/lv_calendar.c **** }
 1767              		.loc 1 279 12 is_stmt 0 view .LVU548
ARM GAS  C:\Users\28576\AppData\Local\Temp\ccBAh4dU.s 			page 49


 1768 003c 0120     		movs	r0, #1
 1769              	.LVL188:
 1770              	.L116:
 280:../../Middlewares/LVGL/GUI/lvgl/src/widgets/calendar/lv_calendar.c **** 
 1771              		.loc 1 280 1 view .LVU549
 1772 003e 70BD     		pop	{r4, r5, r6, pc}
 1773              	.LVL189:
 1774              	.L114:
 1775              	.LCFI19:
 1776              		.cfi_def_cfa_offset 0
 1777              		.cfi_restore 4
 1778              		.cfi_restore 5
 1779              		.cfi_restore 6
 1780              		.cfi_restore 14
 260:../../Middlewares/LVGL/GUI/lvgl/src/widgets/calendar/lv_calendar.c ****     lv_calendar_t * calendar = (lv_calendar_t *)obj;
 1781              		.loc 1 260 5 is_stmt 1 view .LVU550
 260:../../Middlewares/LVGL/GUI/lvgl/src/widgets/calendar/lv_calendar.c ****     lv_calendar_t * calendar = (lv_calendar_t *)obj;
 1782              		.loc 1 260 5 view .LVU551
 260:../../Middlewares/LVGL/GUI/lvgl/src/widgets/calendar/lv_calendar.c ****     lv_calendar_t * calendar = (lv_calendar_t *)obj;
 1783              		.loc 1 260 5 view .LVU552
 260:../../Middlewares/LVGL/GUI/lvgl/src/widgets/calendar/lv_calendar.c ****     lv_calendar_t * calendar = (lv_calendar_t *)obj;
 1784              		.loc 1 260 5 view .LVU553
 260:../../Middlewares/LVGL/GUI/lvgl/src/widgets/calendar/lv_calendar.c ****     lv_calendar_t * calendar = (lv_calendar_t *)obj;
 1785              		.loc 1 260 5 view .LVU554
 1786 0040 FEE7     		b	.L114
 1787              	.LVL190:
 1788              	.L121:
 1789              	.LCFI20:
 1790              		.cfi_def_cfa_offset 16
 1791              		.cfi_offset 4, -16
 1792              		.cfi_offset 5, -12
 1793              		.cfi_offset 6, -8
 1794              		.cfi_offset 14, -4
 265:../../Middlewares/LVGL/GUI/lvgl/src/widgets/calendar/lv_calendar.c ****         date->month = 0;
 1795              		.loc 1 265 9 view .LVU555
 265:../../Middlewares/LVGL/GUI/lvgl/src/widgets/calendar/lv_calendar.c ****         date->month = 0;
 1796              		.loc 1 265 20 is_stmt 0 view .LVU556
 1797 0042 0020     		movs	r0, #0
 1798              	.LVL191:
 265:../../Middlewares/LVGL/GUI/lvgl/src/widgets/calendar/lv_calendar.c ****         date->month = 0;
 1799              		.loc 1 265 20 view .LVU557
 1800 0044 2080     		strh	r0, [r4]	@ movhi
 266:../../Middlewares/LVGL/GUI/lvgl/src/widgets/calendar/lv_calendar.c ****         date->day = 0;
 1801              		.loc 1 266 9 is_stmt 1 view .LVU558
 266:../../Middlewares/LVGL/GUI/lvgl/src/widgets/calendar/lv_calendar.c ****         date->day = 0;
 1802              		.loc 1 266 21 is_stmt 0 view .LVU559
 1803 0046 4FF00003 		mov	r3, #0	@ movhi
 1804 004a A370     		strb	r3, [r4, #2]
 267:../../Middlewares/LVGL/GUI/lvgl/src/widgets/calendar/lv_calendar.c ****         return LV_RESULT_INVALID;
 1805              		.loc 1 267 9 is_stmt 1 view .LVU560
 267:../../Middlewares/LVGL/GUI/lvgl/src/widgets/calendar/lv_calendar.c ****         return LV_RESULT_INVALID;
 1806              		.loc 1 267 19 is_stmt 0 view .LVU561
 1807 004c E070     		strb	r0, [r4, #3]
 268:../../Middlewares/LVGL/GUI/lvgl/src/widgets/calendar/lv_calendar.c ****     }
 1808              		.loc 1 268 9 is_stmt 1 view .LVU562
 268:../../Middlewares/LVGL/GUI/lvgl/src/widgets/calendar/lv_calendar.c ****     }
 1809              		.loc 1 268 16 is_stmt 0 view .LVU563
ARM GAS  C:\Users\28576\AppData\Local\Temp\ccBAh4dU.s 			page 50


 1810 004e F6E7     		b	.L116
 1811              	.LVL192:
 1812              	.L117:
 274:../../Middlewares/LVGL/GUI/lvgl/src/widgets/calendar/lv_calendar.c **** 
 1813              		.loc 1 274 10 is_stmt 1 view .LVU564
 274:../../Middlewares/LVGL/GUI/lvgl/src/widgets/calendar/lv_calendar.c **** 
 1814              		.loc 1 274 26 is_stmt 0 view .LVU565
 1815 0050 0278     		ldrb	r2, [r0]	@ zero_extendqisi2
 274:../../Middlewares/LVGL/GUI/lvgl/src/widgets/calendar/lv_calendar.c **** 
 1816              		.loc 1 274 42 view .LVU566
 1817 0052 303A     		subs	r2, r2, #48
 1818 0054 02EB8202 		add	r2, r2, r2, lsl #2
 1819 0058 03EB4203 		add	r3, r3, r2, lsl #1
 1820 005c 303B     		subs	r3, r3, #48
 274:../../Middlewares/LVGL/GUI/lvgl/src/widgets/calendar/lv_calendar.c **** 
 1821              		.loc 1 274 20 view .LVU567
 1822 005e E370     		strb	r3, [r4, #3]
 1823 0060 E7E7     		b	.L118
 1824              		.cfi_endproc
 1825              	.LFE206:
 1827              		.section	.rodata.str1.4,"aMS",%progbits,1
 1828              		.align	2
 1829              	.LC3:
 1830 0000 537500   		.ascii	"Su\000"
 1831 0003 00       		.align	2
 1832              	.LC4:
 1833 0004 4D6F00   		.ascii	"Mo\000"
 1834 0007 00       		.align	2
 1835              	.LC5:
 1836 0008 547500   		.ascii	"Tu\000"
 1837 000b 00       		.align	2
 1838              	.LC6:
 1839 000c 576500   		.ascii	"We\000"
 1840 000f 00       		.align	2
 1841              	.LC7:
 1842 0010 546800   		.ascii	"Th\000"
 1843 0013 00       		.align	2
 1844              	.LC8:
 1845 0014 467200   		.ascii	"Fr\000"
 1846 0017 00       		.align	2
 1847              	.LC9:
 1848 0018 536100   		.ascii	"Sa\000"
 1849              		.section	.rodata.day_names_def,"a"
 1850              		.align	2
 1853              	day_names_def:
 1854 0000 00000000 		.word	.LC3
 1855 0004 04000000 		.word	.LC4
 1856 0008 08000000 		.word	.LC5
 1857 000c 0C000000 		.word	.LC6
 1858 0010 10000000 		.word	.LC7
 1859 0014 14000000 		.word	.LC8
 1860 0018 18000000 		.word	.LC9
 1861              		.global	lv_calendar_class
 1862              		.section	.rodata.str1.4
 1863 001b 00       		.align	2
 1864              	.LC10:
 1865 001c 6C765F63 		.ascii	"lv_calendar\000"
ARM GAS  C:\Users\28576\AppData\Local\Temp\ccBAh4dU.s 			page 51


 1865      616C656E 
 1865      64617200 
 1866              		.section	.rodata.lv_calendar_class,"a"
 1867              		.align	2
 1870              	lv_calendar_class:
 1871 0000 00000000 		.word	lv_obj_class
 1872 0004 00000000 		.word	lv_calendar_constructor
 1873 0008 00000000 		.space	12
 1873      00000000 
 1873      00000000 
 1874 0014 1C000000 		.word	.LC10
 1875 0018 C3000000 		.word	195
 1876 001c C3000000 		.word	195
 1877 0020 C4       		.byte	196
 1878 0021 46       		.byte	70
 1879 0022 00       		.byte	0
 1880 0023 00       		.space	1
 1881              		.text
 1882              	.Letext0:
 1883              		.file 3 "C:/Users/28576/AppData/Roaming/xPacks/@xpack-dev-tools/arm-none-eabi-gcc/15.2.1-1.1.1/.co
 1884              		.file 4 "C:/Users/28576/AppData/Roaming/xPacks/@xpack-dev-tools/arm-none-eabi-gcc/15.2.1-1.1.1/.co
 1885              		.file 5 "C:/Users/28576/AppData/Roaming/xPacks/@xpack-dev-tools/arm-none-eabi-gcc/15.2.1-1.1.1/.co
 1886              		.file 6 "H:/STM32H7/RGB_LVGL/Middlewares/LVGL/GUI/lvgl/src/misc/lv_types.h"
 1887              		.file 7 "H:/STM32H7/RGB_LVGL/Middlewares/LVGL/GUI/lvgl/src/core/lv_obj_private.h"
 1888              		.file 8 "H:/STM32H7/RGB_LVGL/Middlewares/LVGL/GUI/lvgl/src/core/lv_obj_class_private.h"
 1889              		.file 9 "H:/STM32H7/RGB_LVGL/Middlewares/LVGL/GUI/lvgl/src/draw/lv_draw.h"
 1890              		.file 10 "H:/STM32H7/RGB_LVGL/Middlewares/LVGL/GUI/lvgl/src/draw/lv_draw_private.h"
 1891              		.file 11 "../../Middlewares/LVGL/GUI/lvgl/src/widgets/calendar/lv_calendar_private.h"
 1892              		.file 12 "H:/STM32H7/RGB_LVGL/Middlewares/LVGL/GUI/lvgl/src/misc/lv_array.h"
 1893              		.file 13 "H:/STM32H7/RGB_LVGL/Middlewares/LVGL/GUI/lvgl/src/draw/lv_draw_buf.h"
 1894              		.file 14 "H:/STM32H7/RGB_LVGL/Middlewares/LVGL/GUI/lvgl/src/misc/lv_area.h"
 1895              		.file 15 "H:/STM32H7/RGB_LVGL/Middlewares/LVGL/GUI/lvgl/src/misc/lv_color.h"
 1896              		.file 16 "H:/STM32H7/RGB_LVGL/Middlewares/LVGL/GUI/lvgl/src/draw/lv_image_dsc.h"
 1897              		.file 17 "H:/STM32H7/RGB_LVGL/Middlewares/LVGL/GUI/lvgl/src/misc/lv_text.h"
 1898              		.file 18 "H:/STM32H7/RGB_LVGL/Middlewares/LVGL/GUI/lvgl/src/misc/lv_grad.h"
 1899              		.file 19 "H:/STM32H7/RGB_LVGL/Middlewares/LVGL/GUI/lvgl/src/layouts/flex/lv_flex.h"
 1900              		.file 20 "H:/STM32H7/RGB_LVGL/Middlewares/LVGL/GUI/lvgl/src/misc/lv_style.h"
 1901              		.file 21 "H:/STM32H7/RGB_LVGL/Middlewares/LVGL/GUI/lvgl/src/misc/lv_event.h"
 1902              		.file 22 "H:/STM32H7/RGB_LVGL/Middlewares/LVGL/GUI/lvgl/src/core/lv_obj_style.h"
 1903              		.file 23 "H:/STM32H7/RGB_LVGL/Middlewares/LVGL/GUI/lvgl/src/draw/lv_draw_rect.h"
 1904              		.file 24 "H:/STM32H7/RGB_LVGL/Middlewares/LVGL/GUI/lvgl/src/core/lv_obj_class.h"
 1905              		.file 25 "H:/STM32H7/RGB_LVGL/Middlewares/LVGL/GUI/lvgl/src/indev/lv_indev.h"
 1906              		.file 26 "H:/STM32H7/RGB_LVGL/Middlewares/LVGL/GUI/lvgl/src/core/lv_obj.h"
 1907              		.file 27 "../../Middlewares/LVGL/GUI/lvgl/src/widgets/calendar/../buttonmatrix/lv_buttonmatrix.h"
 1908              		.file 28 "../../Middlewares/LVGL/GUI/lvgl/src/widgets/calendar/lv_calendar.h"
 1909              		.file 29 "H:/STM32H7/RGB_LVGL/Middlewares/LVGL/GUI/lvgl/src/widgets/bar/lv_bar.h"
 1910              		.file 30 "H:/STM32H7/RGB_LVGL/Middlewares/LVGL/GUI/lvgl/src/core/lv_obj_event.h"
 1911              		.file 31 "H:/STM32H7/RGB_LVGL/Middlewares/LVGL/GUI/lvgl/src/core/lv_obj_tree.h"
 1912              		.file 32 "H:/STM32H7/RGB_LVGL/Middlewares/LVGL/GUI/lvgl/src/stdlib/lv_sprintf.h"
 1913              		.file 33 "H:/STM32H7/RGB_LVGL/Middlewares/LVGL/GUI/lvgl/src/core/lv_obj_pos.h"
 1914              		.file 34 "H:/STM32H7/RGB_LVGL/Middlewares/LVGL/GUI/lvgl/src/themes/lv_theme.h"
 1915              		.file 35 "H:/STM32H7/RGB_LVGL/Middlewares/LVGL/GUI/lvgl/src/core/lv_obj_style_gen.h"
ARM GAS  C:\Users\28576\AppData\Local\Temp\ccBAh4dU.s 			page 52

