ARM GAS  C:\Users\28576\AppData\Local\Temp\ccjZhfoH.s 			page 1


   1              		.cpu cortex-m7
   2              		.arch armv7e-m
   3              		.fpu fpv5-d16
   4              		.eabi_attribute 28, 1
   5              		.eabi_attribute 20, 1
   6              		.eabi_attribute 21, 1
   7              		.eabi_attribute 23, 3
   8              		.eabi_attribute 24, 1
   9              		.eabi_attribute 25, 1
  10              		.eabi_attribute 26, 1
  11              		.eabi_attribute 30, 1
  12              		.eabi_attribute 34, 1
  13              		.eabi_attribute 18, 4
  14              		.file	"lv_draw_mask.c"
  15              		.text
  16              	.Ltext0:
  17              		.cfi_sections	.debug_frame
  18              		.file 1 "../../Middlewares/LVGL/GUI/lvgl/src/draw/lv_draw_mask.c"
  19              		.section	.text.lv_draw_mask_rect_dsc_init,"ax",%progbits
  20              		.align	1
  21              		.global	lv_draw_mask_rect_dsc_init
  22              		.syntax unified
  23              		.thumb
  24              		.thumb_func
  26              	lv_draw_mask_rect_dsc_init:
  27              	.LVL0:
  28              	.LFB187:
   1:../../Middlewares/LVGL/GUI/lvgl/src/draw/lv_draw_mask.c **** /**
   2:../../Middlewares/LVGL/GUI/lvgl/src/draw/lv_draw_mask.c ****  * @file lv_draw_mask.c
   3:../../Middlewares/LVGL/GUI/lvgl/src/draw/lv_draw_mask.c ****  *
   4:../../Middlewares/LVGL/GUI/lvgl/src/draw/lv_draw_mask.c ****  */
   5:../../Middlewares/LVGL/GUI/lvgl/src/draw/lv_draw_mask.c **** 
   6:../../Middlewares/LVGL/GUI/lvgl/src/draw/lv_draw_mask.c **** /*********************
   7:../../Middlewares/LVGL/GUI/lvgl/src/draw/lv_draw_mask.c ****  *      INCLUDES
   8:../../Middlewares/LVGL/GUI/lvgl/src/draw/lv_draw_mask.c ****  *********************/
   9:../../Middlewares/LVGL/GUI/lvgl/src/draw/lv_draw_mask.c **** #include "lv_draw_mask_private.h"
  10:../../Middlewares/LVGL/GUI/lvgl/src/draw/lv_draw_mask.c **** #include "lv_draw_private.h"
  11:../../Middlewares/LVGL/GUI/lvgl/src/draw/lv_draw_mask.c **** #include "../core/lv_refr.h"
  12:../../Middlewares/LVGL/GUI/lvgl/src/draw/lv_draw_mask.c **** #include "../misc/lv_math.h"
  13:../../Middlewares/LVGL/GUI/lvgl/src/draw/lv_draw_mask.c **** #include "../misc/lv_types.h"
  14:../../Middlewares/LVGL/GUI/lvgl/src/draw/lv_draw_mask.c **** #include "../stdlib/lv_string.h"
  15:../../Middlewares/LVGL/GUI/lvgl/src/draw/lv_draw_mask.c **** 
  16:../../Middlewares/LVGL/GUI/lvgl/src/draw/lv_draw_mask.c **** /*********************
  17:../../Middlewares/LVGL/GUI/lvgl/src/draw/lv_draw_mask.c ****  *      DEFINES
  18:../../Middlewares/LVGL/GUI/lvgl/src/draw/lv_draw_mask.c ****  *********************/
  19:../../Middlewares/LVGL/GUI/lvgl/src/draw/lv_draw_mask.c **** 
  20:../../Middlewares/LVGL/GUI/lvgl/src/draw/lv_draw_mask.c **** /**********************
  21:../../Middlewares/LVGL/GUI/lvgl/src/draw/lv_draw_mask.c ****  *      TYPEDEFS
  22:../../Middlewares/LVGL/GUI/lvgl/src/draw/lv_draw_mask.c ****  **********************/
  23:../../Middlewares/LVGL/GUI/lvgl/src/draw/lv_draw_mask.c **** 
  24:../../Middlewares/LVGL/GUI/lvgl/src/draw/lv_draw_mask.c **** /**********************
  25:../../Middlewares/LVGL/GUI/lvgl/src/draw/lv_draw_mask.c ****  *  STATIC PROTOTYPES
  26:../../Middlewares/LVGL/GUI/lvgl/src/draw/lv_draw_mask.c ****  **********************/
  27:../../Middlewares/LVGL/GUI/lvgl/src/draw/lv_draw_mask.c **** 
  28:../../Middlewares/LVGL/GUI/lvgl/src/draw/lv_draw_mask.c **** /**********************
  29:../../Middlewares/LVGL/GUI/lvgl/src/draw/lv_draw_mask.c ****  *  STATIC VARIABLES
  30:../../Middlewares/LVGL/GUI/lvgl/src/draw/lv_draw_mask.c ****  **********************/
ARM GAS  C:\Users\28576\AppData\Local\Temp\ccjZhfoH.s 			page 2


  31:../../Middlewares/LVGL/GUI/lvgl/src/draw/lv_draw_mask.c **** 
  32:../../Middlewares/LVGL/GUI/lvgl/src/draw/lv_draw_mask.c **** /**********************
  33:../../Middlewares/LVGL/GUI/lvgl/src/draw/lv_draw_mask.c ****  *      MACROS
  34:../../Middlewares/LVGL/GUI/lvgl/src/draw/lv_draw_mask.c ****  **********************/
  35:../../Middlewares/LVGL/GUI/lvgl/src/draw/lv_draw_mask.c **** 
  36:../../Middlewares/LVGL/GUI/lvgl/src/draw/lv_draw_mask.c **** /**********************
  37:../../Middlewares/LVGL/GUI/lvgl/src/draw/lv_draw_mask.c ****  *   GLOBAL FUNCTIONS
  38:../../Middlewares/LVGL/GUI/lvgl/src/draw/lv_draw_mask.c ****  **********************/
  39:../../Middlewares/LVGL/GUI/lvgl/src/draw/lv_draw_mask.c **** 
  40:../../Middlewares/LVGL/GUI/lvgl/src/draw/lv_draw_mask.c **** void LV_ATTRIBUTE_FAST_MEM lv_draw_mask_rect_dsc_init(lv_draw_mask_rect_dsc_t * dsc)
  41:../../Middlewares/LVGL/GUI/lvgl/src/draw/lv_draw_mask.c **** {
  29              		.loc 1 41 1 view -0
  30              		.cfi_startproc
  31              		@ args = 0, pretend = 0, frame = 0
  32              		@ frame_needed = 0, uses_anonymous_args = 0
  33              		.loc 1 41 1 is_stmt 0 view .LVU1
  34 0000 08B5     		push	{r3, lr}
  35              	.LCFI0:
  36              		.cfi_def_cfa_offset 8
  37              		.cfi_offset 3, -8
  38              		.cfi_offset 14, -4
  42:../../Middlewares/LVGL/GUI/lvgl/src/draw/lv_draw_mask.c ****     lv_memzero(dsc, sizeof(lv_draw_mask_rect_dsc_t));
  39              		.loc 1 42 5 is_stmt 1 view .LVU2
  40              	.LVL1:
  41              	.LBB4:
  42              	.LBI4:
  43              		.file 2 "H:/STM32H7/RGB_LVGL/Middlewares/LVGL/GUI/lvgl/src/stdlib/lv_string.h"
   1:H:/STM32H7/RGB_LVGL/Middlewares/LVGL/GUI/lvgl/src/stdlib\lv_string.h **** /**
   2:H:/STM32H7/RGB_LVGL/Middlewares/LVGL/GUI/lvgl/src/stdlib\lv_string.h ****  * @file lv_string.h
   3:H:/STM32H7/RGB_LVGL/Middlewares/LVGL/GUI/lvgl/src/stdlib\lv_string.h ****  *
   4:H:/STM32H7/RGB_LVGL/Middlewares/LVGL/GUI/lvgl/src/stdlib\lv_string.h ****  */
   5:H:/STM32H7/RGB_LVGL/Middlewares/LVGL/GUI/lvgl/src/stdlib\lv_string.h **** 
   6:H:/STM32H7/RGB_LVGL/Middlewares/LVGL/GUI/lvgl/src/stdlib\lv_string.h **** #ifndef LV_STRING_H
   7:H:/STM32H7/RGB_LVGL/Middlewares/LVGL/GUI/lvgl/src/stdlib\lv_string.h **** #define LV_STRING_H
   8:H:/STM32H7/RGB_LVGL/Middlewares/LVGL/GUI/lvgl/src/stdlib\lv_string.h **** 
   9:H:/STM32H7/RGB_LVGL/Middlewares/LVGL/GUI/lvgl/src/stdlib\lv_string.h **** #ifdef __cplusplus
  10:H:/STM32H7/RGB_LVGL/Middlewares/LVGL/GUI/lvgl/src/stdlib\lv_string.h **** extern "C" {
  11:H:/STM32H7/RGB_LVGL/Middlewares/LVGL/GUI/lvgl/src/stdlib\lv_string.h **** #endif
  12:H:/STM32H7/RGB_LVGL/Middlewares/LVGL/GUI/lvgl/src/stdlib\lv_string.h **** 
  13:H:/STM32H7/RGB_LVGL/Middlewares/LVGL/GUI/lvgl/src/stdlib\lv_string.h **** /*********************
  14:H:/STM32H7/RGB_LVGL/Middlewares/LVGL/GUI/lvgl/src/stdlib\lv_string.h ****  *      INCLUDES
  15:H:/STM32H7/RGB_LVGL/Middlewares/LVGL/GUI/lvgl/src/stdlib\lv_string.h ****  *********************/
  16:H:/STM32H7/RGB_LVGL/Middlewares/LVGL/GUI/lvgl/src/stdlib\lv_string.h **** #include "../lv_conf_internal.h"
  17:H:/STM32H7/RGB_LVGL/Middlewares/LVGL/GUI/lvgl/src/stdlib\lv_string.h **** #include "../misc/lv_types.h"
  18:H:/STM32H7/RGB_LVGL/Middlewares/LVGL/GUI/lvgl/src/stdlib\lv_string.h **** 
  19:H:/STM32H7/RGB_LVGL/Middlewares/LVGL/GUI/lvgl/src/stdlib\lv_string.h **** /*********************
  20:H:/STM32H7/RGB_LVGL/Middlewares/LVGL/GUI/lvgl/src/stdlib\lv_string.h ****  *      DEFINES
  21:H:/STM32H7/RGB_LVGL/Middlewares/LVGL/GUI/lvgl/src/stdlib\lv_string.h ****  *********************/
  22:H:/STM32H7/RGB_LVGL/Middlewares/LVGL/GUI/lvgl/src/stdlib\lv_string.h **** 
  23:H:/STM32H7/RGB_LVGL/Middlewares/LVGL/GUI/lvgl/src/stdlib\lv_string.h **** /**********************
  24:H:/STM32H7/RGB_LVGL/Middlewares/LVGL/GUI/lvgl/src/stdlib\lv_string.h ****  *      TYPEDEFS
  25:H:/STM32H7/RGB_LVGL/Middlewares/LVGL/GUI/lvgl/src/stdlib\lv_string.h ****  **********************/
  26:H:/STM32H7/RGB_LVGL/Middlewares/LVGL/GUI/lvgl/src/stdlib\lv_string.h **** 
  27:H:/STM32H7/RGB_LVGL/Middlewares/LVGL/GUI/lvgl/src/stdlib\lv_string.h **** /**********************
  28:H:/STM32H7/RGB_LVGL/Middlewares/LVGL/GUI/lvgl/src/stdlib\lv_string.h ****  * GLOBAL PROTOTYPES
  29:H:/STM32H7/RGB_LVGL/Middlewares/LVGL/GUI/lvgl/src/stdlib\lv_string.h ****  **********************/
  30:H:/STM32H7/RGB_LVGL/Middlewares/LVGL/GUI/lvgl/src/stdlib\lv_string.h **** 
ARM GAS  C:\Users\28576\AppData\Local\Temp\ccjZhfoH.s 			page 3


  31:H:/STM32H7/RGB_LVGL/Middlewares/LVGL/GUI/lvgl/src/stdlib\lv_string.h **** /**
  32:H:/STM32H7/RGB_LVGL/Middlewares/LVGL/GUI/lvgl/src/stdlib\lv_string.h ****  * @brief Copies a block of memory from a source address to a destination address.
  33:H:/STM32H7/RGB_LVGL/Middlewares/LVGL/GUI/lvgl/src/stdlib\lv_string.h ****  * @param dst Pointer to the destination array where the content is to be copied.
  34:H:/STM32H7/RGB_LVGL/Middlewares/LVGL/GUI/lvgl/src/stdlib\lv_string.h ****  * @param src Pointer to the source of data to be copied.
  35:H:/STM32H7/RGB_LVGL/Middlewares/LVGL/GUI/lvgl/src/stdlib\lv_string.h ****  * @param len Number of bytes to copy.
  36:H:/STM32H7/RGB_LVGL/Middlewares/LVGL/GUI/lvgl/src/stdlib\lv_string.h ****  * @return Pointer to the destination array.
  37:H:/STM32H7/RGB_LVGL/Middlewares/LVGL/GUI/lvgl/src/stdlib\lv_string.h ****  * @note The function does not check for any overlapping of the source and destination memory block
  38:H:/STM32H7/RGB_LVGL/Middlewares/LVGL/GUI/lvgl/src/stdlib\lv_string.h ****  */
  39:H:/STM32H7/RGB_LVGL/Middlewares/LVGL/GUI/lvgl/src/stdlib\lv_string.h **** void * lv_memcpy(void * dst, const void * src, size_t len);
  40:H:/STM32H7/RGB_LVGL/Middlewares/LVGL/GUI/lvgl/src/stdlib\lv_string.h **** 
  41:H:/STM32H7/RGB_LVGL/Middlewares/LVGL/GUI/lvgl/src/stdlib\lv_string.h **** /**
  42:H:/STM32H7/RGB_LVGL/Middlewares/LVGL/GUI/lvgl/src/stdlib\lv_string.h ****  * @brief Fills a block of memory with a specified value.
  43:H:/STM32H7/RGB_LVGL/Middlewares/LVGL/GUI/lvgl/src/stdlib\lv_string.h ****  * @param dst Pointer to the destination array to fill with the specified value.
  44:H:/STM32H7/RGB_LVGL/Middlewares/LVGL/GUI/lvgl/src/stdlib\lv_string.h ****  * @param v Value to be set. The value is passed as an int, but the function fills
  45:H:/STM32H7/RGB_LVGL/Middlewares/LVGL/GUI/lvgl/src/stdlib\lv_string.h ****  *          the block of memory using the unsigned char conversion of this value.
  46:H:/STM32H7/RGB_LVGL/Middlewares/LVGL/GUI/lvgl/src/stdlib\lv_string.h ****  * @param len Number of bytes to be set to the value.
  47:H:/STM32H7/RGB_LVGL/Middlewares/LVGL/GUI/lvgl/src/stdlib\lv_string.h ****  */
  48:H:/STM32H7/RGB_LVGL/Middlewares/LVGL/GUI/lvgl/src/stdlib\lv_string.h **** void lv_memset(void * dst, uint8_t v, size_t len);
  49:H:/STM32H7/RGB_LVGL/Middlewares/LVGL/GUI/lvgl/src/stdlib\lv_string.h **** 
  50:H:/STM32H7/RGB_LVGL/Middlewares/LVGL/GUI/lvgl/src/stdlib\lv_string.h **** /**
  51:H:/STM32H7/RGB_LVGL/Middlewares/LVGL/GUI/lvgl/src/stdlib\lv_string.h ****  * @brief Move a block of memory from source to destination
  52:H:/STM32H7/RGB_LVGL/Middlewares/LVGL/GUI/lvgl/src/stdlib\lv_string.h ****  * @param dst Pointer to the destination array where the content is to be copied.
  53:H:/STM32H7/RGB_LVGL/Middlewares/LVGL/GUI/lvgl/src/stdlib\lv_string.h ****  * @param src Pointer to the source of data to be copied.
  54:H:/STM32H7/RGB_LVGL/Middlewares/LVGL/GUI/lvgl/src/stdlib\lv_string.h ****  * @param len Number of bytes to copy
  55:H:/STM32H7/RGB_LVGL/Middlewares/LVGL/GUI/lvgl/src/stdlib\lv_string.h ****  * @return Pointer to the destination array.
  56:H:/STM32H7/RGB_LVGL/Middlewares/LVGL/GUI/lvgl/src/stdlib\lv_string.h ****  */
  57:H:/STM32H7/RGB_LVGL/Middlewares/LVGL/GUI/lvgl/src/stdlib\lv_string.h **** void * lv_memmove(void * dst, const void * src, size_t len);
  58:H:/STM32H7/RGB_LVGL/Middlewares/LVGL/GUI/lvgl/src/stdlib\lv_string.h **** 
  59:H:/STM32H7/RGB_LVGL/Middlewares/LVGL/GUI/lvgl/src/stdlib\lv_string.h **** /**
  60:H:/STM32H7/RGB_LVGL/Middlewares/LVGL/GUI/lvgl/src/stdlib\lv_string.h ****  * @brief This function will compare two memory blocks
  61:H:/STM32H7/RGB_LVGL/Middlewares/LVGL/GUI/lvgl/src/stdlib\lv_string.h ****  * @param p1 Pointer to the first memory block
  62:H:/STM32H7/RGB_LVGL/Middlewares/LVGL/GUI/lvgl/src/stdlib\lv_string.h ****  * @param p2 Pointer to the second memory block
  63:H:/STM32H7/RGB_LVGL/Middlewares/LVGL/GUI/lvgl/src/stdlib\lv_string.h ****  * @param len Number of bytes to compare
  64:H:/STM32H7/RGB_LVGL/Middlewares/LVGL/GUI/lvgl/src/stdlib\lv_string.h ****  * @return The difference between the value of the first unmatching byte.
  65:H:/STM32H7/RGB_LVGL/Middlewares/LVGL/GUI/lvgl/src/stdlib\lv_string.h ****  */
  66:H:/STM32H7/RGB_LVGL/Middlewares/LVGL/GUI/lvgl/src/stdlib\lv_string.h **** int lv_memcmp(const void * p1, const void * p2, size_t len);
  67:H:/STM32H7/RGB_LVGL/Middlewares/LVGL/GUI/lvgl/src/stdlib\lv_string.h **** 
  68:H:/STM32H7/RGB_LVGL/Middlewares/LVGL/GUI/lvgl/src/stdlib\lv_string.h **** /**
  69:H:/STM32H7/RGB_LVGL/Middlewares/LVGL/GUI/lvgl/src/stdlib\lv_string.h ****  * Same as `memset(dst, 0x00, len)`.
  70:H:/STM32H7/RGB_LVGL/Middlewares/LVGL/GUI/lvgl/src/stdlib\lv_string.h ****  * @param dst pointer to the destination buffer
  71:H:/STM32H7/RGB_LVGL/Middlewares/LVGL/GUI/lvgl/src/stdlib\lv_string.h ****  * @param len number of byte to set
  72:H:/STM32H7/RGB_LVGL/Middlewares/LVGL/GUI/lvgl/src/stdlib\lv_string.h ****  */
  73:H:/STM32H7/RGB_LVGL/Middlewares/LVGL/GUI/lvgl/src/stdlib\lv_string.h **** static inline void lv_memzero(void * dst, size_t len)
  44              		.loc 2 73 20 view .LVU3
  45              	.LBB5:
  74:H:/STM32H7/RGB_LVGL/Middlewares/LVGL/GUI/lvgl/src/stdlib\lv_string.h **** {
  75:H:/STM32H7/RGB_LVGL/Middlewares/LVGL/GUI/lvgl/src/stdlib\lv_string.h ****     lv_memset(dst, 0x00, len);
  46              		.loc 2 75 5 view .LVU4
  47 0002 3422     		movs	r2, #52
  48 0004 0021     		movs	r1, #0
  49 0006 FFF7FEFF 		bl	lv_memset
  50              	.LVL2:
  51              		.loc 2 75 5 is_stmt 0 view .LVU5
  52              	.LBE5:
  53              	.LBE4:
  43:../../Middlewares/LVGL/GUI/lvgl/src/draw/lv_draw_mask.c **** }
  54              		.loc 1 43 1 view .LVU6
ARM GAS  C:\Users\28576\AppData\Local\Temp\ccjZhfoH.s 			page 4


  55 000a 08BD     		pop	{r3, pc}
  56              		.cfi_endproc
  57              	.LFE187:
  59              		.section	.text.lv_draw_task_get_mask_rect_dsc,"ax",%progbits
  60              		.align	1
  61              		.global	lv_draw_task_get_mask_rect_dsc
  62              		.syntax unified
  63              		.thumb
  64              		.thumb_func
  66              	lv_draw_task_get_mask_rect_dsc:
  67              	.LVL3:
  68              	.LFB188:
  44:../../Middlewares/LVGL/GUI/lvgl/src/draw/lv_draw_mask.c **** 
  45:../../Middlewares/LVGL/GUI/lvgl/src/draw/lv_draw_mask.c **** lv_draw_mask_rect_dsc_t * lv_draw_task_get_mask_rect_dsc(lv_draw_task_t * task)
  46:../../Middlewares/LVGL/GUI/lvgl/src/draw/lv_draw_mask.c **** {
  69              		.loc 1 46 1 is_stmt 1 view -0
  70              		.cfi_startproc
  71              		@ args = 0, pretend = 0, frame = 0
  72              		@ frame_needed = 0, uses_anonymous_args = 0
  73              		@ link register save eliminated.
  47:../../Middlewares/LVGL/GUI/lvgl/src/draw/lv_draw_mask.c ****     return task->type == LV_DRAW_TASK_TYPE_MASK_RECTANGLE ? (lv_draw_mask_rect_dsc_t *)task->draw_d
  74              		.loc 1 47 5 view .LVU8
  75              		.loc 1 47 16 is_stmt 0 view .LVU9
  76 0000 0379     		ldrb	r3, [r0, #4]	@ zero_extendqisi2
  77              		.loc 1 47 103 view .LVU10
  78 0002 0B2B     		cmp	r3, #11
  79 0004 01D1     		bne	.L5
  80              		.loc 1 47 103 discriminator 1 view .LVU11
  81 0006 406D     		ldr	r0, [r0, #84]
  82              	.LVL4:
  83              		.loc 1 47 103 discriminator 1 view .LVU12
  84 0008 7047     		bx	lr
  85              	.LVL5:
  86              	.L5:
  87              		.loc 1 47 103 discriminator 2 view .LVU13
  88 000a 0020     		movs	r0, #0
  89              	.LVL6:
  48:../../Middlewares/LVGL/GUI/lvgl/src/draw/lv_draw_mask.c **** }
  90              		.loc 1 48 1 view .LVU14
  91 000c 7047     		bx	lr
  92              		.cfi_endproc
  93              	.LFE188:
  95              		.section	.text.lv_draw_mask_rect,"ax",%progbits
  96              		.align	1
  97              		.global	lv_draw_mask_rect
  98              		.syntax unified
  99              		.thumb
 100              		.thumb_func
 102              	lv_draw_mask_rect:
 103              	.LVL7:
 104              	.LFB189:
  49:../../Middlewares/LVGL/GUI/lvgl/src/draw/lv_draw_mask.c **** 
  50:../../Middlewares/LVGL/GUI/lvgl/src/draw/lv_draw_mask.c **** void LV_ATTRIBUTE_FAST_MEM lv_draw_mask_rect(lv_layer_t * layer, const lv_draw_mask_rect_dsc_t * ds
  51:../../Middlewares/LVGL/GUI/lvgl/src/draw/lv_draw_mask.c **** {
 105              		.loc 1 51 1 is_stmt 1 view -0
 106              		.cfi_startproc
 107              		@ args = 0, pretend = 0, frame = 0
ARM GAS  C:\Users\28576\AppData\Local\Temp\ccjZhfoH.s 			page 5


 108              		@ frame_needed = 0, uses_anonymous_args = 0
 109              		.loc 1 51 1 is_stmt 0 view .LVU16
 110 0000 F8B5     		push	{r3, r4, r5, r6, r7, lr}
 111              	.LCFI1:
 112              		.cfi_def_cfa_offset 24
 113              		.cfi_offset 3, -24
 114              		.cfi_offset 4, -20
 115              		.cfi_offset 5, -16
 116              		.cfi_offset 6, -12
 117              		.cfi_offset 7, -8
 118              		.cfi_offset 14, -4
 119 0002 0446     		mov	r4, r0
 120 0004 0D46     		mov	r5, r1
 121 0006 0E46     		mov	r6, r1
  52:../../Middlewares/LVGL/GUI/lvgl/src/draw/lv_draw_mask.c ****     if(!lv_color_format_has_alpha(layer->color_format)) {
 122              		.loc 1 52 5 is_stmt 1 view .LVU17
 123              		.loc 1 52 9 is_stmt 0 view .LVU18
 124 0008 007D     		ldrb	r0, [r0, #20]	@ zero_extendqisi2
 125              	.LVL8:
 126              		.loc 1 52 9 view .LVU19
 127 000a FFF7FEFF 		bl	lv_color_format_has_alpha
 128              	.LVL9:
 129              		.loc 1 52 7 discriminator 1 view .LVU20
 130 000e 00B9     		cbnz	r0, .L10
 131              	.LVL10:
 132              	.L6:
  53:../../Middlewares/LVGL/GUI/lvgl/src/draw/lv_draw_mask.c ****         LV_LOG_WARN("Only layers with alpha channel can be masked");
  54:../../Middlewares/LVGL/GUI/lvgl/src/draw/lv_draw_mask.c ****         return;
  55:../../Middlewares/LVGL/GUI/lvgl/src/draw/lv_draw_mask.c ****     }
  56:../../Middlewares/LVGL/GUI/lvgl/src/draw/lv_draw_mask.c ****     LV_PROFILER_DRAW_BEGIN;
  57:../../Middlewares/LVGL/GUI/lvgl/src/draw/lv_draw_mask.c **** 
  58:../../Middlewares/LVGL/GUI/lvgl/src/draw/lv_draw_mask.c ****     lv_draw_task_t * t = lv_draw_add_task(layer, &layer->buf_area, LV_DRAW_TASK_TYPE_MASK_RECTANGLE
  59:../../Middlewares/LVGL/GUI/lvgl/src/draw/lv_draw_mask.c **** 
  60:../../Middlewares/LVGL/GUI/lvgl/src/draw/lv_draw_mask.c ****     lv_memcpy(t->draw_dsc, dsc, sizeof(*dsc));
  61:../../Middlewares/LVGL/GUI/lvgl/src/draw/lv_draw_mask.c **** 
  62:../../Middlewares/LVGL/GUI/lvgl/src/draw/lv_draw_mask.c ****     lv_draw_dsc_base_t * base_dsc = t->draw_dsc;
  63:../../Middlewares/LVGL/GUI/lvgl/src/draw/lv_draw_mask.c ****     base_dsc->layer = layer;
  64:../../Middlewares/LVGL/GUI/lvgl/src/draw/lv_draw_mask.c **** 
  65:../../Middlewares/LVGL/GUI/lvgl/src/draw/lv_draw_mask.c ****     if(base_dsc->obj && lv_obj_has_flag(base_dsc->obj, LV_OBJ_FLAG_SEND_DRAW_TASK_EVENTS)) {
  66:../../Middlewares/LVGL/GUI/lvgl/src/draw/lv_draw_mask.c ****         /*Disable sending LV_EVENT_DRAW_TASK_ADDED first to avoid triggering recursive
  67:../../Middlewares/LVGL/GUI/lvgl/src/draw/lv_draw_mask.c ****          *event calls due draw task adds in the event*/
  68:../../Middlewares/LVGL/GUI/lvgl/src/draw/lv_draw_mask.c ****         lv_obj_remove_flag(base_dsc->obj, LV_OBJ_FLAG_SEND_DRAW_TASK_EVENTS);
  69:../../Middlewares/LVGL/GUI/lvgl/src/draw/lv_draw_mask.c ****         lv_obj_send_event(dsc->base.obj, LV_EVENT_DRAW_TASK_ADDED, t);
  70:../../Middlewares/LVGL/GUI/lvgl/src/draw/lv_draw_mask.c ****         lv_obj_add_flag(base_dsc->obj, LV_OBJ_FLAG_SEND_DRAW_TASK_EVENTS);
  71:../../Middlewares/LVGL/GUI/lvgl/src/draw/lv_draw_mask.c ****     }
  72:../../Middlewares/LVGL/GUI/lvgl/src/draw/lv_draw_mask.c **** 
  73:../../Middlewares/LVGL/GUI/lvgl/src/draw/lv_draw_mask.c ****     lv_draw_finalize_task_creation(layer, t);
  74:../../Middlewares/LVGL/GUI/lvgl/src/draw/lv_draw_mask.c ****     LV_PROFILER_DRAW_END;
  75:../../Middlewares/LVGL/GUI/lvgl/src/draw/lv_draw_mask.c **** }
 133              		.loc 1 75 1 view .LVU21
 134 0010 F8BD     		pop	{r3, r4, r5, r6, r7, pc}
 135              	.LVL11:
 136              	.L10:
  56:../../Middlewares/LVGL/GUI/lvgl/src/draw/lv_draw_mask.c **** 
 137              		.loc 1 56 27 is_stmt 1 view .LVU22
  58:../../Middlewares/LVGL/GUI/lvgl/src/draw/lv_draw_mask.c **** 
 138              		.loc 1 58 5 view .LVU23
ARM GAS  C:\Users\28576\AppData\Local\Temp\ccjZhfoH.s 			page 6


  58:../../Middlewares/LVGL/GUI/lvgl/src/draw/lv_draw_mask.c **** 
 139              		.loc 1 58 26 is_stmt 0 view .LVU24
 140 0012 0B22     		movs	r2, #11
 141 0014 211D     		adds	r1, r4, #4
 142 0016 2046     		mov	r0, r4
 143 0018 FFF7FEFF 		bl	lv_draw_add_task
 144              	.LVL12:
 145 001c 0746     		mov	r7, r0
 146              	.LVL13:
  60:../../Middlewares/LVGL/GUI/lvgl/src/draw/lv_draw_mask.c **** 
 147              		.loc 1 60 5 is_stmt 1 view .LVU25
 148 001e 3422     		movs	r2, #52
 149 0020 2946     		mov	r1, r5
 150 0022 406D     		ldr	r0, [r0, #84]
 151              	.LVL14:
  60:../../Middlewares/LVGL/GUI/lvgl/src/draw/lv_draw_mask.c **** 
 152              		.loc 1 60 5 is_stmt 0 view .LVU26
 153 0024 FFF7FEFF 		bl	lv_memcpy
 154              	.LVL15:
  62:../../Middlewares/LVGL/GUI/lvgl/src/draw/lv_draw_mask.c ****     base_dsc->layer = layer;
 155              		.loc 1 62 5 is_stmt 1 view .LVU27
  62:../../Middlewares/LVGL/GUI/lvgl/src/draw/lv_draw_mask.c ****     base_dsc->layer = layer;
 156              		.loc 1 62 26 is_stmt 0 view .LVU28
 157 0028 7B6D     		ldr	r3, [r7, #84]
 158 002a 1D46     		mov	r5, r3
 159              	.LVL16:
  63:../../Middlewares/LVGL/GUI/lvgl/src/draw/lv_draw_mask.c **** 
 160              		.loc 1 63 5 is_stmt 1 view .LVU29
  63:../../Middlewares/LVGL/GUI/lvgl/src/draw/lv_draw_mask.c **** 
 161              		.loc 1 63 21 is_stmt 0 view .LVU30
 162 002c 1C61     		str	r4, [r3, #16]
  65:../../Middlewares/LVGL/GUI/lvgl/src/draw/lv_draw_mask.c ****         /*Disable sending LV_EVENT_DRAW_TASK_ADDED first to avoid triggering recursive
 163              		.loc 1 65 5 is_stmt 1 view .LVU31
  65:../../Middlewares/LVGL/GUI/lvgl/src/draw/lv_draw_mask.c ****         /*Disable sending LV_EVENT_DRAW_TASK_ADDED first to avoid triggering recursive
 164              		.loc 1 65 16 is_stmt 0 view .LVU32
 165 002e 1868     		ldr	r0, [r3]
  65:../../Middlewares/LVGL/GUI/lvgl/src/draw/lv_draw_mask.c ****         /*Disable sending LV_EVENT_DRAW_TASK_ADDED first to avoid triggering recursive
 166              		.loc 1 65 7 view .LVU33
 167 0030 20B1     		cbz	r0, .L8
  65:../../Middlewares/LVGL/GUI/lvgl/src/draw/lv_draw_mask.c ****         /*Disable sending LV_EVENT_DRAW_TASK_ADDED first to avoid triggering recursive
 168              		.loc 1 65 25 discriminator 1 view .LVU34
 169 0032 4FF40021 		mov	r1, #524288
 170 0036 FFF7FEFF 		bl	lv_obj_has_flag
 171              	.LVL17:
  65:../../Middlewares/LVGL/GUI/lvgl/src/draw/lv_draw_mask.c ****         /*Disable sending LV_EVENT_DRAW_TASK_ADDED first to avoid triggering recursive
 172              		.loc 1 65 22 discriminator 2 view .LVU35
 173 003a 20B9     		cbnz	r0, .L11
 174              	.L8:
  73:../../Middlewares/LVGL/GUI/lvgl/src/draw/lv_draw_mask.c ****     LV_PROFILER_DRAW_END;
 175              		.loc 1 73 5 is_stmt 1 view .LVU36
 176 003c 3946     		mov	r1, r7
 177 003e 2046     		mov	r0, r4
 178 0040 FFF7FEFF 		bl	lv_draw_finalize_task_creation
 179              	.LVL18:
  74:../../Middlewares/LVGL/GUI/lvgl/src/draw/lv_draw_mask.c **** }
 180              		.loc 1 74 25 view .LVU37
 181 0044 E4E7     		b	.L6
ARM GAS  C:\Users\28576\AppData\Local\Temp\ccjZhfoH.s 			page 7


 182              	.L11:
  68:../../Middlewares/LVGL/GUI/lvgl/src/draw/lv_draw_mask.c ****         lv_obj_send_event(dsc->base.obj, LV_EVENT_DRAW_TASK_ADDED, t);
 183              		.loc 1 68 9 view .LVU38
 184 0046 4FF40021 		mov	r1, #524288
 185 004a 2868     		ldr	r0, [r5]
 186 004c FFF7FEFF 		bl	lv_obj_remove_flag
 187              	.LVL19:
  69:../../Middlewares/LVGL/GUI/lvgl/src/draw/lv_draw_mask.c ****         lv_obj_add_flag(base_dsc->obj, LV_OBJ_FLAG_SEND_DRAW_TASK_EVENTS);
 188              		.loc 1 69 9 view .LVU39
 189 0050 3A46     		mov	r2, r7
 190 0052 2221     		movs	r1, #34
 191 0054 3068     		ldr	r0, [r6]
 192 0056 FFF7FEFF 		bl	lv_obj_send_event
 193              	.LVL20:
  70:../../Middlewares/LVGL/GUI/lvgl/src/draw/lv_draw_mask.c ****     }
 194              		.loc 1 70 9 view .LVU40
 195 005a 4FF40021 		mov	r1, #524288
 196 005e 2868     		ldr	r0, [r5]
 197 0060 FFF7FEFF 		bl	lv_obj_add_flag
 198              	.LVL21:
 199 0064 EAE7     		b	.L8
 200              		.cfi_endproc
 201              	.LFE189:
 203              		.text
 204              	.Letext0:
 205              		.file 3 "C:/Users/28576/AppData/Roaming/xPacks/@xpack-dev-tools/arm-none-eabi-gcc/15.2.1-1.1.1/.co
 206              		.file 4 "C:/Users/28576/AppData/Roaming/xPacks/@xpack-dev-tools/arm-none-eabi-gcc/15.2.1-1.1.1/.co
 207              		.file 5 "C:/Users/28576/AppData/Roaming/xPacks/@xpack-dev-tools/arm-none-eabi-gcc/15.2.1-1.1.1/.co
 208              		.file 6 "../../Middlewares/LVGL/GUI/lvgl/src/draw/../misc/lv_types.h"
 209              		.file 7 "../../Middlewares/LVGL/GUI/lvgl/src/draw/lv_draw.h"
 210              		.file 8 "../../Middlewares/LVGL/GUI/lvgl/src/draw/lv_draw_private.h"
 211              		.file 9 "../../Middlewares/LVGL/GUI/lvgl/src/draw/lv_draw_mask_private.h"
 212              		.file 10 "H:/STM32H7/RGB_LVGL/Middlewares/LVGL/GUI/lvgl/src/draw/lv_draw_buf.h"
 213              		.file 11 "../../Middlewares/LVGL/GUI/lvgl/src/draw/../misc/lv_color.h"
 214              		.file 12 "../../Middlewares/LVGL/GUI/lvgl/src/draw/../misc/lv_area.h"
 215              		.file 13 "H:/STM32H7/RGB_LVGL/Middlewares/LVGL/GUI/lvgl/src/draw/lv_image_dsc.h"
 216              		.file 14 "H:/STM32H7/RGB_LVGL/Middlewares/LVGL/GUI/lvgl/src/misc/lv_event.h"
 217              		.file 15 "../../Middlewares/LVGL/GUI/lvgl/src/draw/../core/lv_obj.h"
 218              		.file 16 "../../Middlewares/LVGL/GUI/lvgl/src/draw/../core/lv_obj_event.h"
ARM GAS  C:\Users\28576\AppData\Local\Temp\ccjZhfoH.s 			page 8

