ARM GAS  C:\Users\28576\AppData\Local\Temp\ccwuB5AB.s 			page 1


   1              		.cpu cortex-m7
   2              		.arch armv7e-m
   3              		.fpu fpv5-d16
   4              		.eabi_attribute 28, 1
   5              		.eabi_attribute 20, 1
   6              		.eabi_attribute 21, 1
   7              		.eabi_attribute 23, 3
   8              		.eabi_attribute 24, 1
   9              		.eabi_attribute 25, 1
  10              		.eabi_attribute 26, 1
  11              		.eabi_attribute 30, 1
  12              		.eabi_attribute 34, 1
  13              		.eabi_attribute 18, 4
  14              		.file	"lv_event.c"
  15              		.text
  16              	.Ltext0:
  17              		.cfi_sections	.debug_frame
  18              		.file 1 "../../Middlewares/LVGL/GUI/lvgl/src/misc/lv_event.c"
  19              		.section	.text.event_mark_deleting,"ax",%progbits
  20              		.align	1
  21              		.syntax unified
  22              		.thumb
  23              		.thumb_func
  25              	event_mark_deleting:
  26              	.LVL0:
  27              	.LFB210:
   1:../../Middlewares/LVGL/GUI/lvgl/src/misc/lv_event.c **** /**
   2:../../Middlewares/LVGL/GUI/lvgl/src/misc/lv_event.c ****  * @file lv_event.c
   3:../../Middlewares/LVGL/GUI/lvgl/src/misc/lv_event.c ****  *
   4:../../Middlewares/LVGL/GUI/lvgl/src/misc/lv_event.c ****  */
   5:../../Middlewares/LVGL/GUI/lvgl/src/misc/lv_event.c **** 
   6:../../Middlewares/LVGL/GUI/lvgl/src/misc/lv_event.c **** /*********************
   7:../../Middlewares/LVGL/GUI/lvgl/src/misc/lv_event.c ****  *      INCLUDES
   8:../../Middlewares/LVGL/GUI/lvgl/src/misc/lv_event.c ****  *********************/
   9:../../Middlewares/LVGL/GUI/lvgl/src/misc/lv_event.c **** #include "lv_event_private.h"
  10:../../Middlewares/LVGL/GUI/lvgl/src/misc/lv_event.c **** #include "../core/lv_global.h"
  11:../../Middlewares/LVGL/GUI/lvgl/src/misc/lv_event.c **** #include "../stdlib/lv_mem.h"
  12:../../Middlewares/LVGL/GUI/lvgl/src/misc/lv_event.c **** #include "lv_assert.h"
  13:../../Middlewares/LVGL/GUI/lvgl/src/misc/lv_event.c **** #include "lv_types.h"
  14:../../Middlewares/LVGL/GUI/lvgl/src/misc/lv_event.c **** 
  15:../../Middlewares/LVGL/GUI/lvgl/src/misc/lv_event.c **** /*********************
  16:../../Middlewares/LVGL/GUI/lvgl/src/misc/lv_event.c ****  *      DEFINES
  17:../../Middlewares/LVGL/GUI/lvgl/src/misc/lv_event.c ****  *********************/
  18:../../Middlewares/LVGL/GUI/lvgl/src/misc/lv_event.c **** 
  19:../../Middlewares/LVGL/GUI/lvgl/src/misc/lv_event.c **** #define event_head LV_GLOBAL_DEFAULT()->event_header
  20:../../Middlewares/LVGL/GUI/lvgl/src/misc/lv_event.c **** #define event_last_id LV_GLOBAL_DEFAULT()->event_last_register_id
  21:../../Middlewares/LVGL/GUI/lvgl/src/misc/lv_event.c **** 
  22:../../Middlewares/LVGL/GUI/lvgl/src/misc/lv_event.c **** /**********************
  23:../../Middlewares/LVGL/GUI/lvgl/src/misc/lv_event.c ****  *      TYPEDEFS
  24:../../Middlewares/LVGL/GUI/lvgl/src/misc/lv_event.c ****  **********************/
  25:../../Middlewares/LVGL/GUI/lvgl/src/misc/lv_event.c **** 
  26:../../Middlewares/LVGL/GUI/lvgl/src/misc/lv_event.c **** /**********************
  27:../../Middlewares/LVGL/GUI/lvgl/src/misc/lv_event.c ****  *  STATIC PROTOTYPES
  28:../../Middlewares/LVGL/GUI/lvgl/src/misc/lv_event.c ****  **********************/
  29:../../Middlewares/LVGL/GUI/lvgl/src/misc/lv_event.c **** 
  30:../../Middlewares/LVGL/GUI/lvgl/src/misc/lv_event.c **** /* Traverse the list to delete the objects marked for deletion */
  31:../../Middlewares/LVGL/GUI/lvgl/src/misc/lv_event.c **** static void cleanup_event_list(lv_event_list_t * list);
ARM GAS  C:\Users\28576\AppData\Local\Temp\ccwuB5AB.s 			page 2


  32:../../Middlewares/LVGL/GUI/lvgl/src/misc/lv_event.c **** static void cleanup_event_list_core(lv_array_t * array);
  33:../../Middlewares/LVGL/GUI/lvgl/src/misc/lv_event.c **** 
  34:../../Middlewares/LVGL/GUI/lvgl/src/misc/lv_event.c **** static void event_mark_deleting(lv_event_list_t * list, lv_event_dsc_t * dsc);
  35:../../Middlewares/LVGL/GUI/lvgl/src/misc/lv_event.c **** static bool event_is_marked_deleting(lv_event_dsc_t * dsc);
  36:../../Middlewares/LVGL/GUI/lvgl/src/misc/lv_event.c **** static uint32_t event_array_size(lv_event_list_t * list);
  37:../../Middlewares/LVGL/GUI/lvgl/src/misc/lv_event.c **** static lv_event_dsc_t ** event_array_at(lv_event_list_t * list, uint32_t index);
  38:../../Middlewares/LVGL/GUI/lvgl/src/misc/lv_event.c **** 
  39:../../Middlewares/LVGL/GUI/lvgl/src/misc/lv_event.c **** /**********************
  40:../../Middlewares/LVGL/GUI/lvgl/src/misc/lv_event.c ****  *  STATIC VARIABLES
  41:../../Middlewares/LVGL/GUI/lvgl/src/misc/lv_event.c ****  **********************/
  42:../../Middlewares/LVGL/GUI/lvgl/src/misc/lv_event.c **** 
  43:../../Middlewares/LVGL/GUI/lvgl/src/misc/lv_event.c **** /**********************
  44:../../Middlewares/LVGL/GUI/lvgl/src/misc/lv_event.c ****  *      MACROS
  45:../../Middlewares/LVGL/GUI/lvgl/src/misc/lv_event.c ****  **********************/
  46:../../Middlewares/LVGL/GUI/lvgl/src/misc/lv_event.c **** 
  47:../../Middlewares/LVGL/GUI/lvgl/src/misc/lv_event.c **** #if LV_USE_LOG && LV_LOG_TRACE_EVENT
  48:../../Middlewares/LVGL/GUI/lvgl/src/misc/lv_event.c ****     #define LV_TRACE_EVENT(...) LV_LOG_TRACE(__VA_ARGS__)
  49:../../Middlewares/LVGL/GUI/lvgl/src/misc/lv_event.c **** #else
  50:../../Middlewares/LVGL/GUI/lvgl/src/misc/lv_event.c ****     #define LV_TRACE_EVENT(...)
  51:../../Middlewares/LVGL/GUI/lvgl/src/misc/lv_event.c **** #endif
  52:../../Middlewares/LVGL/GUI/lvgl/src/misc/lv_event.c **** 
  53:../../Middlewares/LVGL/GUI/lvgl/src/misc/lv_event.c **** /**********************
  54:../../Middlewares/LVGL/GUI/lvgl/src/misc/lv_event.c ****  *   GLOBAL FUNCTIONS
  55:../../Middlewares/LVGL/GUI/lvgl/src/misc/lv_event.c ****  **********************/
  56:../../Middlewares/LVGL/GUI/lvgl/src/misc/lv_event.c **** 
  57:../../Middlewares/LVGL/GUI/lvgl/src/misc/lv_event.c **** void lv_event_push(lv_event_t * e)
  58:../../Middlewares/LVGL/GUI/lvgl/src/misc/lv_event.c **** {
  59:../../Middlewares/LVGL/GUI/lvgl/src/misc/lv_event.c ****     /*Build a simple linked list from the objects used in the events
  60:../../Middlewares/LVGL/GUI/lvgl/src/misc/lv_event.c ****      *It's important to know if this object was deleted by a nested event
  61:../../Middlewares/LVGL/GUI/lvgl/src/misc/lv_event.c ****      *called from this `event_cb`.*/
  62:../../Middlewares/LVGL/GUI/lvgl/src/misc/lv_event.c ****     e->prev = event_head;
  63:../../Middlewares/LVGL/GUI/lvgl/src/misc/lv_event.c ****     event_head = e;
  64:../../Middlewares/LVGL/GUI/lvgl/src/misc/lv_event.c **** 
  65:../../Middlewares/LVGL/GUI/lvgl/src/misc/lv_event.c **** }
  66:../../Middlewares/LVGL/GUI/lvgl/src/misc/lv_event.c **** 
  67:../../Middlewares/LVGL/GUI/lvgl/src/misc/lv_event.c **** void lv_event_pop(lv_event_t * e)
  68:../../Middlewares/LVGL/GUI/lvgl/src/misc/lv_event.c **** {
  69:../../Middlewares/LVGL/GUI/lvgl/src/misc/lv_event.c ****     event_head = e->prev;
  70:../../Middlewares/LVGL/GUI/lvgl/src/misc/lv_event.c **** }
  71:../../Middlewares/LVGL/GUI/lvgl/src/misc/lv_event.c **** 
  72:../../Middlewares/LVGL/GUI/lvgl/src/misc/lv_event.c **** lv_result_t lv_event_send(lv_event_list_t * list, lv_event_t * e, bool preprocess)
  73:../../Middlewares/LVGL/GUI/lvgl/src/misc/lv_event.c **** {
  74:../../Middlewares/LVGL/GUI/lvgl/src/misc/lv_event.c ****     if(list == NULL) return LV_RESULT_OK;
  75:../../Middlewares/LVGL/GUI/lvgl/src/misc/lv_event.c ****     if(e->deleted) return LV_RESULT_INVALID;
  76:../../Middlewares/LVGL/GUI/lvgl/src/misc/lv_event.c **** 
  77:../../Middlewares/LVGL/GUI/lvgl/src/misc/lv_event.c ****     /* When obj is deleted in its own event, it will cause the `list->array` header to be released,
  78:../../Middlewares/LVGL/GUI/lvgl/src/misc/lv_event.c ****      * but the content still exists, which leads to memory leakage.
  79:../../Middlewares/LVGL/GUI/lvgl/src/misc/lv_event.c ****      * Therefore, back up the header in advance,
  80:../../Middlewares/LVGL/GUI/lvgl/src/misc/lv_event.c ****      * which can strive to release the memory and prevent used-after-free. */
  81:../../Middlewares/LVGL/GUI/lvgl/src/misc/lv_event.c ****     lv_array_t back_array_head = list->array;
  82:../../Middlewares/LVGL/GUI/lvgl/src/misc/lv_event.c **** 
  83:../../Middlewares/LVGL/GUI/lvgl/src/misc/lv_event.c ****     /* Dealing with the problem of nested event deletion event */
  84:../../Middlewares/LVGL/GUI/lvgl/src/misc/lv_event.c ****     const bool is_traversing = list->is_traversing;
  85:../../Middlewares/LVGL/GUI/lvgl/src/misc/lv_event.c ****     list->is_traversing = true;
  86:../../Middlewares/LVGL/GUI/lvgl/src/misc/lv_event.c **** 
  87:../../Middlewares/LVGL/GUI/lvgl/src/misc/lv_event.c ****     lv_result_t res = LV_RESULT_OK;
  88:../../Middlewares/LVGL/GUI/lvgl/src/misc/lv_event.c ****     const uint32_t size = event_array_size(list);
ARM GAS  C:\Users\28576\AppData\Local\Temp\ccwuB5AB.s 			page 3


  89:../../Middlewares/LVGL/GUI/lvgl/src/misc/lv_event.c ****     for(uint32_t i = 0; i < size && !e->deleted; i++) {
  90:../../Middlewares/LVGL/GUI/lvgl/src/misc/lv_event.c ****         lv_event_dsc_t * dsc = *event_array_at(list, i);
  91:../../Middlewares/LVGL/GUI/lvgl/src/misc/lv_event.c ****         if(dsc->cb == NULL) continue;
  92:../../Middlewares/LVGL/GUI/lvgl/src/misc/lv_event.c ****         if(event_is_marked_deleting(dsc)) continue;
  93:../../Middlewares/LVGL/GUI/lvgl/src/misc/lv_event.c ****         const bool is_preprocessed = (dsc->filter & LV_EVENT_PREPROCESS) != 0;
  94:../../Middlewares/LVGL/GUI/lvgl/src/misc/lv_event.c ****         if(is_preprocessed != preprocess) continue;
  95:../../Middlewares/LVGL/GUI/lvgl/src/misc/lv_event.c ****         lv_event_code_t filter = dsc->filter & ~LV_EVENT_PREPROCESS;
  96:../../Middlewares/LVGL/GUI/lvgl/src/misc/lv_event.c ****         if(filter == LV_EVENT_ALL || filter == e->code) {
  97:../../Middlewares/LVGL/GUI/lvgl/src/misc/lv_event.c ****             e->user_data = dsc->user_data;
  98:../../Middlewares/LVGL/GUI/lvgl/src/misc/lv_event.c ****             dsc->cb(e);
  99:../../Middlewares/LVGL/GUI/lvgl/src/misc/lv_event.c ****             if(e->stop_processing) break;
 100:../../Middlewares/LVGL/GUI/lvgl/src/misc/lv_event.c **** 
 101:../../Middlewares/LVGL/GUI/lvgl/src/misc/lv_event.c ****             /*Stop if the object is deleted*/
 102:../../Middlewares/LVGL/GUI/lvgl/src/misc/lv_event.c ****             if(e->deleted) {
 103:../../Middlewares/LVGL/GUI/lvgl/src/misc/lv_event.c ****                 res = LV_RESULT_INVALID;
 104:../../Middlewares/LVGL/GUI/lvgl/src/misc/lv_event.c ****                 break;
 105:../../Middlewares/LVGL/GUI/lvgl/src/misc/lv_event.c ****             }
 106:../../Middlewares/LVGL/GUI/lvgl/src/misc/lv_event.c ****         }
 107:../../Middlewares/LVGL/GUI/lvgl/src/misc/lv_event.c ****     }
 108:../../Middlewares/LVGL/GUI/lvgl/src/misc/lv_event.c **** 
 109:../../Middlewares/LVGL/GUI/lvgl/src/misc/lv_event.c ****     if(is_traversing) return res;
 110:../../Middlewares/LVGL/GUI/lvgl/src/misc/lv_event.c **** 
 111:../../Middlewares/LVGL/GUI/lvgl/src/misc/lv_event.c ****     if(e->deleted) cleanup_event_list_core(&back_array_head);
 112:../../Middlewares/LVGL/GUI/lvgl/src/misc/lv_event.c ****     else {
 113:../../Middlewares/LVGL/GUI/lvgl/src/misc/lv_event.c ****         list->is_traversing = false;
 114:../../Middlewares/LVGL/GUI/lvgl/src/misc/lv_event.c ****         cleanup_event_list(list);
 115:../../Middlewares/LVGL/GUI/lvgl/src/misc/lv_event.c ****     }
 116:../../Middlewares/LVGL/GUI/lvgl/src/misc/lv_event.c **** 
 117:../../Middlewares/LVGL/GUI/lvgl/src/misc/lv_event.c ****     return res;
 118:../../Middlewares/LVGL/GUI/lvgl/src/misc/lv_event.c **** }
 119:../../Middlewares/LVGL/GUI/lvgl/src/misc/lv_event.c **** 
 120:../../Middlewares/LVGL/GUI/lvgl/src/misc/lv_event.c **** lv_event_dsc_t * lv_event_add(lv_event_list_t * list, lv_event_cb_t cb, lv_event_code_t filter,
 121:../../Middlewares/LVGL/GUI/lvgl/src/misc/lv_event.c ****                               void * user_data)
 122:../../Middlewares/LVGL/GUI/lvgl/src/misc/lv_event.c **** {
 123:../../Middlewares/LVGL/GUI/lvgl/src/misc/lv_event.c ****     lv_event_dsc_t * dsc = lv_malloc(sizeof(lv_event_dsc_t));
 124:../../Middlewares/LVGL/GUI/lvgl/src/misc/lv_event.c ****     LV_ASSERT_NULL(dsc);
 125:../../Middlewares/LVGL/GUI/lvgl/src/misc/lv_event.c **** 
 126:../../Middlewares/LVGL/GUI/lvgl/src/misc/lv_event.c ****     dsc->cb = cb;
 127:../../Middlewares/LVGL/GUI/lvgl/src/misc/lv_event.c ****     dsc->filter = filter;
 128:../../Middlewares/LVGL/GUI/lvgl/src/misc/lv_event.c ****     dsc->user_data = user_data;
 129:../../Middlewares/LVGL/GUI/lvgl/src/misc/lv_event.c **** 
 130:../../Middlewares/LVGL/GUI/lvgl/src/misc/lv_event.c ****     if(event_array_size(list) == 0) {
 131:../../Middlewares/LVGL/GUI/lvgl/src/misc/lv_event.c ****         /*event list hasn't been initialized.*/
 132:../../Middlewares/LVGL/GUI/lvgl/src/misc/lv_event.c ****         lv_array_init(&list->array, 1, sizeof(lv_event_dsc_t *));
 133:../../Middlewares/LVGL/GUI/lvgl/src/misc/lv_event.c ****     }
 134:../../Middlewares/LVGL/GUI/lvgl/src/misc/lv_event.c **** 
 135:../../Middlewares/LVGL/GUI/lvgl/src/misc/lv_event.c ****     lv_array_push_back(&list->array, &dsc);
 136:../../Middlewares/LVGL/GUI/lvgl/src/misc/lv_event.c ****     return dsc;
 137:../../Middlewares/LVGL/GUI/lvgl/src/misc/lv_event.c **** }
 138:../../Middlewares/LVGL/GUI/lvgl/src/misc/lv_event.c **** 
 139:../../Middlewares/LVGL/GUI/lvgl/src/misc/lv_event.c **** bool lv_event_remove_dsc(lv_event_list_t * list, lv_event_dsc_t * dsc)
 140:../../Middlewares/LVGL/GUI/lvgl/src/misc/lv_event.c **** {
 141:../../Middlewares/LVGL/GUI/lvgl/src/misc/lv_event.c ****     LV_ASSERT_NULL(list);
 142:../../Middlewares/LVGL/GUI/lvgl/src/misc/lv_event.c ****     LV_ASSERT_NULL(dsc);
 143:../../Middlewares/LVGL/GUI/lvgl/src/misc/lv_event.c **** 
 144:../../Middlewares/LVGL/GUI/lvgl/src/misc/lv_event.c ****     const uint32_t size = event_array_size(list);
 145:../../Middlewares/LVGL/GUI/lvgl/src/misc/lv_event.c ****     for(uint32_t i = 0; i < size; i++) {
ARM GAS  C:\Users\28576\AppData\Local\Temp\ccwuB5AB.s 			page 4


 146:../../Middlewares/LVGL/GUI/lvgl/src/misc/lv_event.c ****         lv_event_dsc_t * event = *event_array_at(list, i);
 147:../../Middlewares/LVGL/GUI/lvgl/src/misc/lv_event.c ****         if(event == dsc) {
 148:../../Middlewares/LVGL/GUI/lvgl/src/misc/lv_event.c ****             event_mark_deleting(list, event);
 149:../../Middlewares/LVGL/GUI/lvgl/src/misc/lv_event.c ****             cleanup_event_list(list);
 150:../../Middlewares/LVGL/GUI/lvgl/src/misc/lv_event.c ****             return true;
 151:../../Middlewares/LVGL/GUI/lvgl/src/misc/lv_event.c ****         }
 152:../../Middlewares/LVGL/GUI/lvgl/src/misc/lv_event.c ****     }
 153:../../Middlewares/LVGL/GUI/lvgl/src/misc/lv_event.c **** 
 154:../../Middlewares/LVGL/GUI/lvgl/src/misc/lv_event.c ****     return false;
 155:../../Middlewares/LVGL/GUI/lvgl/src/misc/lv_event.c **** }
 156:../../Middlewares/LVGL/GUI/lvgl/src/misc/lv_event.c **** 
 157:../../Middlewares/LVGL/GUI/lvgl/src/misc/lv_event.c **** uint32_t lv_event_get_count(lv_event_list_t * list)
 158:../../Middlewares/LVGL/GUI/lvgl/src/misc/lv_event.c **** {
 159:../../Middlewares/LVGL/GUI/lvgl/src/misc/lv_event.c ****     LV_ASSERT_NULL(list);
 160:../../Middlewares/LVGL/GUI/lvgl/src/misc/lv_event.c ****     return event_array_size(list);
 161:../../Middlewares/LVGL/GUI/lvgl/src/misc/lv_event.c **** }
 162:../../Middlewares/LVGL/GUI/lvgl/src/misc/lv_event.c **** 
 163:../../Middlewares/LVGL/GUI/lvgl/src/misc/lv_event.c **** lv_event_dsc_t * lv_event_get_dsc(lv_event_list_t * list, uint32_t index)
 164:../../Middlewares/LVGL/GUI/lvgl/src/misc/lv_event.c **** {
 165:../../Middlewares/LVGL/GUI/lvgl/src/misc/lv_event.c ****     LV_ASSERT_NULL(list);
 166:../../Middlewares/LVGL/GUI/lvgl/src/misc/lv_event.c ****     lv_event_dsc_t ** dsc = event_array_at(list, index);
 167:../../Middlewares/LVGL/GUI/lvgl/src/misc/lv_event.c ****     return dsc ? *dsc : NULL;
 168:../../Middlewares/LVGL/GUI/lvgl/src/misc/lv_event.c **** }
 169:../../Middlewares/LVGL/GUI/lvgl/src/misc/lv_event.c **** 
 170:../../Middlewares/LVGL/GUI/lvgl/src/misc/lv_event.c **** lv_event_cb_t lv_event_dsc_get_cb(lv_event_dsc_t * dsc)
 171:../../Middlewares/LVGL/GUI/lvgl/src/misc/lv_event.c **** {
 172:../../Middlewares/LVGL/GUI/lvgl/src/misc/lv_event.c ****     LV_ASSERT_NULL(dsc);
 173:../../Middlewares/LVGL/GUI/lvgl/src/misc/lv_event.c ****     return dsc->cb;
 174:../../Middlewares/LVGL/GUI/lvgl/src/misc/lv_event.c **** }
 175:../../Middlewares/LVGL/GUI/lvgl/src/misc/lv_event.c **** 
 176:../../Middlewares/LVGL/GUI/lvgl/src/misc/lv_event.c **** void * lv_event_dsc_get_user_data(lv_event_dsc_t * dsc)
 177:../../Middlewares/LVGL/GUI/lvgl/src/misc/lv_event.c **** {
 178:../../Middlewares/LVGL/GUI/lvgl/src/misc/lv_event.c ****     LV_ASSERT_NULL(dsc);
 179:../../Middlewares/LVGL/GUI/lvgl/src/misc/lv_event.c ****     return dsc->user_data;
 180:../../Middlewares/LVGL/GUI/lvgl/src/misc/lv_event.c **** 
 181:../../Middlewares/LVGL/GUI/lvgl/src/misc/lv_event.c **** }
 182:../../Middlewares/LVGL/GUI/lvgl/src/misc/lv_event.c **** 
 183:../../Middlewares/LVGL/GUI/lvgl/src/misc/lv_event.c **** bool lv_event_remove(lv_event_list_t * list, uint32_t index)
 184:../../Middlewares/LVGL/GUI/lvgl/src/misc/lv_event.c **** {
 185:../../Middlewares/LVGL/GUI/lvgl/src/misc/lv_event.c ****     LV_ASSERT_NULL(list);
 186:../../Middlewares/LVGL/GUI/lvgl/src/misc/lv_event.c ****     lv_event_dsc_t * dsc = lv_event_get_dsc(list, index);
 187:../../Middlewares/LVGL/GUI/lvgl/src/misc/lv_event.c ****     if(dsc == NULL) return false;
 188:../../Middlewares/LVGL/GUI/lvgl/src/misc/lv_event.c ****     event_mark_deleting(list, dsc);
 189:../../Middlewares/LVGL/GUI/lvgl/src/misc/lv_event.c ****     cleanup_event_list(list);
 190:../../Middlewares/LVGL/GUI/lvgl/src/misc/lv_event.c ****     return true;
 191:../../Middlewares/LVGL/GUI/lvgl/src/misc/lv_event.c **** }
 192:../../Middlewares/LVGL/GUI/lvgl/src/misc/lv_event.c **** 
 193:../../Middlewares/LVGL/GUI/lvgl/src/misc/lv_event.c **** void lv_event_remove_all(lv_event_list_t * list)
 194:../../Middlewares/LVGL/GUI/lvgl/src/misc/lv_event.c **** {
 195:../../Middlewares/LVGL/GUI/lvgl/src/misc/lv_event.c ****     LV_ASSERT_NULL(list);
 196:../../Middlewares/LVGL/GUI/lvgl/src/misc/lv_event.c ****     const uint32_t size = event_array_size(list);
 197:../../Middlewares/LVGL/GUI/lvgl/src/misc/lv_event.c ****     for(uint32_t i = 0; i < size; i++)
 198:../../Middlewares/LVGL/GUI/lvgl/src/misc/lv_event.c ****         event_mark_deleting(list, *event_array_at(list, i));
 199:../../Middlewares/LVGL/GUI/lvgl/src/misc/lv_event.c ****     cleanup_event_list(list);
 200:../../Middlewares/LVGL/GUI/lvgl/src/misc/lv_event.c **** }
 201:../../Middlewares/LVGL/GUI/lvgl/src/misc/lv_event.c **** 
 202:../../Middlewares/LVGL/GUI/lvgl/src/misc/lv_event.c **** void * lv_event_get_current_target(lv_event_t * e)
ARM GAS  C:\Users\28576\AppData\Local\Temp\ccwuB5AB.s 			page 5


 203:../../Middlewares/LVGL/GUI/lvgl/src/misc/lv_event.c **** {
 204:../../Middlewares/LVGL/GUI/lvgl/src/misc/lv_event.c ****     return e->current_target;
 205:../../Middlewares/LVGL/GUI/lvgl/src/misc/lv_event.c **** }
 206:../../Middlewares/LVGL/GUI/lvgl/src/misc/lv_event.c **** 
 207:../../Middlewares/LVGL/GUI/lvgl/src/misc/lv_event.c **** void * lv_event_get_target(lv_event_t * e)
 208:../../Middlewares/LVGL/GUI/lvgl/src/misc/lv_event.c **** {
 209:../../Middlewares/LVGL/GUI/lvgl/src/misc/lv_event.c ****     return e->original_target;
 210:../../Middlewares/LVGL/GUI/lvgl/src/misc/lv_event.c **** }
 211:../../Middlewares/LVGL/GUI/lvgl/src/misc/lv_event.c **** 
 212:../../Middlewares/LVGL/GUI/lvgl/src/misc/lv_event.c **** lv_event_code_t lv_event_get_code(lv_event_t * e)
 213:../../Middlewares/LVGL/GUI/lvgl/src/misc/lv_event.c **** {
 214:../../Middlewares/LVGL/GUI/lvgl/src/misc/lv_event.c ****     return e->code & ~LV_EVENT_PREPROCESS;
 215:../../Middlewares/LVGL/GUI/lvgl/src/misc/lv_event.c **** }
 216:../../Middlewares/LVGL/GUI/lvgl/src/misc/lv_event.c **** 
 217:../../Middlewares/LVGL/GUI/lvgl/src/misc/lv_event.c **** void * lv_event_get_param(lv_event_t * e)
 218:../../Middlewares/LVGL/GUI/lvgl/src/misc/lv_event.c **** {
 219:../../Middlewares/LVGL/GUI/lvgl/src/misc/lv_event.c ****     return e->param;
 220:../../Middlewares/LVGL/GUI/lvgl/src/misc/lv_event.c **** }
 221:../../Middlewares/LVGL/GUI/lvgl/src/misc/lv_event.c **** 
 222:../../Middlewares/LVGL/GUI/lvgl/src/misc/lv_event.c **** void * lv_event_get_user_data(lv_event_t * e)
 223:../../Middlewares/LVGL/GUI/lvgl/src/misc/lv_event.c **** {
 224:../../Middlewares/LVGL/GUI/lvgl/src/misc/lv_event.c ****     return e->user_data;
 225:../../Middlewares/LVGL/GUI/lvgl/src/misc/lv_event.c **** }
 226:../../Middlewares/LVGL/GUI/lvgl/src/misc/lv_event.c **** 
 227:../../Middlewares/LVGL/GUI/lvgl/src/misc/lv_event.c **** void lv_event_stop_bubbling(lv_event_t * e)
 228:../../Middlewares/LVGL/GUI/lvgl/src/misc/lv_event.c **** {
 229:../../Middlewares/LVGL/GUI/lvgl/src/misc/lv_event.c ****     e->stop_bubbling = 1;
 230:../../Middlewares/LVGL/GUI/lvgl/src/misc/lv_event.c **** }
 231:../../Middlewares/LVGL/GUI/lvgl/src/misc/lv_event.c **** 
 232:../../Middlewares/LVGL/GUI/lvgl/src/misc/lv_event.c **** void lv_event_stop_processing(lv_event_t * e)
 233:../../Middlewares/LVGL/GUI/lvgl/src/misc/lv_event.c **** {
 234:../../Middlewares/LVGL/GUI/lvgl/src/misc/lv_event.c ****     e->stop_processing = 1;
 235:../../Middlewares/LVGL/GUI/lvgl/src/misc/lv_event.c **** }
 236:../../Middlewares/LVGL/GUI/lvgl/src/misc/lv_event.c **** 
 237:../../Middlewares/LVGL/GUI/lvgl/src/misc/lv_event.c **** uint32_t lv_event_register_id(void)
 238:../../Middlewares/LVGL/GUI/lvgl/src/misc/lv_event.c **** {
 239:../../Middlewares/LVGL/GUI/lvgl/src/misc/lv_event.c ****     event_last_id ++;
 240:../../Middlewares/LVGL/GUI/lvgl/src/misc/lv_event.c ****     return event_last_id;
 241:../../Middlewares/LVGL/GUI/lvgl/src/misc/lv_event.c **** }
 242:../../Middlewares/LVGL/GUI/lvgl/src/misc/lv_event.c **** 
 243:../../Middlewares/LVGL/GUI/lvgl/src/misc/lv_event.c **** void lv_event_mark_deleted(void * target)
 244:../../Middlewares/LVGL/GUI/lvgl/src/misc/lv_event.c **** {
 245:../../Middlewares/LVGL/GUI/lvgl/src/misc/lv_event.c ****     lv_event_t * e = event_head;
 246:../../Middlewares/LVGL/GUI/lvgl/src/misc/lv_event.c **** 
 247:../../Middlewares/LVGL/GUI/lvgl/src/misc/lv_event.c ****     while(e) {
 248:../../Middlewares/LVGL/GUI/lvgl/src/misc/lv_event.c ****         if(e->original_target == target || e->current_target == target) e->deleted = 1;
 249:../../Middlewares/LVGL/GUI/lvgl/src/misc/lv_event.c ****         e = e->prev;
 250:../../Middlewares/LVGL/GUI/lvgl/src/misc/lv_event.c ****     }
 251:../../Middlewares/LVGL/GUI/lvgl/src/misc/lv_event.c **** }
 252:../../Middlewares/LVGL/GUI/lvgl/src/misc/lv_event.c **** 
 253:../../Middlewares/LVGL/GUI/lvgl/src/misc/lv_event.c **** const char * lv_event_code_get_name(lv_event_code_t code)
 254:../../Middlewares/LVGL/GUI/lvgl/src/misc/lv_event.c **** {
 255:../../Middlewares/LVGL/GUI/lvgl/src/misc/lv_event.c ****     /*Remove the preprocess flag*/
 256:../../Middlewares/LVGL/GUI/lvgl/src/misc/lv_event.c ****     code &= ~LV_EVENT_PREPROCESS;
 257:../../Middlewares/LVGL/GUI/lvgl/src/misc/lv_event.c **** 
 258:../../Middlewares/LVGL/GUI/lvgl/src/misc/lv_event.c **** #define ENUM_CASE(x) case LV_##x: return #x
 259:../../Middlewares/LVGL/GUI/lvgl/src/misc/lv_event.c **** 
ARM GAS  C:\Users\28576\AppData\Local\Temp\ccwuB5AB.s 			page 6


 260:../../Middlewares/LVGL/GUI/lvgl/src/misc/lv_event.c ****     switch(code) {
 261:../../Middlewares/LVGL/GUI/lvgl/src/misc/lv_event.c ****             ENUM_CASE(EVENT_ALL);
 262:../../Middlewares/LVGL/GUI/lvgl/src/misc/lv_event.c **** 
 263:../../Middlewares/LVGL/GUI/lvgl/src/misc/lv_event.c ****             /** Input device events*/
 264:../../Middlewares/LVGL/GUI/lvgl/src/misc/lv_event.c ****             ENUM_CASE(EVENT_PRESSED);
 265:../../Middlewares/LVGL/GUI/lvgl/src/misc/lv_event.c ****             ENUM_CASE(EVENT_PRESSING);
 266:../../Middlewares/LVGL/GUI/lvgl/src/misc/lv_event.c ****             ENUM_CASE(EVENT_PRESS_LOST);
 267:../../Middlewares/LVGL/GUI/lvgl/src/misc/lv_event.c ****             ENUM_CASE(EVENT_SHORT_CLICKED);
 268:../../Middlewares/LVGL/GUI/lvgl/src/misc/lv_event.c ****             ENUM_CASE(EVENT_SINGLE_CLICKED);
 269:../../Middlewares/LVGL/GUI/lvgl/src/misc/lv_event.c ****             ENUM_CASE(EVENT_DOUBLE_CLICKED);
 270:../../Middlewares/LVGL/GUI/lvgl/src/misc/lv_event.c ****             ENUM_CASE(EVENT_TRIPLE_CLICKED);
 271:../../Middlewares/LVGL/GUI/lvgl/src/misc/lv_event.c ****             ENUM_CASE(EVENT_LONG_PRESSED);
 272:../../Middlewares/LVGL/GUI/lvgl/src/misc/lv_event.c ****             ENUM_CASE(EVENT_LONG_PRESSED_REPEAT);
 273:../../Middlewares/LVGL/GUI/lvgl/src/misc/lv_event.c ****             ENUM_CASE(EVENT_CLICKED);
 274:../../Middlewares/LVGL/GUI/lvgl/src/misc/lv_event.c ****             ENUM_CASE(EVENT_RELEASED);
 275:../../Middlewares/LVGL/GUI/lvgl/src/misc/lv_event.c ****             ENUM_CASE(EVENT_SCROLL_BEGIN);
 276:../../Middlewares/LVGL/GUI/lvgl/src/misc/lv_event.c ****             ENUM_CASE(EVENT_SCROLL_THROW_BEGIN);
 277:../../Middlewares/LVGL/GUI/lvgl/src/misc/lv_event.c ****             ENUM_CASE(EVENT_SCROLL_END);
 278:../../Middlewares/LVGL/GUI/lvgl/src/misc/lv_event.c ****             ENUM_CASE(EVENT_SCROLL);
 279:../../Middlewares/LVGL/GUI/lvgl/src/misc/lv_event.c ****             ENUM_CASE(EVENT_GESTURE);
 280:../../Middlewares/LVGL/GUI/lvgl/src/misc/lv_event.c ****             ENUM_CASE(EVENT_KEY);
 281:../../Middlewares/LVGL/GUI/lvgl/src/misc/lv_event.c ****             ENUM_CASE(EVENT_ROTARY);
 282:../../Middlewares/LVGL/GUI/lvgl/src/misc/lv_event.c ****             ENUM_CASE(EVENT_FOCUSED);
 283:../../Middlewares/LVGL/GUI/lvgl/src/misc/lv_event.c ****             ENUM_CASE(EVENT_DEFOCUSED);
 284:../../Middlewares/LVGL/GUI/lvgl/src/misc/lv_event.c ****             ENUM_CASE(EVENT_LEAVE);
 285:../../Middlewares/LVGL/GUI/lvgl/src/misc/lv_event.c ****             ENUM_CASE(EVENT_HIT_TEST);
 286:../../Middlewares/LVGL/GUI/lvgl/src/misc/lv_event.c ****             ENUM_CASE(EVENT_INDEV_RESET);
 287:../../Middlewares/LVGL/GUI/lvgl/src/misc/lv_event.c ****             ENUM_CASE(EVENT_HOVER_OVER);
 288:../../Middlewares/LVGL/GUI/lvgl/src/misc/lv_event.c ****             ENUM_CASE(EVENT_HOVER_LEAVE);
 289:../../Middlewares/LVGL/GUI/lvgl/src/misc/lv_event.c **** 
 290:../../Middlewares/LVGL/GUI/lvgl/src/misc/lv_event.c ****             /** Drawing events*/
 291:../../Middlewares/LVGL/GUI/lvgl/src/misc/lv_event.c ****             ENUM_CASE(EVENT_COVER_CHECK);
 292:../../Middlewares/LVGL/GUI/lvgl/src/misc/lv_event.c ****             ENUM_CASE(EVENT_REFR_EXT_DRAW_SIZE);
 293:../../Middlewares/LVGL/GUI/lvgl/src/misc/lv_event.c ****             ENUM_CASE(EVENT_DRAW_MAIN_BEGIN);
 294:../../Middlewares/LVGL/GUI/lvgl/src/misc/lv_event.c ****             ENUM_CASE(EVENT_DRAW_MAIN);
 295:../../Middlewares/LVGL/GUI/lvgl/src/misc/lv_event.c ****             ENUM_CASE(EVENT_DRAW_MAIN_END);
 296:../../Middlewares/LVGL/GUI/lvgl/src/misc/lv_event.c ****             ENUM_CASE(EVENT_DRAW_POST_BEGIN);
 297:../../Middlewares/LVGL/GUI/lvgl/src/misc/lv_event.c ****             ENUM_CASE(EVENT_DRAW_POST);
 298:../../Middlewares/LVGL/GUI/lvgl/src/misc/lv_event.c ****             ENUM_CASE(EVENT_DRAW_POST_END);
 299:../../Middlewares/LVGL/GUI/lvgl/src/misc/lv_event.c ****             ENUM_CASE(EVENT_DRAW_TASK_ADDED);
 300:../../Middlewares/LVGL/GUI/lvgl/src/misc/lv_event.c **** 
 301:../../Middlewares/LVGL/GUI/lvgl/src/misc/lv_event.c ****             /** Special events*/
 302:../../Middlewares/LVGL/GUI/lvgl/src/misc/lv_event.c ****             ENUM_CASE(EVENT_VALUE_CHANGED);
 303:../../Middlewares/LVGL/GUI/lvgl/src/misc/lv_event.c ****             ENUM_CASE(EVENT_INSERT);
 304:../../Middlewares/LVGL/GUI/lvgl/src/misc/lv_event.c ****             ENUM_CASE(EVENT_REFRESH);
 305:../../Middlewares/LVGL/GUI/lvgl/src/misc/lv_event.c ****             ENUM_CASE(EVENT_READY);
 306:../../Middlewares/LVGL/GUI/lvgl/src/misc/lv_event.c ****             ENUM_CASE(EVENT_CANCEL);
 307:../../Middlewares/LVGL/GUI/lvgl/src/misc/lv_event.c **** 
 308:../../Middlewares/LVGL/GUI/lvgl/src/misc/lv_event.c ****             /** Other events*/
 309:../../Middlewares/LVGL/GUI/lvgl/src/misc/lv_event.c ****             ENUM_CASE(EVENT_CREATE);
 310:../../Middlewares/LVGL/GUI/lvgl/src/misc/lv_event.c ****             ENUM_CASE(EVENT_DELETE);
 311:../../Middlewares/LVGL/GUI/lvgl/src/misc/lv_event.c ****             ENUM_CASE(EVENT_CHILD_CHANGED);
 312:../../Middlewares/LVGL/GUI/lvgl/src/misc/lv_event.c ****             ENUM_CASE(EVENT_CHILD_CREATED);
 313:../../Middlewares/LVGL/GUI/lvgl/src/misc/lv_event.c ****             ENUM_CASE(EVENT_CHILD_DELETED);
 314:../../Middlewares/LVGL/GUI/lvgl/src/misc/lv_event.c ****             ENUM_CASE(EVENT_SCREEN_UNLOAD_START);
 315:../../Middlewares/LVGL/GUI/lvgl/src/misc/lv_event.c ****             ENUM_CASE(EVENT_SCREEN_LOAD_START);
 316:../../Middlewares/LVGL/GUI/lvgl/src/misc/lv_event.c ****             ENUM_CASE(EVENT_SCREEN_LOADED);
ARM GAS  C:\Users\28576\AppData\Local\Temp\ccwuB5AB.s 			page 7


 317:../../Middlewares/LVGL/GUI/lvgl/src/misc/lv_event.c ****             ENUM_CASE(EVENT_SCREEN_UNLOADED);
 318:../../Middlewares/LVGL/GUI/lvgl/src/misc/lv_event.c ****             ENUM_CASE(EVENT_SIZE_CHANGED);
 319:../../Middlewares/LVGL/GUI/lvgl/src/misc/lv_event.c ****             ENUM_CASE(EVENT_STYLE_CHANGED);
 320:../../Middlewares/LVGL/GUI/lvgl/src/misc/lv_event.c ****             ENUM_CASE(EVENT_LAYOUT_CHANGED);
 321:../../Middlewares/LVGL/GUI/lvgl/src/misc/lv_event.c ****             ENUM_CASE(EVENT_GET_SELF_SIZE);
 322:../../Middlewares/LVGL/GUI/lvgl/src/misc/lv_event.c **** 
 323:../../Middlewares/LVGL/GUI/lvgl/src/misc/lv_event.c ****             /** Events of optional LVGL components*/
 324:../../Middlewares/LVGL/GUI/lvgl/src/misc/lv_event.c ****             ENUM_CASE(EVENT_INVALIDATE_AREA);
 325:../../Middlewares/LVGL/GUI/lvgl/src/misc/lv_event.c ****             ENUM_CASE(EVENT_RESOLUTION_CHANGED);
 326:../../Middlewares/LVGL/GUI/lvgl/src/misc/lv_event.c ****             ENUM_CASE(EVENT_COLOR_FORMAT_CHANGED);
 327:../../Middlewares/LVGL/GUI/lvgl/src/misc/lv_event.c ****             ENUM_CASE(EVENT_REFR_REQUEST);
 328:../../Middlewares/LVGL/GUI/lvgl/src/misc/lv_event.c ****             ENUM_CASE(EVENT_REFR_START);
 329:../../Middlewares/LVGL/GUI/lvgl/src/misc/lv_event.c ****             ENUM_CASE(EVENT_REFR_READY);
 330:../../Middlewares/LVGL/GUI/lvgl/src/misc/lv_event.c ****             ENUM_CASE(EVENT_RENDER_START);
 331:../../Middlewares/LVGL/GUI/lvgl/src/misc/lv_event.c ****             ENUM_CASE(EVENT_RENDER_READY);
 332:../../Middlewares/LVGL/GUI/lvgl/src/misc/lv_event.c ****             ENUM_CASE(EVENT_FLUSH_START);
 333:../../Middlewares/LVGL/GUI/lvgl/src/misc/lv_event.c ****             ENUM_CASE(EVENT_FLUSH_FINISH);
 334:../../Middlewares/LVGL/GUI/lvgl/src/misc/lv_event.c ****             ENUM_CASE(EVENT_FLUSH_WAIT_START);
 335:../../Middlewares/LVGL/GUI/lvgl/src/misc/lv_event.c ****             ENUM_CASE(EVENT_FLUSH_WAIT_FINISH);
 336:../../Middlewares/LVGL/GUI/lvgl/src/misc/lv_event.c **** 
 337:../../Middlewares/LVGL/GUI/lvgl/src/misc/lv_event.c ****             ENUM_CASE(EVENT_VSYNC);
 338:../../Middlewares/LVGL/GUI/lvgl/src/misc/lv_event.c ****             ENUM_CASE(EVENT_VSYNC_REQUEST);
 339:../../Middlewares/LVGL/GUI/lvgl/src/misc/lv_event.c **** 
 340:../../Middlewares/LVGL/GUI/lvgl/src/misc/lv_event.c ****         /* Special event flags */
 341:../../Middlewares/LVGL/GUI/lvgl/src/misc/lv_event.c ****         case LV_EVENT_LAST:
 342:../../Middlewares/LVGL/GUI/lvgl/src/misc/lv_event.c ****         case LV_EVENT_PREPROCESS:
 343:../../Middlewares/LVGL/GUI/lvgl/src/misc/lv_event.c ****         case LV_EVENT_MARKED_DELETING:
 344:../../Middlewares/LVGL/GUI/lvgl/src/misc/lv_event.c ****             break;
 345:../../Middlewares/LVGL/GUI/lvgl/src/misc/lv_event.c **** 
 346:../../Middlewares/LVGL/GUI/lvgl/src/misc/lv_event.c ****             /* Note that default is not added here because when adding new event code,
 347:../../Middlewares/LVGL/GUI/lvgl/src/misc/lv_event.c ****              * if forget to add case, the compiler will automatically report a warning.
 348:../../Middlewares/LVGL/GUI/lvgl/src/misc/lv_event.c ****              */
 349:../../Middlewares/LVGL/GUI/lvgl/src/misc/lv_event.c ****     }
 350:../../Middlewares/LVGL/GUI/lvgl/src/misc/lv_event.c **** 
 351:../../Middlewares/LVGL/GUI/lvgl/src/misc/lv_event.c **** #undef ENUM_CASE
 352:../../Middlewares/LVGL/GUI/lvgl/src/misc/lv_event.c **** 
 353:../../Middlewares/LVGL/GUI/lvgl/src/misc/lv_event.c ****     return "EVENT_UNKNOWN";
 354:../../Middlewares/LVGL/GUI/lvgl/src/misc/lv_event.c **** }
 355:../../Middlewares/LVGL/GUI/lvgl/src/misc/lv_event.c **** 
 356:../../Middlewares/LVGL/GUI/lvgl/src/misc/lv_event.c **** /**********************
 357:../../Middlewares/LVGL/GUI/lvgl/src/misc/lv_event.c ****  *   STATIC FUNCTIONS
 358:../../Middlewares/LVGL/GUI/lvgl/src/misc/lv_event.c ****  **********************/
 359:../../Middlewares/LVGL/GUI/lvgl/src/misc/lv_event.c **** 
 360:../../Middlewares/LVGL/GUI/lvgl/src/misc/lv_event.c **** static void cleanup_event_list_core(lv_array_t * array)
 361:../../Middlewares/LVGL/GUI/lvgl/src/misc/lv_event.c **** {
 362:../../Middlewares/LVGL/GUI/lvgl/src/misc/lv_event.c ****     const uint32_t size = lv_array_size(array);
 363:../../Middlewares/LVGL/GUI/lvgl/src/misc/lv_event.c ****     uint32_t kept_count = 0;
 364:../../Middlewares/LVGL/GUI/lvgl/src/misc/lv_event.c ****     for(uint32_t i = 0; i < size; i++) {
 365:../../Middlewares/LVGL/GUI/lvgl/src/misc/lv_event.c ****         lv_event_dsc_t ** dsc_i = lv_array_at(array, i);
 366:../../Middlewares/LVGL/GUI/lvgl/src/misc/lv_event.c ****         lv_event_dsc_t ** dsc_kept = lv_array_at(array, kept_count);
 367:../../Middlewares/LVGL/GUI/lvgl/src/misc/lv_event.c ****         if(event_is_marked_deleting(*dsc_i)) lv_free(*dsc_i);
 368:../../Middlewares/LVGL/GUI/lvgl/src/misc/lv_event.c ****         else {
 369:../../Middlewares/LVGL/GUI/lvgl/src/misc/lv_event.c ****             *dsc_kept = *dsc_i;
 370:../../Middlewares/LVGL/GUI/lvgl/src/misc/lv_event.c ****             kept_count++;
 371:../../Middlewares/LVGL/GUI/lvgl/src/misc/lv_event.c ****         }
 372:../../Middlewares/LVGL/GUI/lvgl/src/misc/lv_event.c ****     }
 373:../../Middlewares/LVGL/GUI/lvgl/src/misc/lv_event.c **** 
ARM GAS  C:\Users\28576\AppData\Local\Temp\ccwuB5AB.s 			page 8


 374:../../Middlewares/LVGL/GUI/lvgl/src/misc/lv_event.c ****     if(kept_count == 0) lv_array_deinit(array);
 375:../../Middlewares/LVGL/GUI/lvgl/src/misc/lv_event.c ****     else lv_array_resize(array, kept_count);
 376:../../Middlewares/LVGL/GUI/lvgl/src/misc/lv_event.c **** }
 377:../../Middlewares/LVGL/GUI/lvgl/src/misc/lv_event.c **** 
 378:../../Middlewares/LVGL/GUI/lvgl/src/misc/lv_event.c **** static void cleanup_event_list(lv_event_list_t * list)
 379:../../Middlewares/LVGL/GUI/lvgl/src/misc/lv_event.c **** {
 380:../../Middlewares/LVGL/GUI/lvgl/src/misc/lv_event.c ****     if(list->is_traversing) return;
 381:../../Middlewares/LVGL/GUI/lvgl/src/misc/lv_event.c ****     if(list->has_marked_deleting == false) return;
 382:../../Middlewares/LVGL/GUI/lvgl/src/misc/lv_event.c **** 
 383:../../Middlewares/LVGL/GUI/lvgl/src/misc/lv_event.c ****     cleanup_event_list_core(&list->array);
 384:../../Middlewares/LVGL/GUI/lvgl/src/misc/lv_event.c **** 
 385:../../Middlewares/LVGL/GUI/lvgl/src/misc/lv_event.c ****     list->has_marked_deleting = false;
 386:../../Middlewares/LVGL/GUI/lvgl/src/misc/lv_event.c **** }
 387:../../Middlewares/LVGL/GUI/lvgl/src/misc/lv_event.c **** 
 388:../../Middlewares/LVGL/GUI/lvgl/src/misc/lv_event.c **** static void event_mark_deleting(lv_event_list_t * list, lv_event_dsc_t * dsc)
 389:../../Middlewares/LVGL/GUI/lvgl/src/misc/lv_event.c **** {
  28              		.loc 1 389 1 view -0
  29              		.cfi_startproc
  30              		@ args = 0, pretend = 0, frame = 0
  31              		@ frame_needed = 0, uses_anonymous_args = 0
  32              		@ link register save eliminated.
 390:../../Middlewares/LVGL/GUI/lvgl/src/misc/lv_event.c ****     list->has_marked_deleting = true;
  33              		.loc 1 390 5 view .LVU1
  34              		.loc 1 390 31 is_stmt 0 view .LVU2
  35 0000 037D     		ldrb	r3, [r0, #20]	@ zero_extendqisi2
  36 0002 43F00203 		orr	r3, r3, #2
  37 0006 0375     		strb	r3, [r0, #20]
 391:../../Middlewares/LVGL/GUI/lvgl/src/misc/lv_event.c ****     dsc->filter |= LV_EVENT_MARKED_DELETING;
  38              		.loc 1 391 5 is_stmt 1 view .LVU3
  39              		.loc 1 391 8 is_stmt 0 view .LVU4
  40 0008 8B68     		ldr	r3, [r1, #8]
  41              		.loc 1 391 17 view .LVU5
  42 000a 43F48033 		orr	r3, r3, #65536
  43 000e 8B60     		str	r3, [r1, #8]
 392:../../Middlewares/LVGL/GUI/lvgl/src/misc/lv_event.c **** }
  44              		.loc 1 392 1 view .LVU6
  45 0010 7047     		bx	lr
  46              		.cfi_endproc
  47              	.LFE210:
  49              		.section	.text.event_is_marked_deleting,"ax",%progbits
  50              		.align	1
  51              		.syntax unified
  52              		.thumb
  53              		.thumb_func
  55              	event_is_marked_deleting:
  56              	.LVL1:
  57              	.LFB211:
 393:../../Middlewares/LVGL/GUI/lvgl/src/misc/lv_event.c **** static bool event_is_marked_deleting(lv_event_dsc_t * dsc)
 394:../../Middlewares/LVGL/GUI/lvgl/src/misc/lv_event.c **** {
  58              		.loc 1 394 1 is_stmt 1 view -0
  59              		.cfi_startproc
  60              		@ args = 0, pretend = 0, frame = 0
  61              		@ frame_needed = 0, uses_anonymous_args = 0
  62              		@ link register save eliminated.
 395:../../Middlewares/LVGL/GUI/lvgl/src/misc/lv_event.c ****     return (dsc->filter & LV_EVENT_MARKED_DELETING) != 0;
  63              		.loc 1 395 5 view .LVU8
  64              		.loc 1 395 16 is_stmt 0 view .LVU9
ARM GAS  C:\Users\28576\AppData\Local\Temp\ccwuB5AB.s 			page 9


  65 0000 8068     		ldr	r0, [r0, #8]
  66              	.LVL2:
 396:../../Middlewares/LVGL/GUI/lvgl/src/misc/lv_event.c **** }
  67              		.loc 1 396 1 view .LVU10
  68 0002 C0F30040 		ubfx	r0, r0, #16, #1
  69 0006 7047     		bx	lr
  70              		.cfi_endproc
  71              	.LFE211:
  73              		.section	.text.event_array_size,"ax",%progbits
  74              		.align	1
  75              		.syntax unified
  76              		.thumb
  77              		.thumb_func
  79              	event_array_size:
  80              	.LVL3:
  81              	.LFB212:
 397:../../Middlewares/LVGL/GUI/lvgl/src/misc/lv_event.c **** static uint32_t event_array_size(lv_event_list_t * list)
 398:../../Middlewares/LVGL/GUI/lvgl/src/misc/lv_event.c **** {
  82              		.loc 1 398 1 is_stmt 1 view -0
  83              		.cfi_startproc
  84              		@ args = 0, pretend = 0, frame = 0
  85              		@ frame_needed = 0, uses_anonymous_args = 0
  86              		@ link register save eliminated.
 399:../../Middlewares/LVGL/GUI/lvgl/src/misc/lv_event.c ****     return lv_array_size(&list->array);
  87              		.loc 1 399 5 view .LVU12
  88              	.LBB8:
  89              	.LBI8:
  90              		.file 2 "../../Middlewares/LVGL/GUI/lvgl/src/misc/lv_array.h"
   1:../../Middlewares/LVGL/GUI/lvgl/src/misc/lv_array.h **** /**
   2:../../Middlewares/LVGL/GUI/lvgl/src/misc/lv_array.h ****  * @file lv_array.h
   3:../../Middlewares/LVGL/GUI/lvgl/src/misc/lv_array.h ****  * Array. The elements are dynamically allocated by the 'lv_mem' module.
   4:../../Middlewares/LVGL/GUI/lvgl/src/misc/lv_array.h ****  */
   5:../../Middlewares/LVGL/GUI/lvgl/src/misc/lv_array.h **** 
   6:../../Middlewares/LVGL/GUI/lvgl/src/misc/lv_array.h **** #ifndef LV_ARRAY_H
   7:../../Middlewares/LVGL/GUI/lvgl/src/misc/lv_array.h **** #define LV_ARRAY_H
   8:../../Middlewares/LVGL/GUI/lvgl/src/misc/lv_array.h **** 
   9:../../Middlewares/LVGL/GUI/lvgl/src/misc/lv_array.h **** #ifdef __cplusplus
  10:../../Middlewares/LVGL/GUI/lvgl/src/misc/lv_array.h **** extern "C" {
  11:../../Middlewares/LVGL/GUI/lvgl/src/misc/lv_array.h **** #endif
  12:../../Middlewares/LVGL/GUI/lvgl/src/misc/lv_array.h **** 
  13:../../Middlewares/LVGL/GUI/lvgl/src/misc/lv_array.h **** /*********************
  14:../../Middlewares/LVGL/GUI/lvgl/src/misc/lv_array.h ****  *      INCLUDES
  15:../../Middlewares/LVGL/GUI/lvgl/src/misc/lv_array.h ****  *********************/
  16:../../Middlewares/LVGL/GUI/lvgl/src/misc/lv_array.h **** #include "lv_types.h"
  17:../../Middlewares/LVGL/GUI/lvgl/src/misc/lv_array.h **** 
  18:../../Middlewares/LVGL/GUI/lvgl/src/misc/lv_array.h **** /*********************
  19:../../Middlewares/LVGL/GUI/lvgl/src/misc/lv_array.h ****  *      DEFINES
  20:../../Middlewares/LVGL/GUI/lvgl/src/misc/lv_array.h ****  *********************/
  21:../../Middlewares/LVGL/GUI/lvgl/src/misc/lv_array.h **** 
  22:../../Middlewares/LVGL/GUI/lvgl/src/misc/lv_array.h **** #ifndef LV_ARRAY_DEFAULT_CAPACITY
  23:../../Middlewares/LVGL/GUI/lvgl/src/misc/lv_array.h **** #define LV_ARRAY_DEFAULT_CAPACITY  4
  24:../../Middlewares/LVGL/GUI/lvgl/src/misc/lv_array.h **** #endif
  25:../../Middlewares/LVGL/GUI/lvgl/src/misc/lv_array.h **** 
  26:../../Middlewares/LVGL/GUI/lvgl/src/misc/lv_array.h **** #ifndef LV_ARRAY_DEFAULT_SHRINK_RATIO
  27:../../Middlewares/LVGL/GUI/lvgl/src/misc/lv_array.h **** #define LV_ARRAY_DEFAULT_SHRINK_RATIO 2
  28:../../Middlewares/LVGL/GUI/lvgl/src/misc/lv_array.h **** #endif
  29:../../Middlewares/LVGL/GUI/lvgl/src/misc/lv_array.h **** 
ARM GAS  C:\Users\28576\AppData\Local\Temp\ccwuB5AB.s 			page 10


  30:../../Middlewares/LVGL/GUI/lvgl/src/misc/lv_array.h **** /**********************
  31:../../Middlewares/LVGL/GUI/lvgl/src/misc/lv_array.h ****  *      TYPEDEFS
  32:../../Middlewares/LVGL/GUI/lvgl/src/misc/lv_array.h ****  **********************/
  33:../../Middlewares/LVGL/GUI/lvgl/src/misc/lv_array.h **** 
  34:../../Middlewares/LVGL/GUI/lvgl/src/misc/lv_array.h **** /** Description of a array*/
  35:../../Middlewares/LVGL/GUI/lvgl/src/misc/lv_array.h **** struct _lv_array_t {
  36:../../Middlewares/LVGL/GUI/lvgl/src/misc/lv_array.h ****     uint8_t * data;
  37:../../Middlewares/LVGL/GUI/lvgl/src/misc/lv_array.h ****     uint32_t size;
  38:../../Middlewares/LVGL/GUI/lvgl/src/misc/lv_array.h ****     uint32_t capacity;
  39:../../Middlewares/LVGL/GUI/lvgl/src/misc/lv_array.h ****     uint32_t element_size;
  40:../../Middlewares/LVGL/GUI/lvgl/src/misc/lv_array.h **** 
  41:../../Middlewares/LVGL/GUI/lvgl/src/misc/lv_array.h ****     bool inner_alloc; /* true: data is allocated by the array; false: data is allocated by the user
  42:../../Middlewares/LVGL/GUI/lvgl/src/misc/lv_array.h **** };
  43:../../Middlewares/LVGL/GUI/lvgl/src/misc/lv_array.h **** 
  44:../../Middlewares/LVGL/GUI/lvgl/src/misc/lv_array.h **** /**********************
  45:../../Middlewares/LVGL/GUI/lvgl/src/misc/lv_array.h ****  * GLOBAL PROTOTYPES
  46:../../Middlewares/LVGL/GUI/lvgl/src/misc/lv_array.h ****  **********************/
  47:../../Middlewares/LVGL/GUI/lvgl/src/misc/lv_array.h **** 
  48:../../Middlewares/LVGL/GUI/lvgl/src/misc/lv_array.h **** /**
  49:../../Middlewares/LVGL/GUI/lvgl/src/misc/lv_array.h ****  * Init an array.
  50:../../Middlewares/LVGL/GUI/lvgl/src/misc/lv_array.h ****  * @param array pointer to an `lv_array_t` variable to initialize
  51:../../Middlewares/LVGL/GUI/lvgl/src/misc/lv_array.h ****  * @param capacity the initial capacity of the array
  52:../../Middlewares/LVGL/GUI/lvgl/src/misc/lv_array.h ****  * @param element_size the size of an element in bytes
  53:../../Middlewares/LVGL/GUI/lvgl/src/misc/lv_array.h ****  */
  54:../../Middlewares/LVGL/GUI/lvgl/src/misc/lv_array.h **** void lv_array_init(lv_array_t * array, uint32_t capacity, uint32_t element_size);
  55:../../Middlewares/LVGL/GUI/lvgl/src/misc/lv_array.h **** 
  56:../../Middlewares/LVGL/GUI/lvgl/src/misc/lv_array.h **** /**
  57:../../Middlewares/LVGL/GUI/lvgl/src/misc/lv_array.h ****  * Init an array from a buffer.
  58:../../Middlewares/LVGL/GUI/lvgl/src/misc/lv_array.h ****  * @note The buffer must be large enough to store `capacity` elements. The array will not release t
  59:../../Middlewares/LVGL/GUI/lvgl/src/misc/lv_array.h ****  *       The user must ensure that the buffer is valid during the lifetime of the array. And releas
  60:../../Middlewares/LVGL/GUI/lvgl/src/misc/lv_array.h ****  * @param array pointer to an `lv_array_t` variable to initialize
  61:../../Middlewares/LVGL/GUI/lvgl/src/misc/lv_array.h ****  * @param buf pointer to a buffer to use as the array's data
  62:../../Middlewares/LVGL/GUI/lvgl/src/misc/lv_array.h ****  * @param capacity the initial capacity of the array
  63:../../Middlewares/LVGL/GUI/lvgl/src/misc/lv_array.h ****  * @param element_size the size of an element in bytes
  64:../../Middlewares/LVGL/GUI/lvgl/src/misc/lv_array.h ****  */
  65:../../Middlewares/LVGL/GUI/lvgl/src/misc/lv_array.h **** void lv_array_init_from_buf(lv_array_t * array, void * buf, uint32_t capacity, uint32_t element_siz
  66:../../Middlewares/LVGL/GUI/lvgl/src/misc/lv_array.h **** 
  67:../../Middlewares/LVGL/GUI/lvgl/src/misc/lv_array.h **** /**
  68:../../Middlewares/LVGL/GUI/lvgl/src/misc/lv_array.h ****  * Resize the array to the given capacity.
  69:../../Middlewares/LVGL/GUI/lvgl/src/misc/lv_array.h ****  * @note if the new capacity is smaller than the current size, the array will be truncated.
  70:../../Middlewares/LVGL/GUI/lvgl/src/misc/lv_array.h ****  * @param array pointer to an `lv_array_t` variable
  71:../../Middlewares/LVGL/GUI/lvgl/src/misc/lv_array.h ****  * @param new_capacity the new capacity of the array
  72:../../Middlewares/LVGL/GUI/lvgl/src/misc/lv_array.h ****  */
  73:../../Middlewares/LVGL/GUI/lvgl/src/misc/lv_array.h **** bool lv_array_resize(lv_array_t * array, uint32_t new_capacity);
  74:../../Middlewares/LVGL/GUI/lvgl/src/misc/lv_array.h **** 
  75:../../Middlewares/LVGL/GUI/lvgl/src/misc/lv_array.h **** /**
  76:../../Middlewares/LVGL/GUI/lvgl/src/misc/lv_array.h ****  * Deinit the array, and free the allocated memory
  77:../../Middlewares/LVGL/GUI/lvgl/src/misc/lv_array.h ****  * @param array pointer to an `lv_array_t` variable to deinitialize
  78:../../Middlewares/LVGL/GUI/lvgl/src/misc/lv_array.h ****  */
  79:../../Middlewares/LVGL/GUI/lvgl/src/misc/lv_array.h **** void lv_array_deinit(lv_array_t * array);
  80:../../Middlewares/LVGL/GUI/lvgl/src/misc/lv_array.h **** 
  81:../../Middlewares/LVGL/GUI/lvgl/src/misc/lv_array.h **** /**
  82:../../Middlewares/LVGL/GUI/lvgl/src/misc/lv_array.h ****  * Return how many elements are stored in the array.
  83:../../Middlewares/LVGL/GUI/lvgl/src/misc/lv_array.h ****  * @param array pointer to an `lv_array_t` variable
  84:../../Middlewares/LVGL/GUI/lvgl/src/misc/lv_array.h ****  * @return the number of elements stored in the array
  85:../../Middlewares/LVGL/GUI/lvgl/src/misc/lv_array.h ****  */
  86:../../Middlewares/LVGL/GUI/lvgl/src/misc/lv_array.h **** static inline uint32_t lv_array_size(const lv_array_t * array)
ARM GAS  C:\Users\28576\AppData\Local\Temp\ccwuB5AB.s 			page 11


  91              		.loc 2 86 24 view .LVU13
  92              	.LBB9:
  87:../../Middlewares/LVGL/GUI/lvgl/src/misc/lv_array.h **** {
  88:../../Middlewares/LVGL/GUI/lvgl/src/misc/lv_array.h ****     return array->size;
  93              		.loc 2 88 5 view .LVU14
  94              		.loc 2 88 5 is_stmt 0 view .LVU15
  95              	.LBE9:
  96              	.LBE8:
 400:../../Middlewares/LVGL/GUI/lvgl/src/misc/lv_event.c **** }
  97              		.loc 1 400 1 view .LVU16
  98 0000 4068     		ldr	r0, [r0, #4]
  99              	.LVL4:
 100              		.loc 1 400 1 view .LVU17
 101 0002 7047     		bx	lr
 102              		.cfi_endproc
 103              	.LFE212:
 105              		.section	.text.event_array_at,"ax",%progbits
 106              		.align	1
 107              		.syntax unified
 108              		.thumb
 109              		.thumb_func
 111              	event_array_at:
 112              	.LVL5:
 113              	.LFB213:
 401:../../Middlewares/LVGL/GUI/lvgl/src/misc/lv_event.c **** static lv_event_dsc_t ** event_array_at(lv_event_list_t * list, uint32_t index)
 402:../../Middlewares/LVGL/GUI/lvgl/src/misc/lv_event.c **** {
 114              		.loc 1 402 1 is_stmt 1 view -0
 115              		.cfi_startproc
 116              		@ args = 0, pretend = 0, frame = 0
 117              		@ frame_needed = 0, uses_anonymous_args = 0
 118              		.loc 1 402 1 is_stmt 0 view .LVU19
 119 0000 08B5     		push	{r3, lr}
 120              	.LCFI0:
 121              		.cfi_def_cfa_offset 8
 122              		.cfi_offset 3, -8
 123              		.cfi_offset 14, -4
 403:../../Middlewares/LVGL/GUI/lvgl/src/misc/lv_event.c ****     return lv_array_at(&list->array, index);
 124              		.loc 1 403 5 is_stmt 1 view .LVU20
 125              		.loc 1 403 12 is_stmt 0 view .LVU21
 126 0002 FFF7FEFF 		bl	lv_array_at
 127              	.LVL6:
 404:../../Middlewares/LVGL/GUI/lvgl/src/misc/lv_event.c **** }
 128              		.loc 1 404 1 view .LVU22
 129 0006 08BD     		pop	{r3, pc}
 130              		.cfi_endproc
 131              	.LFE213:
 133              		.section	.text.cleanup_event_list_core,"ax",%progbits
 134              		.align	1
 135              		.syntax unified
 136              		.thumb
 137              		.thumb_func
 139              	cleanup_event_list_core:
 140              	.LVL7:
 141              	.LFB208:
 361:../../Middlewares/LVGL/GUI/lvgl/src/misc/lv_event.c ****     const uint32_t size = lv_array_size(array);
 142              		.loc 1 361 1 is_stmt 1 view -0
 143              		.cfi_startproc
ARM GAS  C:\Users\28576\AppData\Local\Temp\ccwuB5AB.s 			page 12


 144              		@ args = 0, pretend = 0, frame = 0
 145              		@ frame_needed = 0, uses_anonymous_args = 0
 361:../../Middlewares/LVGL/GUI/lvgl/src/misc/lv_event.c ****     const uint32_t size = lv_array_size(array);
 146              		.loc 1 361 1 is_stmt 0 view .LVU24
 147 0000 2DE9F843 		push	{r3, r4, r5, r6, r7, r8, r9, lr}
 148              	.LCFI1:
 149              		.cfi_def_cfa_offset 32
 150              		.cfi_offset 3, -32
 151              		.cfi_offset 4, -28
 152              		.cfi_offset 5, -24
 153              		.cfi_offset 6, -20
 154              		.cfi_offset 7, -16
 155              		.cfi_offset 8, -12
 156              		.cfi_offset 9, -8
 157              		.cfi_offset 14, -4
 158 0004 8046     		mov	r8, r0
 362:../../Middlewares/LVGL/GUI/lvgl/src/misc/lv_event.c ****     uint32_t kept_count = 0;
 159              		.loc 1 362 5 is_stmt 1 view .LVU25
 160              	.LVL8:
 161              	.LBB10:
 162              	.LBI10:
  86:../../Middlewares/LVGL/GUI/lvgl/src/misc/lv_array.h **** {
 163              		.loc 2 86 24 view .LVU26
 164              	.LBB11:
 165              		.loc 2 88 5 view .LVU27
 166              		.loc 2 88 17 is_stmt 0 view .LVU28
 167 0006 D0F80490 		ldr	r9, [r0, #4]
 168              	.LVL9:
 169              		.loc 2 88 17 view .LVU29
 170              	.LBE11:
 171              	.LBE10:
 363:../../Middlewares/LVGL/GUI/lvgl/src/misc/lv_event.c ****     for(uint32_t i = 0; i < size; i++) {
 172              		.loc 1 363 5 is_stmt 1 view .LVU30
 364:../../Middlewares/LVGL/GUI/lvgl/src/misc/lv_event.c ****         lv_event_dsc_t ** dsc_i = lv_array_at(array, i);
 173              		.loc 1 364 5 view .LVU31
 174              	.LBB12:
 364:../../Middlewares/LVGL/GUI/lvgl/src/misc/lv_event.c ****         lv_event_dsc_t ** dsc_i = lv_array_at(array, i);
 175              		.loc 1 364 9 view .LVU32
 364:../../Middlewares/LVGL/GUI/lvgl/src/misc/lv_event.c ****         lv_event_dsc_t ** dsc_i = lv_array_at(array, i);
 176              		.loc 1 364 18 is_stmt 0 view .LVU33
 177 000a 0024     		movs	r4, #0
 178              	.LBE12:
 363:../../Middlewares/LVGL/GUI/lvgl/src/misc/lv_event.c ****     for(uint32_t i = 0; i < size; i++) {
 179              		.loc 1 363 14 view .LVU34
 180 000c 2746     		mov	r7, r4
 181              	.LBB15:
 364:../../Middlewares/LVGL/GUI/lvgl/src/misc/lv_event.c ****         lv_event_dsc_t ** dsc_i = lv_array_at(array, i);
 182              		.loc 1 364 5 view .LVU35
 183 000e 03E0     		b	.L7
 184              	.LVL10:
 185              	.L15:
 186              	.LBB13:
 367:../../Middlewares/LVGL/GUI/lvgl/src/misc/lv_event.c ****         else {
 187              		.loc 1 367 46 is_stmt 1 discriminator 2 view .LVU36
 188 0010 2846     		mov	r0, r5
 189 0012 FFF7FEFF 		bl	lv_free
 190              	.LVL11:
ARM GAS  C:\Users\28576\AppData\Local\Temp\ccwuB5AB.s 			page 13


 191              	.L9:
 367:../../Middlewares/LVGL/GUI/lvgl/src/misc/lv_event.c ****         else {
 192              		.loc 1 367 46 is_stmt 0 discriminator 2 view .LVU37
 193              	.LBE13:
 364:../../Middlewares/LVGL/GUI/lvgl/src/misc/lv_event.c ****         lv_event_dsc_t ** dsc_i = lv_array_at(array, i);
 194              		.loc 1 364 36 is_stmt 1 discriminator 2 view .LVU38
 195 0016 0134     		adds	r4, r4, #1
 196              	.LVL12:
 197              	.L7:
 364:../../Middlewares/LVGL/GUI/lvgl/src/misc/lv_event.c ****         lv_event_dsc_t ** dsc_i = lv_array_at(array, i);
 198              		.loc 1 364 27 discriminator 1 view .LVU39
 199 0018 4C45     		cmp	r4, r9
 200 001a 12D2     		bcs	.L14
 201              	.LBB14:
 365:../../Middlewares/LVGL/GUI/lvgl/src/misc/lv_event.c ****         lv_event_dsc_t ** dsc_kept = lv_array_at(array, kept_count);
 202              		.loc 1 365 9 view .LVU40
 365:../../Middlewares/LVGL/GUI/lvgl/src/misc/lv_event.c ****         lv_event_dsc_t ** dsc_kept = lv_array_at(array, kept_count);
 203              		.loc 1 365 35 is_stmt 0 view .LVU41
 204 001c 2146     		mov	r1, r4
 205 001e 4046     		mov	r0, r8
 206 0020 FFF7FEFF 		bl	lv_array_at
 207              	.LVL13:
 208 0024 0546     		mov	r5, r0
 209              	.LVL14:
 366:../../Middlewares/LVGL/GUI/lvgl/src/misc/lv_event.c ****         if(event_is_marked_deleting(*dsc_i)) lv_free(*dsc_i);
 210              		.loc 1 366 9 is_stmt 1 view .LVU42
 366:../../Middlewares/LVGL/GUI/lvgl/src/misc/lv_event.c ****         if(event_is_marked_deleting(*dsc_i)) lv_free(*dsc_i);
 211              		.loc 1 366 38 is_stmt 0 view .LVU43
 212 0026 3946     		mov	r1, r7
 213 0028 4046     		mov	r0, r8
 214              	.LVL15:
 366:../../Middlewares/LVGL/GUI/lvgl/src/misc/lv_event.c ****         if(event_is_marked_deleting(*dsc_i)) lv_free(*dsc_i);
 215              		.loc 1 366 38 view .LVU44
 216 002a FFF7FEFF 		bl	lv_array_at
 217              	.LVL16:
 218 002e 0646     		mov	r6, r0
 219              	.LVL17:
 367:../../Middlewares/LVGL/GUI/lvgl/src/misc/lv_event.c ****         else {
 220              		.loc 1 367 9 is_stmt 1 view .LVU45
 367:../../Middlewares/LVGL/GUI/lvgl/src/misc/lv_event.c ****         else {
 221              		.loc 1 367 12 is_stmt 0 view .LVU46
 222 0030 2D68     		ldr	r5, [r5]
 223              	.LVL18:
 367:../../Middlewares/LVGL/GUI/lvgl/src/misc/lv_event.c ****         else {
 224              		.loc 1 367 12 view .LVU47
 225 0032 2846     		mov	r0, r5
 226              	.LVL19:
 367:../../Middlewares/LVGL/GUI/lvgl/src/misc/lv_event.c ****         else {
 227              		.loc 1 367 12 view .LVU48
 228 0034 FFF7FEFF 		bl	event_is_marked_deleting
 229              	.LVL20:
 367:../../Middlewares/LVGL/GUI/lvgl/src/misc/lv_event.c ****         else {
 230              		.loc 1 367 11 discriminator 1 view .LVU49
 231 0038 0028     		cmp	r0, #0
 232 003a E9D1     		bne	.L15
 369:../../Middlewares/LVGL/GUI/lvgl/src/misc/lv_event.c ****             kept_count++;
 233              		.loc 1 369 13 is_stmt 1 view .LVU50
ARM GAS  C:\Users\28576\AppData\Local\Temp\ccwuB5AB.s 			page 14


 369:../../Middlewares/LVGL/GUI/lvgl/src/misc/lv_event.c ****             kept_count++;
 234              		.loc 1 369 23 is_stmt 0 view .LVU51
 235 003c 3560     		str	r5, [r6]
 370:../../Middlewares/LVGL/GUI/lvgl/src/misc/lv_event.c ****         }
 236              		.loc 1 370 13 is_stmt 1 view .LVU52
 370:../../Middlewares/LVGL/GUI/lvgl/src/misc/lv_event.c ****         }
 237              		.loc 1 370 23 is_stmt 0 view .LVU53
 238 003e 0137     		adds	r7, r7, #1
 239              	.LVL21:
 370:../../Middlewares/LVGL/GUI/lvgl/src/misc/lv_event.c ****         }
 240              		.loc 1 370 23 view .LVU54
 241 0040 E9E7     		b	.L9
 242              	.LVL22:
 243              	.L14:
 370:../../Middlewares/LVGL/GUI/lvgl/src/misc/lv_event.c ****         }
 244              		.loc 1 370 23 view .LVU55
 245              	.LBE14:
 246              	.LBE15:
 374:../../Middlewares/LVGL/GUI/lvgl/src/misc/lv_event.c ****     else lv_array_resize(array, kept_count);
 247              		.loc 1 374 5 is_stmt 1 view .LVU56
 374:../../Middlewares/LVGL/GUI/lvgl/src/misc/lv_event.c ****     else lv_array_resize(array, kept_count);
 248              		.loc 1 374 7 is_stmt 0 view .LVU57
 249 0042 27B9     		cbnz	r7, .L11
 374:../../Middlewares/LVGL/GUI/lvgl/src/misc/lv_event.c ****     else lv_array_resize(array, kept_count);
 250              		.loc 1 374 25 is_stmt 1 discriminator 1 view .LVU58
 251 0044 4046     		mov	r0, r8
 252 0046 FFF7FEFF 		bl	lv_array_deinit
 253              	.LVL23:
 254              	.L6:
 376:../../Middlewares/LVGL/GUI/lvgl/src/misc/lv_event.c **** 
 255              		.loc 1 376 1 is_stmt 0 view .LVU59
 256 004a BDE8F883 		pop	{r3, r4, r5, r6, r7, r8, r9, pc}
 257              	.LVL24:
 258              	.L11:
 375:../../Middlewares/LVGL/GUI/lvgl/src/misc/lv_event.c **** }
 259              		.loc 1 375 10 is_stmt 1 view .LVU60
 260 004e 3946     		mov	r1, r7
 261 0050 4046     		mov	r0, r8
 262 0052 FFF7FEFF 		bl	lv_array_resize
 263              	.LVL25:
 376:../../Middlewares/LVGL/GUI/lvgl/src/misc/lv_event.c **** 
 264              		.loc 1 376 1 is_stmt 0 view .LVU61
 265 0056 F8E7     		b	.L6
 266              		.cfi_endproc
 267              	.LFE208:
 269              		.section	.text.cleanup_event_list,"ax",%progbits
 270              		.align	1
 271              		.syntax unified
 272              		.thumb
 273              		.thumb_func
 275              	cleanup_event_list:
 276              	.LVL26:
 277              	.LFB209:
 379:../../Middlewares/LVGL/GUI/lvgl/src/misc/lv_event.c ****     if(list->is_traversing) return;
 278              		.loc 1 379 1 is_stmt 1 view -0
 279              		.cfi_startproc
 280              		@ args = 0, pretend = 0, frame = 0
ARM GAS  C:\Users\28576\AppData\Local\Temp\ccwuB5AB.s 			page 15


 281              		@ frame_needed = 0, uses_anonymous_args = 0
 380:../../Middlewares/LVGL/GUI/lvgl/src/misc/lv_event.c ****     if(list->has_marked_deleting == false) return;
 282              		.loc 1 380 5 view .LVU63
 380:../../Middlewares/LVGL/GUI/lvgl/src/misc/lv_event.c ****     if(list->has_marked_deleting == false) return;
 283              		.loc 1 380 8 is_stmt 0 view .LVU64
 284 0000 037D     		ldrb	r3, [r0, #20]	@ zero_extendqisi2
 380:../../Middlewares/LVGL/GUI/lvgl/src/misc/lv_event.c ****     if(list->has_marked_deleting == false) return;
 285              		.loc 1 380 7 view .LVU65
 286 0002 13F0010F 		tst	r3, #1
 287 0006 0CD1     		bne	.L19
 379:../../Middlewares/LVGL/GUI/lvgl/src/misc/lv_event.c ****     if(list->is_traversing) return;
 288              		.loc 1 379 1 view .LVU66
 289 0008 10B5     		push	{r4, lr}
 290              	.LCFI2:
 291              		.cfi_def_cfa_offset 8
 292              		.cfi_offset 4, -8
 293              		.cfi_offset 14, -4
 294 000a 0446     		mov	r4, r0
 381:../../Middlewares/LVGL/GUI/lvgl/src/misc/lv_event.c **** 
 295              		.loc 1 381 5 is_stmt 1 view .LVU67
 381:../../Middlewares/LVGL/GUI/lvgl/src/misc/lv_event.c **** 
 296              		.loc 1 381 7 is_stmt 0 view .LVU68
 297 000c 13F0020F 		tst	r3, #2
 298 0010 00D1     		bne	.L22
 299              	.LVL27:
 300              	.L16:
 386:../../Middlewares/LVGL/GUI/lvgl/src/misc/lv_event.c **** 
 301              		.loc 1 386 1 view .LVU69
 302 0012 10BD     		pop	{r4, pc}
 303              	.LVL28:
 304              	.L22:
 383:../../Middlewares/LVGL/GUI/lvgl/src/misc/lv_event.c **** 
 305              		.loc 1 383 5 is_stmt 1 view .LVU70
 306 0014 FFF7FEFF 		bl	cleanup_event_list_core
 307              	.LVL29:
 385:../../Middlewares/LVGL/GUI/lvgl/src/misc/lv_event.c **** }
 308              		.loc 1 385 5 view .LVU71
 385:../../Middlewares/LVGL/GUI/lvgl/src/misc/lv_event.c **** }
 309              		.loc 1 385 31 is_stmt 0 view .LVU72
 310 0018 237D     		ldrb	r3, [r4, #20]	@ zero_extendqisi2
 311 001a 23F00203 		bic	r3, r3, #2
 312 001e 2375     		strb	r3, [r4, #20]
 313 0020 F7E7     		b	.L16
 314              	.LVL30:
 315              	.L19:
 316              	.LCFI3:
 317              		.cfi_def_cfa_offset 0
 318              		.cfi_restore 4
 319              		.cfi_restore 14
 385:../../Middlewares/LVGL/GUI/lvgl/src/misc/lv_event.c **** }
 320              		.loc 1 385 31 view .LVU73
 321 0022 7047     		bx	lr
 322              		.cfi_endproc
 323              	.LFE209:
 325              		.section	.text.lv_event_push,"ax",%progbits
 326              		.align	1
 327              		.global	lv_event_push
ARM GAS  C:\Users\28576\AppData\Local\Temp\ccwuB5AB.s 			page 16


 328              		.syntax unified
 329              		.thumb
 330              		.thumb_func
 332              	lv_event_push:
 333              	.LVL31:
 334              	.LFB187:
  58:../../Middlewares/LVGL/GUI/lvgl/src/misc/lv_event.c ****     /*Build a simple linked list from the objects used in the events
 335              		.loc 1 58 1 is_stmt 1 view -0
 336              		.cfi_startproc
 337              		@ args = 0, pretend = 0, frame = 0
 338              		@ frame_needed = 0, uses_anonymous_args = 0
 339              		@ link register save eliminated.
  62:../../Middlewares/LVGL/GUI/lvgl/src/misc/lv_event.c ****     event_head = e;
 340              		.loc 1 62 5 view .LVU75
  62:../../Middlewares/LVGL/GUI/lvgl/src/misc/lv_event.c ****     event_head = e;
 341              		.loc 1 62 15 is_stmt 0 view .LVU76
 342 0000 024B     		ldr	r3, .L24
 343 0002 DA6E     		ldr	r2, [r3, #108]
  62:../../Middlewares/LVGL/GUI/lvgl/src/misc/lv_event.c ****     event_head = e;
 344              		.loc 1 62 13 view .LVU77
 345 0004 4261     		str	r2, [r0, #20]
  63:../../Middlewares/LVGL/GUI/lvgl/src/misc/lv_event.c **** 
 346              		.loc 1 63 5 is_stmt 1 view .LVU78
  63:../../Middlewares/LVGL/GUI/lvgl/src/misc/lv_event.c **** 
 347              		.loc 1 63 16 is_stmt 0 view .LVU79
 348 0006 D866     		str	r0, [r3, #108]
  65:../../Middlewares/LVGL/GUI/lvgl/src/misc/lv_event.c **** 
 349              		.loc 1 65 1 view .LVU80
 350 0008 7047     		bx	lr
 351              	.L25:
 352 000a 00BF     		.align	2
 353              	.L24:
 354 000c 00000000 		.word	lv_global
 355              		.cfi_endproc
 356              	.LFE187:
 358              		.section	.text.lv_event_pop,"ax",%progbits
 359              		.align	1
 360              		.global	lv_event_pop
 361              		.syntax unified
 362              		.thumb
 363              		.thumb_func
 365              	lv_event_pop:
 366              	.LVL32:
 367              	.LFB188:
  68:../../Middlewares/LVGL/GUI/lvgl/src/misc/lv_event.c ****     event_head = e->prev;
 368              		.loc 1 68 1 is_stmt 1 view -0
 369              		.cfi_startproc
 370              		@ args = 0, pretend = 0, frame = 0
 371              		@ frame_needed = 0, uses_anonymous_args = 0
 372              		@ link register save eliminated.
  69:../../Middlewares/LVGL/GUI/lvgl/src/misc/lv_event.c **** }
 373              		.loc 1 69 5 view .LVU82
  69:../../Middlewares/LVGL/GUI/lvgl/src/misc/lv_event.c **** }
 374              		.loc 1 69 19 is_stmt 0 view .LVU83
 375 0000 4269     		ldr	r2, [r0, #20]
  69:../../Middlewares/LVGL/GUI/lvgl/src/misc/lv_event.c **** }
 376              		.loc 1 69 16 view .LVU84
ARM GAS  C:\Users\28576\AppData\Local\Temp\ccwuB5AB.s 			page 17


 377 0002 014B     		ldr	r3, .L27
 378 0004 DA66     		str	r2, [r3, #108]
  70:../../Middlewares/LVGL/GUI/lvgl/src/misc/lv_event.c **** 
 379              		.loc 1 70 1 view .LVU85
 380 0006 7047     		bx	lr
 381              	.L28:
 382              		.align	2
 383              	.L27:
 384 0008 00000000 		.word	lv_global
 385              		.cfi_endproc
 386              	.LFE188:
 388              		.section	.text.lv_event_send,"ax",%progbits
 389              		.align	1
 390              		.global	lv_event_send
 391              		.syntax unified
 392              		.thumb
 393              		.thumb_func
 395              	lv_event_send:
 396              	.LVL33:
 397              	.LFB189:
  73:../../Middlewares/LVGL/GUI/lvgl/src/misc/lv_event.c ****     if(list == NULL) return LV_RESULT_OK;
 398              		.loc 1 73 1 is_stmt 1 view -0
 399              		.cfi_startproc
 400              		@ args = 0, pretend = 0, frame = 24
 401              		@ frame_needed = 0, uses_anonymous_args = 0
  73:../../Middlewares/LVGL/GUI/lvgl/src/misc/lv_event.c ****     if(list == NULL) return LV_RESULT_OK;
 402              		.loc 1 73 1 is_stmt 0 view .LVU87
 403 0000 2DE9F047 		push	{r4, r5, r6, r7, r8, r9, r10, lr}
 404              	.LCFI4:
 405              		.cfi_def_cfa_offset 32
 406              		.cfi_offset 4, -32
 407              		.cfi_offset 5, -28
 408              		.cfi_offset 6, -24
 409              		.cfi_offset 7, -20
 410              		.cfi_offset 8, -16
 411              		.cfi_offset 9, -12
 412              		.cfi_offset 10, -8
 413              		.cfi_offset 14, -4
 414 0004 86B0     		sub	sp, sp, #24
 415              	.LCFI5:
 416              		.cfi_def_cfa_offset 56
  74:../../Middlewares/LVGL/GUI/lvgl/src/misc/lv_event.c ****     if(e->deleted) return LV_RESULT_INVALID;
 417              		.loc 1 74 5 is_stmt 1 view .LVU88
  74:../../Middlewares/LVGL/GUI/lvgl/src/misc/lv_event.c ****     if(e->deleted) return LV_RESULT_INVALID;
 418              		.loc 1 74 7 is_stmt 0 view .LVU89
 419 0006 0028     		cmp	r0, #0
 420 0008 5AD0     		beq	.L37
 421 000a 0E46     		mov	r6, r1
 422 000c 9146     		mov	r9, r2
 423 000e 0746     		mov	r7, r0
  75:../../Middlewares/LVGL/GUI/lvgl/src/misc/lv_event.c **** 
 424              		.loc 1 75 5 is_stmt 1 view .LVU90
  75:../../Middlewares/LVGL/GUI/lvgl/src/misc/lv_event.c **** 
 425              		.loc 1 75 8 is_stmt 0 view .LVU91
 426 0010 0B7E     		ldrb	r3, [r1, #24]	@ zero_extendqisi2
  75:../../Middlewares/LVGL/GUI/lvgl/src/misc/lv_event.c **** 
 427              		.loc 1 75 7 view .LVU92
ARM GAS  C:\Users\28576\AppData\Local\Temp\ccwuB5AB.s 			page 18


 428 0012 13F0010F 		tst	r3, #1
 429 0016 55D1     		bne	.L38
  81:../../Middlewares/LVGL/GUI/lvgl/src/misc/lv_event.c **** 
 430              		.loc 1 81 5 is_stmt 1 view .LVU93
  81:../../Middlewares/LVGL/GUI/lvgl/src/misc/lv_event.c **** 
 431              		.loc 1 81 16 is_stmt 0 view .LVU94
 432 0018 01AC     		add	r4, sp, #4
 433 001a 0546     		mov	r5, r0
 434 001c 0FCD     		ldmia	r5!, {r0, r1, r2, r3}
 435              	.LVL34:
  81:../../Middlewares/LVGL/GUI/lvgl/src/misc/lv_event.c **** 
 436              		.loc 1 81 16 view .LVU95
 437 001e 0FC4     		stmia	r4!, {r0, r1, r2, r3}
 438 0020 2B68     		ldr	r3, [r5]
 439 0022 2360     		str	r3, [r4]
  84:../../Middlewares/LVGL/GUI/lvgl/src/misc/lv_event.c ****     list->is_traversing = true;
 440              		.loc 1 84 5 is_stmt 1 view .LVU96
  84:../../Middlewares/LVGL/GUI/lvgl/src/misc/lv_event.c ****     list->is_traversing = true;
 441              		.loc 1 84 16 is_stmt 0 view .LVU97
 442 0024 3B7D     		ldrb	r3, [r7, #20]	@ zero_extendqisi2
 443 0026 03F00102 		and	r2, r3, #1
 444 002a 9246     		mov	r10, r2
 445              	.LVL35:
  85:../../Middlewares/LVGL/GUI/lvgl/src/misc/lv_event.c **** 
 446              		.loc 1 85 5 is_stmt 1 view .LVU98
  85:../../Middlewares/LVGL/GUI/lvgl/src/misc/lv_event.c **** 
 447              		.loc 1 85 25 is_stmt 0 view .LVU99
 448 002c 43F00103 		orr	r3, r3, #1
 449              	.LVL36:
  85:../../Middlewares/LVGL/GUI/lvgl/src/misc/lv_event.c **** 
 450              		.loc 1 85 25 view .LVU100
 451 0030 3B75     		strb	r3, [r7, #20]
 452              	.LVL37:
  87:../../Middlewares/LVGL/GUI/lvgl/src/misc/lv_event.c ****     const uint32_t size = event_array_size(list);
 453              		.loc 1 87 5 is_stmt 1 view .LVU101
  88:../../Middlewares/LVGL/GUI/lvgl/src/misc/lv_event.c ****     for(uint32_t i = 0; i < size && !e->deleted; i++) {
 454              		.loc 1 88 5 view .LVU102
  88:../../Middlewares/LVGL/GUI/lvgl/src/misc/lv_event.c ****     for(uint32_t i = 0; i < size && !e->deleted; i++) {
 455              		.loc 1 88 27 is_stmt 0 view .LVU103
 456 0032 3846     		mov	r0, r7
 457 0034 FFF7FEFF 		bl	event_array_size
 458              	.LVL38:
 459 0038 8046     		mov	r8, r0
 460              	.LVL39:
  89:../../Middlewares/LVGL/GUI/lvgl/src/misc/lv_event.c ****         lv_event_dsc_t * dsc = *event_array_at(list, i);
 461              		.loc 1 89 5 is_stmt 1 view .LVU104
 462              	.LBB16:
  89:../../Middlewares/LVGL/GUI/lvgl/src/misc/lv_event.c ****         lv_event_dsc_t * dsc = *event_array_at(list, i);
 463              		.loc 1 89 9 view .LVU105
  89:../../Middlewares/LVGL/GUI/lvgl/src/misc/lv_event.c ****         lv_event_dsc_t * dsc = *event_array_at(list, i);
 464              		.loc 1 89 18 is_stmt 0 view .LVU106
 465 003a 0025     		movs	r5, #0
  89:../../Middlewares/LVGL/GUI/lvgl/src/misc/lv_event.c ****         lv_event_dsc_t * dsc = *event_array_at(list, i);
 466              		.loc 1 89 5 view .LVU107
 467 003c 0CE0     		b	.L31
 468              	.LVL40:
 469              	.L33:
ARM GAS  C:\Users\28576\AppData\Local\Temp\ccwuB5AB.s 			page 19


 470              	.LBB17:
  97:../../Middlewares/LVGL/GUI/lvgl/src/misc/lv_event.c ****             dsc->cb(e);
 471              		.loc 1 97 13 is_stmt 1 view .LVU108
  97:../../Middlewares/LVGL/GUI/lvgl/src/misc/lv_event.c ****             dsc->cb(e);
 472              		.loc 1 97 31 is_stmt 0 view .LVU109
 473 003e 6368     		ldr	r3, [r4, #4]
 474              	.LVL41:
  97:../../Middlewares/LVGL/GUI/lvgl/src/misc/lv_event.c ****             dsc->cb(e);
 475              		.loc 1 97 26 view .LVU110
 476 0040 F360     		str	r3, [r6, #12]
 477              	.LVL42:
  98:../../Middlewares/LVGL/GUI/lvgl/src/misc/lv_event.c ****             if(e->stop_processing) break;
 478              		.loc 1 98 13 is_stmt 1 view .LVU111
  98:../../Middlewares/LVGL/GUI/lvgl/src/misc/lv_event.c ****             if(e->stop_processing) break;
 479              		.loc 1 98 16 is_stmt 0 view .LVU112
 480 0042 2368     		ldr	r3, [r4]
  98:../../Middlewares/LVGL/GUI/lvgl/src/misc/lv_event.c ****             if(e->stop_processing) break;
 481              		.loc 1 98 13 view .LVU113
 482 0044 3046     		mov	r0, r6
 483 0046 9847     		blx	r3
 484              	.LVL43:
  99:../../Middlewares/LVGL/GUI/lvgl/src/misc/lv_event.c **** 
 485              		.loc 1 99 13 is_stmt 1 view .LVU114
  99:../../Middlewares/LVGL/GUI/lvgl/src/misc/lv_event.c **** 
 486              		.loc 1 99 16 is_stmt 0 view .LVU115
 487 0048 337E     		ldrb	r3, [r6, #24]	@ zero_extendqisi2
  99:../../Middlewares/LVGL/GUI/lvgl/src/misc/lv_event.c **** 
 488              		.loc 1 99 15 view .LVU116
 489 004a 13F00204 		ands	r4, r3, #2
 490              	.LVL44:
  99:../../Middlewares/LVGL/GUI/lvgl/src/misc/lv_event.c **** 
 491              		.loc 1 99 15 view .LVU117
 492 004e 22D1     		bne	.L39
 102:../../Middlewares/LVGL/GUI/lvgl/src/misc/lv_event.c ****                 res = LV_RESULT_INVALID;
 493              		.loc 1 102 13 is_stmt 1 view .LVU118
 102:../../Middlewares/LVGL/GUI/lvgl/src/misc/lv_event.c ****                 res = LV_RESULT_INVALID;
 494              		.loc 1 102 15 is_stmt 0 view .LVU119
 495 0050 13F0010F 		tst	r3, #1
 496 0054 22D1     		bne	.L34
 497              	.LVL45:
 498              	.L32:
 102:../../Middlewares/LVGL/GUI/lvgl/src/misc/lv_event.c ****                 res = LV_RESULT_INVALID;
 499              		.loc 1 102 15 view .LVU120
 500              	.LBE17:
  89:../../Middlewares/LVGL/GUI/lvgl/src/misc/lv_event.c ****         lv_event_dsc_t * dsc = *event_array_at(list, i);
 501              		.loc 1 89 51 is_stmt 1 discriminator 2 view .LVU121
 502 0056 0135     		adds	r5, r5, #1
 503              	.LVL46:
 504              	.L31:
  89:../../Middlewares/LVGL/GUI/lvgl/src/misc/lv_event.c ****         lv_event_dsc_t * dsc = *event_array_at(list, i);
 505              		.loc 1 89 34 discriminator 1 view .LVU122
 506 0058 4545     		cmp	r5, r8
 507 005a 1ED2     		bcs	.L40
  89:../../Middlewares/LVGL/GUI/lvgl/src/misc/lv_event.c ****         lv_event_dsc_t * dsc = *event_array_at(list, i);
 508              		.loc 1 89 37 is_stmt 0 discriminator 3 view .LVU123
 509 005c 337E     		ldrb	r3, [r6, #24]	@ zero_extendqisi2
  89:../../Middlewares/LVGL/GUI/lvgl/src/misc/lv_event.c ****         lv_event_dsc_t * dsc = *event_array_at(list, i);
ARM GAS  C:\Users\28576\AppData\Local\Temp\ccwuB5AB.s 			page 20


 510              		.loc 1 89 34 discriminator 3 view .LVU124
 511 005e 13F00104 		ands	r4, r3, #1
 512 0062 1BD1     		bne	.L34
 513              	.LBB18:
  90:../../Middlewares/LVGL/GUI/lvgl/src/misc/lv_event.c ****         if(dsc->cb == NULL) continue;
 514              		.loc 1 90 9 is_stmt 1 view .LVU125
  90:../../Middlewares/LVGL/GUI/lvgl/src/misc/lv_event.c ****         if(dsc->cb == NULL) continue;
 515              		.loc 1 90 33 is_stmt 0 view .LVU126
 516 0064 2946     		mov	r1, r5
 517 0066 3846     		mov	r0, r7
 518 0068 FFF7FEFF 		bl	event_array_at
 519              	.LVL47:
  90:../../Middlewares/LVGL/GUI/lvgl/src/misc/lv_event.c ****         if(dsc->cb == NULL) continue;
 520              		.loc 1 90 26 discriminator 1 view .LVU127
 521 006c 0468     		ldr	r4, [r0]
 522              	.LVL48:
  91:../../Middlewares/LVGL/GUI/lvgl/src/misc/lv_event.c ****         if(event_is_marked_deleting(dsc)) continue;
 523              		.loc 1 91 9 is_stmt 1 view .LVU128
  91:../../Middlewares/LVGL/GUI/lvgl/src/misc/lv_event.c ****         if(event_is_marked_deleting(dsc)) continue;
 524              		.loc 1 91 15 is_stmt 0 view .LVU129
 525 006e 2368     		ldr	r3, [r4]
  91:../../Middlewares/LVGL/GUI/lvgl/src/misc/lv_event.c ****         if(event_is_marked_deleting(dsc)) continue;
 526              		.loc 1 91 11 view .LVU130
 527 0070 002B     		cmp	r3, #0
 528 0072 F0D0     		beq	.L32
  92:../../Middlewares/LVGL/GUI/lvgl/src/misc/lv_event.c ****         const bool is_preprocessed = (dsc->filter & LV_EVENT_PREPROCESS) != 0;
 529              		.loc 1 92 9 is_stmt 1 view .LVU131
  92:../../Middlewares/LVGL/GUI/lvgl/src/misc/lv_event.c ****         const bool is_preprocessed = (dsc->filter & LV_EVENT_PREPROCESS) != 0;
 530              		.loc 1 92 12 is_stmt 0 view .LVU132
 531 0074 2046     		mov	r0, r4
 532 0076 FFF7FEFF 		bl	event_is_marked_deleting
 533              	.LVL49:
  92:../../Middlewares/LVGL/GUI/lvgl/src/misc/lv_event.c ****         const bool is_preprocessed = (dsc->filter & LV_EVENT_PREPROCESS) != 0;
 534              		.loc 1 92 11 discriminator 1 view .LVU133
 535 007a 0028     		cmp	r0, #0
 536 007c EBD1     		bne	.L32
  93:../../Middlewares/LVGL/GUI/lvgl/src/misc/lv_event.c ****         if(is_preprocessed != preprocess) continue;
 537              		.loc 1 93 9 is_stmt 1 view .LVU134
  93:../../Middlewares/LVGL/GUI/lvgl/src/misc/lv_event.c ****         if(is_preprocessed != preprocess) continue;
 538              		.loc 1 93 42 is_stmt 0 view .LVU135
 539 007e A368     		ldr	r3, [r4, #8]
  93:../../Middlewares/LVGL/GUI/lvgl/src/misc/lv_event.c ****         if(is_preprocessed != preprocess) continue;
 540              		.loc 1 93 20 view .LVU136
 541 0080 C3F3C032 		ubfx	r2, r3, #15, #1
 542              	.LVL50:
  94:../../Middlewares/LVGL/GUI/lvgl/src/misc/lv_event.c ****         lv_event_code_t filter = dsc->filter & ~LV_EVENT_PREPROCESS;
 543              		.loc 1 94 9 is_stmt 1 view .LVU137
  94:../../Middlewares/LVGL/GUI/lvgl/src/misc/lv_event.c ****         lv_event_code_t filter = dsc->filter & ~LV_EVENT_PREPROCESS;
 544              		.loc 1 94 11 is_stmt 0 view .LVU138
 545 0084 4A45     		cmp	r2, r9
 546 0086 E6D1     		bne	.L32
  95:../../Middlewares/LVGL/GUI/lvgl/src/misc/lv_event.c ****         if(filter == LV_EVENT_ALL || filter == e->code) {
 547              		.loc 1 95 9 is_stmt 1 view .LVU139
 548              	.LVL51:
  96:../../Middlewares/LVGL/GUI/lvgl/src/misc/lv_event.c ****             e->user_data = dsc->user_data;
 549              		.loc 1 96 9 view .LVU140
  96:../../Middlewares/LVGL/GUI/lvgl/src/misc/lv_event.c ****             e->user_data = dsc->user_data;
ARM GAS  C:\Users\28576\AppData\Local\Temp\ccwuB5AB.s 			page 21


 550              		.loc 1 96 11 is_stmt 0 view .LVU141
 551 0088 33F40043 		bics	r3, r3, #32768
 552              	.LVL52:
  96:../../Middlewares/LVGL/GUI/lvgl/src/misc/lv_event.c ****             e->user_data = dsc->user_data;
 553              		.loc 1 96 11 view .LVU142
 554 008c D7D0     		beq	.L33
  96:../../Middlewares/LVGL/GUI/lvgl/src/misc/lv_event.c ****             e->user_data = dsc->user_data;
 555              		.loc 1 96 49 discriminator 1 view .LVU143
 556 008e B268     		ldr	r2, [r6, #8]
  96:../../Middlewares/LVGL/GUI/lvgl/src/misc/lv_event.c ****             e->user_data = dsc->user_data;
 557              		.loc 1 96 35 discriminator 1 view .LVU144
 558 0090 9A42     		cmp	r2, r3
 559 0092 E0D1     		bne	.L32
 560 0094 D3E7     		b	.L33
 561              	.LVL53:
 562              	.L39:
  96:../../Middlewares/LVGL/GUI/lvgl/src/misc/lv_event.c ****             e->user_data = dsc->user_data;
 563              		.loc 1 96 35 discriminator 1 view .LVU145
 564              	.LBE18:
 565              	.LBE16:
  87:../../Middlewares/LVGL/GUI/lvgl/src/misc/lv_event.c ****     const uint32_t size = event_array_size(list);
 566              		.loc 1 87 17 view .LVU146
 567 0096 0124     		movs	r4, #1
 568 0098 00E0     		b	.L34
 569              	.LVL54:
 570              	.L40:
  87:../../Middlewares/LVGL/GUI/lvgl/src/misc/lv_event.c ****     const uint32_t size = event_array_size(list);
 571              		.loc 1 87 17 view .LVU147
 572 009a 0124     		movs	r4, #1
 573              	.L34:
 574              	.LVL55:
 109:../../Middlewares/LVGL/GUI/lvgl/src/misc/lv_event.c **** 
 575              		.loc 1 109 5 is_stmt 1 view .LVU148
 109:../../Middlewares/LVGL/GUI/lvgl/src/misc/lv_event.c **** 
 576              		.loc 1 109 7 is_stmt 0 view .LVU149
 577 009c 5346     		mov	r3, r10
 578 009e 93B9     		cbnz	r3, .L30
 111:../../Middlewares/LVGL/GUI/lvgl/src/misc/lv_event.c ****     else {
 579              		.loc 1 111 5 is_stmt 1 view .LVU150
 111:../../Middlewares/LVGL/GUI/lvgl/src/misc/lv_event.c ****     else {
 580              		.loc 1 111 8 is_stmt 0 view .LVU151
 581 00a0 337E     		ldrb	r3, [r6, #24]	@ zero_extendqisi2
 111:../../Middlewares/LVGL/GUI/lvgl/src/misc/lv_event.c ****     else {
 582              		.loc 1 111 7 view .LVU152
 583 00a2 13F0010F 		tst	r3, #1
 584 00a6 03D0     		beq	.L36
 111:../../Middlewares/LVGL/GUI/lvgl/src/misc/lv_event.c ****     else {
 585              		.loc 1 111 20 is_stmt 1 discriminator 1 view .LVU153
 586 00a8 01A8     		add	r0, sp, #4
 587 00aa FFF7FEFF 		bl	cleanup_event_list_core
 588              	.LVL56:
 589 00ae 0AE0     		b	.L30
 590              	.L36:
 113:../../Middlewares/LVGL/GUI/lvgl/src/misc/lv_event.c ****         cleanup_event_list(list);
 591              		.loc 1 113 9 view .LVU154
 113:../../Middlewares/LVGL/GUI/lvgl/src/misc/lv_event.c ****         cleanup_event_list(list);
 592              		.loc 1 113 29 is_stmt 0 view .LVU155
ARM GAS  C:\Users\28576\AppData\Local\Temp\ccwuB5AB.s 			page 22


 593 00b0 3B7D     		ldrb	r3, [r7, #20]	@ zero_extendqisi2
 594 00b2 23F00103 		bic	r3, r3, #1
 595 00b6 3B75     		strb	r3, [r7, #20]
 114:../../Middlewares/LVGL/GUI/lvgl/src/misc/lv_event.c ****     }
 596              		.loc 1 114 9 is_stmt 1 view .LVU156
 597 00b8 3846     		mov	r0, r7
 598 00ba FFF7FEFF 		bl	cleanup_event_list
 599              	.LVL57:
 600 00be 02E0     		b	.L30
 601              	.LVL58:
 602              	.L37:
  74:../../Middlewares/LVGL/GUI/lvgl/src/misc/lv_event.c ****     if(e->deleted) return LV_RESULT_INVALID;
 603              		.loc 1 74 29 is_stmt 0 discriminator 1 view .LVU157
 604 00c0 0124     		movs	r4, #1
 605 00c2 00E0     		b	.L30
 606              	.L38:
  75:../../Middlewares/LVGL/GUI/lvgl/src/misc/lv_event.c **** 
 607              		.loc 1 75 27 discriminator 1 view .LVU158
 608 00c4 0024     		movs	r4, #0
 609              	.LVL59:
 610              	.L30:
 118:../../Middlewares/LVGL/GUI/lvgl/src/misc/lv_event.c **** 
 611              		.loc 1 118 1 view .LVU159
 612 00c6 2046     		mov	r0, r4
 613 00c8 06B0     		add	sp, sp, #24
 614              	.LCFI6:
 615              		.cfi_def_cfa_offset 32
 616              		@ sp needed
 617 00ca BDE8F087 		pop	{r4, r5, r6, r7, r8, r9, r10, pc}
 618              		.cfi_endproc
 619              	.LFE189:
 621              		.section	.text.lv_event_add,"ax",%progbits
 622              		.align	1
 623              		.global	lv_event_add
 624              		.syntax unified
 625              		.thumb
 626              		.thumb_func
 628              	lv_event_add:
 629              	.LVL60:
 630              	.LFB190:
 122:../../Middlewares/LVGL/GUI/lvgl/src/misc/lv_event.c ****     lv_event_dsc_t * dsc = lv_malloc(sizeof(lv_event_dsc_t));
 631              		.loc 1 122 1 is_stmt 1 view -0
 632              		.cfi_startproc
 633              		@ args = 0, pretend = 0, frame = 8
 634              		@ frame_needed = 0, uses_anonymous_args = 0
 122:../../Middlewares/LVGL/GUI/lvgl/src/misc/lv_event.c ****     lv_event_dsc_t * dsc = lv_malloc(sizeof(lv_event_dsc_t));
 635              		.loc 1 122 1 is_stmt 0 view .LVU161
 636 0000 F0B5     		push	{r4, r5, r6, r7, lr}
 637              	.LCFI7:
 638              		.cfi_def_cfa_offset 20
 639              		.cfi_offset 4, -20
 640              		.cfi_offset 5, -16
 641              		.cfi_offset 6, -12
 642              		.cfi_offset 7, -8
 643              		.cfi_offset 14, -4
 644 0002 83B0     		sub	sp, sp, #12
 645              	.LCFI8:
ARM GAS  C:\Users\28576\AppData\Local\Temp\ccwuB5AB.s 			page 23


 646              		.cfi_def_cfa_offset 32
 647 0004 0446     		mov	r4, r0
 648 0006 0D46     		mov	r5, r1
 649 0008 1646     		mov	r6, r2
 650 000a 1F46     		mov	r7, r3
 123:../../Middlewares/LVGL/GUI/lvgl/src/misc/lv_event.c ****     LV_ASSERT_NULL(dsc);
 651              		.loc 1 123 5 is_stmt 1 view .LVU162
 123:../../Middlewares/LVGL/GUI/lvgl/src/misc/lv_event.c ****     LV_ASSERT_NULL(dsc);
 652              		.loc 1 123 28 is_stmt 0 view .LVU163
 653 000c 0C20     		movs	r0, #12
 654              	.LVL61:
 123:../../Middlewares/LVGL/GUI/lvgl/src/misc/lv_event.c ****     LV_ASSERT_NULL(dsc);
 655              		.loc 1 123 28 view .LVU164
 656 000e FFF7FEFF 		bl	lv_malloc
 657              	.LVL62:
 123:../../Middlewares/LVGL/GUI/lvgl/src/misc/lv_event.c ****     LV_ASSERT_NULL(dsc);
 658              		.loc 1 123 22 discriminator 1 view .LVU165
 659 0012 0190     		str	r0, [sp, #4]
 124:../../Middlewares/LVGL/GUI/lvgl/src/misc/lv_event.c **** 
 660              		.loc 1 124 5 is_stmt 1 view .LVU166
 124:../../Middlewares/LVGL/GUI/lvgl/src/misc/lv_event.c **** 
 661              		.loc 1 124 5 view .LVU167
 662 0014 70B1     		cbz	r0, .L44
 124:../../Middlewares/LVGL/GUI/lvgl/src/misc/lv_event.c **** 
 663              		.loc 1 124 5 view .LVU168
 124:../../Middlewares/LVGL/GUI/lvgl/src/misc/lv_event.c **** 
 664              		.loc 1 124 24 view .LVU169
 126:../../Middlewares/LVGL/GUI/lvgl/src/misc/lv_event.c ****     dsc->filter = filter;
 665              		.loc 1 126 5 view .LVU170
 126:../../Middlewares/LVGL/GUI/lvgl/src/misc/lv_event.c ****     dsc->filter = filter;
 666              		.loc 1 126 13 is_stmt 0 view .LVU171
 667 0016 0560     		str	r5, [r0]
 127:../../Middlewares/LVGL/GUI/lvgl/src/misc/lv_event.c ****     dsc->user_data = user_data;
 668              		.loc 1 127 5 is_stmt 1 view .LVU172
 127:../../Middlewares/LVGL/GUI/lvgl/src/misc/lv_event.c ****     dsc->user_data = user_data;
 669              		.loc 1 127 8 is_stmt 0 view .LVU173
 670 0018 019B     		ldr	r3, [sp, #4]
 127:../../Middlewares/LVGL/GUI/lvgl/src/misc/lv_event.c ****     dsc->user_data = user_data;
 671              		.loc 1 127 17 view .LVU174
 672 001a 9E60     		str	r6, [r3, #8]
 128:../../Middlewares/LVGL/GUI/lvgl/src/misc/lv_event.c **** 
 673              		.loc 1 128 5 is_stmt 1 view .LVU175
 128:../../Middlewares/LVGL/GUI/lvgl/src/misc/lv_event.c **** 
 674              		.loc 1 128 20 is_stmt 0 view .LVU176
 675 001c 5F60     		str	r7, [r3, #4]
 130:../../Middlewares/LVGL/GUI/lvgl/src/misc/lv_event.c ****         /*event list hasn't been initialized.*/
 676              		.loc 1 130 5 is_stmt 1 view .LVU177
 130:../../Middlewares/LVGL/GUI/lvgl/src/misc/lv_event.c ****         /*event list hasn't been initialized.*/
 677              		.loc 1 130 8 is_stmt 0 view .LVU178
 678 001e 2046     		mov	r0, r4
 679 0020 FFF7FEFF 		bl	event_array_size
 680              	.LVL63:
 130:../../Middlewares/LVGL/GUI/lvgl/src/misc/lv_event.c ****         /*event list hasn't been initialized.*/
 681              		.loc 1 130 7 discriminator 1 view .LVU179
 682 0024 38B1     		cbz	r0, .L47
 683              	.L45:
 135:../../Middlewares/LVGL/GUI/lvgl/src/misc/lv_event.c ****     return dsc;
ARM GAS  C:\Users\28576\AppData\Local\Temp\ccwuB5AB.s 			page 24


 684              		.loc 1 135 5 is_stmt 1 view .LVU180
 685 0026 01A9     		add	r1, sp, #4
 686 0028 2046     		mov	r0, r4
 687 002a FFF7FEFF 		bl	lv_array_push_back
 688              	.LVL64:
 136:../../Middlewares/LVGL/GUI/lvgl/src/misc/lv_event.c **** }
 689              		.loc 1 136 5 view .LVU181
 137:../../Middlewares/LVGL/GUI/lvgl/src/misc/lv_event.c **** 
 690              		.loc 1 137 1 is_stmt 0 view .LVU182
 691 002e 0198     		ldr	r0, [sp, #4]
 692 0030 03B0     		add	sp, sp, #12
 693              	.LCFI9:
 694              		.cfi_remember_state
 695              		.cfi_def_cfa_offset 20
 696              		@ sp needed
 697 0032 F0BD     		pop	{r4, r5, r6, r7, pc}
 698              	.LVL65:
 699              	.L44:
 700              	.LCFI10:
 701              		.cfi_restore_state
 124:../../Middlewares/LVGL/GUI/lvgl/src/misc/lv_event.c **** 
 702              		.loc 1 124 5 is_stmt 1 view .LVU183
 124:../../Middlewares/LVGL/GUI/lvgl/src/misc/lv_event.c **** 
 703              		.loc 1 124 5 view .LVU184
 124:../../Middlewares/LVGL/GUI/lvgl/src/misc/lv_event.c **** 
 704              		.loc 1 124 5 view .LVU185
 124:../../Middlewares/LVGL/GUI/lvgl/src/misc/lv_event.c **** 
 705              		.loc 1 124 5 view .LVU186
 124:../../Middlewares/LVGL/GUI/lvgl/src/misc/lv_event.c **** 
 706              		.loc 1 124 5 view .LVU187
 707 0034 FEE7     		b	.L44
 708              	.L47:
 132:../../Middlewares/LVGL/GUI/lvgl/src/misc/lv_event.c ****     }
 709              		.loc 1 132 9 view .LVU188
 710 0036 0422     		movs	r2, #4
 711 0038 0121     		movs	r1, #1
 712 003a 2046     		mov	r0, r4
 713 003c FFF7FEFF 		bl	lv_array_init
 714              	.LVL66:
 715 0040 F1E7     		b	.L45
 716              		.cfi_endproc
 717              	.LFE190:
 719              		.section	.text.lv_event_remove_dsc,"ax",%progbits
 720              		.align	1
 721              		.global	lv_event_remove_dsc
 722              		.syntax unified
 723              		.thumb
 724              		.thumb_func
 726              	lv_event_remove_dsc:
 727              	.LVL67:
 728              	.LFB191:
 140:../../Middlewares/LVGL/GUI/lvgl/src/misc/lv_event.c ****     LV_ASSERT_NULL(list);
 729              		.loc 1 140 1 view -0
 730              		.cfi_startproc
 731              		@ args = 0, pretend = 0, frame = 0
 732              		@ frame_needed = 0, uses_anonymous_args = 0
 141:../../Middlewares/LVGL/GUI/lvgl/src/misc/lv_event.c ****     LV_ASSERT_NULL(dsc);
ARM GAS  C:\Users\28576\AppData\Local\Temp\ccwuB5AB.s 			page 25


 733              		.loc 1 141 5 view .LVU190
 141:../../Middlewares/LVGL/GUI/lvgl/src/misc/lv_event.c ****     LV_ASSERT_NULL(dsc);
 734              		.loc 1 141 5 view .LVU191
 735 0000 90B1     		cbz	r0, .L50
 140:../../Middlewares/LVGL/GUI/lvgl/src/misc/lv_event.c ****     LV_ASSERT_NULL(list);
 736              		.loc 1 140 1 is_stmt 0 view .LVU192
 737 0002 F8B5     		push	{r3, r4, r5, r6, r7, lr}
 738              	.LCFI11:
 739              		.cfi_def_cfa_offset 24
 740              		.cfi_offset 3, -24
 741              		.cfi_offset 4, -20
 742              		.cfi_offset 5, -16
 743              		.cfi_offset 6, -12
 744              		.cfi_offset 7, -8
 745              		.cfi_offset 14, -4
 746 0004 0D46     		mov	r5, r1
 747 0006 0646     		mov	r6, r0
 141:../../Middlewares/LVGL/GUI/lvgl/src/misc/lv_event.c ****     LV_ASSERT_NULL(dsc);
 748              		.loc 1 141 5 is_stmt 1 view .LVU193
 141:../../Middlewares/LVGL/GUI/lvgl/src/misc/lv_event.c ****     LV_ASSERT_NULL(dsc);
 749              		.loc 1 141 25 view .LVU194
 142:../../Middlewares/LVGL/GUI/lvgl/src/misc/lv_event.c **** 
 750              		.loc 1 142 5 view .LVU195
 142:../../Middlewares/LVGL/GUI/lvgl/src/misc/lv_event.c **** 
 751              		.loc 1 142 5 view .LVU196
 752 0008 79B1     		cbz	r1, .L52
 142:../../Middlewares/LVGL/GUI/lvgl/src/misc/lv_event.c **** 
 753              		.loc 1 142 5 view .LVU197
 142:../../Middlewares/LVGL/GUI/lvgl/src/misc/lv_event.c **** 
 754              		.loc 1 142 24 view .LVU198
 144:../../Middlewares/LVGL/GUI/lvgl/src/misc/lv_event.c ****     for(uint32_t i = 0; i < size; i++) {
 755              		.loc 1 144 5 view .LVU199
 144:../../Middlewares/LVGL/GUI/lvgl/src/misc/lv_event.c ****     for(uint32_t i = 0; i < size; i++) {
 756              		.loc 1 144 27 is_stmt 0 view .LVU200
 757 000a FFF7FEFF 		bl	event_array_size
 758              	.LVL68:
 144:../../Middlewares/LVGL/GUI/lvgl/src/misc/lv_event.c ****     for(uint32_t i = 0; i < size; i++) {
 759              		.loc 1 144 27 view .LVU201
 760 000e 0746     		mov	r7, r0
 761              	.LVL69:
 145:../../Middlewares/LVGL/GUI/lvgl/src/misc/lv_event.c ****         lv_event_dsc_t * event = *event_array_at(list, i);
 762              		.loc 1 145 5 is_stmt 1 view .LVU202
 763              	.LBB19:
 145:../../Middlewares/LVGL/GUI/lvgl/src/misc/lv_event.c ****         lv_event_dsc_t * event = *event_array_at(list, i);
 764              		.loc 1 145 9 view .LVU203
 145:../../Middlewares/LVGL/GUI/lvgl/src/misc/lv_event.c ****         lv_event_dsc_t * event = *event_array_at(list, i);
 765              		.loc 1 145 18 is_stmt 0 view .LVU204
 766 0010 0024     		movs	r4, #0
 767              	.LVL70:
 768              	.L53:
 145:../../Middlewares/LVGL/GUI/lvgl/src/misc/lv_event.c ****         lv_event_dsc_t * event = *event_array_at(list, i);
 769              		.loc 1 145 27 is_stmt 1 discriminator 1 view .LVU205
 770 0012 BC42     		cmp	r4, r7
 771 0014 12D2     		bcs	.L59
 772              	.LBB20:
 146:../../Middlewares/LVGL/GUI/lvgl/src/misc/lv_event.c ****         if(event == dsc) {
 773              		.loc 1 146 9 view .LVU206
ARM GAS  C:\Users\28576\AppData\Local\Temp\ccwuB5AB.s 			page 26


 146:../../Middlewares/LVGL/GUI/lvgl/src/misc/lv_event.c ****         if(event == dsc) {
 774              		.loc 1 146 35 is_stmt 0 view .LVU207
 775 0016 2146     		mov	r1, r4
 776 0018 3046     		mov	r0, r6
 777 001a FFF7FEFF 		bl	event_array_at
 778              	.LVL71:
 146:../../Middlewares/LVGL/GUI/lvgl/src/misc/lv_event.c ****         if(event == dsc) {
 779              		.loc 1 146 26 discriminator 1 view .LVU208
 780 001e 0168     		ldr	r1, [r0]
 781              	.LVL72:
 147:../../Middlewares/LVGL/GUI/lvgl/src/misc/lv_event.c ****             event_mark_deleting(list, event);
 782              		.loc 1 147 9 is_stmt 1 view .LVU209
 147:../../Middlewares/LVGL/GUI/lvgl/src/misc/lv_event.c ****             event_mark_deleting(list, event);
 783              		.loc 1 147 11 is_stmt 0 view .LVU210
 784 0020 8D42     		cmp	r5, r1
 785 0022 03D0     		beq	.L60
 786              	.LBE20:
 145:../../Middlewares/LVGL/GUI/lvgl/src/misc/lv_event.c ****         lv_event_dsc_t * event = *event_array_at(list, i);
 787              		.loc 1 145 36 is_stmt 1 discriminator 2 view .LVU211
 788 0024 0134     		adds	r4, r4, #1
 789              	.LVL73:
 145:../../Middlewares/LVGL/GUI/lvgl/src/misc/lv_event.c ****         lv_event_dsc_t * event = *event_array_at(list, i);
 790              		.loc 1 145 36 is_stmt 0 discriminator 2 view .LVU212
 791 0026 F4E7     		b	.L53
 792              	.LVL74:
 793              	.L50:
 794              	.LCFI12:
 795              		.cfi_def_cfa_offset 0
 796              		.cfi_restore 3
 797              		.cfi_restore 4
 798              		.cfi_restore 5
 799              		.cfi_restore 6
 800              		.cfi_restore 7
 801              		.cfi_restore 14
 145:../../Middlewares/LVGL/GUI/lvgl/src/misc/lv_event.c ****         lv_event_dsc_t * event = *event_array_at(list, i);
 802              		.loc 1 145 36 discriminator 2 view .LVU213
 803              	.LBE19:
 141:../../Middlewares/LVGL/GUI/lvgl/src/misc/lv_event.c ****     LV_ASSERT_NULL(dsc);
 804              		.loc 1 141 5 is_stmt 1 view .LVU214
 141:../../Middlewares/LVGL/GUI/lvgl/src/misc/lv_event.c ****     LV_ASSERT_NULL(dsc);
 805              		.loc 1 141 5 view .LVU215
 141:../../Middlewares/LVGL/GUI/lvgl/src/misc/lv_event.c ****     LV_ASSERT_NULL(dsc);
 806              		.loc 1 141 5 view .LVU216
 141:../../Middlewares/LVGL/GUI/lvgl/src/misc/lv_event.c ****     LV_ASSERT_NULL(dsc);
 807              		.loc 1 141 5 view .LVU217
 141:../../Middlewares/LVGL/GUI/lvgl/src/misc/lv_event.c ****     LV_ASSERT_NULL(dsc);
 808              		.loc 1 141 5 view .LVU218
 809 0028 FEE7     		b	.L50
 810              	.L52:
 811              	.LCFI13:
 812              		.cfi_def_cfa_offset 24
 813              		.cfi_offset 3, -24
 814              		.cfi_offset 4, -20
 815              		.cfi_offset 5, -16
 816              		.cfi_offset 6, -12
 817              		.cfi_offset 7, -8
 818              		.cfi_offset 14, -4
ARM GAS  C:\Users\28576\AppData\Local\Temp\ccwuB5AB.s 			page 27


 142:../../Middlewares/LVGL/GUI/lvgl/src/misc/lv_event.c **** 
 819              		.loc 1 142 5 view .LVU219
 142:../../Middlewares/LVGL/GUI/lvgl/src/misc/lv_event.c **** 
 820              		.loc 1 142 5 view .LVU220
 142:../../Middlewares/LVGL/GUI/lvgl/src/misc/lv_event.c **** 
 821              		.loc 1 142 5 view .LVU221
 142:../../Middlewares/LVGL/GUI/lvgl/src/misc/lv_event.c **** 
 822              		.loc 1 142 5 view .LVU222
 142:../../Middlewares/LVGL/GUI/lvgl/src/misc/lv_event.c **** 
 823              		.loc 1 142 5 view .LVU223
 824 002a FEE7     		b	.L52
 825              	.LVL75:
 826              	.L60:
 827              	.LBB22:
 828              	.LBB21:
 148:../../Middlewares/LVGL/GUI/lvgl/src/misc/lv_event.c ****             cleanup_event_list(list);
 829              		.loc 1 148 13 view .LVU224
 830 002c 3046     		mov	r0, r6
 831 002e FFF7FEFF 		bl	event_mark_deleting
 832              	.LVL76:
 149:../../Middlewares/LVGL/GUI/lvgl/src/misc/lv_event.c ****             return true;
 833              		.loc 1 149 13 view .LVU225
 834 0032 3046     		mov	r0, r6
 835 0034 FFF7FEFF 		bl	cleanup_event_list
 836              	.LVL77:
 150:../../Middlewares/LVGL/GUI/lvgl/src/misc/lv_event.c ****         }
 837              		.loc 1 150 13 view .LVU226
 150:../../Middlewares/LVGL/GUI/lvgl/src/misc/lv_event.c ****         }
 838              		.loc 1 150 20 is_stmt 0 view .LVU227
 839 0038 0120     		movs	r0, #1
 840 003a 00E0     		b	.L55
 841              	.LVL78:
 842              	.L59:
 150:../../Middlewares/LVGL/GUI/lvgl/src/misc/lv_event.c ****         }
 843              		.loc 1 150 20 view .LVU228
 844              	.LBE21:
 845              	.LBE22:
 154:../../Middlewares/LVGL/GUI/lvgl/src/misc/lv_event.c **** }
 846              		.loc 1 154 12 view .LVU229
 847 003c 0020     		movs	r0, #0
 848              	.L55:
 155:../../Middlewares/LVGL/GUI/lvgl/src/misc/lv_event.c **** 
 849              		.loc 1 155 1 view .LVU230
 850 003e F8BD     		pop	{r3, r4, r5, r6, r7, pc}
 155:../../Middlewares/LVGL/GUI/lvgl/src/misc/lv_event.c **** 
 851              		.loc 1 155 1 view .LVU231
 852              		.cfi_endproc
 853              	.LFE191:
 855              		.section	.text.lv_event_get_count,"ax",%progbits
 856              		.align	1
 857              		.global	lv_event_get_count
 858              		.syntax unified
 859              		.thumb
 860              		.thumb_func
 862              	lv_event_get_count:
 863              	.LVL79:
 864              	.LFB192:
ARM GAS  C:\Users\28576\AppData\Local\Temp\ccwuB5AB.s 			page 28


 158:../../Middlewares/LVGL/GUI/lvgl/src/misc/lv_event.c ****     LV_ASSERT_NULL(list);
 865              		.loc 1 158 1 is_stmt 1 view -0
 866              		.cfi_startproc
 867              		@ args = 0, pretend = 0, frame = 0
 868              		@ frame_needed = 0, uses_anonymous_args = 0
 159:../../Middlewares/LVGL/GUI/lvgl/src/misc/lv_event.c ****     return event_array_size(list);
 869              		.loc 1 159 5 view .LVU233
 159:../../Middlewares/LVGL/GUI/lvgl/src/misc/lv_event.c ****     return event_array_size(list);
 870              		.loc 1 159 5 view .LVU234
 871 0000 18B1     		cbz	r0, .L63
 158:../../Middlewares/LVGL/GUI/lvgl/src/misc/lv_event.c ****     LV_ASSERT_NULL(list);
 872              		.loc 1 158 1 is_stmt 0 view .LVU235
 873 0002 08B5     		push	{r3, lr}
 874              	.LCFI14:
 875              		.cfi_def_cfa_offset 8
 876              		.cfi_offset 3, -8
 877              		.cfi_offset 14, -4
 159:../../Middlewares/LVGL/GUI/lvgl/src/misc/lv_event.c ****     return event_array_size(list);
 878              		.loc 1 159 5 is_stmt 1 view .LVU236
 159:../../Middlewares/LVGL/GUI/lvgl/src/misc/lv_event.c ****     return event_array_size(list);
 879              		.loc 1 159 25 view .LVU237
 160:../../Middlewares/LVGL/GUI/lvgl/src/misc/lv_event.c **** }
 880              		.loc 1 160 5 view .LVU238
 160:../../Middlewares/LVGL/GUI/lvgl/src/misc/lv_event.c **** }
 881              		.loc 1 160 12 is_stmt 0 view .LVU239
 882 0004 FFF7FEFF 		bl	event_array_size
 883              	.LVL80:
 161:../../Middlewares/LVGL/GUI/lvgl/src/misc/lv_event.c **** 
 884              		.loc 1 161 1 view .LVU240
 885 0008 08BD     		pop	{r3, pc}
 886              	.LVL81:
 887              	.L63:
 888              	.LCFI15:
 889              		.cfi_def_cfa_offset 0
 890              		.cfi_restore 3
 891              		.cfi_restore 14
 159:../../Middlewares/LVGL/GUI/lvgl/src/misc/lv_event.c ****     return event_array_size(list);
 892              		.loc 1 159 5 is_stmt 1 view .LVU241
 159:../../Middlewares/LVGL/GUI/lvgl/src/misc/lv_event.c ****     return event_array_size(list);
 893              		.loc 1 159 5 view .LVU242
 159:../../Middlewares/LVGL/GUI/lvgl/src/misc/lv_event.c ****     return event_array_size(list);
 894              		.loc 1 159 5 view .LVU243
 159:../../Middlewares/LVGL/GUI/lvgl/src/misc/lv_event.c ****     return event_array_size(list);
 895              		.loc 1 159 5 view .LVU244
 159:../../Middlewares/LVGL/GUI/lvgl/src/misc/lv_event.c ****     return event_array_size(list);
 896              		.loc 1 159 5 view .LVU245
 897 000a FEE7     		b	.L63
 898              		.cfi_endproc
 899              	.LFE192:
 901              		.section	.text.lv_event_get_dsc,"ax",%progbits
 902              		.align	1
 903              		.global	lv_event_get_dsc
 904              		.syntax unified
 905              		.thumb
 906              		.thumb_func
 908              	lv_event_get_dsc:
 909              	.LVL82:
ARM GAS  C:\Users\28576\AppData\Local\Temp\ccwuB5AB.s 			page 29


 910              	.LFB193:
 164:../../Middlewares/LVGL/GUI/lvgl/src/misc/lv_event.c ****     LV_ASSERT_NULL(list);
 911              		.loc 1 164 1 view -0
 912              		.cfi_startproc
 913              		@ args = 0, pretend = 0, frame = 0
 914              		@ frame_needed = 0, uses_anonymous_args = 0
 165:../../Middlewares/LVGL/GUI/lvgl/src/misc/lv_event.c ****     lv_event_dsc_t ** dsc = event_array_at(list, index);
 915              		.loc 1 165 5 view .LVU247
 165:../../Middlewares/LVGL/GUI/lvgl/src/misc/lv_event.c ****     lv_event_dsc_t ** dsc = event_array_at(list, index);
 916              		.loc 1 165 5 view .LVU248
 917 0000 38B1     		cbz	r0, .L68
 164:../../Middlewares/LVGL/GUI/lvgl/src/misc/lv_event.c ****     LV_ASSERT_NULL(list);
 918              		.loc 1 164 1 is_stmt 0 view .LVU249
 919 0002 08B5     		push	{r3, lr}
 920              	.LCFI16:
 921              		.cfi_def_cfa_offset 8
 922              		.cfi_offset 3, -8
 923              		.cfi_offset 14, -4
 165:../../Middlewares/LVGL/GUI/lvgl/src/misc/lv_event.c ****     lv_event_dsc_t ** dsc = event_array_at(list, index);
 924              		.loc 1 165 5 is_stmt 1 view .LVU250
 165:../../Middlewares/LVGL/GUI/lvgl/src/misc/lv_event.c ****     lv_event_dsc_t ** dsc = event_array_at(list, index);
 925              		.loc 1 165 25 view .LVU251
 166:../../Middlewares/LVGL/GUI/lvgl/src/misc/lv_event.c ****     return dsc ? *dsc : NULL;
 926              		.loc 1 166 5 view .LVU252
 166:../../Middlewares/LVGL/GUI/lvgl/src/misc/lv_event.c ****     return dsc ? *dsc : NULL;
 927              		.loc 1 166 29 is_stmt 0 view .LVU253
 928 0004 FFF7FEFF 		bl	event_array_at
 929              	.LVL83:
 167:../../Middlewares/LVGL/GUI/lvgl/src/misc/lv_event.c **** }
 930              		.loc 1 167 5 is_stmt 1 view .LVU254
 167:../../Middlewares/LVGL/GUI/lvgl/src/misc/lv_event.c **** }
 931              		.loc 1 167 23 is_stmt 0 view .LVU255
 932 0008 0346     		mov	r3, r0
 933 000a 00B1     		cbz	r0, .L66
 167:../../Middlewares/LVGL/GUI/lvgl/src/misc/lv_event.c **** }
 934              		.loc 1 167 23 discriminator 1 view .LVU256
 935 000c 0368     		ldr	r3, [r0]
 936              	.L66:
 168:../../Middlewares/LVGL/GUI/lvgl/src/misc/lv_event.c **** 
 937              		.loc 1 168 1 view .LVU257
 938 000e 1846     		mov	r0, r3
 939              	.LVL84:
 168:../../Middlewares/LVGL/GUI/lvgl/src/misc/lv_event.c **** 
 940              		.loc 1 168 1 view .LVU258
 941 0010 08BD     		pop	{r3, pc}
 942              	.LVL85:
 943              	.L68:
 944              	.LCFI17:
 945              		.cfi_def_cfa_offset 0
 946              		.cfi_restore 3
 947              		.cfi_restore 14
 165:../../Middlewares/LVGL/GUI/lvgl/src/misc/lv_event.c ****     lv_event_dsc_t ** dsc = event_array_at(list, index);
 948              		.loc 1 165 5 is_stmt 1 view .LVU259
 165:../../Middlewares/LVGL/GUI/lvgl/src/misc/lv_event.c ****     lv_event_dsc_t ** dsc = event_array_at(list, index);
 949              		.loc 1 165 5 view .LVU260
 165:../../Middlewares/LVGL/GUI/lvgl/src/misc/lv_event.c ****     lv_event_dsc_t ** dsc = event_array_at(list, index);
 950              		.loc 1 165 5 view .LVU261
ARM GAS  C:\Users\28576\AppData\Local\Temp\ccwuB5AB.s 			page 30


 165:../../Middlewares/LVGL/GUI/lvgl/src/misc/lv_event.c ****     lv_event_dsc_t ** dsc = event_array_at(list, index);
 951              		.loc 1 165 5 view .LVU262
 165:../../Middlewares/LVGL/GUI/lvgl/src/misc/lv_event.c ****     lv_event_dsc_t ** dsc = event_array_at(list, index);
 952              		.loc 1 165 5 view .LVU263
 953 0012 FEE7     		b	.L68
 954              		.cfi_endproc
 955              	.LFE193:
 957              		.section	.text.lv_event_dsc_get_cb,"ax",%progbits
 958              		.align	1
 959              		.global	lv_event_dsc_get_cb
 960              		.syntax unified
 961              		.thumb
 962              		.thumb_func
 964              	lv_event_dsc_get_cb:
 965              	.LVL86:
 966              	.LFB194:
 171:../../Middlewares/LVGL/GUI/lvgl/src/misc/lv_event.c ****     LV_ASSERT_NULL(dsc);
 967              		.loc 1 171 1 view -0
 968              		.cfi_startproc
 969              		@ args = 0, pretend = 0, frame = 0
 970              		@ frame_needed = 0, uses_anonymous_args = 0
 971              		@ link register save eliminated.
 172:../../Middlewares/LVGL/GUI/lvgl/src/misc/lv_event.c ****     return dsc->cb;
 972              		.loc 1 172 5 view .LVU265
 172:../../Middlewares/LVGL/GUI/lvgl/src/misc/lv_event.c ****     return dsc->cb;
 973              		.loc 1 172 5 view .LVU266
 974 0000 08B1     		cbz	r0, .L74
 172:../../Middlewares/LVGL/GUI/lvgl/src/misc/lv_event.c ****     return dsc->cb;
 975              		.loc 1 172 5 view .LVU267
 172:../../Middlewares/LVGL/GUI/lvgl/src/misc/lv_event.c ****     return dsc->cb;
 976              		.loc 1 172 24 view .LVU268
 173:../../Middlewares/LVGL/GUI/lvgl/src/misc/lv_event.c **** }
 977              		.loc 1 173 5 view .LVU269
 174:../../Middlewares/LVGL/GUI/lvgl/src/misc/lv_event.c **** 
 978              		.loc 1 174 1 is_stmt 0 view .LVU270
 979 0002 0068     		ldr	r0, [r0]
 980              	.LVL87:
 174:../../Middlewares/LVGL/GUI/lvgl/src/misc/lv_event.c **** 
 981              		.loc 1 174 1 view .LVU271
 982 0004 7047     		bx	lr
 983              	.LVL88:
 984              	.L74:
 172:../../Middlewares/LVGL/GUI/lvgl/src/misc/lv_event.c ****     return dsc->cb;
 985              		.loc 1 172 5 is_stmt 1 view .LVU272
 172:../../Middlewares/LVGL/GUI/lvgl/src/misc/lv_event.c ****     return dsc->cb;
 986              		.loc 1 172 5 view .LVU273
 172:../../Middlewares/LVGL/GUI/lvgl/src/misc/lv_event.c ****     return dsc->cb;
 987              		.loc 1 172 5 view .LVU274
 172:../../Middlewares/LVGL/GUI/lvgl/src/misc/lv_event.c ****     return dsc->cb;
 988              		.loc 1 172 5 view .LVU275
 172:../../Middlewares/LVGL/GUI/lvgl/src/misc/lv_event.c ****     return dsc->cb;
 989              		.loc 1 172 5 view .LVU276
 990 0006 FEE7     		b	.L74
 991              		.cfi_endproc
 992              	.LFE194:
 994              		.section	.text.lv_event_dsc_get_user_data,"ax",%progbits
 995              		.align	1
ARM GAS  C:\Users\28576\AppData\Local\Temp\ccwuB5AB.s 			page 31


 996              		.global	lv_event_dsc_get_user_data
 997              		.syntax unified
 998              		.thumb
 999              		.thumb_func
 1001              	lv_event_dsc_get_user_data:
 1002              	.LVL89:
 1003              	.LFB195:
 177:../../Middlewares/LVGL/GUI/lvgl/src/misc/lv_event.c ****     LV_ASSERT_NULL(dsc);
 1004              		.loc 1 177 1 view -0
 1005              		.cfi_startproc
 1006              		@ args = 0, pretend = 0, frame = 0
 1007              		@ frame_needed = 0, uses_anonymous_args = 0
 1008              		@ link register save eliminated.
 178:../../Middlewares/LVGL/GUI/lvgl/src/misc/lv_event.c ****     return dsc->user_data;
 1009              		.loc 1 178 5 view .LVU278
 178:../../Middlewares/LVGL/GUI/lvgl/src/misc/lv_event.c ****     return dsc->user_data;
 1010              		.loc 1 178 5 view .LVU279
 1011 0000 08B1     		cbz	r0, .L77
 178:../../Middlewares/LVGL/GUI/lvgl/src/misc/lv_event.c ****     return dsc->user_data;
 1012              		.loc 1 178 5 view .LVU280
 178:../../Middlewares/LVGL/GUI/lvgl/src/misc/lv_event.c ****     return dsc->user_data;
 1013              		.loc 1 178 24 view .LVU281
 179:../../Middlewares/LVGL/GUI/lvgl/src/misc/lv_event.c **** 
 1014              		.loc 1 179 5 view .LVU282
 181:../../Middlewares/LVGL/GUI/lvgl/src/misc/lv_event.c **** 
 1015              		.loc 1 181 1 is_stmt 0 view .LVU283
 1016 0002 4068     		ldr	r0, [r0, #4]
 1017              	.LVL90:
 181:../../Middlewares/LVGL/GUI/lvgl/src/misc/lv_event.c **** 
 1018              		.loc 1 181 1 view .LVU284
 1019 0004 7047     		bx	lr
 1020              	.LVL91:
 1021              	.L77:
 178:../../Middlewares/LVGL/GUI/lvgl/src/misc/lv_event.c ****     return dsc->user_data;
 1022              		.loc 1 178 5 is_stmt 1 view .LVU285
 178:../../Middlewares/LVGL/GUI/lvgl/src/misc/lv_event.c ****     return dsc->user_data;
 1023              		.loc 1 178 5 view .LVU286
 178:../../Middlewares/LVGL/GUI/lvgl/src/misc/lv_event.c ****     return dsc->user_data;
 1024              		.loc 1 178 5 view .LVU287
 178:../../Middlewares/LVGL/GUI/lvgl/src/misc/lv_event.c ****     return dsc->user_data;
 1025              		.loc 1 178 5 view .LVU288
 178:../../Middlewares/LVGL/GUI/lvgl/src/misc/lv_event.c ****     return dsc->user_data;
 1026              		.loc 1 178 5 view .LVU289
 1027 0006 FEE7     		b	.L77
 1028              		.cfi_endproc
 1029              	.LFE195:
 1031              		.section	.text.lv_event_remove,"ax",%progbits
 1032              		.align	1
 1033              		.global	lv_event_remove
 1034              		.syntax unified
 1035              		.thumb
 1036              		.thumb_func
 1038              	lv_event_remove:
 1039              	.LVL92:
 1040              	.LFB196:
 184:../../Middlewares/LVGL/GUI/lvgl/src/misc/lv_event.c ****     LV_ASSERT_NULL(list);
 1041              		.loc 1 184 1 view -0
ARM GAS  C:\Users\28576\AppData\Local\Temp\ccwuB5AB.s 			page 32


 1042              		.cfi_startproc
 1043              		@ args = 0, pretend = 0, frame = 0
 1044              		@ frame_needed = 0, uses_anonymous_args = 0
 185:../../Middlewares/LVGL/GUI/lvgl/src/misc/lv_event.c ****     lv_event_dsc_t * dsc = lv_event_get_dsc(list, index);
 1045              		.loc 1 185 5 view .LVU291
 185:../../Middlewares/LVGL/GUI/lvgl/src/misc/lv_event.c ****     lv_event_dsc_t * dsc = lv_event_get_dsc(list, index);
 1046              		.loc 1 185 5 view .LVU292
 1047 0000 68B1     		cbz	r0, .L80
 184:../../Middlewares/LVGL/GUI/lvgl/src/misc/lv_event.c ****     LV_ASSERT_NULL(list);
 1048              		.loc 1 184 1 is_stmt 0 view .LVU293
 1049 0002 10B5     		push	{r4, lr}
 1050              	.LCFI18:
 1051              		.cfi_def_cfa_offset 8
 1052              		.cfi_offset 4, -8
 1053              		.cfi_offset 14, -4
 185:../../Middlewares/LVGL/GUI/lvgl/src/misc/lv_event.c ****     lv_event_dsc_t * dsc = lv_event_get_dsc(list, index);
 1054              		.loc 1 185 5 is_stmt 1 view .LVU294
 185:../../Middlewares/LVGL/GUI/lvgl/src/misc/lv_event.c ****     lv_event_dsc_t * dsc = lv_event_get_dsc(list, index);
 1055              		.loc 1 185 25 view .LVU295
 186:../../Middlewares/LVGL/GUI/lvgl/src/misc/lv_event.c ****     if(dsc == NULL) return false;
 1056              		.loc 1 186 5 view .LVU296
 186:../../Middlewares/LVGL/GUI/lvgl/src/misc/lv_event.c ****     if(dsc == NULL) return false;
 1057              		.loc 1 186 28 is_stmt 0 view .LVU297
 1058 0004 0446     		mov	r4, r0
 1059 0006 FFF7FEFF 		bl	lv_event_get_dsc
 1060              	.LVL93:
 187:../../Middlewares/LVGL/GUI/lvgl/src/misc/lv_event.c ****     event_mark_deleting(list, dsc);
 1061              		.loc 1 187 5 is_stmt 1 view .LVU298
 187:../../Middlewares/LVGL/GUI/lvgl/src/misc/lv_event.c ****     event_mark_deleting(list, dsc);
 1062              		.loc 1 187 7 is_stmt 0 view .LVU299
 1063 000a 0146     		mov	r1, r0
 1064 000c 30B1     		cbz	r0, .L81
 188:../../Middlewares/LVGL/GUI/lvgl/src/misc/lv_event.c ****     cleanup_event_list(list);
 1065              		.loc 1 188 5 is_stmt 1 view .LVU300
 1066 000e 2046     		mov	r0, r4
 1067              	.LVL94:
 188:../../Middlewares/LVGL/GUI/lvgl/src/misc/lv_event.c ****     cleanup_event_list(list);
 1068              		.loc 1 188 5 is_stmt 0 view .LVU301
 1069 0010 FFF7FEFF 		bl	event_mark_deleting
 1070              	.LVL95:
 189:../../Middlewares/LVGL/GUI/lvgl/src/misc/lv_event.c ****     return true;
 1071              		.loc 1 189 5 is_stmt 1 view .LVU302
 1072 0014 2046     		mov	r0, r4
 1073 0016 FFF7FEFF 		bl	cleanup_event_list
 1074              	.LVL96:
 190:../../Middlewares/LVGL/GUI/lvgl/src/misc/lv_event.c **** }
 1075              		.loc 1 190 5 view .LVU303
 190:../../Middlewares/LVGL/GUI/lvgl/src/misc/lv_event.c **** }
 1076              		.loc 1 190 12 is_stmt 0 view .LVU304
 1077 001a 0120     		movs	r0, #1
 1078              	.L81:
 191:../../Middlewares/LVGL/GUI/lvgl/src/misc/lv_event.c **** 
 1079              		.loc 1 191 1 view .LVU305
 1080 001c 10BD     		pop	{r4, pc}
 1081              	.LVL97:
 1082              	.L80:
 1083              	.LCFI19:
ARM GAS  C:\Users\28576\AppData\Local\Temp\ccwuB5AB.s 			page 33


 1084              		.cfi_def_cfa_offset 0
 1085              		.cfi_restore 4
 1086              		.cfi_restore 14
 185:../../Middlewares/LVGL/GUI/lvgl/src/misc/lv_event.c ****     lv_event_dsc_t * dsc = lv_event_get_dsc(list, index);
 1087              		.loc 1 185 5 is_stmt 1 view .LVU306
 185:../../Middlewares/LVGL/GUI/lvgl/src/misc/lv_event.c ****     lv_event_dsc_t * dsc = lv_event_get_dsc(list, index);
 1088              		.loc 1 185 5 view .LVU307
 185:../../Middlewares/LVGL/GUI/lvgl/src/misc/lv_event.c ****     lv_event_dsc_t * dsc = lv_event_get_dsc(list, index);
 1089              		.loc 1 185 5 view .LVU308
 185:../../Middlewares/LVGL/GUI/lvgl/src/misc/lv_event.c ****     lv_event_dsc_t * dsc = lv_event_get_dsc(list, index);
 1090              		.loc 1 185 5 view .LVU309
 185:../../Middlewares/LVGL/GUI/lvgl/src/misc/lv_event.c ****     lv_event_dsc_t * dsc = lv_event_get_dsc(list, index);
 1091              		.loc 1 185 5 view .LVU310
 1092 001e FEE7     		b	.L80
 1093              		.cfi_endproc
 1094              	.LFE196:
 1096              		.section	.text.lv_event_remove_all,"ax",%progbits
 1097              		.align	1
 1098              		.global	lv_event_remove_all
 1099              		.syntax unified
 1100              		.thumb
 1101              		.thumb_func
 1103              	lv_event_remove_all:
 1104              	.LVL98:
 1105              	.LFB197:
 194:../../Middlewares/LVGL/GUI/lvgl/src/misc/lv_event.c ****     LV_ASSERT_NULL(list);
 1106              		.loc 1 194 1 view -0
 1107              		.cfi_startproc
 1108              		@ args = 0, pretend = 0, frame = 0
 1109              		@ frame_needed = 0, uses_anonymous_args = 0
 195:../../Middlewares/LVGL/GUI/lvgl/src/misc/lv_event.c ****     const uint32_t size = event_array_size(list);
 1110              		.loc 1 195 5 view .LVU312
 195:../../Middlewares/LVGL/GUI/lvgl/src/misc/lv_event.c ****     const uint32_t size = event_array_size(list);
 1111              		.loc 1 195 5 view .LVU313
 1112 0000 30B1     		cbz	r0, .L87
 194:../../Middlewares/LVGL/GUI/lvgl/src/misc/lv_event.c ****     LV_ASSERT_NULL(list);
 1113              		.loc 1 194 1 is_stmt 0 view .LVU314
 1114 0002 70B5     		push	{r4, r5, r6, lr}
 1115              	.LCFI20:
 1116              		.cfi_def_cfa_offset 16
 1117              		.cfi_offset 4, -16
 1118              		.cfi_offset 5, -12
 1119              		.cfi_offset 6, -8
 1120              		.cfi_offset 14, -4
 1121 0004 0546     		mov	r5, r0
 195:../../Middlewares/LVGL/GUI/lvgl/src/misc/lv_event.c ****     const uint32_t size = event_array_size(list);
 1122              		.loc 1 195 5 is_stmt 1 view .LVU315
 195:../../Middlewares/LVGL/GUI/lvgl/src/misc/lv_event.c ****     const uint32_t size = event_array_size(list);
 1123              		.loc 1 195 25 view .LVU316
 196:../../Middlewares/LVGL/GUI/lvgl/src/misc/lv_event.c ****     for(uint32_t i = 0; i < size; i++)
 1124              		.loc 1 196 5 view .LVU317
 196:../../Middlewares/LVGL/GUI/lvgl/src/misc/lv_event.c ****     for(uint32_t i = 0; i < size; i++)
 1125              		.loc 1 196 27 is_stmt 0 view .LVU318
 1126 0006 FFF7FEFF 		bl	event_array_size
 1127              	.LVL99:
 196:../../Middlewares/LVGL/GUI/lvgl/src/misc/lv_event.c ****     for(uint32_t i = 0; i < size; i++)
 1128              		.loc 1 196 27 view .LVU319
ARM GAS  C:\Users\28576\AppData\Local\Temp\ccwuB5AB.s 			page 34


 1129 000a 0646     		mov	r6, r0
 1130              	.LVL100:
 197:../../Middlewares/LVGL/GUI/lvgl/src/misc/lv_event.c ****         event_mark_deleting(list, *event_array_at(list, i));
 1131              		.loc 1 197 5 is_stmt 1 view .LVU320
 1132              	.LBB23:
 197:../../Middlewares/LVGL/GUI/lvgl/src/misc/lv_event.c ****         event_mark_deleting(list, *event_array_at(list, i));
 1133              		.loc 1 197 9 view .LVU321
 197:../../Middlewares/LVGL/GUI/lvgl/src/misc/lv_event.c ****         event_mark_deleting(list, *event_array_at(list, i));
 1134              		.loc 1 197 18 is_stmt 0 view .LVU322
 1135 000c 0024     		movs	r4, #0
 197:../../Middlewares/LVGL/GUI/lvgl/src/misc/lv_event.c ****         event_mark_deleting(list, *event_array_at(list, i));
 1136              		.loc 1 197 5 view .LVU323
 1137 000e 09E0     		b	.L88
 1138              	.LVL101:
 1139              	.L87:
 1140              	.LCFI21:
 1141              		.cfi_def_cfa_offset 0
 1142              		.cfi_restore 4
 1143              		.cfi_restore 5
 1144              		.cfi_restore 6
 1145              		.cfi_restore 14
 197:../../Middlewares/LVGL/GUI/lvgl/src/misc/lv_event.c ****         event_mark_deleting(list, *event_array_at(list, i));
 1146              		.loc 1 197 5 view .LVU324
 1147              	.LBE23:
 195:../../Middlewares/LVGL/GUI/lvgl/src/misc/lv_event.c ****     const uint32_t size = event_array_size(list);
 1148              		.loc 1 195 5 is_stmt 1 view .LVU325
 195:../../Middlewares/LVGL/GUI/lvgl/src/misc/lv_event.c ****     const uint32_t size = event_array_size(list);
 1149              		.loc 1 195 5 view .LVU326
 195:../../Middlewares/LVGL/GUI/lvgl/src/misc/lv_event.c ****     const uint32_t size = event_array_size(list);
 1150              		.loc 1 195 5 view .LVU327
 195:../../Middlewares/LVGL/GUI/lvgl/src/misc/lv_event.c ****     const uint32_t size = event_array_size(list);
 1151              		.loc 1 195 5 view .LVU328
 195:../../Middlewares/LVGL/GUI/lvgl/src/misc/lv_event.c ****     const uint32_t size = event_array_size(list);
 1152              		.loc 1 195 5 view .LVU329
 1153 0010 FEE7     		b	.L87
 1154              	.LVL102:
 1155              	.L89:
 1156              	.LCFI22:
 1157              		.cfi_def_cfa_offset 16
 1158              		.cfi_offset 4, -16
 1159              		.cfi_offset 5, -12
 1160              		.cfi_offset 6, -8
 1161              		.cfi_offset 14, -4
 1162              	.LBB24:
 198:../../Middlewares/LVGL/GUI/lvgl/src/misc/lv_event.c ****     cleanup_event_list(list);
 1163              		.loc 1 198 9 view .LVU330
 198:../../Middlewares/LVGL/GUI/lvgl/src/misc/lv_event.c ****     cleanup_event_list(list);
 1164              		.loc 1 198 36 is_stmt 0 view .LVU331
 1165 0012 2146     		mov	r1, r4
 1166 0014 2846     		mov	r0, r5
 1167 0016 FFF7FEFF 		bl	event_array_at
 1168              	.LVL103:
 198:../../Middlewares/LVGL/GUI/lvgl/src/misc/lv_event.c ****     cleanup_event_list(list);
 1169              		.loc 1 198 9 discriminator 1 view .LVU332
 1170 001a 0168     		ldr	r1, [r0]
 1171 001c 2846     		mov	r0, r5
 1172 001e FFF7FEFF 		bl	event_mark_deleting
ARM GAS  C:\Users\28576\AppData\Local\Temp\ccwuB5AB.s 			page 35


 1173              	.LVL104:
 197:../../Middlewares/LVGL/GUI/lvgl/src/misc/lv_event.c ****         event_mark_deleting(list, *event_array_at(list, i));
 1174              		.loc 1 197 36 is_stmt 1 discriminator 3 view .LVU333
 1175 0022 0134     		adds	r4, r4, #1
 1176              	.LVL105:
 1177              	.L88:
 197:../../Middlewares/LVGL/GUI/lvgl/src/misc/lv_event.c ****         event_mark_deleting(list, *event_array_at(list, i));
 1178              		.loc 1 197 27 discriminator 1 view .LVU334
 1179 0024 B442     		cmp	r4, r6
 1180 0026 F4D3     		bcc	.L89
 1181              	.LBE24:
 199:../../Middlewares/LVGL/GUI/lvgl/src/misc/lv_event.c **** }
 1182              		.loc 1 199 5 view .LVU335
 1183 0028 2846     		mov	r0, r5
 1184 002a FFF7FEFF 		bl	cleanup_event_list
 1185              	.LVL106:
 200:../../Middlewares/LVGL/GUI/lvgl/src/misc/lv_event.c **** 
 1186              		.loc 1 200 1 is_stmt 0 view .LVU336
 1187 002e 70BD     		pop	{r4, r5, r6, pc}
 200:../../Middlewares/LVGL/GUI/lvgl/src/misc/lv_event.c **** 
 1188              		.loc 1 200 1 view .LVU337
 1189              		.cfi_endproc
 1190              	.LFE197:
 1192              		.section	.text.lv_event_get_current_target,"ax",%progbits
 1193              		.align	1
 1194              		.global	lv_event_get_current_target
 1195              		.syntax unified
 1196              		.thumb
 1197              		.thumb_func
 1199              	lv_event_get_current_target:
 1200              	.LVL107:
 1201              	.LFB198:
 203:../../Middlewares/LVGL/GUI/lvgl/src/misc/lv_event.c ****     return e->current_target;
 1202              		.loc 1 203 1 is_stmt 1 view -0
 1203              		.cfi_startproc
 1204              		@ args = 0, pretend = 0, frame = 0
 1205              		@ frame_needed = 0, uses_anonymous_args = 0
 1206              		@ link register save eliminated.
 204:../../Middlewares/LVGL/GUI/lvgl/src/misc/lv_event.c **** }
 1207              		.loc 1 204 5 view .LVU339
 205:../../Middlewares/LVGL/GUI/lvgl/src/misc/lv_event.c **** 
 1208              		.loc 1 205 1 is_stmt 0 view .LVU340
 1209 0000 0068     		ldr	r0, [r0]
 1210              	.LVL108:
 205:../../Middlewares/LVGL/GUI/lvgl/src/misc/lv_event.c **** 
 1211              		.loc 1 205 1 view .LVU341
 1212 0002 7047     		bx	lr
 1213              		.cfi_endproc
 1214              	.LFE198:
 1216              		.section	.text.lv_event_get_target,"ax",%progbits
 1217              		.align	1
 1218              		.global	lv_event_get_target
 1219              		.syntax unified
 1220              		.thumb
 1221              		.thumb_func
 1223              	lv_event_get_target:
 1224              	.LVL109:
ARM GAS  C:\Users\28576\AppData\Local\Temp\ccwuB5AB.s 			page 36


 1225              	.LFB199:
 208:../../Middlewares/LVGL/GUI/lvgl/src/misc/lv_event.c ****     return e->original_target;
 1226              		.loc 1 208 1 is_stmt 1 view -0
 1227              		.cfi_startproc
 1228              		@ args = 0, pretend = 0, frame = 0
 1229              		@ frame_needed = 0, uses_anonymous_args = 0
 1230              		@ link register save eliminated.
 209:../../Middlewares/LVGL/GUI/lvgl/src/misc/lv_event.c **** }
 1231              		.loc 1 209 5 view .LVU343
 210:../../Middlewares/LVGL/GUI/lvgl/src/misc/lv_event.c **** 
 1232              		.loc 1 210 1 is_stmt 0 view .LVU344
 1233 0000 4068     		ldr	r0, [r0, #4]
 1234              	.LVL110:
 210:../../Middlewares/LVGL/GUI/lvgl/src/misc/lv_event.c **** 
 1235              		.loc 1 210 1 view .LVU345
 1236 0002 7047     		bx	lr
 1237              		.cfi_endproc
 1238              	.LFE199:
 1240              		.section	.text.lv_event_get_code,"ax",%progbits
 1241              		.align	1
 1242              		.global	lv_event_get_code
 1243              		.syntax unified
 1244              		.thumb
 1245              		.thumb_func
 1247              	lv_event_get_code:
 1248              	.LVL111:
 1249              	.LFB200:
 213:../../Middlewares/LVGL/GUI/lvgl/src/misc/lv_event.c ****     return e->code & ~LV_EVENT_PREPROCESS;
 1250              		.loc 1 213 1 is_stmt 1 view -0
 1251              		.cfi_startproc
 1252              		@ args = 0, pretend = 0, frame = 0
 1253              		@ frame_needed = 0, uses_anonymous_args = 0
 1254              		@ link register save eliminated.
 214:../../Middlewares/LVGL/GUI/lvgl/src/misc/lv_event.c **** }
 1255              		.loc 1 214 5 view .LVU347
 214:../../Middlewares/LVGL/GUI/lvgl/src/misc/lv_event.c **** }
 1256              		.loc 1 214 13 is_stmt 0 view .LVU348
 1257 0000 8068     		ldr	r0, [r0, #8]
 1258              	.LVL112:
 215:../../Middlewares/LVGL/GUI/lvgl/src/misc/lv_event.c **** 
 1259              		.loc 1 215 1 view .LVU349
 1260 0002 20F40040 		bic	r0, r0, #32768
 1261 0006 7047     		bx	lr
 1262              		.cfi_endproc
 1263              	.LFE200:
 1265              		.section	.text.lv_event_get_param,"ax",%progbits
 1266              		.align	1
 1267              		.global	lv_event_get_param
 1268              		.syntax unified
 1269              		.thumb
 1270              		.thumb_func
 1272              	lv_event_get_param:
 1273              	.LVL113:
 1274              	.LFB201:
 218:../../Middlewares/LVGL/GUI/lvgl/src/misc/lv_event.c ****     return e->param;
 1275              		.loc 1 218 1 is_stmt 1 view -0
 1276              		.cfi_startproc
ARM GAS  C:\Users\28576\AppData\Local\Temp\ccwuB5AB.s 			page 37


 1277              		@ args = 0, pretend = 0, frame = 0
 1278              		@ frame_needed = 0, uses_anonymous_args = 0
 1279              		@ link register save eliminated.
 219:../../Middlewares/LVGL/GUI/lvgl/src/misc/lv_event.c **** }
 1280              		.loc 1 219 5 view .LVU351
 220:../../Middlewares/LVGL/GUI/lvgl/src/misc/lv_event.c **** 
 1281              		.loc 1 220 1 is_stmt 0 view .LVU352
 1282 0000 0069     		ldr	r0, [r0, #16]
 1283              	.LVL114:
 220:../../Middlewares/LVGL/GUI/lvgl/src/misc/lv_event.c **** 
 1284              		.loc 1 220 1 view .LVU353
 1285 0002 7047     		bx	lr
 1286              		.cfi_endproc
 1287              	.LFE201:
 1289              		.section	.text.lv_event_get_user_data,"ax",%progbits
 1290              		.align	1
 1291              		.global	lv_event_get_user_data
 1292              		.syntax unified
 1293              		.thumb
 1294              		.thumb_func
 1296              	lv_event_get_user_data:
 1297              	.LVL115:
 1298              	.LFB202:
 223:../../Middlewares/LVGL/GUI/lvgl/src/misc/lv_event.c ****     return e->user_data;
 1299              		.loc 1 223 1 is_stmt 1 view -0
 1300              		.cfi_startproc
 1301              		@ args = 0, pretend = 0, frame = 0
 1302              		@ frame_needed = 0, uses_anonymous_args = 0
 1303              		@ link register save eliminated.
 224:../../Middlewares/LVGL/GUI/lvgl/src/misc/lv_event.c **** }
 1304              		.loc 1 224 5 view .LVU355
 225:../../Middlewares/LVGL/GUI/lvgl/src/misc/lv_event.c **** 
 1305              		.loc 1 225 1 is_stmt 0 view .LVU356
 1306 0000 C068     		ldr	r0, [r0, #12]
 1307              	.LVL116:
 225:../../Middlewares/LVGL/GUI/lvgl/src/misc/lv_event.c **** 
 1308              		.loc 1 225 1 view .LVU357
 1309 0002 7047     		bx	lr
 1310              		.cfi_endproc
 1311              	.LFE202:
 1313              		.section	.text.lv_event_stop_bubbling,"ax",%progbits
 1314              		.align	1
 1315              		.global	lv_event_stop_bubbling
 1316              		.syntax unified
 1317              		.thumb
 1318              		.thumb_func
 1320              	lv_event_stop_bubbling:
 1321              	.LVL117:
 1322              	.LFB203:
 228:../../Middlewares/LVGL/GUI/lvgl/src/misc/lv_event.c ****     e->stop_bubbling = 1;
 1323              		.loc 1 228 1 is_stmt 1 view -0
 1324              		.cfi_startproc
 1325              		@ args = 0, pretend = 0, frame = 0
 1326              		@ frame_needed = 0, uses_anonymous_args = 0
 1327              		@ link register save eliminated.
 229:../../Middlewares/LVGL/GUI/lvgl/src/misc/lv_event.c **** }
 1328              		.loc 1 229 5 view .LVU359
ARM GAS  C:\Users\28576\AppData\Local\Temp\ccwuB5AB.s 			page 38


 229:../../Middlewares/LVGL/GUI/lvgl/src/misc/lv_event.c **** }
 1329              		.loc 1 229 22 is_stmt 0 view .LVU360
 1330 0000 037E     		ldrb	r3, [r0, #24]	@ zero_extendqisi2
 1331 0002 43F00403 		orr	r3, r3, #4
 1332 0006 0376     		strb	r3, [r0, #24]
 230:../../Middlewares/LVGL/GUI/lvgl/src/misc/lv_event.c **** 
 1333              		.loc 1 230 1 view .LVU361
 1334 0008 7047     		bx	lr
 1335              		.cfi_endproc
 1336              	.LFE203:
 1338              		.section	.text.lv_event_stop_processing,"ax",%progbits
 1339              		.align	1
 1340              		.global	lv_event_stop_processing
 1341              		.syntax unified
 1342              		.thumb
 1343              		.thumb_func
 1345              	lv_event_stop_processing:
 1346              	.LVL118:
 1347              	.LFB204:
 233:../../Middlewares/LVGL/GUI/lvgl/src/misc/lv_event.c ****     e->stop_processing = 1;
 1348              		.loc 1 233 1 is_stmt 1 view -0
 1349              		.cfi_startproc
 1350              		@ args = 0, pretend = 0, frame = 0
 1351              		@ frame_needed = 0, uses_anonymous_args = 0
 1352              		@ link register save eliminated.
 234:../../Middlewares/LVGL/GUI/lvgl/src/misc/lv_event.c **** }
 1353              		.loc 1 234 5 view .LVU363
 234:../../Middlewares/LVGL/GUI/lvgl/src/misc/lv_event.c **** }
 1354              		.loc 1 234 24 is_stmt 0 view .LVU364
 1355 0000 037E     		ldrb	r3, [r0, #24]	@ zero_extendqisi2
 1356 0002 43F00203 		orr	r3, r3, #2
 1357 0006 0376     		strb	r3, [r0, #24]
 235:../../Middlewares/LVGL/GUI/lvgl/src/misc/lv_event.c **** 
 1358              		.loc 1 235 1 view .LVU365
 1359 0008 7047     		bx	lr
 1360              		.cfi_endproc
 1361              	.LFE204:
 1363              		.section	.text.lv_event_register_id,"ax",%progbits
 1364              		.align	1
 1365              		.global	lv_event_register_id
 1366              		.syntax unified
 1367              		.thumb
 1368              		.thumb_func
 1370              	lv_event_register_id:
 1371              	.LFB205:
 238:../../Middlewares/LVGL/GUI/lvgl/src/misc/lv_event.c ****     event_last_id ++;
 1372              		.loc 1 238 1 is_stmt 1 view -0
 1373              		.cfi_startproc
 1374              		@ args = 0, pretend = 0, frame = 0
 1375              		@ frame_needed = 0, uses_anonymous_args = 0
 1376              		@ link register save eliminated.
 239:../../Middlewares/LVGL/GUI/lvgl/src/misc/lv_event.c ****     return event_last_id;
 1377              		.loc 1 239 5 view .LVU367
 1378 0000 024B     		ldr	r3, .L100
 1379 0002 186F     		ldr	r0, [r3, #112]
 239:../../Middlewares/LVGL/GUI/lvgl/src/misc/lv_event.c ****     return event_last_id;
 1380              		.loc 1 239 19 is_stmt 0 view .LVU368
ARM GAS  C:\Users\28576\AppData\Local\Temp\ccwuB5AB.s 			page 39


 1381 0004 0130     		adds	r0, r0, #1
 1382 0006 1867     		str	r0, [r3, #112]
 240:../../Middlewares/LVGL/GUI/lvgl/src/misc/lv_event.c **** }
 1383              		.loc 1 240 5 is_stmt 1 view .LVU369
 241:../../Middlewares/LVGL/GUI/lvgl/src/misc/lv_event.c **** 
 1384              		.loc 1 241 1 is_stmt 0 view .LVU370
 1385 0008 7047     		bx	lr
 1386              	.L101:
 1387 000a 00BF     		.align	2
 1388              	.L100:
 1389 000c 00000000 		.word	lv_global
 1390              		.cfi_endproc
 1391              	.LFE205:
 1393              		.section	.text.lv_event_mark_deleted,"ax",%progbits
 1394              		.align	1
 1395              		.global	lv_event_mark_deleted
 1396              		.syntax unified
 1397              		.thumb
 1398              		.thumb_func
 1400              	lv_event_mark_deleted:
 1401              	.LVL119:
 1402              	.LFB206:
 244:../../Middlewares/LVGL/GUI/lvgl/src/misc/lv_event.c ****     lv_event_t * e = event_head;
 1403              		.loc 1 244 1 is_stmt 1 view -0
 1404              		.cfi_startproc
 1405              		@ args = 0, pretend = 0, frame = 0
 1406              		@ frame_needed = 0, uses_anonymous_args = 0
 1407              		@ link register save eliminated.
 245:../../Middlewares/LVGL/GUI/lvgl/src/misc/lv_event.c **** 
 1408              		.loc 1 245 5 view .LVU372
 245:../../Middlewares/LVGL/GUI/lvgl/src/misc/lv_event.c **** 
 1409              		.loc 1 245 18 is_stmt 0 view .LVU373
 1410 0000 084B     		ldr	r3, .L108
 1411 0002 DB6E     		ldr	r3, [r3, #108]
 1412              	.LVL120:
 247:../../Middlewares/LVGL/GUI/lvgl/src/misc/lv_event.c ****         if(e->original_target == target || e->current_target == target) e->deleted = 1;
 1413              		.loc 1 247 5 is_stmt 1 view .LVU374
 247:../../Middlewares/LVGL/GUI/lvgl/src/misc/lv_event.c ****         if(e->original_target == target || e->current_target == target) e->deleted = 1;
 1414              		.loc 1 247 10 is_stmt 0 view .LVU375
 1415 0004 04E0     		b	.L103
 1416              	.L104:
 248:../../Middlewares/LVGL/GUI/lvgl/src/misc/lv_event.c ****         e = e->prev;
 1417              		.loc 1 248 73 is_stmt 1 discriminator 3 view .LVU376
 248:../../Middlewares/LVGL/GUI/lvgl/src/misc/lv_event.c ****         e = e->prev;
 1418              		.loc 1 248 84 is_stmt 0 discriminator 3 view .LVU377
 1419 0006 1A7E     		ldrb	r2, [r3, #24]	@ zero_extendqisi2
 1420 0008 42F00102 		orr	r2, r2, #1
 1421 000c 1A76     		strb	r2, [r3, #24]
 1422              	.L105:
 249:../../Middlewares/LVGL/GUI/lvgl/src/misc/lv_event.c ****     }
 1423              		.loc 1 249 9 is_stmt 1 view .LVU378
 249:../../Middlewares/LVGL/GUI/lvgl/src/misc/lv_event.c ****     }
 1424              		.loc 1 249 11 is_stmt 0 view .LVU379
 1425 000e 5B69     		ldr	r3, [r3, #20]
 1426              	.LVL121:
 1427              	.L103:
 247:../../Middlewares/LVGL/GUI/lvgl/src/misc/lv_event.c ****         if(e->original_target == target || e->current_target == target) e->deleted = 1;
ARM GAS  C:\Users\28576\AppData\Local\Temp\ccwuB5AB.s 			page 40


 1428              		.loc 1 247 11 is_stmt 1 view .LVU380
 1429 0010 33B1     		cbz	r3, .L107
 248:../../Middlewares/LVGL/GUI/lvgl/src/misc/lv_event.c ****         e = e->prev;
 1430              		.loc 1 248 9 view .LVU381
 248:../../Middlewares/LVGL/GUI/lvgl/src/misc/lv_event.c ****         e = e->prev;
 1431              		.loc 1 248 13 is_stmt 0 view .LVU382
 1432 0012 5A68     		ldr	r2, [r3, #4]
 248:../../Middlewares/LVGL/GUI/lvgl/src/misc/lv_event.c ****         e = e->prev;
 1433              		.loc 1 248 11 view .LVU383
 1434 0014 8242     		cmp	r2, r0
 1435 0016 F6D0     		beq	.L104
 248:../../Middlewares/LVGL/GUI/lvgl/src/misc/lv_event.c ****         e = e->prev;
 1436              		.loc 1 248 45 discriminator 2 view .LVU384
 1437 0018 1A68     		ldr	r2, [r3]
 248:../../Middlewares/LVGL/GUI/lvgl/src/misc/lv_event.c ****         e = e->prev;
 1438              		.loc 1 248 41 discriminator 2 view .LVU385
 1439 001a 8242     		cmp	r2, r0
 1440 001c F7D1     		bne	.L105
 1441 001e F2E7     		b	.L104
 1442              	.L107:
 251:../../Middlewares/LVGL/GUI/lvgl/src/misc/lv_event.c **** 
 1443              		.loc 1 251 1 view .LVU386
 1444 0020 7047     		bx	lr
 1445              	.L109:
 1446 0022 00BF     		.align	2
 1447              	.L108:
 1448 0024 00000000 		.word	lv_global
 1449              		.cfi_endproc
 1450              	.LFE206:
 1452              		.section	.rodata.lv_event_code_get_name.str1.4,"aMS",%progbits,1
 1453              		.align	2
 1454              	.LC0:
 1455 0000 4556454E 		.ascii	"EVENT_ALL\000"
 1455      545F414C 
 1455      4C00
 1456 000a 0000     		.align	2
 1457              	.LC1:
 1458 000c 4556454E 		.ascii	"EVENT_PRESSED\000"
 1458      545F5052 
 1458      45535345 
 1458      4400
 1459 001a 0000     		.align	2
 1460              	.LC2:
 1461 001c 4556454E 		.ascii	"EVENT_PRESSING\000"
 1461      545F5052 
 1461      45535349 
 1461      4E4700
 1462 002b 00       		.align	2
 1463              	.LC3:
 1464 002c 4556454E 		.ascii	"EVENT_PRESS_LOST\000"
 1464      545F5052 
 1464      4553535F 
 1464      4C4F5354 
 1464      00
 1465 003d 000000   		.align	2
 1466              	.LC4:
 1467 0040 4556454E 		.ascii	"EVENT_SHORT_CLICKED\000"
ARM GAS  C:\Users\28576\AppData\Local\Temp\ccwuB5AB.s 			page 41


 1467      545F5348 
 1467      4F52545F 
 1467      434C4943 
 1467      4B454400 
 1468              		.align	2
 1469              	.LC5:
 1470 0054 4556454E 		.ascii	"EVENT_SINGLE_CLICKED\000"
 1470      545F5349 
 1470      4E474C45 
 1470      5F434C49 
 1470      434B4544 
 1471 0069 000000   		.align	2
 1472              	.LC6:
 1473 006c 4556454E 		.ascii	"EVENT_DOUBLE_CLICKED\000"
 1473      545F444F 
 1473      55424C45 
 1473      5F434C49 
 1473      434B4544 
 1474 0081 000000   		.align	2
 1475              	.LC7:
 1476 0084 4556454E 		.ascii	"EVENT_TRIPLE_CLICKED\000"
 1476      545F5452 
 1476      49504C45 
 1476      5F434C49 
 1476      434B4544 
 1477 0099 000000   		.align	2
 1478              	.LC8:
 1479 009c 4556454E 		.ascii	"EVENT_LONG_PRESSED\000"
 1479      545F4C4F 
 1479      4E475F50 
 1479      52455353 
 1479      454400
 1480 00af 00       		.align	2
 1481              	.LC9:
 1482 00b0 4556454E 		.ascii	"EVENT_LONG_PRESSED_REPEAT\000"
 1482      545F4C4F 
 1482      4E475F50 
 1482      52455353 
 1482      45445F52 
 1483 00ca 0000     		.align	2
 1484              	.LC10:
 1485 00cc 4556454E 		.ascii	"EVENT_CLICKED\000"
 1485      545F434C 
 1485      49434B45 
 1485      4400
 1486 00da 0000     		.align	2
 1487              	.LC11:
 1488 00dc 4556454E 		.ascii	"EVENT_RELEASED\000"
 1488      545F5245 
 1488      4C454153 
 1488      454400
 1489 00eb 00       		.align	2
 1490              	.LC12:
 1491 00ec 4556454E 		.ascii	"EVENT_SCROLL_BEGIN\000"
 1491      545F5343 
 1491      524F4C4C 
 1491      5F424547 
ARM GAS  C:\Users\28576\AppData\Local\Temp\ccwuB5AB.s 			page 42


 1491      494E00
 1492 00ff 00       		.align	2
 1493              	.LC13:
 1494 0100 4556454E 		.ascii	"EVENT_SCROLL_THROW_BEGIN\000"
 1494      545F5343 
 1494      524F4C4C 
 1494      5F544852 
 1494      4F575F42 
 1495 0119 000000   		.align	2
 1496              	.LC14:
 1497 011c 4556454E 		.ascii	"EVENT_SCROLL_END\000"
 1497      545F5343 
 1497      524F4C4C 
 1497      5F454E44 
 1497      00
 1498 012d 000000   		.align	2
 1499              	.LC15:
 1500 0130 4556454E 		.ascii	"EVENT_SCROLL\000"
 1500      545F5343 
 1500      524F4C4C 
 1500      00
 1501 013d 000000   		.align	2
 1502              	.LC16:
 1503 0140 4556454E 		.ascii	"EVENT_GESTURE\000"
 1503      545F4745 
 1503      53545552 
 1503      4500
 1504 014e 0000     		.align	2
 1505              	.LC17:
 1506 0150 4556454E 		.ascii	"EVENT_KEY\000"
 1506      545F4B45 
 1506      5900
 1507 015a 0000     		.align	2
 1508              	.LC18:
 1509 015c 4556454E 		.ascii	"EVENT_ROTARY\000"
 1509      545F524F 
 1509      54415259 
 1509      00
 1510 0169 000000   		.align	2
 1511              	.LC19:
 1512 016c 4556454E 		.ascii	"EVENT_FOCUSED\000"
 1512      545F464F 
 1512      43555345 
 1512      4400
 1513 017a 0000     		.align	2
 1514              	.LC20:
 1515 017c 4556454E 		.ascii	"EVENT_DEFOCUSED\000"
 1515      545F4445 
 1515      464F4355 
 1515      53454400 
 1516              		.align	2
 1517              	.LC21:
 1518 018c 4556454E 		.ascii	"EVENT_LEAVE\000"
 1518      545F4C45 
 1518      41564500 
 1519              		.align	2
 1520              	.LC22:
ARM GAS  C:\Users\28576\AppData\Local\Temp\ccwuB5AB.s 			page 43


 1521 0198 4556454E 		.ascii	"EVENT_HIT_TEST\000"
 1521      545F4849 
 1521      545F5445 
 1521      535400
 1522 01a7 00       		.align	2
 1523              	.LC23:
 1524 01a8 4556454E 		.ascii	"EVENT_INDEV_RESET\000"
 1524      545F494E 
 1524      4445565F 
 1524      52455345 
 1524      5400
 1525 01ba 0000     		.align	2
 1526              	.LC24:
 1527 01bc 4556454E 		.ascii	"EVENT_HOVER_OVER\000"
 1527      545F484F 
 1527      5645525F 
 1527      4F564552 
 1527      00
 1528 01cd 000000   		.align	2
 1529              	.LC25:
 1530 01d0 4556454E 		.ascii	"EVENT_HOVER_LEAVE\000"
 1530      545F484F 
 1530      5645525F 
 1530      4C454156 
 1530      4500
 1531 01e2 0000     		.align	2
 1532              	.LC26:
 1533 01e4 4556454E 		.ascii	"EVENT_COVER_CHECK\000"
 1533      545F434F 
 1533      5645525F 
 1533      43484543 
 1533      4B00
 1534 01f6 0000     		.align	2
 1535              	.LC27:
 1536 01f8 4556454E 		.ascii	"EVENT_REFR_EXT_DRAW_SIZE\000"
 1536      545F5245 
 1536      46525F45 
 1536      58545F44 
 1536      5241575F 
 1537 0211 000000   		.align	2
 1538              	.LC28:
 1539 0214 4556454E 		.ascii	"EVENT_DRAW_MAIN_BEGIN\000"
 1539      545F4452 
 1539      41575F4D 
 1539      41494E5F 
 1539      42454749 
 1540 022a 0000     		.align	2
 1541              	.LC29:
 1542 022c 4556454E 		.ascii	"EVENT_DRAW_MAIN\000"
 1542      545F4452 
 1542      41575F4D 
 1542      41494E00 
 1543              		.align	2
 1544              	.LC30:
 1545 023c 4556454E 		.ascii	"EVENT_DRAW_MAIN_END\000"
 1545      545F4452 
 1545      41575F4D 
ARM GAS  C:\Users\28576\AppData\Local\Temp\ccwuB5AB.s 			page 44


 1545      41494E5F 
 1545      454E4400 
 1546              		.align	2
 1547              	.LC31:
 1548 0250 4556454E 		.ascii	"EVENT_DRAW_POST_BEGIN\000"
 1548      545F4452 
 1548      41575F50 
 1548      4F53545F 
 1548      42454749 
 1549 0266 0000     		.align	2
 1550              	.LC32:
 1551 0268 4556454E 		.ascii	"EVENT_DRAW_POST\000"
 1551      545F4452 
 1551      41575F50 
 1551      4F535400 
 1552              		.align	2
 1553              	.LC33:
 1554 0278 4556454E 		.ascii	"EVENT_DRAW_POST_END\000"
 1554      545F4452 
 1554      41575F50 
 1554      4F53545F 
 1554      454E4400 
 1555              		.align	2
 1556              	.LC34:
 1557 028c 4556454E 		.ascii	"EVENT_DRAW_TASK_ADDED\000"
 1557      545F4452 
 1557      41575F54 
 1557      41534B5F 
 1557      41444445 
 1558 02a2 0000     		.align	2
 1559              	.LC35:
 1560 02a4 4556454E 		.ascii	"EVENT_VALUE_CHANGED\000"
 1560      545F5641 
 1560      4C55455F 
 1560      4348414E 
 1560      47454400 
 1561              		.align	2
 1562              	.LC36:
 1563 02b8 4556454E 		.ascii	"EVENT_INSERT\000"
 1563      545F494E 
 1563      53455254 
 1563      00
 1564 02c5 000000   		.align	2
 1565              	.LC37:
 1566 02c8 4556454E 		.ascii	"EVENT_REFRESH\000"
 1566      545F5245 
 1566      46524553 
 1566      4800
 1567 02d6 0000     		.align	2
 1568              	.LC38:
 1569 02d8 4556454E 		.ascii	"EVENT_READY\000"
 1569      545F5245 
 1569      41445900 
 1570              		.align	2
 1571              	.LC39:
 1572 02e4 4556454E 		.ascii	"EVENT_CANCEL\000"
 1572      545F4341 
ARM GAS  C:\Users\28576\AppData\Local\Temp\ccwuB5AB.s 			page 45


 1572      4E43454C 
 1572      00
 1573 02f1 000000   		.align	2
 1574              	.LC40:
 1575 02f4 4556454E 		.ascii	"EVENT_CREATE\000"
 1575      545F4352 
 1575      45415445 
 1575      00
 1576 0301 000000   		.align	2
 1577              	.LC41:
 1578 0304 4556454E 		.ascii	"EVENT_DELETE\000"
 1578      545F4445 
 1578      4C455445 
 1578      00
 1579 0311 000000   		.align	2
 1580              	.LC42:
 1581 0314 4556454E 		.ascii	"EVENT_CHILD_CHANGED\000"
 1581      545F4348 
 1581      494C445F 
 1581      4348414E 
 1581      47454400 
 1582              		.align	2
 1583              	.LC43:
 1584 0328 4556454E 		.ascii	"EVENT_CHILD_CREATED\000"
 1584      545F4348 
 1584      494C445F 
 1584      43524541 
 1584      54454400 
 1585              		.align	2
 1586              	.LC44:
 1587 033c 4556454E 		.ascii	"EVENT_CHILD_DELETED\000"
 1587      545F4348 
 1587      494C445F 
 1587      44454C45 
 1587      54454400 
 1588              		.align	2
 1589              	.LC45:
 1590 0350 4556454E 		.ascii	"EVENT_SCREEN_UNLOAD_START\000"
 1590      545F5343 
 1590      5245454E 
 1590      5F554E4C 
 1590      4F41445F 
 1591 036a 0000     		.align	2
 1592              	.LC46:
 1593 036c 4556454E 		.ascii	"EVENT_SCREEN_LOAD_START\000"
 1593      545F5343 
 1593      5245454E 
 1593      5F4C4F41 
 1593      445F5354 
 1594              		.align	2
 1595              	.LC47:
 1596 0384 4556454E 		.ascii	"EVENT_SCREEN_LOADED\000"
 1596      545F5343 
 1596      5245454E 
 1596      5F4C4F41 
 1596      44454400 
 1597              		.align	2
ARM GAS  C:\Users\28576\AppData\Local\Temp\ccwuB5AB.s 			page 46


 1598              	.LC48:
 1599 0398 4556454E 		.ascii	"EVENT_SCREEN_UNLOADED\000"
 1599      545F5343 
 1599      5245454E 
 1599      5F554E4C 
 1599      4F414445 
 1600 03ae 0000     		.align	2
 1601              	.LC49:
 1602 03b0 4556454E 		.ascii	"EVENT_SIZE_CHANGED\000"
 1602      545F5349 
 1602      5A455F43 
 1602      48414E47 
 1602      454400
 1603 03c3 00       		.align	2
 1604              	.LC50:
 1605 03c4 4556454E 		.ascii	"EVENT_STYLE_CHANGED\000"
 1605      545F5354 
 1605      594C455F 
 1605      4348414E 
 1605      47454400 
 1606              		.align	2
 1607              	.LC51:
 1608 03d8 4556454E 		.ascii	"EVENT_LAYOUT_CHANGED\000"
 1608      545F4C41 
 1608      594F5554 
 1608      5F434841 
 1608      4E474544 
 1609 03ed 000000   		.align	2
 1610              	.LC52:
 1611 03f0 4556454E 		.ascii	"EVENT_GET_SELF_SIZE\000"
 1611      545F4745 
 1611      545F5345 
 1611      4C465F53 
 1611      495A4500 
 1612              		.align	2
 1613              	.LC53:
 1614 0404 4556454E 		.ascii	"EVENT_INVALIDATE_AREA\000"
 1614      545F494E 
 1614      56414C49 
 1614      44415445 
 1614      5F415245 
 1615 041a 0000     		.align	2
 1616              	.LC54:
 1617 041c 4556454E 		.ascii	"EVENT_RESOLUTION_CHANGED\000"
 1617      545F5245 
 1617      534F4C55 
 1617      54494F4E 
 1617      5F434841 
 1618 0435 000000   		.align	2
 1619              	.LC55:
 1620 0438 4556454E 		.ascii	"EVENT_COLOR_FORMAT_CHANGED\000"
 1620      545F434F 
 1620      4C4F525F 
 1620      464F524D 
 1620      41545F43 
 1621 0453 00       		.align	2
 1622              	.LC56:
ARM GAS  C:\Users\28576\AppData\Local\Temp\ccwuB5AB.s 			page 47


 1623 0454 4556454E 		.ascii	"EVENT_REFR_REQUEST\000"
 1623      545F5245 
 1623      46525F52 
 1623      45515545 
 1623      535400
 1624 0467 00       		.align	2
 1625              	.LC57:
 1626 0468 4556454E 		.ascii	"EVENT_REFR_START\000"
 1626      545F5245 
 1626      46525F53 
 1626      54415254 
 1626      00
 1627 0479 000000   		.align	2
 1628              	.LC58:
 1629 047c 4556454E 		.ascii	"EVENT_REFR_READY\000"
 1629      545F5245 
 1629      46525F52 
 1629      45414459 
 1629      00
 1630 048d 000000   		.align	2
 1631              	.LC59:
 1632 0490 4556454E 		.ascii	"EVENT_RENDER_START\000"
 1632      545F5245 
 1632      4E444552 
 1632      5F535441 
 1632      525400
 1633 04a3 00       		.align	2
 1634              	.LC60:
 1635 04a4 4556454E 		.ascii	"EVENT_RENDER_READY\000"
 1635      545F5245 
 1635      4E444552 
 1635      5F524541 
 1635      445900
 1636 04b7 00       		.align	2
 1637              	.LC61:
 1638 04b8 4556454E 		.ascii	"EVENT_FLUSH_START\000"
 1638      545F464C 
 1638      5553485F 
 1638      53544152 
 1638      5400
 1639 04ca 0000     		.align	2
 1640              	.LC62:
 1641 04cc 4556454E 		.ascii	"EVENT_FLUSH_FINISH\000"
 1641      545F464C 
 1641      5553485F 
 1641      46494E49 
 1641      534800
 1642 04df 00       		.align	2
 1643              	.LC63:
 1644 04e0 4556454E 		.ascii	"EVENT_FLUSH_WAIT_START\000"
 1644      545F464C 
 1644      5553485F 
 1644      57414954 
 1644      5F535441 
 1645 04f7 00       		.align	2
 1646              	.LC64:
 1647 04f8 4556454E 		.ascii	"EVENT_FLUSH_WAIT_FINISH\000"
ARM GAS  C:\Users\28576\AppData\Local\Temp\ccwuB5AB.s 			page 48


 1647      545F464C 
 1647      5553485F 
 1647      57414954 
 1647      5F46494E 
 1648              		.align	2
 1649              	.LC65:
 1650 0510 4556454E 		.ascii	"EVENT_VSYNC\000"
 1650      545F5653 
 1650      594E4300 
 1651              		.align	2
 1652              	.LC66:
 1653 051c 4556454E 		.ascii	"EVENT_VSYNC_REQUEST\000"
 1653      545F5653 
 1653      594E435F 
 1653      52455155 
 1653      45535400 
 1654              		.align	2
 1655              	.LC67:
 1656 0530 4556454E 		.ascii	"EVENT_UNKNOWN\000"
 1656      545F554E 
 1656      4B4E4F57 
 1656      4E00
 1657              		.section	.text.lv_event_code_get_name,"ax",%progbits
 1658              		.align	1
 1659              		.global	lv_event_code_get_name
 1660              		.syntax unified
 1661              		.thumb
 1662              		.thumb_func
 1664              	lv_event_code_get_name:
 1665              	.LVL122:
 1666              	.LFB207:
 254:../../Middlewares/LVGL/GUI/lvgl/src/misc/lv_event.c ****     /*Remove the preprocess flag*/
 1667              		.loc 1 254 1 is_stmt 1 view -0
 1668              		.cfi_startproc
 1669              		@ args = 0, pretend = 0, frame = 0
 1670              		@ frame_needed = 0, uses_anonymous_args = 0
 1671              		@ link register save eliminated.
 256:../../Middlewares/LVGL/GUI/lvgl/src/misc/lv_event.c **** 
 1672              		.loc 1 256 5 view .LVU388
 256:../../Middlewares/LVGL/GUI/lvgl/src/misc/lv_event.c **** 
 1673              		.loc 1 256 10 is_stmt 0 view .LVU389
 1674 0000 20F40040 		bic	r0, r0, #32768
 1675              	.LVL123:
 260:../../Middlewares/LVGL/GUI/lvgl/src/misc/lv_event.c ****             ENUM_CASE(EVENT_ALL);
 1676              		.loc 1 260 5 is_stmt 1 view .LVU390
 1677 0004 2128     		cmp	r0, #33
 1678 0006 00F00181 		beq	.L131
 1679 000a 7FD8     		bhi	.L112
 1680 000c 1028     		cmp	r0, #16
 1681 000e 00F0FF80 		beq	.L132
 1682 0012 13D9     		bls	.L198
 1683 0014 1928     		cmp	r0, #25
 1684 0016 00F01D81 		beq	.L149
 1685 001a 5DD8     		bhi	.L118
 1686 001c 1528     		cmp	r0, #21
 1687 001e 00F01B81 		beq	.L150
 1688 0022 4ED8     		bhi	.L119
ARM GAS  C:\Users\28576\AppData\Local\Temp\ccwuB5AB.s 			page 49


 1689 0024 1328     		cmp	r0, #19
 1690 0026 00F01981 		beq	.L151
 1691 002a 45D8     		bhi	.L120
 1692 002c 1128     		cmp	r0, #17
 1693 002e 00F01781 		beq	.L152
 1694 0032 1228     		cmp	r0, #18
 1695 0034 40F01681 		bne	.L153
 281:../../Middlewares/LVGL/GUI/lvgl/src/misc/lv_event.c ****             ENUM_CASE(EVENT_FOCUSED);
 1696              		.loc 1 281 13 is_stmt 0 view .LVU391
 1697 0038 9848     		ldr	r0, .L200
 1698              	.LVL124:
 281:../../Middlewares/LVGL/GUI/lvgl/src/misc/lv_event.c ****             ENUM_CASE(EVENT_FOCUSED);
 1699              		.loc 1 281 13 view .LVU392
 1700 003a 7047     		bx	lr
 1701              	.LVL125:
 1702              	.L198:
 260:../../Middlewares/LVGL/GUI/lvgl/src/misc/lv_event.c ****             ENUM_CASE(EVENT_ALL);
 1703              		.loc 1 260 5 view .LVU393
 1704 003c 0828     		cmp	r0, #8
 1705 003e 00F0E980 		beq	.L133
 1706 0042 1FD8     		bhi	.L114
 1707 0044 0428     		cmp	r0, #4
 1708 0046 00F0E780 		beq	.L134
 1709 004a 10D8     		bhi	.L115
 1710 004c 0228     		cmp	r0, #2
 1711 004e 00F0E580 		beq	.L135
 1712 0052 07D8     		bhi	.L116
 1713 0054 0028     		cmp	r0, #0
 1714 0056 00F0E380 		beq	.L136
 1715 005a 0128     		cmp	r0, #1
 1716 005c 40F0E280 		bne	.L137
 264:../../Middlewares/LVGL/GUI/lvgl/src/misc/lv_event.c ****             ENUM_CASE(EVENT_PRESSING);
 1717              		.loc 1 264 13 view .LVU394
 1718 0060 8F48     		ldr	r0, .L200+4
 1719              	.LVL126:
 264:../../Middlewares/LVGL/GUI/lvgl/src/misc/lv_event.c ****             ENUM_CASE(EVENT_PRESSING);
 1720              		.loc 1 264 13 view .LVU395
 1721 0062 7047     		bx	lr
 1722              	.LVL127:
 1723              	.L116:
 260:../../Middlewares/LVGL/GUI/lvgl/src/misc/lv_event.c ****             ENUM_CASE(EVENT_ALL);
 1724              		.loc 1 260 5 view .LVU396
 1725 0064 0328     		cmp	r0, #3
 1726 0066 40F0DF80 		bne	.L138
 266:../../Middlewares/LVGL/GUI/lvgl/src/misc/lv_event.c ****             ENUM_CASE(EVENT_SHORT_CLICKED);
 1727              		.loc 1 266 13 view .LVU397
 1728 006a 8E48     		ldr	r0, .L200+8
 1729              	.LVL128:
 266:../../Middlewares/LVGL/GUI/lvgl/src/misc/lv_event.c ****             ENUM_CASE(EVENT_SHORT_CLICKED);
 1730              		.loc 1 266 13 view .LVU398
 1731 006c 7047     		bx	lr
 1732              	.LVL129:
 1733              	.L115:
 260:../../Middlewares/LVGL/GUI/lvgl/src/misc/lv_event.c ****             ENUM_CASE(EVENT_ALL);
 1734              		.loc 1 260 5 view .LVU399
 1735 006e 0628     		cmp	r0, #6
 1736 0070 00F0DC80 		beq	.L139
ARM GAS  C:\Users\28576\AppData\Local\Temp\ccwuB5AB.s 			page 50


 1737 0074 0728     		cmp	r0, #7
 1738 0076 00F0DB80 		beq	.L140
 1739 007a 0528     		cmp	r0, #5
 1740 007c 40F0DA80 		bne	.L141
 268:../../Middlewares/LVGL/GUI/lvgl/src/misc/lv_event.c ****             ENUM_CASE(EVENT_DOUBLE_CLICKED);
 1741              		.loc 1 268 13 view .LVU400
 1742 0080 8948     		ldr	r0, .L200+12
 1743              	.LVL130:
 268:../../Middlewares/LVGL/GUI/lvgl/src/misc/lv_event.c ****             ENUM_CASE(EVENT_DOUBLE_CLICKED);
 1744              		.loc 1 268 13 view .LVU401
 1745 0082 7047     		bx	lr
 1746              	.LVL131:
 1747              	.L114:
 260:../../Middlewares/LVGL/GUI/lvgl/src/misc/lv_event.c ****             ENUM_CASE(EVENT_ALL);
 1748              		.loc 1 260 5 view .LVU402
 1749 0084 0C28     		cmp	r0, #12
 1750 0086 00F0D780 		beq	.L142
 1751 008a 0AD8     		bhi	.L117
 1752 008c 0A28     		cmp	r0, #10
 1753 008e 00F0D580 		beq	.L143
 1754 0092 0B28     		cmp	r0, #11
 1755 0094 00F0D480 		beq	.L144
 1756 0098 0928     		cmp	r0, #9
 1757 009a 40F0D380 		bne	.L145
 272:../../Middlewares/LVGL/GUI/lvgl/src/misc/lv_event.c ****             ENUM_CASE(EVENT_CLICKED);
 1758              		.loc 1 272 13 view .LVU403
 1759 009e 8348     		ldr	r0, .L200+16
 1760              	.LVL132:
 272:../../Middlewares/LVGL/GUI/lvgl/src/misc/lv_event.c ****             ENUM_CASE(EVENT_CLICKED);
 1761              		.loc 1 272 13 view .LVU404
 1762 00a0 7047     		bx	lr
 1763              	.LVL133:
 1764              	.L117:
 260:../../Middlewares/LVGL/GUI/lvgl/src/misc/lv_event.c ****             ENUM_CASE(EVENT_ALL);
 1765              		.loc 1 260 5 view .LVU405
 1766 00a2 0E28     		cmp	r0, #14
 1767 00a4 00F0D080 		beq	.L146
 1768 00a8 0F28     		cmp	r0, #15
 1769 00aa 00F0CF80 		beq	.L147
 1770 00ae 0D28     		cmp	r0, #13
 1771 00b0 40F0CE80 		bne	.L148
 276:../../Middlewares/LVGL/GUI/lvgl/src/misc/lv_event.c ****             ENUM_CASE(EVENT_SCROLL_END);
 1772              		.loc 1 276 13 view .LVU406
 1773 00b4 7E48     		ldr	r0, .L200+20
 1774              	.LVL134:
 276:../../Middlewares/LVGL/GUI/lvgl/src/misc/lv_event.c ****             ENUM_CASE(EVENT_SCROLL_END);
 1775              		.loc 1 276 13 view .LVU407
 1776 00b6 7047     		bx	lr
 1777              	.LVL135:
 1778              	.L120:
 260:../../Middlewares/LVGL/GUI/lvgl/src/misc/lv_event.c ****             ENUM_CASE(EVENT_ALL);
 1779              		.loc 1 260 5 view .LVU408
 1780 00b8 1428     		cmp	r0, #20
 1781 00ba 40F0D580 		bne	.L154
 283:../../Middlewares/LVGL/GUI/lvgl/src/misc/lv_event.c ****             ENUM_CASE(EVENT_LEAVE);
 1782              		.loc 1 283 13 view .LVU409
 1783 00be 7D48     		ldr	r0, .L200+24
ARM GAS  C:\Users\28576\AppData\Local\Temp\ccwuB5AB.s 			page 51


 1784              	.LVL136:
 283:../../Middlewares/LVGL/GUI/lvgl/src/misc/lv_event.c ****             ENUM_CASE(EVENT_LEAVE);
 1785              		.loc 1 283 13 view .LVU410
 1786 00c0 7047     		bx	lr
 1787              	.LVL137:
 1788              	.L119:
 260:../../Middlewares/LVGL/GUI/lvgl/src/misc/lv_event.c ****             ENUM_CASE(EVENT_ALL);
 1789              		.loc 1 260 5 view .LVU411
 1790 00c2 1728     		cmp	r0, #23
 1791 00c4 00F0D280 		beq	.L155
 1792 00c8 1828     		cmp	r0, #24
 1793 00ca 00F0D180 		beq	.L156
 1794 00ce 1628     		cmp	r0, #22
 1795 00d0 40F0D080 		bne	.L157
 285:../../Middlewares/LVGL/GUI/lvgl/src/misc/lv_event.c ****             ENUM_CASE(EVENT_INDEV_RESET);
 1796              		.loc 1 285 13 view .LVU412
 1797 00d4 7848     		ldr	r0, .L200+28
 1798              	.LVL138:
 285:../../Middlewares/LVGL/GUI/lvgl/src/misc/lv_event.c ****             ENUM_CASE(EVENT_INDEV_RESET);
 1799              		.loc 1 285 13 view .LVU413
 1800 00d6 7047     		bx	lr
 1801              	.LVL139:
 1802              	.L118:
 260:../../Middlewares/LVGL/GUI/lvgl/src/misc/lv_event.c ****             ENUM_CASE(EVENT_ALL);
 1803              		.loc 1 260 5 view .LVU414
 1804 00d8 1D28     		cmp	r0, #29
 1805 00da 00F0CD80 		beq	.L158
 1806 00de 0AD8     		bhi	.L121
 1807 00e0 1B28     		cmp	r0, #27
 1808 00e2 00F0CB80 		beq	.L159
 1809 00e6 1C28     		cmp	r0, #28
 1810 00e8 00F0CA80 		beq	.L160
 1811 00ec 1A28     		cmp	r0, #26
 1812 00ee 40F0C980 		bne	.L161
 291:../../Middlewares/LVGL/GUI/lvgl/src/misc/lv_event.c ****             ENUM_CASE(EVENT_REFR_EXT_DRAW_SIZE);
 1813              		.loc 1 291 13 view .LVU415
 1814 00f2 7248     		ldr	r0, .L200+32
 1815              	.LVL140:
 291:../../Middlewares/LVGL/GUI/lvgl/src/misc/lv_event.c ****             ENUM_CASE(EVENT_REFR_EXT_DRAW_SIZE);
 1816              		.loc 1 291 13 view .LVU416
 1817 00f4 7047     		bx	lr
 1818              	.LVL141:
 1819              	.L121:
 260:../../Middlewares/LVGL/GUI/lvgl/src/misc/lv_event.c ****             ENUM_CASE(EVENT_ALL);
 1820              		.loc 1 260 5 view .LVU417
 1821 00f6 1F28     		cmp	r0, #31
 1822 00f8 00F0C680 		beq	.L162
 1823 00fc 2028     		cmp	r0, #32
 1824 00fe 00F0C580 		beq	.L163
 1825 0102 1E28     		cmp	r0, #30
 1826 0104 40F0C480 		bne	.L164
 295:../../Middlewares/LVGL/GUI/lvgl/src/misc/lv_event.c ****             ENUM_CASE(EVENT_DRAW_POST_BEGIN);
 1827              		.loc 1 295 13 view .LVU418
 1828 0108 6D48     		ldr	r0, .L200+36
 1829              	.LVL142:
 295:../../Middlewares/LVGL/GUI/lvgl/src/misc/lv_event.c ****             ENUM_CASE(EVENT_DRAW_POST_BEGIN);
 1830              		.loc 1 295 13 view .LVU419
ARM GAS  C:\Users\28576\AppData\Local\Temp\ccwuB5AB.s 			page 52


 1831 010a 7047     		bx	lr
 1832              	.LVL143:
 1833              	.L112:
 260:../../Middlewares/LVGL/GUI/lvgl/src/misc/lv_event.c ****             ENUM_CASE(EVENT_ALL);
 1834              		.loc 1 260 5 view .LVU420
 1835 010c 3228     		cmp	r0, #50
 1836 010e 00F0C180 		beq	.L165
 1837 0112 13D9     		bls	.L199
 1838 0114 3B28     		cmp	r0, #59
 1839 0116 00F03D81 		beq	.L182
 1840 011a 5DD8     		bhi	.L127
 1841 011c 3728     		cmp	r0, #55
 1842 011e 00F03B81 		beq	.L183
 1843 0122 4ED8     		bhi	.L128
 1844 0124 3528     		cmp	r0, #53
 1845 0126 00F03981 		beq	.L184
 1846 012a 45D8     		bhi	.L129
 1847 012c 3328     		cmp	r0, #51
 1848 012e 00F03781 		beq	.L185
 1849 0132 3428     		cmp	r0, #52
 1850 0134 40F03681 		bne	.L186
 321:../../Middlewares/LVGL/GUI/lvgl/src/misc/lv_event.c **** 
 1851              		.loc 1 321 13 view .LVU421
 1852 0138 6248     		ldr	r0, .L200+40
 1853              	.LVL144:
 321:../../Middlewares/LVGL/GUI/lvgl/src/misc/lv_event.c **** 
 1854              		.loc 1 321 13 view .LVU422
 1855 013a 7047     		bx	lr
 1856              	.LVL145:
 1857              	.L199:
 260:../../Middlewares/LVGL/GUI/lvgl/src/misc/lv_event.c ****             ENUM_CASE(EVENT_ALL);
 1858              		.loc 1 260 5 view .LVU423
 1859 013c 2A28     		cmp	r0, #42
 1860 013e 00F0AB80 		beq	.L166
 1861 0142 1FD8     		bhi	.L123
 1862 0144 2628     		cmp	r0, #38
 1863 0146 00F00781 		beq	.L167
 1864 014a 10D8     		bhi	.L124
 1865 014c 2428     		cmp	r0, #36
 1866 014e 00F00581 		beq	.L168
 1867 0152 07D8     		bhi	.L125
 1868 0154 2228     		cmp	r0, #34
 1869 0156 00F00381 		beq	.L169
 1870 015a 2328     		cmp	r0, #35
 1871 015c 40F00281 		bne	.L170
 302:../../Middlewares/LVGL/GUI/lvgl/src/misc/lv_event.c ****             ENUM_CASE(EVENT_INSERT);
 1872              		.loc 1 302 13 view .LVU424
 1873 0160 5948     		ldr	r0, .L200+44
 1874              	.LVL146:
 302:../../Middlewares/LVGL/GUI/lvgl/src/misc/lv_event.c ****             ENUM_CASE(EVENT_INSERT);
 1875              		.loc 1 302 13 view .LVU425
 1876 0162 7047     		bx	lr
 1877              	.LVL147:
 1878              	.L125:
 260:../../Middlewares/LVGL/GUI/lvgl/src/misc/lv_event.c ****             ENUM_CASE(EVENT_ALL);
 1879              		.loc 1 260 5 view .LVU426
 1880 0164 2528     		cmp	r0, #37
ARM GAS  C:\Users\28576\AppData\Local\Temp\ccwuB5AB.s 			page 53


 1881 0166 40F0FF80 		bne	.L171
 304:../../Middlewares/LVGL/GUI/lvgl/src/misc/lv_event.c ****             ENUM_CASE(EVENT_READY);
 1882              		.loc 1 304 13 view .LVU427
 1883 016a 5848     		ldr	r0, .L200+48
 1884              	.LVL148:
 304:../../Middlewares/LVGL/GUI/lvgl/src/misc/lv_event.c ****             ENUM_CASE(EVENT_READY);
 1885              		.loc 1 304 13 view .LVU428
 1886 016c 7047     		bx	lr
 1887              	.LVL149:
 1888              	.L124:
 260:../../Middlewares/LVGL/GUI/lvgl/src/misc/lv_event.c ****             ENUM_CASE(EVENT_ALL);
 1889              		.loc 1 260 5 view .LVU429
 1890 016e 2828     		cmp	r0, #40
 1891 0170 00F0FC80 		beq	.L172
 1892 0174 2928     		cmp	r0, #41
 1893 0176 00F0FB80 		beq	.L173
 1894 017a 2728     		cmp	r0, #39
 1895 017c 40F0FA80 		bne	.L174
 306:../../Middlewares/LVGL/GUI/lvgl/src/misc/lv_event.c **** 
 1896              		.loc 1 306 13 view .LVU430
 1897 0180 5348     		ldr	r0, .L200+52
 1898              	.LVL150:
 306:../../Middlewares/LVGL/GUI/lvgl/src/misc/lv_event.c **** 
 1899              		.loc 1 306 13 view .LVU431
 1900 0182 7047     		bx	lr
 1901              	.LVL151:
 1902              	.L123:
 260:../../Middlewares/LVGL/GUI/lvgl/src/misc/lv_event.c ****             ENUM_CASE(EVENT_ALL);
 1903              		.loc 1 260 5 view .LVU432
 1904 0184 2E28     		cmp	r0, #46
 1905 0186 00F0F780 		beq	.L175
 1906 018a 0AD8     		bhi	.L126
 1907 018c 2C28     		cmp	r0, #44
 1908 018e 00F0F580 		beq	.L176
 1909 0192 2D28     		cmp	r0, #45
 1910 0194 00F0F480 		beq	.L177
 1911 0198 2B28     		cmp	r0, #43
 1912 019a 40F0F380 		bne	.L178
 312:../../Middlewares/LVGL/GUI/lvgl/src/misc/lv_event.c ****             ENUM_CASE(EVENT_CHILD_DELETED);
 1913              		.loc 1 312 13 view .LVU433
 1914 019e 4D48     		ldr	r0, .L200+56
 1915              	.LVL152:
 312:../../Middlewares/LVGL/GUI/lvgl/src/misc/lv_event.c ****             ENUM_CASE(EVENT_CHILD_DELETED);
 1916              		.loc 1 312 13 view .LVU434
 1917 01a0 7047     		bx	lr
 1918              	.LVL153:
 1919              	.L126:
 260:../../Middlewares/LVGL/GUI/lvgl/src/misc/lv_event.c ****             ENUM_CASE(EVENT_ALL);
 1920              		.loc 1 260 5 view .LVU435
 1921 01a2 3028     		cmp	r0, #48
 1922 01a4 00F0F080 		beq	.L179
 1923 01a8 3128     		cmp	r0, #49
 1924 01aa 00F0EF80 		beq	.L180
 1925 01ae 2F28     		cmp	r0, #47
 1926 01b0 40F0EE80 		bne	.L181
 316:../../Middlewares/LVGL/GUI/lvgl/src/misc/lv_event.c ****             ENUM_CASE(EVENT_SCREEN_UNLOADED);
 1927              		.loc 1 316 13 view .LVU436
ARM GAS  C:\Users\28576\AppData\Local\Temp\ccwuB5AB.s 			page 54


 1928 01b4 4848     		ldr	r0, .L200+60
 1929              	.LVL154:
 316:../../Middlewares/LVGL/GUI/lvgl/src/misc/lv_event.c ****             ENUM_CASE(EVENT_SCREEN_UNLOADED);
 1930              		.loc 1 316 13 view .LVU437
 1931 01b6 7047     		bx	lr
 1932              	.LVL155:
 1933              	.L129:
 260:../../Middlewares/LVGL/GUI/lvgl/src/misc/lv_event.c ****             ENUM_CASE(EVENT_ALL);
 1934              		.loc 1 260 5 view .LVU438
 1935 01b8 3628     		cmp	r0, #54
 1936 01ba 40F0F580 		bne	.L187
 325:../../Middlewares/LVGL/GUI/lvgl/src/misc/lv_event.c ****             ENUM_CASE(EVENT_COLOR_FORMAT_CHANGED);
 1937              		.loc 1 325 13 view .LVU439
 1938 01be 4748     		ldr	r0, .L200+64
 1939              	.LVL156:
 325:../../Middlewares/LVGL/GUI/lvgl/src/misc/lv_event.c ****             ENUM_CASE(EVENT_COLOR_FORMAT_CHANGED);
 1940              		.loc 1 325 13 view .LVU440
 1941 01c0 7047     		bx	lr
 1942              	.LVL157:
 1943              	.L128:
 260:../../Middlewares/LVGL/GUI/lvgl/src/misc/lv_event.c ****             ENUM_CASE(EVENT_ALL);
 1944              		.loc 1 260 5 view .LVU441
 1945 01c2 3928     		cmp	r0, #57
 1946 01c4 00F0F280 		beq	.L188
 1947 01c8 3A28     		cmp	r0, #58
 1948 01ca 00F0F180 		beq	.L189
 1949 01ce 3828     		cmp	r0, #56
 1950 01d0 40F0F080 		bne	.L190
 327:../../Middlewares/LVGL/GUI/lvgl/src/misc/lv_event.c ****             ENUM_CASE(EVENT_REFR_START);
 1951              		.loc 1 327 13 view .LVU442
 1952 01d4 4248     		ldr	r0, .L200+68
 1953              	.LVL158:
 327:../../Middlewares/LVGL/GUI/lvgl/src/misc/lv_event.c ****             ENUM_CASE(EVENT_REFR_START);
 1954              		.loc 1 327 13 view .LVU443
 1955 01d6 7047     		bx	lr
 1956              	.LVL159:
 1957              	.L127:
 260:../../Middlewares/LVGL/GUI/lvgl/src/misc/lv_event.c ****             ENUM_CASE(EVENT_ALL);
 1958              		.loc 1 260 5 view .LVU444
 1959 01d8 3F28     		cmp	r0, #63
 1960 01da 00F0ED80 		beq	.L191
 1961 01de 0AD8     		bhi	.L130
 1962 01e0 3D28     		cmp	r0, #61
 1963 01e2 00F0EB80 		beq	.L192
 1964 01e6 3E28     		cmp	r0, #62
 1965 01e8 00F0EA80 		beq	.L193
 1966 01ec 3C28     		cmp	r0, #60
 1967 01ee 40F0E980 		bne	.L194
 331:../../Middlewares/LVGL/GUI/lvgl/src/misc/lv_event.c ****             ENUM_CASE(EVENT_FLUSH_START);
 1968              		.loc 1 331 13 view .LVU445
 1969 01f2 3C48     		ldr	r0, .L200+72
 1970              	.LVL160:
 331:../../Middlewares/LVGL/GUI/lvgl/src/misc/lv_event.c ****             ENUM_CASE(EVENT_FLUSH_START);
 1971              		.loc 1 331 13 view .LVU446
 1972 01f4 7047     		bx	lr
 1973              	.LVL161:
 1974              	.L130:
ARM GAS  C:\Users\28576\AppData\Local\Temp\ccwuB5AB.s 			page 55


 260:../../Middlewares/LVGL/GUI/lvgl/src/misc/lv_event.c ****             ENUM_CASE(EVENT_ALL);
 1975              		.loc 1 260 5 view .LVU447
 1976 01f6 4128     		cmp	r0, #65
 1977 01f8 00F0E680 		beq	.L195
 1978 01fc 4228     		cmp	r0, #66
 1979 01fe 00F0E580 		beq	.L196
 1980 0202 4028     		cmp	r0, #64
 1981 0204 40F0E480 		bne	.L197
 335:../../Middlewares/LVGL/GUI/lvgl/src/misc/lv_event.c **** 
 1982              		.loc 1 335 13 view .LVU448
 1983 0208 3748     		ldr	r0, .L200+76
 1984              	.LVL162:
 335:../../Middlewares/LVGL/GUI/lvgl/src/misc/lv_event.c **** 
 1985              		.loc 1 335 13 view .LVU449
 1986 020a 7047     		bx	lr
 1987              	.LVL163:
 1988              	.L131:
 298:../../Middlewares/LVGL/GUI/lvgl/src/misc/lv_event.c ****             ENUM_CASE(EVENT_DRAW_TASK_ADDED);
 1989              		.loc 1 298 13 view .LVU450
 1990 020c 3748     		ldr	r0, .L200+80
 1991              	.LVL164:
 298:../../Middlewares/LVGL/GUI/lvgl/src/misc/lv_event.c ****             ENUM_CASE(EVENT_DRAW_TASK_ADDED);
 1992              		.loc 1 298 13 view .LVU451
 1993 020e 7047     		bx	lr
 1994              	.LVL165:
 1995              	.L132:
 279:../../Middlewares/LVGL/GUI/lvgl/src/misc/lv_event.c ****             ENUM_CASE(EVENT_KEY);
 1996              		.loc 1 279 13 view .LVU452
 1997 0210 3748     		ldr	r0, .L200+84
 1998              	.LVL166:
 279:../../Middlewares/LVGL/GUI/lvgl/src/misc/lv_event.c ****             ENUM_CASE(EVENT_KEY);
 1999              		.loc 1 279 13 view .LVU453
 2000 0212 7047     		bx	lr
 2001              	.LVL167:
 2002              	.L133:
 271:../../Middlewares/LVGL/GUI/lvgl/src/misc/lv_event.c ****             ENUM_CASE(EVENT_LONG_PRESSED_REPEAT);
 2003              		.loc 1 271 13 view .LVU454
 2004 0214 3748     		ldr	r0, .L200+88
 2005              	.LVL168:
 271:../../Middlewares/LVGL/GUI/lvgl/src/misc/lv_event.c ****             ENUM_CASE(EVENT_LONG_PRESSED_REPEAT);
 2006              		.loc 1 271 13 view .LVU455
 2007 0216 7047     		bx	lr
 2008              	.LVL169:
 2009              	.L134:
 267:../../Middlewares/LVGL/GUI/lvgl/src/misc/lv_event.c ****             ENUM_CASE(EVENT_SINGLE_CLICKED);
 2010              		.loc 1 267 13 view .LVU456
 2011 0218 3748     		ldr	r0, .L200+92
 2012              	.LVL170:
 267:../../Middlewares/LVGL/GUI/lvgl/src/misc/lv_event.c ****             ENUM_CASE(EVENT_SINGLE_CLICKED);
 2013              		.loc 1 267 13 view .LVU457
 2014 021a 7047     		bx	lr
 2015              	.LVL171:
 2016              	.L135:
 265:../../Middlewares/LVGL/GUI/lvgl/src/misc/lv_event.c ****             ENUM_CASE(EVENT_PRESS_LOST);
 2017              		.loc 1 265 13 view .LVU458
 2018 021c 3748     		ldr	r0, .L200+96
 2019              	.LVL172:
ARM GAS  C:\Users\28576\AppData\Local\Temp\ccwuB5AB.s 			page 56


 265:../../Middlewares/LVGL/GUI/lvgl/src/misc/lv_event.c ****             ENUM_CASE(EVENT_PRESS_LOST);
 2020              		.loc 1 265 13 view .LVU459
 2021 021e 7047     		bx	lr
 2022              	.LVL173:
 2023              	.L136:
 260:../../Middlewares/LVGL/GUI/lvgl/src/misc/lv_event.c ****             ENUM_CASE(EVENT_ALL);
 2024              		.loc 1 260 5 view .LVU460
 2025 0220 3748     		ldr	r0, .L200+100
 2026              	.LVL174:
 260:../../Middlewares/LVGL/GUI/lvgl/src/misc/lv_event.c ****             ENUM_CASE(EVENT_ALL);
 2027              		.loc 1 260 5 view .LVU461
 2028 0222 7047     		bx	lr
 2029              	.LVL175:
 2030              	.L137:
 353:../../Middlewares/LVGL/GUI/lvgl/src/misc/lv_event.c **** }
 2031              		.loc 1 353 12 view .LVU462
 2032 0224 3748     		ldr	r0, .L200+104
 2033              	.LVL176:
 353:../../Middlewares/LVGL/GUI/lvgl/src/misc/lv_event.c **** }
 2034              		.loc 1 353 12 view .LVU463
 2035 0226 7047     		bx	lr
 2036              	.LVL177:
 2037              	.L138:
 353:../../Middlewares/LVGL/GUI/lvgl/src/misc/lv_event.c **** }
 2038              		.loc 1 353 12 view .LVU464
 2039 0228 3648     		ldr	r0, .L200+104
 2040              	.LVL178:
 353:../../Middlewares/LVGL/GUI/lvgl/src/misc/lv_event.c **** }
 2041              		.loc 1 353 12 view .LVU465
 2042 022a 7047     		bx	lr
 2043              	.LVL179:
 2044              	.L139:
 269:../../Middlewares/LVGL/GUI/lvgl/src/misc/lv_event.c ****             ENUM_CASE(EVENT_TRIPLE_CLICKED);
 2045              		.loc 1 269 13 view .LVU466
 2046 022c 3648     		ldr	r0, .L200+108
 2047              	.LVL180:
 269:../../Middlewares/LVGL/GUI/lvgl/src/misc/lv_event.c ****             ENUM_CASE(EVENT_TRIPLE_CLICKED);
 2048              		.loc 1 269 13 view .LVU467
 2049 022e 7047     		bx	lr
 2050              	.LVL181:
 2051              	.L140:
 270:../../Middlewares/LVGL/GUI/lvgl/src/misc/lv_event.c ****             ENUM_CASE(EVENT_LONG_PRESSED);
 2052              		.loc 1 270 13 view .LVU468
 2053 0230 3648     		ldr	r0, .L200+112
 2054              	.LVL182:
 270:../../Middlewares/LVGL/GUI/lvgl/src/misc/lv_event.c ****             ENUM_CASE(EVENT_LONG_PRESSED);
 2055              		.loc 1 270 13 view .LVU469
 2056 0232 7047     		bx	lr
 2057              	.LVL183:
 2058              	.L141:
 353:../../Middlewares/LVGL/GUI/lvgl/src/misc/lv_event.c **** }
 2059              		.loc 1 353 12 view .LVU470
 2060 0234 3348     		ldr	r0, .L200+104
 2061              	.LVL184:
 353:../../Middlewares/LVGL/GUI/lvgl/src/misc/lv_event.c **** }
 2062              		.loc 1 353 12 view .LVU471
 2063 0236 7047     		bx	lr
ARM GAS  C:\Users\28576\AppData\Local\Temp\ccwuB5AB.s 			page 57


 2064              	.LVL185:
 2065              	.L142:
 275:../../Middlewares/LVGL/GUI/lvgl/src/misc/lv_event.c ****             ENUM_CASE(EVENT_SCROLL_THROW_BEGIN);
 2066              		.loc 1 275 13 view .LVU472
 2067 0238 3548     		ldr	r0, .L200+116
 2068              	.LVL186:
 275:../../Middlewares/LVGL/GUI/lvgl/src/misc/lv_event.c ****             ENUM_CASE(EVENT_SCROLL_THROW_BEGIN);
 2069              		.loc 1 275 13 view .LVU473
 2070 023a 7047     		bx	lr
 2071              	.LVL187:
 2072              	.L143:
 273:../../Middlewares/LVGL/GUI/lvgl/src/misc/lv_event.c ****             ENUM_CASE(EVENT_RELEASED);
 2073              		.loc 1 273 13 view .LVU474
 2074 023c 3548     		ldr	r0, .L200+120
 2075              	.LVL188:
 273:../../Middlewares/LVGL/GUI/lvgl/src/misc/lv_event.c ****             ENUM_CASE(EVENT_RELEASED);
 2076              		.loc 1 273 13 view .LVU475
 2077 023e 7047     		bx	lr
 2078              	.LVL189:
 2079              	.L144:
 274:../../Middlewares/LVGL/GUI/lvgl/src/misc/lv_event.c ****             ENUM_CASE(EVENT_SCROLL_BEGIN);
 2080              		.loc 1 274 13 view .LVU476
 2081 0240 3548     		ldr	r0, .L200+124
 2082              	.LVL190:
 274:../../Middlewares/LVGL/GUI/lvgl/src/misc/lv_event.c ****             ENUM_CASE(EVENT_SCROLL_BEGIN);
 2083              		.loc 1 274 13 view .LVU477
 2084 0242 7047     		bx	lr
 2085              	.LVL191:
 2086              	.L145:
 353:../../Middlewares/LVGL/GUI/lvgl/src/misc/lv_event.c **** }
 2087              		.loc 1 353 12 view .LVU478
 2088 0244 2F48     		ldr	r0, .L200+104
 2089              	.LVL192:
 353:../../Middlewares/LVGL/GUI/lvgl/src/misc/lv_event.c **** }
 2090              		.loc 1 353 12 view .LVU479
 2091 0246 7047     		bx	lr
 2092              	.LVL193:
 2093              	.L146:
 277:../../Middlewares/LVGL/GUI/lvgl/src/misc/lv_event.c ****             ENUM_CASE(EVENT_SCROLL);
 2094              		.loc 1 277 13 view .LVU480
 2095 0248 3448     		ldr	r0, .L200+128
 2096              	.LVL194:
 277:../../Middlewares/LVGL/GUI/lvgl/src/misc/lv_event.c ****             ENUM_CASE(EVENT_SCROLL);
 2097              		.loc 1 277 13 view .LVU481
 2098 024a 7047     		bx	lr
 2099              	.LVL195:
 2100              	.L147:
 278:../../Middlewares/LVGL/GUI/lvgl/src/misc/lv_event.c ****             ENUM_CASE(EVENT_GESTURE);
 2101              		.loc 1 278 13 view .LVU482
 2102 024c 3448     		ldr	r0, .L200+132
 2103              	.LVL196:
 278:../../Middlewares/LVGL/GUI/lvgl/src/misc/lv_event.c ****             ENUM_CASE(EVENT_GESTURE);
 2104              		.loc 1 278 13 view .LVU483
 2105 024e 7047     		bx	lr
 2106              	.LVL197:
 2107              	.L148:
 353:../../Middlewares/LVGL/GUI/lvgl/src/misc/lv_event.c **** }
ARM GAS  C:\Users\28576\AppData\Local\Temp\ccwuB5AB.s 			page 58


 2108              		.loc 1 353 12 view .LVU484
 2109 0250 2C48     		ldr	r0, .L200+104
 2110              	.LVL198:
 353:../../Middlewares/LVGL/GUI/lvgl/src/misc/lv_event.c **** }
 2111              		.loc 1 353 12 view .LVU485
 2112 0252 7047     		bx	lr
 2113              	.LVL199:
 2114              	.L149:
 288:../../Middlewares/LVGL/GUI/lvgl/src/misc/lv_event.c **** 
 2115              		.loc 1 288 13 view .LVU486
 2116 0254 3348     		ldr	r0, .L200+136
 2117              	.LVL200:
 288:../../Middlewares/LVGL/GUI/lvgl/src/misc/lv_event.c **** 
 2118              		.loc 1 288 13 view .LVU487
 2119 0256 7047     		bx	lr
 2120              	.LVL201:
 2121              	.L150:
 284:../../Middlewares/LVGL/GUI/lvgl/src/misc/lv_event.c ****             ENUM_CASE(EVENT_HIT_TEST);
 2122              		.loc 1 284 13 view .LVU488
 2123 0258 3348     		ldr	r0, .L200+140
 2124              	.LVL202:
 284:../../Middlewares/LVGL/GUI/lvgl/src/misc/lv_event.c ****             ENUM_CASE(EVENT_HIT_TEST);
 2125              		.loc 1 284 13 view .LVU489
 2126 025a 7047     		bx	lr
 2127              	.LVL203:
 2128              	.L151:
 282:../../Middlewares/LVGL/GUI/lvgl/src/misc/lv_event.c ****             ENUM_CASE(EVENT_DEFOCUSED);
 2129              		.loc 1 282 13 view .LVU490
 2130 025c 3348     		ldr	r0, .L200+144
 2131              	.LVL204:
 282:../../Middlewares/LVGL/GUI/lvgl/src/misc/lv_event.c ****             ENUM_CASE(EVENT_DEFOCUSED);
 2132              		.loc 1 282 13 view .LVU491
 2133 025e 7047     		bx	lr
 2134              	.LVL205:
 2135              	.L152:
 280:../../Middlewares/LVGL/GUI/lvgl/src/misc/lv_event.c ****             ENUM_CASE(EVENT_ROTARY);
 2136              		.loc 1 280 13 view .LVU492
 2137 0260 3348     		ldr	r0, .L200+148
 2138              	.LVL206:
 280:../../Middlewares/LVGL/GUI/lvgl/src/misc/lv_event.c ****             ENUM_CASE(EVENT_ROTARY);
 2139              		.loc 1 280 13 view .LVU493
 2140 0262 7047     		bx	lr
 2141              	.LVL207:
 2142              	.L153:
 353:../../Middlewares/LVGL/GUI/lvgl/src/misc/lv_event.c **** }
 2143              		.loc 1 353 12 view .LVU494
 2144 0264 2748     		ldr	r0, .L200+104
 2145              	.LVL208:
 353:../../Middlewares/LVGL/GUI/lvgl/src/misc/lv_event.c **** }
 2146              		.loc 1 353 12 view .LVU495
 2147 0266 7047     		bx	lr
 2148              	.LVL209:
 2149              	.L154:
 353:../../Middlewares/LVGL/GUI/lvgl/src/misc/lv_event.c **** }
 2150              		.loc 1 353 12 view .LVU496
 2151 0268 2648     		ldr	r0, .L200+104
 2152              	.LVL210:
ARM GAS  C:\Users\28576\AppData\Local\Temp\ccwuB5AB.s 			page 59


 353:../../Middlewares/LVGL/GUI/lvgl/src/misc/lv_event.c **** }
 2153              		.loc 1 353 12 view .LVU497
 2154 026a 7047     		bx	lr
 2155              	.LVL211:
 2156              	.L155:
 286:../../Middlewares/LVGL/GUI/lvgl/src/misc/lv_event.c ****             ENUM_CASE(EVENT_HOVER_OVER);
 2157              		.loc 1 286 13 view .LVU498
 2158 026c 3148     		ldr	r0, .L200+152
 2159              	.LVL212:
 286:../../Middlewares/LVGL/GUI/lvgl/src/misc/lv_event.c ****             ENUM_CASE(EVENT_HOVER_OVER);
 2160              		.loc 1 286 13 view .LVU499
 2161 026e 7047     		bx	lr
 2162              	.LVL213:
 2163              	.L156:
 287:../../Middlewares/LVGL/GUI/lvgl/src/misc/lv_event.c ****             ENUM_CASE(EVENT_HOVER_LEAVE);
 2164              		.loc 1 287 13 view .LVU500
 2165 0270 3148     		ldr	r0, .L200+156
 2166              	.LVL214:
 287:../../Middlewares/LVGL/GUI/lvgl/src/misc/lv_event.c ****             ENUM_CASE(EVENT_HOVER_LEAVE);
 2167              		.loc 1 287 13 view .LVU501
 2168 0272 7047     		bx	lr
 2169              	.LVL215:
 2170              	.L157:
 353:../../Middlewares/LVGL/GUI/lvgl/src/misc/lv_event.c **** }
 2171              		.loc 1 353 12 view .LVU502
 2172 0274 2348     		ldr	r0, .L200+104
 2173              	.LVL216:
 353:../../Middlewares/LVGL/GUI/lvgl/src/misc/lv_event.c **** }
 2174              		.loc 1 353 12 view .LVU503
 2175 0276 7047     		bx	lr
 2176              	.LVL217:
 2177              	.L158:
 294:../../Middlewares/LVGL/GUI/lvgl/src/misc/lv_event.c ****             ENUM_CASE(EVENT_DRAW_MAIN_END);
 2178              		.loc 1 294 13 view .LVU504
 2179 0278 3048     		ldr	r0, .L200+160
 2180              	.LVL218:
 294:../../Middlewares/LVGL/GUI/lvgl/src/misc/lv_event.c ****             ENUM_CASE(EVENT_DRAW_MAIN_END);
 2181              		.loc 1 294 13 view .LVU505
 2182 027a 7047     		bx	lr
 2183              	.LVL219:
 2184              	.L159:
 292:../../Middlewares/LVGL/GUI/lvgl/src/misc/lv_event.c ****             ENUM_CASE(EVENT_DRAW_MAIN_BEGIN);
 2185              		.loc 1 292 13 view .LVU506
 2186 027c 3048     		ldr	r0, .L200+164
 2187              	.LVL220:
 292:../../Middlewares/LVGL/GUI/lvgl/src/misc/lv_event.c ****             ENUM_CASE(EVENT_DRAW_MAIN_BEGIN);
 2188              		.loc 1 292 13 view .LVU507
 2189 027e 7047     		bx	lr
 2190              	.LVL221:
 2191              	.L160:
 293:../../Middlewares/LVGL/GUI/lvgl/src/misc/lv_event.c ****             ENUM_CASE(EVENT_DRAW_MAIN);
 2192              		.loc 1 293 13 view .LVU508
 2193 0280 3048     		ldr	r0, .L200+168
 2194              	.LVL222:
 293:../../Middlewares/LVGL/GUI/lvgl/src/misc/lv_event.c ****             ENUM_CASE(EVENT_DRAW_MAIN);
 2195              		.loc 1 293 13 view .LVU509
 2196 0282 7047     		bx	lr
ARM GAS  C:\Users\28576\AppData\Local\Temp\ccwuB5AB.s 			page 60


 2197              	.LVL223:
 2198              	.L161:
 353:../../Middlewares/LVGL/GUI/lvgl/src/misc/lv_event.c **** }
 2199              		.loc 1 353 12 view .LVU510
 2200 0284 1F48     		ldr	r0, .L200+104
 2201              	.LVL224:
 353:../../Middlewares/LVGL/GUI/lvgl/src/misc/lv_event.c **** }
 2202              		.loc 1 353 12 view .LVU511
 2203 0286 7047     		bx	lr
 2204              	.LVL225:
 2205              	.L162:
 296:../../Middlewares/LVGL/GUI/lvgl/src/misc/lv_event.c ****             ENUM_CASE(EVENT_DRAW_POST);
 2206              		.loc 1 296 13 view .LVU512
 2207 0288 2F48     		ldr	r0, .L200+172
 2208              	.LVL226:
 296:../../Middlewares/LVGL/GUI/lvgl/src/misc/lv_event.c ****             ENUM_CASE(EVENT_DRAW_POST);
 2209              		.loc 1 296 13 view .LVU513
 2210 028a 7047     		bx	lr
 2211              	.LVL227:
 2212              	.L163:
 297:../../Middlewares/LVGL/GUI/lvgl/src/misc/lv_event.c ****             ENUM_CASE(EVENT_DRAW_POST_END);
 2213              		.loc 1 297 13 view .LVU514
 2214 028c 2F48     		ldr	r0, .L200+176
 2215              	.LVL228:
 297:../../Middlewares/LVGL/GUI/lvgl/src/misc/lv_event.c ****             ENUM_CASE(EVENT_DRAW_POST_END);
 2216              		.loc 1 297 13 view .LVU515
 2217 028e 7047     		bx	lr
 2218              	.LVL229:
 2219              	.L164:
 353:../../Middlewares/LVGL/GUI/lvgl/src/misc/lv_event.c **** }
 2220              		.loc 1 353 12 view .LVU516
 2221 0290 1C48     		ldr	r0, .L200+104
 2222              	.LVL230:
 353:../../Middlewares/LVGL/GUI/lvgl/src/misc/lv_event.c **** }
 2223              		.loc 1 353 12 view .LVU517
 2224 0292 7047     		bx	lr
 2225              	.LVL231:
 2226              	.L165:
 319:../../Middlewares/LVGL/GUI/lvgl/src/misc/lv_event.c ****             ENUM_CASE(EVENT_LAYOUT_CHANGED);
 2227              		.loc 1 319 13 view .LVU518
 2228 0294 2E48     		ldr	r0, .L200+180
 2229              	.LVL232:
 319:../../Middlewares/LVGL/GUI/lvgl/src/misc/lv_event.c ****             ENUM_CASE(EVENT_LAYOUT_CHANGED);
 2230              		.loc 1 319 13 view .LVU519
 2231 0296 7047     		bx	lr
 2232              	.LVL233:
 2233              	.L166:
 311:../../Middlewares/LVGL/GUI/lvgl/src/misc/lv_event.c ****             ENUM_CASE(EVENT_CHILD_CREATED);
 2234              		.loc 1 311 13 view .LVU520
 2235 0298 2E48     		ldr	r0, .L200+184
 2236              	.LVL234:
 311:../../Middlewares/LVGL/GUI/lvgl/src/misc/lv_event.c ****             ENUM_CASE(EVENT_CHILD_CREATED);
 2237              		.loc 1 311 13 view .LVU521
 2238 029a 7047     		bx	lr
 2239              	.L201:
 2240              		.align	2
 2241              	.L200:
ARM GAS  C:\Users\28576\AppData\Local\Temp\ccwuB5AB.s 			page 61


 2242 029c 5C010000 		.word	.LC18
 2243 02a0 0C000000 		.word	.LC1
 2244 02a4 2C000000 		.word	.LC3
 2245 02a8 54000000 		.word	.LC5
 2246 02ac B0000000 		.word	.LC9
 2247 02b0 00010000 		.word	.LC13
 2248 02b4 7C010000 		.word	.LC20
 2249 02b8 98010000 		.word	.LC22
 2250 02bc E4010000 		.word	.LC26
 2251 02c0 3C020000 		.word	.LC30
 2252 02c4 F0030000 		.word	.LC52
 2253 02c8 A4020000 		.word	.LC35
 2254 02cc C8020000 		.word	.LC37
 2255 02d0 E4020000 		.word	.LC39
 2256 02d4 28030000 		.word	.LC43
 2257 02d8 84030000 		.word	.LC47
 2258 02dc 1C040000 		.word	.LC54
 2259 02e0 54040000 		.word	.LC56
 2260 02e4 A4040000 		.word	.LC60
 2261 02e8 F8040000 		.word	.LC64
 2262 02ec 78020000 		.word	.LC33
 2263 02f0 40010000 		.word	.LC16
 2264 02f4 9C000000 		.word	.LC8
 2265 02f8 40000000 		.word	.LC4
 2266 02fc 1C000000 		.word	.LC2
 2267 0300 00000000 		.word	.LC0
 2268 0304 30050000 		.word	.LC67
 2269 0308 6C000000 		.word	.LC6
 2270 030c 84000000 		.word	.LC7
 2271 0310 EC000000 		.word	.LC12
 2272 0314 CC000000 		.word	.LC10
 2273 0318 DC000000 		.word	.LC11
 2274 031c 1C010000 		.word	.LC14
 2275 0320 30010000 		.word	.LC15
 2276 0324 D0010000 		.word	.LC25
 2277 0328 8C010000 		.word	.LC21
 2278 032c 6C010000 		.word	.LC19
 2279 0330 50010000 		.word	.LC17
 2280 0334 A8010000 		.word	.LC23
 2281 0338 BC010000 		.word	.LC24
 2282 033c 2C020000 		.word	.LC29
 2283 0340 F8010000 		.word	.LC27
 2284 0344 14020000 		.word	.LC28
 2285 0348 50020000 		.word	.LC31
 2286 034c 68020000 		.word	.LC32
 2287 0350 C4030000 		.word	.LC50
 2288 0354 14030000 		.word	.LC42
 2289              	.LVL235:
 2290              	.L167:
 305:../../Middlewares/LVGL/GUI/lvgl/src/misc/lv_event.c ****             ENUM_CASE(EVENT_CANCEL);
 2291              		.loc 1 305 13 view .LVU522
 2292 0358 1E48     		ldr	r0, .L202
 2293              	.LVL236:
 305:../../Middlewares/LVGL/GUI/lvgl/src/misc/lv_event.c ****             ENUM_CASE(EVENT_CANCEL);
 2294              		.loc 1 305 13 view .LVU523
 2295 035a 7047     		bx	lr
 2296              	.LVL237:
ARM GAS  C:\Users\28576\AppData\Local\Temp\ccwuB5AB.s 			page 62


 2297              	.L168:
 303:../../Middlewares/LVGL/GUI/lvgl/src/misc/lv_event.c ****             ENUM_CASE(EVENT_REFRESH);
 2298              		.loc 1 303 13 view .LVU524
 2299 035c 1E48     		ldr	r0, .L202+4
 2300              	.LVL238:
 303:../../Middlewares/LVGL/GUI/lvgl/src/misc/lv_event.c ****             ENUM_CASE(EVENT_REFRESH);
 2301              		.loc 1 303 13 view .LVU525
 2302 035e 7047     		bx	lr
 2303              	.LVL239:
 2304              	.L169:
 299:../../Middlewares/LVGL/GUI/lvgl/src/misc/lv_event.c **** 
 2305              		.loc 1 299 13 view .LVU526
 2306 0360 1E48     		ldr	r0, .L202+8
 2307              	.LVL240:
 299:../../Middlewares/LVGL/GUI/lvgl/src/misc/lv_event.c **** 
 2308              		.loc 1 299 13 view .LVU527
 2309 0362 7047     		bx	lr
 2310              	.LVL241:
 2311              	.L170:
 353:../../Middlewares/LVGL/GUI/lvgl/src/misc/lv_event.c **** }
 2312              		.loc 1 353 12 view .LVU528
 2313 0364 1E48     		ldr	r0, .L202+12
 2314              	.LVL242:
 353:../../Middlewares/LVGL/GUI/lvgl/src/misc/lv_event.c **** }
 2315              		.loc 1 353 12 view .LVU529
 2316 0366 7047     		bx	lr
 2317              	.LVL243:
 2318              	.L171:
 353:../../Middlewares/LVGL/GUI/lvgl/src/misc/lv_event.c **** }
 2319              		.loc 1 353 12 view .LVU530
 2320 0368 1D48     		ldr	r0, .L202+12
 2321              	.LVL244:
 353:../../Middlewares/LVGL/GUI/lvgl/src/misc/lv_event.c **** }
 2322              		.loc 1 353 12 view .LVU531
 2323 036a 7047     		bx	lr
 2324              	.LVL245:
 2325              	.L172:
 309:../../Middlewares/LVGL/GUI/lvgl/src/misc/lv_event.c ****             ENUM_CASE(EVENT_DELETE);
 2326              		.loc 1 309 13 view .LVU532
 2327 036c 1D48     		ldr	r0, .L202+16
 2328              	.LVL246:
 309:../../Middlewares/LVGL/GUI/lvgl/src/misc/lv_event.c ****             ENUM_CASE(EVENT_DELETE);
 2329              		.loc 1 309 13 view .LVU533
 2330 036e 7047     		bx	lr
 2331              	.LVL247:
 2332              	.L173:
 310:../../Middlewares/LVGL/GUI/lvgl/src/misc/lv_event.c ****             ENUM_CASE(EVENT_CHILD_CHANGED);
 2333              		.loc 1 310 13 view .LVU534
 2334 0370 1D48     		ldr	r0, .L202+20
 2335              	.LVL248:
 310:../../Middlewares/LVGL/GUI/lvgl/src/misc/lv_event.c ****             ENUM_CASE(EVENT_CHILD_CHANGED);
 2336              		.loc 1 310 13 view .LVU535
 2337 0372 7047     		bx	lr
 2338              	.LVL249:
 2339              	.L174:
 353:../../Middlewares/LVGL/GUI/lvgl/src/misc/lv_event.c **** }
 2340              		.loc 1 353 12 view .LVU536
ARM GAS  C:\Users\28576\AppData\Local\Temp\ccwuB5AB.s 			page 63


 2341 0374 1A48     		ldr	r0, .L202+12
 2342              	.LVL250:
 353:../../Middlewares/LVGL/GUI/lvgl/src/misc/lv_event.c **** }
 2343              		.loc 1 353 12 view .LVU537
 2344 0376 7047     		bx	lr
 2345              	.LVL251:
 2346              	.L175:
 315:../../Middlewares/LVGL/GUI/lvgl/src/misc/lv_event.c ****             ENUM_CASE(EVENT_SCREEN_LOADED);
 2347              		.loc 1 315 13 view .LVU538
 2348 0378 1C48     		ldr	r0, .L202+24
 2349              	.LVL252:
 315:../../Middlewares/LVGL/GUI/lvgl/src/misc/lv_event.c ****             ENUM_CASE(EVENT_SCREEN_LOADED);
 2350              		.loc 1 315 13 view .LVU539
 2351 037a 7047     		bx	lr
 2352              	.LVL253:
 2353              	.L176:
 313:../../Middlewares/LVGL/GUI/lvgl/src/misc/lv_event.c ****             ENUM_CASE(EVENT_SCREEN_UNLOAD_START);
 2354              		.loc 1 313 13 view .LVU540
 2355 037c 1C48     		ldr	r0, .L202+28
 2356              	.LVL254:
 313:../../Middlewares/LVGL/GUI/lvgl/src/misc/lv_event.c ****             ENUM_CASE(EVENT_SCREEN_UNLOAD_START);
 2357              		.loc 1 313 13 view .LVU541
 2358 037e 7047     		bx	lr
 2359              	.LVL255:
 2360              	.L177:
 314:../../Middlewares/LVGL/GUI/lvgl/src/misc/lv_event.c ****             ENUM_CASE(EVENT_SCREEN_LOAD_START);
 2361              		.loc 1 314 13 view .LVU542
 2362 0380 1C48     		ldr	r0, .L202+32
 2363              	.LVL256:
 314:../../Middlewares/LVGL/GUI/lvgl/src/misc/lv_event.c ****             ENUM_CASE(EVENT_SCREEN_LOAD_START);
 2364              		.loc 1 314 13 view .LVU543
 2365 0382 7047     		bx	lr
 2366              	.LVL257:
 2367              	.L178:
 353:../../Middlewares/LVGL/GUI/lvgl/src/misc/lv_event.c **** }
 2368              		.loc 1 353 12 view .LVU544
 2369 0384 1648     		ldr	r0, .L202+12
 2370              	.LVL258:
 353:../../Middlewares/LVGL/GUI/lvgl/src/misc/lv_event.c **** }
 2371              		.loc 1 353 12 view .LVU545
 2372 0386 7047     		bx	lr
 2373              	.LVL259:
 2374              	.L179:
 317:../../Middlewares/LVGL/GUI/lvgl/src/misc/lv_event.c ****             ENUM_CASE(EVENT_SIZE_CHANGED);
 2375              		.loc 1 317 13 view .LVU546
 2376 0388 1B48     		ldr	r0, .L202+36
 2377              	.LVL260:
 317:../../Middlewares/LVGL/GUI/lvgl/src/misc/lv_event.c ****             ENUM_CASE(EVENT_SIZE_CHANGED);
 2378              		.loc 1 317 13 view .LVU547
 2379 038a 7047     		bx	lr
 2380              	.LVL261:
 2381              	.L180:
 318:../../Middlewares/LVGL/GUI/lvgl/src/misc/lv_event.c ****             ENUM_CASE(EVENT_STYLE_CHANGED);
 2382              		.loc 1 318 13 view .LVU548
 2383 038c 1B48     		ldr	r0, .L202+40
 2384              	.LVL262:
 318:../../Middlewares/LVGL/GUI/lvgl/src/misc/lv_event.c ****             ENUM_CASE(EVENT_STYLE_CHANGED);
ARM GAS  C:\Users\28576\AppData\Local\Temp\ccwuB5AB.s 			page 64


 2385              		.loc 1 318 13 view .LVU549
 2386 038e 7047     		bx	lr
 2387              	.LVL263:
 2388              	.L181:
 353:../../Middlewares/LVGL/GUI/lvgl/src/misc/lv_event.c **** }
 2389              		.loc 1 353 12 view .LVU550
 2390 0390 1348     		ldr	r0, .L202+12
 2391              	.LVL264:
 353:../../Middlewares/LVGL/GUI/lvgl/src/misc/lv_event.c **** }
 2392              		.loc 1 353 12 view .LVU551
 2393 0392 7047     		bx	lr
 2394              	.LVL265:
 2395              	.L182:
 330:../../Middlewares/LVGL/GUI/lvgl/src/misc/lv_event.c ****             ENUM_CASE(EVENT_RENDER_READY);
 2396              		.loc 1 330 13 view .LVU552
 2397 0394 1A48     		ldr	r0, .L202+44
 2398              	.LVL266:
 330:../../Middlewares/LVGL/GUI/lvgl/src/misc/lv_event.c ****             ENUM_CASE(EVENT_RENDER_READY);
 2399              		.loc 1 330 13 view .LVU553
 2400 0396 7047     		bx	lr
 2401              	.LVL267:
 2402              	.L183:
 326:../../Middlewares/LVGL/GUI/lvgl/src/misc/lv_event.c ****             ENUM_CASE(EVENT_REFR_REQUEST);
 2403              		.loc 1 326 13 view .LVU554
 2404 0398 1A48     		ldr	r0, .L202+48
 2405              	.LVL268:
 326:../../Middlewares/LVGL/GUI/lvgl/src/misc/lv_event.c ****             ENUM_CASE(EVENT_REFR_REQUEST);
 2406              		.loc 1 326 13 view .LVU555
 2407 039a 7047     		bx	lr
 2408              	.LVL269:
 2409              	.L184:
 324:../../Middlewares/LVGL/GUI/lvgl/src/misc/lv_event.c ****             ENUM_CASE(EVENT_RESOLUTION_CHANGED);
 2410              		.loc 1 324 13 view .LVU556
 2411 039c 1A48     		ldr	r0, .L202+52
 2412              	.LVL270:
 324:../../Middlewares/LVGL/GUI/lvgl/src/misc/lv_event.c ****             ENUM_CASE(EVENT_RESOLUTION_CHANGED);
 2413              		.loc 1 324 13 view .LVU557
 2414 039e 7047     		bx	lr
 2415              	.LVL271:
 2416              	.L185:
 320:../../Middlewares/LVGL/GUI/lvgl/src/misc/lv_event.c ****             ENUM_CASE(EVENT_GET_SELF_SIZE);
 2417              		.loc 1 320 13 view .LVU558
 2418 03a0 1A48     		ldr	r0, .L202+56
 2419              	.LVL272:
 320:../../Middlewares/LVGL/GUI/lvgl/src/misc/lv_event.c ****             ENUM_CASE(EVENT_GET_SELF_SIZE);
 2420              		.loc 1 320 13 view .LVU559
 2421 03a2 7047     		bx	lr
 2422              	.LVL273:
 2423              	.L186:
 353:../../Middlewares/LVGL/GUI/lvgl/src/misc/lv_event.c **** }
 2424              		.loc 1 353 12 view .LVU560
 2425 03a4 0E48     		ldr	r0, .L202+12
 2426              	.LVL274:
 353:../../Middlewares/LVGL/GUI/lvgl/src/misc/lv_event.c **** }
 2427              		.loc 1 353 12 view .LVU561
 2428 03a6 7047     		bx	lr
 2429              	.LVL275:
ARM GAS  C:\Users\28576\AppData\Local\Temp\ccwuB5AB.s 			page 65


 2430              	.L187:
 353:../../Middlewares/LVGL/GUI/lvgl/src/misc/lv_event.c **** }
 2431              		.loc 1 353 12 view .LVU562
 2432 03a8 0D48     		ldr	r0, .L202+12
 2433              	.LVL276:
 353:../../Middlewares/LVGL/GUI/lvgl/src/misc/lv_event.c **** }
 2434              		.loc 1 353 12 view .LVU563
 2435 03aa 7047     		bx	lr
 2436              	.LVL277:
 2437              	.L188:
 328:../../Middlewares/LVGL/GUI/lvgl/src/misc/lv_event.c ****             ENUM_CASE(EVENT_REFR_READY);
 2438              		.loc 1 328 13 view .LVU564
 2439 03ac 1848     		ldr	r0, .L202+60
 2440              	.LVL278:
 328:../../Middlewares/LVGL/GUI/lvgl/src/misc/lv_event.c ****             ENUM_CASE(EVENT_REFR_READY);
 2441              		.loc 1 328 13 view .LVU565
 2442 03ae 7047     		bx	lr
 2443              	.LVL279:
 2444              	.L189:
 329:../../Middlewares/LVGL/GUI/lvgl/src/misc/lv_event.c ****             ENUM_CASE(EVENT_RENDER_START);
 2445              		.loc 1 329 13 view .LVU566
 2446 03b0 1848     		ldr	r0, .L202+64
 2447              	.LVL280:
 329:../../Middlewares/LVGL/GUI/lvgl/src/misc/lv_event.c ****             ENUM_CASE(EVENT_RENDER_START);
 2448              		.loc 1 329 13 view .LVU567
 2449 03b2 7047     		bx	lr
 2450              	.LVL281:
 2451              	.L190:
 353:../../Middlewares/LVGL/GUI/lvgl/src/misc/lv_event.c **** }
 2452              		.loc 1 353 12 view .LVU568
 2453 03b4 0A48     		ldr	r0, .L202+12
 2454              	.LVL282:
 353:../../Middlewares/LVGL/GUI/lvgl/src/misc/lv_event.c **** }
 2455              		.loc 1 353 12 view .LVU569
 2456 03b6 7047     		bx	lr
 2457              	.LVL283:
 2458              	.L191:
 334:../../Middlewares/LVGL/GUI/lvgl/src/misc/lv_event.c ****             ENUM_CASE(EVENT_FLUSH_WAIT_FINISH);
 2459              		.loc 1 334 13 view .LVU570
 2460 03b8 1748     		ldr	r0, .L202+68
 2461              	.LVL284:
 334:../../Middlewares/LVGL/GUI/lvgl/src/misc/lv_event.c ****             ENUM_CASE(EVENT_FLUSH_WAIT_FINISH);
 2462              		.loc 1 334 13 view .LVU571
 2463 03ba 7047     		bx	lr
 2464              	.LVL285:
 2465              	.L192:
 332:../../Middlewares/LVGL/GUI/lvgl/src/misc/lv_event.c ****             ENUM_CASE(EVENT_FLUSH_FINISH);
 2466              		.loc 1 332 13 view .LVU572
 2467 03bc 1748     		ldr	r0, .L202+72
 2468              	.LVL286:
 332:../../Middlewares/LVGL/GUI/lvgl/src/misc/lv_event.c ****             ENUM_CASE(EVENT_FLUSH_FINISH);
 2469              		.loc 1 332 13 view .LVU573
 2470 03be 7047     		bx	lr
 2471              	.LVL287:
 2472              	.L193:
 333:../../Middlewares/LVGL/GUI/lvgl/src/misc/lv_event.c ****             ENUM_CASE(EVENT_FLUSH_WAIT_START);
 2473              		.loc 1 333 13 view .LVU574
ARM GAS  C:\Users\28576\AppData\Local\Temp\ccwuB5AB.s 			page 66


 2474 03c0 1748     		ldr	r0, .L202+76
 2475              	.LVL288:
 333:../../Middlewares/LVGL/GUI/lvgl/src/misc/lv_event.c ****             ENUM_CASE(EVENT_FLUSH_WAIT_START);
 2476              		.loc 1 333 13 view .LVU575
 2477 03c2 7047     		bx	lr
 2478              	.LVL289:
 2479              	.L194:
 353:../../Middlewares/LVGL/GUI/lvgl/src/misc/lv_event.c **** }
 2480              		.loc 1 353 12 view .LVU576
 2481 03c4 0648     		ldr	r0, .L202+12
 2482              	.LVL290:
 353:../../Middlewares/LVGL/GUI/lvgl/src/misc/lv_event.c **** }
 2483              		.loc 1 353 12 view .LVU577
 2484 03c6 7047     		bx	lr
 2485              	.LVL291:
 2486              	.L195:
 337:../../Middlewares/LVGL/GUI/lvgl/src/misc/lv_event.c ****             ENUM_CASE(EVENT_VSYNC_REQUEST);
 2487              		.loc 1 337 13 view .LVU578
 2488 03c8 1648     		ldr	r0, .L202+80
 2489              	.LVL292:
 337:../../Middlewares/LVGL/GUI/lvgl/src/misc/lv_event.c ****             ENUM_CASE(EVENT_VSYNC_REQUEST);
 2490              		.loc 1 337 13 view .LVU579
 2491 03ca 7047     		bx	lr
 2492              	.LVL293:
 2493              	.L196:
 338:../../Middlewares/LVGL/GUI/lvgl/src/misc/lv_event.c **** 
 2494              		.loc 1 338 13 view .LVU580
 2495 03cc 1648     		ldr	r0, .L202+84
 2496              	.LVL294:
 338:../../Middlewares/LVGL/GUI/lvgl/src/misc/lv_event.c **** 
 2497              		.loc 1 338 13 view .LVU581
 2498 03ce 7047     		bx	lr
 2499              	.LVL295:
 2500              	.L197:
 353:../../Middlewares/LVGL/GUI/lvgl/src/misc/lv_event.c **** }
 2501              		.loc 1 353 12 view .LVU582
 2502 03d0 0348     		ldr	r0, .L202+12
 2503              	.LVL296:
 354:../../Middlewares/LVGL/GUI/lvgl/src/misc/lv_event.c **** 
 2504              		.loc 1 354 1 view .LVU583
 2505 03d2 7047     		bx	lr
 2506              	.L203:
 2507              		.align	2
 2508              	.L202:
 2509 03d4 D8020000 		.word	.LC38
 2510 03d8 B8020000 		.word	.LC36
 2511 03dc 8C020000 		.word	.LC34
 2512 03e0 30050000 		.word	.LC67
 2513 03e4 F4020000 		.word	.LC40
 2514 03e8 04030000 		.word	.LC41
 2515 03ec 6C030000 		.word	.LC46
 2516 03f0 3C030000 		.word	.LC44
 2517 03f4 50030000 		.word	.LC45
 2518 03f8 98030000 		.word	.LC48
 2519 03fc B0030000 		.word	.LC49
 2520 0400 90040000 		.word	.LC59
 2521 0404 38040000 		.word	.LC55
ARM GAS  C:\Users\28576\AppData\Local\Temp\ccwuB5AB.s 			page 67


 2522 0408 04040000 		.word	.LC53
 2523 040c D8030000 		.word	.LC51
 2524 0410 68040000 		.word	.LC57
 2525 0414 7C040000 		.word	.LC58
 2526 0418 E0040000 		.word	.LC63
 2527 041c B8040000 		.word	.LC61
 2528 0420 CC040000 		.word	.LC62
 2529 0424 10050000 		.word	.LC65
 2530 0428 1C050000 		.word	.LC66
 2531              		.cfi_endproc
 2532              	.LFE207:
 2534              		.text
 2535              	.Letext0:
 2536              		.file 3 "C:/Users/28576/AppData/Roaming/xPacks/@xpack-dev-tools/arm-none-eabi-gcc/15.2.1-1.1.1/.co
 2537              		.file 4 "C:/Users/28576/AppData/Roaming/xPacks/@xpack-dev-tools/arm-none-eabi-gcc/15.2.1-1.1.1/.co
 2538              		.file 5 "C:/Users/28576/AppData/Roaming/xPacks/@xpack-dev-tools/arm-none-eabi-gcc/15.2.1-1.1.1/.co
 2539              		.file 6 "../../Middlewares/LVGL/GUI/lvgl/src/misc/lv_types.h"
 2540              		.file 7 "H:/STM32H7/RGB_LVGL/Middlewares/LVGL/GUI/lvgl/src/draw/lv_draw.h"
 2541              		.file 8 "H:/STM32H7/RGB_LVGL/Middlewares/LVGL/GUI/lvgl/src/draw/lv_draw_private.h"
 2542              		.file 9 "../../Middlewares/LVGL/GUI/lvgl/src/misc/lv_event_private.h"
 2543              		.file 10 "H:/STM32H7/RGB_LVGL/Middlewares/LVGL/GUI/lvgl/src/misc/lv_timer_private.h"
 2544              		.file 11 "H:/STM32H7/RGB_LVGL/Middlewares/LVGL/GUI/lvgl/src/misc/cache/lv_cache_private.h"
 2545              		.file 12 "H:/STM32H7/RGB_LVGL/Middlewares/LVGL/GUI/lvgl/src/draw/lv_draw_buf_private.h"
 2546              		.file 13 "H:/STM32H7/RGB_LVGL/Middlewares/LVGL/GUI/lvgl/src/draw/lv_draw_buf.h"
 2547              		.file 14 "../../Middlewares/LVGL/GUI/lvgl/src/misc/lv_event.h"
 2548              		.file 15 "H:/STM32H7/RGB_LVGL/Middlewares/LVGL/GUI/lvgl/src/misc/lv_area.h"
 2549              		.file 16 "H:/STM32H7/RGB_LVGL/Middlewares/LVGL/GUI/lvgl/src/misc/lv_color.h"
 2550              		.file 17 "H:/STM32H7/RGB_LVGL/Middlewares/LVGL/GUI/lvgl/src/draw/lv_image_dsc.h"
 2551              		.file 18 "H:/STM32H7/RGB_LVGL/Middlewares/LVGL/GUI/lvgl/src/tick/lv_tick.h"
 2552              		.file 19 "H:/STM32H7/RGB_LVGL/Middlewares/LVGL/GUI/lvgl/src/misc/lv_ll.h"
 2553              		.file 20 "H:/STM32H7/RGB_LVGL/Middlewares/LVGL/GUI/lvgl/src/misc/lv_timer.h"
 2554              		.file 21 "H:/STM32H7/RGB_LVGL/Middlewares/LVGL/GUI/lvgl/src/layouts/lv_layout.h"
 2555              		.file 22 "H:/STM32H7/RGB_LVGL/Middlewares/LVGL/GUI/lvgl/src/osal/lv_os_none.h"
 2556              		.file 23 "H:/STM32H7/RGB_LVGL/Middlewares/LVGL/GUI/lvgl/src/stdlib/builtin/lv_tlsf.h"
 2557              		.file 24 "H:/STM32H7/RGB_LVGL/Middlewares/LVGL/GUI/lvgl/src/misc/lv_anim_private.h"
 2558              		.file 25 "H:/STM32H7/RGB_LVGL/Middlewares/LVGL/GUI/lvgl/src/tick/lv_tick_private.h"
 2559              		.file 26 "H:/STM32H7/RGB_LVGL/Middlewares/LVGL/GUI/lvgl/src/draw/sw/lv_draw_sw_mask_private.h"
 2560              		.file 27 "H:/STM32H7/RGB_LVGL/Middlewares/LVGL/GUI/lvgl/src/stdlib/builtin/lv_tlsf_private.h"
 2561              		.file 28 "H:/STM32H7/RGB_LVGL/Middlewares/LVGL/GUI/lvgl/src/layouts/lv_layout_private.h"
 2562              		.file 29 "../../Middlewares/LVGL/GUI/lvgl/src/misc/../core/lv_global.h"
 2563              		.file 30 "H:/STM32H7/RGB_LVGL/Middlewares/LVGL/GUI/lvgl/src/stdlib/lv_mem.h"
ARM GAS  C:\Users\28576\AppData\Local\Temp\ccwuB5AB.s 			page 68

