ARM GAS  C:\Users\28576\AppData\Local\Temp\ccV3XjXD.s 			page 1


   1              		.cpu cortex-m7
   2              		.arch armv7e-m
   3              		.fpu fpv5-d16
   4              		.eabi_attribute 28, 1
   5              		.eabi_attribute 20, 1
   6              		.eabi_attribute 21, 1
   7              		.eabi_attribute 23, 3
   8              		.eabi_attribute 24, 1
   9              		.eabi_attribute 25, 1
  10              		.eabi_attribute 26, 1
  11              		.eabi_attribute 30, 1
  12              		.eabi_attribute 34, 1
  13              		.eabi_attribute 18, 4
  14              		.file	"lv_grid.c"
  15              		.text
  16              	.Ltext0:
  17              		.cfi_sections	.debug_frame
  18              		.file 1 "../../Middlewares/LVGL/GUI/lvgl/src/layouts/grid/lv_grid.c"
  19              		.section	.text.grid_align,"ax",%progbits
  20              		.align	1
  21              		.syntax unified
  22              		.thumb
  23              		.thumb_func
  25              	grid_align:
  26              	.LVL0:
  27              	.LFB211:
   1:../../Middlewares/LVGL/GUI/lvgl/src/layouts/grid/lv_grid.c **** /**
   2:../../Middlewares/LVGL/GUI/lvgl/src/layouts/grid/lv_grid.c ****  * @file lv_grid.c
   3:../../Middlewares/LVGL/GUI/lvgl/src/layouts/grid/lv_grid.c ****  *
   4:../../Middlewares/LVGL/GUI/lvgl/src/layouts/grid/lv_grid.c ****  */
   5:../../Middlewares/LVGL/GUI/lvgl/src/layouts/grid/lv_grid.c **** 
   6:../../Middlewares/LVGL/GUI/lvgl/src/layouts/grid/lv_grid.c **** /*********************
   7:../../Middlewares/LVGL/GUI/lvgl/src/layouts/grid/lv_grid.c ****  *      INCLUDES
   8:../../Middlewares/LVGL/GUI/lvgl/src/layouts/grid/lv_grid.c ****  *********************/
   9:../../Middlewares/LVGL/GUI/lvgl/src/layouts/grid/lv_grid.c **** #include "lv_grid.h"
  10:../../Middlewares/LVGL/GUI/lvgl/src/layouts/grid/lv_grid.c **** 
  11:../../Middlewares/LVGL/GUI/lvgl/src/layouts/grid/lv_grid.c **** #if LV_USE_GRID
  12:../../Middlewares/LVGL/GUI/lvgl/src/layouts/grid/lv_grid.c **** 
  13:../../Middlewares/LVGL/GUI/lvgl/src/layouts/grid/lv_grid.c **** #include "../../stdlib/lv_string.h"
  14:../../Middlewares/LVGL/GUI/lvgl/src/layouts/grid/lv_grid.c **** #include "../lv_layout.h"
  15:../../Middlewares/LVGL/GUI/lvgl/src/layouts/grid/lv_grid.c **** #include "../../core/lv_obj_private.h"
  16:../../Middlewares/LVGL/GUI/lvgl/src/layouts/grid/lv_grid.c **** #include "../../core/lv_global.h"
  17:../../Middlewares/LVGL/GUI/lvgl/src/layouts/grid/lv_grid.c **** /*********************
  18:../../Middlewares/LVGL/GUI/lvgl/src/layouts/grid/lv_grid.c ****  *      DEFINES
  19:../../Middlewares/LVGL/GUI/lvgl/src/layouts/grid/lv_grid.c ****  *********************/
  20:../../Middlewares/LVGL/GUI/lvgl/src/layouts/grid/lv_grid.c **** #define layout_list_def LV_GLOBAL_DEFAULT()->layout_list
  21:../../Middlewares/LVGL/GUI/lvgl/src/layouts/grid/lv_grid.c **** 
  22:../../Middlewares/LVGL/GUI/lvgl/src/layouts/grid/lv_grid.c **** /**
  23:../../Middlewares/LVGL/GUI/lvgl/src/layouts/grid/lv_grid.c ****  * Some helper defines
  24:../../Middlewares/LVGL/GUI/lvgl/src/layouts/grid/lv_grid.c ****  */
  25:../../Middlewares/LVGL/GUI/lvgl/src/layouts/grid/lv_grid.c **** #define IS_FR(x)       (x >= LV_COORD_MAX - 100)
  26:../../Middlewares/LVGL/GUI/lvgl/src/layouts/grid/lv_grid.c **** #define IS_CONTENT(x)  (x == LV_COORD_MAX - 101)
  27:../../Middlewares/LVGL/GUI/lvgl/src/layouts/grid/lv_grid.c **** #define GET_FR(x)      (x - (LV_COORD_MAX - 100))
  28:../../Middlewares/LVGL/GUI/lvgl/src/layouts/grid/lv_grid.c **** 
  29:../../Middlewares/LVGL/GUI/lvgl/src/layouts/grid/lv_grid.c **** /**********************
  30:../../Middlewares/LVGL/GUI/lvgl/src/layouts/grid/lv_grid.c ****  *      TYPEDEFS
  31:../../Middlewares/LVGL/GUI/lvgl/src/layouts/grid/lv_grid.c ****  **********************/
ARM GAS  C:\Users\28576\AppData\Local\Temp\ccV3XjXD.s 			page 2


  32:../../Middlewares/LVGL/GUI/lvgl/src/layouts/grid/lv_grid.c **** typedef struct {
  33:../../Middlewares/LVGL/GUI/lvgl/src/layouts/grid/lv_grid.c ****     uint32_t col;
  34:../../Middlewares/LVGL/GUI/lvgl/src/layouts/grid/lv_grid.c ****     uint32_t row;
  35:../../Middlewares/LVGL/GUI/lvgl/src/layouts/grid/lv_grid.c ****     lv_point_t grid_abs;
  36:../../Middlewares/LVGL/GUI/lvgl/src/layouts/grid/lv_grid.c **** } item_repos_hint_t;
  37:../../Middlewares/LVGL/GUI/lvgl/src/layouts/grid/lv_grid.c **** 
  38:../../Middlewares/LVGL/GUI/lvgl/src/layouts/grid/lv_grid.c **** typedef struct {
  39:../../Middlewares/LVGL/GUI/lvgl/src/layouts/grid/lv_grid.c ****     int32_t * x;
  40:../../Middlewares/LVGL/GUI/lvgl/src/layouts/grid/lv_grid.c ****     int32_t * y;
  41:../../Middlewares/LVGL/GUI/lvgl/src/layouts/grid/lv_grid.c ****     int32_t * w;
  42:../../Middlewares/LVGL/GUI/lvgl/src/layouts/grid/lv_grid.c ****     int32_t * h;
  43:../../Middlewares/LVGL/GUI/lvgl/src/layouts/grid/lv_grid.c ****     uint32_t col_num;
  44:../../Middlewares/LVGL/GUI/lvgl/src/layouts/grid/lv_grid.c ****     uint32_t row_num;
  45:../../Middlewares/LVGL/GUI/lvgl/src/layouts/grid/lv_grid.c ****     int32_t grid_w;
  46:../../Middlewares/LVGL/GUI/lvgl/src/layouts/grid/lv_grid.c ****     int32_t grid_h;
  47:../../Middlewares/LVGL/GUI/lvgl/src/layouts/grid/lv_grid.c **** } lv_grid_calc_t;
  48:../../Middlewares/LVGL/GUI/lvgl/src/layouts/grid/lv_grid.c **** 
  49:../../Middlewares/LVGL/GUI/lvgl/src/layouts/grid/lv_grid.c **** /**********************
  50:../../Middlewares/LVGL/GUI/lvgl/src/layouts/grid/lv_grid.c ****  *  GLOBAL PROTOTYPES
  51:../../Middlewares/LVGL/GUI/lvgl/src/layouts/grid/lv_grid.c ****  **********************/
  52:../../Middlewares/LVGL/GUI/lvgl/src/layouts/grid/lv_grid.c **** 
  53:../../Middlewares/LVGL/GUI/lvgl/src/layouts/grid/lv_grid.c **** /**********************
  54:../../Middlewares/LVGL/GUI/lvgl/src/layouts/grid/lv_grid.c ****  *  STATIC PROTOTYPES
  55:../../Middlewares/LVGL/GUI/lvgl/src/layouts/grid/lv_grid.c ****  **********************/
  56:../../Middlewares/LVGL/GUI/lvgl/src/layouts/grid/lv_grid.c **** static void grid_update(lv_obj_t * cont, void * user_data);
  57:../../Middlewares/LVGL/GUI/lvgl/src/layouts/grid/lv_grid.c **** static void calc(lv_obj_t * obj, lv_grid_calc_t * calc);
  58:../../Middlewares/LVGL/GUI/lvgl/src/layouts/grid/lv_grid.c **** static void calc_free(lv_grid_calc_t * calc);
  59:../../Middlewares/LVGL/GUI/lvgl/src/layouts/grid/lv_grid.c **** static void calc_cols(lv_obj_t * cont, lv_grid_calc_t * c);
  60:../../Middlewares/LVGL/GUI/lvgl/src/layouts/grid/lv_grid.c **** static void calc_rows(lv_obj_t * cont, lv_grid_calc_t * c);
  61:../../Middlewares/LVGL/GUI/lvgl/src/layouts/grid/lv_grid.c **** static void item_repos(lv_obj_t * item, lv_grid_calc_t * c, item_repos_hint_t * hint);
  62:../../Middlewares/LVGL/GUI/lvgl/src/layouts/grid/lv_grid.c **** static int32_t grid_align(int32_t cont_size, bool auto_size, lv_grid_align_t align, int32_t gap,
  63:../../Middlewares/LVGL/GUI/lvgl/src/layouts/grid/lv_grid.c ****                           uint32_t track_num,
  64:../../Middlewares/LVGL/GUI/lvgl/src/layouts/grid/lv_grid.c ****                           int32_t * size_array, int32_t * pos_array, bool reverse);
  65:../../Middlewares/LVGL/GUI/lvgl/src/layouts/grid/lv_grid.c **** static uint32_t count_tracks(const int32_t * templ);
  66:../../Middlewares/LVGL/GUI/lvgl/src/layouts/grid/lv_grid.c **** 
  67:../../Middlewares/LVGL/GUI/lvgl/src/layouts/grid/lv_grid.c **** static inline const int32_t * get_col_dsc(lv_obj_t * obj)
  68:../../Middlewares/LVGL/GUI/lvgl/src/layouts/grid/lv_grid.c **** {
  69:../../Middlewares/LVGL/GUI/lvgl/src/layouts/grid/lv_grid.c ****     return lv_obj_get_style_grid_column_dsc_array(obj, 0);
  70:../../Middlewares/LVGL/GUI/lvgl/src/layouts/grid/lv_grid.c **** }
  71:../../Middlewares/LVGL/GUI/lvgl/src/layouts/grid/lv_grid.c **** static inline const int32_t * get_row_dsc(lv_obj_t * obj)
  72:../../Middlewares/LVGL/GUI/lvgl/src/layouts/grid/lv_grid.c **** {
  73:../../Middlewares/LVGL/GUI/lvgl/src/layouts/grid/lv_grid.c ****     return lv_obj_get_style_grid_row_dsc_array(obj, 0);
  74:../../Middlewares/LVGL/GUI/lvgl/src/layouts/grid/lv_grid.c **** }
  75:../../Middlewares/LVGL/GUI/lvgl/src/layouts/grid/lv_grid.c **** static inline int32_t get_col_pos(lv_obj_t * obj)
  76:../../Middlewares/LVGL/GUI/lvgl/src/layouts/grid/lv_grid.c **** {
  77:../../Middlewares/LVGL/GUI/lvgl/src/layouts/grid/lv_grid.c ****     return lv_obj_get_style_grid_cell_column_pos(obj, 0);
  78:../../Middlewares/LVGL/GUI/lvgl/src/layouts/grid/lv_grid.c **** }
  79:../../Middlewares/LVGL/GUI/lvgl/src/layouts/grid/lv_grid.c **** static inline int32_t get_row_pos(lv_obj_t * obj)
  80:../../Middlewares/LVGL/GUI/lvgl/src/layouts/grid/lv_grid.c **** {
  81:../../Middlewares/LVGL/GUI/lvgl/src/layouts/grid/lv_grid.c ****     return lv_obj_get_style_grid_cell_row_pos(obj, 0);
  82:../../Middlewares/LVGL/GUI/lvgl/src/layouts/grid/lv_grid.c **** }
  83:../../Middlewares/LVGL/GUI/lvgl/src/layouts/grid/lv_grid.c **** static inline int32_t get_col_span(lv_obj_t * obj)
  84:../../Middlewares/LVGL/GUI/lvgl/src/layouts/grid/lv_grid.c **** {
  85:../../Middlewares/LVGL/GUI/lvgl/src/layouts/grid/lv_grid.c ****     return lv_obj_get_style_grid_cell_column_span(obj, 0);
  86:../../Middlewares/LVGL/GUI/lvgl/src/layouts/grid/lv_grid.c **** }
  87:../../Middlewares/LVGL/GUI/lvgl/src/layouts/grid/lv_grid.c **** static inline int32_t get_row_span(lv_obj_t * obj)
  88:../../Middlewares/LVGL/GUI/lvgl/src/layouts/grid/lv_grid.c **** {
ARM GAS  C:\Users\28576\AppData\Local\Temp\ccV3XjXD.s 			page 3


  89:../../Middlewares/LVGL/GUI/lvgl/src/layouts/grid/lv_grid.c ****     return lv_obj_get_style_grid_cell_row_span(obj, 0);
  90:../../Middlewares/LVGL/GUI/lvgl/src/layouts/grid/lv_grid.c **** }
  91:../../Middlewares/LVGL/GUI/lvgl/src/layouts/grid/lv_grid.c **** static inline lv_grid_align_t get_cell_col_align(lv_obj_t * obj)
  92:../../Middlewares/LVGL/GUI/lvgl/src/layouts/grid/lv_grid.c **** {
  93:../../Middlewares/LVGL/GUI/lvgl/src/layouts/grid/lv_grid.c ****     return lv_obj_get_style_grid_cell_x_align(obj, 0);
  94:../../Middlewares/LVGL/GUI/lvgl/src/layouts/grid/lv_grid.c **** }
  95:../../Middlewares/LVGL/GUI/lvgl/src/layouts/grid/lv_grid.c **** static inline lv_grid_align_t get_cell_row_align(lv_obj_t * obj)
  96:../../Middlewares/LVGL/GUI/lvgl/src/layouts/grid/lv_grid.c **** {
  97:../../Middlewares/LVGL/GUI/lvgl/src/layouts/grid/lv_grid.c ****     return lv_obj_get_style_grid_cell_y_align(obj, 0);
  98:../../Middlewares/LVGL/GUI/lvgl/src/layouts/grid/lv_grid.c **** }
  99:../../Middlewares/LVGL/GUI/lvgl/src/layouts/grid/lv_grid.c **** static inline lv_grid_align_t get_grid_col_align(lv_obj_t * obj)
 100:../../Middlewares/LVGL/GUI/lvgl/src/layouts/grid/lv_grid.c **** {
 101:../../Middlewares/LVGL/GUI/lvgl/src/layouts/grid/lv_grid.c ****     return lv_obj_get_style_grid_column_align(obj, 0);
 102:../../Middlewares/LVGL/GUI/lvgl/src/layouts/grid/lv_grid.c **** }
 103:../../Middlewares/LVGL/GUI/lvgl/src/layouts/grid/lv_grid.c **** static inline lv_grid_align_t get_grid_row_align(lv_obj_t * obj)
 104:../../Middlewares/LVGL/GUI/lvgl/src/layouts/grid/lv_grid.c **** {
 105:../../Middlewares/LVGL/GUI/lvgl/src/layouts/grid/lv_grid.c ****     return lv_obj_get_style_grid_row_align(obj, 0);
 106:../../Middlewares/LVGL/GUI/lvgl/src/layouts/grid/lv_grid.c **** }
 107:../../Middlewares/LVGL/GUI/lvgl/src/layouts/grid/lv_grid.c **** static inline int32_t get_margin_hor(lv_obj_t * obj)
 108:../../Middlewares/LVGL/GUI/lvgl/src/layouts/grid/lv_grid.c **** {
 109:../../Middlewares/LVGL/GUI/lvgl/src/layouts/grid/lv_grid.c ****     return lv_obj_get_style_margin_left(obj, LV_PART_MAIN)
 110:../../Middlewares/LVGL/GUI/lvgl/src/layouts/grid/lv_grid.c ****            + lv_obj_get_style_margin_right(obj, LV_PART_MAIN);
 111:../../Middlewares/LVGL/GUI/lvgl/src/layouts/grid/lv_grid.c **** }
 112:../../Middlewares/LVGL/GUI/lvgl/src/layouts/grid/lv_grid.c **** static inline int32_t get_margin_ver(lv_obj_t * obj)
 113:../../Middlewares/LVGL/GUI/lvgl/src/layouts/grid/lv_grid.c **** {
 114:../../Middlewares/LVGL/GUI/lvgl/src/layouts/grid/lv_grid.c ****     return lv_obj_get_style_margin_top(obj, LV_PART_MAIN)
 115:../../Middlewares/LVGL/GUI/lvgl/src/layouts/grid/lv_grid.c ****            + lv_obj_get_style_margin_bottom(obj, LV_PART_MAIN);
 116:../../Middlewares/LVGL/GUI/lvgl/src/layouts/grid/lv_grid.c **** }
 117:../../Middlewares/LVGL/GUI/lvgl/src/layouts/grid/lv_grid.c **** 
 118:../../Middlewares/LVGL/GUI/lvgl/src/layouts/grid/lv_grid.c **** static inline int32_t lv_div_round_closest(int32_t dividend, int32_t divisor)
 119:../../Middlewares/LVGL/GUI/lvgl/src/layouts/grid/lv_grid.c **** {
 120:../../Middlewares/LVGL/GUI/lvgl/src/layouts/grid/lv_grid.c ****     return (dividend + divisor / 2) / divisor;
 121:../../Middlewares/LVGL/GUI/lvgl/src/layouts/grid/lv_grid.c **** }
 122:../../Middlewares/LVGL/GUI/lvgl/src/layouts/grid/lv_grid.c **** 
 123:../../Middlewares/LVGL/GUI/lvgl/src/layouts/grid/lv_grid.c **** /**********************
 124:../../Middlewares/LVGL/GUI/lvgl/src/layouts/grid/lv_grid.c ****  *  GLOBAL VARIABLES
 125:../../Middlewares/LVGL/GUI/lvgl/src/layouts/grid/lv_grid.c ****  **********************/
 126:../../Middlewares/LVGL/GUI/lvgl/src/layouts/grid/lv_grid.c **** 
 127:../../Middlewares/LVGL/GUI/lvgl/src/layouts/grid/lv_grid.c **** /**********************
 128:../../Middlewares/LVGL/GUI/lvgl/src/layouts/grid/lv_grid.c ****  *  STATIC VARIABLES
 129:../../Middlewares/LVGL/GUI/lvgl/src/layouts/grid/lv_grid.c ****  **********************/
 130:../../Middlewares/LVGL/GUI/lvgl/src/layouts/grid/lv_grid.c **** 
 131:../../Middlewares/LVGL/GUI/lvgl/src/layouts/grid/lv_grid.c **** /**********************
 132:../../Middlewares/LVGL/GUI/lvgl/src/layouts/grid/lv_grid.c ****  *      MACROS
 133:../../Middlewares/LVGL/GUI/lvgl/src/layouts/grid/lv_grid.c ****  **********************/
 134:../../Middlewares/LVGL/GUI/lvgl/src/layouts/grid/lv_grid.c **** #if LV_USE_LOG && LV_LOG_TRACE_LAYOUT
 135:../../Middlewares/LVGL/GUI/lvgl/src/layouts/grid/lv_grid.c ****     #define LV_TRACE_LAYOUT(...) LV_LOG_TRACE(__VA_ARGS__)
 136:../../Middlewares/LVGL/GUI/lvgl/src/layouts/grid/lv_grid.c **** #else
 137:../../Middlewares/LVGL/GUI/lvgl/src/layouts/grid/lv_grid.c ****     #define LV_TRACE_LAYOUT(...)
 138:../../Middlewares/LVGL/GUI/lvgl/src/layouts/grid/lv_grid.c **** #endif
 139:../../Middlewares/LVGL/GUI/lvgl/src/layouts/grid/lv_grid.c **** 
 140:../../Middlewares/LVGL/GUI/lvgl/src/layouts/grid/lv_grid.c **** /**********************
 141:../../Middlewares/LVGL/GUI/lvgl/src/layouts/grid/lv_grid.c ****  *   GLOBAL FUNCTIONS
 142:../../Middlewares/LVGL/GUI/lvgl/src/layouts/grid/lv_grid.c ****  **********************/
 143:../../Middlewares/LVGL/GUI/lvgl/src/layouts/grid/lv_grid.c **** 
 144:../../Middlewares/LVGL/GUI/lvgl/src/layouts/grid/lv_grid.c **** void lv_grid_init(void)
 145:../../Middlewares/LVGL/GUI/lvgl/src/layouts/grid/lv_grid.c **** {
ARM GAS  C:\Users\28576\AppData\Local\Temp\ccV3XjXD.s 			page 4


 146:../../Middlewares/LVGL/GUI/lvgl/src/layouts/grid/lv_grid.c ****     layout_list_def[LV_LAYOUT_GRID].cb = grid_update;
 147:../../Middlewares/LVGL/GUI/lvgl/src/layouts/grid/lv_grid.c ****     layout_list_def[LV_LAYOUT_GRID].user_data = NULL;
 148:../../Middlewares/LVGL/GUI/lvgl/src/layouts/grid/lv_grid.c **** }
 149:../../Middlewares/LVGL/GUI/lvgl/src/layouts/grid/lv_grid.c **** 
 150:../../Middlewares/LVGL/GUI/lvgl/src/layouts/grid/lv_grid.c **** void lv_obj_set_grid_dsc_array(lv_obj_t * obj, const int32_t col_dsc[], const int32_t row_dsc[])
 151:../../Middlewares/LVGL/GUI/lvgl/src/layouts/grid/lv_grid.c **** {
 152:../../Middlewares/LVGL/GUI/lvgl/src/layouts/grid/lv_grid.c ****     lv_obj_set_style_grid_column_dsc_array(obj, col_dsc, 0);
 153:../../Middlewares/LVGL/GUI/lvgl/src/layouts/grid/lv_grid.c ****     lv_obj_set_style_grid_row_dsc_array(obj, row_dsc, 0);
 154:../../Middlewares/LVGL/GUI/lvgl/src/layouts/grid/lv_grid.c ****     lv_obj_set_style_layout(obj, LV_LAYOUT_GRID, 0);
 155:../../Middlewares/LVGL/GUI/lvgl/src/layouts/grid/lv_grid.c **** }
 156:../../Middlewares/LVGL/GUI/lvgl/src/layouts/grid/lv_grid.c **** 
 157:../../Middlewares/LVGL/GUI/lvgl/src/layouts/grid/lv_grid.c **** void lv_obj_set_grid_align(lv_obj_t * obj, lv_grid_align_t column_align, lv_grid_align_t row_align)
 158:../../Middlewares/LVGL/GUI/lvgl/src/layouts/grid/lv_grid.c **** {
 159:../../Middlewares/LVGL/GUI/lvgl/src/layouts/grid/lv_grid.c ****     lv_obj_set_style_grid_column_align(obj, column_align, 0);
 160:../../Middlewares/LVGL/GUI/lvgl/src/layouts/grid/lv_grid.c ****     lv_obj_set_style_grid_row_align(obj, row_align, 0);
 161:../../Middlewares/LVGL/GUI/lvgl/src/layouts/grid/lv_grid.c **** 
 162:../../Middlewares/LVGL/GUI/lvgl/src/layouts/grid/lv_grid.c **** }
 163:../../Middlewares/LVGL/GUI/lvgl/src/layouts/grid/lv_grid.c **** 
 164:../../Middlewares/LVGL/GUI/lvgl/src/layouts/grid/lv_grid.c **** void lv_obj_set_grid_cell(lv_obj_t * obj, lv_grid_align_t x_align, int32_t col_pos, int32_t col_spa
 165:../../Middlewares/LVGL/GUI/lvgl/src/layouts/grid/lv_grid.c ****                           lv_grid_align_t y_align, int32_t row_pos, int32_t row_span)
 166:../../Middlewares/LVGL/GUI/lvgl/src/layouts/grid/lv_grid.c **** 
 167:../../Middlewares/LVGL/GUI/lvgl/src/layouts/grid/lv_grid.c **** {
 168:../../Middlewares/LVGL/GUI/lvgl/src/layouts/grid/lv_grid.c ****     lv_obj_set_style_grid_cell_column_pos(obj, col_pos, 0);
 169:../../Middlewares/LVGL/GUI/lvgl/src/layouts/grid/lv_grid.c ****     lv_obj_set_style_grid_cell_row_pos(obj, row_pos, 0);
 170:../../Middlewares/LVGL/GUI/lvgl/src/layouts/grid/lv_grid.c ****     lv_obj_set_style_grid_cell_x_align(obj, x_align, 0);
 171:../../Middlewares/LVGL/GUI/lvgl/src/layouts/grid/lv_grid.c ****     lv_obj_set_style_grid_cell_column_span(obj, col_span, 0);
 172:../../Middlewares/LVGL/GUI/lvgl/src/layouts/grid/lv_grid.c ****     lv_obj_set_style_grid_cell_row_span(obj, row_span, 0);
 173:../../Middlewares/LVGL/GUI/lvgl/src/layouts/grid/lv_grid.c ****     lv_obj_set_style_grid_cell_y_align(obj, y_align, 0);
 174:../../Middlewares/LVGL/GUI/lvgl/src/layouts/grid/lv_grid.c **** 
 175:../../Middlewares/LVGL/GUI/lvgl/src/layouts/grid/lv_grid.c ****     lv_obj_mark_layout_as_dirty(lv_obj_get_parent(obj));
 176:../../Middlewares/LVGL/GUI/lvgl/src/layouts/grid/lv_grid.c **** }
 177:../../Middlewares/LVGL/GUI/lvgl/src/layouts/grid/lv_grid.c **** 
 178:../../Middlewares/LVGL/GUI/lvgl/src/layouts/grid/lv_grid.c **** int32_t lv_grid_fr(uint8_t x)
 179:../../Middlewares/LVGL/GUI/lvgl/src/layouts/grid/lv_grid.c **** {
 180:../../Middlewares/LVGL/GUI/lvgl/src/layouts/grid/lv_grid.c ****     return LV_GRID_FR(x);
 181:../../Middlewares/LVGL/GUI/lvgl/src/layouts/grid/lv_grid.c **** }
 182:../../Middlewares/LVGL/GUI/lvgl/src/layouts/grid/lv_grid.c **** 
 183:../../Middlewares/LVGL/GUI/lvgl/src/layouts/grid/lv_grid.c **** /**********************
 184:../../Middlewares/LVGL/GUI/lvgl/src/layouts/grid/lv_grid.c ****  *   STATIC FUNCTIONS
 185:../../Middlewares/LVGL/GUI/lvgl/src/layouts/grid/lv_grid.c ****  **********************/
 186:../../Middlewares/LVGL/GUI/lvgl/src/layouts/grid/lv_grid.c **** 
 187:../../Middlewares/LVGL/GUI/lvgl/src/layouts/grid/lv_grid.c **** static void grid_update(lv_obj_t * cont, void * user_data)
 188:../../Middlewares/LVGL/GUI/lvgl/src/layouts/grid/lv_grid.c **** {
 189:../../Middlewares/LVGL/GUI/lvgl/src/layouts/grid/lv_grid.c ****     LV_LOG_INFO("update %p container", (void *)cont);
 190:../../Middlewares/LVGL/GUI/lvgl/src/layouts/grid/lv_grid.c ****     LV_UNUSED(user_data);
 191:../../Middlewares/LVGL/GUI/lvgl/src/layouts/grid/lv_grid.c **** 
 192:../../Middlewares/LVGL/GUI/lvgl/src/layouts/grid/lv_grid.c ****     //    const int32_t * col_templ = get_col_dsc(cont);
 193:../../Middlewares/LVGL/GUI/lvgl/src/layouts/grid/lv_grid.c ****     //    const int32_t * row_templ = get_row_dsc(cont);
 194:../../Middlewares/LVGL/GUI/lvgl/src/layouts/grid/lv_grid.c ****     //    if(col_templ == NULL || row_templ == NULL) return;
 195:../../Middlewares/LVGL/GUI/lvgl/src/layouts/grid/lv_grid.c **** 
 196:../../Middlewares/LVGL/GUI/lvgl/src/layouts/grid/lv_grid.c ****     lv_grid_calc_t c;
 197:../../Middlewares/LVGL/GUI/lvgl/src/layouts/grid/lv_grid.c ****     calc(cont, &c);
 198:../../Middlewares/LVGL/GUI/lvgl/src/layouts/grid/lv_grid.c **** 
 199:../../Middlewares/LVGL/GUI/lvgl/src/layouts/grid/lv_grid.c ****     item_repos_hint_t hint;
 200:../../Middlewares/LVGL/GUI/lvgl/src/layouts/grid/lv_grid.c ****     lv_memzero(&hint, sizeof(hint));
 201:../../Middlewares/LVGL/GUI/lvgl/src/layouts/grid/lv_grid.c **** 
 202:../../Middlewares/LVGL/GUI/lvgl/src/layouts/grid/lv_grid.c ****     /*Calculate the grids absolute x and y coordinates.
ARM GAS  C:\Users\28576\AppData\Local\Temp\ccV3XjXD.s 			page 5


 203:../../Middlewares/LVGL/GUI/lvgl/src/layouts/grid/lv_grid.c ****      *It will be used as helper during item repositioning to avoid calculating this value for every
 204:../../Middlewares/LVGL/GUI/lvgl/src/layouts/grid/lv_grid.c ****     int32_t pad_left = lv_obj_get_style_space_left(cont, LV_PART_MAIN);
 205:../../Middlewares/LVGL/GUI/lvgl/src/layouts/grid/lv_grid.c ****     int32_t pad_top = lv_obj_get_style_space_top(cont, LV_PART_MAIN);
 206:../../Middlewares/LVGL/GUI/lvgl/src/layouts/grid/lv_grid.c ****     hint.grid_abs.x = pad_left + cont->coords.x1 - lv_obj_get_scroll_x(cont);
 207:../../Middlewares/LVGL/GUI/lvgl/src/layouts/grid/lv_grid.c ****     hint.grid_abs.y = pad_top + cont->coords.y1 - lv_obj_get_scroll_y(cont);
 208:../../Middlewares/LVGL/GUI/lvgl/src/layouts/grid/lv_grid.c **** 
 209:../../Middlewares/LVGL/GUI/lvgl/src/layouts/grid/lv_grid.c ****     uint32_t i;
 210:../../Middlewares/LVGL/GUI/lvgl/src/layouts/grid/lv_grid.c ****     for(i = 0; i < cont->spec_attr->child_cnt; i++) {
 211:../../Middlewares/LVGL/GUI/lvgl/src/layouts/grid/lv_grid.c ****         lv_obj_t * item = cont->spec_attr->children[i];
 212:../../Middlewares/LVGL/GUI/lvgl/src/layouts/grid/lv_grid.c ****         item_repos(item, &c, &hint);
 213:../../Middlewares/LVGL/GUI/lvgl/src/layouts/grid/lv_grid.c ****     }
 214:../../Middlewares/LVGL/GUI/lvgl/src/layouts/grid/lv_grid.c ****     calc_free(&c);
 215:../../Middlewares/LVGL/GUI/lvgl/src/layouts/grid/lv_grid.c **** 
 216:../../Middlewares/LVGL/GUI/lvgl/src/layouts/grid/lv_grid.c ****     int32_t w_set = lv_obj_get_style_width(cont, LV_PART_MAIN);
 217:../../Middlewares/LVGL/GUI/lvgl/src/layouts/grid/lv_grid.c ****     int32_t h_set = lv_obj_get_style_height(cont, LV_PART_MAIN);
 218:../../Middlewares/LVGL/GUI/lvgl/src/layouts/grid/lv_grid.c ****     if(w_set == LV_SIZE_CONTENT || h_set == LV_SIZE_CONTENT) {
 219:../../Middlewares/LVGL/GUI/lvgl/src/layouts/grid/lv_grid.c ****         lv_obj_refr_size(cont);
 220:../../Middlewares/LVGL/GUI/lvgl/src/layouts/grid/lv_grid.c ****     }
 221:../../Middlewares/LVGL/GUI/lvgl/src/layouts/grid/lv_grid.c **** 
 222:../../Middlewares/LVGL/GUI/lvgl/src/layouts/grid/lv_grid.c ****     lv_obj_send_event(cont, LV_EVENT_LAYOUT_CHANGED, NULL);
 223:../../Middlewares/LVGL/GUI/lvgl/src/layouts/grid/lv_grid.c **** 
 224:../../Middlewares/LVGL/GUI/lvgl/src/layouts/grid/lv_grid.c ****     LV_TRACE_LAYOUT("finished");
 225:../../Middlewares/LVGL/GUI/lvgl/src/layouts/grid/lv_grid.c **** }
 226:../../Middlewares/LVGL/GUI/lvgl/src/layouts/grid/lv_grid.c **** 
 227:../../Middlewares/LVGL/GUI/lvgl/src/layouts/grid/lv_grid.c **** /**
 228:../../Middlewares/LVGL/GUI/lvgl/src/layouts/grid/lv_grid.c ****  * Calculate the grid cells coordinates
 229:../../Middlewares/LVGL/GUI/lvgl/src/layouts/grid/lv_grid.c ****  * @param cont an object that has a grid
 230:../../Middlewares/LVGL/GUI/lvgl/src/layouts/grid/lv_grid.c ****  * @param calc store the calculated cells sizes here
 231:../../Middlewares/LVGL/GUI/lvgl/src/layouts/grid/lv_grid.c ****  * @note `lv_grid_calc_free(calc_out)` needs to be called when `calc_out` is not needed anymore
 232:../../Middlewares/LVGL/GUI/lvgl/src/layouts/grid/lv_grid.c ****  */
 233:../../Middlewares/LVGL/GUI/lvgl/src/layouts/grid/lv_grid.c **** static void calc(lv_obj_t * cont, lv_grid_calc_t * calc_out)
 234:../../Middlewares/LVGL/GUI/lvgl/src/layouts/grid/lv_grid.c **** {
 235:../../Middlewares/LVGL/GUI/lvgl/src/layouts/grid/lv_grid.c ****     if(lv_obj_get_child(cont, 0) == NULL) {
 236:../../Middlewares/LVGL/GUI/lvgl/src/layouts/grid/lv_grid.c ****         lv_memzero(calc_out, sizeof(lv_grid_calc_t));
 237:../../Middlewares/LVGL/GUI/lvgl/src/layouts/grid/lv_grid.c ****         return;
 238:../../Middlewares/LVGL/GUI/lvgl/src/layouts/grid/lv_grid.c ****     }
 239:../../Middlewares/LVGL/GUI/lvgl/src/layouts/grid/lv_grid.c **** 
 240:../../Middlewares/LVGL/GUI/lvgl/src/layouts/grid/lv_grid.c ****     calc_rows(cont, calc_out);
 241:../../Middlewares/LVGL/GUI/lvgl/src/layouts/grid/lv_grid.c ****     calc_cols(cont, calc_out);
 242:../../Middlewares/LVGL/GUI/lvgl/src/layouts/grid/lv_grid.c **** 
 243:../../Middlewares/LVGL/GUI/lvgl/src/layouts/grid/lv_grid.c ****     int32_t col_gap = lv_obj_get_style_pad_column(cont, LV_PART_MAIN);
 244:../../Middlewares/LVGL/GUI/lvgl/src/layouts/grid/lv_grid.c ****     int32_t row_gap = lv_obj_get_style_pad_row(cont, LV_PART_MAIN);
 245:../../Middlewares/LVGL/GUI/lvgl/src/layouts/grid/lv_grid.c **** 
 246:../../Middlewares/LVGL/GUI/lvgl/src/layouts/grid/lv_grid.c ****     bool rev = lv_obj_get_style_base_dir(cont, LV_PART_MAIN) == LV_BASE_DIR_RTL;
 247:../../Middlewares/LVGL/GUI/lvgl/src/layouts/grid/lv_grid.c **** 
 248:../../Middlewares/LVGL/GUI/lvgl/src/layouts/grid/lv_grid.c ****     int32_t w_set = lv_obj_get_style_width(cont, LV_PART_MAIN);
 249:../../Middlewares/LVGL/GUI/lvgl/src/layouts/grid/lv_grid.c ****     int32_t h_set = lv_obj_get_style_height(cont, LV_PART_MAIN);
 250:../../Middlewares/LVGL/GUI/lvgl/src/layouts/grid/lv_grid.c ****     bool auto_w = w_set == LV_SIZE_CONTENT && !cont->w_layout;
 251:../../Middlewares/LVGL/GUI/lvgl/src/layouts/grid/lv_grid.c ****     int32_t cont_w = lv_obj_get_content_width(cont);
 252:../../Middlewares/LVGL/GUI/lvgl/src/layouts/grid/lv_grid.c ****     calc_out->grid_w = grid_align(cont_w, auto_w, get_grid_col_align(cont), col_gap, calc_out->col_
 253:../../Middlewares/LVGL/GUI/lvgl/src/layouts/grid/lv_grid.c ****                                   calc_out->x, rev);
 254:../../Middlewares/LVGL/GUI/lvgl/src/layouts/grid/lv_grid.c **** 
 255:../../Middlewares/LVGL/GUI/lvgl/src/layouts/grid/lv_grid.c ****     bool auto_h = h_set == LV_SIZE_CONTENT && !cont->h_layout;
 256:../../Middlewares/LVGL/GUI/lvgl/src/layouts/grid/lv_grid.c ****     int32_t cont_h = lv_obj_get_content_height(cont);
 257:../../Middlewares/LVGL/GUI/lvgl/src/layouts/grid/lv_grid.c ****     calc_out->grid_h = grid_align(cont_h, auto_h, get_grid_row_align(cont), row_gap, calc_out->row_
 258:../../Middlewares/LVGL/GUI/lvgl/src/layouts/grid/lv_grid.c ****                                   calc_out->y, false);
 259:../../Middlewares/LVGL/GUI/lvgl/src/layouts/grid/lv_grid.c **** 
ARM GAS  C:\Users\28576\AppData\Local\Temp\ccV3XjXD.s 			page 6


 260:../../Middlewares/LVGL/GUI/lvgl/src/layouts/grid/lv_grid.c ****     LV_ASSERT_MEM_INTEGRITY();
 261:../../Middlewares/LVGL/GUI/lvgl/src/layouts/grid/lv_grid.c **** }
 262:../../Middlewares/LVGL/GUI/lvgl/src/layouts/grid/lv_grid.c **** 
 263:../../Middlewares/LVGL/GUI/lvgl/src/layouts/grid/lv_grid.c **** /**
 264:../../Middlewares/LVGL/GUI/lvgl/src/layouts/grid/lv_grid.c ****  * Free the a grid calculation's data
 265:../../Middlewares/LVGL/GUI/lvgl/src/layouts/grid/lv_grid.c ****  * @param calc pointer to the calculated grid cell coordinates
 266:../../Middlewares/LVGL/GUI/lvgl/src/layouts/grid/lv_grid.c ****  */
 267:../../Middlewares/LVGL/GUI/lvgl/src/layouts/grid/lv_grid.c **** static void calc_free(lv_grid_calc_t * calc)
 268:../../Middlewares/LVGL/GUI/lvgl/src/layouts/grid/lv_grid.c **** {
 269:../../Middlewares/LVGL/GUI/lvgl/src/layouts/grid/lv_grid.c ****     lv_free(calc->x);
 270:../../Middlewares/LVGL/GUI/lvgl/src/layouts/grid/lv_grid.c ****     lv_free(calc->y);
 271:../../Middlewares/LVGL/GUI/lvgl/src/layouts/grid/lv_grid.c ****     lv_free(calc->w);
 272:../../Middlewares/LVGL/GUI/lvgl/src/layouts/grid/lv_grid.c ****     lv_free(calc->h);
 273:../../Middlewares/LVGL/GUI/lvgl/src/layouts/grid/lv_grid.c **** }
 274:../../Middlewares/LVGL/GUI/lvgl/src/layouts/grid/lv_grid.c **** 
 275:../../Middlewares/LVGL/GUI/lvgl/src/layouts/grid/lv_grid.c **** static void calc_cols(lv_obj_t * cont, lv_grid_calc_t * c)
 276:../../Middlewares/LVGL/GUI/lvgl/src/layouts/grid/lv_grid.c **** {
 277:../../Middlewares/LVGL/GUI/lvgl/src/layouts/grid/lv_grid.c **** 
 278:../../Middlewares/LVGL/GUI/lvgl/src/layouts/grid/lv_grid.c ****     const int32_t * col_templ;
 279:../../Middlewares/LVGL/GUI/lvgl/src/layouts/grid/lv_grid.c ****     col_templ = get_col_dsc(cont);
 280:../../Middlewares/LVGL/GUI/lvgl/src/layouts/grid/lv_grid.c ****     bool subgrid = false;
 281:../../Middlewares/LVGL/GUI/lvgl/src/layouts/grid/lv_grid.c ****     if(col_templ == NULL) {
 282:../../Middlewares/LVGL/GUI/lvgl/src/layouts/grid/lv_grid.c ****         lv_obj_t * parent = lv_obj_get_parent(cont);
 283:../../Middlewares/LVGL/GUI/lvgl/src/layouts/grid/lv_grid.c ****         col_templ = get_col_dsc(parent);
 284:../../Middlewares/LVGL/GUI/lvgl/src/layouts/grid/lv_grid.c ****         if(col_templ == NULL) {
 285:../../Middlewares/LVGL/GUI/lvgl/src/layouts/grid/lv_grid.c ****             LV_LOG_WARN("No col descriptor found even on the parent");
 286:../../Middlewares/LVGL/GUI/lvgl/src/layouts/grid/lv_grid.c ****             return;
 287:../../Middlewares/LVGL/GUI/lvgl/src/layouts/grid/lv_grid.c ****         }
 288:../../Middlewares/LVGL/GUI/lvgl/src/layouts/grid/lv_grid.c **** 
 289:../../Middlewares/LVGL/GUI/lvgl/src/layouts/grid/lv_grid.c ****         int32_t pos = get_col_pos(cont);
 290:../../Middlewares/LVGL/GUI/lvgl/src/layouts/grid/lv_grid.c ****         int32_t span = get_col_span(cont);
 291:../../Middlewares/LVGL/GUI/lvgl/src/layouts/grid/lv_grid.c **** 
 292:../../Middlewares/LVGL/GUI/lvgl/src/layouts/grid/lv_grid.c ****         int32_t * col_templ_sub = lv_malloc(sizeof(int32_t) * (span + 1));
 293:../../Middlewares/LVGL/GUI/lvgl/src/layouts/grid/lv_grid.c ****         lv_memcpy(col_templ_sub, &col_templ[pos], sizeof(int32_t) * span);
 294:../../Middlewares/LVGL/GUI/lvgl/src/layouts/grid/lv_grid.c ****         col_templ_sub[span] = LV_GRID_TEMPLATE_LAST;
 295:../../Middlewares/LVGL/GUI/lvgl/src/layouts/grid/lv_grid.c ****         col_templ = col_templ_sub;
 296:../../Middlewares/LVGL/GUI/lvgl/src/layouts/grid/lv_grid.c ****         subgrid = true;
 297:../../Middlewares/LVGL/GUI/lvgl/src/layouts/grid/lv_grid.c ****     }
 298:../../Middlewares/LVGL/GUI/lvgl/src/layouts/grid/lv_grid.c **** 
 299:../../Middlewares/LVGL/GUI/lvgl/src/layouts/grid/lv_grid.c ****     int32_t cont_w = lv_obj_get_content_width(cont);
 300:../../Middlewares/LVGL/GUI/lvgl/src/layouts/grid/lv_grid.c **** 
 301:../../Middlewares/LVGL/GUI/lvgl/src/layouts/grid/lv_grid.c ****     c->col_num = count_tracks(col_templ);
 302:../../Middlewares/LVGL/GUI/lvgl/src/layouts/grid/lv_grid.c ****     c->x = lv_malloc(sizeof(int32_t) * c->col_num);
 303:../../Middlewares/LVGL/GUI/lvgl/src/layouts/grid/lv_grid.c ****     c->w = lv_malloc(sizeof(int32_t) * c->col_num);
 304:../../Middlewares/LVGL/GUI/lvgl/src/layouts/grid/lv_grid.c **** 
 305:../../Middlewares/LVGL/GUI/lvgl/src/layouts/grid/lv_grid.c ****     /*Set sizes for CONTENT cells*/
 306:../../Middlewares/LVGL/GUI/lvgl/src/layouts/grid/lv_grid.c ****     uint32_t i;
 307:../../Middlewares/LVGL/GUI/lvgl/src/layouts/grid/lv_grid.c ****     for(i = 0; i < c->col_num; i++) {
 308:../../Middlewares/LVGL/GUI/lvgl/src/layouts/grid/lv_grid.c ****         int32_t size = LV_COORD_MIN;
 309:../../Middlewares/LVGL/GUI/lvgl/src/layouts/grid/lv_grid.c ****         if(IS_CONTENT(col_templ[i])) {
 310:../../Middlewares/LVGL/GUI/lvgl/src/layouts/grid/lv_grid.c ****             /*Check the size of children of this cell*/
 311:../../Middlewares/LVGL/GUI/lvgl/src/layouts/grid/lv_grid.c ****             uint32_t ci;
 312:../../Middlewares/LVGL/GUI/lvgl/src/layouts/grid/lv_grid.c ****             for(ci = 0; ci < lv_obj_get_child_count(cont); ci++) {
 313:../../Middlewares/LVGL/GUI/lvgl/src/layouts/grid/lv_grid.c ****                 lv_obj_t * item = lv_obj_get_child(cont, ci);
 314:../../Middlewares/LVGL/GUI/lvgl/src/layouts/grid/lv_grid.c ****                 if(lv_obj_has_flag_any(item, LV_OBJ_FLAG_IGNORE_LAYOUT | LV_OBJ_FLAG_HIDDEN | LV_OB
 315:../../Middlewares/LVGL/GUI/lvgl/src/layouts/grid/lv_grid.c ****                 uint32_t col_span = get_col_span(item);
 316:../../Middlewares/LVGL/GUI/lvgl/src/layouts/grid/lv_grid.c ****                 if(col_span != 1) continue;
ARM GAS  C:\Users\28576\AppData\Local\Temp\ccV3XjXD.s 			page 7


 317:../../Middlewares/LVGL/GUI/lvgl/src/layouts/grid/lv_grid.c **** 
 318:../../Middlewares/LVGL/GUI/lvgl/src/layouts/grid/lv_grid.c ****                 uint32_t col_pos = get_col_pos(item);
 319:../../Middlewares/LVGL/GUI/lvgl/src/layouts/grid/lv_grid.c ****                 if(col_pos != i) continue;
 320:../../Middlewares/LVGL/GUI/lvgl/src/layouts/grid/lv_grid.c **** 
 321:../../Middlewares/LVGL/GUI/lvgl/src/layouts/grid/lv_grid.c ****                 size = LV_MAX(size, lv_obj_get_width(item));
 322:../../Middlewares/LVGL/GUI/lvgl/src/layouts/grid/lv_grid.c ****             }
 323:../../Middlewares/LVGL/GUI/lvgl/src/layouts/grid/lv_grid.c ****             if(size >= 0) c->w[i] = size;
 324:../../Middlewares/LVGL/GUI/lvgl/src/layouts/grid/lv_grid.c ****             else c->w[i] = 0;
 325:../../Middlewares/LVGL/GUI/lvgl/src/layouts/grid/lv_grid.c ****         }
 326:../../Middlewares/LVGL/GUI/lvgl/src/layouts/grid/lv_grid.c ****     }
 327:../../Middlewares/LVGL/GUI/lvgl/src/layouts/grid/lv_grid.c **** 
 328:../../Middlewares/LVGL/GUI/lvgl/src/layouts/grid/lv_grid.c ****     uint32_t col_fr_cnt = 0;
 329:../../Middlewares/LVGL/GUI/lvgl/src/layouts/grid/lv_grid.c ****     int32_t grid_w = 0;
 330:../../Middlewares/LVGL/GUI/lvgl/src/layouts/grid/lv_grid.c **** 
 331:../../Middlewares/LVGL/GUI/lvgl/src/layouts/grid/lv_grid.c ****     for(i = 0; i < c->col_num; i++) {
 332:../../Middlewares/LVGL/GUI/lvgl/src/layouts/grid/lv_grid.c ****         int32_t x = col_templ[i];
 333:../../Middlewares/LVGL/GUI/lvgl/src/layouts/grid/lv_grid.c ****         if(IS_FR(x)) {
 334:../../Middlewares/LVGL/GUI/lvgl/src/layouts/grid/lv_grid.c ****             col_fr_cnt += GET_FR(x);
 335:../../Middlewares/LVGL/GUI/lvgl/src/layouts/grid/lv_grid.c ****         }
 336:../../Middlewares/LVGL/GUI/lvgl/src/layouts/grid/lv_grid.c ****         else if(IS_CONTENT(x)) {
 337:../../Middlewares/LVGL/GUI/lvgl/src/layouts/grid/lv_grid.c ****             grid_w += c->w[i];
 338:../../Middlewares/LVGL/GUI/lvgl/src/layouts/grid/lv_grid.c ****         }
 339:../../Middlewares/LVGL/GUI/lvgl/src/layouts/grid/lv_grid.c ****         else {
 340:../../Middlewares/LVGL/GUI/lvgl/src/layouts/grid/lv_grid.c ****             c->w[i] = x;
 341:../../Middlewares/LVGL/GUI/lvgl/src/layouts/grid/lv_grid.c ****             grid_w += x;
 342:../../Middlewares/LVGL/GUI/lvgl/src/layouts/grid/lv_grid.c ****         }
 343:../../Middlewares/LVGL/GUI/lvgl/src/layouts/grid/lv_grid.c ****     }
 344:../../Middlewares/LVGL/GUI/lvgl/src/layouts/grid/lv_grid.c **** 
 345:../../Middlewares/LVGL/GUI/lvgl/src/layouts/grid/lv_grid.c ****     int32_t col_gap = lv_obj_get_style_pad_column(cont, LV_PART_MAIN);
 346:../../Middlewares/LVGL/GUI/lvgl/src/layouts/grid/lv_grid.c ****     cont_w -= col_gap * (c->col_num - 1);
 347:../../Middlewares/LVGL/GUI/lvgl/src/layouts/grid/lv_grid.c ****     int32_t free_w = cont_w - grid_w;
 348:../../Middlewares/LVGL/GUI/lvgl/src/layouts/grid/lv_grid.c ****     if(free_w < 0) free_w = 0;
 349:../../Middlewares/LVGL/GUI/lvgl/src/layouts/grid/lv_grid.c **** 
 350:../../Middlewares/LVGL/GUI/lvgl/src/layouts/grid/lv_grid.c ****     for(i = 0; i < c->col_num && col_fr_cnt; i++) {
 351:../../Middlewares/LVGL/GUI/lvgl/src/layouts/grid/lv_grid.c ****         int32_t x = col_templ[i];
 352:../../Middlewares/LVGL/GUI/lvgl/src/layouts/grid/lv_grid.c ****         if(IS_FR(x)) {
 353:../../Middlewares/LVGL/GUI/lvgl/src/layouts/grid/lv_grid.c ****             int32_t f = GET_FR(x);
 354:../../Middlewares/LVGL/GUI/lvgl/src/layouts/grid/lv_grid.c ****             c->w[i] = lv_div_round_closest(free_w * f, col_fr_cnt);
 355:../../Middlewares/LVGL/GUI/lvgl/src/layouts/grid/lv_grid.c ****             /*By updating remaining fr and width, we ensure f == col_fr_cnt
 356:../../Middlewares/LVGL/GUI/lvgl/src/layouts/grid/lv_grid.c ****              *in the last loop iteration. That means the last iteration will
 357:../../Middlewares/LVGL/GUI/lvgl/src/layouts/grid/lv_grid.c ****              *not have rounding errors and use all remaining space.*/
 358:../../Middlewares/LVGL/GUI/lvgl/src/layouts/grid/lv_grid.c ****             col_fr_cnt -= f;
 359:../../Middlewares/LVGL/GUI/lvgl/src/layouts/grid/lv_grid.c ****             free_w -= c->w[i];
 360:../../Middlewares/LVGL/GUI/lvgl/src/layouts/grid/lv_grid.c ****         }
 361:../../Middlewares/LVGL/GUI/lvgl/src/layouts/grid/lv_grid.c ****     }
 362:../../Middlewares/LVGL/GUI/lvgl/src/layouts/grid/lv_grid.c **** 
 363:../../Middlewares/LVGL/GUI/lvgl/src/layouts/grid/lv_grid.c ****     if(subgrid) {
 364:../../Middlewares/LVGL/GUI/lvgl/src/layouts/grid/lv_grid.c ****         lv_free((void *)col_templ);
 365:../../Middlewares/LVGL/GUI/lvgl/src/layouts/grid/lv_grid.c ****     }
 366:../../Middlewares/LVGL/GUI/lvgl/src/layouts/grid/lv_grid.c **** }
 367:../../Middlewares/LVGL/GUI/lvgl/src/layouts/grid/lv_grid.c **** 
 368:../../Middlewares/LVGL/GUI/lvgl/src/layouts/grid/lv_grid.c **** static void calc_rows(lv_obj_t * cont, lv_grid_calc_t * c)
 369:../../Middlewares/LVGL/GUI/lvgl/src/layouts/grid/lv_grid.c **** {
 370:../../Middlewares/LVGL/GUI/lvgl/src/layouts/grid/lv_grid.c ****     const int32_t * row_templ;
 371:../../Middlewares/LVGL/GUI/lvgl/src/layouts/grid/lv_grid.c ****     row_templ = get_row_dsc(cont);
 372:../../Middlewares/LVGL/GUI/lvgl/src/layouts/grid/lv_grid.c ****     bool subgrid = false;
 373:../../Middlewares/LVGL/GUI/lvgl/src/layouts/grid/lv_grid.c ****     if(row_templ == NULL) {
ARM GAS  C:\Users\28576\AppData\Local\Temp\ccV3XjXD.s 			page 8


 374:../../Middlewares/LVGL/GUI/lvgl/src/layouts/grid/lv_grid.c ****         lv_obj_t * parent = lv_obj_get_parent(cont);
 375:../../Middlewares/LVGL/GUI/lvgl/src/layouts/grid/lv_grid.c ****         row_templ = get_row_dsc(parent);
 376:../../Middlewares/LVGL/GUI/lvgl/src/layouts/grid/lv_grid.c ****         if(row_templ == NULL) {
 377:../../Middlewares/LVGL/GUI/lvgl/src/layouts/grid/lv_grid.c ****             LV_LOG_WARN("No row descriptor found even on the parent");
 378:../../Middlewares/LVGL/GUI/lvgl/src/layouts/grid/lv_grid.c ****             return;
 379:../../Middlewares/LVGL/GUI/lvgl/src/layouts/grid/lv_grid.c ****         }
 380:../../Middlewares/LVGL/GUI/lvgl/src/layouts/grid/lv_grid.c **** 
 381:../../Middlewares/LVGL/GUI/lvgl/src/layouts/grid/lv_grid.c ****         int32_t pos = get_row_pos(cont);
 382:../../Middlewares/LVGL/GUI/lvgl/src/layouts/grid/lv_grid.c ****         int32_t span = get_row_span(cont);
 383:../../Middlewares/LVGL/GUI/lvgl/src/layouts/grid/lv_grid.c **** 
 384:../../Middlewares/LVGL/GUI/lvgl/src/layouts/grid/lv_grid.c ****         int32_t * row_templ_sub = lv_malloc(sizeof(int32_t) * (span + 1));
 385:../../Middlewares/LVGL/GUI/lvgl/src/layouts/grid/lv_grid.c ****         lv_memcpy(row_templ_sub, &row_templ[pos], sizeof(int32_t) * span);
 386:../../Middlewares/LVGL/GUI/lvgl/src/layouts/grid/lv_grid.c ****         row_templ_sub[span] = LV_GRID_TEMPLATE_LAST;
 387:../../Middlewares/LVGL/GUI/lvgl/src/layouts/grid/lv_grid.c ****         row_templ = row_templ_sub;
 388:../../Middlewares/LVGL/GUI/lvgl/src/layouts/grid/lv_grid.c ****         subgrid = true;
 389:../../Middlewares/LVGL/GUI/lvgl/src/layouts/grid/lv_grid.c ****     }
 390:../../Middlewares/LVGL/GUI/lvgl/src/layouts/grid/lv_grid.c **** 
 391:../../Middlewares/LVGL/GUI/lvgl/src/layouts/grid/lv_grid.c ****     c->row_num = count_tracks(row_templ);
 392:../../Middlewares/LVGL/GUI/lvgl/src/layouts/grid/lv_grid.c ****     c->y = lv_malloc(sizeof(int32_t) * c->row_num);
 393:../../Middlewares/LVGL/GUI/lvgl/src/layouts/grid/lv_grid.c ****     c->h = lv_malloc(sizeof(int32_t) * c->row_num);
 394:../../Middlewares/LVGL/GUI/lvgl/src/layouts/grid/lv_grid.c ****     /*Set sizes for CONTENT cells*/
 395:../../Middlewares/LVGL/GUI/lvgl/src/layouts/grid/lv_grid.c ****     uint32_t i;
 396:../../Middlewares/LVGL/GUI/lvgl/src/layouts/grid/lv_grid.c ****     for(i = 0; i < c->row_num; i++) {
 397:../../Middlewares/LVGL/GUI/lvgl/src/layouts/grid/lv_grid.c ****         int32_t size = LV_COORD_MIN;
 398:../../Middlewares/LVGL/GUI/lvgl/src/layouts/grid/lv_grid.c ****         if(IS_CONTENT(row_templ[i])) {
 399:../../Middlewares/LVGL/GUI/lvgl/src/layouts/grid/lv_grid.c ****             /*Check the size of children of this cell*/
 400:../../Middlewares/LVGL/GUI/lvgl/src/layouts/grid/lv_grid.c ****             uint32_t ci;
 401:../../Middlewares/LVGL/GUI/lvgl/src/layouts/grid/lv_grid.c ****             for(ci = 0; ci < lv_obj_get_child_count(cont); ci++) {
 402:../../Middlewares/LVGL/GUI/lvgl/src/layouts/grid/lv_grid.c ****                 lv_obj_t * item = lv_obj_get_child(cont, ci);
 403:../../Middlewares/LVGL/GUI/lvgl/src/layouts/grid/lv_grid.c ****                 if(lv_obj_has_flag_any(item, LV_OBJ_FLAG_IGNORE_LAYOUT | LV_OBJ_FLAG_HIDDEN | LV_OB
 404:../../Middlewares/LVGL/GUI/lvgl/src/layouts/grid/lv_grid.c ****                 uint32_t row_span = get_row_span(item);
 405:../../Middlewares/LVGL/GUI/lvgl/src/layouts/grid/lv_grid.c ****                 if(row_span != 1) continue;
 406:../../Middlewares/LVGL/GUI/lvgl/src/layouts/grid/lv_grid.c **** 
 407:../../Middlewares/LVGL/GUI/lvgl/src/layouts/grid/lv_grid.c ****                 uint32_t row_pos = get_row_pos(item);
 408:../../Middlewares/LVGL/GUI/lvgl/src/layouts/grid/lv_grid.c ****                 if(row_pos != i) continue;
 409:../../Middlewares/LVGL/GUI/lvgl/src/layouts/grid/lv_grid.c **** 
 410:../../Middlewares/LVGL/GUI/lvgl/src/layouts/grid/lv_grid.c ****                 size = LV_MAX(size, lv_obj_get_height(item));
 411:../../Middlewares/LVGL/GUI/lvgl/src/layouts/grid/lv_grid.c ****             }
 412:../../Middlewares/LVGL/GUI/lvgl/src/layouts/grid/lv_grid.c ****             if(size >= 0) c->h[i] = size;
 413:../../Middlewares/LVGL/GUI/lvgl/src/layouts/grid/lv_grid.c ****             else c->h[i] = 0;
 414:../../Middlewares/LVGL/GUI/lvgl/src/layouts/grid/lv_grid.c ****         }
 415:../../Middlewares/LVGL/GUI/lvgl/src/layouts/grid/lv_grid.c ****     }
 416:../../Middlewares/LVGL/GUI/lvgl/src/layouts/grid/lv_grid.c **** 
 417:../../Middlewares/LVGL/GUI/lvgl/src/layouts/grid/lv_grid.c ****     uint32_t row_fr_cnt = 0;
 418:../../Middlewares/LVGL/GUI/lvgl/src/layouts/grid/lv_grid.c ****     int32_t grid_h = 0;
 419:../../Middlewares/LVGL/GUI/lvgl/src/layouts/grid/lv_grid.c **** 
 420:../../Middlewares/LVGL/GUI/lvgl/src/layouts/grid/lv_grid.c ****     for(i = 0; i < c->row_num; i++) {
 421:../../Middlewares/LVGL/GUI/lvgl/src/layouts/grid/lv_grid.c ****         int32_t x = row_templ[i];
 422:../../Middlewares/LVGL/GUI/lvgl/src/layouts/grid/lv_grid.c ****         if(IS_FR(x)) {
 423:../../Middlewares/LVGL/GUI/lvgl/src/layouts/grid/lv_grid.c ****             row_fr_cnt += GET_FR(x);
 424:../../Middlewares/LVGL/GUI/lvgl/src/layouts/grid/lv_grid.c ****         }
 425:../../Middlewares/LVGL/GUI/lvgl/src/layouts/grid/lv_grid.c ****         else if(IS_CONTENT(x)) {
 426:../../Middlewares/LVGL/GUI/lvgl/src/layouts/grid/lv_grid.c ****             grid_h += c->h[i];
 427:../../Middlewares/LVGL/GUI/lvgl/src/layouts/grid/lv_grid.c ****         }
 428:../../Middlewares/LVGL/GUI/lvgl/src/layouts/grid/lv_grid.c ****         else {
 429:../../Middlewares/LVGL/GUI/lvgl/src/layouts/grid/lv_grid.c ****             c->h[i] = x;
 430:../../Middlewares/LVGL/GUI/lvgl/src/layouts/grid/lv_grid.c ****             grid_h += x;
ARM GAS  C:\Users\28576\AppData\Local\Temp\ccV3XjXD.s 			page 9


 431:../../Middlewares/LVGL/GUI/lvgl/src/layouts/grid/lv_grid.c ****         }
 432:../../Middlewares/LVGL/GUI/lvgl/src/layouts/grid/lv_grid.c ****     }
 433:../../Middlewares/LVGL/GUI/lvgl/src/layouts/grid/lv_grid.c **** 
 434:../../Middlewares/LVGL/GUI/lvgl/src/layouts/grid/lv_grid.c ****     int32_t row_gap = lv_obj_get_style_pad_row(cont, LV_PART_MAIN);
 435:../../Middlewares/LVGL/GUI/lvgl/src/layouts/grid/lv_grid.c ****     int32_t cont_h = lv_obj_get_content_height(cont) - row_gap * (c->row_num - 1);
 436:../../Middlewares/LVGL/GUI/lvgl/src/layouts/grid/lv_grid.c ****     int32_t free_h = cont_h - grid_h;
 437:../../Middlewares/LVGL/GUI/lvgl/src/layouts/grid/lv_grid.c ****     if(free_h < 0) free_h = 0;
 438:../../Middlewares/LVGL/GUI/lvgl/src/layouts/grid/lv_grid.c **** 
 439:../../Middlewares/LVGL/GUI/lvgl/src/layouts/grid/lv_grid.c ****     for(i = 0; i < c->row_num && row_fr_cnt; i++) {
 440:../../Middlewares/LVGL/GUI/lvgl/src/layouts/grid/lv_grid.c ****         int32_t x = row_templ[i];
 441:../../Middlewares/LVGL/GUI/lvgl/src/layouts/grid/lv_grid.c ****         if(IS_FR(x)) {
 442:../../Middlewares/LVGL/GUI/lvgl/src/layouts/grid/lv_grid.c ****             int32_t f = GET_FR(x);
 443:../../Middlewares/LVGL/GUI/lvgl/src/layouts/grid/lv_grid.c ****             c->h[i] = lv_div_round_closest(free_h * f, row_fr_cnt);
 444:../../Middlewares/LVGL/GUI/lvgl/src/layouts/grid/lv_grid.c ****             /*By updating remaining fr and height, we ensure f == row_fr_cnt
 445:../../Middlewares/LVGL/GUI/lvgl/src/layouts/grid/lv_grid.c ****              *in the last loop iteration. That means the last iteration will
 446:../../Middlewares/LVGL/GUI/lvgl/src/layouts/grid/lv_grid.c ****              *not have rounding errors and use all remaining space.*/
 447:../../Middlewares/LVGL/GUI/lvgl/src/layouts/grid/lv_grid.c ****             row_fr_cnt -= f;
 448:../../Middlewares/LVGL/GUI/lvgl/src/layouts/grid/lv_grid.c ****             free_h -= c->h[i];
 449:../../Middlewares/LVGL/GUI/lvgl/src/layouts/grid/lv_grid.c ****         }
 450:../../Middlewares/LVGL/GUI/lvgl/src/layouts/grid/lv_grid.c ****     }
 451:../../Middlewares/LVGL/GUI/lvgl/src/layouts/grid/lv_grid.c **** 
 452:../../Middlewares/LVGL/GUI/lvgl/src/layouts/grid/lv_grid.c ****     if(subgrid) {
 453:../../Middlewares/LVGL/GUI/lvgl/src/layouts/grid/lv_grid.c ****         lv_free((void *)row_templ);
 454:../../Middlewares/LVGL/GUI/lvgl/src/layouts/grid/lv_grid.c ****     }
 455:../../Middlewares/LVGL/GUI/lvgl/src/layouts/grid/lv_grid.c **** }
 456:../../Middlewares/LVGL/GUI/lvgl/src/layouts/grid/lv_grid.c **** 
 457:../../Middlewares/LVGL/GUI/lvgl/src/layouts/grid/lv_grid.c **** /**
 458:../../Middlewares/LVGL/GUI/lvgl/src/layouts/grid/lv_grid.c ****  * Reposition a grid item in its cell
 459:../../Middlewares/LVGL/GUI/lvgl/src/layouts/grid/lv_grid.c ****  * @param item a grid item to reposition
 460:../../Middlewares/LVGL/GUI/lvgl/src/layouts/grid/lv_grid.c ****  * @param calc the calculated grid of `cont`
 461:../../Middlewares/LVGL/GUI/lvgl/src/layouts/grid/lv_grid.c ****  * @param child_id_ext helper value if the ID of the child is know (order from the oldest) else -1
 462:../../Middlewares/LVGL/GUI/lvgl/src/layouts/grid/lv_grid.c ****  * @param grid_abs helper value, the absolute position of the grid, NULL if unknown
 463:../../Middlewares/LVGL/GUI/lvgl/src/layouts/grid/lv_grid.c ****  */
 464:../../Middlewares/LVGL/GUI/lvgl/src/layouts/grid/lv_grid.c **** static void item_repos(lv_obj_t * item, lv_grid_calc_t * c, item_repos_hint_t * hint)
 465:../../Middlewares/LVGL/GUI/lvgl/src/layouts/grid/lv_grid.c **** {
 466:../../Middlewares/LVGL/GUI/lvgl/src/layouts/grid/lv_grid.c ****     if(lv_obj_has_flag_any(item, LV_OBJ_FLAG_IGNORE_LAYOUT | LV_OBJ_FLAG_HIDDEN | LV_OBJ_FLAG_FLOAT
 467:../../Middlewares/LVGL/GUI/lvgl/src/layouts/grid/lv_grid.c ****     uint32_t col_span = get_col_span(item);
 468:../../Middlewares/LVGL/GUI/lvgl/src/layouts/grid/lv_grid.c ****     uint32_t row_span = get_row_span(item);
 469:../../Middlewares/LVGL/GUI/lvgl/src/layouts/grid/lv_grid.c ****     if(row_span == 0 || col_span == 0) return;
 470:../../Middlewares/LVGL/GUI/lvgl/src/layouts/grid/lv_grid.c **** 
 471:../../Middlewares/LVGL/GUI/lvgl/src/layouts/grid/lv_grid.c ****     uint32_t col_pos = get_col_pos(item);
 472:../../Middlewares/LVGL/GUI/lvgl/src/layouts/grid/lv_grid.c ****     uint32_t row_pos = get_row_pos(item);
 473:../../Middlewares/LVGL/GUI/lvgl/src/layouts/grid/lv_grid.c ****     lv_grid_align_t col_align = get_cell_col_align(item);
 474:../../Middlewares/LVGL/GUI/lvgl/src/layouts/grid/lv_grid.c ****     lv_grid_align_t row_align = get_cell_row_align(item);
 475:../../Middlewares/LVGL/GUI/lvgl/src/layouts/grid/lv_grid.c **** 
 476:../../Middlewares/LVGL/GUI/lvgl/src/layouts/grid/lv_grid.c ****     int32_t col_x1 = c->x[col_pos];
 477:../../Middlewares/LVGL/GUI/lvgl/src/layouts/grid/lv_grid.c ****     int32_t col_x2 = c->x[col_pos + col_span - 1] + c->w[col_pos + col_span - 1];
 478:../../Middlewares/LVGL/GUI/lvgl/src/layouts/grid/lv_grid.c ****     int32_t col_w = col_x2 - col_x1;
 479:../../Middlewares/LVGL/GUI/lvgl/src/layouts/grid/lv_grid.c **** 
 480:../../Middlewares/LVGL/GUI/lvgl/src/layouts/grid/lv_grid.c ****     int32_t row_y1 = c->y[row_pos];
 481:../../Middlewares/LVGL/GUI/lvgl/src/layouts/grid/lv_grid.c ****     int32_t row_y2 = c->y[row_pos + row_span - 1] + c->h[row_pos + row_span - 1];
 482:../../Middlewares/LVGL/GUI/lvgl/src/layouts/grid/lv_grid.c ****     int32_t row_h = row_y2 - row_y1;
 483:../../Middlewares/LVGL/GUI/lvgl/src/layouts/grid/lv_grid.c **** 
 484:../../Middlewares/LVGL/GUI/lvgl/src/layouts/grid/lv_grid.c ****     /*If the item has RTL base dir switch start and end*/
 485:../../Middlewares/LVGL/GUI/lvgl/src/layouts/grid/lv_grid.c ****     if(lv_obj_get_style_base_dir(item, LV_PART_MAIN) == LV_BASE_DIR_RTL) {
 486:../../Middlewares/LVGL/GUI/lvgl/src/layouts/grid/lv_grid.c ****         if(col_align == LV_GRID_ALIGN_START) col_align = LV_GRID_ALIGN_END;
 487:../../Middlewares/LVGL/GUI/lvgl/src/layouts/grid/lv_grid.c ****         else if(col_align == LV_GRID_ALIGN_END) col_align = LV_GRID_ALIGN_START;
ARM GAS  C:\Users\28576\AppData\Local\Temp\ccV3XjXD.s 			page 10


 488:../../Middlewares/LVGL/GUI/lvgl/src/layouts/grid/lv_grid.c ****     }
 489:../../Middlewares/LVGL/GUI/lvgl/src/layouts/grid/lv_grid.c **** 
 490:../../Middlewares/LVGL/GUI/lvgl/src/layouts/grid/lv_grid.c ****     int32_t x;
 491:../../Middlewares/LVGL/GUI/lvgl/src/layouts/grid/lv_grid.c ****     int32_t y;
 492:../../Middlewares/LVGL/GUI/lvgl/src/layouts/grid/lv_grid.c ****     int32_t item_w = lv_area_get_width(&item->coords);
 493:../../Middlewares/LVGL/GUI/lvgl/src/layouts/grid/lv_grid.c ****     int32_t item_h = lv_area_get_height(&item->coords);
 494:../../Middlewares/LVGL/GUI/lvgl/src/layouts/grid/lv_grid.c **** 
 495:../../Middlewares/LVGL/GUI/lvgl/src/layouts/grid/lv_grid.c ****     switch(col_align) {
 496:../../Middlewares/LVGL/GUI/lvgl/src/layouts/grid/lv_grid.c ****         default:
 497:../../Middlewares/LVGL/GUI/lvgl/src/layouts/grid/lv_grid.c ****         case LV_GRID_ALIGN_START:
 498:../../Middlewares/LVGL/GUI/lvgl/src/layouts/grid/lv_grid.c ****             x = c->x[col_pos] + lv_obj_get_style_margin_left(item, LV_PART_MAIN);
 499:../../Middlewares/LVGL/GUI/lvgl/src/layouts/grid/lv_grid.c ****             item->w_layout = 0;
 500:../../Middlewares/LVGL/GUI/lvgl/src/layouts/grid/lv_grid.c ****             break;
 501:../../Middlewares/LVGL/GUI/lvgl/src/layouts/grid/lv_grid.c ****         case LV_GRID_ALIGN_STRETCH:
 502:../../Middlewares/LVGL/GUI/lvgl/src/layouts/grid/lv_grid.c ****             x = c->x[col_pos] + lv_obj_get_style_margin_left(item, LV_PART_MAIN);
 503:../../Middlewares/LVGL/GUI/lvgl/src/layouts/grid/lv_grid.c ****             item_w = col_w - get_margin_hor(item);
 504:../../Middlewares/LVGL/GUI/lvgl/src/layouts/grid/lv_grid.c ****             item->w_layout = 1;
 505:../../Middlewares/LVGL/GUI/lvgl/src/layouts/grid/lv_grid.c ****             break;
 506:../../Middlewares/LVGL/GUI/lvgl/src/layouts/grid/lv_grid.c ****         case LV_GRID_ALIGN_CENTER:
 507:../../Middlewares/LVGL/GUI/lvgl/src/layouts/grid/lv_grid.c ****             x = c->x[col_pos] + (col_w - item_w) / 2 + (lv_obj_get_style_margin_left(item, LV_PART_
 508:../../Middlewares/LVGL/GUI/lvgl/src/layouts/grid/lv_grid.c ****                                                         lv_obj_get_style_margin_right(item, LV_PART
 509:../../Middlewares/LVGL/GUI/lvgl/src/layouts/grid/lv_grid.c ****             item->w_layout = 0;
 510:../../Middlewares/LVGL/GUI/lvgl/src/layouts/grid/lv_grid.c ****             break;
 511:../../Middlewares/LVGL/GUI/lvgl/src/layouts/grid/lv_grid.c ****         case LV_GRID_ALIGN_END:
 512:../../Middlewares/LVGL/GUI/lvgl/src/layouts/grid/lv_grid.c ****             x = c->x[col_pos] + col_w - lv_obj_get_width(item) - lv_obj_get_style_margin_right(item
 513:../../Middlewares/LVGL/GUI/lvgl/src/layouts/grid/lv_grid.c ****             item->w_layout = 0;
 514:../../Middlewares/LVGL/GUI/lvgl/src/layouts/grid/lv_grid.c ****             break;
 515:../../Middlewares/LVGL/GUI/lvgl/src/layouts/grid/lv_grid.c ****     }
 516:../../Middlewares/LVGL/GUI/lvgl/src/layouts/grid/lv_grid.c **** 
 517:../../Middlewares/LVGL/GUI/lvgl/src/layouts/grid/lv_grid.c ****     switch(row_align) {
 518:../../Middlewares/LVGL/GUI/lvgl/src/layouts/grid/lv_grid.c ****         default:
 519:../../Middlewares/LVGL/GUI/lvgl/src/layouts/grid/lv_grid.c ****         case LV_GRID_ALIGN_START:
 520:../../Middlewares/LVGL/GUI/lvgl/src/layouts/grid/lv_grid.c ****             y = c->y[row_pos] + lv_obj_get_style_margin_top(item, LV_PART_MAIN);
 521:../../Middlewares/LVGL/GUI/lvgl/src/layouts/grid/lv_grid.c ****             item->h_layout = 0;
 522:../../Middlewares/LVGL/GUI/lvgl/src/layouts/grid/lv_grid.c ****             break;
 523:../../Middlewares/LVGL/GUI/lvgl/src/layouts/grid/lv_grid.c ****         case LV_GRID_ALIGN_STRETCH:
 524:../../Middlewares/LVGL/GUI/lvgl/src/layouts/grid/lv_grid.c ****             y = c->y[row_pos] + lv_obj_get_style_margin_top(item, LV_PART_MAIN);
 525:../../Middlewares/LVGL/GUI/lvgl/src/layouts/grid/lv_grid.c ****             item_h = row_h - get_margin_ver(item);
 526:../../Middlewares/LVGL/GUI/lvgl/src/layouts/grid/lv_grid.c ****             item->h_layout = 1;
 527:../../Middlewares/LVGL/GUI/lvgl/src/layouts/grid/lv_grid.c ****             break;
 528:../../Middlewares/LVGL/GUI/lvgl/src/layouts/grid/lv_grid.c ****         case LV_GRID_ALIGN_CENTER:
 529:../../Middlewares/LVGL/GUI/lvgl/src/layouts/grid/lv_grid.c ****             y = c->y[row_pos] + (row_h - item_h) / 2 + (lv_obj_get_style_margin_top(item, LV_PART_M
 530:../../Middlewares/LVGL/GUI/lvgl/src/layouts/grid/lv_grid.c ****                                                         lv_obj_get_style_margin_bottom(item, LV_PAR
 531:../../Middlewares/LVGL/GUI/lvgl/src/layouts/grid/lv_grid.c ****             item->h_layout = 0;
 532:../../Middlewares/LVGL/GUI/lvgl/src/layouts/grid/lv_grid.c ****             break;
 533:../../Middlewares/LVGL/GUI/lvgl/src/layouts/grid/lv_grid.c ****         case LV_GRID_ALIGN_END:
 534:../../Middlewares/LVGL/GUI/lvgl/src/layouts/grid/lv_grid.c ****             y = c->y[row_pos] + row_h - lv_obj_get_height(item) - lv_obj_get_style_margin_bottom(it
 535:../../Middlewares/LVGL/GUI/lvgl/src/layouts/grid/lv_grid.c ****             item->h_layout = 0;
 536:../../Middlewares/LVGL/GUI/lvgl/src/layouts/grid/lv_grid.c ****             break;
 537:../../Middlewares/LVGL/GUI/lvgl/src/layouts/grid/lv_grid.c ****     }
 538:../../Middlewares/LVGL/GUI/lvgl/src/layouts/grid/lv_grid.c **** 
 539:../../Middlewares/LVGL/GUI/lvgl/src/layouts/grid/lv_grid.c ****     /*Set a new size if required*/
 540:../../Middlewares/LVGL/GUI/lvgl/src/layouts/grid/lv_grid.c ****     if(lv_obj_get_width(item) != item_w || lv_obj_get_height(item) != item_h) {
 541:../../Middlewares/LVGL/GUI/lvgl/src/layouts/grid/lv_grid.c ****         lv_area_t old_coords;
 542:../../Middlewares/LVGL/GUI/lvgl/src/layouts/grid/lv_grid.c ****         lv_area_copy(&old_coords, &item->coords);
 543:../../Middlewares/LVGL/GUI/lvgl/src/layouts/grid/lv_grid.c ****         lv_obj_invalidate(item);
 544:../../Middlewares/LVGL/GUI/lvgl/src/layouts/grid/lv_grid.c ****         lv_area_set_width(&item->coords, item_w);
ARM GAS  C:\Users\28576\AppData\Local\Temp\ccV3XjXD.s 			page 11


 545:../../Middlewares/LVGL/GUI/lvgl/src/layouts/grid/lv_grid.c ****         lv_area_set_height(&item->coords, item_h);
 546:../../Middlewares/LVGL/GUI/lvgl/src/layouts/grid/lv_grid.c ****         lv_obj_invalidate(item);
 547:../../Middlewares/LVGL/GUI/lvgl/src/layouts/grid/lv_grid.c ****         lv_obj_send_event(item, LV_EVENT_SIZE_CHANGED, &old_coords);
 548:../../Middlewares/LVGL/GUI/lvgl/src/layouts/grid/lv_grid.c ****         lv_obj_send_event(lv_obj_get_parent(item), LV_EVENT_CHILD_CHANGED, item);
 549:../../Middlewares/LVGL/GUI/lvgl/src/layouts/grid/lv_grid.c **** 
 550:../../Middlewares/LVGL/GUI/lvgl/src/layouts/grid/lv_grid.c ****     }
 551:../../Middlewares/LVGL/GUI/lvgl/src/layouts/grid/lv_grid.c **** 
 552:../../Middlewares/LVGL/GUI/lvgl/src/layouts/grid/lv_grid.c ****     /*Handle percentage value of translate*/
 553:../../Middlewares/LVGL/GUI/lvgl/src/layouts/grid/lv_grid.c ****     int32_t tr_x = lv_obj_get_style_translate_x(item, LV_PART_MAIN);
 554:../../Middlewares/LVGL/GUI/lvgl/src/layouts/grid/lv_grid.c ****     int32_t tr_y = lv_obj_get_style_translate_y(item, LV_PART_MAIN);
 555:../../Middlewares/LVGL/GUI/lvgl/src/layouts/grid/lv_grid.c ****     int32_t w = lv_obj_get_width(item);
 556:../../Middlewares/LVGL/GUI/lvgl/src/layouts/grid/lv_grid.c ****     int32_t h = lv_obj_get_height(item);
 557:../../Middlewares/LVGL/GUI/lvgl/src/layouts/grid/lv_grid.c ****     if(LV_COORD_IS_PCT(tr_x)) tr_x = (w * LV_COORD_GET_PCT(tr_x)) / 100;
 558:../../Middlewares/LVGL/GUI/lvgl/src/layouts/grid/lv_grid.c ****     if(LV_COORD_IS_PCT(tr_y)) tr_y = (h * LV_COORD_GET_PCT(tr_y)) / 100;
 559:../../Middlewares/LVGL/GUI/lvgl/src/layouts/grid/lv_grid.c **** 
 560:../../Middlewares/LVGL/GUI/lvgl/src/layouts/grid/lv_grid.c ****     x += tr_x;
 561:../../Middlewares/LVGL/GUI/lvgl/src/layouts/grid/lv_grid.c ****     y += tr_y;
 562:../../Middlewares/LVGL/GUI/lvgl/src/layouts/grid/lv_grid.c **** 
 563:../../Middlewares/LVGL/GUI/lvgl/src/layouts/grid/lv_grid.c ****     int32_t diff_x = hint->grid_abs.x + x - item->coords.x1;
 564:../../Middlewares/LVGL/GUI/lvgl/src/layouts/grid/lv_grid.c ****     int32_t diff_y = hint->grid_abs.y + y - item->coords.y1;
 565:../../Middlewares/LVGL/GUI/lvgl/src/layouts/grid/lv_grid.c ****     if(diff_x || diff_y) {
 566:../../Middlewares/LVGL/GUI/lvgl/src/layouts/grid/lv_grid.c ****         lv_obj_invalidate(item);
 567:../../Middlewares/LVGL/GUI/lvgl/src/layouts/grid/lv_grid.c ****         item->coords.x1 += diff_x;
 568:../../Middlewares/LVGL/GUI/lvgl/src/layouts/grid/lv_grid.c ****         item->coords.x2 += diff_x;
 569:../../Middlewares/LVGL/GUI/lvgl/src/layouts/grid/lv_grid.c ****         item->coords.y1 += diff_y;
 570:../../Middlewares/LVGL/GUI/lvgl/src/layouts/grid/lv_grid.c ****         item->coords.y2 += diff_y;
 571:../../Middlewares/LVGL/GUI/lvgl/src/layouts/grid/lv_grid.c ****         lv_obj_invalidate(item);
 572:../../Middlewares/LVGL/GUI/lvgl/src/layouts/grid/lv_grid.c ****         lv_obj_move_children_by(item, diff_x, diff_y, false);
 573:../../Middlewares/LVGL/GUI/lvgl/src/layouts/grid/lv_grid.c ****     }
 574:../../Middlewares/LVGL/GUI/lvgl/src/layouts/grid/lv_grid.c **** }
 575:../../Middlewares/LVGL/GUI/lvgl/src/layouts/grid/lv_grid.c **** 
 576:../../Middlewares/LVGL/GUI/lvgl/src/layouts/grid/lv_grid.c **** /**
 577:../../Middlewares/LVGL/GUI/lvgl/src/layouts/grid/lv_grid.c ****  * Place the grid track according to align methods. It keeps the track sizes but sets their positio
 578:../../Middlewares/LVGL/GUI/lvgl/src/layouts/grid/lv_grid.c ****  * It can process both columns or rows according to the passed parameters.
 579:../../Middlewares/LVGL/GUI/lvgl/src/layouts/grid/lv_grid.c ****  * @param cont_size size of the containers content area (width/height)
 580:../../Middlewares/LVGL/GUI/lvgl/src/layouts/grid/lv_grid.c ****  * @param auto_size true: the container has auto size in the current direction
 581:../../Middlewares/LVGL/GUI/lvgl/src/layouts/grid/lv_grid.c ****  * @param align align method
 582:../../Middlewares/LVGL/GUI/lvgl/src/layouts/grid/lv_grid.c ****  * @param gap grid gap
 583:../../Middlewares/LVGL/GUI/lvgl/src/layouts/grid/lv_grid.c ****  * @param track_num number of tracks
 584:../../Middlewares/LVGL/GUI/lvgl/src/layouts/grid/lv_grid.c ****  * @param size_array array with the track sizes
 585:../../Middlewares/LVGL/GUI/lvgl/src/layouts/grid/lv_grid.c ****  * @param pos_array write the positions of the tracks here
 586:../../Middlewares/LVGL/GUI/lvgl/src/layouts/grid/lv_grid.c ****  * @return the total size of the grid
 587:../../Middlewares/LVGL/GUI/lvgl/src/layouts/grid/lv_grid.c ****  */
 588:../../Middlewares/LVGL/GUI/lvgl/src/layouts/grid/lv_grid.c **** static int32_t grid_align(int32_t cont_size,  bool auto_size, lv_grid_align_t align, int32_t gap,
 589:../../Middlewares/LVGL/GUI/lvgl/src/layouts/grid/lv_grid.c ****                           uint32_t track_num,
 590:../../Middlewares/LVGL/GUI/lvgl/src/layouts/grid/lv_grid.c ****                           int32_t * size_array, int32_t * pos_array, bool reverse)
 591:../../Middlewares/LVGL/GUI/lvgl/src/layouts/grid/lv_grid.c **** {
  28              		.loc 1 591 1 view -0
  29              		.cfi_startproc
  30              		@ args = 16, pretend = 0, frame = 0
  31              		@ frame_needed = 0, uses_anonymous_args = 0
  32              		.loc 1 591 1 is_stmt 0 view .LVU1
  33 0000 F0B5     		push	{r4, r5, r6, r7, lr}
  34              	.LCFI0:
  35              		.cfi_def_cfa_offset 20
  36              		.cfi_offset 4, -20
  37              		.cfi_offset 5, -16
ARM GAS  C:\Users\28576\AppData\Local\Temp\ccV3XjXD.s 			page 12


  38              		.cfi_offset 6, -12
  39              		.cfi_offset 7, -8
  40              		.cfi_offset 14, -4
  41 0002 8646     		mov	lr, r0
  42 0004 1C46     		mov	r4, r3
  43 0006 DDF814C0 		ldr	ip, [sp, #20]
  44 000a 0698     		ldr	r0, [sp, #24]
  45              	.LVL1:
  46              		.loc 1 591 1 view .LVU2
  47 000c 079B     		ldr	r3, [sp, #28]
  48              	.LVL2:
  49              		.loc 1 591 1 view .LVU3
  50 000e 9DF82050 		ldrb	r5, [sp, #32]	@ zero_extendqisi2
 592:../../Middlewares/LVGL/GUI/lvgl/src/layouts/grid/lv_grid.c ****     int32_t grid_size = 0;
  51              		.loc 1 592 5 is_stmt 1 view .LVU4
  52              	.LVL3:
 593:../../Middlewares/LVGL/GUI/lvgl/src/layouts/grid/lv_grid.c ****     uint32_t i;
  53              		.loc 1 593 5 view .LVU5
 594:../../Middlewares/LVGL/GUI/lvgl/src/layouts/grid/lv_grid.c **** 
 595:../../Middlewares/LVGL/GUI/lvgl/src/layouts/grid/lv_grid.c ****     if(auto_size) {
  54              		.loc 1 595 5 view .LVU6
  55              		.loc 1 595 7 is_stmt 0 view .LVU7
  56 0012 81B1     		cbz	r1, .L2
 596:../../Middlewares/LVGL/GUI/lvgl/src/layouts/grid/lv_grid.c ****         pos_array[0] = 0;
  57              		.loc 1 596 9 is_stmt 1 view .LVU8
  58              		.loc 1 596 22 is_stmt 0 view .LVU9
  59 0014 0022     		movs	r2, #0
  60              	.LVL4:
  61              		.loc 1 596 22 view .LVU10
  62 0016 1A60     		str	r2, [r3]
  63              	.LVL5:
  64              	.L3:
 597:../../Middlewares/LVGL/GUI/lvgl/src/layouts/grid/lv_grid.c ****     }
 598:../../Middlewares/LVGL/GUI/lvgl/src/layouts/grid/lv_grid.c ****     else {
 599:../../Middlewares/LVGL/GUI/lvgl/src/layouts/grid/lv_grid.c ****         /*With spaced alignment gap will be calculated from the remaining space*/
 600:../../Middlewares/LVGL/GUI/lvgl/src/layouts/grid/lv_grid.c ****         if(align == LV_GRID_ALIGN_SPACE_AROUND || align == LV_GRID_ALIGN_SPACE_BETWEEN || align == 
 601:../../Middlewares/LVGL/GUI/lvgl/src/layouts/grid/lv_grid.c ****             gap = 0;
 602:../../Middlewares/LVGL/GUI/lvgl/src/layouts/grid/lv_grid.c ****             if(track_num == 1) align = LV_GRID_ALIGN_CENTER;
 603:../../Middlewares/LVGL/GUI/lvgl/src/layouts/grid/lv_grid.c ****         }
 604:../../Middlewares/LVGL/GUI/lvgl/src/layouts/grid/lv_grid.c **** 
 605:../../Middlewares/LVGL/GUI/lvgl/src/layouts/grid/lv_grid.c ****         /*Get the full grid size with gap*/
 606:../../Middlewares/LVGL/GUI/lvgl/src/layouts/grid/lv_grid.c ****         for(i = 0; i < track_num; i++) {
 607:../../Middlewares/LVGL/GUI/lvgl/src/layouts/grid/lv_grid.c ****             grid_size += size_array[i] + gap;
 608:../../Middlewares/LVGL/GUI/lvgl/src/layouts/grid/lv_grid.c ****         }
 609:../../Middlewares/LVGL/GUI/lvgl/src/layouts/grid/lv_grid.c ****         grid_size -= gap;
 610:../../Middlewares/LVGL/GUI/lvgl/src/layouts/grid/lv_grid.c **** 
 611:../../Middlewares/LVGL/GUI/lvgl/src/layouts/grid/lv_grid.c ****         /*Calculate the position of the first item and set gap is necessary*/
 612:../../Middlewares/LVGL/GUI/lvgl/src/layouts/grid/lv_grid.c ****         switch(align) {
 613:../../Middlewares/LVGL/GUI/lvgl/src/layouts/grid/lv_grid.c ****             case LV_GRID_ALIGN_START:
 614:../../Middlewares/LVGL/GUI/lvgl/src/layouts/grid/lv_grid.c ****                 pos_array[0] = 0;
 615:../../Middlewares/LVGL/GUI/lvgl/src/layouts/grid/lv_grid.c ****                 break;
 616:../../Middlewares/LVGL/GUI/lvgl/src/layouts/grid/lv_grid.c ****             case LV_GRID_ALIGN_CENTER:
 617:../../Middlewares/LVGL/GUI/lvgl/src/layouts/grid/lv_grid.c ****                 pos_array[0] = (cont_size - grid_size) / 2;
 618:../../Middlewares/LVGL/GUI/lvgl/src/layouts/grid/lv_grid.c ****                 break;
 619:../../Middlewares/LVGL/GUI/lvgl/src/layouts/grid/lv_grid.c ****             case LV_GRID_ALIGN_END:
 620:../../Middlewares/LVGL/GUI/lvgl/src/layouts/grid/lv_grid.c ****                 pos_array[0] = cont_size - grid_size;
 621:../../Middlewares/LVGL/GUI/lvgl/src/layouts/grid/lv_grid.c ****                 break;
ARM GAS  C:\Users\28576\AppData\Local\Temp\ccV3XjXD.s 			page 13


 622:../../Middlewares/LVGL/GUI/lvgl/src/layouts/grid/lv_grid.c ****             case LV_GRID_ALIGN_SPACE_BETWEEN:
 623:../../Middlewares/LVGL/GUI/lvgl/src/layouts/grid/lv_grid.c ****                 pos_array[0] = 0;
 624:../../Middlewares/LVGL/GUI/lvgl/src/layouts/grid/lv_grid.c ****                 gap = (int32_t)(cont_size - grid_size) / (int32_t)(track_num - 1);
 625:../../Middlewares/LVGL/GUI/lvgl/src/layouts/grid/lv_grid.c ****                 break;
 626:../../Middlewares/LVGL/GUI/lvgl/src/layouts/grid/lv_grid.c ****             case LV_GRID_ALIGN_SPACE_AROUND:
 627:../../Middlewares/LVGL/GUI/lvgl/src/layouts/grid/lv_grid.c ****                 gap = (int32_t)(cont_size - grid_size) / (int32_t)(track_num);
 628:../../Middlewares/LVGL/GUI/lvgl/src/layouts/grid/lv_grid.c ****                 pos_array[0] = gap / 2;
 629:../../Middlewares/LVGL/GUI/lvgl/src/layouts/grid/lv_grid.c ****                 break;
 630:../../Middlewares/LVGL/GUI/lvgl/src/layouts/grid/lv_grid.c ****             case LV_GRID_ALIGN_SPACE_EVENLY:
 631:../../Middlewares/LVGL/GUI/lvgl/src/layouts/grid/lv_grid.c ****                 gap = (int32_t)(cont_size - grid_size) / (int32_t)(track_num + 1);
 632:../../Middlewares/LVGL/GUI/lvgl/src/layouts/grid/lv_grid.c ****                 pos_array[0] = gap;
 633:../../Middlewares/LVGL/GUI/lvgl/src/layouts/grid/lv_grid.c ****                 break;
 634:../../Middlewares/LVGL/GUI/lvgl/src/layouts/grid/lv_grid.c ****             default:
 635:../../Middlewares/LVGL/GUI/lvgl/src/layouts/grid/lv_grid.c ****                 break;
 636:../../Middlewares/LVGL/GUI/lvgl/src/layouts/grid/lv_grid.c ****         }
 637:../../Middlewares/LVGL/GUI/lvgl/src/layouts/grid/lv_grid.c ****     }
 638:../../Middlewares/LVGL/GUI/lvgl/src/layouts/grid/lv_grid.c **** 
 639:../../Middlewares/LVGL/GUI/lvgl/src/layouts/grid/lv_grid.c ****     /*Set the position of all tracks from the start position, gaps and track sizes*/
 640:../../Middlewares/LVGL/GUI/lvgl/src/layouts/grid/lv_grid.c ****     for(i = 0; i < track_num - 1; i++) {
  65              		.loc 1 640 5 is_stmt 1 view .LVU11
  66              		.loc 1 640 11 is_stmt 0 view .LVU12
  67 0018 0022     		movs	r2, #0
  68              	.LVL6:
  69              	.L16:
  70              		.loc 1 640 18 is_stmt 1 discriminator 1 view .LVU13
  71              		.loc 1 640 30 is_stmt 0 discriminator 1 view .LVU14
  72 001a 0CF1FF31 		add	r1, ip, #-1
  73              		.loc 1 640 18 discriminator 1 view .LVU15
  74 001e 9142     		cmp	r1, r2
  75 0020 58D9     		bls	.L24
 641:../../Middlewares/LVGL/GUI/lvgl/src/layouts/grid/lv_grid.c ****         pos_array[i + 1] = pos_array[i] + size_array[i] + gap;
  76              		.loc 1 641 9 is_stmt 1 view .LVU16
  77              		.loc 1 641 37 is_stmt 0 view .LVU17
  78 0022 53F82210 		ldr	r1, [r3, r2, lsl #2]
  79              		.loc 1 641 41 view .LVU18
  80 0026 50F82260 		ldr	r6, [r0, r2, lsl #2]
  81 002a 3144     		add	r1, r1, r6
  82              		.loc 1 641 21 view .LVU19
  83 002c 0132     		adds	r2, r2, #1
  84              	.LVL7:
  85              		.loc 1 641 57 view .LVU20
  86 002e 2144     		add	r1, r1, r4
  87              		.loc 1 641 26 view .LVU21
  88 0030 43F82210 		str	r1, [r3, r2, lsl #2]
 640:../../Middlewares/LVGL/GUI/lvgl/src/layouts/grid/lv_grid.c ****         pos_array[i + 1] = pos_array[i] + size_array[i] + gap;
  89              		.loc 1 640 36 is_stmt 1 discriminator 3 view .LVU22
  90 0034 F1E7     		b	.L16
  91              	.LVL8:
  92              	.L2:
 640:../../Middlewares/LVGL/GUI/lvgl/src/layouts/grid/lv_grid.c ****         pos_array[i + 1] = pos_array[i] + size_array[i] + gap;
  93              		.loc 1 640 36 is_stmt 0 discriminator 3 view .LVU23
  94 0036 1746     		mov	r7, r2
 600:../../Middlewares/LVGL/GUI/lvgl/src/layouts/grid/lv_grid.c ****             gap = 0;
  95              		.loc 1 600 9 is_stmt 1 view .LVU24
 600:../../Middlewares/LVGL/GUI/lvgl/src/layouts/grid/lv_grid.c ****             gap = 0;
  96              		.loc 1 600 88 is_stmt 0 view .LVU25
  97 0038 043A     		subs	r2, r2, #4
ARM GAS  C:\Users\28576\AppData\Local\Temp\ccV3XjXD.s 			page 14


  98              	.LVL9:
 600:../../Middlewares/LVGL/GUI/lvgl/src/layouts/grid/lv_grid.c ****             gap = 0;
  99              		.loc 1 600 88 view .LVU26
 100 003a D2B2     		uxtb	r2, r2
 600:../../Middlewares/LVGL/GUI/lvgl/src/layouts/grid/lv_grid.c ****             gap = 0;
 101              		.loc 1 600 11 view .LVU27
 102 003c 022A     		cmp	r2, #2
 103 003e 03D8     		bhi	.L4
 601:../../Middlewares/LVGL/GUI/lvgl/src/layouts/grid/lv_grid.c ****             if(track_num == 1) align = LV_GRID_ALIGN_CENTER;
 104              		.loc 1 601 13 is_stmt 1 view .LVU28
 105              	.LVL10:
 602:../../Middlewares/LVGL/GUI/lvgl/src/layouts/grid/lv_grid.c ****         }
 106              		.loc 1 602 13 view .LVU29
 602:../../Middlewares/LVGL/GUI/lvgl/src/layouts/grid/lv_grid.c ****         }
 107              		.loc 1 602 15 is_stmt 0 view .LVU30
 108 0040 BCF1010F 		cmp	ip, #1
 109 0044 03D0     		beq	.L21
 601:../../Middlewares/LVGL/GUI/lvgl/src/layouts/grid/lv_grid.c ****             if(track_num == 1) align = LV_GRID_ALIGN_CENTER;
 110              		.loc 1 601 17 view .LVU31
 111 0046 0C46     		mov	r4, r1
 112              	.LVL11:
 113              	.L4:
 606:../../Middlewares/LVGL/GUI/lvgl/src/layouts/grid/lv_grid.c ****             grid_size += size_array[i] + gap;
 114              		.loc 1 606 9 is_stmt 1 view .LVU32
 606:../../Middlewares/LVGL/GUI/lvgl/src/layouts/grid/lv_grid.c ****             grid_size += size_array[i] + gap;
 115              		.loc 1 606 15 is_stmt 0 view .LVU33
 116 0048 0021     		movs	r1, #0
 117              	.LVL12:
 592:../../Middlewares/LVGL/GUI/lvgl/src/layouts/grid/lv_grid.c ****     uint32_t i;
 118              		.loc 1 592 13 view .LVU34
 119 004a 0E46     		mov	r6, r1
 606:../../Middlewares/LVGL/GUI/lvgl/src/layouts/grid/lv_grid.c ****             grid_size += size_array[i] + gap;
 120              		.loc 1 606 9 view .LVU35
 121 004c 07E0     		b	.L5
 122              	.LVL13:
 123              	.L21:
 601:../../Middlewares/LVGL/GUI/lvgl/src/layouts/grid/lv_grid.c ****             if(track_num == 1) align = LV_GRID_ALIGN_CENTER;
 124              		.loc 1 601 17 view .LVU36
 125 004e 0024     		movs	r4, #0
 602:../../Middlewares/LVGL/GUI/lvgl/src/layouts/grid/lv_grid.c ****         }
 126              		.loc 1 602 38 discriminator 1 view .LVU37
 127 0050 0127     		movs	r7, #1
 128 0052 F9E7     		b	.L4
 129              	.LVL14:
 130              	.L6:
 607:../../Middlewares/LVGL/GUI/lvgl/src/layouts/grid/lv_grid.c ****         }
 131              		.loc 1 607 13 is_stmt 1 view .LVU38
 607:../../Middlewares/LVGL/GUI/lvgl/src/layouts/grid/lv_grid.c ****         }
 132              		.loc 1 607 36 is_stmt 0 view .LVU39
 133 0054 50F82120 		ldr	r2, [r0, r1, lsl #2]
 607:../../Middlewares/LVGL/GUI/lvgl/src/layouts/grid/lv_grid.c ****         }
 134              		.loc 1 607 40 view .LVU40
 135 0058 2244     		add	r2, r2, r4
 607:../../Middlewares/LVGL/GUI/lvgl/src/layouts/grid/lv_grid.c ****         }
 136              		.loc 1 607 23 view .LVU41
 137 005a 1644     		add	r6, r6, r2
 138              	.LVL15:
ARM GAS  C:\Users\28576\AppData\Local\Temp\ccV3XjXD.s 			page 15


 606:../../Middlewares/LVGL/GUI/lvgl/src/layouts/grid/lv_grid.c ****             grid_size += size_array[i] + gap;
 139              		.loc 1 606 36 is_stmt 1 discriminator 3 view .LVU42
 140 005c 0131     		adds	r1, r1, #1
 141              	.LVL16:
 142              	.L5:
 606:../../Middlewares/LVGL/GUI/lvgl/src/layouts/grid/lv_grid.c ****             grid_size += size_array[i] + gap;
 143              		.loc 1 606 22 discriminator 1 view .LVU43
 144 005e 6145     		cmp	r1, ip
 145 0060 F8D3     		bcc	.L6
 609:../../Middlewares/LVGL/GUI/lvgl/src/layouts/grid/lv_grid.c **** 
 146              		.loc 1 609 9 view .LVU44
 609:../../Middlewares/LVGL/GUI/lvgl/src/layouts/grid/lv_grid.c **** 
 147              		.loc 1 609 19 is_stmt 0 view .LVU45
 148 0062 361B     		subs	r6, r6, r4
 149              	.LVL17:
 612:../../Middlewares/LVGL/GUI/lvgl/src/layouts/grid/lv_grid.c ****             case LV_GRID_ALIGN_START:
 150              		.loc 1 612 9 is_stmt 1 view .LVU46
 151 0064 042F     		cmp	r7, #4
 152 0066 2DD0     		beq	.L7
 153 0068 07D8     		bhi	.L8
 154 006a 012F     		cmp	r7, #1
 155 006c 12D0     		beq	.L9
 156 006e 022F     		cmp	r7, #2
 157 0070 18D0     		beq	.L10
 158 0072 002F     		cmp	r7, #0
 159 0074 D0D1     		bne	.L3
 614:../../Middlewares/LVGL/GUI/lvgl/src/layouts/grid/lv_grid.c ****                 break;
 160              		.loc 1 614 17 view .LVU47
 614:../../Middlewares/LVGL/GUI/lvgl/src/layouts/grid/lv_grid.c ****                 break;
 161              		.loc 1 614 30 is_stmt 0 view .LVU48
 162 0076 1F60     		str	r7, [r3]
 615:../../Middlewares/LVGL/GUI/lvgl/src/layouts/grid/lv_grid.c ****             case LV_GRID_ALIGN_CENTER:
 163              		.loc 1 615 17 is_stmt 1 view .LVU49
 164 0078 CEE7     		b	.L3
 165              	.L8:
 612:../../Middlewares/LVGL/GUI/lvgl/src/layouts/grid/lv_grid.c ****             case LV_GRID_ALIGN_START:
 166              		.loc 1 612 9 is_stmt 0 view .LVU50
 167 007a 052F     		cmp	r7, #5
 168 007c 16D0     		beq	.L12
 169 007e 062F     		cmp	r7, #6
 170 0080 CAD1     		bne	.L3
 623:../../Middlewares/LVGL/GUI/lvgl/src/layouts/grid/lv_grid.c ****                 gap = (int32_t)(cont_size - grid_size) / (int32_t)(track_num - 1);
 171              		.loc 1 623 17 is_stmt 1 view .LVU51
 623:../../Middlewares/LVGL/GUI/lvgl/src/layouts/grid/lv_grid.c ****                 gap = (int32_t)(cont_size - grid_size) / (int32_t)(track_num - 1);
 172              		.loc 1 623 30 is_stmt 0 view .LVU52
 173 0082 0022     		movs	r2, #0
 174 0084 1A60     		str	r2, [r3]
 624:../../Middlewares/LVGL/GUI/lvgl/src/layouts/grid/lv_grid.c ****                 break;
 175              		.loc 1 624 17 is_stmt 1 view .LVU53
 624:../../Middlewares/LVGL/GUI/lvgl/src/layouts/grid/lv_grid.c ****                 break;
 176              		.loc 1 624 43 is_stmt 0 view .LVU54
 177 0086 AEEB0606 		sub	r6, lr, r6
 178              	.LVL18:
 624:../../Middlewares/LVGL/GUI/lvgl/src/layouts/grid/lv_grid.c ****                 break;
 179              		.loc 1 624 78 view .LVU55
 180 008a 0CF1FF34 		add	r4, ip, #-1
 181              	.LVL19:
ARM GAS  C:\Users\28576\AppData\Local\Temp\ccV3XjXD.s 			page 16


 624:../../Middlewares/LVGL/GUI/lvgl/src/layouts/grid/lv_grid.c ****                 break;
 182              		.loc 1 624 21 view .LVU56
 183 008e 96FBF4F4 		sdiv	r4, r6, r4
 184              	.LVL20:
 625:../../Middlewares/LVGL/GUI/lvgl/src/layouts/grid/lv_grid.c ****             case LV_GRID_ALIGN_SPACE_AROUND:
 185              		.loc 1 625 17 is_stmt 1 view .LVU57
 186 0092 C1E7     		b	.L3
 187              	.LVL21:
 188              	.L9:
 617:../../Middlewares/LVGL/GUI/lvgl/src/layouts/grid/lv_grid.c ****                 break;
 189              		.loc 1 617 17 view .LVU58
 617:../../Middlewares/LVGL/GUI/lvgl/src/layouts/grid/lv_grid.c ****                 break;
 190              		.loc 1 617 56 is_stmt 0 view .LVU59
 191 0094 BEEB0606 		subs	r6, lr, r6
 192              	.LVL22:
 617:../../Middlewares/LVGL/GUI/lvgl/src/layouts/grid/lv_grid.c ****                 break;
 193              		.loc 1 617 56 view .LVU60
 194 0098 02D4     		bmi	.L25
 195              	.L14:
 196 009a 7610     		asrs	r6, r6, #1
 617:../../Middlewares/LVGL/GUI/lvgl/src/layouts/grid/lv_grid.c ****                 break;
 197              		.loc 1 617 30 view .LVU61
 198 009c 1E60     		str	r6, [r3]
 618:../../Middlewares/LVGL/GUI/lvgl/src/layouts/grid/lv_grid.c ****             case LV_GRID_ALIGN_END:
 199              		.loc 1 618 17 is_stmt 1 view .LVU62
 200 009e BBE7     		b	.L3
 201              	.L25:
 617:../../Middlewares/LVGL/GUI/lvgl/src/layouts/grid/lv_grid.c ****                 break;
 202              		.loc 1 617 56 is_stmt 0 view .LVU63
 203 00a0 0136     		adds	r6, r6, #1
 204 00a2 FAE7     		b	.L14
 205              	.LVL23:
 206              	.L10:
 620:../../Middlewares/LVGL/GUI/lvgl/src/layouts/grid/lv_grid.c ****                 break;
 207              		.loc 1 620 17 is_stmt 1 view .LVU64
 620:../../Middlewares/LVGL/GUI/lvgl/src/layouts/grid/lv_grid.c ****                 break;
 208              		.loc 1 620 42 is_stmt 0 view .LVU65
 209 00a4 AEEB0606 		sub	r6, lr, r6
 210              	.LVL24:
 620:../../Middlewares/LVGL/GUI/lvgl/src/layouts/grid/lv_grid.c ****                 break;
 211              		.loc 1 620 30 view .LVU66
 212 00a8 1E60     		str	r6, [r3]
 621:../../Middlewares/LVGL/GUI/lvgl/src/layouts/grid/lv_grid.c ****             case LV_GRID_ALIGN_SPACE_BETWEEN:
 213              		.loc 1 621 17 is_stmt 1 view .LVU67
 214 00aa B5E7     		b	.L3
 215              	.LVL25:
 216              	.L12:
 627:../../Middlewares/LVGL/GUI/lvgl/src/layouts/grid/lv_grid.c ****                 pos_array[0] = gap / 2;
 217              		.loc 1 627 17 view .LVU68
 627:../../Middlewares/LVGL/GUI/lvgl/src/layouts/grid/lv_grid.c ****                 pos_array[0] = gap / 2;
 218              		.loc 1 627 43 is_stmt 0 view .LVU69
 219 00ac AEEB0606 		sub	r6, lr, r6
 220              	.LVL26:
 627:../../Middlewares/LVGL/GUI/lvgl/src/layouts/grid/lv_grid.c ****                 pos_array[0] = gap / 2;
 221              		.loc 1 627 21 view .LVU70
 222 00b0 96FBFCF4 		sdiv	r4, r6, ip
 223              	.LVL27:
ARM GAS  C:\Users\28576\AppData\Local\Temp\ccV3XjXD.s 			page 17


 628:../../Middlewares/LVGL/GUI/lvgl/src/layouts/grid/lv_grid.c ****                 break;
 224              		.loc 1 628 17 is_stmt 1 view .LVU71
 628:../../Middlewares/LVGL/GUI/lvgl/src/layouts/grid/lv_grid.c ****                 break;
 225              		.loc 1 628 36 is_stmt 0 view .LVU72
 226 00b4 2246     		mov	r2, r4
 227 00b6 002C     		cmp	r4, #0
 228 00b8 02DB     		blt	.L26
 229              	.L15:
 628:../../Middlewares/LVGL/GUI/lvgl/src/layouts/grid/lv_grid.c ****                 break;
 230              		.loc 1 628 36 view .LVU73
 231 00ba 5210     		asrs	r2, r2, #1
 628:../../Middlewares/LVGL/GUI/lvgl/src/layouts/grid/lv_grid.c ****                 break;
 232              		.loc 1 628 30 view .LVU74
 233 00bc 1A60     		str	r2, [r3]
 629:../../Middlewares/LVGL/GUI/lvgl/src/layouts/grid/lv_grid.c ****             case LV_GRID_ALIGN_SPACE_EVENLY:
 234              		.loc 1 629 17 is_stmt 1 view .LVU75
 235 00be ABE7     		b	.L3
 236              	.LVL28:
 237              	.L26:
 628:../../Middlewares/LVGL/GUI/lvgl/src/layouts/grid/lv_grid.c ****                 break;
 238              		.loc 1 628 36 is_stmt 0 view .LVU76
 239 00c0 621C     		adds	r2, r4, #1
 240              	.LVL29:
 628:../../Middlewares/LVGL/GUI/lvgl/src/layouts/grid/lv_grid.c ****                 break;
 241              		.loc 1 628 36 view .LVU77
 242 00c2 FAE7     		b	.L15
 243              	.LVL30:
 244              	.L7:
 631:../../Middlewares/LVGL/GUI/lvgl/src/layouts/grid/lv_grid.c ****                 pos_array[0] = gap;
 245              		.loc 1 631 17 is_stmt 1 view .LVU78
 631:../../Middlewares/LVGL/GUI/lvgl/src/layouts/grid/lv_grid.c ****                 pos_array[0] = gap;
 246              		.loc 1 631 43 is_stmt 0 view .LVU79
 247 00c4 AEEB0606 		sub	r6, lr, r6
 248              	.LVL31:
 631:../../Middlewares/LVGL/GUI/lvgl/src/layouts/grid/lv_grid.c ****                 pos_array[0] = gap;
 249              		.loc 1 631 78 view .LVU80
 250 00c8 0CF10104 		add	r4, ip, #1
 251              	.LVL32:
 631:../../Middlewares/LVGL/GUI/lvgl/src/layouts/grid/lv_grid.c ****                 pos_array[0] = gap;
 252              		.loc 1 631 21 view .LVU81
 253 00cc 96FBF4F4 		sdiv	r4, r6, r4
 254              	.LVL33:
 632:../../Middlewares/LVGL/GUI/lvgl/src/layouts/grid/lv_grid.c ****                 break;
 255              		.loc 1 632 17 is_stmt 1 view .LVU82
 632:../../Middlewares/LVGL/GUI/lvgl/src/layouts/grid/lv_grid.c ****                 break;
 256              		.loc 1 632 30 is_stmt 0 view .LVU83
 257 00d0 1C60     		str	r4, [r3]
 633:../../Middlewares/LVGL/GUI/lvgl/src/layouts/grid/lv_grid.c ****             default:
 258              		.loc 1 633 17 is_stmt 1 view .LVU84
 259 00d2 A1E7     		b	.L3
 260              	.LVL34:
 261              	.L24:
 642:../../Middlewares/LVGL/GUI/lvgl/src/layouts/grid/lv_grid.c ****     }
 643:../../Middlewares/LVGL/GUI/lvgl/src/layouts/grid/lv_grid.c **** 
 644:../../Middlewares/LVGL/GUI/lvgl/src/layouts/grid/lv_grid.c ****     int32_t total_gird_size = pos_array[track_num - 1] + size_array[track_num - 1] - pos_array[0];
 262              		.loc 1 644 5 view .LVU85
 263              		.loc 1 644 51 is_stmt 0 view .LVU86
ARM GAS  C:\Users\28576\AppData\Local\Temp\ccV3XjXD.s 			page 18


 264 00d4 6FF04042 		mvn	r2, #-1073741824
 265              	.LVL35:
 266              		.loc 1 644 51 view .LVU87
 267 00d8 6244     		add	r2, r2, ip
 268              		.loc 1 644 40 view .LVU88
 269 00da 53F82260 		ldr	r6, [r3, r2, lsl #2]
 270              		.loc 1 644 68 view .LVU89
 271 00de 50F82220 		ldr	r2, [r0, r2, lsl #2]
 272              		.loc 1 644 56 view .LVU90
 273 00e2 1644     		add	r6, r6, r2
 274              		.loc 1 644 95 view .LVU91
 275 00e4 1A68     		ldr	r2, [r3]
 276              		.loc 1 644 13 view .LVU92
 277 00e6 B61A     		subs	r6, r6, r2
 278              	.LVL36:
 645:../../Middlewares/LVGL/GUI/lvgl/src/layouts/grid/lv_grid.c **** 
 646:../../Middlewares/LVGL/GUI/lvgl/src/layouts/grid/lv_grid.c ****     if(reverse) {
 279              		.loc 1 646 5 is_stmt 1 view .LVU93
 280              		.loc 1 646 7 is_stmt 0 view .LVU94
 281 00e8 75B9     		cbnz	r5, .L22
 282              	.LVL37:
 283              	.L1:
 647:../../Middlewares/LVGL/GUI/lvgl/src/layouts/grid/lv_grid.c ****         for(i = 0; i < track_num; i++) {
 648:../../Middlewares/LVGL/GUI/lvgl/src/layouts/grid/lv_grid.c ****             pos_array[i] = cont_size - pos_array[i] - size_array[i];
 649:../../Middlewares/LVGL/GUI/lvgl/src/layouts/grid/lv_grid.c ****         }
 650:../../Middlewares/LVGL/GUI/lvgl/src/layouts/grid/lv_grid.c **** 
 651:../../Middlewares/LVGL/GUI/lvgl/src/layouts/grid/lv_grid.c ****     }
 652:../../Middlewares/LVGL/GUI/lvgl/src/layouts/grid/lv_grid.c **** 
 653:../../Middlewares/LVGL/GUI/lvgl/src/layouts/grid/lv_grid.c ****     /*Return the full size of the grid*/
 654:../../Middlewares/LVGL/GUI/lvgl/src/layouts/grid/lv_grid.c ****     return total_gird_size;
 655:../../Middlewares/LVGL/GUI/lvgl/src/layouts/grid/lv_grid.c **** }
 284              		.loc 1 655 1 view .LVU95
 285 00ea 3046     		mov	r0, r6
 286 00ec F0BD     		pop	{r4, r5, r6, r7, pc}
 287              	.LVL38:
 288              	.L20:
 648:../../Middlewares/LVGL/GUI/lvgl/src/layouts/grid/lv_grid.c ****         }
 289              		.loc 1 648 13 is_stmt 1 view .LVU96
 648:../../Middlewares/LVGL/GUI/lvgl/src/layouts/grid/lv_grid.c ****         }
 290              		.loc 1 648 49 is_stmt 0 view .LVU97
 291 00ee 53F82210 		ldr	r1, [r3, r2, lsl #2]
 648:../../Middlewares/LVGL/GUI/lvgl/src/layouts/grid/lv_grid.c ****         }
 292              		.loc 1 648 38 view .LVU98
 293 00f2 AEEB0101 		sub	r1, lr, r1
 648:../../Middlewares/LVGL/GUI/lvgl/src/layouts/grid/lv_grid.c ****         }
 294              		.loc 1 648 65 view .LVU99
 295 00f6 50F82240 		ldr	r4, [r0, r2, lsl #2]
 648:../../Middlewares/LVGL/GUI/lvgl/src/layouts/grid/lv_grid.c ****         }
 296              		.loc 1 648 53 view .LVU100
 297 00fa 091B     		subs	r1, r1, r4
 648:../../Middlewares/LVGL/GUI/lvgl/src/layouts/grid/lv_grid.c ****         }
 298              		.loc 1 648 26 view .LVU101
 299 00fc 43F82210 		str	r1, [r3, r2, lsl #2]
 647:../../Middlewares/LVGL/GUI/lvgl/src/layouts/grid/lv_grid.c ****         for(i = 0; i < track_num; i++) {
 300              		.loc 1 647 36 is_stmt 1 discriminator 3 view .LVU102
 301 0100 0132     		adds	r2, r2, #1
 302              	.LVL39:
ARM GAS  C:\Users\28576\AppData\Local\Temp\ccV3XjXD.s 			page 19


 303              	.L18:
 647:../../Middlewares/LVGL/GUI/lvgl/src/layouts/grid/lv_grid.c ****         for(i = 0; i < track_num; i++) {
 304              		.loc 1 647 22 discriminator 1 view .LVU103
 305 0102 6245     		cmp	r2, ip
 306 0104 F3D3     		bcc	.L20
 307 0106 F0E7     		b	.L1
 308              	.LVL40:
 309              	.L22:
 647:../../Middlewares/LVGL/GUI/lvgl/src/layouts/grid/lv_grid.c ****         for(i = 0; i < track_num; i++) {
 310              		.loc 1 647 15 is_stmt 0 view .LVU104
 311 0108 0022     		movs	r2, #0
 312 010a FAE7     		b	.L18
 313              		.cfi_endproc
 314              	.LFE211:
 316              		.section	.text.count_tracks,"ax",%progbits
 317              		.align	1
 318              		.syntax unified
 319              		.thumb
 320              		.thumb_func
 322              	count_tracks:
 323              	.LVL41:
 324              	.LFB212:
 656:../../Middlewares/LVGL/GUI/lvgl/src/layouts/grid/lv_grid.c **** 
 657:../../Middlewares/LVGL/GUI/lvgl/src/layouts/grid/lv_grid.c **** static uint32_t count_tracks(const int32_t * templ)
 658:../../Middlewares/LVGL/GUI/lvgl/src/layouts/grid/lv_grid.c **** {
 325              		.loc 1 658 1 is_stmt 1 view -0
 326              		.cfi_startproc
 327              		@ args = 0, pretend = 0, frame = 0
 328              		@ frame_needed = 0, uses_anonymous_args = 0
 329              		@ link register save eliminated.
 330              		.loc 1 658 1 is_stmt 0 view .LVU106
 331 0000 0146     		mov	r1, r0
 659:../../Middlewares/LVGL/GUI/lvgl/src/layouts/grid/lv_grid.c ****     uint32_t i;
 332              		.loc 1 659 5 is_stmt 1 view .LVU107
 660:../../Middlewares/LVGL/GUI/lvgl/src/layouts/grid/lv_grid.c ****     for(i = 0; templ[i] != LV_GRID_TEMPLATE_LAST; i++);
 333              		.loc 1 660 5 view .LVU108
 334              	.LVL42:
 335              		.loc 1 660 11 is_stmt 0 view .LVU109
 336 0002 0020     		movs	r0, #0
 337              	.LVL43:
 338              		.loc 1 660 5 view .LVU110
 339 0004 00E0     		b	.L28
 340              	.LVL44:
 341              	.L29:
 342              		.loc 1 660 52 is_stmt 1 discriminator 3 view .LVU111
 343 0006 0130     		adds	r0, r0, #1
 344              	.LVL45:
 345              	.L28:
 346              		.loc 1 660 25 discriminator 1 view .LVU112
 347              		.loc 1 660 21 is_stmt 0 discriminator 1 view .LVU113
 348 0008 51F82020 		ldr	r2, [r1, r0, lsl #2]
 349              		.loc 1 660 25 discriminator 1 view .LVU114
 350 000c 6FF06043 		mvn	r3, #-536870912
 351 0010 9A42     		cmp	r2, r3
 352 0012 F8D1     		bne	.L29
 661:../../Middlewares/LVGL/GUI/lvgl/src/layouts/grid/lv_grid.c **** 
 662:../../Middlewares/LVGL/GUI/lvgl/src/layouts/grid/lv_grid.c ****     return i;
ARM GAS  C:\Users\28576\AppData\Local\Temp\ccV3XjXD.s 			page 20


 353              		.loc 1 662 5 is_stmt 1 view .LVU115
 663:../../Middlewares/LVGL/GUI/lvgl/src/layouts/grid/lv_grid.c **** }
 354              		.loc 1 663 1 is_stmt 0 view .LVU116
 355 0014 7047     		bx	lr
 356              		.cfi_endproc
 357              	.LFE212:
 359              		.section	.text.calc_free,"ax",%progbits
 360              		.align	1
 361              		.syntax unified
 362              		.thumb
 363              		.thumb_func
 365              	calc_free:
 366              	.LVL46:
 367              	.LFB207:
 268:../../Middlewares/LVGL/GUI/lvgl/src/layouts/grid/lv_grid.c ****     lv_free(calc->x);
 368              		.loc 1 268 1 is_stmt 1 view -0
 369              		.cfi_startproc
 370              		@ args = 0, pretend = 0, frame = 0
 371              		@ frame_needed = 0, uses_anonymous_args = 0
 268:../../Middlewares/LVGL/GUI/lvgl/src/layouts/grid/lv_grid.c ****     lv_free(calc->x);
 372              		.loc 1 268 1 is_stmt 0 view .LVU118
 373 0000 10B5     		push	{r4, lr}
 374              	.LCFI1:
 375              		.cfi_def_cfa_offset 8
 376              		.cfi_offset 4, -8
 377              		.cfi_offset 14, -4
 378 0002 0446     		mov	r4, r0
 269:../../Middlewares/LVGL/GUI/lvgl/src/layouts/grid/lv_grid.c ****     lv_free(calc->y);
 379              		.loc 1 269 5 is_stmt 1 view .LVU119
 380 0004 0068     		ldr	r0, [r0]
 381              	.LVL47:
 269:../../Middlewares/LVGL/GUI/lvgl/src/layouts/grid/lv_grid.c ****     lv_free(calc->y);
 382              		.loc 1 269 5 is_stmt 0 view .LVU120
 383 0006 FFF7FEFF 		bl	lv_free
 384              	.LVL48:
 270:../../Middlewares/LVGL/GUI/lvgl/src/layouts/grid/lv_grid.c ****     lv_free(calc->w);
 385              		.loc 1 270 5 is_stmt 1 view .LVU121
 386 000a 6068     		ldr	r0, [r4, #4]
 387 000c FFF7FEFF 		bl	lv_free
 388              	.LVL49:
 271:../../Middlewares/LVGL/GUI/lvgl/src/layouts/grid/lv_grid.c ****     lv_free(calc->h);
 389              		.loc 1 271 5 view .LVU122
 390 0010 A068     		ldr	r0, [r4, #8]
 391 0012 FFF7FEFF 		bl	lv_free
 392              	.LVL50:
 272:../../Middlewares/LVGL/GUI/lvgl/src/layouts/grid/lv_grid.c **** }
 393              		.loc 1 272 5 view .LVU123
 394 0016 E068     		ldr	r0, [r4, #12]
 395 0018 FFF7FEFF 		bl	lv_free
 396              	.LVL51:
 273:../../Middlewares/LVGL/GUI/lvgl/src/layouts/grid/lv_grid.c **** 
 397              		.loc 1 273 1 is_stmt 0 view .LVU124
 398 001c 10BD     		pop	{r4, pc}
 273:../../Middlewares/LVGL/GUI/lvgl/src/layouts/grid/lv_grid.c **** 
 399              		.loc 1 273 1 view .LVU125
 400              		.cfi_endproc
 401              	.LFE207:
ARM GAS  C:\Users\28576\AppData\Local\Temp\ccV3XjXD.s 			page 21


 403              		.section	.text.calc_rows,"ax",%progbits
 404              		.align	1
 405              		.syntax unified
 406              		.thumb
 407              		.thumb_func
 409              	calc_rows:
 410              	.LVL52:
 411              	.LFB209:
 369:../../Middlewares/LVGL/GUI/lvgl/src/layouts/grid/lv_grid.c ****     const int32_t * row_templ;
 412              		.loc 1 369 1 is_stmt 1 view -0
 413              		.cfi_startproc
 414              		@ args = 0, pretend = 0, frame = 16
 415              		@ frame_needed = 0, uses_anonymous_args = 0
 369:../../Middlewares/LVGL/GUI/lvgl/src/layouts/grid/lv_grid.c ****     const int32_t * row_templ;
 416              		.loc 1 369 1 is_stmt 0 view .LVU127
 417 0000 2DE9F04F 		push	{r4, r5, r6, r7, r8, r9, r10, fp, lr}
 418              	.LCFI2:
 419              		.cfi_def_cfa_offset 36
 420              		.cfi_offset 4, -36
 421              		.cfi_offset 5, -32
 422              		.cfi_offset 6, -28
 423              		.cfi_offset 7, -24
 424              		.cfi_offset 8, -20
 425              		.cfi_offset 9, -16
 426              		.cfi_offset 10, -12
 427              		.cfi_offset 11, -8
 428              		.cfi_offset 14, -4
 429 0004 85B0     		sub	sp, sp, #20
 430              	.LCFI3:
 431              		.cfi_def_cfa_offset 56
 432 0006 8046     		mov	r8, r0
 433 0008 0C46     		mov	r4, r1
 370:../../Middlewares/LVGL/GUI/lvgl/src/layouts/grid/lv_grid.c ****     row_templ = get_row_dsc(cont);
 434              		.loc 1 370 5 is_stmt 1 view .LVU128
 371:../../Middlewares/LVGL/GUI/lvgl/src/layouts/grid/lv_grid.c ****     bool subgrid = false;
 435              		.loc 1 371 5 view .LVU129
 436              	.LVL53:
 437              	.LBB192:
 438              	.LBI192:
  71:../../Middlewares/LVGL/GUI/lvgl/src/layouts/grid/lv_grid.c **** {
 439              		.loc 1 71 31 view .LVU130
  73:../../Middlewares/LVGL/GUI/lvgl/src/layouts/grid/lv_grid.c **** }
 440              		.loc 1 73 5 view .LVU131
 441              	.LBB193:
 442              	.LBI193:
 443              		.file 2 "H:/STM32H7/RGB_LVGL/Middlewares/LVGL/GUI/lvgl/src/core/lv_obj_style_gen.h"
   1:H:/STM32H7/RGB_LVGL/Middlewares/LVGL/GUI/lvgl/src/core\lv_obj_style_gen.h **** 
   2:H:/STM32H7/RGB_LVGL/Middlewares/LVGL/GUI/lvgl/src/core\lv_obj_style_gen.h **** /*
   3:H:/STM32H7/RGB_LVGL/Middlewares/LVGL/GUI/lvgl/src/core\lv_obj_style_gen.h ****  **********************************************************************
   4:H:/STM32H7/RGB_LVGL/Middlewares/LVGL/GUI/lvgl/src/core\lv_obj_style_gen.h ****  *                            DO NOT EDIT
   5:H:/STM32H7/RGB_LVGL/Middlewares/LVGL/GUI/lvgl/src/core\lv_obj_style_gen.h ****  * This file is automatically generated by "style_api_gen.py"
   6:H:/STM32H7/RGB_LVGL/Middlewares/LVGL/GUI/lvgl/src/core\lv_obj_style_gen.h ****  **********************************************************************
   7:H:/STM32H7/RGB_LVGL/Middlewares/LVGL/GUI/lvgl/src/core\lv_obj_style_gen.h ****  */
   8:H:/STM32H7/RGB_LVGL/Middlewares/LVGL/GUI/lvgl/src/core\lv_obj_style_gen.h **** 
   9:H:/STM32H7/RGB_LVGL/Middlewares/LVGL/GUI/lvgl/src/core\lv_obj_style_gen.h **** 
  10:H:/STM32H7/RGB_LVGL/Middlewares/LVGL/GUI/lvgl/src/core\lv_obj_style_gen.h **** #ifndef LV_OBJ_STYLE_GEN_H
  11:H:/STM32H7/RGB_LVGL/Middlewares/LVGL/GUI/lvgl/src/core\lv_obj_style_gen.h **** #define LV_OBJ_STYLE_GEN_H
ARM GAS  C:\Users\28576\AppData\Local\Temp\ccV3XjXD.s 			page 22


  12:H:/STM32H7/RGB_LVGL/Middlewares/LVGL/GUI/lvgl/src/core\lv_obj_style_gen.h **** 
  13:H:/STM32H7/RGB_LVGL/Middlewares/LVGL/GUI/lvgl/src/core\lv_obj_style_gen.h **** #ifdef __cplusplus
  14:H:/STM32H7/RGB_LVGL/Middlewares/LVGL/GUI/lvgl/src/core\lv_obj_style_gen.h **** extern "C" {
  15:H:/STM32H7/RGB_LVGL/Middlewares/LVGL/GUI/lvgl/src/core\lv_obj_style_gen.h **** #endif
  16:H:/STM32H7/RGB_LVGL/Middlewares/LVGL/GUI/lvgl/src/core\lv_obj_style_gen.h **** 
  17:H:/STM32H7/RGB_LVGL/Middlewares/LVGL/GUI/lvgl/src/core\lv_obj_style_gen.h **** #include "../misc/lv_area.h"
  18:H:/STM32H7/RGB_LVGL/Middlewares/LVGL/GUI/lvgl/src/core\lv_obj_style_gen.h **** #include "../misc/lv_style.h"
  19:H:/STM32H7/RGB_LVGL/Middlewares/LVGL/GUI/lvgl/src/core\lv_obj_style_gen.h **** #include "../core/lv_obj_style.h"
  20:H:/STM32H7/RGB_LVGL/Middlewares/LVGL/GUI/lvgl/src/core\lv_obj_style_gen.h **** #include "../misc/lv_types.h"
  21:H:/STM32H7/RGB_LVGL/Middlewares/LVGL/GUI/lvgl/src/core\lv_obj_style_gen.h **** 
  22:H:/STM32H7/RGB_LVGL/Middlewares/LVGL/GUI/lvgl/src/core\lv_obj_style_gen.h **** static inline int32_t lv_obj_get_style_width(const lv_obj_t * obj, lv_part_t part)
  23:H:/STM32H7/RGB_LVGL/Middlewares/LVGL/GUI/lvgl/src/core\lv_obj_style_gen.h **** {
  24:H:/STM32H7/RGB_LVGL/Middlewares/LVGL/GUI/lvgl/src/core\lv_obj_style_gen.h ****     lv_style_value_t v = lv_obj_get_style_prop(obj, part, LV_STYLE_WIDTH);
  25:H:/STM32H7/RGB_LVGL/Middlewares/LVGL/GUI/lvgl/src/core\lv_obj_style_gen.h ****     return (int32_t)v.num;
  26:H:/STM32H7/RGB_LVGL/Middlewares/LVGL/GUI/lvgl/src/core\lv_obj_style_gen.h **** }
  27:H:/STM32H7/RGB_LVGL/Middlewares/LVGL/GUI/lvgl/src/core\lv_obj_style_gen.h **** 
  28:H:/STM32H7/RGB_LVGL/Middlewares/LVGL/GUI/lvgl/src/core\lv_obj_style_gen.h **** static inline int32_t lv_obj_get_style_min_width(const lv_obj_t * obj, lv_part_t part)
  29:H:/STM32H7/RGB_LVGL/Middlewares/LVGL/GUI/lvgl/src/core\lv_obj_style_gen.h **** {
  30:H:/STM32H7/RGB_LVGL/Middlewares/LVGL/GUI/lvgl/src/core\lv_obj_style_gen.h ****     lv_style_value_t v = lv_obj_get_style_prop(obj, part, LV_STYLE_MIN_WIDTH);
  31:H:/STM32H7/RGB_LVGL/Middlewares/LVGL/GUI/lvgl/src/core\lv_obj_style_gen.h ****     return (int32_t)v.num;
  32:H:/STM32H7/RGB_LVGL/Middlewares/LVGL/GUI/lvgl/src/core\lv_obj_style_gen.h **** }
  33:H:/STM32H7/RGB_LVGL/Middlewares/LVGL/GUI/lvgl/src/core\lv_obj_style_gen.h **** 
  34:H:/STM32H7/RGB_LVGL/Middlewares/LVGL/GUI/lvgl/src/core\lv_obj_style_gen.h **** static inline int32_t lv_obj_get_style_max_width(const lv_obj_t * obj, lv_part_t part)
  35:H:/STM32H7/RGB_LVGL/Middlewares/LVGL/GUI/lvgl/src/core\lv_obj_style_gen.h **** {
  36:H:/STM32H7/RGB_LVGL/Middlewares/LVGL/GUI/lvgl/src/core\lv_obj_style_gen.h ****     lv_style_value_t v = lv_obj_get_style_prop(obj, part, LV_STYLE_MAX_WIDTH);
  37:H:/STM32H7/RGB_LVGL/Middlewares/LVGL/GUI/lvgl/src/core\lv_obj_style_gen.h ****     return (int32_t)v.num;
  38:H:/STM32H7/RGB_LVGL/Middlewares/LVGL/GUI/lvgl/src/core\lv_obj_style_gen.h **** }
  39:H:/STM32H7/RGB_LVGL/Middlewares/LVGL/GUI/lvgl/src/core\lv_obj_style_gen.h **** 
  40:H:/STM32H7/RGB_LVGL/Middlewares/LVGL/GUI/lvgl/src/core\lv_obj_style_gen.h **** static inline int32_t lv_obj_get_style_height(const lv_obj_t * obj, lv_part_t part)
  41:H:/STM32H7/RGB_LVGL/Middlewares/LVGL/GUI/lvgl/src/core\lv_obj_style_gen.h **** {
  42:H:/STM32H7/RGB_LVGL/Middlewares/LVGL/GUI/lvgl/src/core\lv_obj_style_gen.h ****     lv_style_value_t v = lv_obj_get_style_prop(obj, part, LV_STYLE_HEIGHT);
  43:H:/STM32H7/RGB_LVGL/Middlewares/LVGL/GUI/lvgl/src/core\lv_obj_style_gen.h ****     return (int32_t)v.num;
  44:H:/STM32H7/RGB_LVGL/Middlewares/LVGL/GUI/lvgl/src/core\lv_obj_style_gen.h **** }
  45:H:/STM32H7/RGB_LVGL/Middlewares/LVGL/GUI/lvgl/src/core\lv_obj_style_gen.h **** 
  46:H:/STM32H7/RGB_LVGL/Middlewares/LVGL/GUI/lvgl/src/core\lv_obj_style_gen.h **** static inline int32_t lv_obj_get_style_min_height(const lv_obj_t * obj, lv_part_t part)
  47:H:/STM32H7/RGB_LVGL/Middlewares/LVGL/GUI/lvgl/src/core\lv_obj_style_gen.h **** {
  48:H:/STM32H7/RGB_LVGL/Middlewares/LVGL/GUI/lvgl/src/core\lv_obj_style_gen.h ****     lv_style_value_t v = lv_obj_get_style_prop(obj, part, LV_STYLE_MIN_HEIGHT);
  49:H:/STM32H7/RGB_LVGL/Middlewares/LVGL/GUI/lvgl/src/core\lv_obj_style_gen.h ****     return (int32_t)v.num;
  50:H:/STM32H7/RGB_LVGL/Middlewares/LVGL/GUI/lvgl/src/core\lv_obj_style_gen.h **** }
  51:H:/STM32H7/RGB_LVGL/Middlewares/LVGL/GUI/lvgl/src/core\lv_obj_style_gen.h **** 
  52:H:/STM32H7/RGB_LVGL/Middlewares/LVGL/GUI/lvgl/src/core\lv_obj_style_gen.h **** static inline int32_t lv_obj_get_style_max_height(const lv_obj_t * obj, lv_part_t part)
  53:H:/STM32H7/RGB_LVGL/Middlewares/LVGL/GUI/lvgl/src/core\lv_obj_style_gen.h **** {
  54:H:/STM32H7/RGB_LVGL/Middlewares/LVGL/GUI/lvgl/src/core\lv_obj_style_gen.h ****     lv_style_value_t v = lv_obj_get_style_prop(obj, part, LV_STYLE_MAX_HEIGHT);
  55:H:/STM32H7/RGB_LVGL/Middlewares/LVGL/GUI/lvgl/src/core\lv_obj_style_gen.h ****     return (int32_t)v.num;
  56:H:/STM32H7/RGB_LVGL/Middlewares/LVGL/GUI/lvgl/src/core\lv_obj_style_gen.h **** }
  57:H:/STM32H7/RGB_LVGL/Middlewares/LVGL/GUI/lvgl/src/core\lv_obj_style_gen.h **** 
  58:H:/STM32H7/RGB_LVGL/Middlewares/LVGL/GUI/lvgl/src/core\lv_obj_style_gen.h **** static inline int32_t lv_obj_get_style_length(const lv_obj_t * obj, lv_part_t part)
  59:H:/STM32H7/RGB_LVGL/Middlewares/LVGL/GUI/lvgl/src/core\lv_obj_style_gen.h **** {
  60:H:/STM32H7/RGB_LVGL/Middlewares/LVGL/GUI/lvgl/src/core\lv_obj_style_gen.h ****     lv_style_value_t v = lv_obj_get_style_prop(obj, part, LV_STYLE_LENGTH);
  61:H:/STM32H7/RGB_LVGL/Middlewares/LVGL/GUI/lvgl/src/core\lv_obj_style_gen.h ****     return (int32_t)v.num;
  62:H:/STM32H7/RGB_LVGL/Middlewares/LVGL/GUI/lvgl/src/core\lv_obj_style_gen.h **** }
  63:H:/STM32H7/RGB_LVGL/Middlewares/LVGL/GUI/lvgl/src/core\lv_obj_style_gen.h **** 
  64:H:/STM32H7/RGB_LVGL/Middlewares/LVGL/GUI/lvgl/src/core\lv_obj_style_gen.h **** static inline int32_t lv_obj_get_style_x(const lv_obj_t * obj, lv_part_t part)
  65:H:/STM32H7/RGB_LVGL/Middlewares/LVGL/GUI/lvgl/src/core\lv_obj_style_gen.h **** {
  66:H:/STM32H7/RGB_LVGL/Middlewares/LVGL/GUI/lvgl/src/core\lv_obj_style_gen.h ****     lv_style_value_t v = lv_obj_get_style_prop(obj, part, LV_STYLE_X);
  67:H:/STM32H7/RGB_LVGL/Middlewares/LVGL/GUI/lvgl/src/core\lv_obj_style_gen.h ****     return (int32_t)v.num;
  68:H:/STM32H7/RGB_LVGL/Middlewares/LVGL/GUI/lvgl/src/core\lv_obj_style_gen.h **** }
ARM GAS  C:\Users\28576\AppData\Local\Temp\ccV3XjXD.s 			page 23


  69:H:/STM32H7/RGB_LVGL/Middlewares/LVGL/GUI/lvgl/src/core\lv_obj_style_gen.h **** 
  70:H:/STM32H7/RGB_LVGL/Middlewares/LVGL/GUI/lvgl/src/core\lv_obj_style_gen.h **** static inline int32_t lv_obj_get_style_y(const lv_obj_t * obj, lv_part_t part)
  71:H:/STM32H7/RGB_LVGL/Middlewares/LVGL/GUI/lvgl/src/core\lv_obj_style_gen.h **** {
  72:H:/STM32H7/RGB_LVGL/Middlewares/LVGL/GUI/lvgl/src/core\lv_obj_style_gen.h ****     lv_style_value_t v = lv_obj_get_style_prop(obj, part, LV_STYLE_Y);
  73:H:/STM32H7/RGB_LVGL/Middlewares/LVGL/GUI/lvgl/src/core\lv_obj_style_gen.h ****     return (int32_t)v.num;
  74:H:/STM32H7/RGB_LVGL/Middlewares/LVGL/GUI/lvgl/src/core\lv_obj_style_gen.h **** }
  75:H:/STM32H7/RGB_LVGL/Middlewares/LVGL/GUI/lvgl/src/core\lv_obj_style_gen.h **** 
  76:H:/STM32H7/RGB_LVGL/Middlewares/LVGL/GUI/lvgl/src/core\lv_obj_style_gen.h **** static inline lv_align_t lv_obj_get_style_align(const lv_obj_t * obj, lv_part_t part)
  77:H:/STM32H7/RGB_LVGL/Middlewares/LVGL/GUI/lvgl/src/core\lv_obj_style_gen.h **** {
  78:H:/STM32H7/RGB_LVGL/Middlewares/LVGL/GUI/lvgl/src/core\lv_obj_style_gen.h ****     lv_style_value_t v = lv_obj_get_style_prop(obj, part, LV_STYLE_ALIGN);
  79:H:/STM32H7/RGB_LVGL/Middlewares/LVGL/GUI/lvgl/src/core\lv_obj_style_gen.h ****     return (lv_align_t)v.num;
  80:H:/STM32H7/RGB_LVGL/Middlewares/LVGL/GUI/lvgl/src/core\lv_obj_style_gen.h **** }
  81:H:/STM32H7/RGB_LVGL/Middlewares/LVGL/GUI/lvgl/src/core\lv_obj_style_gen.h **** 
  82:H:/STM32H7/RGB_LVGL/Middlewares/LVGL/GUI/lvgl/src/core\lv_obj_style_gen.h **** static inline int32_t lv_obj_get_style_transform_width(const lv_obj_t * obj, lv_part_t part)
  83:H:/STM32H7/RGB_LVGL/Middlewares/LVGL/GUI/lvgl/src/core\lv_obj_style_gen.h **** {
  84:H:/STM32H7/RGB_LVGL/Middlewares/LVGL/GUI/lvgl/src/core\lv_obj_style_gen.h ****     lv_style_value_t v = lv_obj_get_style_prop(obj, part, LV_STYLE_TRANSFORM_WIDTH);
  85:H:/STM32H7/RGB_LVGL/Middlewares/LVGL/GUI/lvgl/src/core\lv_obj_style_gen.h ****     return (int32_t)v.num;
  86:H:/STM32H7/RGB_LVGL/Middlewares/LVGL/GUI/lvgl/src/core\lv_obj_style_gen.h **** }
  87:H:/STM32H7/RGB_LVGL/Middlewares/LVGL/GUI/lvgl/src/core\lv_obj_style_gen.h **** 
  88:H:/STM32H7/RGB_LVGL/Middlewares/LVGL/GUI/lvgl/src/core\lv_obj_style_gen.h **** static inline int32_t lv_obj_get_style_transform_height(const lv_obj_t * obj, lv_part_t part)
  89:H:/STM32H7/RGB_LVGL/Middlewares/LVGL/GUI/lvgl/src/core\lv_obj_style_gen.h **** {
  90:H:/STM32H7/RGB_LVGL/Middlewares/LVGL/GUI/lvgl/src/core\lv_obj_style_gen.h ****     lv_style_value_t v = lv_obj_get_style_prop(obj, part, LV_STYLE_TRANSFORM_HEIGHT);
  91:H:/STM32H7/RGB_LVGL/Middlewares/LVGL/GUI/lvgl/src/core\lv_obj_style_gen.h ****     return (int32_t)v.num;
  92:H:/STM32H7/RGB_LVGL/Middlewares/LVGL/GUI/lvgl/src/core\lv_obj_style_gen.h **** }
  93:H:/STM32H7/RGB_LVGL/Middlewares/LVGL/GUI/lvgl/src/core\lv_obj_style_gen.h **** 
  94:H:/STM32H7/RGB_LVGL/Middlewares/LVGL/GUI/lvgl/src/core\lv_obj_style_gen.h **** static inline int32_t lv_obj_get_style_translate_x(const lv_obj_t * obj, lv_part_t part)
  95:H:/STM32H7/RGB_LVGL/Middlewares/LVGL/GUI/lvgl/src/core\lv_obj_style_gen.h **** {
  96:H:/STM32H7/RGB_LVGL/Middlewares/LVGL/GUI/lvgl/src/core\lv_obj_style_gen.h ****     lv_style_value_t v = lv_obj_get_style_prop(obj, part, LV_STYLE_TRANSLATE_X);
  97:H:/STM32H7/RGB_LVGL/Middlewares/LVGL/GUI/lvgl/src/core\lv_obj_style_gen.h ****     return (int32_t)v.num;
  98:H:/STM32H7/RGB_LVGL/Middlewares/LVGL/GUI/lvgl/src/core\lv_obj_style_gen.h **** }
  99:H:/STM32H7/RGB_LVGL/Middlewares/LVGL/GUI/lvgl/src/core\lv_obj_style_gen.h **** 
 100:H:/STM32H7/RGB_LVGL/Middlewares/LVGL/GUI/lvgl/src/core\lv_obj_style_gen.h **** static inline int32_t lv_obj_get_style_translate_y(const lv_obj_t * obj, lv_part_t part)
 101:H:/STM32H7/RGB_LVGL/Middlewares/LVGL/GUI/lvgl/src/core\lv_obj_style_gen.h **** {
 102:H:/STM32H7/RGB_LVGL/Middlewares/LVGL/GUI/lvgl/src/core\lv_obj_style_gen.h ****     lv_style_value_t v = lv_obj_get_style_prop(obj, part, LV_STYLE_TRANSLATE_Y);
 103:H:/STM32H7/RGB_LVGL/Middlewares/LVGL/GUI/lvgl/src/core\lv_obj_style_gen.h ****     return (int32_t)v.num;
 104:H:/STM32H7/RGB_LVGL/Middlewares/LVGL/GUI/lvgl/src/core\lv_obj_style_gen.h **** }
 105:H:/STM32H7/RGB_LVGL/Middlewares/LVGL/GUI/lvgl/src/core\lv_obj_style_gen.h **** 
 106:H:/STM32H7/RGB_LVGL/Middlewares/LVGL/GUI/lvgl/src/core\lv_obj_style_gen.h **** static inline int32_t lv_obj_get_style_translate_radial(const lv_obj_t * obj, lv_part_t part)
 107:H:/STM32H7/RGB_LVGL/Middlewares/LVGL/GUI/lvgl/src/core\lv_obj_style_gen.h **** {
 108:H:/STM32H7/RGB_LVGL/Middlewares/LVGL/GUI/lvgl/src/core\lv_obj_style_gen.h ****     lv_style_value_t v = lv_obj_get_style_prop(obj, part, LV_STYLE_TRANSLATE_RADIAL);
 109:H:/STM32H7/RGB_LVGL/Middlewares/LVGL/GUI/lvgl/src/core\lv_obj_style_gen.h ****     return (int32_t)v.num;
 110:H:/STM32H7/RGB_LVGL/Middlewares/LVGL/GUI/lvgl/src/core\lv_obj_style_gen.h **** }
 111:H:/STM32H7/RGB_LVGL/Middlewares/LVGL/GUI/lvgl/src/core\lv_obj_style_gen.h **** 
 112:H:/STM32H7/RGB_LVGL/Middlewares/LVGL/GUI/lvgl/src/core\lv_obj_style_gen.h **** static inline int32_t lv_obj_get_style_transform_scale_x(const lv_obj_t * obj, lv_part_t part)
 113:H:/STM32H7/RGB_LVGL/Middlewares/LVGL/GUI/lvgl/src/core\lv_obj_style_gen.h **** {
 114:H:/STM32H7/RGB_LVGL/Middlewares/LVGL/GUI/lvgl/src/core\lv_obj_style_gen.h ****     lv_style_value_t v = lv_obj_get_style_prop(obj, part, LV_STYLE_TRANSFORM_SCALE_X);
 115:H:/STM32H7/RGB_LVGL/Middlewares/LVGL/GUI/lvgl/src/core\lv_obj_style_gen.h ****     return (int32_t)v.num;
 116:H:/STM32H7/RGB_LVGL/Middlewares/LVGL/GUI/lvgl/src/core\lv_obj_style_gen.h **** }
 117:H:/STM32H7/RGB_LVGL/Middlewares/LVGL/GUI/lvgl/src/core\lv_obj_style_gen.h **** 
 118:H:/STM32H7/RGB_LVGL/Middlewares/LVGL/GUI/lvgl/src/core\lv_obj_style_gen.h **** static inline int32_t lv_obj_get_style_transform_scale_y(const lv_obj_t * obj, lv_part_t part)
 119:H:/STM32H7/RGB_LVGL/Middlewares/LVGL/GUI/lvgl/src/core\lv_obj_style_gen.h **** {
 120:H:/STM32H7/RGB_LVGL/Middlewares/LVGL/GUI/lvgl/src/core\lv_obj_style_gen.h ****     lv_style_value_t v = lv_obj_get_style_prop(obj, part, LV_STYLE_TRANSFORM_SCALE_Y);
 121:H:/STM32H7/RGB_LVGL/Middlewares/LVGL/GUI/lvgl/src/core\lv_obj_style_gen.h ****     return (int32_t)v.num;
 122:H:/STM32H7/RGB_LVGL/Middlewares/LVGL/GUI/lvgl/src/core\lv_obj_style_gen.h **** }
 123:H:/STM32H7/RGB_LVGL/Middlewares/LVGL/GUI/lvgl/src/core\lv_obj_style_gen.h **** 
 124:H:/STM32H7/RGB_LVGL/Middlewares/LVGL/GUI/lvgl/src/core\lv_obj_style_gen.h **** static inline int32_t lv_obj_get_style_transform_rotation(const lv_obj_t * obj, lv_part_t part)
 125:H:/STM32H7/RGB_LVGL/Middlewares/LVGL/GUI/lvgl/src/core\lv_obj_style_gen.h **** {
ARM GAS  C:\Users\28576\AppData\Local\Temp\ccV3XjXD.s 			page 24


 126:H:/STM32H7/RGB_LVGL/Middlewares/LVGL/GUI/lvgl/src/core\lv_obj_style_gen.h ****     lv_style_value_t v = lv_obj_get_style_prop(obj, part, LV_STYLE_TRANSFORM_ROTATION);
 127:H:/STM32H7/RGB_LVGL/Middlewares/LVGL/GUI/lvgl/src/core\lv_obj_style_gen.h ****     return (int32_t)v.num;
 128:H:/STM32H7/RGB_LVGL/Middlewares/LVGL/GUI/lvgl/src/core\lv_obj_style_gen.h **** }
 129:H:/STM32H7/RGB_LVGL/Middlewares/LVGL/GUI/lvgl/src/core\lv_obj_style_gen.h **** 
 130:H:/STM32H7/RGB_LVGL/Middlewares/LVGL/GUI/lvgl/src/core\lv_obj_style_gen.h **** static inline int32_t lv_obj_get_style_transform_pivot_x(const lv_obj_t * obj, lv_part_t part)
 131:H:/STM32H7/RGB_LVGL/Middlewares/LVGL/GUI/lvgl/src/core\lv_obj_style_gen.h **** {
 132:H:/STM32H7/RGB_LVGL/Middlewares/LVGL/GUI/lvgl/src/core\lv_obj_style_gen.h ****     lv_style_value_t v = lv_obj_get_style_prop(obj, part, LV_STYLE_TRANSFORM_PIVOT_X);
 133:H:/STM32H7/RGB_LVGL/Middlewares/LVGL/GUI/lvgl/src/core\lv_obj_style_gen.h ****     return (int32_t)v.num;
 134:H:/STM32H7/RGB_LVGL/Middlewares/LVGL/GUI/lvgl/src/core\lv_obj_style_gen.h **** }
 135:H:/STM32H7/RGB_LVGL/Middlewares/LVGL/GUI/lvgl/src/core\lv_obj_style_gen.h **** 
 136:H:/STM32H7/RGB_LVGL/Middlewares/LVGL/GUI/lvgl/src/core\lv_obj_style_gen.h **** static inline int32_t lv_obj_get_style_transform_pivot_y(const lv_obj_t * obj, lv_part_t part)
 137:H:/STM32H7/RGB_LVGL/Middlewares/LVGL/GUI/lvgl/src/core\lv_obj_style_gen.h **** {
 138:H:/STM32H7/RGB_LVGL/Middlewares/LVGL/GUI/lvgl/src/core\lv_obj_style_gen.h ****     lv_style_value_t v = lv_obj_get_style_prop(obj, part, LV_STYLE_TRANSFORM_PIVOT_Y);
 139:H:/STM32H7/RGB_LVGL/Middlewares/LVGL/GUI/lvgl/src/core\lv_obj_style_gen.h ****     return (int32_t)v.num;
 140:H:/STM32H7/RGB_LVGL/Middlewares/LVGL/GUI/lvgl/src/core\lv_obj_style_gen.h **** }
 141:H:/STM32H7/RGB_LVGL/Middlewares/LVGL/GUI/lvgl/src/core\lv_obj_style_gen.h **** 
 142:H:/STM32H7/RGB_LVGL/Middlewares/LVGL/GUI/lvgl/src/core\lv_obj_style_gen.h **** static inline int32_t lv_obj_get_style_transform_skew_x(const lv_obj_t * obj, lv_part_t part)
 143:H:/STM32H7/RGB_LVGL/Middlewares/LVGL/GUI/lvgl/src/core\lv_obj_style_gen.h **** {
 144:H:/STM32H7/RGB_LVGL/Middlewares/LVGL/GUI/lvgl/src/core\lv_obj_style_gen.h ****     lv_style_value_t v = lv_obj_get_style_prop(obj, part, LV_STYLE_TRANSFORM_SKEW_X);
 145:H:/STM32H7/RGB_LVGL/Middlewares/LVGL/GUI/lvgl/src/core\lv_obj_style_gen.h ****     return (int32_t)v.num;
 146:H:/STM32H7/RGB_LVGL/Middlewares/LVGL/GUI/lvgl/src/core\lv_obj_style_gen.h **** }
 147:H:/STM32H7/RGB_LVGL/Middlewares/LVGL/GUI/lvgl/src/core\lv_obj_style_gen.h **** 
 148:H:/STM32H7/RGB_LVGL/Middlewares/LVGL/GUI/lvgl/src/core\lv_obj_style_gen.h **** static inline int32_t lv_obj_get_style_transform_skew_y(const lv_obj_t * obj, lv_part_t part)
 149:H:/STM32H7/RGB_LVGL/Middlewares/LVGL/GUI/lvgl/src/core\lv_obj_style_gen.h **** {
 150:H:/STM32H7/RGB_LVGL/Middlewares/LVGL/GUI/lvgl/src/core\lv_obj_style_gen.h ****     lv_style_value_t v = lv_obj_get_style_prop(obj, part, LV_STYLE_TRANSFORM_SKEW_Y);
 151:H:/STM32H7/RGB_LVGL/Middlewares/LVGL/GUI/lvgl/src/core\lv_obj_style_gen.h ****     return (int32_t)v.num;
 152:H:/STM32H7/RGB_LVGL/Middlewares/LVGL/GUI/lvgl/src/core\lv_obj_style_gen.h **** }
 153:H:/STM32H7/RGB_LVGL/Middlewares/LVGL/GUI/lvgl/src/core\lv_obj_style_gen.h **** 
 154:H:/STM32H7/RGB_LVGL/Middlewares/LVGL/GUI/lvgl/src/core\lv_obj_style_gen.h **** static inline int32_t lv_obj_get_style_pad_top(const lv_obj_t * obj, lv_part_t part)
 155:H:/STM32H7/RGB_LVGL/Middlewares/LVGL/GUI/lvgl/src/core\lv_obj_style_gen.h **** {
 156:H:/STM32H7/RGB_LVGL/Middlewares/LVGL/GUI/lvgl/src/core\lv_obj_style_gen.h ****     lv_style_value_t v = lv_obj_get_style_prop(obj, part, LV_STYLE_PAD_TOP);
 157:H:/STM32H7/RGB_LVGL/Middlewares/LVGL/GUI/lvgl/src/core\lv_obj_style_gen.h ****     return (int32_t)v.num;
 158:H:/STM32H7/RGB_LVGL/Middlewares/LVGL/GUI/lvgl/src/core\lv_obj_style_gen.h **** }
 159:H:/STM32H7/RGB_LVGL/Middlewares/LVGL/GUI/lvgl/src/core\lv_obj_style_gen.h **** 
 160:H:/STM32H7/RGB_LVGL/Middlewares/LVGL/GUI/lvgl/src/core\lv_obj_style_gen.h **** static inline int32_t lv_obj_get_style_pad_bottom(const lv_obj_t * obj, lv_part_t part)
 161:H:/STM32H7/RGB_LVGL/Middlewares/LVGL/GUI/lvgl/src/core\lv_obj_style_gen.h **** {
 162:H:/STM32H7/RGB_LVGL/Middlewares/LVGL/GUI/lvgl/src/core\lv_obj_style_gen.h ****     lv_style_value_t v = lv_obj_get_style_prop(obj, part, LV_STYLE_PAD_BOTTOM);
 163:H:/STM32H7/RGB_LVGL/Middlewares/LVGL/GUI/lvgl/src/core\lv_obj_style_gen.h ****     return (int32_t)v.num;
 164:H:/STM32H7/RGB_LVGL/Middlewares/LVGL/GUI/lvgl/src/core\lv_obj_style_gen.h **** }
 165:H:/STM32H7/RGB_LVGL/Middlewares/LVGL/GUI/lvgl/src/core\lv_obj_style_gen.h **** 
 166:H:/STM32H7/RGB_LVGL/Middlewares/LVGL/GUI/lvgl/src/core\lv_obj_style_gen.h **** static inline int32_t lv_obj_get_style_pad_left(const lv_obj_t * obj, lv_part_t part)
 167:H:/STM32H7/RGB_LVGL/Middlewares/LVGL/GUI/lvgl/src/core\lv_obj_style_gen.h **** {
 168:H:/STM32H7/RGB_LVGL/Middlewares/LVGL/GUI/lvgl/src/core\lv_obj_style_gen.h ****     lv_style_value_t v = lv_obj_get_style_prop(obj, part, LV_STYLE_PAD_LEFT);
 169:H:/STM32H7/RGB_LVGL/Middlewares/LVGL/GUI/lvgl/src/core\lv_obj_style_gen.h ****     return (int32_t)v.num;
 170:H:/STM32H7/RGB_LVGL/Middlewares/LVGL/GUI/lvgl/src/core\lv_obj_style_gen.h **** }
 171:H:/STM32H7/RGB_LVGL/Middlewares/LVGL/GUI/lvgl/src/core\lv_obj_style_gen.h **** 
 172:H:/STM32H7/RGB_LVGL/Middlewares/LVGL/GUI/lvgl/src/core\lv_obj_style_gen.h **** static inline int32_t lv_obj_get_style_pad_right(const lv_obj_t * obj, lv_part_t part)
 173:H:/STM32H7/RGB_LVGL/Middlewares/LVGL/GUI/lvgl/src/core\lv_obj_style_gen.h **** {
 174:H:/STM32H7/RGB_LVGL/Middlewares/LVGL/GUI/lvgl/src/core\lv_obj_style_gen.h ****     lv_style_value_t v = lv_obj_get_style_prop(obj, part, LV_STYLE_PAD_RIGHT);
 175:H:/STM32H7/RGB_LVGL/Middlewares/LVGL/GUI/lvgl/src/core\lv_obj_style_gen.h ****     return (int32_t)v.num;
 176:H:/STM32H7/RGB_LVGL/Middlewares/LVGL/GUI/lvgl/src/core\lv_obj_style_gen.h **** }
 177:H:/STM32H7/RGB_LVGL/Middlewares/LVGL/GUI/lvgl/src/core\lv_obj_style_gen.h **** 
 178:H:/STM32H7/RGB_LVGL/Middlewares/LVGL/GUI/lvgl/src/core\lv_obj_style_gen.h **** static inline int32_t lv_obj_get_style_pad_row(const lv_obj_t * obj, lv_part_t part)
 179:H:/STM32H7/RGB_LVGL/Middlewares/LVGL/GUI/lvgl/src/core\lv_obj_style_gen.h **** {
 180:H:/STM32H7/RGB_LVGL/Middlewares/LVGL/GUI/lvgl/src/core\lv_obj_style_gen.h ****     lv_style_value_t v = lv_obj_get_style_prop(obj, part, LV_STYLE_PAD_ROW);
 181:H:/STM32H7/RGB_LVGL/Middlewares/LVGL/GUI/lvgl/src/core\lv_obj_style_gen.h ****     return (int32_t)v.num;
 182:H:/STM32H7/RGB_LVGL/Middlewares/LVGL/GUI/lvgl/src/core\lv_obj_style_gen.h **** }
ARM GAS  C:\Users\28576\AppData\Local\Temp\ccV3XjXD.s 			page 25


 183:H:/STM32H7/RGB_LVGL/Middlewares/LVGL/GUI/lvgl/src/core\lv_obj_style_gen.h **** 
 184:H:/STM32H7/RGB_LVGL/Middlewares/LVGL/GUI/lvgl/src/core\lv_obj_style_gen.h **** static inline int32_t lv_obj_get_style_pad_column(const lv_obj_t * obj, lv_part_t part)
 185:H:/STM32H7/RGB_LVGL/Middlewares/LVGL/GUI/lvgl/src/core\lv_obj_style_gen.h **** {
 186:H:/STM32H7/RGB_LVGL/Middlewares/LVGL/GUI/lvgl/src/core\lv_obj_style_gen.h ****     lv_style_value_t v = lv_obj_get_style_prop(obj, part, LV_STYLE_PAD_COLUMN);
 187:H:/STM32H7/RGB_LVGL/Middlewares/LVGL/GUI/lvgl/src/core\lv_obj_style_gen.h ****     return (int32_t)v.num;
 188:H:/STM32H7/RGB_LVGL/Middlewares/LVGL/GUI/lvgl/src/core\lv_obj_style_gen.h **** }
 189:H:/STM32H7/RGB_LVGL/Middlewares/LVGL/GUI/lvgl/src/core\lv_obj_style_gen.h **** 
 190:H:/STM32H7/RGB_LVGL/Middlewares/LVGL/GUI/lvgl/src/core\lv_obj_style_gen.h **** static inline int32_t lv_obj_get_style_pad_radial(const lv_obj_t * obj, lv_part_t part)
 191:H:/STM32H7/RGB_LVGL/Middlewares/LVGL/GUI/lvgl/src/core\lv_obj_style_gen.h **** {
 192:H:/STM32H7/RGB_LVGL/Middlewares/LVGL/GUI/lvgl/src/core\lv_obj_style_gen.h ****     lv_style_value_t v = lv_obj_get_style_prop(obj, part, LV_STYLE_PAD_RADIAL);
 193:H:/STM32H7/RGB_LVGL/Middlewares/LVGL/GUI/lvgl/src/core\lv_obj_style_gen.h ****     return (int32_t)v.num;
 194:H:/STM32H7/RGB_LVGL/Middlewares/LVGL/GUI/lvgl/src/core\lv_obj_style_gen.h **** }
 195:H:/STM32H7/RGB_LVGL/Middlewares/LVGL/GUI/lvgl/src/core\lv_obj_style_gen.h **** 
 196:H:/STM32H7/RGB_LVGL/Middlewares/LVGL/GUI/lvgl/src/core\lv_obj_style_gen.h **** static inline int32_t lv_obj_get_style_margin_top(const lv_obj_t * obj, lv_part_t part)
 197:H:/STM32H7/RGB_LVGL/Middlewares/LVGL/GUI/lvgl/src/core\lv_obj_style_gen.h **** {
 198:H:/STM32H7/RGB_LVGL/Middlewares/LVGL/GUI/lvgl/src/core\lv_obj_style_gen.h ****     lv_style_value_t v = lv_obj_get_style_prop(obj, part, LV_STYLE_MARGIN_TOP);
 199:H:/STM32H7/RGB_LVGL/Middlewares/LVGL/GUI/lvgl/src/core\lv_obj_style_gen.h ****     return (int32_t)v.num;
 200:H:/STM32H7/RGB_LVGL/Middlewares/LVGL/GUI/lvgl/src/core\lv_obj_style_gen.h **** }
 201:H:/STM32H7/RGB_LVGL/Middlewares/LVGL/GUI/lvgl/src/core\lv_obj_style_gen.h **** 
 202:H:/STM32H7/RGB_LVGL/Middlewares/LVGL/GUI/lvgl/src/core\lv_obj_style_gen.h **** static inline int32_t lv_obj_get_style_margin_bottom(const lv_obj_t * obj, lv_part_t part)
 203:H:/STM32H7/RGB_LVGL/Middlewares/LVGL/GUI/lvgl/src/core\lv_obj_style_gen.h **** {
 204:H:/STM32H7/RGB_LVGL/Middlewares/LVGL/GUI/lvgl/src/core\lv_obj_style_gen.h ****     lv_style_value_t v = lv_obj_get_style_prop(obj, part, LV_STYLE_MARGIN_BOTTOM);
 205:H:/STM32H7/RGB_LVGL/Middlewares/LVGL/GUI/lvgl/src/core\lv_obj_style_gen.h ****     return (int32_t)v.num;
 206:H:/STM32H7/RGB_LVGL/Middlewares/LVGL/GUI/lvgl/src/core\lv_obj_style_gen.h **** }
 207:H:/STM32H7/RGB_LVGL/Middlewares/LVGL/GUI/lvgl/src/core\lv_obj_style_gen.h **** 
 208:H:/STM32H7/RGB_LVGL/Middlewares/LVGL/GUI/lvgl/src/core\lv_obj_style_gen.h **** static inline int32_t lv_obj_get_style_margin_left(const lv_obj_t * obj, lv_part_t part)
 209:H:/STM32H7/RGB_LVGL/Middlewares/LVGL/GUI/lvgl/src/core\lv_obj_style_gen.h **** {
 210:H:/STM32H7/RGB_LVGL/Middlewares/LVGL/GUI/lvgl/src/core\lv_obj_style_gen.h ****     lv_style_value_t v = lv_obj_get_style_prop(obj, part, LV_STYLE_MARGIN_LEFT);
 211:H:/STM32H7/RGB_LVGL/Middlewares/LVGL/GUI/lvgl/src/core\lv_obj_style_gen.h ****     return (int32_t)v.num;
 212:H:/STM32H7/RGB_LVGL/Middlewares/LVGL/GUI/lvgl/src/core\lv_obj_style_gen.h **** }
 213:H:/STM32H7/RGB_LVGL/Middlewares/LVGL/GUI/lvgl/src/core\lv_obj_style_gen.h **** 
 214:H:/STM32H7/RGB_LVGL/Middlewares/LVGL/GUI/lvgl/src/core\lv_obj_style_gen.h **** static inline int32_t lv_obj_get_style_margin_right(const lv_obj_t * obj, lv_part_t part)
 215:H:/STM32H7/RGB_LVGL/Middlewares/LVGL/GUI/lvgl/src/core\lv_obj_style_gen.h **** {
 216:H:/STM32H7/RGB_LVGL/Middlewares/LVGL/GUI/lvgl/src/core\lv_obj_style_gen.h ****     lv_style_value_t v = lv_obj_get_style_prop(obj, part, LV_STYLE_MARGIN_RIGHT);
 217:H:/STM32H7/RGB_LVGL/Middlewares/LVGL/GUI/lvgl/src/core\lv_obj_style_gen.h ****     return (int32_t)v.num;
 218:H:/STM32H7/RGB_LVGL/Middlewares/LVGL/GUI/lvgl/src/core\lv_obj_style_gen.h **** }
 219:H:/STM32H7/RGB_LVGL/Middlewares/LVGL/GUI/lvgl/src/core\lv_obj_style_gen.h **** 
 220:H:/STM32H7/RGB_LVGL/Middlewares/LVGL/GUI/lvgl/src/core\lv_obj_style_gen.h **** static inline lv_color_t lv_obj_get_style_bg_color(const lv_obj_t * obj, lv_part_t part)
 221:H:/STM32H7/RGB_LVGL/Middlewares/LVGL/GUI/lvgl/src/core\lv_obj_style_gen.h **** {
 222:H:/STM32H7/RGB_LVGL/Middlewares/LVGL/GUI/lvgl/src/core\lv_obj_style_gen.h ****     lv_style_value_t v = lv_obj_get_style_prop(obj, part, LV_STYLE_BG_COLOR);
 223:H:/STM32H7/RGB_LVGL/Middlewares/LVGL/GUI/lvgl/src/core\lv_obj_style_gen.h ****     return v.color;
 224:H:/STM32H7/RGB_LVGL/Middlewares/LVGL/GUI/lvgl/src/core\lv_obj_style_gen.h **** }
 225:H:/STM32H7/RGB_LVGL/Middlewares/LVGL/GUI/lvgl/src/core\lv_obj_style_gen.h **** 
 226:H:/STM32H7/RGB_LVGL/Middlewares/LVGL/GUI/lvgl/src/core\lv_obj_style_gen.h **** static inline lv_color_t lv_obj_get_style_bg_color_filtered(const lv_obj_t * obj, lv_part_t part)
 227:H:/STM32H7/RGB_LVGL/Middlewares/LVGL/GUI/lvgl/src/core\lv_obj_style_gen.h **** {
 228:H:/STM32H7/RGB_LVGL/Middlewares/LVGL/GUI/lvgl/src/core\lv_obj_style_gen.h ****     lv_style_value_t v = lv_obj_style_apply_color_filter(obj, part, lv_obj_get_style_prop(obj, part
 229:H:/STM32H7/RGB_LVGL/Middlewares/LVGL/GUI/lvgl/src/core\lv_obj_style_gen.h ****     return v.color;
 230:H:/STM32H7/RGB_LVGL/Middlewares/LVGL/GUI/lvgl/src/core\lv_obj_style_gen.h **** }
 231:H:/STM32H7/RGB_LVGL/Middlewares/LVGL/GUI/lvgl/src/core\lv_obj_style_gen.h **** 
 232:H:/STM32H7/RGB_LVGL/Middlewares/LVGL/GUI/lvgl/src/core\lv_obj_style_gen.h **** static inline lv_opa_t lv_obj_get_style_bg_opa(const lv_obj_t * obj, lv_part_t part)
 233:H:/STM32H7/RGB_LVGL/Middlewares/LVGL/GUI/lvgl/src/core\lv_obj_style_gen.h **** {
 234:H:/STM32H7/RGB_LVGL/Middlewares/LVGL/GUI/lvgl/src/core\lv_obj_style_gen.h ****     lv_style_value_t v = lv_obj_get_style_prop(obj, part, LV_STYLE_BG_OPA);
 235:H:/STM32H7/RGB_LVGL/Middlewares/LVGL/GUI/lvgl/src/core\lv_obj_style_gen.h ****     return (lv_opa_t)v.num;
 236:H:/STM32H7/RGB_LVGL/Middlewares/LVGL/GUI/lvgl/src/core\lv_obj_style_gen.h **** }
 237:H:/STM32H7/RGB_LVGL/Middlewares/LVGL/GUI/lvgl/src/core\lv_obj_style_gen.h **** 
 238:H:/STM32H7/RGB_LVGL/Middlewares/LVGL/GUI/lvgl/src/core\lv_obj_style_gen.h **** static inline lv_color_t lv_obj_get_style_bg_grad_color(const lv_obj_t * obj, lv_part_t part)
 239:H:/STM32H7/RGB_LVGL/Middlewares/LVGL/GUI/lvgl/src/core\lv_obj_style_gen.h **** {
ARM GAS  C:\Users\28576\AppData\Local\Temp\ccV3XjXD.s 			page 26


 240:H:/STM32H7/RGB_LVGL/Middlewares/LVGL/GUI/lvgl/src/core\lv_obj_style_gen.h ****     lv_style_value_t v = lv_obj_get_style_prop(obj, part, LV_STYLE_BG_GRAD_COLOR);
 241:H:/STM32H7/RGB_LVGL/Middlewares/LVGL/GUI/lvgl/src/core\lv_obj_style_gen.h ****     return v.color;
 242:H:/STM32H7/RGB_LVGL/Middlewares/LVGL/GUI/lvgl/src/core\lv_obj_style_gen.h **** }
 243:H:/STM32H7/RGB_LVGL/Middlewares/LVGL/GUI/lvgl/src/core\lv_obj_style_gen.h **** 
 244:H:/STM32H7/RGB_LVGL/Middlewares/LVGL/GUI/lvgl/src/core\lv_obj_style_gen.h **** static inline lv_color_t lv_obj_get_style_bg_grad_color_filtered(const lv_obj_t * obj, lv_part_t pa
 245:H:/STM32H7/RGB_LVGL/Middlewares/LVGL/GUI/lvgl/src/core\lv_obj_style_gen.h **** {
 246:H:/STM32H7/RGB_LVGL/Middlewares/LVGL/GUI/lvgl/src/core\lv_obj_style_gen.h ****     lv_style_value_t v = lv_obj_style_apply_color_filter(obj, part, lv_obj_get_style_prop(obj, part
 247:H:/STM32H7/RGB_LVGL/Middlewares/LVGL/GUI/lvgl/src/core\lv_obj_style_gen.h ****     return v.color;
 248:H:/STM32H7/RGB_LVGL/Middlewares/LVGL/GUI/lvgl/src/core\lv_obj_style_gen.h **** }
 249:H:/STM32H7/RGB_LVGL/Middlewares/LVGL/GUI/lvgl/src/core\lv_obj_style_gen.h **** 
 250:H:/STM32H7/RGB_LVGL/Middlewares/LVGL/GUI/lvgl/src/core\lv_obj_style_gen.h **** static inline lv_grad_dir_t lv_obj_get_style_bg_grad_dir(const lv_obj_t * obj, lv_part_t part)
 251:H:/STM32H7/RGB_LVGL/Middlewares/LVGL/GUI/lvgl/src/core\lv_obj_style_gen.h **** {
 252:H:/STM32H7/RGB_LVGL/Middlewares/LVGL/GUI/lvgl/src/core\lv_obj_style_gen.h ****     lv_style_value_t v = lv_obj_get_style_prop(obj, part, LV_STYLE_BG_GRAD_DIR);
 253:H:/STM32H7/RGB_LVGL/Middlewares/LVGL/GUI/lvgl/src/core\lv_obj_style_gen.h ****     return (lv_grad_dir_t)v.num;
 254:H:/STM32H7/RGB_LVGL/Middlewares/LVGL/GUI/lvgl/src/core\lv_obj_style_gen.h **** }
 255:H:/STM32H7/RGB_LVGL/Middlewares/LVGL/GUI/lvgl/src/core\lv_obj_style_gen.h **** 
 256:H:/STM32H7/RGB_LVGL/Middlewares/LVGL/GUI/lvgl/src/core\lv_obj_style_gen.h **** static inline int32_t lv_obj_get_style_bg_main_stop(const lv_obj_t * obj, lv_part_t part)
 257:H:/STM32H7/RGB_LVGL/Middlewares/LVGL/GUI/lvgl/src/core\lv_obj_style_gen.h **** {
 258:H:/STM32H7/RGB_LVGL/Middlewares/LVGL/GUI/lvgl/src/core\lv_obj_style_gen.h ****     lv_style_value_t v = lv_obj_get_style_prop(obj, part, LV_STYLE_BG_MAIN_STOP);
 259:H:/STM32H7/RGB_LVGL/Middlewares/LVGL/GUI/lvgl/src/core\lv_obj_style_gen.h ****     return (int32_t)v.num;
 260:H:/STM32H7/RGB_LVGL/Middlewares/LVGL/GUI/lvgl/src/core\lv_obj_style_gen.h **** }
 261:H:/STM32H7/RGB_LVGL/Middlewares/LVGL/GUI/lvgl/src/core\lv_obj_style_gen.h **** 
 262:H:/STM32H7/RGB_LVGL/Middlewares/LVGL/GUI/lvgl/src/core\lv_obj_style_gen.h **** static inline int32_t lv_obj_get_style_bg_grad_stop(const lv_obj_t * obj, lv_part_t part)
 263:H:/STM32H7/RGB_LVGL/Middlewares/LVGL/GUI/lvgl/src/core\lv_obj_style_gen.h **** {
 264:H:/STM32H7/RGB_LVGL/Middlewares/LVGL/GUI/lvgl/src/core\lv_obj_style_gen.h ****     lv_style_value_t v = lv_obj_get_style_prop(obj, part, LV_STYLE_BG_GRAD_STOP);
 265:H:/STM32H7/RGB_LVGL/Middlewares/LVGL/GUI/lvgl/src/core\lv_obj_style_gen.h ****     return (int32_t)v.num;
 266:H:/STM32H7/RGB_LVGL/Middlewares/LVGL/GUI/lvgl/src/core\lv_obj_style_gen.h **** }
 267:H:/STM32H7/RGB_LVGL/Middlewares/LVGL/GUI/lvgl/src/core\lv_obj_style_gen.h **** 
 268:H:/STM32H7/RGB_LVGL/Middlewares/LVGL/GUI/lvgl/src/core\lv_obj_style_gen.h **** static inline lv_opa_t lv_obj_get_style_bg_main_opa(const lv_obj_t * obj, lv_part_t part)
 269:H:/STM32H7/RGB_LVGL/Middlewares/LVGL/GUI/lvgl/src/core\lv_obj_style_gen.h **** {
 270:H:/STM32H7/RGB_LVGL/Middlewares/LVGL/GUI/lvgl/src/core\lv_obj_style_gen.h ****     lv_style_value_t v = lv_obj_get_style_prop(obj, part, LV_STYLE_BG_MAIN_OPA);
 271:H:/STM32H7/RGB_LVGL/Middlewares/LVGL/GUI/lvgl/src/core\lv_obj_style_gen.h ****     return (lv_opa_t)v.num;
 272:H:/STM32H7/RGB_LVGL/Middlewares/LVGL/GUI/lvgl/src/core\lv_obj_style_gen.h **** }
 273:H:/STM32H7/RGB_LVGL/Middlewares/LVGL/GUI/lvgl/src/core\lv_obj_style_gen.h **** 
 274:H:/STM32H7/RGB_LVGL/Middlewares/LVGL/GUI/lvgl/src/core\lv_obj_style_gen.h **** static inline lv_opa_t lv_obj_get_style_bg_grad_opa(const lv_obj_t * obj, lv_part_t part)
 275:H:/STM32H7/RGB_LVGL/Middlewares/LVGL/GUI/lvgl/src/core\lv_obj_style_gen.h **** {
 276:H:/STM32H7/RGB_LVGL/Middlewares/LVGL/GUI/lvgl/src/core\lv_obj_style_gen.h ****     lv_style_value_t v = lv_obj_get_style_prop(obj, part, LV_STYLE_BG_GRAD_OPA);
 277:H:/STM32H7/RGB_LVGL/Middlewares/LVGL/GUI/lvgl/src/core\lv_obj_style_gen.h ****     return (lv_opa_t)v.num;
 278:H:/STM32H7/RGB_LVGL/Middlewares/LVGL/GUI/lvgl/src/core\lv_obj_style_gen.h **** }
 279:H:/STM32H7/RGB_LVGL/Middlewares/LVGL/GUI/lvgl/src/core\lv_obj_style_gen.h **** 
 280:H:/STM32H7/RGB_LVGL/Middlewares/LVGL/GUI/lvgl/src/core\lv_obj_style_gen.h **** static inline const lv_grad_dsc_t * lv_obj_get_style_bg_grad(const lv_obj_t * obj, lv_part_t part)
 281:H:/STM32H7/RGB_LVGL/Middlewares/LVGL/GUI/lvgl/src/core\lv_obj_style_gen.h **** {
 282:H:/STM32H7/RGB_LVGL/Middlewares/LVGL/GUI/lvgl/src/core\lv_obj_style_gen.h ****     lv_style_value_t v = lv_obj_get_style_prop(obj, part, LV_STYLE_BG_GRAD);
 283:H:/STM32H7/RGB_LVGL/Middlewares/LVGL/GUI/lvgl/src/core\lv_obj_style_gen.h ****     return (const lv_grad_dsc_t *)v.ptr;
 284:H:/STM32H7/RGB_LVGL/Middlewares/LVGL/GUI/lvgl/src/core\lv_obj_style_gen.h **** }
 285:H:/STM32H7/RGB_LVGL/Middlewares/LVGL/GUI/lvgl/src/core\lv_obj_style_gen.h **** 
 286:H:/STM32H7/RGB_LVGL/Middlewares/LVGL/GUI/lvgl/src/core\lv_obj_style_gen.h **** static inline const void * lv_obj_get_style_bg_image_src(const lv_obj_t * obj, lv_part_t part)
 287:H:/STM32H7/RGB_LVGL/Middlewares/LVGL/GUI/lvgl/src/core\lv_obj_style_gen.h **** {
 288:H:/STM32H7/RGB_LVGL/Middlewares/LVGL/GUI/lvgl/src/core\lv_obj_style_gen.h ****     lv_style_value_t v = lv_obj_get_style_prop(obj, part, LV_STYLE_BG_IMAGE_SRC);
 289:H:/STM32H7/RGB_LVGL/Middlewares/LVGL/GUI/lvgl/src/core\lv_obj_style_gen.h ****     return (const void *)v.ptr;
 290:H:/STM32H7/RGB_LVGL/Middlewares/LVGL/GUI/lvgl/src/core\lv_obj_style_gen.h **** }
 291:H:/STM32H7/RGB_LVGL/Middlewares/LVGL/GUI/lvgl/src/core\lv_obj_style_gen.h **** 
 292:H:/STM32H7/RGB_LVGL/Middlewares/LVGL/GUI/lvgl/src/core\lv_obj_style_gen.h **** static inline lv_opa_t lv_obj_get_style_bg_image_opa(const lv_obj_t * obj, lv_part_t part)
 293:H:/STM32H7/RGB_LVGL/Middlewares/LVGL/GUI/lvgl/src/core\lv_obj_style_gen.h **** {
 294:H:/STM32H7/RGB_LVGL/Middlewares/LVGL/GUI/lvgl/src/core\lv_obj_style_gen.h ****     lv_style_value_t v = lv_obj_get_style_prop(obj, part, LV_STYLE_BG_IMAGE_OPA);
 295:H:/STM32H7/RGB_LVGL/Middlewares/LVGL/GUI/lvgl/src/core\lv_obj_style_gen.h ****     return (lv_opa_t)v.num;
 296:H:/STM32H7/RGB_LVGL/Middlewares/LVGL/GUI/lvgl/src/core\lv_obj_style_gen.h **** }
ARM GAS  C:\Users\28576\AppData\Local\Temp\ccV3XjXD.s 			page 27


 297:H:/STM32H7/RGB_LVGL/Middlewares/LVGL/GUI/lvgl/src/core\lv_obj_style_gen.h **** 
 298:H:/STM32H7/RGB_LVGL/Middlewares/LVGL/GUI/lvgl/src/core\lv_obj_style_gen.h **** static inline lv_color_t lv_obj_get_style_bg_image_recolor(const lv_obj_t * obj, lv_part_t part)
 299:H:/STM32H7/RGB_LVGL/Middlewares/LVGL/GUI/lvgl/src/core\lv_obj_style_gen.h **** {
 300:H:/STM32H7/RGB_LVGL/Middlewares/LVGL/GUI/lvgl/src/core\lv_obj_style_gen.h ****     lv_style_value_t v = lv_obj_get_style_prop(obj, part, LV_STYLE_BG_IMAGE_RECOLOR);
 301:H:/STM32H7/RGB_LVGL/Middlewares/LVGL/GUI/lvgl/src/core\lv_obj_style_gen.h ****     return v.color;
 302:H:/STM32H7/RGB_LVGL/Middlewares/LVGL/GUI/lvgl/src/core\lv_obj_style_gen.h **** }
 303:H:/STM32H7/RGB_LVGL/Middlewares/LVGL/GUI/lvgl/src/core\lv_obj_style_gen.h **** 
 304:H:/STM32H7/RGB_LVGL/Middlewares/LVGL/GUI/lvgl/src/core\lv_obj_style_gen.h **** static inline lv_color_t lv_obj_get_style_bg_image_recolor_filtered(const lv_obj_t * obj, lv_part_t
 305:H:/STM32H7/RGB_LVGL/Middlewares/LVGL/GUI/lvgl/src/core\lv_obj_style_gen.h **** {
 306:H:/STM32H7/RGB_LVGL/Middlewares/LVGL/GUI/lvgl/src/core\lv_obj_style_gen.h ****     lv_style_value_t v = lv_obj_style_apply_color_filter(obj, part, lv_obj_get_style_prop(obj, part
 307:H:/STM32H7/RGB_LVGL/Middlewares/LVGL/GUI/lvgl/src/core\lv_obj_style_gen.h ****     return v.color;
 308:H:/STM32H7/RGB_LVGL/Middlewares/LVGL/GUI/lvgl/src/core\lv_obj_style_gen.h **** }
 309:H:/STM32H7/RGB_LVGL/Middlewares/LVGL/GUI/lvgl/src/core\lv_obj_style_gen.h **** 
 310:H:/STM32H7/RGB_LVGL/Middlewares/LVGL/GUI/lvgl/src/core\lv_obj_style_gen.h **** static inline lv_opa_t lv_obj_get_style_bg_image_recolor_opa(const lv_obj_t * obj, lv_part_t part)
 311:H:/STM32H7/RGB_LVGL/Middlewares/LVGL/GUI/lvgl/src/core\lv_obj_style_gen.h **** {
 312:H:/STM32H7/RGB_LVGL/Middlewares/LVGL/GUI/lvgl/src/core\lv_obj_style_gen.h ****     lv_style_value_t v = lv_obj_get_style_prop(obj, part, LV_STYLE_BG_IMAGE_RECOLOR_OPA);
 313:H:/STM32H7/RGB_LVGL/Middlewares/LVGL/GUI/lvgl/src/core\lv_obj_style_gen.h ****     return (lv_opa_t)v.num;
 314:H:/STM32H7/RGB_LVGL/Middlewares/LVGL/GUI/lvgl/src/core\lv_obj_style_gen.h **** }
 315:H:/STM32H7/RGB_LVGL/Middlewares/LVGL/GUI/lvgl/src/core\lv_obj_style_gen.h **** 
 316:H:/STM32H7/RGB_LVGL/Middlewares/LVGL/GUI/lvgl/src/core\lv_obj_style_gen.h **** static inline bool lv_obj_get_style_bg_image_tiled(const lv_obj_t * obj, lv_part_t part)
 317:H:/STM32H7/RGB_LVGL/Middlewares/LVGL/GUI/lvgl/src/core\lv_obj_style_gen.h **** {
 318:H:/STM32H7/RGB_LVGL/Middlewares/LVGL/GUI/lvgl/src/core\lv_obj_style_gen.h ****     lv_style_value_t v = lv_obj_get_style_prop(obj, part, LV_STYLE_BG_IMAGE_TILED);
 319:H:/STM32H7/RGB_LVGL/Middlewares/LVGL/GUI/lvgl/src/core\lv_obj_style_gen.h ****     return (bool)v.num;
 320:H:/STM32H7/RGB_LVGL/Middlewares/LVGL/GUI/lvgl/src/core\lv_obj_style_gen.h **** }
 321:H:/STM32H7/RGB_LVGL/Middlewares/LVGL/GUI/lvgl/src/core\lv_obj_style_gen.h **** 
 322:H:/STM32H7/RGB_LVGL/Middlewares/LVGL/GUI/lvgl/src/core\lv_obj_style_gen.h **** static inline lv_color_t lv_obj_get_style_border_color(const lv_obj_t * obj, lv_part_t part)
 323:H:/STM32H7/RGB_LVGL/Middlewares/LVGL/GUI/lvgl/src/core\lv_obj_style_gen.h **** {
 324:H:/STM32H7/RGB_LVGL/Middlewares/LVGL/GUI/lvgl/src/core\lv_obj_style_gen.h ****     lv_style_value_t v = lv_obj_get_style_prop(obj, part, LV_STYLE_BORDER_COLOR);
 325:H:/STM32H7/RGB_LVGL/Middlewares/LVGL/GUI/lvgl/src/core\lv_obj_style_gen.h ****     return v.color;
 326:H:/STM32H7/RGB_LVGL/Middlewares/LVGL/GUI/lvgl/src/core\lv_obj_style_gen.h **** }
 327:H:/STM32H7/RGB_LVGL/Middlewares/LVGL/GUI/lvgl/src/core\lv_obj_style_gen.h **** 
 328:H:/STM32H7/RGB_LVGL/Middlewares/LVGL/GUI/lvgl/src/core\lv_obj_style_gen.h **** static inline lv_color_t lv_obj_get_style_border_color_filtered(const lv_obj_t * obj, lv_part_t par
 329:H:/STM32H7/RGB_LVGL/Middlewares/LVGL/GUI/lvgl/src/core\lv_obj_style_gen.h **** {
 330:H:/STM32H7/RGB_LVGL/Middlewares/LVGL/GUI/lvgl/src/core\lv_obj_style_gen.h ****     lv_style_value_t v = lv_obj_style_apply_color_filter(obj, part, lv_obj_get_style_prop(obj, part
 331:H:/STM32H7/RGB_LVGL/Middlewares/LVGL/GUI/lvgl/src/core\lv_obj_style_gen.h ****     return v.color;
 332:H:/STM32H7/RGB_LVGL/Middlewares/LVGL/GUI/lvgl/src/core\lv_obj_style_gen.h **** }
 333:H:/STM32H7/RGB_LVGL/Middlewares/LVGL/GUI/lvgl/src/core\lv_obj_style_gen.h **** 
 334:H:/STM32H7/RGB_LVGL/Middlewares/LVGL/GUI/lvgl/src/core\lv_obj_style_gen.h **** static inline lv_opa_t lv_obj_get_style_border_opa(const lv_obj_t * obj, lv_part_t part)
 335:H:/STM32H7/RGB_LVGL/Middlewares/LVGL/GUI/lvgl/src/core\lv_obj_style_gen.h **** {
 336:H:/STM32H7/RGB_LVGL/Middlewares/LVGL/GUI/lvgl/src/core\lv_obj_style_gen.h ****     lv_style_value_t v = lv_obj_get_style_prop(obj, part, LV_STYLE_BORDER_OPA);
 337:H:/STM32H7/RGB_LVGL/Middlewares/LVGL/GUI/lvgl/src/core\lv_obj_style_gen.h ****     return (lv_opa_t)v.num;
 338:H:/STM32H7/RGB_LVGL/Middlewares/LVGL/GUI/lvgl/src/core\lv_obj_style_gen.h **** }
 339:H:/STM32H7/RGB_LVGL/Middlewares/LVGL/GUI/lvgl/src/core\lv_obj_style_gen.h **** 
 340:H:/STM32H7/RGB_LVGL/Middlewares/LVGL/GUI/lvgl/src/core\lv_obj_style_gen.h **** static inline int32_t lv_obj_get_style_border_width(const lv_obj_t * obj, lv_part_t part)
 341:H:/STM32H7/RGB_LVGL/Middlewares/LVGL/GUI/lvgl/src/core\lv_obj_style_gen.h **** {
 342:H:/STM32H7/RGB_LVGL/Middlewares/LVGL/GUI/lvgl/src/core\lv_obj_style_gen.h ****     lv_style_value_t v = lv_obj_get_style_prop(obj, part, LV_STYLE_BORDER_WIDTH);
 343:H:/STM32H7/RGB_LVGL/Middlewares/LVGL/GUI/lvgl/src/core\lv_obj_style_gen.h ****     return (int32_t)v.num;
 344:H:/STM32H7/RGB_LVGL/Middlewares/LVGL/GUI/lvgl/src/core\lv_obj_style_gen.h **** }
 345:H:/STM32H7/RGB_LVGL/Middlewares/LVGL/GUI/lvgl/src/core\lv_obj_style_gen.h **** 
 346:H:/STM32H7/RGB_LVGL/Middlewares/LVGL/GUI/lvgl/src/core\lv_obj_style_gen.h **** static inline lv_border_side_t lv_obj_get_style_border_side(const lv_obj_t * obj, lv_part_t part)
 347:H:/STM32H7/RGB_LVGL/Middlewares/LVGL/GUI/lvgl/src/core\lv_obj_style_gen.h **** {
 348:H:/STM32H7/RGB_LVGL/Middlewares/LVGL/GUI/lvgl/src/core\lv_obj_style_gen.h ****     lv_style_value_t v = lv_obj_get_style_prop(obj, part, LV_STYLE_BORDER_SIDE);
 349:H:/STM32H7/RGB_LVGL/Middlewares/LVGL/GUI/lvgl/src/core\lv_obj_style_gen.h ****     return (lv_border_side_t)v.num;
 350:H:/STM32H7/RGB_LVGL/Middlewares/LVGL/GUI/lvgl/src/core\lv_obj_style_gen.h **** }
 351:H:/STM32H7/RGB_LVGL/Middlewares/LVGL/GUI/lvgl/src/core\lv_obj_style_gen.h **** 
 352:H:/STM32H7/RGB_LVGL/Middlewares/LVGL/GUI/lvgl/src/core\lv_obj_style_gen.h **** static inline bool lv_obj_get_style_border_post(const lv_obj_t * obj, lv_part_t part)
 353:H:/STM32H7/RGB_LVGL/Middlewares/LVGL/GUI/lvgl/src/core\lv_obj_style_gen.h **** {
ARM GAS  C:\Users\28576\AppData\Local\Temp\ccV3XjXD.s 			page 28


 354:H:/STM32H7/RGB_LVGL/Middlewares/LVGL/GUI/lvgl/src/core\lv_obj_style_gen.h ****     lv_style_value_t v = lv_obj_get_style_prop(obj, part, LV_STYLE_BORDER_POST);
 355:H:/STM32H7/RGB_LVGL/Middlewares/LVGL/GUI/lvgl/src/core\lv_obj_style_gen.h ****     return (bool)v.num;
 356:H:/STM32H7/RGB_LVGL/Middlewares/LVGL/GUI/lvgl/src/core\lv_obj_style_gen.h **** }
 357:H:/STM32H7/RGB_LVGL/Middlewares/LVGL/GUI/lvgl/src/core\lv_obj_style_gen.h **** 
 358:H:/STM32H7/RGB_LVGL/Middlewares/LVGL/GUI/lvgl/src/core\lv_obj_style_gen.h **** static inline int32_t lv_obj_get_style_outline_width(const lv_obj_t * obj, lv_part_t part)
 359:H:/STM32H7/RGB_LVGL/Middlewares/LVGL/GUI/lvgl/src/core\lv_obj_style_gen.h **** {
 360:H:/STM32H7/RGB_LVGL/Middlewares/LVGL/GUI/lvgl/src/core\lv_obj_style_gen.h ****     lv_style_value_t v = lv_obj_get_style_prop(obj, part, LV_STYLE_OUTLINE_WIDTH);
 361:H:/STM32H7/RGB_LVGL/Middlewares/LVGL/GUI/lvgl/src/core\lv_obj_style_gen.h ****     return (int32_t)v.num;
 362:H:/STM32H7/RGB_LVGL/Middlewares/LVGL/GUI/lvgl/src/core\lv_obj_style_gen.h **** }
 363:H:/STM32H7/RGB_LVGL/Middlewares/LVGL/GUI/lvgl/src/core\lv_obj_style_gen.h **** 
 364:H:/STM32H7/RGB_LVGL/Middlewares/LVGL/GUI/lvgl/src/core\lv_obj_style_gen.h **** static inline lv_color_t lv_obj_get_style_outline_color(const lv_obj_t * obj, lv_part_t part)
 365:H:/STM32H7/RGB_LVGL/Middlewares/LVGL/GUI/lvgl/src/core\lv_obj_style_gen.h **** {
 366:H:/STM32H7/RGB_LVGL/Middlewares/LVGL/GUI/lvgl/src/core\lv_obj_style_gen.h ****     lv_style_value_t v = lv_obj_get_style_prop(obj, part, LV_STYLE_OUTLINE_COLOR);
 367:H:/STM32H7/RGB_LVGL/Middlewares/LVGL/GUI/lvgl/src/core\lv_obj_style_gen.h ****     return v.color;
 368:H:/STM32H7/RGB_LVGL/Middlewares/LVGL/GUI/lvgl/src/core\lv_obj_style_gen.h **** }
 369:H:/STM32H7/RGB_LVGL/Middlewares/LVGL/GUI/lvgl/src/core\lv_obj_style_gen.h **** 
 370:H:/STM32H7/RGB_LVGL/Middlewares/LVGL/GUI/lvgl/src/core\lv_obj_style_gen.h **** static inline lv_color_t lv_obj_get_style_outline_color_filtered(const lv_obj_t * obj, lv_part_t pa
 371:H:/STM32H7/RGB_LVGL/Middlewares/LVGL/GUI/lvgl/src/core\lv_obj_style_gen.h **** {
 372:H:/STM32H7/RGB_LVGL/Middlewares/LVGL/GUI/lvgl/src/core\lv_obj_style_gen.h ****     lv_style_value_t v = lv_obj_style_apply_color_filter(obj, part, lv_obj_get_style_prop(obj, part
 373:H:/STM32H7/RGB_LVGL/Middlewares/LVGL/GUI/lvgl/src/core\lv_obj_style_gen.h ****     return v.color;
 374:H:/STM32H7/RGB_LVGL/Middlewares/LVGL/GUI/lvgl/src/core\lv_obj_style_gen.h **** }
 375:H:/STM32H7/RGB_LVGL/Middlewares/LVGL/GUI/lvgl/src/core\lv_obj_style_gen.h **** 
 376:H:/STM32H7/RGB_LVGL/Middlewares/LVGL/GUI/lvgl/src/core\lv_obj_style_gen.h **** static inline lv_opa_t lv_obj_get_style_outline_opa(const lv_obj_t * obj, lv_part_t part)
 377:H:/STM32H7/RGB_LVGL/Middlewares/LVGL/GUI/lvgl/src/core\lv_obj_style_gen.h **** {
 378:H:/STM32H7/RGB_LVGL/Middlewares/LVGL/GUI/lvgl/src/core\lv_obj_style_gen.h ****     lv_style_value_t v = lv_obj_get_style_prop(obj, part, LV_STYLE_OUTLINE_OPA);
 379:H:/STM32H7/RGB_LVGL/Middlewares/LVGL/GUI/lvgl/src/core\lv_obj_style_gen.h ****     return (lv_opa_t)v.num;
 380:H:/STM32H7/RGB_LVGL/Middlewares/LVGL/GUI/lvgl/src/core\lv_obj_style_gen.h **** }
 381:H:/STM32H7/RGB_LVGL/Middlewares/LVGL/GUI/lvgl/src/core\lv_obj_style_gen.h **** 
 382:H:/STM32H7/RGB_LVGL/Middlewares/LVGL/GUI/lvgl/src/core\lv_obj_style_gen.h **** static inline int32_t lv_obj_get_style_outline_pad(const lv_obj_t * obj, lv_part_t part)
 383:H:/STM32H7/RGB_LVGL/Middlewares/LVGL/GUI/lvgl/src/core\lv_obj_style_gen.h **** {
 384:H:/STM32H7/RGB_LVGL/Middlewares/LVGL/GUI/lvgl/src/core\lv_obj_style_gen.h ****     lv_style_value_t v = lv_obj_get_style_prop(obj, part, LV_STYLE_OUTLINE_PAD);
 385:H:/STM32H7/RGB_LVGL/Middlewares/LVGL/GUI/lvgl/src/core\lv_obj_style_gen.h ****     return (int32_t)v.num;
 386:H:/STM32H7/RGB_LVGL/Middlewares/LVGL/GUI/lvgl/src/core\lv_obj_style_gen.h **** }
 387:H:/STM32H7/RGB_LVGL/Middlewares/LVGL/GUI/lvgl/src/core\lv_obj_style_gen.h **** 
 388:H:/STM32H7/RGB_LVGL/Middlewares/LVGL/GUI/lvgl/src/core\lv_obj_style_gen.h **** static inline int32_t lv_obj_get_style_shadow_width(const lv_obj_t * obj, lv_part_t part)
 389:H:/STM32H7/RGB_LVGL/Middlewares/LVGL/GUI/lvgl/src/core\lv_obj_style_gen.h **** {
 390:H:/STM32H7/RGB_LVGL/Middlewares/LVGL/GUI/lvgl/src/core\lv_obj_style_gen.h ****     lv_style_value_t v = lv_obj_get_style_prop(obj, part, LV_STYLE_SHADOW_WIDTH);
 391:H:/STM32H7/RGB_LVGL/Middlewares/LVGL/GUI/lvgl/src/core\lv_obj_style_gen.h ****     return (int32_t)v.num;
 392:H:/STM32H7/RGB_LVGL/Middlewares/LVGL/GUI/lvgl/src/core\lv_obj_style_gen.h **** }
 393:H:/STM32H7/RGB_LVGL/Middlewares/LVGL/GUI/lvgl/src/core\lv_obj_style_gen.h **** 
 394:H:/STM32H7/RGB_LVGL/Middlewares/LVGL/GUI/lvgl/src/core\lv_obj_style_gen.h **** static inline int32_t lv_obj_get_style_shadow_offset_x(const lv_obj_t * obj, lv_part_t part)
 395:H:/STM32H7/RGB_LVGL/Middlewares/LVGL/GUI/lvgl/src/core\lv_obj_style_gen.h **** {
 396:H:/STM32H7/RGB_LVGL/Middlewares/LVGL/GUI/lvgl/src/core\lv_obj_style_gen.h ****     lv_style_value_t v = lv_obj_get_style_prop(obj, part, LV_STYLE_SHADOW_OFFSET_X);
 397:H:/STM32H7/RGB_LVGL/Middlewares/LVGL/GUI/lvgl/src/core\lv_obj_style_gen.h ****     return (int32_t)v.num;
 398:H:/STM32H7/RGB_LVGL/Middlewares/LVGL/GUI/lvgl/src/core\lv_obj_style_gen.h **** }
 399:H:/STM32H7/RGB_LVGL/Middlewares/LVGL/GUI/lvgl/src/core\lv_obj_style_gen.h **** 
 400:H:/STM32H7/RGB_LVGL/Middlewares/LVGL/GUI/lvgl/src/core\lv_obj_style_gen.h **** static inline int32_t lv_obj_get_style_shadow_offset_y(const lv_obj_t * obj, lv_part_t part)
 401:H:/STM32H7/RGB_LVGL/Middlewares/LVGL/GUI/lvgl/src/core\lv_obj_style_gen.h **** {
 402:H:/STM32H7/RGB_LVGL/Middlewares/LVGL/GUI/lvgl/src/core\lv_obj_style_gen.h ****     lv_style_value_t v = lv_obj_get_style_prop(obj, part, LV_STYLE_SHADOW_OFFSET_Y);
 403:H:/STM32H7/RGB_LVGL/Middlewares/LVGL/GUI/lvgl/src/core\lv_obj_style_gen.h ****     return (int32_t)v.num;
 404:H:/STM32H7/RGB_LVGL/Middlewares/LVGL/GUI/lvgl/src/core\lv_obj_style_gen.h **** }
 405:H:/STM32H7/RGB_LVGL/Middlewares/LVGL/GUI/lvgl/src/core\lv_obj_style_gen.h **** 
 406:H:/STM32H7/RGB_LVGL/Middlewares/LVGL/GUI/lvgl/src/core\lv_obj_style_gen.h **** static inline int32_t lv_obj_get_style_shadow_spread(const lv_obj_t * obj, lv_part_t part)
 407:H:/STM32H7/RGB_LVGL/Middlewares/LVGL/GUI/lvgl/src/core\lv_obj_style_gen.h **** {
 408:H:/STM32H7/RGB_LVGL/Middlewares/LVGL/GUI/lvgl/src/core\lv_obj_style_gen.h ****     lv_style_value_t v = lv_obj_get_style_prop(obj, part, LV_STYLE_SHADOW_SPREAD);
 409:H:/STM32H7/RGB_LVGL/Middlewares/LVGL/GUI/lvgl/src/core\lv_obj_style_gen.h ****     return (int32_t)v.num;
 410:H:/STM32H7/RGB_LVGL/Middlewares/LVGL/GUI/lvgl/src/core\lv_obj_style_gen.h **** }
ARM GAS  C:\Users\28576\AppData\Local\Temp\ccV3XjXD.s 			page 29


 411:H:/STM32H7/RGB_LVGL/Middlewares/LVGL/GUI/lvgl/src/core\lv_obj_style_gen.h **** 
 412:H:/STM32H7/RGB_LVGL/Middlewares/LVGL/GUI/lvgl/src/core\lv_obj_style_gen.h **** static inline lv_color_t lv_obj_get_style_shadow_color(const lv_obj_t * obj, lv_part_t part)
 413:H:/STM32H7/RGB_LVGL/Middlewares/LVGL/GUI/lvgl/src/core\lv_obj_style_gen.h **** {
 414:H:/STM32H7/RGB_LVGL/Middlewares/LVGL/GUI/lvgl/src/core\lv_obj_style_gen.h ****     lv_style_value_t v = lv_obj_get_style_prop(obj, part, LV_STYLE_SHADOW_COLOR);
 415:H:/STM32H7/RGB_LVGL/Middlewares/LVGL/GUI/lvgl/src/core\lv_obj_style_gen.h ****     return v.color;
 416:H:/STM32H7/RGB_LVGL/Middlewares/LVGL/GUI/lvgl/src/core\lv_obj_style_gen.h **** }
 417:H:/STM32H7/RGB_LVGL/Middlewares/LVGL/GUI/lvgl/src/core\lv_obj_style_gen.h **** 
 418:H:/STM32H7/RGB_LVGL/Middlewares/LVGL/GUI/lvgl/src/core\lv_obj_style_gen.h **** static inline lv_color_t lv_obj_get_style_shadow_color_filtered(const lv_obj_t * obj, lv_part_t par
 419:H:/STM32H7/RGB_LVGL/Middlewares/LVGL/GUI/lvgl/src/core\lv_obj_style_gen.h **** {
 420:H:/STM32H7/RGB_LVGL/Middlewares/LVGL/GUI/lvgl/src/core\lv_obj_style_gen.h ****     lv_style_value_t v = lv_obj_style_apply_color_filter(obj, part, lv_obj_get_style_prop(obj, part
 421:H:/STM32H7/RGB_LVGL/Middlewares/LVGL/GUI/lvgl/src/core\lv_obj_style_gen.h ****     return v.color;
 422:H:/STM32H7/RGB_LVGL/Middlewares/LVGL/GUI/lvgl/src/core\lv_obj_style_gen.h **** }
 423:H:/STM32H7/RGB_LVGL/Middlewares/LVGL/GUI/lvgl/src/core\lv_obj_style_gen.h **** 
 424:H:/STM32H7/RGB_LVGL/Middlewares/LVGL/GUI/lvgl/src/core\lv_obj_style_gen.h **** static inline lv_opa_t lv_obj_get_style_shadow_opa(const lv_obj_t * obj, lv_part_t part)
 425:H:/STM32H7/RGB_LVGL/Middlewares/LVGL/GUI/lvgl/src/core\lv_obj_style_gen.h **** {
 426:H:/STM32H7/RGB_LVGL/Middlewares/LVGL/GUI/lvgl/src/core\lv_obj_style_gen.h ****     lv_style_value_t v = lv_obj_get_style_prop(obj, part, LV_STYLE_SHADOW_OPA);
 427:H:/STM32H7/RGB_LVGL/Middlewares/LVGL/GUI/lvgl/src/core\lv_obj_style_gen.h ****     return (lv_opa_t)v.num;
 428:H:/STM32H7/RGB_LVGL/Middlewares/LVGL/GUI/lvgl/src/core\lv_obj_style_gen.h **** }
 429:H:/STM32H7/RGB_LVGL/Middlewares/LVGL/GUI/lvgl/src/core\lv_obj_style_gen.h **** 
 430:H:/STM32H7/RGB_LVGL/Middlewares/LVGL/GUI/lvgl/src/core\lv_obj_style_gen.h **** static inline lv_opa_t lv_obj_get_style_image_opa(const lv_obj_t * obj, lv_part_t part)
 431:H:/STM32H7/RGB_LVGL/Middlewares/LVGL/GUI/lvgl/src/core\lv_obj_style_gen.h **** {
 432:H:/STM32H7/RGB_LVGL/Middlewares/LVGL/GUI/lvgl/src/core\lv_obj_style_gen.h ****     lv_style_value_t v = lv_obj_get_style_prop(obj, part, LV_STYLE_IMAGE_OPA);
 433:H:/STM32H7/RGB_LVGL/Middlewares/LVGL/GUI/lvgl/src/core\lv_obj_style_gen.h ****     return (lv_opa_t)v.num;
 434:H:/STM32H7/RGB_LVGL/Middlewares/LVGL/GUI/lvgl/src/core\lv_obj_style_gen.h **** }
 435:H:/STM32H7/RGB_LVGL/Middlewares/LVGL/GUI/lvgl/src/core\lv_obj_style_gen.h **** 
 436:H:/STM32H7/RGB_LVGL/Middlewares/LVGL/GUI/lvgl/src/core\lv_obj_style_gen.h **** static inline lv_color_t lv_obj_get_style_image_recolor(const lv_obj_t * obj, lv_part_t part)
 437:H:/STM32H7/RGB_LVGL/Middlewares/LVGL/GUI/lvgl/src/core\lv_obj_style_gen.h **** {
 438:H:/STM32H7/RGB_LVGL/Middlewares/LVGL/GUI/lvgl/src/core\lv_obj_style_gen.h ****     lv_style_value_t v = lv_obj_get_style_prop(obj, part, LV_STYLE_IMAGE_RECOLOR);
 439:H:/STM32H7/RGB_LVGL/Middlewares/LVGL/GUI/lvgl/src/core\lv_obj_style_gen.h ****     return v.color;
 440:H:/STM32H7/RGB_LVGL/Middlewares/LVGL/GUI/lvgl/src/core\lv_obj_style_gen.h **** }
 441:H:/STM32H7/RGB_LVGL/Middlewares/LVGL/GUI/lvgl/src/core\lv_obj_style_gen.h **** 
 442:H:/STM32H7/RGB_LVGL/Middlewares/LVGL/GUI/lvgl/src/core\lv_obj_style_gen.h **** static inline lv_color_t lv_obj_get_style_image_recolor_filtered(const lv_obj_t * obj, lv_part_t pa
 443:H:/STM32H7/RGB_LVGL/Middlewares/LVGL/GUI/lvgl/src/core\lv_obj_style_gen.h **** {
 444:H:/STM32H7/RGB_LVGL/Middlewares/LVGL/GUI/lvgl/src/core\lv_obj_style_gen.h ****     lv_style_value_t v = lv_obj_style_apply_color_filter(obj, part, lv_obj_get_style_prop(obj, part
 445:H:/STM32H7/RGB_LVGL/Middlewares/LVGL/GUI/lvgl/src/core\lv_obj_style_gen.h ****     return v.color;
 446:H:/STM32H7/RGB_LVGL/Middlewares/LVGL/GUI/lvgl/src/core\lv_obj_style_gen.h **** }
 447:H:/STM32H7/RGB_LVGL/Middlewares/LVGL/GUI/lvgl/src/core\lv_obj_style_gen.h **** 
 448:H:/STM32H7/RGB_LVGL/Middlewares/LVGL/GUI/lvgl/src/core\lv_obj_style_gen.h **** static inline lv_opa_t lv_obj_get_style_image_recolor_opa(const lv_obj_t * obj, lv_part_t part)
 449:H:/STM32H7/RGB_LVGL/Middlewares/LVGL/GUI/lvgl/src/core\lv_obj_style_gen.h **** {
 450:H:/STM32H7/RGB_LVGL/Middlewares/LVGL/GUI/lvgl/src/core\lv_obj_style_gen.h ****     lv_style_value_t v = lv_obj_get_style_prop(obj, part, LV_STYLE_IMAGE_RECOLOR_OPA);
 451:H:/STM32H7/RGB_LVGL/Middlewares/LVGL/GUI/lvgl/src/core\lv_obj_style_gen.h ****     return (lv_opa_t)v.num;
 452:H:/STM32H7/RGB_LVGL/Middlewares/LVGL/GUI/lvgl/src/core\lv_obj_style_gen.h **** }
 453:H:/STM32H7/RGB_LVGL/Middlewares/LVGL/GUI/lvgl/src/core\lv_obj_style_gen.h **** 
 454:H:/STM32H7/RGB_LVGL/Middlewares/LVGL/GUI/lvgl/src/core\lv_obj_style_gen.h **** static inline int32_t lv_obj_get_style_line_width(const lv_obj_t * obj, lv_part_t part)
 455:H:/STM32H7/RGB_LVGL/Middlewares/LVGL/GUI/lvgl/src/core\lv_obj_style_gen.h **** {
 456:H:/STM32H7/RGB_LVGL/Middlewares/LVGL/GUI/lvgl/src/core\lv_obj_style_gen.h ****     lv_style_value_t v = lv_obj_get_style_prop(obj, part, LV_STYLE_LINE_WIDTH);
 457:H:/STM32H7/RGB_LVGL/Middlewares/LVGL/GUI/lvgl/src/core\lv_obj_style_gen.h ****     return (int32_t)v.num;
 458:H:/STM32H7/RGB_LVGL/Middlewares/LVGL/GUI/lvgl/src/core\lv_obj_style_gen.h **** }
 459:H:/STM32H7/RGB_LVGL/Middlewares/LVGL/GUI/lvgl/src/core\lv_obj_style_gen.h **** 
 460:H:/STM32H7/RGB_LVGL/Middlewares/LVGL/GUI/lvgl/src/core\lv_obj_style_gen.h **** static inline int32_t lv_obj_get_style_line_dash_width(const lv_obj_t * obj, lv_part_t part)
 461:H:/STM32H7/RGB_LVGL/Middlewares/LVGL/GUI/lvgl/src/core\lv_obj_style_gen.h **** {
 462:H:/STM32H7/RGB_LVGL/Middlewares/LVGL/GUI/lvgl/src/core\lv_obj_style_gen.h ****     lv_style_value_t v = lv_obj_get_style_prop(obj, part, LV_STYLE_LINE_DASH_WIDTH);
 463:H:/STM32H7/RGB_LVGL/Middlewares/LVGL/GUI/lvgl/src/core\lv_obj_style_gen.h ****     return (int32_t)v.num;
 464:H:/STM32H7/RGB_LVGL/Middlewares/LVGL/GUI/lvgl/src/core\lv_obj_style_gen.h **** }
 465:H:/STM32H7/RGB_LVGL/Middlewares/LVGL/GUI/lvgl/src/core\lv_obj_style_gen.h **** 
 466:H:/STM32H7/RGB_LVGL/Middlewares/LVGL/GUI/lvgl/src/core\lv_obj_style_gen.h **** static inline int32_t lv_obj_get_style_line_dash_gap(const lv_obj_t * obj, lv_part_t part)
 467:H:/STM32H7/RGB_LVGL/Middlewares/LVGL/GUI/lvgl/src/core\lv_obj_style_gen.h **** {
ARM GAS  C:\Users\28576\AppData\Local\Temp\ccV3XjXD.s 			page 30


 468:H:/STM32H7/RGB_LVGL/Middlewares/LVGL/GUI/lvgl/src/core\lv_obj_style_gen.h ****     lv_style_value_t v = lv_obj_get_style_prop(obj, part, LV_STYLE_LINE_DASH_GAP);
 469:H:/STM32H7/RGB_LVGL/Middlewares/LVGL/GUI/lvgl/src/core\lv_obj_style_gen.h ****     return (int32_t)v.num;
 470:H:/STM32H7/RGB_LVGL/Middlewares/LVGL/GUI/lvgl/src/core\lv_obj_style_gen.h **** }
 471:H:/STM32H7/RGB_LVGL/Middlewares/LVGL/GUI/lvgl/src/core\lv_obj_style_gen.h **** 
 472:H:/STM32H7/RGB_LVGL/Middlewares/LVGL/GUI/lvgl/src/core\lv_obj_style_gen.h **** static inline bool lv_obj_get_style_line_rounded(const lv_obj_t * obj, lv_part_t part)
 473:H:/STM32H7/RGB_LVGL/Middlewares/LVGL/GUI/lvgl/src/core\lv_obj_style_gen.h **** {
 474:H:/STM32H7/RGB_LVGL/Middlewares/LVGL/GUI/lvgl/src/core\lv_obj_style_gen.h ****     lv_style_value_t v = lv_obj_get_style_prop(obj, part, LV_STYLE_LINE_ROUNDED);
 475:H:/STM32H7/RGB_LVGL/Middlewares/LVGL/GUI/lvgl/src/core\lv_obj_style_gen.h ****     return (bool)v.num;
 476:H:/STM32H7/RGB_LVGL/Middlewares/LVGL/GUI/lvgl/src/core\lv_obj_style_gen.h **** }
 477:H:/STM32H7/RGB_LVGL/Middlewares/LVGL/GUI/lvgl/src/core\lv_obj_style_gen.h **** 
 478:H:/STM32H7/RGB_LVGL/Middlewares/LVGL/GUI/lvgl/src/core\lv_obj_style_gen.h **** static inline lv_color_t lv_obj_get_style_line_color(const lv_obj_t * obj, lv_part_t part)
 479:H:/STM32H7/RGB_LVGL/Middlewares/LVGL/GUI/lvgl/src/core\lv_obj_style_gen.h **** {
 480:H:/STM32H7/RGB_LVGL/Middlewares/LVGL/GUI/lvgl/src/core\lv_obj_style_gen.h ****     lv_style_value_t v = lv_obj_get_style_prop(obj, part, LV_STYLE_LINE_COLOR);
 481:H:/STM32H7/RGB_LVGL/Middlewares/LVGL/GUI/lvgl/src/core\lv_obj_style_gen.h ****     return v.color;
 482:H:/STM32H7/RGB_LVGL/Middlewares/LVGL/GUI/lvgl/src/core\lv_obj_style_gen.h **** }
 483:H:/STM32H7/RGB_LVGL/Middlewares/LVGL/GUI/lvgl/src/core\lv_obj_style_gen.h **** 
 484:H:/STM32H7/RGB_LVGL/Middlewares/LVGL/GUI/lvgl/src/core\lv_obj_style_gen.h **** static inline lv_color_t lv_obj_get_style_line_color_filtered(const lv_obj_t * obj, lv_part_t part)
 485:H:/STM32H7/RGB_LVGL/Middlewares/LVGL/GUI/lvgl/src/core\lv_obj_style_gen.h **** {
 486:H:/STM32H7/RGB_LVGL/Middlewares/LVGL/GUI/lvgl/src/core\lv_obj_style_gen.h ****     lv_style_value_t v = lv_obj_style_apply_color_filter(obj, part, lv_obj_get_style_prop(obj, part
 487:H:/STM32H7/RGB_LVGL/Middlewares/LVGL/GUI/lvgl/src/core\lv_obj_style_gen.h ****     return v.color;
 488:H:/STM32H7/RGB_LVGL/Middlewares/LVGL/GUI/lvgl/src/core\lv_obj_style_gen.h **** }
 489:H:/STM32H7/RGB_LVGL/Middlewares/LVGL/GUI/lvgl/src/core\lv_obj_style_gen.h **** 
 490:H:/STM32H7/RGB_LVGL/Middlewares/LVGL/GUI/lvgl/src/core\lv_obj_style_gen.h **** static inline lv_opa_t lv_obj_get_style_line_opa(const lv_obj_t * obj, lv_part_t part)
 491:H:/STM32H7/RGB_LVGL/Middlewares/LVGL/GUI/lvgl/src/core\lv_obj_style_gen.h **** {
 492:H:/STM32H7/RGB_LVGL/Middlewares/LVGL/GUI/lvgl/src/core\lv_obj_style_gen.h ****     lv_style_value_t v = lv_obj_get_style_prop(obj, part, LV_STYLE_LINE_OPA);
 493:H:/STM32H7/RGB_LVGL/Middlewares/LVGL/GUI/lvgl/src/core\lv_obj_style_gen.h ****     return (lv_opa_t)v.num;
 494:H:/STM32H7/RGB_LVGL/Middlewares/LVGL/GUI/lvgl/src/core\lv_obj_style_gen.h **** }
 495:H:/STM32H7/RGB_LVGL/Middlewares/LVGL/GUI/lvgl/src/core\lv_obj_style_gen.h **** 
 496:H:/STM32H7/RGB_LVGL/Middlewares/LVGL/GUI/lvgl/src/core\lv_obj_style_gen.h **** static inline int32_t lv_obj_get_style_arc_width(const lv_obj_t * obj, lv_part_t part)
 497:H:/STM32H7/RGB_LVGL/Middlewares/LVGL/GUI/lvgl/src/core\lv_obj_style_gen.h **** {
 498:H:/STM32H7/RGB_LVGL/Middlewares/LVGL/GUI/lvgl/src/core\lv_obj_style_gen.h ****     lv_style_value_t v = lv_obj_get_style_prop(obj, part, LV_STYLE_ARC_WIDTH);
 499:H:/STM32H7/RGB_LVGL/Middlewares/LVGL/GUI/lvgl/src/core\lv_obj_style_gen.h ****     return (int32_t)v.num;
 500:H:/STM32H7/RGB_LVGL/Middlewares/LVGL/GUI/lvgl/src/core\lv_obj_style_gen.h **** }
 501:H:/STM32H7/RGB_LVGL/Middlewares/LVGL/GUI/lvgl/src/core\lv_obj_style_gen.h **** 
 502:H:/STM32H7/RGB_LVGL/Middlewares/LVGL/GUI/lvgl/src/core\lv_obj_style_gen.h **** static inline bool lv_obj_get_style_arc_rounded(const lv_obj_t * obj, lv_part_t part)
 503:H:/STM32H7/RGB_LVGL/Middlewares/LVGL/GUI/lvgl/src/core\lv_obj_style_gen.h **** {
 504:H:/STM32H7/RGB_LVGL/Middlewares/LVGL/GUI/lvgl/src/core\lv_obj_style_gen.h ****     lv_style_value_t v = lv_obj_get_style_prop(obj, part, LV_STYLE_ARC_ROUNDED);
 505:H:/STM32H7/RGB_LVGL/Middlewares/LVGL/GUI/lvgl/src/core\lv_obj_style_gen.h ****     return (bool)v.num;
 506:H:/STM32H7/RGB_LVGL/Middlewares/LVGL/GUI/lvgl/src/core\lv_obj_style_gen.h **** }
 507:H:/STM32H7/RGB_LVGL/Middlewares/LVGL/GUI/lvgl/src/core\lv_obj_style_gen.h **** 
 508:H:/STM32H7/RGB_LVGL/Middlewares/LVGL/GUI/lvgl/src/core\lv_obj_style_gen.h **** static inline lv_color_t lv_obj_get_style_arc_color(const lv_obj_t * obj, lv_part_t part)
 509:H:/STM32H7/RGB_LVGL/Middlewares/LVGL/GUI/lvgl/src/core\lv_obj_style_gen.h **** {
 510:H:/STM32H7/RGB_LVGL/Middlewares/LVGL/GUI/lvgl/src/core\lv_obj_style_gen.h ****     lv_style_value_t v = lv_obj_get_style_prop(obj, part, LV_STYLE_ARC_COLOR);
 511:H:/STM32H7/RGB_LVGL/Middlewares/LVGL/GUI/lvgl/src/core\lv_obj_style_gen.h ****     return v.color;
 512:H:/STM32H7/RGB_LVGL/Middlewares/LVGL/GUI/lvgl/src/core\lv_obj_style_gen.h **** }
 513:H:/STM32H7/RGB_LVGL/Middlewares/LVGL/GUI/lvgl/src/core\lv_obj_style_gen.h **** 
 514:H:/STM32H7/RGB_LVGL/Middlewares/LVGL/GUI/lvgl/src/core\lv_obj_style_gen.h **** static inline lv_color_t lv_obj_get_style_arc_color_filtered(const lv_obj_t * obj, lv_part_t part)
 515:H:/STM32H7/RGB_LVGL/Middlewares/LVGL/GUI/lvgl/src/core\lv_obj_style_gen.h **** {
 516:H:/STM32H7/RGB_LVGL/Middlewares/LVGL/GUI/lvgl/src/core\lv_obj_style_gen.h ****     lv_style_value_t v = lv_obj_style_apply_color_filter(obj, part, lv_obj_get_style_prop(obj, part
 517:H:/STM32H7/RGB_LVGL/Middlewares/LVGL/GUI/lvgl/src/core\lv_obj_style_gen.h ****     return v.color;
 518:H:/STM32H7/RGB_LVGL/Middlewares/LVGL/GUI/lvgl/src/core\lv_obj_style_gen.h **** }
 519:H:/STM32H7/RGB_LVGL/Middlewares/LVGL/GUI/lvgl/src/core\lv_obj_style_gen.h **** 
 520:H:/STM32H7/RGB_LVGL/Middlewares/LVGL/GUI/lvgl/src/core\lv_obj_style_gen.h **** static inline lv_opa_t lv_obj_get_style_arc_opa(const lv_obj_t * obj, lv_part_t part)
 521:H:/STM32H7/RGB_LVGL/Middlewares/LVGL/GUI/lvgl/src/core\lv_obj_style_gen.h **** {
 522:H:/STM32H7/RGB_LVGL/Middlewares/LVGL/GUI/lvgl/src/core\lv_obj_style_gen.h ****     lv_style_value_t v = lv_obj_get_style_prop(obj, part, LV_STYLE_ARC_OPA);
 523:H:/STM32H7/RGB_LVGL/Middlewares/LVGL/GUI/lvgl/src/core\lv_obj_style_gen.h ****     return (lv_opa_t)v.num;
 524:H:/STM32H7/RGB_LVGL/Middlewares/LVGL/GUI/lvgl/src/core\lv_obj_style_gen.h **** }
ARM GAS  C:\Users\28576\AppData\Local\Temp\ccV3XjXD.s 			page 31


 525:H:/STM32H7/RGB_LVGL/Middlewares/LVGL/GUI/lvgl/src/core\lv_obj_style_gen.h **** 
 526:H:/STM32H7/RGB_LVGL/Middlewares/LVGL/GUI/lvgl/src/core\lv_obj_style_gen.h **** static inline const void * lv_obj_get_style_arc_image_src(const lv_obj_t * obj, lv_part_t part)
 527:H:/STM32H7/RGB_LVGL/Middlewares/LVGL/GUI/lvgl/src/core\lv_obj_style_gen.h **** {
 528:H:/STM32H7/RGB_LVGL/Middlewares/LVGL/GUI/lvgl/src/core\lv_obj_style_gen.h ****     lv_style_value_t v = lv_obj_get_style_prop(obj, part, LV_STYLE_ARC_IMAGE_SRC);
 529:H:/STM32H7/RGB_LVGL/Middlewares/LVGL/GUI/lvgl/src/core\lv_obj_style_gen.h ****     return (const void *)v.ptr;
 530:H:/STM32H7/RGB_LVGL/Middlewares/LVGL/GUI/lvgl/src/core\lv_obj_style_gen.h **** }
 531:H:/STM32H7/RGB_LVGL/Middlewares/LVGL/GUI/lvgl/src/core\lv_obj_style_gen.h **** 
 532:H:/STM32H7/RGB_LVGL/Middlewares/LVGL/GUI/lvgl/src/core\lv_obj_style_gen.h **** static inline lv_color_t lv_obj_get_style_text_color(const lv_obj_t * obj, lv_part_t part)
 533:H:/STM32H7/RGB_LVGL/Middlewares/LVGL/GUI/lvgl/src/core\lv_obj_style_gen.h **** {
 534:H:/STM32H7/RGB_LVGL/Middlewares/LVGL/GUI/lvgl/src/core\lv_obj_style_gen.h ****     lv_style_value_t v = lv_obj_get_style_prop(obj, part, LV_STYLE_TEXT_COLOR);
 535:H:/STM32H7/RGB_LVGL/Middlewares/LVGL/GUI/lvgl/src/core\lv_obj_style_gen.h ****     return v.color;
 536:H:/STM32H7/RGB_LVGL/Middlewares/LVGL/GUI/lvgl/src/core\lv_obj_style_gen.h **** }
 537:H:/STM32H7/RGB_LVGL/Middlewares/LVGL/GUI/lvgl/src/core\lv_obj_style_gen.h **** 
 538:H:/STM32H7/RGB_LVGL/Middlewares/LVGL/GUI/lvgl/src/core\lv_obj_style_gen.h **** static inline lv_color_t lv_obj_get_style_text_color_filtered(const lv_obj_t * obj, lv_part_t part)
 539:H:/STM32H7/RGB_LVGL/Middlewares/LVGL/GUI/lvgl/src/core\lv_obj_style_gen.h **** {
 540:H:/STM32H7/RGB_LVGL/Middlewares/LVGL/GUI/lvgl/src/core\lv_obj_style_gen.h ****     lv_style_value_t v = lv_obj_style_apply_color_filter(obj, part, lv_obj_get_style_prop(obj, part
 541:H:/STM32H7/RGB_LVGL/Middlewares/LVGL/GUI/lvgl/src/core\lv_obj_style_gen.h ****     return v.color;
 542:H:/STM32H7/RGB_LVGL/Middlewares/LVGL/GUI/lvgl/src/core\lv_obj_style_gen.h **** }
 543:H:/STM32H7/RGB_LVGL/Middlewares/LVGL/GUI/lvgl/src/core\lv_obj_style_gen.h **** 
 544:H:/STM32H7/RGB_LVGL/Middlewares/LVGL/GUI/lvgl/src/core\lv_obj_style_gen.h **** static inline lv_opa_t lv_obj_get_style_text_opa(const lv_obj_t * obj, lv_part_t part)
 545:H:/STM32H7/RGB_LVGL/Middlewares/LVGL/GUI/lvgl/src/core\lv_obj_style_gen.h **** {
 546:H:/STM32H7/RGB_LVGL/Middlewares/LVGL/GUI/lvgl/src/core\lv_obj_style_gen.h ****     lv_style_value_t v = lv_obj_get_style_prop(obj, part, LV_STYLE_TEXT_OPA);
 547:H:/STM32H7/RGB_LVGL/Middlewares/LVGL/GUI/lvgl/src/core\lv_obj_style_gen.h ****     return (lv_opa_t)v.num;
 548:H:/STM32H7/RGB_LVGL/Middlewares/LVGL/GUI/lvgl/src/core\lv_obj_style_gen.h **** }
 549:H:/STM32H7/RGB_LVGL/Middlewares/LVGL/GUI/lvgl/src/core\lv_obj_style_gen.h **** 
 550:H:/STM32H7/RGB_LVGL/Middlewares/LVGL/GUI/lvgl/src/core\lv_obj_style_gen.h **** static inline const lv_font_t * lv_obj_get_style_text_font(const lv_obj_t * obj, lv_part_t part)
 551:H:/STM32H7/RGB_LVGL/Middlewares/LVGL/GUI/lvgl/src/core\lv_obj_style_gen.h **** {
 552:H:/STM32H7/RGB_LVGL/Middlewares/LVGL/GUI/lvgl/src/core\lv_obj_style_gen.h ****     lv_style_value_t v = lv_obj_get_style_prop(obj, part, LV_STYLE_TEXT_FONT);
 553:H:/STM32H7/RGB_LVGL/Middlewares/LVGL/GUI/lvgl/src/core\lv_obj_style_gen.h ****     return (const lv_font_t *)v.ptr;
 554:H:/STM32H7/RGB_LVGL/Middlewares/LVGL/GUI/lvgl/src/core\lv_obj_style_gen.h **** }
 555:H:/STM32H7/RGB_LVGL/Middlewares/LVGL/GUI/lvgl/src/core\lv_obj_style_gen.h **** 
 556:H:/STM32H7/RGB_LVGL/Middlewares/LVGL/GUI/lvgl/src/core\lv_obj_style_gen.h **** static inline int32_t lv_obj_get_style_text_letter_space(const lv_obj_t * obj, lv_part_t part)
 557:H:/STM32H7/RGB_LVGL/Middlewares/LVGL/GUI/lvgl/src/core\lv_obj_style_gen.h **** {
 558:H:/STM32H7/RGB_LVGL/Middlewares/LVGL/GUI/lvgl/src/core\lv_obj_style_gen.h ****     lv_style_value_t v = lv_obj_get_style_prop(obj, part, LV_STYLE_TEXT_LETTER_SPACE);
 559:H:/STM32H7/RGB_LVGL/Middlewares/LVGL/GUI/lvgl/src/core\lv_obj_style_gen.h ****     return (int32_t)v.num;
 560:H:/STM32H7/RGB_LVGL/Middlewares/LVGL/GUI/lvgl/src/core\lv_obj_style_gen.h **** }
 561:H:/STM32H7/RGB_LVGL/Middlewares/LVGL/GUI/lvgl/src/core\lv_obj_style_gen.h **** 
 562:H:/STM32H7/RGB_LVGL/Middlewares/LVGL/GUI/lvgl/src/core\lv_obj_style_gen.h **** static inline int32_t lv_obj_get_style_text_line_space(const lv_obj_t * obj, lv_part_t part)
 563:H:/STM32H7/RGB_LVGL/Middlewares/LVGL/GUI/lvgl/src/core\lv_obj_style_gen.h **** {
 564:H:/STM32H7/RGB_LVGL/Middlewares/LVGL/GUI/lvgl/src/core\lv_obj_style_gen.h ****     lv_style_value_t v = lv_obj_get_style_prop(obj, part, LV_STYLE_TEXT_LINE_SPACE);
 565:H:/STM32H7/RGB_LVGL/Middlewares/LVGL/GUI/lvgl/src/core\lv_obj_style_gen.h ****     return (int32_t)v.num;
 566:H:/STM32H7/RGB_LVGL/Middlewares/LVGL/GUI/lvgl/src/core\lv_obj_style_gen.h **** }
 567:H:/STM32H7/RGB_LVGL/Middlewares/LVGL/GUI/lvgl/src/core\lv_obj_style_gen.h **** 
 568:H:/STM32H7/RGB_LVGL/Middlewares/LVGL/GUI/lvgl/src/core\lv_obj_style_gen.h **** static inline lv_text_decor_t lv_obj_get_style_text_decor(const lv_obj_t * obj, lv_part_t part)
 569:H:/STM32H7/RGB_LVGL/Middlewares/LVGL/GUI/lvgl/src/core\lv_obj_style_gen.h **** {
 570:H:/STM32H7/RGB_LVGL/Middlewares/LVGL/GUI/lvgl/src/core\lv_obj_style_gen.h ****     lv_style_value_t v = lv_obj_get_style_prop(obj, part, LV_STYLE_TEXT_DECOR);
 571:H:/STM32H7/RGB_LVGL/Middlewares/LVGL/GUI/lvgl/src/core\lv_obj_style_gen.h ****     return (lv_text_decor_t)v.num;
 572:H:/STM32H7/RGB_LVGL/Middlewares/LVGL/GUI/lvgl/src/core\lv_obj_style_gen.h **** }
 573:H:/STM32H7/RGB_LVGL/Middlewares/LVGL/GUI/lvgl/src/core\lv_obj_style_gen.h **** 
 574:H:/STM32H7/RGB_LVGL/Middlewares/LVGL/GUI/lvgl/src/core\lv_obj_style_gen.h **** static inline lv_text_align_t lv_obj_get_style_text_align(const lv_obj_t * obj, lv_part_t part)
 575:H:/STM32H7/RGB_LVGL/Middlewares/LVGL/GUI/lvgl/src/core\lv_obj_style_gen.h **** {
 576:H:/STM32H7/RGB_LVGL/Middlewares/LVGL/GUI/lvgl/src/core\lv_obj_style_gen.h ****     lv_style_value_t v = lv_obj_get_style_prop(obj, part, LV_STYLE_TEXT_ALIGN);
 577:H:/STM32H7/RGB_LVGL/Middlewares/LVGL/GUI/lvgl/src/core\lv_obj_style_gen.h ****     return (lv_text_align_t)v.num;
 578:H:/STM32H7/RGB_LVGL/Middlewares/LVGL/GUI/lvgl/src/core\lv_obj_style_gen.h **** }
 579:H:/STM32H7/RGB_LVGL/Middlewares/LVGL/GUI/lvgl/src/core\lv_obj_style_gen.h **** 
 580:H:/STM32H7/RGB_LVGL/Middlewares/LVGL/GUI/lvgl/src/core\lv_obj_style_gen.h **** static inline lv_color_t lv_obj_get_style_text_outline_stroke_color(const lv_obj_t * obj, lv_part_t
 581:H:/STM32H7/RGB_LVGL/Middlewares/LVGL/GUI/lvgl/src/core\lv_obj_style_gen.h **** {
ARM GAS  C:\Users\28576\AppData\Local\Temp\ccV3XjXD.s 			page 32


 582:H:/STM32H7/RGB_LVGL/Middlewares/LVGL/GUI/lvgl/src/core\lv_obj_style_gen.h ****     lv_style_value_t v = lv_obj_get_style_prop(obj, part, LV_STYLE_TEXT_OUTLINE_STROKE_COLOR);
 583:H:/STM32H7/RGB_LVGL/Middlewares/LVGL/GUI/lvgl/src/core\lv_obj_style_gen.h ****     return v.color;
 584:H:/STM32H7/RGB_LVGL/Middlewares/LVGL/GUI/lvgl/src/core\lv_obj_style_gen.h **** }
 585:H:/STM32H7/RGB_LVGL/Middlewares/LVGL/GUI/lvgl/src/core\lv_obj_style_gen.h **** 
 586:H:/STM32H7/RGB_LVGL/Middlewares/LVGL/GUI/lvgl/src/core\lv_obj_style_gen.h **** static inline lv_color_t lv_obj_get_style_text_outline_stroke_color_filtered(const lv_obj_t * obj, 
 587:H:/STM32H7/RGB_LVGL/Middlewares/LVGL/GUI/lvgl/src/core\lv_obj_style_gen.h **** {
 588:H:/STM32H7/RGB_LVGL/Middlewares/LVGL/GUI/lvgl/src/core\lv_obj_style_gen.h ****     lv_style_value_t v = lv_obj_style_apply_color_filter(obj, part, lv_obj_get_style_prop(obj, part
 589:H:/STM32H7/RGB_LVGL/Middlewares/LVGL/GUI/lvgl/src/core\lv_obj_style_gen.h ****     return v.color;
 590:H:/STM32H7/RGB_LVGL/Middlewares/LVGL/GUI/lvgl/src/core\lv_obj_style_gen.h **** }
 591:H:/STM32H7/RGB_LVGL/Middlewares/LVGL/GUI/lvgl/src/core\lv_obj_style_gen.h **** 
 592:H:/STM32H7/RGB_LVGL/Middlewares/LVGL/GUI/lvgl/src/core\lv_obj_style_gen.h **** static inline int32_t lv_obj_get_style_text_outline_stroke_width(const lv_obj_t * obj, lv_part_t pa
 593:H:/STM32H7/RGB_LVGL/Middlewares/LVGL/GUI/lvgl/src/core\lv_obj_style_gen.h **** {
 594:H:/STM32H7/RGB_LVGL/Middlewares/LVGL/GUI/lvgl/src/core\lv_obj_style_gen.h ****     lv_style_value_t v = lv_obj_get_style_prop(obj, part, LV_STYLE_TEXT_OUTLINE_STROKE_WIDTH);
 595:H:/STM32H7/RGB_LVGL/Middlewares/LVGL/GUI/lvgl/src/core\lv_obj_style_gen.h ****     return (int32_t)v.num;
 596:H:/STM32H7/RGB_LVGL/Middlewares/LVGL/GUI/lvgl/src/core\lv_obj_style_gen.h **** }
 597:H:/STM32H7/RGB_LVGL/Middlewares/LVGL/GUI/lvgl/src/core\lv_obj_style_gen.h **** 
 598:H:/STM32H7/RGB_LVGL/Middlewares/LVGL/GUI/lvgl/src/core\lv_obj_style_gen.h **** static inline lv_opa_t lv_obj_get_style_text_outline_stroke_opa(const lv_obj_t * obj, lv_part_t par
 599:H:/STM32H7/RGB_LVGL/Middlewares/LVGL/GUI/lvgl/src/core\lv_obj_style_gen.h **** {
 600:H:/STM32H7/RGB_LVGL/Middlewares/LVGL/GUI/lvgl/src/core\lv_obj_style_gen.h ****     lv_style_value_t v = lv_obj_get_style_prop(obj, part, LV_STYLE_TEXT_OUTLINE_STROKE_OPA);
 601:H:/STM32H7/RGB_LVGL/Middlewares/LVGL/GUI/lvgl/src/core\lv_obj_style_gen.h ****     return (lv_opa_t)v.num;
 602:H:/STM32H7/RGB_LVGL/Middlewares/LVGL/GUI/lvgl/src/core\lv_obj_style_gen.h **** }
 603:H:/STM32H7/RGB_LVGL/Middlewares/LVGL/GUI/lvgl/src/core\lv_obj_style_gen.h **** 
 604:H:/STM32H7/RGB_LVGL/Middlewares/LVGL/GUI/lvgl/src/core\lv_obj_style_gen.h **** static inline int32_t lv_obj_get_style_radius(const lv_obj_t * obj, lv_part_t part)
 605:H:/STM32H7/RGB_LVGL/Middlewares/LVGL/GUI/lvgl/src/core\lv_obj_style_gen.h **** {
 606:H:/STM32H7/RGB_LVGL/Middlewares/LVGL/GUI/lvgl/src/core\lv_obj_style_gen.h ****     lv_style_value_t v = lv_obj_get_style_prop(obj, part, LV_STYLE_RADIUS);
 607:H:/STM32H7/RGB_LVGL/Middlewares/LVGL/GUI/lvgl/src/core\lv_obj_style_gen.h ****     return (int32_t)v.num;
 608:H:/STM32H7/RGB_LVGL/Middlewares/LVGL/GUI/lvgl/src/core\lv_obj_style_gen.h **** }
 609:H:/STM32H7/RGB_LVGL/Middlewares/LVGL/GUI/lvgl/src/core\lv_obj_style_gen.h **** 
 610:H:/STM32H7/RGB_LVGL/Middlewares/LVGL/GUI/lvgl/src/core\lv_obj_style_gen.h **** static inline int32_t lv_obj_get_style_radial_offset(const lv_obj_t * obj, lv_part_t part)
 611:H:/STM32H7/RGB_LVGL/Middlewares/LVGL/GUI/lvgl/src/core\lv_obj_style_gen.h **** {
 612:H:/STM32H7/RGB_LVGL/Middlewares/LVGL/GUI/lvgl/src/core\lv_obj_style_gen.h ****     lv_style_value_t v = lv_obj_get_style_prop(obj, part, LV_STYLE_RADIAL_OFFSET);
 613:H:/STM32H7/RGB_LVGL/Middlewares/LVGL/GUI/lvgl/src/core\lv_obj_style_gen.h ****     return (int32_t)v.num;
 614:H:/STM32H7/RGB_LVGL/Middlewares/LVGL/GUI/lvgl/src/core\lv_obj_style_gen.h **** }
 615:H:/STM32H7/RGB_LVGL/Middlewares/LVGL/GUI/lvgl/src/core\lv_obj_style_gen.h **** 
 616:H:/STM32H7/RGB_LVGL/Middlewares/LVGL/GUI/lvgl/src/core\lv_obj_style_gen.h **** static inline bool lv_obj_get_style_clip_corner(const lv_obj_t * obj, lv_part_t part)
 617:H:/STM32H7/RGB_LVGL/Middlewares/LVGL/GUI/lvgl/src/core\lv_obj_style_gen.h **** {
 618:H:/STM32H7/RGB_LVGL/Middlewares/LVGL/GUI/lvgl/src/core\lv_obj_style_gen.h ****     lv_style_value_t v = lv_obj_get_style_prop(obj, part, LV_STYLE_CLIP_CORNER);
 619:H:/STM32H7/RGB_LVGL/Middlewares/LVGL/GUI/lvgl/src/core\lv_obj_style_gen.h ****     return (bool)v.num;
 620:H:/STM32H7/RGB_LVGL/Middlewares/LVGL/GUI/lvgl/src/core\lv_obj_style_gen.h **** }
 621:H:/STM32H7/RGB_LVGL/Middlewares/LVGL/GUI/lvgl/src/core\lv_obj_style_gen.h **** 
 622:H:/STM32H7/RGB_LVGL/Middlewares/LVGL/GUI/lvgl/src/core\lv_obj_style_gen.h **** static inline lv_opa_t lv_obj_get_style_opa(const lv_obj_t * obj, lv_part_t part)
 623:H:/STM32H7/RGB_LVGL/Middlewares/LVGL/GUI/lvgl/src/core\lv_obj_style_gen.h **** {
 624:H:/STM32H7/RGB_LVGL/Middlewares/LVGL/GUI/lvgl/src/core\lv_obj_style_gen.h ****     lv_style_value_t v = lv_obj_get_style_prop(obj, part, LV_STYLE_OPA);
 625:H:/STM32H7/RGB_LVGL/Middlewares/LVGL/GUI/lvgl/src/core\lv_obj_style_gen.h ****     return (lv_opa_t)v.num;
 626:H:/STM32H7/RGB_LVGL/Middlewares/LVGL/GUI/lvgl/src/core\lv_obj_style_gen.h **** }
 627:H:/STM32H7/RGB_LVGL/Middlewares/LVGL/GUI/lvgl/src/core\lv_obj_style_gen.h **** 
 628:H:/STM32H7/RGB_LVGL/Middlewares/LVGL/GUI/lvgl/src/core\lv_obj_style_gen.h **** static inline lv_opa_t lv_obj_get_style_opa_layered(const lv_obj_t * obj, lv_part_t part)
 629:H:/STM32H7/RGB_LVGL/Middlewares/LVGL/GUI/lvgl/src/core\lv_obj_style_gen.h **** {
 630:H:/STM32H7/RGB_LVGL/Middlewares/LVGL/GUI/lvgl/src/core\lv_obj_style_gen.h ****     lv_style_value_t v = lv_obj_get_style_prop(obj, part, LV_STYLE_OPA_LAYERED);
 631:H:/STM32H7/RGB_LVGL/Middlewares/LVGL/GUI/lvgl/src/core\lv_obj_style_gen.h ****     return (lv_opa_t)v.num;
 632:H:/STM32H7/RGB_LVGL/Middlewares/LVGL/GUI/lvgl/src/core\lv_obj_style_gen.h **** }
 633:H:/STM32H7/RGB_LVGL/Middlewares/LVGL/GUI/lvgl/src/core\lv_obj_style_gen.h **** 
 634:H:/STM32H7/RGB_LVGL/Middlewares/LVGL/GUI/lvgl/src/core\lv_obj_style_gen.h **** static inline const lv_color_filter_dsc_t * lv_obj_get_style_color_filter_dsc(const lv_obj_t * obj,
 635:H:/STM32H7/RGB_LVGL/Middlewares/LVGL/GUI/lvgl/src/core\lv_obj_style_gen.h **** {
 636:H:/STM32H7/RGB_LVGL/Middlewares/LVGL/GUI/lvgl/src/core\lv_obj_style_gen.h ****     lv_style_value_t v = lv_obj_get_style_prop(obj, part, LV_STYLE_COLOR_FILTER_DSC);
 637:H:/STM32H7/RGB_LVGL/Middlewares/LVGL/GUI/lvgl/src/core\lv_obj_style_gen.h ****     return (const lv_color_filter_dsc_t *)v.ptr;
 638:H:/STM32H7/RGB_LVGL/Middlewares/LVGL/GUI/lvgl/src/core\lv_obj_style_gen.h **** }
ARM GAS  C:\Users\28576\AppData\Local\Temp\ccV3XjXD.s 			page 33


 639:H:/STM32H7/RGB_LVGL/Middlewares/LVGL/GUI/lvgl/src/core\lv_obj_style_gen.h **** 
 640:H:/STM32H7/RGB_LVGL/Middlewares/LVGL/GUI/lvgl/src/core\lv_obj_style_gen.h **** static inline lv_opa_t lv_obj_get_style_color_filter_opa(const lv_obj_t * obj, lv_part_t part)
 641:H:/STM32H7/RGB_LVGL/Middlewares/LVGL/GUI/lvgl/src/core\lv_obj_style_gen.h **** {
 642:H:/STM32H7/RGB_LVGL/Middlewares/LVGL/GUI/lvgl/src/core\lv_obj_style_gen.h ****     lv_style_value_t v = lv_obj_get_style_prop(obj, part, LV_STYLE_COLOR_FILTER_OPA);
 643:H:/STM32H7/RGB_LVGL/Middlewares/LVGL/GUI/lvgl/src/core\lv_obj_style_gen.h ****     return (lv_opa_t)v.num;
 644:H:/STM32H7/RGB_LVGL/Middlewares/LVGL/GUI/lvgl/src/core\lv_obj_style_gen.h **** }
 645:H:/STM32H7/RGB_LVGL/Middlewares/LVGL/GUI/lvgl/src/core\lv_obj_style_gen.h **** 
 646:H:/STM32H7/RGB_LVGL/Middlewares/LVGL/GUI/lvgl/src/core\lv_obj_style_gen.h **** static inline lv_color_t lv_obj_get_style_recolor(const lv_obj_t * obj, lv_part_t part)
 647:H:/STM32H7/RGB_LVGL/Middlewares/LVGL/GUI/lvgl/src/core\lv_obj_style_gen.h **** {
 648:H:/STM32H7/RGB_LVGL/Middlewares/LVGL/GUI/lvgl/src/core\lv_obj_style_gen.h ****     lv_style_value_t v = lv_obj_get_style_prop(obj, part, LV_STYLE_RECOLOR);
 649:H:/STM32H7/RGB_LVGL/Middlewares/LVGL/GUI/lvgl/src/core\lv_obj_style_gen.h ****     return v.color;
 650:H:/STM32H7/RGB_LVGL/Middlewares/LVGL/GUI/lvgl/src/core\lv_obj_style_gen.h **** }
 651:H:/STM32H7/RGB_LVGL/Middlewares/LVGL/GUI/lvgl/src/core\lv_obj_style_gen.h **** 
 652:H:/STM32H7/RGB_LVGL/Middlewares/LVGL/GUI/lvgl/src/core\lv_obj_style_gen.h **** static inline lv_opa_t lv_obj_get_style_recolor_opa(const lv_obj_t * obj, lv_part_t part)
 653:H:/STM32H7/RGB_LVGL/Middlewares/LVGL/GUI/lvgl/src/core\lv_obj_style_gen.h **** {
 654:H:/STM32H7/RGB_LVGL/Middlewares/LVGL/GUI/lvgl/src/core\lv_obj_style_gen.h ****     lv_style_value_t v = lv_obj_get_style_prop(obj, part, LV_STYLE_RECOLOR_OPA);
 655:H:/STM32H7/RGB_LVGL/Middlewares/LVGL/GUI/lvgl/src/core\lv_obj_style_gen.h ****     return (lv_opa_t)v.num;
 656:H:/STM32H7/RGB_LVGL/Middlewares/LVGL/GUI/lvgl/src/core\lv_obj_style_gen.h **** }
 657:H:/STM32H7/RGB_LVGL/Middlewares/LVGL/GUI/lvgl/src/core\lv_obj_style_gen.h **** 
 658:H:/STM32H7/RGB_LVGL/Middlewares/LVGL/GUI/lvgl/src/core\lv_obj_style_gen.h **** static inline const lv_anim_t * lv_obj_get_style_anim(const lv_obj_t * obj, lv_part_t part)
 659:H:/STM32H7/RGB_LVGL/Middlewares/LVGL/GUI/lvgl/src/core\lv_obj_style_gen.h **** {
 660:H:/STM32H7/RGB_LVGL/Middlewares/LVGL/GUI/lvgl/src/core\lv_obj_style_gen.h ****     lv_style_value_t v = lv_obj_get_style_prop(obj, part, LV_STYLE_ANIM);
 661:H:/STM32H7/RGB_LVGL/Middlewares/LVGL/GUI/lvgl/src/core\lv_obj_style_gen.h ****     return (const lv_anim_t *)v.ptr;
 662:H:/STM32H7/RGB_LVGL/Middlewares/LVGL/GUI/lvgl/src/core\lv_obj_style_gen.h **** }
 663:H:/STM32H7/RGB_LVGL/Middlewares/LVGL/GUI/lvgl/src/core\lv_obj_style_gen.h **** 
 664:H:/STM32H7/RGB_LVGL/Middlewares/LVGL/GUI/lvgl/src/core\lv_obj_style_gen.h **** static inline uint32_t lv_obj_get_style_anim_duration(const lv_obj_t * obj, lv_part_t part)
 665:H:/STM32H7/RGB_LVGL/Middlewares/LVGL/GUI/lvgl/src/core\lv_obj_style_gen.h **** {
 666:H:/STM32H7/RGB_LVGL/Middlewares/LVGL/GUI/lvgl/src/core\lv_obj_style_gen.h ****     lv_style_value_t v = lv_obj_get_style_prop(obj, part, LV_STYLE_ANIM_DURATION);
 667:H:/STM32H7/RGB_LVGL/Middlewares/LVGL/GUI/lvgl/src/core\lv_obj_style_gen.h ****     return (uint32_t)v.num;
 668:H:/STM32H7/RGB_LVGL/Middlewares/LVGL/GUI/lvgl/src/core\lv_obj_style_gen.h **** }
 669:H:/STM32H7/RGB_LVGL/Middlewares/LVGL/GUI/lvgl/src/core\lv_obj_style_gen.h **** 
 670:H:/STM32H7/RGB_LVGL/Middlewares/LVGL/GUI/lvgl/src/core\lv_obj_style_gen.h **** static inline const lv_style_transition_dsc_t * lv_obj_get_style_transition(const lv_obj_t * obj, l
 671:H:/STM32H7/RGB_LVGL/Middlewares/LVGL/GUI/lvgl/src/core\lv_obj_style_gen.h **** {
 672:H:/STM32H7/RGB_LVGL/Middlewares/LVGL/GUI/lvgl/src/core\lv_obj_style_gen.h ****     lv_style_value_t v = lv_obj_get_style_prop(obj, part, LV_STYLE_TRANSITION);
 673:H:/STM32H7/RGB_LVGL/Middlewares/LVGL/GUI/lvgl/src/core\lv_obj_style_gen.h ****     return (const lv_style_transition_dsc_t *)v.ptr;
 674:H:/STM32H7/RGB_LVGL/Middlewares/LVGL/GUI/lvgl/src/core\lv_obj_style_gen.h **** }
 675:H:/STM32H7/RGB_LVGL/Middlewares/LVGL/GUI/lvgl/src/core\lv_obj_style_gen.h **** 
 676:H:/STM32H7/RGB_LVGL/Middlewares/LVGL/GUI/lvgl/src/core\lv_obj_style_gen.h **** static inline lv_blend_mode_t lv_obj_get_style_blend_mode(const lv_obj_t * obj, lv_part_t part)
 677:H:/STM32H7/RGB_LVGL/Middlewares/LVGL/GUI/lvgl/src/core\lv_obj_style_gen.h **** {
 678:H:/STM32H7/RGB_LVGL/Middlewares/LVGL/GUI/lvgl/src/core\lv_obj_style_gen.h ****     lv_style_value_t v = lv_obj_get_style_prop(obj, part, LV_STYLE_BLEND_MODE);
 679:H:/STM32H7/RGB_LVGL/Middlewares/LVGL/GUI/lvgl/src/core\lv_obj_style_gen.h ****     return (lv_blend_mode_t)v.num;
 680:H:/STM32H7/RGB_LVGL/Middlewares/LVGL/GUI/lvgl/src/core\lv_obj_style_gen.h **** }
 681:H:/STM32H7/RGB_LVGL/Middlewares/LVGL/GUI/lvgl/src/core\lv_obj_style_gen.h **** 
 682:H:/STM32H7/RGB_LVGL/Middlewares/LVGL/GUI/lvgl/src/core\lv_obj_style_gen.h **** static inline uint16_t lv_obj_get_style_layout(const lv_obj_t * obj, lv_part_t part)
 683:H:/STM32H7/RGB_LVGL/Middlewares/LVGL/GUI/lvgl/src/core\lv_obj_style_gen.h **** {
 684:H:/STM32H7/RGB_LVGL/Middlewares/LVGL/GUI/lvgl/src/core\lv_obj_style_gen.h ****     lv_style_value_t v = lv_obj_get_style_prop(obj, part, LV_STYLE_LAYOUT);
 685:H:/STM32H7/RGB_LVGL/Middlewares/LVGL/GUI/lvgl/src/core\lv_obj_style_gen.h ****     return (uint16_t)v.num;
 686:H:/STM32H7/RGB_LVGL/Middlewares/LVGL/GUI/lvgl/src/core\lv_obj_style_gen.h **** }
 687:H:/STM32H7/RGB_LVGL/Middlewares/LVGL/GUI/lvgl/src/core\lv_obj_style_gen.h **** 
 688:H:/STM32H7/RGB_LVGL/Middlewares/LVGL/GUI/lvgl/src/core\lv_obj_style_gen.h **** static inline lv_base_dir_t lv_obj_get_style_base_dir(const lv_obj_t * obj, lv_part_t part)
 689:H:/STM32H7/RGB_LVGL/Middlewares/LVGL/GUI/lvgl/src/core\lv_obj_style_gen.h **** {
 690:H:/STM32H7/RGB_LVGL/Middlewares/LVGL/GUI/lvgl/src/core\lv_obj_style_gen.h ****     lv_style_value_t v = lv_obj_get_style_prop(obj, part, LV_STYLE_BASE_DIR);
 691:H:/STM32H7/RGB_LVGL/Middlewares/LVGL/GUI/lvgl/src/core\lv_obj_style_gen.h ****     return (lv_base_dir_t)v.num;
 692:H:/STM32H7/RGB_LVGL/Middlewares/LVGL/GUI/lvgl/src/core\lv_obj_style_gen.h **** }
 693:H:/STM32H7/RGB_LVGL/Middlewares/LVGL/GUI/lvgl/src/core\lv_obj_style_gen.h **** 
 694:H:/STM32H7/RGB_LVGL/Middlewares/LVGL/GUI/lvgl/src/core\lv_obj_style_gen.h **** static inline const void * lv_obj_get_style_bitmap_mask_src(const lv_obj_t * obj, lv_part_t part)
 695:H:/STM32H7/RGB_LVGL/Middlewares/LVGL/GUI/lvgl/src/core\lv_obj_style_gen.h **** {
ARM GAS  C:\Users\28576\AppData\Local\Temp\ccV3XjXD.s 			page 34


 696:H:/STM32H7/RGB_LVGL/Middlewares/LVGL/GUI/lvgl/src/core\lv_obj_style_gen.h ****     lv_style_value_t v = lv_obj_get_style_prop(obj, part, LV_STYLE_BITMAP_MASK_SRC);
 697:H:/STM32H7/RGB_LVGL/Middlewares/LVGL/GUI/lvgl/src/core\lv_obj_style_gen.h ****     return (const void *)v.ptr;
 698:H:/STM32H7/RGB_LVGL/Middlewares/LVGL/GUI/lvgl/src/core\lv_obj_style_gen.h **** }
 699:H:/STM32H7/RGB_LVGL/Middlewares/LVGL/GUI/lvgl/src/core\lv_obj_style_gen.h **** 
 700:H:/STM32H7/RGB_LVGL/Middlewares/LVGL/GUI/lvgl/src/core\lv_obj_style_gen.h **** static inline uint32_t lv_obj_get_style_rotary_sensitivity(const lv_obj_t * obj, lv_part_t part)
 701:H:/STM32H7/RGB_LVGL/Middlewares/LVGL/GUI/lvgl/src/core\lv_obj_style_gen.h **** {
 702:H:/STM32H7/RGB_LVGL/Middlewares/LVGL/GUI/lvgl/src/core\lv_obj_style_gen.h ****     lv_style_value_t v = lv_obj_get_style_prop(obj, part, LV_STYLE_ROTARY_SENSITIVITY);
 703:H:/STM32H7/RGB_LVGL/Middlewares/LVGL/GUI/lvgl/src/core\lv_obj_style_gen.h ****     return (uint32_t)v.num;
 704:H:/STM32H7/RGB_LVGL/Middlewares/LVGL/GUI/lvgl/src/core\lv_obj_style_gen.h **** }
 705:H:/STM32H7/RGB_LVGL/Middlewares/LVGL/GUI/lvgl/src/core\lv_obj_style_gen.h **** 
 706:H:/STM32H7/RGB_LVGL/Middlewares/LVGL/GUI/lvgl/src/core\lv_obj_style_gen.h **** #if LV_USE_FLEX
 707:H:/STM32H7/RGB_LVGL/Middlewares/LVGL/GUI/lvgl/src/core\lv_obj_style_gen.h **** static inline lv_flex_flow_t lv_obj_get_style_flex_flow(const lv_obj_t * obj, lv_part_t part)
 708:H:/STM32H7/RGB_LVGL/Middlewares/LVGL/GUI/lvgl/src/core\lv_obj_style_gen.h **** {
 709:H:/STM32H7/RGB_LVGL/Middlewares/LVGL/GUI/lvgl/src/core\lv_obj_style_gen.h ****     lv_style_value_t v = lv_obj_get_style_prop(obj, part, LV_STYLE_FLEX_FLOW);
 710:H:/STM32H7/RGB_LVGL/Middlewares/LVGL/GUI/lvgl/src/core\lv_obj_style_gen.h ****     return (lv_flex_flow_t)v.num;
 711:H:/STM32H7/RGB_LVGL/Middlewares/LVGL/GUI/lvgl/src/core\lv_obj_style_gen.h **** }
 712:H:/STM32H7/RGB_LVGL/Middlewares/LVGL/GUI/lvgl/src/core\lv_obj_style_gen.h **** 
 713:H:/STM32H7/RGB_LVGL/Middlewares/LVGL/GUI/lvgl/src/core\lv_obj_style_gen.h **** static inline lv_flex_align_t lv_obj_get_style_flex_main_place(const lv_obj_t * obj, lv_part_t part
 714:H:/STM32H7/RGB_LVGL/Middlewares/LVGL/GUI/lvgl/src/core\lv_obj_style_gen.h **** {
 715:H:/STM32H7/RGB_LVGL/Middlewares/LVGL/GUI/lvgl/src/core\lv_obj_style_gen.h ****     lv_style_value_t v = lv_obj_get_style_prop(obj, part, LV_STYLE_FLEX_MAIN_PLACE);
 716:H:/STM32H7/RGB_LVGL/Middlewares/LVGL/GUI/lvgl/src/core\lv_obj_style_gen.h ****     return (lv_flex_align_t)v.num;
 717:H:/STM32H7/RGB_LVGL/Middlewares/LVGL/GUI/lvgl/src/core\lv_obj_style_gen.h **** }
 718:H:/STM32H7/RGB_LVGL/Middlewares/LVGL/GUI/lvgl/src/core\lv_obj_style_gen.h **** 
 719:H:/STM32H7/RGB_LVGL/Middlewares/LVGL/GUI/lvgl/src/core\lv_obj_style_gen.h **** static inline lv_flex_align_t lv_obj_get_style_flex_cross_place(const lv_obj_t * obj, lv_part_t par
 720:H:/STM32H7/RGB_LVGL/Middlewares/LVGL/GUI/lvgl/src/core\lv_obj_style_gen.h **** {
 721:H:/STM32H7/RGB_LVGL/Middlewares/LVGL/GUI/lvgl/src/core\lv_obj_style_gen.h ****     lv_style_value_t v = lv_obj_get_style_prop(obj, part, LV_STYLE_FLEX_CROSS_PLACE);
 722:H:/STM32H7/RGB_LVGL/Middlewares/LVGL/GUI/lvgl/src/core\lv_obj_style_gen.h ****     return (lv_flex_align_t)v.num;
 723:H:/STM32H7/RGB_LVGL/Middlewares/LVGL/GUI/lvgl/src/core\lv_obj_style_gen.h **** }
 724:H:/STM32H7/RGB_LVGL/Middlewares/LVGL/GUI/lvgl/src/core\lv_obj_style_gen.h **** 
 725:H:/STM32H7/RGB_LVGL/Middlewares/LVGL/GUI/lvgl/src/core\lv_obj_style_gen.h **** static inline lv_flex_align_t lv_obj_get_style_flex_track_place(const lv_obj_t * obj, lv_part_t par
 726:H:/STM32H7/RGB_LVGL/Middlewares/LVGL/GUI/lvgl/src/core\lv_obj_style_gen.h **** {
 727:H:/STM32H7/RGB_LVGL/Middlewares/LVGL/GUI/lvgl/src/core\lv_obj_style_gen.h ****     lv_style_value_t v = lv_obj_get_style_prop(obj, part, LV_STYLE_FLEX_TRACK_PLACE);
 728:H:/STM32H7/RGB_LVGL/Middlewares/LVGL/GUI/lvgl/src/core\lv_obj_style_gen.h ****     return (lv_flex_align_t)v.num;
 729:H:/STM32H7/RGB_LVGL/Middlewares/LVGL/GUI/lvgl/src/core\lv_obj_style_gen.h **** }
 730:H:/STM32H7/RGB_LVGL/Middlewares/LVGL/GUI/lvgl/src/core\lv_obj_style_gen.h **** 
 731:H:/STM32H7/RGB_LVGL/Middlewares/LVGL/GUI/lvgl/src/core\lv_obj_style_gen.h **** static inline uint8_t lv_obj_get_style_flex_grow(const lv_obj_t * obj, lv_part_t part)
 732:H:/STM32H7/RGB_LVGL/Middlewares/LVGL/GUI/lvgl/src/core\lv_obj_style_gen.h **** {
 733:H:/STM32H7/RGB_LVGL/Middlewares/LVGL/GUI/lvgl/src/core\lv_obj_style_gen.h ****     lv_style_value_t v = lv_obj_get_style_prop(obj, part, LV_STYLE_FLEX_GROW);
 734:H:/STM32H7/RGB_LVGL/Middlewares/LVGL/GUI/lvgl/src/core\lv_obj_style_gen.h ****     return (uint8_t)v.num;
 735:H:/STM32H7/RGB_LVGL/Middlewares/LVGL/GUI/lvgl/src/core\lv_obj_style_gen.h **** }
 736:H:/STM32H7/RGB_LVGL/Middlewares/LVGL/GUI/lvgl/src/core\lv_obj_style_gen.h **** 
 737:H:/STM32H7/RGB_LVGL/Middlewares/LVGL/GUI/lvgl/src/core\lv_obj_style_gen.h **** #endif /*LV_USE_FLEX*/
 738:H:/STM32H7/RGB_LVGL/Middlewares/LVGL/GUI/lvgl/src/core\lv_obj_style_gen.h **** 
 739:H:/STM32H7/RGB_LVGL/Middlewares/LVGL/GUI/lvgl/src/core\lv_obj_style_gen.h **** #if LV_USE_GRID
 740:H:/STM32H7/RGB_LVGL/Middlewares/LVGL/GUI/lvgl/src/core\lv_obj_style_gen.h **** static inline const int32_t * lv_obj_get_style_grid_column_dsc_array(const lv_obj_t * obj, lv_part_
 741:H:/STM32H7/RGB_LVGL/Middlewares/LVGL/GUI/lvgl/src/core\lv_obj_style_gen.h **** {
 742:H:/STM32H7/RGB_LVGL/Middlewares/LVGL/GUI/lvgl/src/core\lv_obj_style_gen.h ****     lv_style_value_t v = lv_obj_get_style_prop(obj, part, LV_STYLE_GRID_COLUMN_DSC_ARRAY);
 743:H:/STM32H7/RGB_LVGL/Middlewares/LVGL/GUI/lvgl/src/core\lv_obj_style_gen.h ****     return (const int32_t *)v.ptr;
 744:H:/STM32H7/RGB_LVGL/Middlewares/LVGL/GUI/lvgl/src/core\lv_obj_style_gen.h **** }
 745:H:/STM32H7/RGB_LVGL/Middlewares/LVGL/GUI/lvgl/src/core\lv_obj_style_gen.h **** 
 746:H:/STM32H7/RGB_LVGL/Middlewares/LVGL/GUI/lvgl/src/core\lv_obj_style_gen.h **** static inline lv_grid_align_t lv_obj_get_style_grid_column_align(const lv_obj_t * obj, lv_part_t pa
 747:H:/STM32H7/RGB_LVGL/Middlewares/LVGL/GUI/lvgl/src/core\lv_obj_style_gen.h **** {
 748:H:/STM32H7/RGB_LVGL/Middlewares/LVGL/GUI/lvgl/src/core\lv_obj_style_gen.h ****     lv_style_value_t v = lv_obj_get_style_prop(obj, part, LV_STYLE_GRID_COLUMN_ALIGN);
 749:H:/STM32H7/RGB_LVGL/Middlewares/LVGL/GUI/lvgl/src/core\lv_obj_style_gen.h ****     return (lv_grid_align_t)v.num;
 750:H:/STM32H7/RGB_LVGL/Middlewares/LVGL/GUI/lvgl/src/core\lv_obj_style_gen.h **** }
 751:H:/STM32H7/RGB_LVGL/Middlewares/LVGL/GUI/lvgl/src/core\lv_obj_style_gen.h **** 
 752:H:/STM32H7/RGB_LVGL/Middlewares/LVGL/GUI/lvgl/src/core\lv_obj_style_gen.h **** static inline const int32_t * lv_obj_get_style_grid_row_dsc_array(const lv_obj_t * obj, lv_part_t p
ARM GAS  C:\Users\28576\AppData\Local\Temp\ccV3XjXD.s 			page 35


 444              		.loc 2 752 31 view .LVU132
 445              	.LBB194:
 753:H:/STM32H7/RGB_LVGL/Middlewares/LVGL/GUI/lvgl/src/core\lv_obj_style_gen.h **** {
 754:H:/STM32H7/RGB_LVGL/Middlewares/LVGL/GUI/lvgl/src/core\lv_obj_style_gen.h ****     lv_style_value_t v = lv_obj_get_style_prop(obj, part, LV_STYLE_GRID_ROW_DSC_ARRAY);
 446              		.loc 2 754 5 view .LVU133
 447              		.loc 2 754 26 is_stmt 0 view .LVU134
 448 000a 8122     		movs	r2, #129
 449 000c 0021     		movs	r1, #0
 450              	.LVL54:
 451              		.loc 2 754 26 view .LVU135
 452 000e FFF7FEFF 		bl	lv_obj_get_style_prop
 453              	.LVL55:
 454              		.loc 2 754 26 view .LVU136
 455 0012 0390     		str	r0, [sp, #12]
 755:H:/STM32H7/RGB_LVGL/Middlewares/LVGL/GUI/lvgl/src/core\lv_obj_style_gen.h ****     return (const int32_t *)v.ptr;
 456              		.loc 2 755 5 is_stmt 1 view .LVU137
 457              	.LVL56:
 458              		.loc 2 755 5 is_stmt 0 view .LVU138
 459              	.LBE194:
 460              	.LBE193:
 461              	.LBE192:
 372:../../Middlewares/LVGL/GUI/lvgl/src/layouts/grid/lv_grid.c ****     if(row_templ == NULL) {
 462              		.loc 1 372 5 is_stmt 1 view .LVU139
 373:../../Middlewares/LVGL/GUI/lvgl/src/layouts/grid/lv_grid.c ****         lv_obj_t * parent = lv_obj_get_parent(cont);
 463              		.loc 1 373 5 view .LVU140
 373:../../Middlewares/LVGL/GUI/lvgl/src/layouts/grid/lv_grid.c ****         lv_obj_t * parent = lv_obj_get_parent(cont);
 464              		.loc 1 373 7 is_stmt 0 view .LVU141
 465 0014 88B1     		cbz	r0, .L58
 466 0016 8146     		mov	r9, r0
 372:../../Middlewares/LVGL/GUI/lvgl/src/layouts/grid/lv_grid.c ****     if(row_templ == NULL) {
 467              		.loc 1 372 10 view .LVU142
 468 0018 0023     		movs	r3, #0
 469 001a 0193     		str	r3, [sp, #4]
 470              	.LVL57:
 471              	.L33:
 391:../../Middlewares/LVGL/GUI/lvgl/src/layouts/grid/lv_grid.c ****     c->y = lv_malloc(sizeof(int32_t) * c->row_num);
 472              		.loc 1 391 5 is_stmt 1 view .LVU143
 391:../../Middlewares/LVGL/GUI/lvgl/src/layouts/grid/lv_grid.c ****     c->y = lv_malloc(sizeof(int32_t) * c->row_num);
 473              		.loc 1 391 18 is_stmt 0 view .LVU144
 474 001c 4846     		mov	r0, r9
 475 001e FFF7FEFF 		bl	count_tracks
 476              	.LVL58:
 391:../../Middlewares/LVGL/GUI/lvgl/src/layouts/grid/lv_grid.c ****     c->y = lv_malloc(sizeof(int32_t) * c->row_num);
 477              		.loc 1 391 16 discriminator 1 view .LVU145
 478 0022 6061     		str	r0, [r4, #20]
 392:../../Middlewares/LVGL/GUI/lvgl/src/layouts/grid/lv_grid.c ****     c->h = lv_malloc(sizeof(int32_t) * c->row_num);
 479              		.loc 1 392 5 is_stmt 1 view .LVU146
 392:../../Middlewares/LVGL/GUI/lvgl/src/layouts/grid/lv_grid.c ****     c->h = lv_malloc(sizeof(int32_t) * c->row_num);
 480              		.loc 1 392 12 is_stmt 0 view .LVU147
 481 0024 8000     		lsls	r0, r0, #2
 482 0026 FFF7FEFF 		bl	lv_malloc
 483              	.LVL59:
 392:../../Middlewares/LVGL/GUI/lvgl/src/layouts/grid/lv_grid.c ****     c->h = lv_malloc(sizeof(int32_t) * c->row_num);
 484              		.loc 1 392 10 discriminator 1 view .LVU148
 485 002a 6060     		str	r0, [r4, #4]
 393:../../Middlewares/LVGL/GUI/lvgl/src/layouts/grid/lv_grid.c ****     /*Set sizes for CONTENT cells*/
 486              		.loc 1 393 5 is_stmt 1 view .LVU149
ARM GAS  C:\Users\28576\AppData\Local\Temp\ccV3XjXD.s 			page 36


 393:../../Middlewares/LVGL/GUI/lvgl/src/layouts/grid/lv_grid.c ****     /*Set sizes for CONTENT cells*/
 487              		.loc 1 393 41 is_stmt 0 view .LVU150
 488 002c 6069     		ldr	r0, [r4, #20]
 393:../../Middlewares/LVGL/GUI/lvgl/src/layouts/grid/lv_grid.c ****     /*Set sizes for CONTENT cells*/
 489              		.loc 1 393 12 view .LVU151
 490 002e 8000     		lsls	r0, r0, #2
 491 0030 FFF7FEFF 		bl	lv_malloc
 492              	.LVL60:
 393:../../Middlewares/LVGL/GUI/lvgl/src/layouts/grid/lv_grid.c ****     /*Set sizes for CONTENT cells*/
 493              		.loc 1 393 10 discriminator 1 view .LVU152
 494 0034 E060     		str	r0, [r4, #12]
 395:../../Middlewares/LVGL/GUI/lvgl/src/layouts/grid/lv_grid.c ****     for(i = 0; i < c->row_num; i++) {
 495              		.loc 1 395 5 is_stmt 1 view .LVU153
 396:../../Middlewares/LVGL/GUI/lvgl/src/layouts/grid/lv_grid.c ****         int32_t size = LV_COORD_MIN;
 496              		.loc 1 396 5 view .LVU154
 497              	.LVL61:
 396:../../Middlewares/LVGL/GUI/lvgl/src/layouts/grid/lv_grid.c ****         int32_t size = LV_COORD_MIN;
 498              		.loc 1 396 11 is_stmt 0 view .LVU155
 499 0036 0026     		movs	r6, #0
 396:../../Middlewares/LVGL/GUI/lvgl/src/layouts/grid/lv_grid.c ****         int32_t size = LV_COORD_MIN;
 500              		.loc 1 396 5 view .LVU156
 501 0038 5BE0     		b	.L35
 502              	.LVL62:
 503              	.L58:
 504              	.LBB195:
 374:../../Middlewares/LVGL/GUI/lvgl/src/layouts/grid/lv_grid.c ****         row_templ = get_row_dsc(parent);
 505              		.loc 1 374 9 is_stmt 1 view .LVU157
 374:../../Middlewares/LVGL/GUI/lvgl/src/layouts/grid/lv_grid.c ****         row_templ = get_row_dsc(parent);
 506              		.loc 1 374 29 is_stmt 0 view .LVU158
 507 003a 4046     		mov	r0, r8
 508              	.LVL63:
 374:../../Middlewares/LVGL/GUI/lvgl/src/layouts/grid/lv_grid.c ****         row_templ = get_row_dsc(parent);
 509              		.loc 1 374 29 view .LVU159
 510 003c FFF7FEFF 		bl	lv_obj_get_parent
 511              	.LVL64:
 375:../../Middlewares/LVGL/GUI/lvgl/src/layouts/grid/lv_grid.c ****         if(row_templ == NULL) {
 512              		.loc 1 375 9 is_stmt 1 view .LVU160
 513              	.LBB196:
 514              	.LBI196:
  71:../../Middlewares/LVGL/GUI/lvgl/src/layouts/grid/lv_grid.c **** {
 515              		.loc 1 71 31 view .LVU161
  73:../../Middlewares/LVGL/GUI/lvgl/src/layouts/grid/lv_grid.c **** }
 516              		.loc 1 73 5 view .LVU162
 517              	.LBB197:
 518              	.LBI197:
 752:H:/STM32H7/RGB_LVGL/Middlewares/LVGL/GUI/lvgl/src/core\lv_obj_style_gen.h **** {
 519              		.loc 2 752 31 view .LVU163
 520              	.LBB198:
 754:H:/STM32H7/RGB_LVGL/Middlewares/LVGL/GUI/lvgl/src/core\lv_obj_style_gen.h ****     return (const int32_t *)v.ptr;
 521              		.loc 2 754 5 view .LVU164
 754:H:/STM32H7/RGB_LVGL/Middlewares/LVGL/GUI/lvgl/src/core\lv_obj_style_gen.h ****     return (const int32_t *)v.ptr;
 522              		.loc 2 754 26 is_stmt 0 view .LVU165
 523 0040 8122     		movs	r2, #129
 524 0042 0021     		movs	r1, #0
 525 0044 FFF7FEFF 		bl	lv_obj_get_style_prop
 526              	.LVL65:
 754:H:/STM32H7/RGB_LVGL/Middlewares/LVGL/GUI/lvgl/src/core\lv_obj_style_gen.h ****     return (const int32_t *)v.ptr;
ARM GAS  C:\Users\28576\AppData\Local\Temp\ccV3XjXD.s 			page 37


 527              		.loc 2 754 26 view .LVU166
 528 0048 0546     		mov	r5, r0
 529 004a 0390     		str	r0, [sp, #12]
 530              		.loc 2 755 5 is_stmt 1 view .LVU167
 531              	.LVL66:
 532              		.loc 2 755 5 is_stmt 0 view .LVU168
 533              	.LBE198:
 534              	.LBE197:
 535              	.LBE196:
 376:../../Middlewares/LVGL/GUI/lvgl/src/layouts/grid/lv_grid.c ****             LV_LOG_WARN("No row descriptor found even on the parent");
 536              		.loc 1 376 9 is_stmt 1 view .LVU169
 376:../../Middlewares/LVGL/GUI/lvgl/src/layouts/grid/lv_grid.c ****             LV_LOG_WARN("No row descriptor found even on the parent");
 537              		.loc 1 376 11 is_stmt 0 view .LVU170
 538 004c 0028     		cmp	r0, #0
 539 004e 00F0B680 		beq	.L32
 381:../../Middlewares/LVGL/GUI/lvgl/src/layouts/grid/lv_grid.c ****         int32_t span = get_row_span(cont);
 540              		.loc 1 381 9 is_stmt 1 view .LVU171
 541              	.LVL67:
 542              	.LBB199:
 543              	.LBI199:
  79:../../Middlewares/LVGL/GUI/lvgl/src/layouts/grid/lv_grid.c **** {
 544              		.loc 1 79 23 view .LVU172
  81:../../Middlewares/LVGL/GUI/lvgl/src/layouts/grid/lv_grid.c **** }
 545              		.loc 1 81 5 view .LVU173
 546              	.LBB200:
 547              	.LBI200:
 756:H:/STM32H7/RGB_LVGL/Middlewares/LVGL/GUI/lvgl/src/core\lv_obj_style_gen.h **** }
 757:H:/STM32H7/RGB_LVGL/Middlewares/LVGL/GUI/lvgl/src/core\lv_obj_style_gen.h **** 
 758:H:/STM32H7/RGB_LVGL/Middlewares/LVGL/GUI/lvgl/src/core\lv_obj_style_gen.h **** static inline lv_grid_align_t lv_obj_get_style_grid_row_align(const lv_obj_t * obj, lv_part_t part)
 759:H:/STM32H7/RGB_LVGL/Middlewares/LVGL/GUI/lvgl/src/core\lv_obj_style_gen.h **** {
 760:H:/STM32H7/RGB_LVGL/Middlewares/LVGL/GUI/lvgl/src/core\lv_obj_style_gen.h ****     lv_style_value_t v = lv_obj_get_style_prop(obj, part, LV_STYLE_GRID_ROW_ALIGN);
 761:H:/STM32H7/RGB_LVGL/Middlewares/LVGL/GUI/lvgl/src/core\lv_obj_style_gen.h ****     return (lv_grid_align_t)v.num;
 762:H:/STM32H7/RGB_LVGL/Middlewares/LVGL/GUI/lvgl/src/core\lv_obj_style_gen.h **** }
 763:H:/STM32H7/RGB_LVGL/Middlewares/LVGL/GUI/lvgl/src/core\lv_obj_style_gen.h **** 
 764:H:/STM32H7/RGB_LVGL/Middlewares/LVGL/GUI/lvgl/src/core\lv_obj_style_gen.h **** static inline int32_t lv_obj_get_style_grid_cell_column_pos(const lv_obj_t * obj, lv_part_t part)
 765:H:/STM32H7/RGB_LVGL/Middlewares/LVGL/GUI/lvgl/src/core\lv_obj_style_gen.h **** {
 766:H:/STM32H7/RGB_LVGL/Middlewares/LVGL/GUI/lvgl/src/core\lv_obj_style_gen.h ****     lv_style_value_t v = lv_obj_get_style_prop(obj, part, LV_STYLE_GRID_CELL_COLUMN_POS);
 767:H:/STM32H7/RGB_LVGL/Middlewares/LVGL/GUI/lvgl/src/core\lv_obj_style_gen.h ****     return (int32_t)v.num;
 768:H:/STM32H7/RGB_LVGL/Middlewares/LVGL/GUI/lvgl/src/core\lv_obj_style_gen.h **** }
 769:H:/STM32H7/RGB_LVGL/Middlewares/LVGL/GUI/lvgl/src/core\lv_obj_style_gen.h **** 
 770:H:/STM32H7/RGB_LVGL/Middlewares/LVGL/GUI/lvgl/src/core\lv_obj_style_gen.h **** static inline lv_grid_align_t lv_obj_get_style_grid_cell_x_align(const lv_obj_t * obj, lv_part_t pa
 771:H:/STM32H7/RGB_LVGL/Middlewares/LVGL/GUI/lvgl/src/core\lv_obj_style_gen.h **** {
 772:H:/STM32H7/RGB_LVGL/Middlewares/LVGL/GUI/lvgl/src/core\lv_obj_style_gen.h ****     lv_style_value_t v = lv_obj_get_style_prop(obj, part, LV_STYLE_GRID_CELL_X_ALIGN);
 773:H:/STM32H7/RGB_LVGL/Middlewares/LVGL/GUI/lvgl/src/core\lv_obj_style_gen.h ****     return (lv_grid_align_t)v.num;
 774:H:/STM32H7/RGB_LVGL/Middlewares/LVGL/GUI/lvgl/src/core\lv_obj_style_gen.h **** }
 775:H:/STM32H7/RGB_LVGL/Middlewares/LVGL/GUI/lvgl/src/core\lv_obj_style_gen.h **** 
 776:H:/STM32H7/RGB_LVGL/Middlewares/LVGL/GUI/lvgl/src/core\lv_obj_style_gen.h **** static inline int32_t lv_obj_get_style_grid_cell_column_span(const lv_obj_t * obj, lv_part_t part)
 777:H:/STM32H7/RGB_LVGL/Middlewares/LVGL/GUI/lvgl/src/core\lv_obj_style_gen.h **** {
 778:H:/STM32H7/RGB_LVGL/Middlewares/LVGL/GUI/lvgl/src/core\lv_obj_style_gen.h ****     lv_style_value_t v = lv_obj_get_style_prop(obj, part, LV_STYLE_GRID_CELL_COLUMN_SPAN);
 779:H:/STM32H7/RGB_LVGL/Middlewares/LVGL/GUI/lvgl/src/core\lv_obj_style_gen.h ****     return (int32_t)v.num;
 780:H:/STM32H7/RGB_LVGL/Middlewares/LVGL/GUI/lvgl/src/core\lv_obj_style_gen.h **** }
 781:H:/STM32H7/RGB_LVGL/Middlewares/LVGL/GUI/lvgl/src/core\lv_obj_style_gen.h **** 
 782:H:/STM32H7/RGB_LVGL/Middlewares/LVGL/GUI/lvgl/src/core\lv_obj_style_gen.h **** static inline int32_t lv_obj_get_style_grid_cell_row_pos(const lv_obj_t * obj, lv_part_t part)
 548              		.loc 2 782 23 view .LVU174
 549              	.LBB201:
 783:H:/STM32H7/RGB_LVGL/Middlewares/LVGL/GUI/lvgl/src/core\lv_obj_style_gen.h **** {
 784:H:/STM32H7/RGB_LVGL/Middlewares/LVGL/GUI/lvgl/src/core\lv_obj_style_gen.h ****     lv_style_value_t v = lv_obj_get_style_prop(obj, part, LV_STYLE_GRID_CELL_ROW_POS);
ARM GAS  C:\Users\28576\AppData\Local\Temp\ccV3XjXD.s 			page 38


 550              		.loc 2 784 5 view .LVU175
 551              		.loc 2 784 26 is_stmt 0 view .LVU176
 552 0052 8622     		movs	r2, #134
 553 0054 0021     		movs	r1, #0
 554 0056 4046     		mov	r0, r8
 555              	.LVL68:
 556              		.loc 2 784 26 view .LVU177
 557 0058 FFF7FEFF 		bl	lv_obj_get_style_prop
 558              	.LVL69:
 559 005c 0646     		mov	r6, r0
 560 005e 0390     		str	r0, [sp, #12]
 785:H:/STM32H7/RGB_LVGL/Middlewares/LVGL/GUI/lvgl/src/core\lv_obj_style_gen.h ****     return (int32_t)v.num;
 561              		.loc 2 785 5 is_stmt 1 view .LVU178
 562              	.LVL70:
 563              		.loc 2 785 5 is_stmt 0 view .LVU179
 564              	.LBE201:
 565              	.LBE200:
 566              	.LBE199:
 382:../../Middlewares/LVGL/GUI/lvgl/src/layouts/grid/lv_grid.c **** 
 567              		.loc 1 382 9 is_stmt 1 view .LVU180
 568              	.LBB202:
 569              	.LBI202:
  87:../../Middlewares/LVGL/GUI/lvgl/src/layouts/grid/lv_grid.c **** {
 570              		.loc 1 87 23 view .LVU181
  89:../../Middlewares/LVGL/GUI/lvgl/src/layouts/grid/lv_grid.c **** }
 571              		.loc 1 89 5 view .LVU182
 572              	.LBB203:
 573              	.LBI203:
 786:H:/STM32H7/RGB_LVGL/Middlewares/LVGL/GUI/lvgl/src/core\lv_obj_style_gen.h **** }
 787:H:/STM32H7/RGB_LVGL/Middlewares/LVGL/GUI/lvgl/src/core\lv_obj_style_gen.h **** 
 788:H:/STM32H7/RGB_LVGL/Middlewares/LVGL/GUI/lvgl/src/core\lv_obj_style_gen.h **** static inline lv_grid_align_t lv_obj_get_style_grid_cell_y_align(const lv_obj_t * obj, lv_part_t pa
 789:H:/STM32H7/RGB_LVGL/Middlewares/LVGL/GUI/lvgl/src/core\lv_obj_style_gen.h **** {
 790:H:/STM32H7/RGB_LVGL/Middlewares/LVGL/GUI/lvgl/src/core\lv_obj_style_gen.h ****     lv_style_value_t v = lv_obj_get_style_prop(obj, part, LV_STYLE_GRID_CELL_Y_ALIGN);
 791:H:/STM32H7/RGB_LVGL/Middlewares/LVGL/GUI/lvgl/src/core\lv_obj_style_gen.h ****     return (lv_grid_align_t)v.num;
 792:H:/STM32H7/RGB_LVGL/Middlewares/LVGL/GUI/lvgl/src/core\lv_obj_style_gen.h **** }
 793:H:/STM32H7/RGB_LVGL/Middlewares/LVGL/GUI/lvgl/src/core\lv_obj_style_gen.h **** 
 794:H:/STM32H7/RGB_LVGL/Middlewares/LVGL/GUI/lvgl/src/core\lv_obj_style_gen.h **** static inline int32_t lv_obj_get_style_grid_cell_row_span(const lv_obj_t * obj, lv_part_t part)
 574              		.loc 2 794 23 view .LVU183
 575              	.LBB204:
 795:H:/STM32H7/RGB_LVGL/Middlewares/LVGL/GUI/lvgl/src/core\lv_obj_style_gen.h **** {
 796:H:/STM32H7/RGB_LVGL/Middlewares/LVGL/GUI/lvgl/src/core\lv_obj_style_gen.h ****     lv_style_value_t v = lv_obj_get_style_prop(obj, part, LV_STYLE_GRID_CELL_ROW_SPAN);
 576              		.loc 2 796 5 view .LVU184
 577              		.loc 2 796 26 is_stmt 0 view .LVU185
 578 0060 8722     		movs	r2, #135
 579 0062 0021     		movs	r1, #0
 580 0064 4046     		mov	r0, r8
 581              	.LVL71:
 582              		.loc 2 796 26 view .LVU186
 583 0066 FFF7FEFF 		bl	lv_obj_get_style_prop
 584              	.LVL72:
 585 006a 0746     		mov	r7, r0
 586 006c 0390     		str	r0, [sp, #12]
 797:H:/STM32H7/RGB_LVGL/Middlewares/LVGL/GUI/lvgl/src/core\lv_obj_style_gen.h ****     return (int32_t)v.num;
 587              		.loc 2 797 5 is_stmt 1 view .LVU187
 588              	.LVL73:
 589              		.loc 2 797 5 is_stmt 0 view .LVU188
 590              	.LBE204:
ARM GAS  C:\Users\28576\AppData\Local\Temp\ccV3XjXD.s 			page 39


 591              	.LBE203:
 592              	.LBE202:
 384:../../Middlewares/LVGL/GUI/lvgl/src/layouts/grid/lv_grid.c ****         lv_memcpy(row_templ_sub, &row_templ[pos], sizeof(int32_t) * span);
 593              		.loc 1 384 9 is_stmt 1 view .LVU189
 384:../../Middlewares/LVGL/GUI/lvgl/src/layouts/grid/lv_grid.c ****         lv_memcpy(row_templ_sub, &row_templ[pos], sizeof(int32_t) * span);
 594              		.loc 1 384 69 is_stmt 0 view .LVU190
 595 006e 0130     		adds	r0, r0, #1
 596              	.LVL74:
 384:../../Middlewares/LVGL/GUI/lvgl/src/layouts/grid/lv_grid.c ****         lv_memcpy(row_templ_sub, &row_templ[pos], sizeof(int32_t) * span);
 597              		.loc 1 384 35 view .LVU191
 598 0070 8000     		lsls	r0, r0, #2
 599 0072 FFF7FEFF 		bl	lv_malloc
 600              	.LVL75:
 601 0076 8146     		mov	r9, r0
 602              	.LVL76:
 385:../../Middlewares/LVGL/GUI/lvgl/src/layouts/grid/lv_grid.c ****         row_templ_sub[span] = LV_GRID_TEMPLATE_LAST;
 603              		.loc 1 385 9 is_stmt 1 view .LVU192
 604 0078 BA00     		lsls	r2, r7, #2
 605 007a 05EB8601 		add	r1, r5, r6, lsl #2
 606 007e FFF7FEFF 		bl	lv_memcpy
 607              	.LVL77:
 386:../../Middlewares/LVGL/GUI/lvgl/src/layouts/grid/lv_grid.c ****         row_templ = row_templ_sub;
 608              		.loc 1 386 9 view .LVU193
 386:../../Middlewares/LVGL/GUI/lvgl/src/layouts/grid/lv_grid.c ****         row_templ = row_templ_sub;
 609              		.loc 1 386 29 is_stmt 0 view .LVU194
 610 0082 6FF06043 		mvn	r3, #-536870912
 611 0086 49F82730 		str	r3, [r9, r7, lsl #2]
 387:../../Middlewares/LVGL/GUI/lvgl/src/layouts/grid/lv_grid.c ****         subgrid = true;
 612              		.loc 1 387 9 is_stmt 1 view .LVU195
 613              	.LVL78:
 388:../../Middlewares/LVGL/GUI/lvgl/src/layouts/grid/lv_grid.c ****     }
 614              		.loc 1 388 9 view .LVU196
 388:../../Middlewares/LVGL/GUI/lvgl/src/layouts/grid/lv_grid.c ****     }
 615              		.loc 1 388 17 is_stmt 0 view .LVU197
 616 008a 0123     		movs	r3, #1
 617 008c 0193     		str	r3, [sp, #4]
 618 008e C5E7     		b	.L33
 619              	.LVL79:
 620              	.L38:
 388:../../Middlewares/LVGL/GUI/lvgl/src/layouts/grid/lv_grid.c ****     }
 621              		.loc 1 388 17 view .LVU198
 622              	.LBE195:
 623              	.LBB205:
 624              	.LBB206:
 401:../../Middlewares/LVGL/GUI/lvgl/src/layouts/grid/lv_grid.c ****                 lv_obj_t * item = lv_obj_get_child(cont, ci);
 625              		.loc 1 401 62 is_stmt 1 discriminator 2 view .LVU199
 626 0090 0135     		adds	r5, r5, #1
 627              	.LVL80:
 628              	.L36:
 401:../../Middlewares/LVGL/GUI/lvgl/src/layouts/grid/lv_grid.c ****                 lv_obj_t * item = lv_obj_get_child(cont, ci);
 629              		.loc 1 401 28 discriminator 1 view .LVU200
 401:../../Middlewares/LVGL/GUI/lvgl/src/layouts/grid/lv_grid.c ****                 lv_obj_t * item = lv_obj_get_child(cont, ci);
 630              		.loc 1 401 30 is_stmt 0 discriminator 1 view .LVU201
 631 0092 4046     		mov	r0, r8
 632 0094 FFF7FEFF 		bl	lv_obj_get_child_count
 633              	.LVL81:
 401:../../Middlewares/LVGL/GUI/lvgl/src/layouts/grid/lv_grid.c ****                 lv_obj_t * item = lv_obj_get_child(cont, ci);
ARM GAS  C:\Users\28576\AppData\Local\Temp\ccV3XjXD.s 			page 40


 634              		.loc 1 401 28 discriminator 3 view .LVU202
 635 0098 A842     		cmp	r0, r5
 636 009a 23D9     		bls	.L59
 637              	.LBB207:
 402:../../Middlewares/LVGL/GUI/lvgl/src/layouts/grid/lv_grid.c ****                 if(lv_obj_has_flag_any(item, LV_OBJ_FLAG_IGNORE_LAYOUT | LV_OBJ_FLAG_HIDDEN | LV_OB
 638              		.loc 1 402 17 is_stmt 1 view .LVU203
 402:../../Middlewares/LVGL/GUI/lvgl/src/layouts/grid/lv_grid.c ****                 if(lv_obj_has_flag_any(item, LV_OBJ_FLAG_IGNORE_LAYOUT | LV_OBJ_FLAG_HIDDEN | LV_OB
 639              		.loc 1 402 35 is_stmt 0 view .LVU204
 640 009c 2946     		mov	r1, r5
 641 009e 4046     		mov	r0, r8
 642 00a0 FFF7FEFF 		bl	lv_obj_get_child
 643              	.LVL82:
 644 00a4 0746     		mov	r7, r0
 645              	.LVL83:
 403:../../Middlewares/LVGL/GUI/lvgl/src/layouts/grid/lv_grid.c ****                 uint32_t row_span = get_row_span(item);
 646              		.loc 1 403 17 is_stmt 1 view .LVU205
 403:../../Middlewares/LVGL/GUI/lvgl/src/layouts/grid/lv_grid.c ****                 uint32_t row_span = get_row_span(item);
 647              		.loc 1 403 20 is_stmt 0 view .LVU206
 648 00a6 4949     		ldr	r1, .L65
 649 00a8 FFF7FEFF 		bl	lv_obj_has_flag_any
 650              	.LVL84:
 403:../../Middlewares/LVGL/GUI/lvgl/src/layouts/grid/lv_grid.c ****                 uint32_t row_span = get_row_span(item);
 651              		.loc 1 403 19 discriminator 1 view .LVU207
 652 00ac 0028     		cmp	r0, #0
 653 00ae EFD1     		bne	.L38
 404:../../Middlewares/LVGL/GUI/lvgl/src/layouts/grid/lv_grid.c ****                 if(row_span != 1) continue;
 654              		.loc 1 404 17 is_stmt 1 view .LVU208
 655              	.LVL85:
 656              	.LBB208:
 657              	.LBI208:
  87:../../Middlewares/LVGL/GUI/lvgl/src/layouts/grid/lv_grid.c **** {
 658              		.loc 1 87 23 view .LVU209
  89:../../Middlewares/LVGL/GUI/lvgl/src/layouts/grid/lv_grid.c **** }
 659              		.loc 1 89 5 view .LVU210
 660              	.LBB209:
 661              	.LBI209:
 794:H:/STM32H7/RGB_LVGL/Middlewares/LVGL/GUI/lvgl/src/core\lv_obj_style_gen.h **** {
 662              		.loc 2 794 23 view .LVU211
 663              	.LBB210:
 796:H:/STM32H7/RGB_LVGL/Middlewares/LVGL/GUI/lvgl/src/core\lv_obj_style_gen.h ****     return (int32_t)v.num;
 664              		.loc 2 796 5 view .LVU212
 796:H:/STM32H7/RGB_LVGL/Middlewares/LVGL/GUI/lvgl/src/core\lv_obj_style_gen.h ****     return (int32_t)v.num;
 665              		.loc 2 796 26 is_stmt 0 view .LVU213
 666 00b0 8722     		movs	r2, #135
 667 00b2 0146     		mov	r1, r0
 668 00b4 3846     		mov	r0, r7
 669 00b6 FFF7FEFF 		bl	lv_obj_get_style_prop
 670              	.LVL86:
 671 00ba 0390     		str	r0, [sp, #12]
 672              		.loc 2 797 5 is_stmt 1 view .LVU214
 673              	.LVL87:
 674              		.loc 2 797 5 is_stmt 0 view .LVU215
 675              	.LBE210:
 676              	.LBE209:
 677              	.LBE208:
 405:../../Middlewares/LVGL/GUI/lvgl/src/layouts/grid/lv_grid.c **** 
 678              		.loc 1 405 17 is_stmt 1 view .LVU216
ARM GAS  C:\Users\28576\AppData\Local\Temp\ccV3XjXD.s 			page 41


 405:../../Middlewares/LVGL/GUI/lvgl/src/layouts/grid/lv_grid.c **** 
 679              		.loc 1 405 19 is_stmt 0 view .LVU217
 680 00bc 0128     		cmp	r0, #1
 681 00be E7D1     		bne	.L38
 407:../../Middlewares/LVGL/GUI/lvgl/src/layouts/grid/lv_grid.c ****                 if(row_pos != i) continue;
 682              		.loc 1 407 17 is_stmt 1 view .LVU218
 683              	.LVL88:
 684              	.LBB211:
 685              	.LBI211:
  79:../../Middlewares/LVGL/GUI/lvgl/src/layouts/grid/lv_grid.c **** {
 686              		.loc 1 79 23 view .LVU219
  81:../../Middlewares/LVGL/GUI/lvgl/src/layouts/grid/lv_grid.c **** }
 687              		.loc 1 81 5 view .LVU220
 688              	.LBB212:
 689              	.LBI212:
 782:H:/STM32H7/RGB_LVGL/Middlewares/LVGL/GUI/lvgl/src/core\lv_obj_style_gen.h **** {
 690              		.loc 2 782 23 view .LVU221
 691              	.LBB213:
 784:H:/STM32H7/RGB_LVGL/Middlewares/LVGL/GUI/lvgl/src/core\lv_obj_style_gen.h ****     return (int32_t)v.num;
 692              		.loc 2 784 5 view .LVU222
 784:H:/STM32H7/RGB_LVGL/Middlewares/LVGL/GUI/lvgl/src/core\lv_obj_style_gen.h ****     return (int32_t)v.num;
 693              		.loc 2 784 26 is_stmt 0 view .LVU223
 694 00c0 8622     		movs	r2, #134
 695 00c2 0021     		movs	r1, #0
 696 00c4 3846     		mov	r0, r7
 697              	.LVL89:
 784:H:/STM32H7/RGB_LVGL/Middlewares/LVGL/GUI/lvgl/src/core\lv_obj_style_gen.h ****     return (int32_t)v.num;
 698              		.loc 2 784 26 view .LVU224
 699 00c6 FFF7FEFF 		bl	lv_obj_get_style_prop
 700              	.LVL90:
 784:H:/STM32H7/RGB_LVGL/Middlewares/LVGL/GUI/lvgl/src/core\lv_obj_style_gen.h ****     return (int32_t)v.num;
 701              		.loc 2 784 26 view .LVU225
 702 00ca 0390     		str	r0, [sp, #12]
 785:H:/STM32H7/RGB_LVGL/Middlewares/LVGL/GUI/lvgl/src/core\lv_obj_style_gen.h **** }
 703              		.loc 2 785 5 is_stmt 1 view .LVU226
 704              	.LVL91:
 785:H:/STM32H7/RGB_LVGL/Middlewares/LVGL/GUI/lvgl/src/core\lv_obj_style_gen.h **** }
 705              		.loc 2 785 5 is_stmt 0 view .LVU227
 706              	.LBE213:
 707              	.LBE212:
 708              	.LBE211:
 408:../../Middlewares/LVGL/GUI/lvgl/src/layouts/grid/lv_grid.c **** 
 709              		.loc 1 408 17 is_stmt 1 view .LVU228
 408:../../Middlewares/LVGL/GUI/lvgl/src/layouts/grid/lv_grid.c **** 
 710              		.loc 1 408 19 is_stmt 0 view .LVU229
 711 00cc 8642     		cmp	r6, r0
 712 00ce DFD1     		bne	.L38
 410:../../Middlewares/LVGL/GUI/lvgl/src/layouts/grid/lv_grid.c ****             }
 713              		.loc 1 410 17 is_stmt 1 view .LVU230
 410:../../Middlewares/LVGL/GUI/lvgl/src/layouts/grid/lv_grid.c ****             }
 714              		.loc 1 410 24 is_stmt 0 view .LVU231
 715 00d0 3846     		mov	r0, r7
 716              	.LVL92:
 410:../../Middlewares/LVGL/GUI/lvgl/src/layouts/grid/lv_grid.c ****             }
 717              		.loc 1 410 24 view .LVU232
 718 00d2 FFF7FEFF 		bl	lv_obj_get_height
 719              	.LVL93:
ARM GAS  C:\Users\28576\AppData\Local\Temp\ccV3XjXD.s 			page 42


 410:../../Middlewares/LVGL/GUI/lvgl/src/layouts/grid/lv_grid.c ****             }
 720              		.loc 1 410 24 discriminator 1 view .LVU233
 721 00d6 5845     		cmp	r0, fp
 722 00d8 DADB     		blt	.L38
 410:../../Middlewares/LVGL/GUI/lvgl/src/layouts/grid/lv_grid.c ****             }
 723              		.loc 1 410 24 discriminator 2 view .LVU234
 724 00da 3846     		mov	r0, r7
 725 00dc FFF7FEFF 		bl	lv_obj_get_height
 726              	.LVL94:
 727 00e0 8346     		mov	fp, r0
 728              	.LVL95:
 410:../../Middlewares/LVGL/GUI/lvgl/src/layouts/grid/lv_grid.c ****             }
 729              		.loc 1 410 24 discriminator 2 view .LVU235
 730 00e2 D5E7     		b	.L38
 731              	.LVL96:
 732              	.L59:
 410:../../Middlewares/LVGL/GUI/lvgl/src/layouts/grid/lv_grid.c ****             }
 733              		.loc 1 410 24 discriminator 2 view .LVU236
 734              	.LBE207:
 412:../../Middlewares/LVGL/GUI/lvgl/src/layouts/grid/lv_grid.c ****             else c->h[i] = 0;
 735              		.loc 1 412 13 is_stmt 1 view .LVU237
 412:../../Middlewares/LVGL/GUI/lvgl/src/layouts/grid/lv_grid.c ****             else c->h[i] = 0;
 736              		.loc 1 412 15 is_stmt 0 view .LVU238
 737 00e4 BBF1000F 		cmp	fp, #0
 738 00e8 11DB     		blt	.L40
 412:../../Middlewares/LVGL/GUI/lvgl/src/layouts/grid/lv_grid.c ****             else c->h[i] = 0;
 739              		.loc 1 412 27 is_stmt 1 discriminator 1 view .LVU239
 412:../../Middlewares/LVGL/GUI/lvgl/src/layouts/grid/lv_grid.c ****             else c->h[i] = 0;
 740              		.loc 1 412 28 is_stmt 0 discriminator 1 view .LVU240
 741 00ea E368     		ldr	r3, [r4, #12]
 412:../../Middlewares/LVGL/GUI/lvgl/src/layouts/grid/lv_grid.c ****             else c->h[i] = 0;
 742              		.loc 1 412 35 discriminator 1 view .LVU241
 743 00ec 43F80AB0 		str	fp, [r3, r10]
 744              	.LVL97:
 745              	.L37:
 412:../../Middlewares/LVGL/GUI/lvgl/src/layouts/grid/lv_grid.c ****             else c->h[i] = 0;
 746              		.loc 1 412 35 discriminator 1 view .LVU242
 747              	.LBE206:
 748              	.LBE205:
 396:../../Middlewares/LVGL/GUI/lvgl/src/layouts/grid/lv_grid.c ****         int32_t size = LV_COORD_MIN;
 749              		.loc 1 396 33 is_stmt 1 discriminator 2 view .LVU243
 750 00f0 0136     		adds	r6, r6, #1
 751              	.LVL98:
 752              	.L35:
 396:../../Middlewares/LVGL/GUI/lvgl/src/layouts/grid/lv_grid.c ****         int32_t size = LV_COORD_MIN;
 753              		.loc 1 396 18 discriminator 1 view .LVU244
 396:../../Middlewares/LVGL/GUI/lvgl/src/layouts/grid/lv_grid.c ****         int32_t size = LV_COORD_MIN;
 754              		.loc 1 396 21 is_stmt 0 discriminator 1 view .LVU245
 755 00f2 6369     		ldr	r3, [r4, #20]
 396:../../Middlewares/LVGL/GUI/lvgl/src/layouts/grid/lv_grid.c ****         int32_t size = LV_COORD_MIN;
 756              		.loc 1 396 18 discriminator 1 view .LVU246
 757 00f4 B342     		cmp	r3, r6
 758 00f6 0FD9     		bls	.L60
 759              	.LBB216:
 397:../../Middlewares/LVGL/GUI/lvgl/src/layouts/grid/lv_grid.c ****         if(IS_CONTENT(row_templ[i])) {
 760              		.loc 1 397 9 is_stmt 1 view .LVU247
 761              	.LVL99:
ARM GAS  C:\Users\28576\AppData\Local\Temp\ccV3XjXD.s 			page 43


 398:../../Middlewares/LVGL/GUI/lvgl/src/layouts/grid/lv_grid.c ****             /*Check the size of children of this cell*/
 762              		.loc 1 398 9 view .LVU248
 398:../../Middlewares/LVGL/GUI/lvgl/src/layouts/grid/lv_grid.c ****             /*Check the size of children of this cell*/
 763              		.loc 1 398 12 is_stmt 0 view .LVU249
 764 00f8 4FEA860A 		lsl	r10, r6, #2
 765 00fc 59F82620 		ldr	r2, [r9, r6, lsl #2]
 398:../../Middlewares/LVGL/GUI/lvgl/src/layouts/grid/lv_grid.c ****             /*Check the size of children of this cell*/
 766              		.loc 1 398 11 view .LVU250
 767 0100 334B     		ldr	r3, .L65+4
 768 0102 9A42     		cmp	r2, r3
 769 0104 F4D1     		bne	.L37
 770              	.LBB214:
 401:../../Middlewares/LVGL/GUI/lvgl/src/layouts/grid/lv_grid.c ****                 lv_obj_t * item = lv_obj_get_child(cont, ci);
 771              		.loc 1 401 20 view .LVU251
 772 0106 0025     		movs	r5, #0
 773              	.LBE214:
 397:../../Middlewares/LVGL/GUI/lvgl/src/layouts/grid/lv_grid.c ****         if(IS_CONTENT(row_templ[i])) {
 774              		.loc 1 397 17 view .LVU252
 775 0108 DFF8CCB0 		ldr	fp, .L65+12
 776 010c C1E7     		b	.L36
 777              	.LVL100:
 778              	.L40:
 779              	.LBB215:
 413:../../Middlewares/LVGL/GUI/lvgl/src/layouts/grid/lv_grid.c ****         }
 780              		.loc 1 413 18 is_stmt 1 view .LVU253
 413:../../Middlewares/LVGL/GUI/lvgl/src/layouts/grid/lv_grid.c ****         }
 781              		.loc 1 413 19 is_stmt 0 view .LVU254
 782 010e E368     		ldr	r3, [r4, #12]
 413:../../Middlewares/LVGL/GUI/lvgl/src/layouts/grid/lv_grid.c ****         }
 783              		.loc 1 413 26 view .LVU255
 784 0110 0022     		movs	r2, #0
 785 0112 43F80A20 		str	r2, [r3, r10]
 786 0116 EBE7     		b	.L37
 787              	.LVL101:
 788              	.L60:
 413:../../Middlewares/LVGL/GUI/lvgl/src/layouts/grid/lv_grid.c ****         }
 789              		.loc 1 413 26 view .LVU256
 790              	.LBE215:
 791              	.LBE216:
 418:../../Middlewares/LVGL/GUI/lvgl/src/layouts/grid/lv_grid.c **** 
 792              		.loc 1 418 13 view .LVU257
 793 0118 0026     		movs	r6, #0
 794              	.LVL102:
 417:../../Middlewares/LVGL/GUI/lvgl/src/layouts/grid/lv_grid.c ****     int32_t grid_h = 0;
 795              		.loc 1 417 14 view .LVU258
 796 011a 3546     		mov	r5, r6
 420:../../Middlewares/LVGL/GUI/lvgl/src/layouts/grid/lv_grid.c ****         int32_t x = row_templ[i];
 797              		.loc 1 420 11 view .LVU259
 798 011c 3346     		mov	r3, r6
 799 011e 06E0     		b	.L42
 800              	.LVL103:
 801              	.L43:
 802              	.LBB217:
 425:../../Middlewares/LVGL/GUI/lvgl/src/layouts/grid/lv_grid.c ****             grid_h += c->h[i];
 803              		.loc 1 425 14 is_stmt 1 view .LVU260
 425:../../Middlewares/LVGL/GUI/lvgl/src/layouts/grid/lv_grid.c ****             grid_h += c->h[i];
 804              		.loc 1 425 16 is_stmt 0 view .LVU261
ARM GAS  C:\Users\28576\AppData\Local\Temp\ccV3XjXD.s 			page 44


 805 0120 2B49     		ldr	r1, .L65+4
 806 0122 8A42     		cmp	r2, r1
 807 0124 10D0     		beq	.L61
 429:../../Middlewares/LVGL/GUI/lvgl/src/layouts/grid/lv_grid.c ****             grid_h += x;
 808              		.loc 1 429 13 is_stmt 1 view .LVU262
 429:../../Middlewares/LVGL/GUI/lvgl/src/layouts/grid/lv_grid.c ****             grid_h += x;
 809              		.loc 1 429 14 is_stmt 0 view .LVU263
 810 0126 E168     		ldr	r1, [r4, #12]
 429:../../Middlewares/LVGL/GUI/lvgl/src/layouts/grid/lv_grid.c ****             grid_h += x;
 811              		.loc 1 429 21 view .LVU264
 812 0128 0A50     		str	r2, [r1, r0]
 430:../../Middlewares/LVGL/GUI/lvgl/src/layouts/grid/lv_grid.c ****         }
 813              		.loc 1 430 13 is_stmt 1 view .LVU265
 430:../../Middlewares/LVGL/GUI/lvgl/src/layouts/grid/lv_grid.c ****         }
 814              		.loc 1 430 20 is_stmt 0 view .LVU266
 815 012a 1644     		add	r6, r6, r2
 816              	.LVL104:
 817              	.L44:
 430:../../Middlewares/LVGL/GUI/lvgl/src/layouts/grid/lv_grid.c ****         }
 818              		.loc 1 430 20 view .LVU267
 819              	.LBE217:
 420:../../Middlewares/LVGL/GUI/lvgl/src/layouts/grid/lv_grid.c ****         int32_t x = row_templ[i];
 820              		.loc 1 420 33 is_stmt 1 discriminator 2 view .LVU268
 821 012c 0133     		adds	r3, r3, #1
 822              	.LVL105:
 823              	.L42:
 420:../../Middlewares/LVGL/GUI/lvgl/src/layouts/grid/lv_grid.c ****         int32_t x = row_templ[i];
 824              		.loc 1 420 18 discriminator 1 view .LVU269
 420:../../Middlewares/LVGL/GUI/lvgl/src/layouts/grid/lv_grid.c ****         int32_t x = row_templ[i];
 825              		.loc 1 420 21 is_stmt 0 discriminator 1 view .LVU270
 826 012e 6269     		ldr	r2, [r4, #20]
 420:../../Middlewares/LVGL/GUI/lvgl/src/layouts/grid/lv_grid.c ****         int32_t x = row_templ[i];
 827              		.loc 1 420 18 discriminator 1 view .LVU271
 828 0130 9A42     		cmp	r2, r3
 829 0132 0DD9     		bls	.L62
 830              	.LBB218:
 421:../../Middlewares/LVGL/GUI/lvgl/src/layouts/grid/lv_grid.c ****         if(IS_FR(x)) {
 831              		.loc 1 421 9 is_stmt 1 view .LVU272
 421:../../Middlewares/LVGL/GUI/lvgl/src/layouts/grid/lv_grid.c ****         if(IS_FR(x)) {
 832              		.loc 1 421 30 is_stmt 0 view .LVU273
 833 0134 9800     		lsls	r0, r3, #2
 421:../../Middlewares/LVGL/GUI/lvgl/src/layouts/grid/lv_grid.c ****         if(IS_FR(x)) {
 834              		.loc 1 421 17 view .LVU274
 835 0136 59F82320 		ldr	r2, [r9, r3, lsl #2]
 836              	.LVL106:
 422:../../Middlewares/LVGL/GUI/lvgl/src/layouts/grid/lv_grid.c ****             row_fr_cnt += GET_FR(x);
 837              		.loc 1 422 9 is_stmt 1 view .LVU275
 422:../../Middlewares/LVGL/GUI/lvgl/src/layouts/grid/lv_grid.c ****             row_fr_cnt += GET_FR(x);
 838              		.loc 1 422 11 is_stmt 0 view .LVU276
 839 013a 2549     		ldr	r1, .L65+4
 840 013c 8A42     		cmp	r2, r1
 841 013e EFDD     		ble	.L43
 423:../../Middlewares/LVGL/GUI/lvgl/src/layouts/grid/lv_grid.c ****         }
 842              		.loc 1 423 13 is_stmt 1 view .LVU277
 423:../../Middlewares/LVGL/GUI/lvgl/src/layouts/grid/lv_grid.c ****         }
 843              		.loc 1 423 24 is_stmt 0 view .LVU278
 844 0140 2A44     		add	r2, r2, r5
ARM GAS  C:\Users\28576\AppData\Local\Temp\ccV3XjXD.s 			page 45


 845              	.LVL107:
 423:../../Middlewares/LVGL/GUI/lvgl/src/layouts/grid/lv_grid.c ****         }
 846              		.loc 1 423 24 view .LVU279
 847 0142 244D     		ldr	r5, .L65+8
 848              	.LVL108:
 423:../../Middlewares/LVGL/GUI/lvgl/src/layouts/grid/lv_grid.c ****         }
 849              		.loc 1 423 24 view .LVU280
 850 0144 1544     		add	r5, r5, r2
 851              	.LVL109:
 423:../../Middlewares/LVGL/GUI/lvgl/src/layouts/grid/lv_grid.c ****         }
 852              		.loc 1 423 24 view .LVU281
 853 0146 F1E7     		b	.L44
 854              	.LVL110:
 855              	.L61:
 426:../../Middlewares/LVGL/GUI/lvgl/src/layouts/grid/lv_grid.c ****         }
 856              		.loc 1 426 13 is_stmt 1 view .LVU282
 426:../../Middlewares/LVGL/GUI/lvgl/src/layouts/grid/lv_grid.c ****         }
 857              		.loc 1 426 24 is_stmt 0 view .LVU283
 858 0148 E268     		ldr	r2, [r4, #12]
 859              	.LVL111:
 426:../../Middlewares/LVGL/GUI/lvgl/src/layouts/grid/lv_grid.c ****         }
 860              		.loc 1 426 27 view .LVU284
 861 014a 1258     		ldr	r2, [r2, r0]
 426:../../Middlewares/LVGL/GUI/lvgl/src/layouts/grid/lv_grid.c ****         }
 862              		.loc 1 426 20 view .LVU285
 863 014c 1644     		add	r6, r6, r2
 864              	.LVL112:
 426:../../Middlewares/LVGL/GUI/lvgl/src/layouts/grid/lv_grid.c ****         }
 865              		.loc 1 426 20 view .LVU286
 866 014e EDE7     		b	.L44
 867              	.LVL113:
 868              	.L62:
 426:../../Middlewares/LVGL/GUI/lvgl/src/layouts/grid/lv_grid.c ****         }
 869              		.loc 1 426 20 view .LVU287
 870              	.LBE218:
 434:../../Middlewares/LVGL/GUI/lvgl/src/layouts/grid/lv_grid.c ****     int32_t cont_h = lv_obj_get_content_height(cont) - row_gap * (c->row_num - 1);
 871              		.loc 1 434 5 is_stmt 1 view .LVU288
 872              	.LBB219:
 873              	.LBI219:
 178:H:/STM32H7/RGB_LVGL/Middlewares/LVGL/GUI/lvgl/src/core\lv_obj_style_gen.h **** {
 874              		.loc 2 178 23 view .LVU289
 875              	.LBB220:
 180:H:/STM32H7/RGB_LVGL/Middlewares/LVGL/GUI/lvgl/src/core\lv_obj_style_gen.h ****     return (int32_t)v.num;
 876              		.loc 2 180 5 view .LVU290
 180:H:/STM32H7/RGB_LVGL/Middlewares/LVGL/GUI/lvgl/src/core\lv_obj_style_gen.h ****     return (int32_t)v.num;
 877              		.loc 2 180 26 is_stmt 0 view .LVU291
 878 0150 1422     		movs	r2, #20
 879 0152 0021     		movs	r1, #0
 880 0154 4046     		mov	r0, r8
 881 0156 FFF7FEFF 		bl	lv_obj_get_style_prop
 882              	.LVL114:
 180:H:/STM32H7/RGB_LVGL/Middlewares/LVGL/GUI/lvgl/src/core\lv_obj_style_gen.h ****     return (int32_t)v.num;
 883              		.loc 2 180 26 view .LVU292
 884 015a 0746     		mov	r7, r0
 885 015c 0390     		str	r0, [sp, #12]
 181:H:/STM32H7/RGB_LVGL/Middlewares/LVGL/GUI/lvgl/src/core\lv_obj_style_gen.h **** }
 886              		.loc 2 181 5 is_stmt 1 view .LVU293
ARM GAS  C:\Users\28576\AppData\Local\Temp\ccV3XjXD.s 			page 46


 887              	.LVL115:
 181:H:/STM32H7/RGB_LVGL/Middlewares/LVGL/GUI/lvgl/src/core\lv_obj_style_gen.h **** }
 888              		.loc 2 181 5 is_stmt 0 view .LVU294
 889              	.LBE220:
 890              	.LBE219:
 435:../../Middlewares/LVGL/GUI/lvgl/src/layouts/grid/lv_grid.c ****     int32_t free_h = cont_h - grid_h;
 891              		.loc 1 435 5 is_stmt 1 view .LVU295
 435:../../Middlewares/LVGL/GUI/lvgl/src/layouts/grid/lv_grid.c ****     int32_t free_h = cont_h - grid_h;
 892              		.loc 1 435 22 is_stmt 0 view .LVU296
 893 015e 4046     		mov	r0, r8
 894              	.LVL116:
 435:../../Middlewares/LVGL/GUI/lvgl/src/layouts/grid/lv_grid.c ****     int32_t free_h = cont_h - grid_h;
 895              		.loc 1 435 22 view .LVU297
 896 0160 FFF7FEFF 		bl	lv_obj_get_content_height
 897              	.LVL117:
 435:../../Middlewares/LVGL/GUI/lvgl/src/layouts/grid/lv_grid.c ****     int32_t free_h = cont_h - grid_h;
 898              		.loc 1 435 68 discriminator 1 view .LVU298
 899 0164 6369     		ldr	r3, [r4, #20]
 435:../../Middlewares/LVGL/GUI/lvgl/src/layouts/grid/lv_grid.c ****     int32_t free_h = cont_h - grid_h;
 900              		.loc 1 435 78 discriminator 1 view .LVU299
 901 0166 013B     		subs	r3, r3, #1
 435:../../Middlewares/LVGL/GUI/lvgl/src/layouts/grid/lv_grid.c ****     int32_t free_h = cont_h - grid_h;
 902              		.loc 1 435 54 discriminator 1 view .LVU300
 903 0168 03FB1700 		mls	r0, r3, r7, r0
 904              	.LVL118:
 436:../../Middlewares/LVGL/GUI/lvgl/src/layouts/grid/lv_grid.c ****     if(free_h < 0) free_h = 0;
 905              		.loc 1 436 5 is_stmt 1 view .LVU301
 437:../../Middlewares/LVGL/GUI/lvgl/src/layouts/grid/lv_grid.c **** 
 906              		.loc 1 437 5 view .LVU302
 437:../../Middlewares/LVGL/GUI/lvgl/src/layouts/grid/lv_grid.c **** 
 907              		.loc 1 437 7 is_stmt 0 view .LVU303
 908 016c 801B     		subs	r0, r0, r6
 909              	.LVL119:
 437:../../Middlewares/LVGL/GUI/lvgl/src/layouts/grid/lv_grid.c **** 
 910              		.loc 1 437 7 view .LVU304
 911 016e 22D4     		bmi	.L63
 912              	.LVL120:
 913              	.L47:
 437:../../Middlewares/LVGL/GUI/lvgl/src/layouts/grid/lv_grid.c **** 
 914              		.loc 1 437 27 discriminator 1 view .LVU305
 915 0170 0023     		movs	r3, #0
 916 0172 0AE0     		b	.L51
 917              	.LVL121:
 918              	.L50:
 919              	.LBB221:
 920              	.LBB222:
 921              	.LBB223:
 922              	.LBB224:
 120:../../Middlewares/LVGL/GUI/lvgl/src/layouts/grid/lv_grid.c **** }
 923              		.loc 1 120 22 view .LVU306
 924 0174 02EB6702 		add	r2, r2, r7, asr #1
 925              	.LVL122:
 120:../../Middlewares/LVGL/GUI/lvgl/src/layouts/grid/lv_grid.c **** }
 926              		.loc 1 120 37 view .LVU307
 927 0178 92FBFEF2 		sdiv	r2, r2, lr
 928              	.LVL123:
 120:../../Middlewares/LVGL/GUI/lvgl/src/layouts/grid/lv_grid.c **** }
ARM GAS  C:\Users\28576\AppData\Local\Temp\ccV3XjXD.s 			page 47


 929              		.loc 1 120 37 view .LVU308
 930              	.LBE224:
 931              	.LBE223:
 443:../../Middlewares/LVGL/GUI/lvgl/src/layouts/grid/lv_grid.c ****             /*By updating remaining fr and height, we ensure f == row_fr_cnt
 932              		.loc 1 443 21 discriminator 1 view .LVU309
 933 017c 4CF80620 		str	r2, [ip, r6]
 934              	.LVL124:
 447:../../Middlewares/LVGL/GUI/lvgl/src/layouts/grid/lv_grid.c ****             free_h -= c->h[i];
 935              		.loc 1 447 13 is_stmt 1 view .LVU310
 447:../../Middlewares/LVGL/GUI/lvgl/src/layouts/grid/lv_grid.c ****             free_h -= c->h[i];
 936              		.loc 1 447 24 is_stmt 0 view .LVU311
 937 0180 6D1A     		subs	r5, r5, r1
 938              	.LVL125:
 448:../../Middlewares/LVGL/GUI/lvgl/src/layouts/grid/lv_grid.c ****         }
 939              		.loc 1 448 13 is_stmt 1 view .LVU312
 448:../../Middlewares/LVGL/GUI/lvgl/src/layouts/grid/lv_grid.c ****         }
 940              		.loc 1 448 24 is_stmt 0 view .LVU313
 941 0182 E268     		ldr	r2, [r4, #12]
 448:../../Middlewares/LVGL/GUI/lvgl/src/layouts/grid/lv_grid.c ****         }
 942              		.loc 1 448 27 view .LVU314
 943 0184 9259     		ldr	r2, [r2, r6]
 448:../../Middlewares/LVGL/GUI/lvgl/src/layouts/grid/lv_grid.c ****         }
 944              		.loc 1 448 20 view .LVU315
 945 0186 801A     		subs	r0, r0, r2
 946              	.LVL126:
 947              	.L49:
 448:../../Middlewares/LVGL/GUI/lvgl/src/layouts/grid/lv_grid.c ****         }
 948              		.loc 1 448 20 view .LVU316
 949              	.LBE222:
 950              	.LBE221:
 439:../../Middlewares/LVGL/GUI/lvgl/src/layouts/grid/lv_grid.c ****         int32_t x = row_templ[i];
 951              		.loc 1 439 47 is_stmt 1 discriminator 2 view .LVU317
 952 0188 0133     		adds	r3, r3, #1
 953              	.LVL127:
 954              	.L51:
 439:../../Middlewares/LVGL/GUI/lvgl/src/layouts/grid/lv_grid.c ****         int32_t x = row_templ[i];
 955              		.loc 1 439 31 discriminator 1 view .LVU318
 439:../../Middlewares/LVGL/GUI/lvgl/src/layouts/grid/lv_grid.c ****         int32_t x = row_templ[i];
 956              		.loc 1 439 21 is_stmt 0 discriminator 1 view .LVU319
 957 018a 6269     		ldr	r2, [r4, #20]
 439:../../Middlewares/LVGL/GUI/lvgl/src/layouts/grid/lv_grid.c ****         int32_t x = row_templ[i];
 958              		.loc 1 439 31 discriminator 1 view .LVU320
 959 018c 9A42     		cmp	r2, r3
 960 018e 14D9     		bls	.L52
 439:../../Middlewares/LVGL/GUI/lvgl/src/layouts/grid/lv_grid.c ****         int32_t x = row_templ[i];
 961              		.loc 1 439 31 discriminator 3 view .LVU321
 962 0190 9DB1     		cbz	r5, .L52
 963              	.LBB228:
 440:../../Middlewares/LVGL/GUI/lvgl/src/layouts/grid/lv_grid.c ****         if(IS_FR(x)) {
 964              		.loc 1 440 9 is_stmt 1 view .LVU322
 440:../../Middlewares/LVGL/GUI/lvgl/src/layouts/grid/lv_grid.c ****         if(IS_FR(x)) {
 965              		.loc 1 440 30 is_stmt 0 view .LVU323
 966 0192 9E00     		lsls	r6, r3, #2
 440:../../Middlewares/LVGL/GUI/lvgl/src/layouts/grid/lv_grid.c ****         if(IS_FR(x)) {
 967              		.loc 1 440 17 view .LVU324
 968 0194 59F82320 		ldr	r2, [r9, r3, lsl #2]
 969              	.LVL128:
ARM GAS  C:\Users\28576\AppData\Local\Temp\ccV3XjXD.s 			page 48


 441:../../Middlewares/LVGL/GUI/lvgl/src/layouts/grid/lv_grid.c ****             int32_t f = GET_FR(x);
 970              		.loc 1 441 9 is_stmt 1 view .LVU325
 441:../../Middlewares/LVGL/GUI/lvgl/src/layouts/grid/lv_grid.c ****             int32_t f = GET_FR(x);
 971              		.loc 1 441 11 is_stmt 0 view .LVU326
 972 0198 0D49     		ldr	r1, .L65+4
 973 019a 8A42     		cmp	r2, r1
 974 019c F4DD     		ble	.L49
 975              	.LBB227:
 442:../../Middlewares/LVGL/GUI/lvgl/src/layouts/grid/lv_grid.c ****             c->h[i] = lv_div_round_closest(free_h * f, row_fr_cnt);
 976              		.loc 1 442 13 is_stmt 1 view .LVU327
 442:../../Middlewares/LVGL/GUI/lvgl/src/layouts/grid/lv_grid.c ****             c->h[i] = lv_div_round_closest(free_h * f, row_fr_cnt);
 977              		.loc 1 442 21 is_stmt 0 view .LVU328
 978 019e 0D49     		ldr	r1, .L65+8
 979 01a0 1144     		add	r1, r1, r2
 980              	.LVL129:
 443:../../Middlewares/LVGL/GUI/lvgl/src/layouts/grid/lv_grid.c ****             /*By updating remaining fr and height, we ensure f == row_fr_cnt
 981              		.loc 1 443 13 is_stmt 1 view .LVU329
 443:../../Middlewares/LVGL/GUI/lvgl/src/layouts/grid/lv_grid.c ****             /*By updating remaining fr and height, we ensure f == row_fr_cnt
 982              		.loc 1 443 23 is_stmt 0 view .LVU330
 983 01a2 01FB00F2 		mul	r2, r1, r0
 984              	.LVL130:
 443:../../Middlewares/LVGL/GUI/lvgl/src/layouts/grid/lv_grid.c ****             /*By updating remaining fr and height, we ensure f == row_fr_cnt
 985              		.loc 1 443 23 view .LVU331
 986 01a6 AE46     		mov	lr, r5
 443:../../Middlewares/LVGL/GUI/lvgl/src/layouts/grid/lv_grid.c ****             /*By updating remaining fr and height, we ensure f == row_fr_cnt
 987              		.loc 1 443 14 view .LVU332
 988 01a8 D4F80CC0 		ldr	ip, [r4, #12]
 989              	.LVL131:
 990              	.LBB226:
 991              	.LBI223:
 118:../../Middlewares/LVGL/GUI/lvgl/src/layouts/grid/lv_grid.c **** {
 992              		.loc 1 118 23 is_stmt 1 view .LVU333
 993              	.LBB225:
 120:../../Middlewares/LVGL/GUI/lvgl/src/layouts/grid/lv_grid.c **** }
 994              		.loc 1 120 5 view .LVU334
 120:../../Middlewares/LVGL/GUI/lvgl/src/layouts/grid/lv_grid.c **** }
 995              		.loc 1 120 32 is_stmt 0 view .LVU335
 996 01ac 2F46     		mov	r7, r5
 997 01ae 002D     		cmp	r5, #0
 998 01b0 E0DA     		bge	.L50
 999 01b2 6F1C     		adds	r7, r5, #1
 1000 01b4 DEE7     		b	.L50
 1001              	.LVL132:
 1002              	.L63:
 120:../../Middlewares/LVGL/GUI/lvgl/src/layouts/grid/lv_grid.c **** }
 1003              		.loc 1 120 32 view .LVU336
 1004              	.LBE225:
 1005              	.LBE226:
 1006              	.LBE227:
 1007              	.LBE228:
 437:../../Middlewares/LVGL/GUI/lvgl/src/layouts/grid/lv_grid.c **** 
 1008              		.loc 1 437 27 discriminator 1 view .LVU337
 1009 01b6 0020     		movs	r0, #0
 1010              	.LVL133:
 437:../../Middlewares/LVGL/GUI/lvgl/src/layouts/grid/lv_grid.c **** 
 1011              		.loc 1 437 27 discriminator 1 view .LVU338
 1012 01b8 DAE7     		b	.L47
ARM GAS  C:\Users\28576\AppData\Local\Temp\ccV3XjXD.s 			page 49


 1013              	.LVL134:
 1014              	.L52:
 452:../../Middlewares/LVGL/GUI/lvgl/src/layouts/grid/lv_grid.c ****         lv_free((void *)row_templ);
 1015              		.loc 1 452 5 is_stmt 1 view .LVU339
 452:../../Middlewares/LVGL/GUI/lvgl/src/layouts/grid/lv_grid.c ****         lv_free((void *)row_templ);
 1016              		.loc 1 452 7 is_stmt 0 view .LVU340
 1017 01ba 019B     		ldr	r3, [sp, #4]
 1018              	.LVL135:
 452:../../Middlewares/LVGL/GUI/lvgl/src/layouts/grid/lv_grid.c ****         lv_free((void *)row_templ);
 1019              		.loc 1 452 7 view .LVU341
 1020 01bc 13B9     		cbnz	r3, .L64
 1021              	.LVL136:
 1022              	.L32:
 455:../../Middlewares/LVGL/GUI/lvgl/src/layouts/grid/lv_grid.c **** 
 1023              		.loc 1 455 1 view .LVU342
 1024 01be 05B0     		add	sp, sp, #20
 1025              	.LCFI4:
 1026              		.cfi_remember_state
 1027              		.cfi_def_cfa_offset 36
 1028              		@ sp needed
 1029 01c0 BDE8F08F 		pop	{r4, r5, r6, r7, r8, r9, r10, fp, pc}
 1030              	.LVL137:
 1031              	.L64:
 1032              	.LCFI5:
 1033              		.cfi_restore_state
 453:../../Middlewares/LVGL/GUI/lvgl/src/layouts/grid/lv_grid.c ****     }
 1034              		.loc 1 453 9 is_stmt 1 view .LVU343
 1035 01c4 4846     		mov	r0, r9
 1036              	.LVL138:
 453:../../Middlewares/LVGL/GUI/lvgl/src/layouts/grid/lv_grid.c ****     }
 1037              		.loc 1 453 9 is_stmt 0 view .LVU344
 1038 01c6 FFF7FEFF 		bl	lv_free
 1039              	.LVL139:
 1040 01ca F8E7     		b	.L32
 1041              	.L66:
 1042              		.align	2
 1043              	.L65:
 1044 01cc 01000600 		.word	393217
 1045 01d0 9AFFFF1F 		.word	536870810
 1046 01d4 650000E0 		.word	-536870811
 1047 01d8 010000E0 		.word	-536870911
 1048              		.cfi_endproc
 1049              	.LFE209:
 1051              		.section	.text.lv_obj_get_style_space_left,"ax",%progbits
 1052              		.align	1
 1053              		.syntax unified
 1054              		.thumb
 1055              		.thumb_func
 1057              	lv_obj_get_style_space_left:
 1058              	.LVL140:
 1059              	.LFB166:
 1060              		.file 3 "H:/STM32H7/RGB_LVGL/Middlewares/LVGL/GUI/lvgl/src/core/lv_obj_style.h"
   1:H:/STM32H7/RGB_LVGL/Middlewares/LVGL/GUI/lvgl/src/core\lv_obj_style.h **** /**
   2:H:/STM32H7/RGB_LVGL/Middlewares/LVGL/GUI/lvgl/src/core\lv_obj_style.h ****  * @file lv_obj_style.h
   3:H:/STM32H7/RGB_LVGL/Middlewares/LVGL/GUI/lvgl/src/core\lv_obj_style.h ****  *
   4:H:/STM32H7/RGB_LVGL/Middlewares/LVGL/GUI/lvgl/src/core\lv_obj_style.h ****  */
   5:H:/STM32H7/RGB_LVGL/Middlewares/LVGL/GUI/lvgl/src/core\lv_obj_style.h **** 
ARM GAS  C:\Users\28576\AppData\Local\Temp\ccV3XjXD.s 			page 50


   6:H:/STM32H7/RGB_LVGL/Middlewares/LVGL/GUI/lvgl/src/core\lv_obj_style.h **** #ifndef LV_OBJ_STYLE_H
   7:H:/STM32H7/RGB_LVGL/Middlewares/LVGL/GUI/lvgl/src/core\lv_obj_style.h **** #define LV_OBJ_STYLE_H
   8:H:/STM32H7/RGB_LVGL/Middlewares/LVGL/GUI/lvgl/src/core\lv_obj_style.h **** 
   9:H:/STM32H7/RGB_LVGL/Middlewares/LVGL/GUI/lvgl/src/core\lv_obj_style.h **** #ifdef __cplusplus
  10:H:/STM32H7/RGB_LVGL/Middlewares/LVGL/GUI/lvgl/src/core\lv_obj_style.h **** extern "C" {
  11:H:/STM32H7/RGB_LVGL/Middlewares/LVGL/GUI/lvgl/src/core\lv_obj_style.h **** #endif
  12:H:/STM32H7/RGB_LVGL/Middlewares/LVGL/GUI/lvgl/src/core\lv_obj_style.h **** 
  13:H:/STM32H7/RGB_LVGL/Middlewares/LVGL/GUI/lvgl/src/core\lv_obj_style.h **** /*********************
  14:H:/STM32H7/RGB_LVGL/Middlewares/LVGL/GUI/lvgl/src/core\lv_obj_style.h ****  *      INCLUDES
  15:H:/STM32H7/RGB_LVGL/Middlewares/LVGL/GUI/lvgl/src/core\lv_obj_style.h ****  *********************/
  16:H:/STM32H7/RGB_LVGL/Middlewares/LVGL/GUI/lvgl/src/core\lv_obj_style.h **** #include "../misc/lv_bidi.h"
  17:H:/STM32H7/RGB_LVGL/Middlewares/LVGL/GUI/lvgl/src/core\lv_obj_style.h **** #include "../misc/lv_style.h"
  18:H:/STM32H7/RGB_LVGL/Middlewares/LVGL/GUI/lvgl/src/core\lv_obj_style.h **** #include "../misc/lv_types.h"
  19:H:/STM32H7/RGB_LVGL/Middlewares/LVGL/GUI/lvgl/src/core\lv_obj_style.h **** 
  20:H:/STM32H7/RGB_LVGL/Middlewares/LVGL/GUI/lvgl/src/core\lv_obj_style.h **** /*********************
  21:H:/STM32H7/RGB_LVGL/Middlewares/LVGL/GUI/lvgl/src/core\lv_obj_style.h ****  *      DEFINES
  22:H:/STM32H7/RGB_LVGL/Middlewares/LVGL/GUI/lvgl/src/core\lv_obj_style.h ****  *********************/
  23:H:/STM32H7/RGB_LVGL/Middlewares/LVGL/GUI/lvgl/src/core\lv_obj_style.h **** 
  24:H:/STM32H7/RGB_LVGL/Middlewares/LVGL/GUI/lvgl/src/core\lv_obj_style.h **** /**********************
  25:H:/STM32H7/RGB_LVGL/Middlewares/LVGL/GUI/lvgl/src/core\lv_obj_style.h ****  *      TYPEDEFS
  26:H:/STM32H7/RGB_LVGL/Middlewares/LVGL/GUI/lvgl/src/core\lv_obj_style.h ****  **********************/
  27:H:/STM32H7/RGB_LVGL/Middlewares/LVGL/GUI/lvgl/src/core\lv_obj_style.h **** 
  28:H:/STM32H7/RGB_LVGL/Middlewares/LVGL/GUI/lvgl/src/core\lv_obj_style.h **** typedef enum {
  29:H:/STM32H7/RGB_LVGL/Middlewares/LVGL/GUI/lvgl/src/core\lv_obj_style.h ****     LV_STYLE_STATE_CMP_SAME,           /**< The style properties in the 2 states are identical */
  30:H:/STM32H7/RGB_LVGL/Middlewares/LVGL/GUI/lvgl/src/core\lv_obj_style.h ****     LV_STYLE_STATE_CMP_DIFF_REDRAW,    /**< The differences can be shown with a simple redraw */
  31:H:/STM32H7/RGB_LVGL/Middlewares/LVGL/GUI/lvgl/src/core\lv_obj_style.h ****     LV_STYLE_STATE_CMP_DIFF_DRAW_PAD,  /**< The differences can be shown with a simple redraw */
  32:H:/STM32H7/RGB_LVGL/Middlewares/LVGL/GUI/lvgl/src/core\lv_obj_style.h ****     LV_STYLE_STATE_CMP_DIFF_LAYOUT,    /**< The differences can be shown with a simple redraw */
  33:H:/STM32H7/RGB_LVGL/Middlewares/LVGL/GUI/lvgl/src/core\lv_obj_style.h **** } lv_style_state_cmp_t;
  34:H:/STM32H7/RGB_LVGL/Middlewares/LVGL/GUI/lvgl/src/core\lv_obj_style.h **** 
  35:H:/STM32H7/RGB_LVGL/Middlewares/LVGL/GUI/lvgl/src/core\lv_obj_style.h **** typedef uint32_t lv_style_selector_t;
  36:H:/STM32H7/RGB_LVGL/Middlewares/LVGL/GUI/lvgl/src/core\lv_obj_style.h **** 
  37:H:/STM32H7/RGB_LVGL/Middlewares/LVGL/GUI/lvgl/src/core\lv_obj_style.h **** /**********************
  38:H:/STM32H7/RGB_LVGL/Middlewares/LVGL/GUI/lvgl/src/core\lv_obj_style.h ****  * GLOBAL PROTOTYPES
  39:H:/STM32H7/RGB_LVGL/Middlewares/LVGL/GUI/lvgl/src/core\lv_obj_style.h ****  **********************/
  40:H:/STM32H7/RGB_LVGL/Middlewares/LVGL/GUI/lvgl/src/core\lv_obj_style.h **** 
  41:H:/STM32H7/RGB_LVGL/Middlewares/LVGL/GUI/lvgl/src/core\lv_obj_style.h **** /**
  42:H:/STM32H7/RGB_LVGL/Middlewares/LVGL/GUI/lvgl/src/core\lv_obj_style.h ****  * Add a style to an object.
  43:H:/STM32H7/RGB_LVGL/Middlewares/LVGL/GUI/lvgl/src/core\lv_obj_style.h ****  * @param obj       pointer to an object
  44:H:/STM32H7/RGB_LVGL/Middlewares/LVGL/GUI/lvgl/src/core\lv_obj_style.h ****  * @param style     pointer to a style to add
  45:H:/STM32H7/RGB_LVGL/Middlewares/LVGL/GUI/lvgl/src/core\lv_obj_style.h ****  * @param selector  OR-ed value of parts and state to which the style should be added
  46:H:/STM32H7/RGB_LVGL/Middlewares/LVGL/GUI/lvgl/src/core\lv_obj_style.h ****  *
  47:H:/STM32H7/RGB_LVGL/Middlewares/LVGL/GUI/lvgl/src/core\lv_obj_style.h ****  * Examples:
  48:H:/STM32H7/RGB_LVGL/Middlewares/LVGL/GUI/lvgl/src/core\lv_obj_style.h ****  * @code
  49:H:/STM32H7/RGB_LVGL/Middlewares/LVGL/GUI/lvgl/src/core\lv_obj_style.h ****  * lv_obj_add_style(btn, &style_btn, 0); //Default button style
  50:H:/STM32H7/RGB_LVGL/Middlewares/LVGL/GUI/lvgl/src/core\lv_obj_style.h ****  *
  51:H:/STM32H7/RGB_LVGL/Middlewares/LVGL/GUI/lvgl/src/core\lv_obj_style.h ****  * lv_obj_add_style(btn, &btn_red, LV_STATE_PRESSED); //Overwrite only some colors to red when pres
  52:H:/STM32H7/RGB_LVGL/Middlewares/LVGL/GUI/lvgl/src/core\lv_obj_style.h ****  * @endcode
  53:H:/STM32H7/RGB_LVGL/Middlewares/LVGL/GUI/lvgl/src/core\lv_obj_style.h ****  */
  54:H:/STM32H7/RGB_LVGL/Middlewares/LVGL/GUI/lvgl/src/core\lv_obj_style.h **** void lv_obj_add_style(lv_obj_t * obj, const lv_style_t * style, lv_style_selector_t selector);
  55:H:/STM32H7/RGB_LVGL/Middlewares/LVGL/GUI/lvgl/src/core\lv_obj_style.h **** 
  56:H:/STM32H7/RGB_LVGL/Middlewares/LVGL/GUI/lvgl/src/core\lv_obj_style.h **** /**
  57:H:/STM32H7/RGB_LVGL/Middlewares/LVGL/GUI/lvgl/src/core\lv_obj_style.h ****  * Replaces a style of an object, preserving the order of the style stack (local styles and transit
  58:H:/STM32H7/RGB_LVGL/Middlewares/LVGL/GUI/lvgl/src/core\lv_obj_style.h ****  * @param obj           pointer to an object
  59:H:/STM32H7/RGB_LVGL/Middlewares/LVGL/GUI/lvgl/src/core\lv_obj_style.h ****  * @param old_style     pointer to a style to replace.
  60:H:/STM32H7/RGB_LVGL/Middlewares/LVGL/GUI/lvgl/src/core\lv_obj_style.h ****  * @param new_style     pointer to a style to replace the old style with.
  61:H:/STM32H7/RGB_LVGL/Middlewares/LVGL/GUI/lvgl/src/core\lv_obj_style.h ****  * @param selector      OR-ed values of states and a part to replace only styles with matching sele
  62:H:/STM32H7/RGB_LVGL/Middlewares/LVGL/GUI/lvgl/src/core\lv_obj_style.h ****  *
ARM GAS  C:\Users\28576\AppData\Local\Temp\ccV3XjXD.s 			page 51


  63:H:/STM32H7/RGB_LVGL/Middlewares/LVGL/GUI/lvgl/src/core\lv_obj_style.h ****  * Examples:
  64:H:/STM32H7/RGB_LVGL/Middlewares/LVGL/GUI/lvgl/src/core\lv_obj_style.h ****  * @code
  65:H:/STM32H7/RGB_LVGL/Middlewares/LVGL/GUI/lvgl/src/core\lv_obj_style.h ****  * lv_obj_replace_style(obj, &yellow_style, &blue_style, LV_PART_ANY | LV_STATE_ANY); //Replace a s
  66:H:/STM32H7/RGB_LVGL/Middlewares/LVGL/GUI/lvgl/src/core\lv_obj_style.h ****  *
  67:H:/STM32H7/RGB_LVGL/Middlewares/LVGL/GUI/lvgl/src/core\lv_obj_style.h ****  * lv_obj_replace_style(obj, &yellow_style, &blue_style, LV_PART_MAIN | LV_STATE_PRESSED); //Replac
  68:H:/STM32H7/RGB_LVGL/Middlewares/LVGL/GUI/lvgl/src/core\lv_obj_style.h ****  * @endcode
  69:H:/STM32H7/RGB_LVGL/Middlewares/LVGL/GUI/lvgl/src/core\lv_obj_style.h ****  */
  70:H:/STM32H7/RGB_LVGL/Middlewares/LVGL/GUI/lvgl/src/core\lv_obj_style.h **** bool lv_obj_replace_style(lv_obj_t * obj, const lv_style_t * old_style, const lv_style_t * new_styl
  71:H:/STM32H7/RGB_LVGL/Middlewares/LVGL/GUI/lvgl/src/core\lv_obj_style.h ****                           lv_style_selector_t selector);
  72:H:/STM32H7/RGB_LVGL/Middlewares/LVGL/GUI/lvgl/src/core\lv_obj_style.h **** 
  73:H:/STM32H7/RGB_LVGL/Middlewares/LVGL/GUI/lvgl/src/core\lv_obj_style.h **** /**
  74:H:/STM32H7/RGB_LVGL/Middlewares/LVGL/GUI/lvgl/src/core\lv_obj_style.h ****  * Remove a style from an object.
  75:H:/STM32H7/RGB_LVGL/Middlewares/LVGL/GUI/lvgl/src/core\lv_obj_style.h ****  * @param obj       pointer to an object
  76:H:/STM32H7/RGB_LVGL/Middlewares/LVGL/GUI/lvgl/src/core\lv_obj_style.h ****  * @param style     pointer to a style to remove. Can be NULL to check only the selector
  77:H:/STM32H7/RGB_LVGL/Middlewares/LVGL/GUI/lvgl/src/core\lv_obj_style.h ****  * @param selector  OR-ed values of states and a part to remove only styles with matching selectors
  78:H:/STM32H7/RGB_LVGL/Middlewares/LVGL/GUI/lvgl/src/core\lv_obj_style.h ****  *
  79:H:/STM32H7/RGB_LVGL/Middlewares/LVGL/GUI/lvgl/src/core\lv_obj_style.h ****  * Examples:
  80:H:/STM32H7/RGB_LVGL/Middlewares/LVGL/GUI/lvgl/src/core\lv_obj_style.h ****  * @code
  81:H:/STM32H7/RGB_LVGL/Middlewares/LVGL/GUI/lvgl/src/core\lv_obj_style.h ****  * lv_obj_remove_style(obj, &style, LV_PART_ANY | LV_STATE_ANY); //Remove a specific style
  82:H:/STM32H7/RGB_LVGL/Middlewares/LVGL/GUI/lvgl/src/core\lv_obj_style.h ****  *
  83:H:/STM32H7/RGB_LVGL/Middlewares/LVGL/GUI/lvgl/src/core\lv_obj_style.h ****  * lv_obj_remove_style(obj, NULL, LV_PART_MAIN | LV_STATE_ANY); //Remove all styles from the main p
  84:H:/STM32H7/RGB_LVGL/Middlewares/LVGL/GUI/lvgl/src/core\lv_obj_style.h ****  *
  85:H:/STM32H7/RGB_LVGL/Middlewares/LVGL/GUI/lvgl/src/core\lv_obj_style.h ****  * lv_obj_remove_style(obj, NULL, LV_PART_ANY | LV_STATE_ANY); //Remove all styles
  86:H:/STM32H7/RGB_LVGL/Middlewares/LVGL/GUI/lvgl/src/core\lv_obj_style.h ****  * @endcode
  87:H:/STM32H7/RGB_LVGL/Middlewares/LVGL/GUI/lvgl/src/core\lv_obj_style.h ****  */
  88:H:/STM32H7/RGB_LVGL/Middlewares/LVGL/GUI/lvgl/src/core\lv_obj_style.h **** void lv_obj_remove_style(lv_obj_t * obj, const lv_style_t * style, lv_style_selector_t selector);
  89:H:/STM32H7/RGB_LVGL/Middlewares/LVGL/GUI/lvgl/src/core\lv_obj_style.h **** 
  90:H:/STM32H7/RGB_LVGL/Middlewares/LVGL/GUI/lvgl/src/core\lv_obj_style.h **** /**
  91:H:/STM32H7/RGB_LVGL/Middlewares/LVGL/GUI/lvgl/src/core\lv_obj_style.h ****  * Remove all styles from an object
  92:H:/STM32H7/RGB_LVGL/Middlewares/LVGL/GUI/lvgl/src/core\lv_obj_style.h ****  * @param obj       pointer to an object
  93:H:/STM32H7/RGB_LVGL/Middlewares/LVGL/GUI/lvgl/src/core\lv_obj_style.h ****  */
  94:H:/STM32H7/RGB_LVGL/Middlewares/LVGL/GUI/lvgl/src/core\lv_obj_style.h **** void lv_obj_remove_style_all(lv_obj_t * obj);
  95:H:/STM32H7/RGB_LVGL/Middlewares/LVGL/GUI/lvgl/src/core\lv_obj_style.h **** 
  96:H:/STM32H7/RGB_LVGL/Middlewares/LVGL/GUI/lvgl/src/core\lv_obj_style.h **** /**
  97:H:/STM32H7/RGB_LVGL/Middlewares/LVGL/GUI/lvgl/src/core\lv_obj_style.h ****  * Notify all object if a style is modified
  98:H:/STM32H7/RGB_LVGL/Middlewares/LVGL/GUI/lvgl/src/core\lv_obj_style.h ****  * @param style     pointer to a style. Only the objects with this style will be notified
  99:H:/STM32H7/RGB_LVGL/Middlewares/LVGL/GUI/lvgl/src/core\lv_obj_style.h ****  *                  (NULL to notify all objects)
 100:H:/STM32H7/RGB_LVGL/Middlewares/LVGL/GUI/lvgl/src/core\lv_obj_style.h ****  */
 101:H:/STM32H7/RGB_LVGL/Middlewares/LVGL/GUI/lvgl/src/core\lv_obj_style.h **** void lv_obj_report_style_change(lv_style_t * style);
 102:H:/STM32H7/RGB_LVGL/Middlewares/LVGL/GUI/lvgl/src/core\lv_obj_style.h **** 
 103:H:/STM32H7/RGB_LVGL/Middlewares/LVGL/GUI/lvgl/src/core\lv_obj_style.h **** /**
 104:H:/STM32H7/RGB_LVGL/Middlewares/LVGL/GUI/lvgl/src/core\lv_obj_style.h ****  * Notify an object and its children about its style is modified.
 105:H:/STM32H7/RGB_LVGL/Middlewares/LVGL/GUI/lvgl/src/core\lv_obj_style.h ****  * @param obj       pointer to an object
 106:H:/STM32H7/RGB_LVGL/Middlewares/LVGL/GUI/lvgl/src/core\lv_obj_style.h ****  * @param part      the part whose style was changed. E.g. `LV_PART_ANY`, `LV_PART_MAIN`
 107:H:/STM32H7/RGB_LVGL/Middlewares/LVGL/GUI/lvgl/src/core\lv_obj_style.h ****  * @param prop      `LV_STYLE_PROP_ANY` or an `LV_STYLE_...` property.
 108:H:/STM32H7/RGB_LVGL/Middlewares/LVGL/GUI/lvgl/src/core\lv_obj_style.h ****  *                  It is used to optimize what needs to be refreshed.
 109:H:/STM32H7/RGB_LVGL/Middlewares/LVGL/GUI/lvgl/src/core\lv_obj_style.h ****  *                  `LV_STYLE_PROP_INV` to perform only a style cache update
 110:H:/STM32H7/RGB_LVGL/Middlewares/LVGL/GUI/lvgl/src/core\lv_obj_style.h ****  */
 111:H:/STM32H7/RGB_LVGL/Middlewares/LVGL/GUI/lvgl/src/core\lv_obj_style.h **** void lv_obj_refresh_style(lv_obj_t * obj, lv_part_t part, lv_style_prop_t prop);
 112:H:/STM32H7/RGB_LVGL/Middlewares/LVGL/GUI/lvgl/src/core\lv_obj_style.h **** 
 113:H:/STM32H7/RGB_LVGL/Middlewares/LVGL/GUI/lvgl/src/core\lv_obj_style.h **** /**
 114:H:/STM32H7/RGB_LVGL/Middlewares/LVGL/GUI/lvgl/src/core\lv_obj_style.h ****  * Enable or disable automatic style refreshing when a new style is added/removed to/from an object
 115:H:/STM32H7/RGB_LVGL/Middlewares/LVGL/GUI/lvgl/src/core\lv_obj_style.h ****  * or any other style change happens.
 116:H:/STM32H7/RGB_LVGL/Middlewares/LVGL/GUI/lvgl/src/core\lv_obj_style.h ****  * @param en        true: enable refreshing; false: disable refreshing
 117:H:/STM32H7/RGB_LVGL/Middlewares/LVGL/GUI/lvgl/src/core\lv_obj_style.h ****  */
 118:H:/STM32H7/RGB_LVGL/Middlewares/LVGL/GUI/lvgl/src/core\lv_obj_style.h **** void lv_obj_enable_style_refresh(bool en);
 119:H:/STM32H7/RGB_LVGL/Middlewares/LVGL/GUI/lvgl/src/core\lv_obj_style.h **** 
ARM GAS  C:\Users\28576\AppData\Local\Temp\ccV3XjXD.s 			page 52


 120:H:/STM32H7/RGB_LVGL/Middlewares/LVGL/GUI/lvgl/src/core\lv_obj_style.h **** /**
 121:H:/STM32H7/RGB_LVGL/Middlewares/LVGL/GUI/lvgl/src/core\lv_obj_style.h ****  * Get the value of a style property. The current state of the object will be considered.
 122:H:/STM32H7/RGB_LVGL/Middlewares/LVGL/GUI/lvgl/src/core\lv_obj_style.h ****  * Inherited properties will be inherited.
 123:H:/STM32H7/RGB_LVGL/Middlewares/LVGL/GUI/lvgl/src/core\lv_obj_style.h ****  * If a property is not set a default value will be returned.
 124:H:/STM32H7/RGB_LVGL/Middlewares/LVGL/GUI/lvgl/src/core\lv_obj_style.h ****  * @param obj       pointer to an object
 125:H:/STM32H7/RGB_LVGL/Middlewares/LVGL/GUI/lvgl/src/core\lv_obj_style.h ****  * @param part      a part from which the property should be get
 126:H:/STM32H7/RGB_LVGL/Middlewares/LVGL/GUI/lvgl/src/core\lv_obj_style.h ****  * @param prop      the property to get
 127:H:/STM32H7/RGB_LVGL/Middlewares/LVGL/GUI/lvgl/src/core\lv_obj_style.h ****  * @return          the value of the property.
 128:H:/STM32H7/RGB_LVGL/Middlewares/LVGL/GUI/lvgl/src/core\lv_obj_style.h ****  *                  Should be read from the correct field of the `lv_style_value_t` according to th
 129:H:/STM32H7/RGB_LVGL/Middlewares/LVGL/GUI/lvgl/src/core\lv_obj_style.h ****  */
 130:H:/STM32H7/RGB_LVGL/Middlewares/LVGL/GUI/lvgl/src/core\lv_obj_style.h **** lv_style_value_t lv_obj_get_style_prop(const lv_obj_t * obj, lv_part_t part, lv_style_prop_t prop);
 131:H:/STM32H7/RGB_LVGL/Middlewares/LVGL/GUI/lvgl/src/core\lv_obj_style.h **** 
 132:H:/STM32H7/RGB_LVGL/Middlewares/LVGL/GUI/lvgl/src/core\lv_obj_style.h **** /**
 133:H:/STM32H7/RGB_LVGL/Middlewares/LVGL/GUI/lvgl/src/core\lv_obj_style.h ****  * Check if an object has a specified style property for a given style selector.
