ARM GAS  C:\Users\28576\AppData\Local\Temp\ccZznpky.s 			page 1


   1              		.cpu cortex-m7
   2              		.arch armv7e-m
   3              		.fpu fpv5-d16
   4              		.eabi_attribute 28, 1
   5              		.eabi_attribute 20, 1
   6              		.eabi_attribute 21, 1
   7              		.eabi_attribute 23, 3
   8              		.eabi_attribute 24, 1
   9              		.eabi_attribute 25, 1
  10              		.eabi_attribute 26, 1
  11              		.eabi_attribute 30, 1
  12              		.eabi_attribute 34, 1
  13              		.eabi_attribute 18, 4
  14              		.file	"lv_indev_scroll.c"
  15              		.text
  16              	.Ltext0:
  17              		.cfi_sections	.debug_frame
  18              		.file 1 "../../Middlewares/LVGL/GUI/lvgl/src/indev/lv_indev_scroll.c"
  19              		.section	.text.scroll_limit_diff,"ax",%progbits
  20              		.align	1
  21              		.syntax unified
  22              		.thumb
  23              		.thumb_func
  25              	scroll_limit_diff:
  26              	.LVL0:
  27              	.LFB180:
   1:../../Middlewares/LVGL/GUI/lvgl/src/indev/lv_indev_scroll.c **** /**
   2:../../Middlewares/LVGL/GUI/lvgl/src/indev/lv_indev_scroll.c ****  * @file lv_indev_scroll.c
   3:../../Middlewares/LVGL/GUI/lvgl/src/indev/lv_indev_scroll.c ****  *
   4:../../Middlewares/LVGL/GUI/lvgl/src/indev/lv_indev_scroll.c ****  */
   5:../../Middlewares/LVGL/GUI/lvgl/src/indev/lv_indev_scroll.c **** 
   6:../../Middlewares/LVGL/GUI/lvgl/src/indev/lv_indev_scroll.c **** /*********************
   7:../../Middlewares/LVGL/GUI/lvgl/src/indev/lv_indev_scroll.c ****  *      INCLUDES
   8:../../Middlewares/LVGL/GUI/lvgl/src/indev/lv_indev_scroll.c ****  *********************/
   9:../../Middlewares/LVGL/GUI/lvgl/src/indev/lv_indev_scroll.c **** #include "../core/lv_obj_scroll_private.h"
  10:../../Middlewares/LVGL/GUI/lvgl/src/indev/lv_indev_scroll.c **** #include "../core/lv_obj_private.h"
  11:../../Middlewares/LVGL/GUI/lvgl/src/indev/lv_indev_scroll.c **** #include "lv_indev.h"
  12:../../Middlewares/LVGL/GUI/lvgl/src/indev/lv_indev_scroll.c **** #include "lv_indev_private.h"
  13:../../Middlewares/LVGL/GUI/lvgl/src/indev/lv_indev_scroll.c **** #include "lv_indev_scroll.h"
  14:../../Middlewares/LVGL/GUI/lvgl/src/indev/lv_indev_scroll.c **** 
  15:../../Middlewares/LVGL/GUI/lvgl/src/indev/lv_indev_scroll.c **** /*********************
  16:../../Middlewares/LVGL/GUI/lvgl/src/indev/lv_indev_scroll.c ****  *      DEFINES
  17:../../Middlewares/LVGL/GUI/lvgl/src/indev/lv_indev_scroll.c ****  *********************/
  18:../../Middlewares/LVGL/GUI/lvgl/src/indev/lv_indev_scroll.c **** #define ELASTIC_SLOWNESS_FACTOR 4   /*Scrolling on elastic parts are slower by this factor*/
  19:../../Middlewares/LVGL/GUI/lvgl/src/indev/lv_indev_scroll.c **** 
  20:../../Middlewares/LVGL/GUI/lvgl/src/indev/lv_indev_scroll.c **** /**********************
  21:../../Middlewares/LVGL/GUI/lvgl/src/indev/lv_indev_scroll.c ****  *      TYPEDEFS
  22:../../Middlewares/LVGL/GUI/lvgl/src/indev/lv_indev_scroll.c ****  **********************/
  23:../../Middlewares/LVGL/GUI/lvgl/src/indev/lv_indev_scroll.c **** 
  24:../../Middlewares/LVGL/GUI/lvgl/src/indev/lv_indev_scroll.c **** /**********************
  25:../../Middlewares/LVGL/GUI/lvgl/src/indev/lv_indev_scroll.c ****  *  STATIC PROTOTYPES
  26:../../Middlewares/LVGL/GUI/lvgl/src/indev/lv_indev_scroll.c ****  **********************/
  27:../../Middlewares/LVGL/GUI/lvgl/src/indev/lv_indev_scroll.c **** static void init_scroll_limits(lv_indev_t * indev);
  28:../../Middlewares/LVGL/GUI/lvgl/src/indev/lv_indev_scroll.c **** static int32_t find_snap_point_x(const lv_obj_t * obj, int32_t min, int32_t max, int32_t ofs);
  29:../../Middlewares/LVGL/GUI/lvgl/src/indev/lv_indev_scroll.c **** static int32_t find_snap_point_y(const lv_obj_t * obj, int32_t min, int32_t max, int32_t ofs);
  30:../../Middlewares/LVGL/GUI/lvgl/src/indev/lv_indev_scroll.c **** static void scroll_limit_diff(lv_indev_t * indev, int32_t * diff_x, int32_t * diff_y);
  31:../../Middlewares/LVGL/GUI/lvgl/src/indev/lv_indev_scroll.c **** static int32_t elastic_diff(lv_obj_t * scroll_obj, int32_t diff, int32_t scroll_start, int32_t scro
ARM GAS  C:\Users\28576\AppData\Local\Temp\ccZznpky.s 			page 2


  32:../../Middlewares/LVGL/GUI/lvgl/src/indev/lv_indev_scroll.c ****                             lv_dir_t dir);
  33:../../Middlewares/LVGL/GUI/lvgl/src/indev/lv_indev_scroll.c **** static void has_more_snap_points(lv_obj_t * scroll_obj, lv_dir_t dir, bool * has_start_snap, bool *
  34:../../Middlewares/LVGL/GUI/lvgl/src/indev/lv_indev_scroll.c **** 
  35:../../Middlewares/LVGL/GUI/lvgl/src/indev/lv_indev_scroll.c **** /**********************
  36:../../Middlewares/LVGL/GUI/lvgl/src/indev/lv_indev_scroll.c ****  *  STATIC VARIABLES
  37:../../Middlewares/LVGL/GUI/lvgl/src/indev/lv_indev_scroll.c ****  **********************/
  38:../../Middlewares/LVGL/GUI/lvgl/src/indev/lv_indev_scroll.c **** 
  39:../../Middlewares/LVGL/GUI/lvgl/src/indev/lv_indev_scroll.c **** /**********************
  40:../../Middlewares/LVGL/GUI/lvgl/src/indev/lv_indev_scroll.c ****  *      MACROS
  41:../../Middlewares/LVGL/GUI/lvgl/src/indev/lv_indev_scroll.c ****  **********************/
  42:../../Middlewares/LVGL/GUI/lvgl/src/indev/lv_indev_scroll.c **** 
  43:../../Middlewares/LVGL/GUI/lvgl/src/indev/lv_indev_scroll.c **** /**********************
  44:../../Middlewares/LVGL/GUI/lvgl/src/indev/lv_indev_scroll.c ****  *   GLOBAL FUNCTIONS
  45:../../Middlewares/LVGL/GUI/lvgl/src/indev/lv_indev_scroll.c ****  **********************/
  46:../../Middlewares/LVGL/GUI/lvgl/src/indev/lv_indev_scroll.c **** 
  47:../../Middlewares/LVGL/GUI/lvgl/src/indev/lv_indev_scroll.c **** void lv_indev_scroll_handler(lv_indev_t * indev)
  48:../../Middlewares/LVGL/GUI/lvgl/src/indev/lv_indev_scroll.c **** {
  49:../../Middlewares/LVGL/GUI/lvgl/src/indev/lv_indev_scroll.c ****     if(indev->pointer.vect.x == 0 && indev->pointer.vect.y == 0) {
  50:../../Middlewares/LVGL/GUI/lvgl/src/indev/lv_indev_scroll.c ****         return;
  51:../../Middlewares/LVGL/GUI/lvgl/src/indev/lv_indev_scroll.c ****     }
  52:../../Middlewares/LVGL/GUI/lvgl/src/indev/lv_indev_scroll.c **** 
  53:../../Middlewares/LVGL/GUI/lvgl/src/indev/lv_indev_scroll.c ****     lv_obj_t * scroll_obj = indev->pointer.scroll_obj;
  54:../../Middlewares/LVGL/GUI/lvgl/src/indev/lv_indev_scroll.c ****     /*If there is no scroll object yet try to find one*/
  55:../../Middlewares/LVGL/GUI/lvgl/src/indev/lv_indev_scroll.c ****     if(scroll_obj == NULL) {
  56:../../Middlewares/LVGL/GUI/lvgl/src/indev/lv_indev_scroll.c ****         scroll_obj = lv_indev_find_scroll_obj(indev);
  57:../../Middlewares/LVGL/GUI/lvgl/src/indev/lv_indev_scroll.c ****         if(scroll_obj == NULL) return;
  58:../../Middlewares/LVGL/GUI/lvgl/src/indev/lv_indev_scroll.c **** 
  59:../../Middlewares/LVGL/GUI/lvgl/src/indev/lv_indev_scroll.c ****         init_scroll_limits(indev);
  60:../../Middlewares/LVGL/GUI/lvgl/src/indev/lv_indev_scroll.c **** 
  61:../../Middlewares/LVGL/GUI/lvgl/src/indev/lv_indev_scroll.c ****         lv_obj_remove_state(indev->pointer.act_obj, LV_STATE_PRESSED);
  62:../../Middlewares/LVGL/GUI/lvgl/src/indev/lv_indev_scroll.c ****         lv_obj_send_event(scroll_obj, LV_EVENT_SCROLL_BEGIN, NULL);
  63:../../Middlewares/LVGL/GUI/lvgl/src/indev/lv_indev_scroll.c ****         if(indev->reset_query) return;
  64:../../Middlewares/LVGL/GUI/lvgl/src/indev/lv_indev_scroll.c ****     }
  65:../../Middlewares/LVGL/GUI/lvgl/src/indev/lv_indev_scroll.c **** 
  66:../../Middlewares/LVGL/GUI/lvgl/src/indev/lv_indev_scroll.c ****     /*Set new position or scroll if the vector is not zero*/
  67:../../Middlewares/LVGL/GUI/lvgl/src/indev/lv_indev_scroll.c ****     int16_t angle = 0;
  68:../../Middlewares/LVGL/GUI/lvgl/src/indev/lv_indev_scroll.c ****     int16_t scale_x = 256;
  69:../../Middlewares/LVGL/GUI/lvgl/src/indev/lv_indev_scroll.c ****     int16_t scale_y = 256;
  70:../../Middlewares/LVGL/GUI/lvgl/src/indev/lv_indev_scroll.c ****     lv_obj_t * parent = scroll_obj;
  71:../../Middlewares/LVGL/GUI/lvgl/src/indev/lv_indev_scroll.c ****     while(parent) {
  72:../../Middlewares/LVGL/GUI/lvgl/src/indev/lv_indev_scroll.c ****         angle += lv_obj_get_style_transform_rotation(parent, 0);
  73:../../Middlewares/LVGL/GUI/lvgl/src/indev/lv_indev_scroll.c ****         int32_t zoom_act_x = lv_obj_get_style_transform_scale_x_safe(parent, 0);
  74:../../Middlewares/LVGL/GUI/lvgl/src/indev/lv_indev_scroll.c ****         int32_t zoom_act_y = lv_obj_get_style_transform_scale_y_safe(parent, 0);
  75:../../Middlewares/LVGL/GUI/lvgl/src/indev/lv_indev_scroll.c ****         scale_x = (scale_x * zoom_act_x) >> 8;
  76:../../Middlewares/LVGL/GUI/lvgl/src/indev/lv_indev_scroll.c ****         scale_y = (scale_y * zoom_act_y) >> 8;
  77:../../Middlewares/LVGL/GUI/lvgl/src/indev/lv_indev_scroll.c ****         parent = lv_obj_get_parent(parent);
  78:../../Middlewares/LVGL/GUI/lvgl/src/indev/lv_indev_scroll.c ****     }
  79:../../Middlewares/LVGL/GUI/lvgl/src/indev/lv_indev_scroll.c **** 
  80:../../Middlewares/LVGL/GUI/lvgl/src/indev/lv_indev_scroll.c ****     if(scale_x == 0) {
  81:../../Middlewares/LVGL/GUI/lvgl/src/indev/lv_indev_scroll.c ****         scale_x = 1;
  82:../../Middlewares/LVGL/GUI/lvgl/src/indev/lv_indev_scroll.c ****     }
  83:../../Middlewares/LVGL/GUI/lvgl/src/indev/lv_indev_scroll.c **** 
  84:../../Middlewares/LVGL/GUI/lvgl/src/indev/lv_indev_scroll.c ****     if(scale_y == 0) {
  85:../../Middlewares/LVGL/GUI/lvgl/src/indev/lv_indev_scroll.c ****         scale_y = 1;
  86:../../Middlewares/LVGL/GUI/lvgl/src/indev/lv_indev_scroll.c ****     }
  87:../../Middlewares/LVGL/GUI/lvgl/src/indev/lv_indev_scroll.c **** 
  88:../../Middlewares/LVGL/GUI/lvgl/src/indev/lv_indev_scroll.c ****     if(angle != 0 || scale_x != LV_SCALE_NONE || scale_y != LV_SCALE_NONE) {
ARM GAS  C:\Users\28576\AppData\Local\Temp\ccZznpky.s 			page 3


  89:../../Middlewares/LVGL/GUI/lvgl/src/indev/lv_indev_scroll.c ****         angle = -angle;
  90:../../Middlewares/LVGL/GUI/lvgl/src/indev/lv_indev_scroll.c ****         scale_x = (256 * 256) / scale_x;
  91:../../Middlewares/LVGL/GUI/lvgl/src/indev/lv_indev_scroll.c ****         scale_y = (256 * 256) / scale_y;
  92:../../Middlewares/LVGL/GUI/lvgl/src/indev/lv_indev_scroll.c ****         lv_point_t pivot = { 0, 0 };
  93:../../Middlewares/LVGL/GUI/lvgl/src/indev/lv_indev_scroll.c ****         lv_point_transform(&indev->pointer.vect, angle, scale_x, scale_y, &pivot, false);
  94:../../Middlewares/LVGL/GUI/lvgl/src/indev/lv_indev_scroll.c ****     }
  95:../../Middlewares/LVGL/GUI/lvgl/src/indev/lv_indev_scroll.c **** 
  96:../../Middlewares/LVGL/GUI/lvgl/src/indev/lv_indev_scroll.c ****     int32_t diff_x = 0;
  97:../../Middlewares/LVGL/GUI/lvgl/src/indev/lv_indev_scroll.c ****     int32_t diff_y = 0;
  98:../../Middlewares/LVGL/GUI/lvgl/src/indev/lv_indev_scroll.c ****     if(indev->pointer.scroll_dir == LV_DIR_HOR) {
  99:../../Middlewares/LVGL/GUI/lvgl/src/indev/lv_indev_scroll.c ****         int32_t sr = lv_obj_get_scroll_right(scroll_obj);
 100:../../Middlewares/LVGL/GUI/lvgl/src/indev/lv_indev_scroll.c ****         int32_t sl = lv_obj_get_scroll_left(scroll_obj);
 101:../../Middlewares/LVGL/GUI/lvgl/src/indev/lv_indev_scroll.c ****         diff_x = elastic_diff(scroll_obj, indev->pointer.vect.x, sl, sr, LV_DIR_HOR);
 102:../../Middlewares/LVGL/GUI/lvgl/src/indev/lv_indev_scroll.c ****     }
 103:../../Middlewares/LVGL/GUI/lvgl/src/indev/lv_indev_scroll.c ****     else {
 104:../../Middlewares/LVGL/GUI/lvgl/src/indev/lv_indev_scroll.c ****         int32_t st = lv_obj_get_scroll_top(scroll_obj);
 105:../../Middlewares/LVGL/GUI/lvgl/src/indev/lv_indev_scroll.c ****         int32_t sb = lv_obj_get_scroll_bottom(scroll_obj);
 106:../../Middlewares/LVGL/GUI/lvgl/src/indev/lv_indev_scroll.c ****         diff_y = elastic_diff(scroll_obj, indev->pointer.vect.y, st, sb, LV_DIR_VER);
 107:../../Middlewares/LVGL/GUI/lvgl/src/indev/lv_indev_scroll.c ****     }
 108:../../Middlewares/LVGL/GUI/lvgl/src/indev/lv_indev_scroll.c **** 
 109:../../Middlewares/LVGL/GUI/lvgl/src/indev/lv_indev_scroll.c ****     lv_dir_t scroll_dir = lv_obj_get_scroll_dir(scroll_obj);
 110:../../Middlewares/LVGL/GUI/lvgl/src/indev/lv_indev_scroll.c ****     if((scroll_dir & LV_DIR_LEFT)   == 0 && diff_x > 0) diff_x = 0;
 111:../../Middlewares/LVGL/GUI/lvgl/src/indev/lv_indev_scroll.c ****     if((scroll_dir & LV_DIR_RIGHT)  == 0 && diff_x < 0) diff_x = 0;
 112:../../Middlewares/LVGL/GUI/lvgl/src/indev/lv_indev_scroll.c ****     if((scroll_dir & LV_DIR_TOP)    == 0 && diff_y > 0) diff_y = 0;
 113:../../Middlewares/LVGL/GUI/lvgl/src/indev/lv_indev_scroll.c ****     if((scroll_dir & LV_DIR_BOTTOM) == 0 && diff_y < 0) diff_y = 0;
 114:../../Middlewares/LVGL/GUI/lvgl/src/indev/lv_indev_scroll.c **** 
 115:../../Middlewares/LVGL/GUI/lvgl/src/indev/lv_indev_scroll.c ****     /*Respect the scroll limit area*/
 116:../../Middlewares/LVGL/GUI/lvgl/src/indev/lv_indev_scroll.c ****     scroll_limit_diff(indev, &diff_x, &diff_y);
 117:../../Middlewares/LVGL/GUI/lvgl/src/indev/lv_indev_scroll.c **** 
 118:../../Middlewares/LVGL/GUI/lvgl/src/indev/lv_indev_scroll.c ****     lv_obj_scroll_by_raw(scroll_obj, diff_x, diff_y);
 119:../../Middlewares/LVGL/GUI/lvgl/src/indev/lv_indev_scroll.c ****     if(indev->reset_query) return;
 120:../../Middlewares/LVGL/GUI/lvgl/src/indev/lv_indev_scroll.c ****     indev->pointer.scroll_sum.x += diff_x;
 121:../../Middlewares/LVGL/GUI/lvgl/src/indev/lv_indev_scroll.c ****     indev->pointer.scroll_sum.y += diff_y;
 122:../../Middlewares/LVGL/GUI/lvgl/src/indev/lv_indev_scroll.c **** }
 123:../../Middlewares/LVGL/GUI/lvgl/src/indev/lv_indev_scroll.c **** 
 124:../../Middlewares/LVGL/GUI/lvgl/src/indev/lv_indev_scroll.c **** void lv_indev_scroll_throw_handler(lv_indev_t * indev)
 125:../../Middlewares/LVGL/GUI/lvgl/src/indev/lv_indev_scroll.c **** {
 126:../../Middlewares/LVGL/GUI/lvgl/src/indev/lv_indev_scroll.c ****     lv_obj_t * scroll_obj = indev->pointer.scroll_obj;
 127:../../Middlewares/LVGL/GUI/lvgl/src/indev/lv_indev_scroll.c ****     if(scroll_obj == NULL) return;
 128:../../Middlewares/LVGL/GUI/lvgl/src/indev/lv_indev_scroll.c ****     if(indev->pointer.scroll_dir == LV_DIR_NONE) return;
 129:../../Middlewares/LVGL/GUI/lvgl/src/indev/lv_indev_scroll.c **** 
 130:../../Middlewares/LVGL/GUI/lvgl/src/indev/lv_indev_scroll.c ****     int32_t scroll_throw = indev->scroll_throw;
 131:../../Middlewares/LVGL/GUI/lvgl/src/indev/lv_indev_scroll.c **** 
 132:../../Middlewares/LVGL/GUI/lvgl/src/indev/lv_indev_scroll.c ****     if(lv_obj_has_flag(scroll_obj, LV_OBJ_FLAG_SCROLL_MOMENTUM) == false) {
 133:../../Middlewares/LVGL/GUI/lvgl/src/indev/lv_indev_scroll.c ****         indev->pointer.scroll_throw_vect.y = 0;
 134:../../Middlewares/LVGL/GUI/lvgl/src/indev/lv_indev_scroll.c ****         indev->pointer.scroll_throw_vect.x = 0;
 135:../../Middlewares/LVGL/GUI/lvgl/src/indev/lv_indev_scroll.c ****     }
 136:../../Middlewares/LVGL/GUI/lvgl/src/indev/lv_indev_scroll.c **** 
 137:../../Middlewares/LVGL/GUI/lvgl/src/indev/lv_indev_scroll.c ****     lv_scroll_snap_t align_x = lv_obj_get_scroll_snap_x(scroll_obj);
 138:../../Middlewares/LVGL/GUI/lvgl/src/indev/lv_indev_scroll.c ****     lv_scroll_snap_t align_y = lv_obj_get_scroll_snap_y(scroll_obj);
 139:../../Middlewares/LVGL/GUI/lvgl/src/indev/lv_indev_scroll.c **** 
 140:../../Middlewares/LVGL/GUI/lvgl/src/indev/lv_indev_scroll.c ****     if(indev->pointer.scroll_dir == LV_DIR_VER) {
 141:../../Middlewares/LVGL/GUI/lvgl/src/indev/lv_indev_scroll.c ****         indev->pointer.scroll_throw_vect.x = 0;
 142:../../Middlewares/LVGL/GUI/lvgl/src/indev/lv_indev_scroll.c ****         /*If no snapping "throw"*/
 143:../../Middlewares/LVGL/GUI/lvgl/src/indev/lv_indev_scroll.c ****         if(align_y == LV_SCROLL_SNAP_NONE) {
 144:../../Middlewares/LVGL/GUI/lvgl/src/indev/lv_indev_scroll.c ****             indev->pointer.scroll_throw_vect.y =
 145:../../Middlewares/LVGL/GUI/lvgl/src/indev/lv_indev_scroll.c ****                 indev->pointer.scroll_throw_vect.y * (100 - scroll_throw) / 100;
ARM GAS  C:\Users\28576\AppData\Local\Temp\ccZznpky.s 			page 4


 146:../../Middlewares/LVGL/GUI/lvgl/src/indev/lv_indev_scroll.c **** 
 147:../../Middlewares/LVGL/GUI/lvgl/src/indev/lv_indev_scroll.c ****             int32_t sb = lv_obj_get_scroll_bottom(scroll_obj);
 148:../../Middlewares/LVGL/GUI/lvgl/src/indev/lv_indev_scroll.c ****             int32_t st = lv_obj_get_scroll_top(scroll_obj);
 149:../../Middlewares/LVGL/GUI/lvgl/src/indev/lv_indev_scroll.c **** 
 150:../../Middlewares/LVGL/GUI/lvgl/src/indev/lv_indev_scroll.c ****             indev->pointer.scroll_throw_vect.y = elastic_diff(scroll_obj, indev->pointer.scroll_thr
 151:../../Middlewares/LVGL/GUI/lvgl/src/indev/lv_indev_scroll.c ****                                                               LV_DIR_VER);
 152:../../Middlewares/LVGL/GUI/lvgl/src/indev/lv_indev_scroll.c **** 
 153:../../Middlewares/LVGL/GUI/lvgl/src/indev/lv_indev_scroll.c ****             lv_obj_scroll_by_raw(scroll_obj, 0,  indev->pointer.scroll_throw_vect.y);
 154:../../Middlewares/LVGL/GUI/lvgl/src/indev/lv_indev_scroll.c ****             if(indev->reset_query) return;
 155:../../Middlewares/LVGL/GUI/lvgl/src/indev/lv_indev_scroll.c ****         }
 156:../../Middlewares/LVGL/GUI/lvgl/src/indev/lv_indev_scroll.c ****         /*With snapping find the nearest snap point and scroll there*/
 157:../../Middlewares/LVGL/GUI/lvgl/src/indev/lv_indev_scroll.c ****         else {
 158:../../Middlewares/LVGL/GUI/lvgl/src/indev/lv_indev_scroll.c ****             int32_t diff_y = lv_indev_scroll_throw_predict(indev, LV_DIR_VER);
 159:../../Middlewares/LVGL/GUI/lvgl/src/indev/lv_indev_scroll.c ****             indev->pointer.scroll_throw_vect.y = 0;
 160:../../Middlewares/LVGL/GUI/lvgl/src/indev/lv_indev_scroll.c ****             scroll_limit_diff(indev, NULL, &diff_y);
 161:../../Middlewares/LVGL/GUI/lvgl/src/indev/lv_indev_scroll.c ****             int32_t y = find_snap_point_y(scroll_obj, LV_COORD_MIN, LV_COORD_MAX, diff_y);
 162:../../Middlewares/LVGL/GUI/lvgl/src/indev/lv_indev_scroll.c ****             lv_obj_scroll_by(scroll_obj, 0, diff_y + y, LV_ANIM_ON);
 163:../../Middlewares/LVGL/GUI/lvgl/src/indev/lv_indev_scroll.c ****             if(indev->reset_query) return;
 164:../../Middlewares/LVGL/GUI/lvgl/src/indev/lv_indev_scroll.c ****         }
 165:../../Middlewares/LVGL/GUI/lvgl/src/indev/lv_indev_scroll.c ****     }
 166:../../Middlewares/LVGL/GUI/lvgl/src/indev/lv_indev_scroll.c ****     else if(indev->pointer.scroll_dir == LV_DIR_HOR) {
 167:../../Middlewares/LVGL/GUI/lvgl/src/indev/lv_indev_scroll.c ****         indev->pointer.scroll_throw_vect.y = 0;
 168:../../Middlewares/LVGL/GUI/lvgl/src/indev/lv_indev_scroll.c ****         /*If no snapping "throw"*/
 169:../../Middlewares/LVGL/GUI/lvgl/src/indev/lv_indev_scroll.c ****         if(align_x == LV_SCROLL_SNAP_NONE) {
 170:../../Middlewares/LVGL/GUI/lvgl/src/indev/lv_indev_scroll.c ****             indev->pointer.scroll_throw_vect.x =
 171:../../Middlewares/LVGL/GUI/lvgl/src/indev/lv_indev_scroll.c ****                 indev->pointer.scroll_throw_vect.x * (100 - scroll_throw) / 100;
 172:../../Middlewares/LVGL/GUI/lvgl/src/indev/lv_indev_scroll.c **** 
 173:../../Middlewares/LVGL/GUI/lvgl/src/indev/lv_indev_scroll.c ****             int32_t sl = lv_obj_get_scroll_left(scroll_obj);
 174:../../Middlewares/LVGL/GUI/lvgl/src/indev/lv_indev_scroll.c ****             int32_t sr = lv_obj_get_scroll_right(scroll_obj);
 175:../../Middlewares/LVGL/GUI/lvgl/src/indev/lv_indev_scroll.c **** 
 176:../../Middlewares/LVGL/GUI/lvgl/src/indev/lv_indev_scroll.c ****             indev->pointer.scroll_throw_vect.x = elastic_diff(scroll_obj, indev->pointer.scroll_thr
 177:../../Middlewares/LVGL/GUI/lvgl/src/indev/lv_indev_scroll.c ****                                                               LV_DIR_HOR);
 178:../../Middlewares/LVGL/GUI/lvgl/src/indev/lv_indev_scroll.c **** 
 179:../../Middlewares/LVGL/GUI/lvgl/src/indev/lv_indev_scroll.c ****             lv_obj_scroll_by_raw(scroll_obj, indev->pointer.scroll_throw_vect.x, 0);
 180:../../Middlewares/LVGL/GUI/lvgl/src/indev/lv_indev_scroll.c ****             if(indev->reset_query) return;
 181:../../Middlewares/LVGL/GUI/lvgl/src/indev/lv_indev_scroll.c ****         }
 182:../../Middlewares/LVGL/GUI/lvgl/src/indev/lv_indev_scroll.c ****         /*With snapping find the nearest snap point and scroll there*/
 183:../../Middlewares/LVGL/GUI/lvgl/src/indev/lv_indev_scroll.c ****         else {
 184:../../Middlewares/LVGL/GUI/lvgl/src/indev/lv_indev_scroll.c ****             int32_t diff_x = lv_indev_scroll_throw_predict(indev, LV_DIR_HOR);
 185:../../Middlewares/LVGL/GUI/lvgl/src/indev/lv_indev_scroll.c ****             indev->pointer.scroll_throw_vect.x = 0;
 186:../../Middlewares/LVGL/GUI/lvgl/src/indev/lv_indev_scroll.c ****             scroll_limit_diff(indev, &diff_x, NULL);
 187:../../Middlewares/LVGL/GUI/lvgl/src/indev/lv_indev_scroll.c ****             int32_t x = find_snap_point_x(scroll_obj, LV_COORD_MIN, LV_COORD_MAX, diff_x);
 188:../../Middlewares/LVGL/GUI/lvgl/src/indev/lv_indev_scroll.c ****             lv_obj_scroll_by(scroll_obj, x + diff_x, 0, LV_ANIM_ON);
 189:../../Middlewares/LVGL/GUI/lvgl/src/indev/lv_indev_scroll.c ****             if(indev->reset_query) return;
 190:../../Middlewares/LVGL/GUI/lvgl/src/indev/lv_indev_scroll.c ****         }
 191:../../Middlewares/LVGL/GUI/lvgl/src/indev/lv_indev_scroll.c ****     }
 192:../../Middlewares/LVGL/GUI/lvgl/src/indev/lv_indev_scroll.c **** 
 193:../../Middlewares/LVGL/GUI/lvgl/src/indev/lv_indev_scroll.c ****     /*Check if the scroll has finished*/
 194:../../Middlewares/LVGL/GUI/lvgl/src/indev/lv_indev_scroll.c ****     if(indev->pointer.scroll_throw_vect.x == 0 && indev->pointer.scroll_throw_vect.y == 0) {
 195:../../Middlewares/LVGL/GUI/lvgl/src/indev/lv_indev_scroll.c ****         /*Revert if scrolled in*/
 196:../../Middlewares/LVGL/GUI/lvgl/src/indev/lv_indev_scroll.c ****         /*If vertically scrollable and not controlled by snap*/
 197:../../Middlewares/LVGL/GUI/lvgl/src/indev/lv_indev_scroll.c ****         if(align_y == LV_SCROLL_SNAP_NONE) {
 198:../../Middlewares/LVGL/GUI/lvgl/src/indev/lv_indev_scroll.c ****             int32_t st = lv_obj_get_scroll_top(scroll_obj);
 199:../../Middlewares/LVGL/GUI/lvgl/src/indev/lv_indev_scroll.c ****             int32_t sb = lv_obj_get_scroll_bottom(scroll_obj);
 200:../../Middlewares/LVGL/GUI/lvgl/src/indev/lv_indev_scroll.c ****             if(st > 0 || sb > 0) {
 201:../../Middlewares/LVGL/GUI/lvgl/src/indev/lv_indev_scroll.c ****                 if(st < 0) {
 202:../../Middlewares/LVGL/GUI/lvgl/src/indev/lv_indev_scroll.c ****                     lv_obj_scroll_by(scroll_obj, 0, st, LV_ANIM_ON);
ARM GAS  C:\Users\28576\AppData\Local\Temp\ccZznpky.s 			page 5


 203:../../Middlewares/LVGL/GUI/lvgl/src/indev/lv_indev_scroll.c ****                     if(indev->reset_query) return;
 204:../../Middlewares/LVGL/GUI/lvgl/src/indev/lv_indev_scroll.c ****                 }
 205:../../Middlewares/LVGL/GUI/lvgl/src/indev/lv_indev_scroll.c ****                 else if(sb < 0) {
 206:../../Middlewares/LVGL/GUI/lvgl/src/indev/lv_indev_scroll.c ****                     lv_obj_scroll_by(scroll_obj, 0, -sb, LV_ANIM_ON);
 207:../../Middlewares/LVGL/GUI/lvgl/src/indev/lv_indev_scroll.c ****                     if(indev->reset_query) return;
 208:../../Middlewares/LVGL/GUI/lvgl/src/indev/lv_indev_scroll.c ****                 }
 209:../../Middlewares/LVGL/GUI/lvgl/src/indev/lv_indev_scroll.c ****             }
 210:../../Middlewares/LVGL/GUI/lvgl/src/indev/lv_indev_scroll.c ****         }
 211:../../Middlewares/LVGL/GUI/lvgl/src/indev/lv_indev_scroll.c **** 
 212:../../Middlewares/LVGL/GUI/lvgl/src/indev/lv_indev_scroll.c ****         /*If horizontally scrollable and not controlled by snap*/
 213:../../Middlewares/LVGL/GUI/lvgl/src/indev/lv_indev_scroll.c ****         if(align_x == LV_SCROLL_SNAP_NONE) {
 214:../../Middlewares/LVGL/GUI/lvgl/src/indev/lv_indev_scroll.c ****             int32_t sl = lv_obj_get_scroll_left(scroll_obj);
 215:../../Middlewares/LVGL/GUI/lvgl/src/indev/lv_indev_scroll.c ****             int32_t sr = lv_obj_get_scroll_right(scroll_obj);
 216:../../Middlewares/LVGL/GUI/lvgl/src/indev/lv_indev_scroll.c ****             if(sl > 0 || sr > 0) {
 217:../../Middlewares/LVGL/GUI/lvgl/src/indev/lv_indev_scroll.c ****                 if(sl < 0) {
 218:../../Middlewares/LVGL/GUI/lvgl/src/indev/lv_indev_scroll.c ****                     lv_obj_scroll_by(scroll_obj, sl, 0, LV_ANIM_ON);
 219:../../Middlewares/LVGL/GUI/lvgl/src/indev/lv_indev_scroll.c ****                     if(indev->reset_query) return;
 220:../../Middlewares/LVGL/GUI/lvgl/src/indev/lv_indev_scroll.c ****                 }
 221:../../Middlewares/LVGL/GUI/lvgl/src/indev/lv_indev_scroll.c ****                 else if(sr < 0) {
 222:../../Middlewares/LVGL/GUI/lvgl/src/indev/lv_indev_scroll.c ****                     lv_obj_scroll_by(scroll_obj, -sr, 0, LV_ANIM_ON);
 223:../../Middlewares/LVGL/GUI/lvgl/src/indev/lv_indev_scroll.c ****                     if(indev->reset_query) return;
 224:../../Middlewares/LVGL/GUI/lvgl/src/indev/lv_indev_scroll.c ****                 }
 225:../../Middlewares/LVGL/GUI/lvgl/src/indev/lv_indev_scroll.c ****             }
 226:../../Middlewares/LVGL/GUI/lvgl/src/indev/lv_indev_scroll.c ****         }
 227:../../Middlewares/LVGL/GUI/lvgl/src/indev/lv_indev_scroll.c **** 
 228:../../Middlewares/LVGL/GUI/lvgl/src/indev/lv_indev_scroll.c ****         lv_obj_send_event(scroll_obj, LV_EVENT_SCROLL_END, indev);
 229:../../Middlewares/LVGL/GUI/lvgl/src/indev/lv_indev_scroll.c ****         if(indev->reset_query) return;
 230:../../Middlewares/LVGL/GUI/lvgl/src/indev/lv_indev_scroll.c **** 
 231:../../Middlewares/LVGL/GUI/lvgl/src/indev/lv_indev_scroll.c ****         indev->pointer.scroll_dir = LV_DIR_NONE;
 232:../../Middlewares/LVGL/GUI/lvgl/src/indev/lv_indev_scroll.c ****         indev->pointer.scroll_obj = NULL;
 233:../../Middlewares/LVGL/GUI/lvgl/src/indev/lv_indev_scroll.c ****     }
 234:../../Middlewares/LVGL/GUI/lvgl/src/indev/lv_indev_scroll.c **** }
 235:../../Middlewares/LVGL/GUI/lvgl/src/indev/lv_indev_scroll.c **** 
 236:../../Middlewares/LVGL/GUI/lvgl/src/indev/lv_indev_scroll.c **** int32_t lv_indev_scroll_throw_predict(lv_indev_t * indev, lv_dir_t dir)
 237:../../Middlewares/LVGL/GUI/lvgl/src/indev/lv_indev_scroll.c **** {
 238:../../Middlewares/LVGL/GUI/lvgl/src/indev/lv_indev_scroll.c ****     if(indev == NULL) return 0;
 239:../../Middlewares/LVGL/GUI/lvgl/src/indev/lv_indev_scroll.c ****     int32_t v;
 240:../../Middlewares/LVGL/GUI/lvgl/src/indev/lv_indev_scroll.c ****     switch(dir) {
 241:../../Middlewares/LVGL/GUI/lvgl/src/indev/lv_indev_scroll.c ****         case LV_DIR_VER:
 242:../../Middlewares/LVGL/GUI/lvgl/src/indev/lv_indev_scroll.c ****             v = indev->pointer.scroll_throw_vect_ori.y;
 243:../../Middlewares/LVGL/GUI/lvgl/src/indev/lv_indev_scroll.c ****             break;
 244:../../Middlewares/LVGL/GUI/lvgl/src/indev/lv_indev_scroll.c ****         case LV_DIR_HOR:
 245:../../Middlewares/LVGL/GUI/lvgl/src/indev/lv_indev_scroll.c ****             v = indev->pointer.scroll_throw_vect_ori.x;
 246:../../Middlewares/LVGL/GUI/lvgl/src/indev/lv_indev_scroll.c ****             break;
 247:../../Middlewares/LVGL/GUI/lvgl/src/indev/lv_indev_scroll.c ****         default:
 248:../../Middlewares/LVGL/GUI/lvgl/src/indev/lv_indev_scroll.c ****             return 0;
 249:../../Middlewares/LVGL/GUI/lvgl/src/indev/lv_indev_scroll.c ****     }
 250:../../Middlewares/LVGL/GUI/lvgl/src/indev/lv_indev_scroll.c **** 
 251:../../Middlewares/LVGL/GUI/lvgl/src/indev/lv_indev_scroll.c ****     int32_t scroll_throw = indev->scroll_throw;
 252:../../Middlewares/LVGL/GUI/lvgl/src/indev/lv_indev_scroll.c ****     int32_t sum = 0;
 253:../../Middlewares/LVGL/GUI/lvgl/src/indev/lv_indev_scroll.c ****     while(v) {
 254:../../Middlewares/LVGL/GUI/lvgl/src/indev/lv_indev_scroll.c ****         sum += v;
 255:../../Middlewares/LVGL/GUI/lvgl/src/indev/lv_indev_scroll.c ****         v = v * (100 - scroll_throw) / 100;
 256:../../Middlewares/LVGL/GUI/lvgl/src/indev/lv_indev_scroll.c ****     }
 257:../../Middlewares/LVGL/GUI/lvgl/src/indev/lv_indev_scroll.c **** 
 258:../../Middlewares/LVGL/GUI/lvgl/src/indev/lv_indev_scroll.c ****     return sum;
 259:../../Middlewares/LVGL/GUI/lvgl/src/indev/lv_indev_scroll.c **** }
ARM GAS  C:\Users\28576\AppData\Local\Temp\ccZznpky.s 			page 6


 260:../../Middlewares/LVGL/GUI/lvgl/src/indev/lv_indev_scroll.c **** 
 261:../../Middlewares/LVGL/GUI/lvgl/src/indev/lv_indev_scroll.c **** void lv_indev_scroll_get_snap_dist(lv_obj_t * obj, lv_point_t * p)
 262:../../Middlewares/LVGL/GUI/lvgl/src/indev/lv_indev_scroll.c **** {
 263:../../Middlewares/LVGL/GUI/lvgl/src/indev/lv_indev_scroll.c ****     p->x = find_snap_point_x(obj, obj->coords.x1, obj->coords.x2, 0);
 264:../../Middlewares/LVGL/GUI/lvgl/src/indev/lv_indev_scroll.c ****     p->y = find_snap_point_y(obj, obj->coords.y1, obj->coords.y2, 0);
 265:../../Middlewares/LVGL/GUI/lvgl/src/indev/lv_indev_scroll.c **** }
 266:../../Middlewares/LVGL/GUI/lvgl/src/indev/lv_indev_scroll.c **** 
 267:../../Middlewares/LVGL/GUI/lvgl/src/indev/lv_indev_scroll.c **** lv_obj_t * lv_indev_find_scroll_obj(lv_indev_t * indev)
 268:../../Middlewares/LVGL/GUI/lvgl/src/indev/lv_indev_scroll.c **** {
 269:../../Middlewares/LVGL/GUI/lvgl/src/indev/lv_indev_scroll.c ****     lv_obj_t * obj_candidate = NULL;
 270:../../Middlewares/LVGL/GUI/lvgl/src/indev/lv_indev_scroll.c ****     lv_dir_t dir_candidate = LV_DIR_NONE;
 271:../../Middlewares/LVGL/GUI/lvgl/src/indev/lv_indev_scroll.c ****     int32_t scroll_limit = indev->scroll_limit;
 272:../../Middlewares/LVGL/GUI/lvgl/src/indev/lv_indev_scroll.c **** 
 273:../../Middlewares/LVGL/GUI/lvgl/src/indev/lv_indev_scroll.c ****     /*Go until find a scrollable object in the current direction
 274:../../Middlewares/LVGL/GUI/lvgl/src/indev/lv_indev_scroll.c ****      *More precisely:
 275:../../Middlewares/LVGL/GUI/lvgl/src/indev/lv_indev_scroll.c ****      * 1. Check the pressed object and all of its ancestors and try to find an object which is scro
 276:../../Middlewares/LVGL/GUI/lvgl/src/indev/lv_indev_scroll.c ****      * 2. Scrollable means it has some content out of its area
 277:../../Middlewares/LVGL/GUI/lvgl/src/indev/lv_indev_scroll.c ****      * 3. If an object can be scrolled into the current direction then use it ("real match"")
 278:../../Middlewares/LVGL/GUI/lvgl/src/indev/lv_indev_scroll.c ****      * 4. If can be scrolled on the current axis (hor/ver) save it as candidate (at least show an e
 279:../../Middlewares/LVGL/GUI/lvgl/src/indev/lv_indev_scroll.c ****      * 5. Use the last candidate. Always the "deepest" parent or the object from point 3*/
 280:../../Middlewares/LVGL/GUI/lvgl/src/indev/lv_indev_scroll.c ****     lv_obj_t * obj_act = indev->pointer.act_obj;
 281:../../Middlewares/LVGL/GUI/lvgl/src/indev/lv_indev_scroll.c **** 
 282:../../Middlewares/LVGL/GUI/lvgl/src/indev/lv_indev_scroll.c ****     /*Decide if it's a horizontal or vertical scroll*/
 283:../../Middlewares/LVGL/GUI/lvgl/src/indev/lv_indev_scroll.c ****     bool hor_en = false;
 284:../../Middlewares/LVGL/GUI/lvgl/src/indev/lv_indev_scroll.c ****     bool ver_en = false;
 285:../../Middlewares/LVGL/GUI/lvgl/src/indev/lv_indev_scroll.c ****     indev->pointer.scroll_sum.x += indev->pointer.vect.x;
 286:../../Middlewares/LVGL/GUI/lvgl/src/indev/lv_indev_scroll.c ****     indev->pointer.scroll_sum.y += indev->pointer.vect.y;
 287:../../Middlewares/LVGL/GUI/lvgl/src/indev/lv_indev_scroll.c **** 
 288:../../Middlewares/LVGL/GUI/lvgl/src/indev/lv_indev_scroll.c ****     while(obj_act) {
 289:../../Middlewares/LVGL/GUI/lvgl/src/indev/lv_indev_scroll.c ****         /*Get the transformed scroll_sum with this object*/
 290:../../Middlewares/LVGL/GUI/lvgl/src/indev/lv_indev_scroll.c ****         int16_t angle = 0;
 291:../../Middlewares/LVGL/GUI/lvgl/src/indev/lv_indev_scroll.c ****         int32_t scale_x = 256;
 292:../../Middlewares/LVGL/GUI/lvgl/src/indev/lv_indev_scroll.c ****         int32_t scale_y = 256;
 293:../../Middlewares/LVGL/GUI/lvgl/src/indev/lv_indev_scroll.c ****         lv_point_t pivot = { 0, 0 };
 294:../../Middlewares/LVGL/GUI/lvgl/src/indev/lv_indev_scroll.c ****         lv_obj_t * parent = obj_act;
 295:../../Middlewares/LVGL/GUI/lvgl/src/indev/lv_indev_scroll.c ****         while(parent) {
 296:../../Middlewares/LVGL/GUI/lvgl/src/indev/lv_indev_scroll.c ****             angle += lv_obj_get_style_transform_rotation(parent, 0);
 297:../../Middlewares/LVGL/GUI/lvgl/src/indev/lv_indev_scroll.c ****             int32_t zoom_act_x = lv_obj_get_style_transform_scale_x_safe(parent, 0);
 298:../../Middlewares/LVGL/GUI/lvgl/src/indev/lv_indev_scroll.c ****             int32_t zoom_act_y = lv_obj_get_style_transform_scale_y_safe(parent, 0);
 299:../../Middlewares/LVGL/GUI/lvgl/src/indev/lv_indev_scroll.c ****             scale_x = (scale_x * zoom_act_x) >> 8;
 300:../../Middlewares/LVGL/GUI/lvgl/src/indev/lv_indev_scroll.c ****             scale_y = (scale_y * zoom_act_y) >> 8;
 301:../../Middlewares/LVGL/GUI/lvgl/src/indev/lv_indev_scroll.c ****             parent = lv_obj_get_parent(parent);
 302:../../Middlewares/LVGL/GUI/lvgl/src/indev/lv_indev_scroll.c ****         }
 303:../../Middlewares/LVGL/GUI/lvgl/src/indev/lv_indev_scroll.c **** 
 304:../../Middlewares/LVGL/GUI/lvgl/src/indev/lv_indev_scroll.c ****         if(scale_x == 0) {
 305:../../Middlewares/LVGL/GUI/lvgl/src/indev/lv_indev_scroll.c ****             scale_x = 1;
 306:../../Middlewares/LVGL/GUI/lvgl/src/indev/lv_indev_scroll.c ****         }
 307:../../Middlewares/LVGL/GUI/lvgl/src/indev/lv_indev_scroll.c **** 
 308:../../Middlewares/LVGL/GUI/lvgl/src/indev/lv_indev_scroll.c ****         if(scale_y == 0) {
 309:../../Middlewares/LVGL/GUI/lvgl/src/indev/lv_indev_scroll.c ****             scale_y = 1;
 310:../../Middlewares/LVGL/GUI/lvgl/src/indev/lv_indev_scroll.c ****         }
 311:../../Middlewares/LVGL/GUI/lvgl/src/indev/lv_indev_scroll.c **** 
 312:../../Middlewares/LVGL/GUI/lvgl/src/indev/lv_indev_scroll.c ****         lv_point_t obj_scroll_sum = indev->pointer.scroll_sum;
 313:../../Middlewares/LVGL/GUI/lvgl/src/indev/lv_indev_scroll.c ****         if(angle != 0 || scale_x != LV_SCALE_NONE || scale_y != LV_SCALE_NONE) {
 314:../../Middlewares/LVGL/GUI/lvgl/src/indev/lv_indev_scroll.c ****             angle = -angle;
 315:../../Middlewares/LVGL/GUI/lvgl/src/indev/lv_indev_scroll.c ****             scale_x = (256 * 256) / scale_x;
 316:../../Middlewares/LVGL/GUI/lvgl/src/indev/lv_indev_scroll.c ****             scale_y = (256 * 256) / scale_y;
ARM GAS  C:\Users\28576\AppData\Local\Temp\ccZznpky.s 			page 7


 317:../../Middlewares/LVGL/GUI/lvgl/src/indev/lv_indev_scroll.c ****             lv_point_transform(&obj_scroll_sum, angle, scale_x, scale_y, &pivot, false);
 318:../../Middlewares/LVGL/GUI/lvgl/src/indev/lv_indev_scroll.c ****         }
 319:../../Middlewares/LVGL/GUI/lvgl/src/indev/lv_indev_scroll.c **** 
 320:../../Middlewares/LVGL/GUI/lvgl/src/indev/lv_indev_scroll.c ****         if(LV_ABS(obj_scroll_sum.x) > LV_ABS(obj_scroll_sum.y)) {
 321:../../Middlewares/LVGL/GUI/lvgl/src/indev/lv_indev_scroll.c ****             hor_en = true;
 322:../../Middlewares/LVGL/GUI/lvgl/src/indev/lv_indev_scroll.c ****         }
 323:../../Middlewares/LVGL/GUI/lvgl/src/indev/lv_indev_scroll.c ****         else {
 324:../../Middlewares/LVGL/GUI/lvgl/src/indev/lv_indev_scroll.c ****             ver_en = true;
 325:../../Middlewares/LVGL/GUI/lvgl/src/indev/lv_indev_scroll.c ****         }
 326:../../Middlewares/LVGL/GUI/lvgl/src/indev/lv_indev_scroll.c **** 
 327:../../Middlewares/LVGL/GUI/lvgl/src/indev/lv_indev_scroll.c ****         if(lv_obj_has_flag(obj_act, LV_OBJ_FLAG_SCROLLABLE) == false) {
 328:../../Middlewares/LVGL/GUI/lvgl/src/indev/lv_indev_scroll.c ****             /*If this object don't want to chain the scroll to the parent stop searching*/
 329:../../Middlewares/LVGL/GUI/lvgl/src/indev/lv_indev_scroll.c ****             if(lv_obj_has_flag(obj_act, LV_OBJ_FLAG_SCROLL_CHAIN_HOR) == false && hor_en) break;
 330:../../Middlewares/LVGL/GUI/lvgl/src/indev/lv_indev_scroll.c ****             if(lv_obj_has_flag(obj_act, LV_OBJ_FLAG_SCROLL_CHAIN_VER) == false && ver_en) break;
 331:../../Middlewares/LVGL/GUI/lvgl/src/indev/lv_indev_scroll.c **** 
 332:../../Middlewares/LVGL/GUI/lvgl/src/indev/lv_indev_scroll.c ****             obj_act = lv_obj_get_parent(obj_act);
 333:../../Middlewares/LVGL/GUI/lvgl/src/indev/lv_indev_scroll.c ****             continue;
 334:../../Middlewares/LVGL/GUI/lvgl/src/indev/lv_indev_scroll.c ****         }
 335:../../Middlewares/LVGL/GUI/lvgl/src/indev/lv_indev_scroll.c **** 
 336:../../Middlewares/LVGL/GUI/lvgl/src/indev/lv_indev_scroll.c ****         /*Consider both up-down or left/right scrollable according to the current direction*/
 337:../../Middlewares/LVGL/GUI/lvgl/src/indev/lv_indev_scroll.c ****         bool up_en = ver_en;
 338:../../Middlewares/LVGL/GUI/lvgl/src/indev/lv_indev_scroll.c ****         bool down_en = ver_en;
 339:../../Middlewares/LVGL/GUI/lvgl/src/indev/lv_indev_scroll.c ****         bool left_en = hor_en;
 340:../../Middlewares/LVGL/GUI/lvgl/src/indev/lv_indev_scroll.c ****         bool right_en = hor_en;
 341:../../Middlewares/LVGL/GUI/lvgl/src/indev/lv_indev_scroll.c **** 
 342:../../Middlewares/LVGL/GUI/lvgl/src/indev/lv_indev_scroll.c ****         /*The object might have disabled some directions.*/
 343:../../Middlewares/LVGL/GUI/lvgl/src/indev/lv_indev_scroll.c ****         lv_dir_t scroll_dir = lv_obj_get_scroll_dir(obj_act);
 344:../../Middlewares/LVGL/GUI/lvgl/src/indev/lv_indev_scroll.c ****         if((scroll_dir & LV_DIR_LEFT) == 0) left_en = false;
 345:../../Middlewares/LVGL/GUI/lvgl/src/indev/lv_indev_scroll.c ****         if((scroll_dir & LV_DIR_RIGHT) == 0) right_en = false;
 346:../../Middlewares/LVGL/GUI/lvgl/src/indev/lv_indev_scroll.c ****         if((scroll_dir & LV_DIR_TOP) == 0) up_en = false;
 347:../../Middlewares/LVGL/GUI/lvgl/src/indev/lv_indev_scroll.c ****         if((scroll_dir & LV_DIR_BOTTOM) == 0) down_en = false;
 348:../../Middlewares/LVGL/GUI/lvgl/src/indev/lv_indev_scroll.c **** 
 349:../../Middlewares/LVGL/GUI/lvgl/src/indev/lv_indev_scroll.c ****         /*Horizontal scroll*/
 350:../../Middlewares/LVGL/GUI/lvgl/src/indev/lv_indev_scroll.c ****         int32_t sl = 0;
 351:../../Middlewares/LVGL/GUI/lvgl/src/indev/lv_indev_scroll.c ****         int32_t sr = 0;
 352:../../Middlewares/LVGL/GUI/lvgl/src/indev/lv_indev_scroll.c ****         lv_scroll_snap_t snap_x = lv_obj_get_scroll_snap_x(obj_act);
 353:../../Middlewares/LVGL/GUI/lvgl/src/indev/lv_indev_scroll.c ****         if(snap_x == LV_SCROLL_SNAP_NONE) {
 354:../../Middlewares/LVGL/GUI/lvgl/src/indev/lv_indev_scroll.c ****             sl = lv_obj_get_scroll_left(obj_act);
 355:../../Middlewares/LVGL/GUI/lvgl/src/indev/lv_indev_scroll.c ****             sr = lv_obj_get_scroll_right(obj_act);
 356:../../Middlewares/LVGL/GUI/lvgl/src/indev/lv_indev_scroll.c ****         }
 357:../../Middlewares/LVGL/GUI/lvgl/src/indev/lv_indev_scroll.c ****         else {
 358:../../Middlewares/LVGL/GUI/lvgl/src/indev/lv_indev_scroll.c ****             bool has_start_snap;
 359:../../Middlewares/LVGL/GUI/lvgl/src/indev/lv_indev_scroll.c ****             bool has_end_snap;
 360:../../Middlewares/LVGL/GUI/lvgl/src/indev/lv_indev_scroll.c ****             has_more_snap_points(obj_act, LV_DIR_HOR, &has_start_snap, &has_end_snap);
 361:../../Middlewares/LVGL/GUI/lvgl/src/indev/lv_indev_scroll.c **** 
 362:../../Middlewares/LVGL/GUI/lvgl/src/indev/lv_indev_scroll.c ****             /*Assume scrolling is there are more snap point
 363:../../Middlewares/LVGL/GUI/lvgl/src/indev/lv_indev_scroll.c ****              *Assumed scroll in if there are NO more nap points*/
 364:../../Middlewares/LVGL/GUI/lvgl/src/indev/lv_indev_scroll.c ****             sl = has_start_snap ? 1 : -1;
 365:../../Middlewares/LVGL/GUI/lvgl/src/indev/lv_indev_scroll.c ****             sr = has_end_snap ? 1 : -1;
 366:../../Middlewares/LVGL/GUI/lvgl/src/indev/lv_indev_scroll.c ****         }
 367:../../Middlewares/LVGL/GUI/lvgl/src/indev/lv_indev_scroll.c **** 
 368:../../Middlewares/LVGL/GUI/lvgl/src/indev/lv_indev_scroll.c ****         /*Vertical scroll*/
 369:../../Middlewares/LVGL/GUI/lvgl/src/indev/lv_indev_scroll.c ****         int32_t st = 0;
 370:../../Middlewares/LVGL/GUI/lvgl/src/indev/lv_indev_scroll.c ****         int32_t sb = 0;
 371:../../Middlewares/LVGL/GUI/lvgl/src/indev/lv_indev_scroll.c ****         lv_scroll_snap_t snap_y = lv_obj_get_scroll_snap_y(obj_act);
 372:../../Middlewares/LVGL/GUI/lvgl/src/indev/lv_indev_scroll.c ****         if(snap_y == LV_SCROLL_SNAP_NONE) {
 373:../../Middlewares/LVGL/GUI/lvgl/src/indev/lv_indev_scroll.c ****             st = lv_obj_get_scroll_top(obj_act);
ARM GAS  C:\Users\28576\AppData\Local\Temp\ccZznpky.s 			page 8


 374:../../Middlewares/LVGL/GUI/lvgl/src/indev/lv_indev_scroll.c ****             sb = lv_obj_get_scroll_bottom(obj_act);
 375:../../Middlewares/LVGL/GUI/lvgl/src/indev/lv_indev_scroll.c ****         }
 376:../../Middlewares/LVGL/GUI/lvgl/src/indev/lv_indev_scroll.c ****         else {
 377:../../Middlewares/LVGL/GUI/lvgl/src/indev/lv_indev_scroll.c ****             bool has_start_snap;
 378:../../Middlewares/LVGL/GUI/lvgl/src/indev/lv_indev_scroll.c ****             bool has_end_snap;
 379:../../Middlewares/LVGL/GUI/lvgl/src/indev/lv_indev_scroll.c ****             has_more_snap_points(obj_act, LV_DIR_VER, &has_start_snap, &has_end_snap);
 380:../../Middlewares/LVGL/GUI/lvgl/src/indev/lv_indev_scroll.c **** 
 381:../../Middlewares/LVGL/GUI/lvgl/src/indev/lv_indev_scroll.c ****             /*Assume scrolling is there are more snap point
 382:../../Middlewares/LVGL/GUI/lvgl/src/indev/lv_indev_scroll.c ****              *Assumed scroll in if there are NO more nap points*/
 383:../../Middlewares/LVGL/GUI/lvgl/src/indev/lv_indev_scroll.c ****             st = has_start_snap ? 1 : -1;
 384:../../Middlewares/LVGL/GUI/lvgl/src/indev/lv_indev_scroll.c ****             sb = has_end_snap ? 1 : -1;
 385:../../Middlewares/LVGL/GUI/lvgl/src/indev/lv_indev_scroll.c ****         }
 386:../../Middlewares/LVGL/GUI/lvgl/src/indev/lv_indev_scroll.c **** 
 387:../../Middlewares/LVGL/GUI/lvgl/src/indev/lv_indev_scroll.c ****         /*If this object is scrollable into the current scroll direction then save it as a candidat
 388:../../Middlewares/LVGL/GUI/lvgl/src/indev/lv_indev_scroll.c ****          *It's important only to be scrollable on the current axis (hor/ver) because if the scroll
 389:../../Middlewares/LVGL/GUI/lvgl/src/indev/lv_indev_scroll.c ****          *is propagated to this object it can show at least elastic scroll effect.
 390:../../Middlewares/LVGL/GUI/lvgl/src/indev/lv_indev_scroll.c ****          *But if not hor/ver scrollable do not scroll it at all (so it's not a good candidate)*/
 391:../../Middlewares/LVGL/GUI/lvgl/src/indev/lv_indev_scroll.c ****         if((st > 0 || sb > 0)  &&
 392:../../Middlewares/LVGL/GUI/lvgl/src/indev/lv_indev_scroll.c ****            ((up_en    && obj_scroll_sum.y >=   scroll_limit) ||
 393:../../Middlewares/LVGL/GUI/lvgl/src/indev/lv_indev_scroll.c ****             (down_en  && obj_scroll_sum.y <= - scroll_limit))) {
 394:../../Middlewares/LVGL/GUI/lvgl/src/indev/lv_indev_scroll.c ****             obj_candidate = obj_act;
 395:../../Middlewares/LVGL/GUI/lvgl/src/indev/lv_indev_scroll.c ****             dir_candidate = LV_DIR_VER;
 396:../../Middlewares/LVGL/GUI/lvgl/src/indev/lv_indev_scroll.c ****         }
 397:../../Middlewares/LVGL/GUI/lvgl/src/indev/lv_indev_scroll.c **** 
 398:../../Middlewares/LVGL/GUI/lvgl/src/indev/lv_indev_scroll.c ****         if((sl > 0 || sr > 0)  &&
 399:../../Middlewares/LVGL/GUI/lvgl/src/indev/lv_indev_scroll.c ****            ((left_en   && obj_scroll_sum.x >=   scroll_limit) ||
 400:../../Middlewares/LVGL/GUI/lvgl/src/indev/lv_indev_scroll.c ****             (right_en  && obj_scroll_sum.x <= - scroll_limit))) {
 401:../../Middlewares/LVGL/GUI/lvgl/src/indev/lv_indev_scroll.c ****             obj_candidate = obj_act;
 402:../../Middlewares/LVGL/GUI/lvgl/src/indev/lv_indev_scroll.c ****             dir_candidate = LV_DIR_HOR;
 403:../../Middlewares/LVGL/GUI/lvgl/src/indev/lv_indev_scroll.c ****         }
 404:../../Middlewares/LVGL/GUI/lvgl/src/indev/lv_indev_scroll.c **** 
 405:../../Middlewares/LVGL/GUI/lvgl/src/indev/lv_indev_scroll.c ****         if(st <= 0) up_en = false;
 406:../../Middlewares/LVGL/GUI/lvgl/src/indev/lv_indev_scroll.c ****         if(sb <= 0) down_en = false;
 407:../../Middlewares/LVGL/GUI/lvgl/src/indev/lv_indev_scroll.c ****         if(sl <= 0) left_en = false;
 408:../../Middlewares/LVGL/GUI/lvgl/src/indev/lv_indev_scroll.c ****         if(sr <= 0) right_en = false;
 409:../../Middlewares/LVGL/GUI/lvgl/src/indev/lv_indev_scroll.c **** 
 410:../../Middlewares/LVGL/GUI/lvgl/src/indev/lv_indev_scroll.c ****         /*If the object really can be scrolled into the current direction then use it.*/
 411:../../Middlewares/LVGL/GUI/lvgl/src/indev/lv_indev_scroll.c ****         if((left_en  && obj_scroll_sum.x >=   scroll_limit) ||
 412:../../Middlewares/LVGL/GUI/lvgl/src/indev/lv_indev_scroll.c ****            (right_en && obj_scroll_sum.x <= - scroll_limit) ||
 413:../../Middlewares/LVGL/GUI/lvgl/src/indev/lv_indev_scroll.c ****            (up_en    && obj_scroll_sum.y >=   scroll_limit) ||
 414:../../Middlewares/LVGL/GUI/lvgl/src/indev/lv_indev_scroll.c ****            (down_en  && obj_scroll_sum.y <= - scroll_limit)) {
 415:../../Middlewares/LVGL/GUI/lvgl/src/indev/lv_indev_scroll.c ****             indev->pointer.scroll_dir = hor_en ? LV_DIR_HOR : LV_DIR_VER;
 416:../../Middlewares/LVGL/GUI/lvgl/src/indev/lv_indev_scroll.c ****             break;
 417:../../Middlewares/LVGL/GUI/lvgl/src/indev/lv_indev_scroll.c ****         }
 418:../../Middlewares/LVGL/GUI/lvgl/src/indev/lv_indev_scroll.c **** 
 419:../../Middlewares/LVGL/GUI/lvgl/src/indev/lv_indev_scroll.c ****         /*If this object don't want to chain the scroll to the parent stop searching*/
 420:../../Middlewares/LVGL/GUI/lvgl/src/indev/lv_indev_scroll.c ****         if(lv_obj_has_flag(obj_act, LV_OBJ_FLAG_SCROLL_CHAIN_HOR) == false && hor_en) break;
 421:../../Middlewares/LVGL/GUI/lvgl/src/indev/lv_indev_scroll.c ****         if(lv_obj_has_flag(obj_act, LV_OBJ_FLAG_SCROLL_CHAIN_VER) == false && ver_en) break;
 422:../../Middlewares/LVGL/GUI/lvgl/src/indev/lv_indev_scroll.c **** 
 423:../../Middlewares/LVGL/GUI/lvgl/src/indev/lv_indev_scroll.c ****         /*Try the parent*/
 424:../../Middlewares/LVGL/GUI/lvgl/src/indev/lv_indev_scroll.c ****         obj_act = lv_obj_get_parent(obj_act);
 425:../../Middlewares/LVGL/GUI/lvgl/src/indev/lv_indev_scroll.c ****     }
 426:../../Middlewares/LVGL/GUI/lvgl/src/indev/lv_indev_scroll.c **** 
 427:../../Middlewares/LVGL/GUI/lvgl/src/indev/lv_indev_scroll.c ****     /*Use the last candidate*/
 428:../../Middlewares/LVGL/GUI/lvgl/src/indev/lv_indev_scroll.c ****     if(obj_candidate) {
 429:../../Middlewares/LVGL/GUI/lvgl/src/indev/lv_indev_scroll.c ****         indev->pointer.scroll_dir = dir_candidate;
 430:../../Middlewares/LVGL/GUI/lvgl/src/indev/lv_indev_scroll.c ****         indev->pointer.scroll_obj = obj_candidate;
ARM GAS  C:\Users\28576\AppData\Local\Temp\ccZznpky.s 			page 9


 431:../../Middlewares/LVGL/GUI/lvgl/src/indev/lv_indev_scroll.c ****         indev->pointer.scroll_sum.x = 0;
 432:../../Middlewares/LVGL/GUI/lvgl/src/indev/lv_indev_scroll.c ****         indev->pointer.scroll_sum.y = 0;
 433:../../Middlewares/LVGL/GUI/lvgl/src/indev/lv_indev_scroll.c ****     }
 434:../../Middlewares/LVGL/GUI/lvgl/src/indev/lv_indev_scroll.c **** 
 435:../../Middlewares/LVGL/GUI/lvgl/src/indev/lv_indev_scroll.c ****     return obj_candidate;
 436:../../Middlewares/LVGL/GUI/lvgl/src/indev/lv_indev_scroll.c **** }
 437:../../Middlewares/LVGL/GUI/lvgl/src/indev/lv_indev_scroll.c **** 
 438:../../Middlewares/LVGL/GUI/lvgl/src/indev/lv_indev_scroll.c **** /**********************
 439:../../Middlewares/LVGL/GUI/lvgl/src/indev/lv_indev_scroll.c ****  *   STATIC FUNCTIONS
 440:../../Middlewares/LVGL/GUI/lvgl/src/indev/lv_indev_scroll.c ****  **********************/
 441:../../Middlewares/LVGL/GUI/lvgl/src/indev/lv_indev_scroll.c **** 
 442:../../Middlewares/LVGL/GUI/lvgl/src/indev/lv_indev_scroll.c **** static void init_scroll_limits(lv_indev_t * indev)
 443:../../Middlewares/LVGL/GUI/lvgl/src/indev/lv_indev_scroll.c **** {
 444:../../Middlewares/LVGL/GUI/lvgl/src/indev/lv_indev_scroll.c ****     lv_obj_t * obj = indev->pointer.scroll_obj;
 445:../../Middlewares/LVGL/GUI/lvgl/src/indev/lv_indev_scroll.c ****     /*If there no STOP allow scrolling anywhere*/
 446:../../Middlewares/LVGL/GUI/lvgl/src/indev/lv_indev_scroll.c ****     if(lv_obj_has_flag(obj, LV_OBJ_FLAG_SCROLL_ONE) == false) {
 447:../../Middlewares/LVGL/GUI/lvgl/src/indev/lv_indev_scroll.c ****         lv_area_set(&indev->pointer.scroll_area, LV_COORD_MIN, LV_COORD_MIN, LV_COORD_MAX, LV_COORD
 448:../../Middlewares/LVGL/GUI/lvgl/src/indev/lv_indev_scroll.c ****     }
 449:../../Middlewares/LVGL/GUI/lvgl/src/indev/lv_indev_scroll.c ****     /*With STOP limit the scrolling to the perv and next snap point*/
 450:../../Middlewares/LVGL/GUI/lvgl/src/indev/lv_indev_scroll.c ****     else {
 451:../../Middlewares/LVGL/GUI/lvgl/src/indev/lv_indev_scroll.c ****         switch(lv_obj_get_scroll_snap_y(obj)) {
 452:../../Middlewares/LVGL/GUI/lvgl/src/indev/lv_indev_scroll.c ****             case LV_SCROLL_SNAP_START:
 453:../../Middlewares/LVGL/GUI/lvgl/src/indev/lv_indev_scroll.c ****                 indev->pointer.scroll_area.y1 = find_snap_point_y(obj, obj->coords.y1 + 1, LV_COORD
 454:../../Middlewares/LVGL/GUI/lvgl/src/indev/lv_indev_scroll.c ****                 indev->pointer.scroll_area.y2 = find_snap_point_y(obj, LV_COORD_MIN, obj->coords.y1
 455:../../Middlewares/LVGL/GUI/lvgl/src/indev/lv_indev_scroll.c ****                 break;
 456:../../Middlewares/LVGL/GUI/lvgl/src/indev/lv_indev_scroll.c ****             case LV_SCROLL_SNAP_END:
 457:../../Middlewares/LVGL/GUI/lvgl/src/indev/lv_indev_scroll.c ****                 indev->pointer.scroll_area.y1 = find_snap_point_y(obj, obj->coords.y2, LV_COORD_MAX
 458:../../Middlewares/LVGL/GUI/lvgl/src/indev/lv_indev_scroll.c ****                 indev->pointer.scroll_area.y2 = find_snap_point_y(obj, LV_COORD_MIN, obj->coords.y2
 459:../../Middlewares/LVGL/GUI/lvgl/src/indev/lv_indev_scroll.c ****                 break;
 460:../../Middlewares/LVGL/GUI/lvgl/src/indev/lv_indev_scroll.c ****             case LV_SCROLL_SNAP_CENTER: {
 461:../../Middlewares/LVGL/GUI/lvgl/src/indev/lv_indev_scroll.c ****                     int32_t y_mid = obj->coords.y1 + lv_area_get_height(&obj->coords) / 2;
 462:../../Middlewares/LVGL/GUI/lvgl/src/indev/lv_indev_scroll.c ****                     indev->pointer.scroll_area.y1 = find_snap_point_y(obj, y_mid + 1, LV_COORD_MAX,
 463:../../Middlewares/LVGL/GUI/lvgl/src/indev/lv_indev_scroll.c ****                     indev->pointer.scroll_area.y2 = find_snap_point_y(obj, LV_COORD_MIN, y_mid - 1,
 464:../../Middlewares/LVGL/GUI/lvgl/src/indev/lv_indev_scroll.c ****                     break;
 465:../../Middlewares/LVGL/GUI/lvgl/src/indev/lv_indev_scroll.c ****                 }
 466:../../Middlewares/LVGL/GUI/lvgl/src/indev/lv_indev_scroll.c ****             default:
 467:../../Middlewares/LVGL/GUI/lvgl/src/indev/lv_indev_scroll.c ****                 indev->pointer.scroll_area.y1 = LV_COORD_MIN;
 468:../../Middlewares/LVGL/GUI/lvgl/src/indev/lv_indev_scroll.c ****                 indev->pointer.scroll_area.y2 = LV_COORD_MAX;
 469:../../Middlewares/LVGL/GUI/lvgl/src/indev/lv_indev_scroll.c ****                 break;
 470:../../Middlewares/LVGL/GUI/lvgl/src/indev/lv_indev_scroll.c ****         }
 471:../../Middlewares/LVGL/GUI/lvgl/src/indev/lv_indev_scroll.c **** 
 472:../../Middlewares/LVGL/GUI/lvgl/src/indev/lv_indev_scroll.c ****         switch(lv_obj_get_scroll_snap_x(obj)) {
 473:../../Middlewares/LVGL/GUI/lvgl/src/indev/lv_indev_scroll.c ****             case LV_SCROLL_SNAP_START:
 474:../../Middlewares/LVGL/GUI/lvgl/src/indev/lv_indev_scroll.c ****                 indev->pointer.scroll_area.x1 = find_snap_point_x(obj, obj->coords.x1, LV_COORD_MAX
 475:../../Middlewares/LVGL/GUI/lvgl/src/indev/lv_indev_scroll.c ****                 indev->pointer.scroll_area.x2 = find_snap_point_x(obj, LV_COORD_MIN, obj->coords.x1
 476:../../Middlewares/LVGL/GUI/lvgl/src/indev/lv_indev_scroll.c ****                 break;
 477:../../Middlewares/LVGL/GUI/lvgl/src/indev/lv_indev_scroll.c ****             case LV_SCROLL_SNAP_END:
 478:../../Middlewares/LVGL/GUI/lvgl/src/indev/lv_indev_scroll.c ****                 indev->pointer.scroll_area.x1 = find_snap_point_x(obj, obj->coords.x2, LV_COORD_MAX
 479:../../Middlewares/LVGL/GUI/lvgl/src/indev/lv_indev_scroll.c ****                 indev->pointer.scroll_area.x2 = find_snap_point_x(obj, LV_COORD_MIN, obj->coords.x2
 480:../../Middlewares/LVGL/GUI/lvgl/src/indev/lv_indev_scroll.c ****                 break;
 481:../../Middlewares/LVGL/GUI/lvgl/src/indev/lv_indev_scroll.c ****             case LV_SCROLL_SNAP_CENTER: {
 482:../../Middlewares/LVGL/GUI/lvgl/src/indev/lv_indev_scroll.c ****                     int32_t x_mid = obj->coords.x1 + lv_area_get_width(&obj->coords) / 2;
 483:../../Middlewares/LVGL/GUI/lvgl/src/indev/lv_indev_scroll.c ****                     indev->pointer.scroll_area.x1 = find_snap_point_x(obj, x_mid + 1, LV_COORD_MAX,
 484:../../Middlewares/LVGL/GUI/lvgl/src/indev/lv_indev_scroll.c ****                     indev->pointer.scroll_area.x2 = find_snap_point_x(obj, LV_COORD_MIN, x_mid - 1,
 485:../../Middlewares/LVGL/GUI/lvgl/src/indev/lv_indev_scroll.c ****                     break;
 486:../../Middlewares/LVGL/GUI/lvgl/src/indev/lv_indev_scroll.c ****                 }
 487:../../Middlewares/LVGL/GUI/lvgl/src/indev/lv_indev_scroll.c ****             default:
ARM GAS  C:\Users\28576\AppData\Local\Temp\ccZznpky.s 			page 10


 488:../../Middlewares/LVGL/GUI/lvgl/src/indev/lv_indev_scroll.c ****                 indev->pointer.scroll_area.x1 = LV_COORD_MIN;
 489:../../Middlewares/LVGL/GUI/lvgl/src/indev/lv_indev_scroll.c ****                 indev->pointer.scroll_area.x2 = LV_COORD_MAX;
 490:../../Middlewares/LVGL/GUI/lvgl/src/indev/lv_indev_scroll.c ****                 break;
 491:../../Middlewares/LVGL/GUI/lvgl/src/indev/lv_indev_scroll.c ****         }
 492:../../Middlewares/LVGL/GUI/lvgl/src/indev/lv_indev_scroll.c ****     }
 493:../../Middlewares/LVGL/GUI/lvgl/src/indev/lv_indev_scroll.c **** 
 494:../../Middlewares/LVGL/GUI/lvgl/src/indev/lv_indev_scroll.c ****     /*`find_snap_point_x/y()` return LV_COORD_MAX is not snap point was found,
 495:../../Middlewares/LVGL/GUI/lvgl/src/indev/lv_indev_scroll.c ****      *but x1/y1 should be small. */
 496:../../Middlewares/LVGL/GUI/lvgl/src/indev/lv_indev_scroll.c ****     if(indev->pointer.scroll_area.x1 == LV_COORD_MAX) indev->pointer.scroll_area.x1 = LV_COORD_MIN;
 497:../../Middlewares/LVGL/GUI/lvgl/src/indev/lv_indev_scroll.c ****     if(indev->pointer.scroll_area.y1 == LV_COORD_MAX) indev->pointer.scroll_area.y1 = LV_COORD_MIN;
 498:../../Middlewares/LVGL/GUI/lvgl/src/indev/lv_indev_scroll.c **** 
 499:../../Middlewares/LVGL/GUI/lvgl/src/indev/lv_indev_scroll.c ****     /*Allow scrolling on the edges. It will be reverted to the edge due to snapping anyway*/
 500:../../Middlewares/LVGL/GUI/lvgl/src/indev/lv_indev_scroll.c ****     if(indev->pointer.scroll_area.x1 == 0) indev->pointer.scroll_area.x1 = LV_COORD_MIN;
 501:../../Middlewares/LVGL/GUI/lvgl/src/indev/lv_indev_scroll.c ****     if(indev->pointer.scroll_area.x2 == 0) indev->pointer.scroll_area.x2 = LV_COORD_MAX;
 502:../../Middlewares/LVGL/GUI/lvgl/src/indev/lv_indev_scroll.c ****     if(indev->pointer.scroll_area.y1 == 0) indev->pointer.scroll_area.y1 = LV_COORD_MIN;
 503:../../Middlewares/LVGL/GUI/lvgl/src/indev/lv_indev_scroll.c ****     if(indev->pointer.scroll_area.y2 == 0) indev->pointer.scroll_area.y2 = LV_COORD_MAX;
 504:../../Middlewares/LVGL/GUI/lvgl/src/indev/lv_indev_scroll.c **** }
 505:../../Middlewares/LVGL/GUI/lvgl/src/indev/lv_indev_scroll.c **** 
 506:../../Middlewares/LVGL/GUI/lvgl/src/indev/lv_indev_scroll.c **** /**
 507:../../Middlewares/LVGL/GUI/lvgl/src/indev/lv_indev_scroll.c ****  * Search for snap point in the min..max range.
 508:../../Middlewares/LVGL/GUI/lvgl/src/indev/lv_indev_scroll.c ****  * @param obj the object on which snap point should be found
 509:../../Middlewares/LVGL/GUI/lvgl/src/indev/lv_indev_scroll.c ****  * @param min ignore snap points smaller than this. (Absolute coordinate)
 510:../../Middlewares/LVGL/GUI/lvgl/src/indev/lv_indev_scroll.c ****  * @param max ignore snap points greater than this. (Absolute coordinate)
 511:../../Middlewares/LVGL/GUI/lvgl/src/indev/lv_indev_scroll.c ****  * @param ofs offset to snap points. Useful the get a snap point in an imagined case
 512:../../Middlewares/LVGL/GUI/lvgl/src/indev/lv_indev_scroll.c ****  *            what if children are already moved by this value
 513:../../Middlewares/LVGL/GUI/lvgl/src/indev/lv_indev_scroll.c ****  * @return the absolute x coordinate of the nearest snap point
 514:../../Middlewares/LVGL/GUI/lvgl/src/indev/lv_indev_scroll.c ****  *         or `LV_COORD_MAX` if there is no snap point in the min..max range
 515:../../Middlewares/LVGL/GUI/lvgl/src/indev/lv_indev_scroll.c ****  */
 516:../../Middlewares/LVGL/GUI/lvgl/src/indev/lv_indev_scroll.c **** static int32_t find_snap_point_x(const lv_obj_t * obj, int32_t min, int32_t max, int32_t ofs)
 517:../../Middlewares/LVGL/GUI/lvgl/src/indev/lv_indev_scroll.c **** {
 518:../../Middlewares/LVGL/GUI/lvgl/src/indev/lv_indev_scroll.c ****     lv_scroll_snap_t align = lv_obj_get_scroll_snap_x(obj);
 519:../../Middlewares/LVGL/GUI/lvgl/src/indev/lv_indev_scroll.c ****     if(align == LV_SCROLL_SNAP_NONE) return LV_COORD_MAX;
 520:../../Middlewares/LVGL/GUI/lvgl/src/indev/lv_indev_scroll.c **** 
 521:../../Middlewares/LVGL/GUI/lvgl/src/indev/lv_indev_scroll.c ****     int32_t dist = LV_COORD_MAX;
 522:../../Middlewares/LVGL/GUI/lvgl/src/indev/lv_indev_scroll.c **** 
 523:../../Middlewares/LVGL/GUI/lvgl/src/indev/lv_indev_scroll.c ****     int32_t pad_left = lv_obj_get_style_pad_left(obj, LV_PART_MAIN);
 524:../../Middlewares/LVGL/GUI/lvgl/src/indev/lv_indev_scroll.c ****     int32_t pad_right = lv_obj_get_style_pad_right(obj, LV_PART_MAIN);
 525:../../Middlewares/LVGL/GUI/lvgl/src/indev/lv_indev_scroll.c **** 
 526:../../Middlewares/LVGL/GUI/lvgl/src/indev/lv_indev_scroll.c ****     uint32_t i;
 527:../../Middlewares/LVGL/GUI/lvgl/src/indev/lv_indev_scroll.c ****     uint32_t child_cnt = lv_obj_get_child_count(obj);
 528:../../Middlewares/LVGL/GUI/lvgl/src/indev/lv_indev_scroll.c ****     for(i = 0; i < child_cnt; i++) {
 529:../../Middlewares/LVGL/GUI/lvgl/src/indev/lv_indev_scroll.c ****         lv_obj_t * child = obj->spec_attr->children[i];
 530:../../Middlewares/LVGL/GUI/lvgl/src/indev/lv_indev_scroll.c ****         if(lv_obj_has_flag_any(child, LV_OBJ_FLAG_HIDDEN | LV_OBJ_FLAG_FLOATING)) continue;
 531:../../Middlewares/LVGL/GUI/lvgl/src/indev/lv_indev_scroll.c ****         if(lv_obj_has_flag(child, LV_OBJ_FLAG_SNAPPABLE)) {
 532:../../Middlewares/LVGL/GUI/lvgl/src/indev/lv_indev_scroll.c ****             int32_t x_child = 0;
 533:../../Middlewares/LVGL/GUI/lvgl/src/indev/lv_indev_scroll.c ****             int32_t x_parent = 0;
 534:../../Middlewares/LVGL/GUI/lvgl/src/indev/lv_indev_scroll.c ****             switch(align) {
 535:../../Middlewares/LVGL/GUI/lvgl/src/indev/lv_indev_scroll.c ****                 case LV_SCROLL_SNAP_START:
 536:../../Middlewares/LVGL/GUI/lvgl/src/indev/lv_indev_scroll.c ****                     x_child = child->coords.x1;
 537:../../Middlewares/LVGL/GUI/lvgl/src/indev/lv_indev_scroll.c ****                     x_parent = obj->coords.x1 + pad_left;
 538:../../Middlewares/LVGL/GUI/lvgl/src/indev/lv_indev_scroll.c ****                     break;
 539:../../Middlewares/LVGL/GUI/lvgl/src/indev/lv_indev_scroll.c ****                 case LV_SCROLL_SNAP_END:
 540:../../Middlewares/LVGL/GUI/lvgl/src/indev/lv_indev_scroll.c ****                     x_child = child->coords.x2;
 541:../../Middlewares/LVGL/GUI/lvgl/src/indev/lv_indev_scroll.c ****                     x_parent = obj->coords.x2 - pad_right;
 542:../../Middlewares/LVGL/GUI/lvgl/src/indev/lv_indev_scroll.c ****                     break;
 543:../../Middlewares/LVGL/GUI/lvgl/src/indev/lv_indev_scroll.c ****                 case LV_SCROLL_SNAP_CENTER:
 544:../../Middlewares/LVGL/GUI/lvgl/src/indev/lv_indev_scroll.c ****                     x_child = child->coords.x1 + lv_area_get_width(&child->coords) / 2;
ARM GAS  C:\Users\28576\AppData\Local\Temp\ccZznpky.s 			page 11


 545:../../Middlewares/LVGL/GUI/lvgl/src/indev/lv_indev_scroll.c ****                     x_parent = obj->coords.x1 + pad_left + (lv_area_get_width(&obj->coords) - pad_l
 546:../../Middlewares/LVGL/GUI/lvgl/src/indev/lv_indev_scroll.c ****                     break;
 547:../../Middlewares/LVGL/GUI/lvgl/src/indev/lv_indev_scroll.c ****                 default:
 548:../../Middlewares/LVGL/GUI/lvgl/src/indev/lv_indev_scroll.c ****                     continue;
 549:../../Middlewares/LVGL/GUI/lvgl/src/indev/lv_indev_scroll.c ****             }
 550:../../Middlewares/LVGL/GUI/lvgl/src/indev/lv_indev_scroll.c **** 
 551:../../Middlewares/LVGL/GUI/lvgl/src/indev/lv_indev_scroll.c ****             x_child += ofs;
 552:../../Middlewares/LVGL/GUI/lvgl/src/indev/lv_indev_scroll.c ****             if(x_child >= min && x_child <= max) {
 553:../../Middlewares/LVGL/GUI/lvgl/src/indev/lv_indev_scroll.c ****                 int32_t x = x_child -  x_parent;
 554:../../Middlewares/LVGL/GUI/lvgl/src/indev/lv_indev_scroll.c ****                 if(LV_ABS(x) < LV_ABS(dist)) dist = x;
 555:../../Middlewares/LVGL/GUI/lvgl/src/indev/lv_indev_scroll.c ****             }
 556:../../Middlewares/LVGL/GUI/lvgl/src/indev/lv_indev_scroll.c ****         }
 557:../../Middlewares/LVGL/GUI/lvgl/src/indev/lv_indev_scroll.c ****     }
 558:../../Middlewares/LVGL/GUI/lvgl/src/indev/lv_indev_scroll.c **** 
 559:../../Middlewares/LVGL/GUI/lvgl/src/indev/lv_indev_scroll.c ****     return dist == LV_COORD_MAX ? LV_COORD_MAX : -dist;
 560:../../Middlewares/LVGL/GUI/lvgl/src/indev/lv_indev_scroll.c **** }
 561:../../Middlewares/LVGL/GUI/lvgl/src/indev/lv_indev_scroll.c **** 
 562:../../Middlewares/LVGL/GUI/lvgl/src/indev/lv_indev_scroll.c **** /**
 563:../../Middlewares/LVGL/GUI/lvgl/src/indev/lv_indev_scroll.c ****  * Search for snap point in the min..max range.
 564:../../Middlewares/LVGL/GUI/lvgl/src/indev/lv_indev_scroll.c ****  * @param obj the object on which snap point should be found
 565:../../Middlewares/LVGL/GUI/lvgl/src/indev/lv_indev_scroll.c ****  * @param min ignore snap points smaller than this. (Absolute coordinate)
 566:../../Middlewares/LVGL/GUI/lvgl/src/indev/lv_indev_scroll.c ****  * @param max ignore snap points greater than this. (Absolute coordinate)
 567:../../Middlewares/LVGL/GUI/lvgl/src/indev/lv_indev_scroll.c ****  * @param ofs offset to snap points. Useful to get a snap point in an imagined case
 568:../../Middlewares/LVGL/GUI/lvgl/src/indev/lv_indev_scroll.c ****  *            what if children are already moved by this value
 569:../../Middlewares/LVGL/GUI/lvgl/src/indev/lv_indev_scroll.c ****  * @return the absolute y coordinate of the nearest snap point
 570:../../Middlewares/LVGL/GUI/lvgl/src/indev/lv_indev_scroll.c ****  *         or `LV_COORD_MAX` if there is no snap point in the min..max range
 571:../../Middlewares/LVGL/GUI/lvgl/src/indev/lv_indev_scroll.c ****  */
 572:../../Middlewares/LVGL/GUI/lvgl/src/indev/lv_indev_scroll.c **** static int32_t find_snap_point_y(const lv_obj_t * obj, int32_t min, int32_t max, int32_t ofs)
 573:../../Middlewares/LVGL/GUI/lvgl/src/indev/lv_indev_scroll.c **** {
 574:../../Middlewares/LVGL/GUI/lvgl/src/indev/lv_indev_scroll.c ****     lv_scroll_snap_t align = lv_obj_get_scroll_snap_y(obj);
 575:../../Middlewares/LVGL/GUI/lvgl/src/indev/lv_indev_scroll.c ****     if(align == LV_SCROLL_SNAP_NONE) return LV_COORD_MAX;
 576:../../Middlewares/LVGL/GUI/lvgl/src/indev/lv_indev_scroll.c **** 
 577:../../Middlewares/LVGL/GUI/lvgl/src/indev/lv_indev_scroll.c ****     int32_t dist = LV_COORD_MAX;
 578:../../Middlewares/LVGL/GUI/lvgl/src/indev/lv_indev_scroll.c **** 
 579:../../Middlewares/LVGL/GUI/lvgl/src/indev/lv_indev_scroll.c ****     int32_t pad_top = lv_obj_get_style_pad_top(obj, LV_PART_MAIN);
 580:../../Middlewares/LVGL/GUI/lvgl/src/indev/lv_indev_scroll.c ****     int32_t pad_bottom = lv_obj_get_style_pad_bottom(obj, LV_PART_MAIN);
 581:../../Middlewares/LVGL/GUI/lvgl/src/indev/lv_indev_scroll.c **** 
 582:../../Middlewares/LVGL/GUI/lvgl/src/indev/lv_indev_scroll.c ****     uint32_t i;
 583:../../Middlewares/LVGL/GUI/lvgl/src/indev/lv_indev_scroll.c ****     uint32_t child_cnt = lv_obj_get_child_count(obj);
 584:../../Middlewares/LVGL/GUI/lvgl/src/indev/lv_indev_scroll.c ****     for(i = 0; i < child_cnt; i++) {
 585:../../Middlewares/LVGL/GUI/lvgl/src/indev/lv_indev_scroll.c ****         lv_obj_t * child = obj->spec_attr->children[i];
 586:../../Middlewares/LVGL/GUI/lvgl/src/indev/lv_indev_scroll.c ****         if(lv_obj_has_flag_any(child, LV_OBJ_FLAG_HIDDEN | LV_OBJ_FLAG_FLOATING)) continue;
 587:../../Middlewares/LVGL/GUI/lvgl/src/indev/lv_indev_scroll.c ****         if(lv_obj_has_flag(child, LV_OBJ_FLAG_SNAPPABLE)) {
 588:../../Middlewares/LVGL/GUI/lvgl/src/indev/lv_indev_scroll.c ****             int32_t y_child = 0;
 589:../../Middlewares/LVGL/GUI/lvgl/src/indev/lv_indev_scroll.c ****             int32_t y_parent = 0;
 590:../../Middlewares/LVGL/GUI/lvgl/src/indev/lv_indev_scroll.c ****             switch(align) {
 591:../../Middlewares/LVGL/GUI/lvgl/src/indev/lv_indev_scroll.c ****                 case LV_SCROLL_SNAP_START:
 592:../../Middlewares/LVGL/GUI/lvgl/src/indev/lv_indev_scroll.c ****                     y_child = child->coords.y1;
 593:../../Middlewares/LVGL/GUI/lvgl/src/indev/lv_indev_scroll.c ****                     y_parent = obj->coords.y1 + pad_top;
 594:../../Middlewares/LVGL/GUI/lvgl/src/indev/lv_indev_scroll.c ****                     break;
 595:../../Middlewares/LVGL/GUI/lvgl/src/indev/lv_indev_scroll.c ****                 case LV_SCROLL_SNAP_END:
 596:../../Middlewares/LVGL/GUI/lvgl/src/indev/lv_indev_scroll.c ****                     y_child = child->coords.y2;
 597:../../Middlewares/LVGL/GUI/lvgl/src/indev/lv_indev_scroll.c ****                     y_parent = obj->coords.y2 - pad_bottom;
 598:../../Middlewares/LVGL/GUI/lvgl/src/indev/lv_indev_scroll.c ****                     break;
 599:../../Middlewares/LVGL/GUI/lvgl/src/indev/lv_indev_scroll.c ****                 case LV_SCROLL_SNAP_CENTER:
 600:../../Middlewares/LVGL/GUI/lvgl/src/indev/lv_indev_scroll.c ****                     y_child = child->coords.y1 + lv_area_get_height(&child->coords) / 2;
 601:../../Middlewares/LVGL/GUI/lvgl/src/indev/lv_indev_scroll.c ****                     y_parent = obj->coords.y1 + pad_top + (lv_area_get_height(&obj->coords) - pad_t
ARM GAS  C:\Users\28576\AppData\Local\Temp\ccZznpky.s 			page 12


 602:../../Middlewares/LVGL/GUI/lvgl/src/indev/lv_indev_scroll.c ****                     break;
 603:../../Middlewares/LVGL/GUI/lvgl/src/indev/lv_indev_scroll.c ****                 default:
 604:../../Middlewares/LVGL/GUI/lvgl/src/indev/lv_indev_scroll.c ****                     continue;
 605:../../Middlewares/LVGL/GUI/lvgl/src/indev/lv_indev_scroll.c ****             }
 606:../../Middlewares/LVGL/GUI/lvgl/src/indev/lv_indev_scroll.c **** 
 607:../../Middlewares/LVGL/GUI/lvgl/src/indev/lv_indev_scroll.c ****             y_child += ofs;
 608:../../Middlewares/LVGL/GUI/lvgl/src/indev/lv_indev_scroll.c ****             if(y_child >= min && y_child <= max) {
 609:../../Middlewares/LVGL/GUI/lvgl/src/indev/lv_indev_scroll.c ****                 int32_t y = y_child -  y_parent;
 610:../../Middlewares/LVGL/GUI/lvgl/src/indev/lv_indev_scroll.c ****                 if(LV_ABS(y) < LV_ABS(dist)) dist = y;
 611:../../Middlewares/LVGL/GUI/lvgl/src/indev/lv_indev_scroll.c ****             }
 612:../../Middlewares/LVGL/GUI/lvgl/src/indev/lv_indev_scroll.c ****         }
 613:../../Middlewares/LVGL/GUI/lvgl/src/indev/lv_indev_scroll.c ****     }
 614:../../Middlewares/LVGL/GUI/lvgl/src/indev/lv_indev_scroll.c **** 
 615:../../Middlewares/LVGL/GUI/lvgl/src/indev/lv_indev_scroll.c ****     return dist == LV_COORD_MAX ? LV_COORD_MAX : -dist;
 616:../../Middlewares/LVGL/GUI/lvgl/src/indev/lv_indev_scroll.c **** }
 617:../../Middlewares/LVGL/GUI/lvgl/src/indev/lv_indev_scroll.c **** 
 618:../../Middlewares/LVGL/GUI/lvgl/src/indev/lv_indev_scroll.c **** static void scroll_limit_diff(lv_indev_t * indev, int32_t * diff_x, int32_t * diff_y)
 619:../../Middlewares/LVGL/GUI/lvgl/src/indev/lv_indev_scroll.c **** {
  28              		.loc 1 619 1 view -0
  29              		.cfi_startproc
  30              		@ args = 0, pretend = 0, frame = 0
  31              		@ frame_needed = 0, uses_anonymous_args = 0
  32              		.loc 1 619 1 is_stmt 0 view .LVU1
  33 0000 00B5     		push	{lr}
  34              	.LCFI0:
  35              		.cfi_def_cfa_offset 4
  36              		.cfi_offset 14, -4
 620:../../Middlewares/LVGL/GUI/lvgl/src/indev/lv_indev_scroll.c ****     if(diff_y) {
  37              		.loc 1 620 5 is_stmt 1 view .LVU2
  38              		.loc 1 620 7 is_stmt 0 view .LVU3
  39 0002 B2B1     		cbz	r2, .L2
  40 0004 1346     		mov	r3, r2
 621:../../Middlewares/LVGL/GUI/lvgl/src/indev/lv_indev_scroll.c ****         if(indev->pointer.scroll_sum.y + *diff_y < indev->pointer.scroll_area.y1) {
  41              		.loc 1 621 9 is_stmt 1 view .LVU4
  42              		.loc 1 621 37 is_stmt 0 view .LVU5
  43 0006 D0F854E0 		ldr	lr, [r0, #84]
  44              		.loc 1 621 42 view .LVU6
  45 000a 1268     		ldr	r2, [r2]
  46              	.LVL1:
  47              		.loc 1 621 40 view .LVU7
  48 000c 7244     		add	r2, r2, lr
  49              		.loc 1 621 78 view .LVU8
  50 000e D0F880C0 		ldr	ip, [r0, #128]
  51              		.loc 1 621 11 view .LVU9
  52 0012 6245     		cmp	r2, ip
  53 0014 02DA     		bge	.L3
 622:../../Middlewares/LVGL/GUI/lvgl/src/indev/lv_indev_scroll.c ****             *diff_y = indev->pointer.scroll_area.y1 - indev->pointer.scroll_sum.y;
  54              		.loc 1 622 13 is_stmt 1 view .LVU10
  55              		.loc 1 622 53 is_stmt 0 view .LVU11
  56 0016 ACEB0E02 		sub	r2, ip, lr
  57              		.loc 1 622 21 view .LVU12
  58 001a 1A60     		str	r2, [r3]
  59              	.L3:
 623:../../Middlewares/LVGL/GUI/lvgl/src/indev/lv_indev_scroll.c ****         }
 624:../../Middlewares/LVGL/GUI/lvgl/src/indev/lv_indev_scroll.c **** 
 625:../../Middlewares/LVGL/GUI/lvgl/src/indev/lv_indev_scroll.c ****         if(indev->pointer.scroll_sum.y + *diff_y > indev->pointer.scroll_area.y2) {
  60              		.loc 1 625 9 is_stmt 1 view .LVU13
ARM GAS  C:\Users\28576\AppData\Local\Temp\ccZznpky.s 			page 13


  61              		.loc 1 625 37 is_stmt 0 view .LVU14
  62 001c D0F854E0 		ldr	lr, [r0, #84]
  63              		.loc 1 625 42 view .LVU15
  64 0020 1A68     		ldr	r2, [r3]
  65              		.loc 1 625 40 view .LVU16
  66 0022 7244     		add	r2, r2, lr
  67              		.loc 1 625 78 view .LVU17
  68 0024 D0F888C0 		ldr	ip, [r0, #136]
  69              		.loc 1 625 11 view .LVU18
  70 0028 6245     		cmp	r2, ip
  71 002a 02DD     		ble	.L2
 626:../../Middlewares/LVGL/GUI/lvgl/src/indev/lv_indev_scroll.c ****             *diff_y = indev->pointer.scroll_area.y2 - indev->pointer.scroll_sum.y;
  72              		.loc 1 626 13 is_stmt 1 view .LVU19
  73              		.loc 1 626 53 is_stmt 0 view .LVU20
  74 002c ACEB0E02 		sub	r2, ip, lr
  75              		.loc 1 626 21 view .LVU21
  76 0030 1A60     		str	r2, [r3]
  77              	.LVL2:
  78              	.L2:
 627:../../Middlewares/LVGL/GUI/lvgl/src/indev/lv_indev_scroll.c ****         }
 628:../../Middlewares/LVGL/GUI/lvgl/src/indev/lv_indev_scroll.c ****     }
 629:../../Middlewares/LVGL/GUI/lvgl/src/indev/lv_indev_scroll.c **** 
 630:../../Middlewares/LVGL/GUI/lvgl/src/indev/lv_indev_scroll.c ****     if(diff_x) {
  79              		.loc 1 630 5 is_stmt 1 view .LVU22
  80              		.loc 1 630 7 is_stmt 0 view .LVU23
  81 0032 A1B1     		cbz	r1, .L1
 631:../../Middlewares/LVGL/GUI/lvgl/src/indev/lv_indev_scroll.c ****         if(indev->pointer.scroll_sum.x + *diff_x < indev->pointer.scroll_area.x1) {
  82              		.loc 1 631 9 is_stmt 1 view .LVU24
  83              		.loc 1 631 37 is_stmt 0 view .LVU25
  84 0034 D0F850C0 		ldr	ip, [r0, #80]
  85              		.loc 1 631 42 view .LVU26
  86 0038 0B68     		ldr	r3, [r1]
  87              		.loc 1 631 40 view .LVU27
  88 003a 6344     		add	r3, r3, ip
  89              		.loc 1 631 78 view .LVU28
  90 003c C26F     		ldr	r2, [r0, #124]
  91              		.loc 1 631 11 view .LVU29
  92 003e 9342     		cmp	r3, r2
  93 0040 02DA     		bge	.L5
 632:../../Middlewares/LVGL/GUI/lvgl/src/indev/lv_indev_scroll.c ****             *diff_x = indev->pointer.scroll_area.x1 - indev->pointer.scroll_sum.x;
  94              		.loc 1 632 13 is_stmt 1 view .LVU30
  95              		.loc 1 632 53 is_stmt 0 view .LVU31
  96 0042 A2EB0C02 		sub	r2, r2, ip
  97              		.loc 1 632 21 view .LVU32
  98 0046 0A60     		str	r2, [r1]
  99              	.L5:
 633:../../Middlewares/LVGL/GUI/lvgl/src/indev/lv_indev_scroll.c ****         }
 634:../../Middlewares/LVGL/GUI/lvgl/src/indev/lv_indev_scroll.c **** 
 635:../../Middlewares/LVGL/GUI/lvgl/src/indev/lv_indev_scroll.c ****         if(indev->pointer.scroll_sum.x + *diff_x > indev->pointer.scroll_area.x2) {
 100              		.loc 1 635 9 is_stmt 1 view .LVU33
 101              		.loc 1 635 37 is_stmt 0 view .LVU34
 102 0048 D0F850C0 		ldr	ip, [r0, #80]
 103              		.loc 1 635 42 view .LVU35
 104 004c 0B68     		ldr	r3, [r1]
 105              		.loc 1 635 40 view .LVU36
 106 004e 6344     		add	r3, r3, ip
 107              		.loc 1 635 78 view .LVU37
ARM GAS  C:\Users\28576\AppData\Local\Temp\ccZznpky.s 			page 14


 108 0050 D0F88420 		ldr	r2, [r0, #132]
 109              		.loc 1 635 11 view .LVU38
 110 0054 9342     		cmp	r3, r2
 111 0056 02DD     		ble	.L1
 636:../../Middlewares/LVGL/GUI/lvgl/src/indev/lv_indev_scroll.c ****             *diff_x = indev->pointer.scroll_area.x2 - indev->pointer.scroll_sum.x;
 112              		.loc 1 636 13 is_stmt 1 view .LVU39
 113              		.loc 1 636 53 is_stmt 0 view .LVU40
 114 0058 A2EB0C02 		sub	r2, r2, ip
 115              		.loc 1 636 21 view .LVU41
 116 005c 0A60     		str	r2, [r1]
 117              	.L1:
 637:../../Middlewares/LVGL/GUI/lvgl/src/indev/lv_indev_scroll.c ****         }
 638:../../Middlewares/LVGL/GUI/lvgl/src/indev/lv_indev_scroll.c ****     }
 639:../../Middlewares/LVGL/GUI/lvgl/src/indev/lv_indev_scroll.c **** }
 118              		.loc 1 639 1 view .LVU42
 119 005e 00BD     		pop	{pc}
 120              		.cfi_endproc
 121              	.LFE180:
 123              		.section	.text.find_snap_point_y,"ax",%progbits
 124              		.align	1
 125              		.syntax unified
 126              		.thumb
 127              		.thumb_func
 129              	find_snap_point_y:
 130              	.LVL3:
 131              	.LFB179:
 573:../../Middlewares/LVGL/GUI/lvgl/src/indev/lv_indev_scroll.c ****     lv_scroll_snap_t align = lv_obj_get_scroll_snap_y(obj);
 132              		.loc 1 573 1 is_stmt 1 view -0
 133              		.cfi_startproc
 134              		@ args = 0, pretend = 0, frame = 24
 135              		@ frame_needed = 0, uses_anonymous_args = 0
 573:../../Middlewares/LVGL/GUI/lvgl/src/indev/lv_indev_scroll.c ****     lv_scroll_snap_t align = lv_obj_get_scroll_snap_y(obj);
 136              		.loc 1 573 1 is_stmt 0 view .LVU44
 137 0000 2DE9F04F 		push	{r4, r5, r6, r7, r8, r9, r10, fp, lr}
 138              	.LCFI1:
 139              		.cfi_def_cfa_offset 36
 140              		.cfi_offset 4, -36
 141              		.cfi_offset 5, -32
 142              		.cfi_offset 6, -28
 143              		.cfi_offset 7, -24
 144              		.cfi_offset 8, -20
 145              		.cfi_offset 9, -16
 146              		.cfi_offset 10, -12
 147              		.cfi_offset 11, -8
 148              		.cfi_offset 14, -4
 149 0004 87B0     		sub	sp, sp, #28
 150              	.LCFI2:
 151              		.cfi_def_cfa_offset 64
 152 0006 0646     		mov	r6, r0
 153 0008 8A46     		mov	r10, r1
 154 000a 9346     		mov	fp, r2
 155 000c 0093     		str	r3, [sp]
 574:../../Middlewares/LVGL/GUI/lvgl/src/indev/lv_indev_scroll.c ****     if(align == LV_SCROLL_SNAP_NONE) return LV_COORD_MAX;
 156              		.loc 1 574 5 is_stmt 1 view .LVU45
 574:../../Middlewares/LVGL/GUI/lvgl/src/indev/lv_indev_scroll.c ****     if(align == LV_SCROLL_SNAP_NONE) return LV_COORD_MAX;
 157              		.loc 1 574 30 is_stmt 0 view .LVU46
 158 000e FFF7FEFF 		bl	lv_obj_get_scroll_snap_y
ARM GAS  C:\Users\28576\AppData\Local\Temp\ccZznpky.s 			page 15


 159              	.LVL4:
 575:../../Middlewares/LVGL/GUI/lvgl/src/indev/lv_indev_scroll.c **** 
 160              		.loc 1 575 5 is_stmt 1 view .LVU47
 575:../../Middlewares/LVGL/GUI/lvgl/src/indev/lv_indev_scroll.c **** 
 161              		.loc 1 575 7 is_stmt 0 view .LVU48
 162 0012 0028     		cmp	r0, #0
 163 0014 00F08180 		beq	.L17
 164 0018 8046     		mov	r8, r0
 577:../../Middlewares/LVGL/GUI/lvgl/src/indev/lv_indev_scroll.c **** 
 165              		.loc 1 577 5 is_stmt 1 view .LVU49
 166              	.LVL5:
 579:../../Middlewares/LVGL/GUI/lvgl/src/indev/lv_indev_scroll.c ****     int32_t pad_bottom = lv_obj_get_style_pad_bottom(obj, LV_PART_MAIN);
 167              		.loc 1 579 5 view .LVU50
 168              	.LBB68:
 169              	.LBI68:
 170              		.file 2 "../../Middlewares/LVGL/GUI/lvgl/src/indev/../core/lv_obj_style_gen.h"
   1:../../Middlewares/LVGL/GUI/lvgl/src/indev/../core/lv_obj_style_gen.h **** 
   2:../../Middlewares/LVGL/GUI/lvgl/src/indev/../core/lv_obj_style_gen.h **** /*
   3:../../Middlewares/LVGL/GUI/lvgl/src/indev/../core/lv_obj_style_gen.h ****  **********************************************************************
   4:../../Middlewares/LVGL/GUI/lvgl/src/indev/../core/lv_obj_style_gen.h ****  *                            DO NOT EDIT
   5:../../Middlewares/LVGL/GUI/lvgl/src/indev/../core/lv_obj_style_gen.h ****  * This file is automatically generated by "style_api_gen.py"
   6:../../Middlewares/LVGL/GUI/lvgl/src/indev/../core/lv_obj_style_gen.h ****  **********************************************************************
   7:../../Middlewares/LVGL/GUI/lvgl/src/indev/../core/lv_obj_style_gen.h ****  */
   8:../../Middlewares/LVGL/GUI/lvgl/src/indev/../core/lv_obj_style_gen.h **** 
   9:../../Middlewares/LVGL/GUI/lvgl/src/indev/../core/lv_obj_style_gen.h **** 
  10:../../Middlewares/LVGL/GUI/lvgl/src/indev/../core/lv_obj_style_gen.h **** #ifndef LV_OBJ_STYLE_GEN_H
  11:../../Middlewares/LVGL/GUI/lvgl/src/indev/../core/lv_obj_style_gen.h **** #define LV_OBJ_STYLE_GEN_H
  12:../../Middlewares/LVGL/GUI/lvgl/src/indev/../core/lv_obj_style_gen.h **** 
  13:../../Middlewares/LVGL/GUI/lvgl/src/indev/../core/lv_obj_style_gen.h **** #ifdef __cplusplus
  14:../../Middlewares/LVGL/GUI/lvgl/src/indev/../core/lv_obj_style_gen.h **** extern "C" {
  15:../../Middlewares/LVGL/GUI/lvgl/src/indev/../core/lv_obj_style_gen.h **** #endif
  16:../../Middlewares/LVGL/GUI/lvgl/src/indev/../core/lv_obj_style_gen.h **** 
  17:../../Middlewares/LVGL/GUI/lvgl/src/indev/../core/lv_obj_style_gen.h **** #include "../misc/lv_area.h"
  18:../../Middlewares/LVGL/GUI/lvgl/src/indev/../core/lv_obj_style_gen.h **** #include "../misc/lv_style.h"
  19:../../Middlewares/LVGL/GUI/lvgl/src/indev/../core/lv_obj_style_gen.h **** #include "../core/lv_obj_style.h"
  20:../../Middlewares/LVGL/GUI/lvgl/src/indev/../core/lv_obj_style_gen.h **** #include "../misc/lv_types.h"
  21:../../Middlewares/LVGL/GUI/lvgl/src/indev/../core/lv_obj_style_gen.h **** 
  22:../../Middlewares/LVGL/GUI/lvgl/src/indev/../core/lv_obj_style_gen.h **** static inline int32_t lv_obj_get_style_width(const lv_obj_t * obj, lv_part_t part)
  23:../../Middlewares/LVGL/GUI/lvgl/src/indev/../core/lv_obj_style_gen.h **** {
  24:../../Middlewares/LVGL/GUI/lvgl/src/indev/../core/lv_obj_style_gen.h ****     lv_style_value_t v = lv_obj_get_style_prop(obj, part, LV_STYLE_WIDTH);
  25:../../Middlewares/LVGL/GUI/lvgl/src/indev/../core/lv_obj_style_gen.h ****     return (int32_t)v.num;
  26:../../Middlewares/LVGL/GUI/lvgl/src/indev/../core/lv_obj_style_gen.h **** }
  27:../../Middlewares/LVGL/GUI/lvgl/src/indev/../core/lv_obj_style_gen.h **** 
  28:../../Middlewares/LVGL/GUI/lvgl/src/indev/../core/lv_obj_style_gen.h **** static inline int32_t lv_obj_get_style_min_width(const lv_obj_t * obj, lv_part_t part)
  29:../../Middlewares/LVGL/GUI/lvgl/src/indev/../core/lv_obj_style_gen.h **** {
  30:../../Middlewares/LVGL/GUI/lvgl/src/indev/../core/lv_obj_style_gen.h ****     lv_style_value_t v = lv_obj_get_style_prop(obj, part, LV_STYLE_MIN_WIDTH);
  31:../../Middlewares/LVGL/GUI/lvgl/src/indev/../core/lv_obj_style_gen.h ****     return (int32_t)v.num;
  32:../../Middlewares/LVGL/GUI/lvgl/src/indev/../core/lv_obj_style_gen.h **** }
  33:../../Middlewares/LVGL/GUI/lvgl/src/indev/../core/lv_obj_style_gen.h **** 
  34:../../Middlewares/LVGL/GUI/lvgl/src/indev/../core/lv_obj_style_gen.h **** static inline int32_t lv_obj_get_style_max_width(const lv_obj_t * obj, lv_part_t part)
  35:../../Middlewares/LVGL/GUI/lvgl/src/indev/../core/lv_obj_style_gen.h **** {
  36:../../Middlewares/LVGL/GUI/lvgl/src/indev/../core/lv_obj_style_gen.h ****     lv_style_value_t v = lv_obj_get_style_prop(obj, part, LV_STYLE_MAX_WIDTH);
  37:../../Middlewares/LVGL/GUI/lvgl/src/indev/../core/lv_obj_style_gen.h ****     return (int32_t)v.num;
  38:../../Middlewares/LVGL/GUI/lvgl/src/indev/../core/lv_obj_style_gen.h **** }
  39:../../Middlewares/LVGL/GUI/lvgl/src/indev/../core/lv_obj_style_gen.h **** 
  40:../../Middlewares/LVGL/GUI/lvgl/src/indev/../core/lv_obj_style_gen.h **** static inline int32_t lv_obj_get_style_height(const lv_obj_t * obj, lv_part_t part)
  41:../../Middlewares/LVGL/GUI/lvgl/src/indev/../core/lv_obj_style_gen.h **** {
ARM GAS  C:\Users\28576\AppData\Local\Temp\ccZznpky.s 			page 16


  42:../../Middlewares/LVGL/GUI/lvgl/src/indev/../core/lv_obj_style_gen.h ****     lv_style_value_t v = lv_obj_get_style_prop(obj, part, LV_STYLE_HEIGHT);
  43:../../Middlewares/LVGL/GUI/lvgl/src/indev/../core/lv_obj_style_gen.h ****     return (int32_t)v.num;
  44:../../Middlewares/LVGL/GUI/lvgl/src/indev/../core/lv_obj_style_gen.h **** }
  45:../../Middlewares/LVGL/GUI/lvgl/src/indev/../core/lv_obj_style_gen.h **** 
  46:../../Middlewares/LVGL/GUI/lvgl/src/indev/../core/lv_obj_style_gen.h **** static inline int32_t lv_obj_get_style_min_height(const lv_obj_t * obj, lv_part_t part)
  47:../../Middlewares/LVGL/GUI/lvgl/src/indev/../core/lv_obj_style_gen.h **** {
  48:../../Middlewares/LVGL/GUI/lvgl/src/indev/../core/lv_obj_style_gen.h ****     lv_style_value_t v = lv_obj_get_style_prop(obj, part, LV_STYLE_MIN_HEIGHT);
  49:../../Middlewares/LVGL/GUI/lvgl/src/indev/../core/lv_obj_style_gen.h ****     return (int32_t)v.num;
  50:../../Middlewares/LVGL/GUI/lvgl/src/indev/../core/lv_obj_style_gen.h **** }
  51:../../Middlewares/LVGL/GUI/lvgl/src/indev/../core/lv_obj_style_gen.h **** 
  52:../../Middlewares/LVGL/GUI/lvgl/src/indev/../core/lv_obj_style_gen.h **** static inline int32_t lv_obj_get_style_max_height(const lv_obj_t * obj, lv_part_t part)
  53:../../Middlewares/LVGL/GUI/lvgl/src/indev/../core/lv_obj_style_gen.h **** {
  54:../../Middlewares/LVGL/GUI/lvgl/src/indev/../core/lv_obj_style_gen.h ****     lv_style_value_t v = lv_obj_get_style_prop(obj, part, LV_STYLE_MAX_HEIGHT);
  55:../../Middlewares/LVGL/GUI/lvgl/src/indev/../core/lv_obj_style_gen.h ****     return (int32_t)v.num;
  56:../../Middlewares/LVGL/GUI/lvgl/src/indev/../core/lv_obj_style_gen.h **** }
  57:../../Middlewares/LVGL/GUI/lvgl/src/indev/../core/lv_obj_style_gen.h **** 
  58:../../Middlewares/LVGL/GUI/lvgl/src/indev/../core/lv_obj_style_gen.h **** static inline int32_t lv_obj_get_style_length(const lv_obj_t * obj, lv_part_t part)
  59:../../Middlewares/LVGL/GUI/lvgl/src/indev/../core/lv_obj_style_gen.h **** {
  60:../../Middlewares/LVGL/GUI/lvgl/src/indev/../core/lv_obj_style_gen.h ****     lv_style_value_t v = lv_obj_get_style_prop(obj, part, LV_STYLE_LENGTH);
  61:../../Middlewares/LVGL/GUI/lvgl/src/indev/../core/lv_obj_style_gen.h ****     return (int32_t)v.num;
  62:../../Middlewares/LVGL/GUI/lvgl/src/indev/../core/lv_obj_style_gen.h **** }
  63:../../Middlewares/LVGL/GUI/lvgl/src/indev/../core/lv_obj_style_gen.h **** 
  64:../../Middlewares/LVGL/GUI/lvgl/src/indev/../core/lv_obj_style_gen.h **** static inline int32_t lv_obj_get_style_x(const lv_obj_t * obj, lv_part_t part)
  65:../../Middlewares/LVGL/GUI/lvgl/src/indev/../core/lv_obj_style_gen.h **** {
  66:../../Middlewares/LVGL/GUI/lvgl/src/indev/../core/lv_obj_style_gen.h ****     lv_style_value_t v = lv_obj_get_style_prop(obj, part, LV_STYLE_X);
  67:../../Middlewares/LVGL/GUI/lvgl/src/indev/../core/lv_obj_style_gen.h ****     return (int32_t)v.num;
  68:../../Middlewares/LVGL/GUI/lvgl/src/indev/../core/lv_obj_style_gen.h **** }
  69:../../Middlewares/LVGL/GUI/lvgl/src/indev/../core/lv_obj_style_gen.h **** 
  70:../../Middlewares/LVGL/GUI/lvgl/src/indev/../core/lv_obj_style_gen.h **** static inline int32_t lv_obj_get_style_y(const lv_obj_t * obj, lv_part_t part)
  71:../../Middlewares/LVGL/GUI/lvgl/src/indev/../core/lv_obj_style_gen.h **** {
  72:../../Middlewares/LVGL/GUI/lvgl/src/indev/../core/lv_obj_style_gen.h ****     lv_style_value_t v = lv_obj_get_style_prop(obj, part, LV_STYLE_Y);
  73:../../Middlewares/LVGL/GUI/lvgl/src/indev/../core/lv_obj_style_gen.h ****     return (int32_t)v.num;
  74:../../Middlewares/LVGL/GUI/lvgl/src/indev/../core/lv_obj_style_gen.h **** }
  75:../../Middlewares/LVGL/GUI/lvgl/src/indev/../core/lv_obj_style_gen.h **** 
  76:../../Middlewares/LVGL/GUI/lvgl/src/indev/../core/lv_obj_style_gen.h **** static inline lv_align_t lv_obj_get_style_align(const lv_obj_t * obj, lv_part_t part)
  77:../../Middlewares/LVGL/GUI/lvgl/src/indev/../core/lv_obj_style_gen.h **** {
  78:../../Middlewares/LVGL/GUI/lvgl/src/indev/../core/lv_obj_style_gen.h ****     lv_style_value_t v = lv_obj_get_style_prop(obj, part, LV_STYLE_ALIGN);
  79:../../Middlewares/LVGL/GUI/lvgl/src/indev/../core/lv_obj_style_gen.h ****     return (lv_align_t)v.num;
  80:../../Middlewares/LVGL/GUI/lvgl/src/indev/../core/lv_obj_style_gen.h **** }
  81:../../Middlewares/LVGL/GUI/lvgl/src/indev/../core/lv_obj_style_gen.h **** 
  82:../../Middlewares/LVGL/GUI/lvgl/src/indev/../core/lv_obj_style_gen.h **** static inline int32_t lv_obj_get_style_transform_width(const lv_obj_t * obj, lv_part_t part)
  83:../../Middlewares/LVGL/GUI/lvgl/src/indev/../core/lv_obj_style_gen.h **** {
  84:../../Middlewares/LVGL/GUI/lvgl/src/indev/../core/lv_obj_style_gen.h ****     lv_style_value_t v = lv_obj_get_style_prop(obj, part, LV_STYLE_TRANSFORM_WIDTH);
  85:../../Middlewares/LVGL/GUI/lvgl/src/indev/../core/lv_obj_style_gen.h ****     return (int32_t)v.num;
  86:../../Middlewares/LVGL/GUI/lvgl/src/indev/../core/lv_obj_style_gen.h **** }
  87:../../Middlewares/LVGL/GUI/lvgl/src/indev/../core/lv_obj_style_gen.h **** 
  88:../../Middlewares/LVGL/GUI/lvgl/src/indev/../core/lv_obj_style_gen.h **** static inline int32_t lv_obj_get_style_transform_height(const lv_obj_t * obj, lv_part_t part)
  89:../../Middlewares/LVGL/GUI/lvgl/src/indev/../core/lv_obj_style_gen.h **** {
  90:../../Middlewares/LVGL/GUI/lvgl/src/indev/../core/lv_obj_style_gen.h ****     lv_style_value_t v = lv_obj_get_style_prop(obj, part, LV_STYLE_TRANSFORM_HEIGHT);
  91:../../Middlewares/LVGL/GUI/lvgl/src/indev/../core/lv_obj_style_gen.h ****     return (int32_t)v.num;
  92:../../Middlewares/LVGL/GUI/lvgl/src/indev/../core/lv_obj_style_gen.h **** }
  93:../../Middlewares/LVGL/GUI/lvgl/src/indev/../core/lv_obj_style_gen.h **** 
  94:../../Middlewares/LVGL/GUI/lvgl/src/indev/../core/lv_obj_style_gen.h **** static inline int32_t lv_obj_get_style_translate_x(const lv_obj_t * obj, lv_part_t part)
  95:../../Middlewares/LVGL/GUI/lvgl/src/indev/../core/lv_obj_style_gen.h **** {
  96:../../Middlewares/LVGL/GUI/lvgl/src/indev/../core/lv_obj_style_gen.h ****     lv_style_value_t v = lv_obj_get_style_prop(obj, part, LV_STYLE_TRANSLATE_X);
  97:../../Middlewares/LVGL/GUI/lvgl/src/indev/../core/lv_obj_style_gen.h ****     return (int32_t)v.num;
  98:../../Middlewares/LVGL/GUI/lvgl/src/indev/../core/lv_obj_style_gen.h **** }
ARM GAS  C:\Users\28576\AppData\Local\Temp\ccZznpky.s 			page 17


  99:../../Middlewares/LVGL/GUI/lvgl/src/indev/../core/lv_obj_style_gen.h **** 
 100:../../Middlewares/LVGL/GUI/lvgl/src/indev/../core/lv_obj_style_gen.h **** static inline int32_t lv_obj_get_style_translate_y(const lv_obj_t * obj, lv_part_t part)
 101:../../Middlewares/LVGL/GUI/lvgl/src/indev/../core/lv_obj_style_gen.h **** {
 102:../../Middlewares/LVGL/GUI/lvgl/src/indev/../core/lv_obj_style_gen.h ****     lv_style_value_t v = lv_obj_get_style_prop(obj, part, LV_STYLE_TRANSLATE_Y);
 103:../../Middlewares/LVGL/GUI/lvgl/src/indev/../core/lv_obj_style_gen.h ****     return (int32_t)v.num;
 104:../../Middlewares/LVGL/GUI/lvgl/src/indev/../core/lv_obj_style_gen.h **** }
 105:../../Middlewares/LVGL/GUI/lvgl/src/indev/../core/lv_obj_style_gen.h **** 
 106:../../Middlewares/LVGL/GUI/lvgl/src/indev/../core/lv_obj_style_gen.h **** static inline int32_t lv_obj_get_style_translate_radial(const lv_obj_t * obj, lv_part_t part)
 107:../../Middlewares/LVGL/GUI/lvgl/src/indev/../core/lv_obj_style_gen.h **** {
 108:../../Middlewares/LVGL/GUI/lvgl/src/indev/../core/lv_obj_style_gen.h ****     lv_style_value_t v = lv_obj_get_style_prop(obj, part, LV_STYLE_TRANSLATE_RADIAL);
 109:../../Middlewares/LVGL/GUI/lvgl/src/indev/../core/lv_obj_style_gen.h ****     return (int32_t)v.num;
 110:../../Middlewares/LVGL/GUI/lvgl/src/indev/../core/lv_obj_style_gen.h **** }
 111:../../Middlewares/LVGL/GUI/lvgl/src/indev/../core/lv_obj_style_gen.h **** 
 112:../../Middlewares/LVGL/GUI/lvgl/src/indev/../core/lv_obj_style_gen.h **** static inline int32_t lv_obj_get_style_transform_scale_x(const lv_obj_t * obj, lv_part_t part)
 113:../../Middlewares/LVGL/GUI/lvgl/src/indev/../core/lv_obj_style_gen.h **** {
 114:../../Middlewares/LVGL/GUI/lvgl/src/indev/../core/lv_obj_style_gen.h ****     lv_style_value_t v = lv_obj_get_style_prop(obj, part, LV_STYLE_TRANSFORM_SCALE_X);
 115:../../Middlewares/LVGL/GUI/lvgl/src/indev/../core/lv_obj_style_gen.h ****     return (int32_t)v.num;
 116:../../Middlewares/LVGL/GUI/lvgl/src/indev/../core/lv_obj_style_gen.h **** }
 117:../../Middlewares/LVGL/GUI/lvgl/src/indev/../core/lv_obj_style_gen.h **** 
 118:../../Middlewares/LVGL/GUI/lvgl/src/indev/../core/lv_obj_style_gen.h **** static inline int32_t lv_obj_get_style_transform_scale_y(const lv_obj_t * obj, lv_part_t part)
 119:../../Middlewares/LVGL/GUI/lvgl/src/indev/../core/lv_obj_style_gen.h **** {
 120:../../Middlewares/LVGL/GUI/lvgl/src/indev/../core/lv_obj_style_gen.h ****     lv_style_value_t v = lv_obj_get_style_prop(obj, part, LV_STYLE_TRANSFORM_SCALE_Y);
 121:../../Middlewares/LVGL/GUI/lvgl/src/indev/../core/lv_obj_style_gen.h ****     return (int32_t)v.num;
 122:../../Middlewares/LVGL/GUI/lvgl/src/indev/../core/lv_obj_style_gen.h **** }
 123:../../Middlewares/LVGL/GUI/lvgl/src/indev/../core/lv_obj_style_gen.h **** 
 124:../../Middlewares/LVGL/GUI/lvgl/src/indev/../core/lv_obj_style_gen.h **** static inline int32_t lv_obj_get_style_transform_rotation(const lv_obj_t * obj, lv_part_t part)
 125:../../Middlewares/LVGL/GUI/lvgl/src/indev/../core/lv_obj_style_gen.h **** {
 126:../../Middlewares/LVGL/GUI/lvgl/src/indev/../core/lv_obj_style_gen.h ****     lv_style_value_t v = lv_obj_get_style_prop(obj, part, LV_STYLE_TRANSFORM_ROTATION);
 127:../../Middlewares/LVGL/GUI/lvgl/src/indev/../core/lv_obj_style_gen.h ****     return (int32_t)v.num;
 128:../../Middlewares/LVGL/GUI/lvgl/src/indev/../core/lv_obj_style_gen.h **** }
 129:../../Middlewares/LVGL/GUI/lvgl/src/indev/../core/lv_obj_style_gen.h **** 
 130:../../Middlewares/LVGL/GUI/lvgl/src/indev/../core/lv_obj_style_gen.h **** static inline int32_t lv_obj_get_style_transform_pivot_x(const lv_obj_t * obj, lv_part_t part)
 131:../../Middlewares/LVGL/GUI/lvgl/src/indev/../core/lv_obj_style_gen.h **** {
 132:../../Middlewares/LVGL/GUI/lvgl/src/indev/../core/lv_obj_style_gen.h ****     lv_style_value_t v = lv_obj_get_style_prop(obj, part, LV_STYLE_TRANSFORM_PIVOT_X);
 133:../../Middlewares/LVGL/GUI/lvgl/src/indev/../core/lv_obj_style_gen.h ****     return (int32_t)v.num;
 134:../../Middlewares/LVGL/GUI/lvgl/src/indev/../core/lv_obj_style_gen.h **** }
 135:../../Middlewares/LVGL/GUI/lvgl/src/indev/../core/lv_obj_style_gen.h **** 
 136:../../Middlewares/LVGL/GUI/lvgl/src/indev/../core/lv_obj_style_gen.h **** static inline int32_t lv_obj_get_style_transform_pivot_y(const lv_obj_t * obj, lv_part_t part)
 137:../../Middlewares/LVGL/GUI/lvgl/src/indev/../core/lv_obj_style_gen.h **** {
 138:../../Middlewares/LVGL/GUI/lvgl/src/indev/../core/lv_obj_style_gen.h ****     lv_style_value_t v = lv_obj_get_style_prop(obj, part, LV_STYLE_TRANSFORM_PIVOT_Y);
 139:../../Middlewares/LVGL/GUI/lvgl/src/indev/../core/lv_obj_style_gen.h ****     return (int32_t)v.num;
 140:../../Middlewares/LVGL/GUI/lvgl/src/indev/../core/lv_obj_style_gen.h **** }
 141:../../Middlewares/LVGL/GUI/lvgl/src/indev/../core/lv_obj_style_gen.h **** 
 142:../../Middlewares/LVGL/GUI/lvgl/src/indev/../core/lv_obj_style_gen.h **** static inline int32_t lv_obj_get_style_transform_skew_x(const lv_obj_t * obj, lv_part_t part)
 143:../../Middlewares/LVGL/GUI/lvgl/src/indev/../core/lv_obj_style_gen.h **** {
 144:../../Middlewares/LVGL/GUI/lvgl/src/indev/../core/lv_obj_style_gen.h ****     lv_style_value_t v = lv_obj_get_style_prop(obj, part, LV_STYLE_TRANSFORM_SKEW_X);
 145:../../Middlewares/LVGL/GUI/lvgl/src/indev/../core/lv_obj_style_gen.h ****     return (int32_t)v.num;
 146:../../Middlewares/LVGL/GUI/lvgl/src/indev/../core/lv_obj_style_gen.h **** }
 147:../../Middlewares/LVGL/GUI/lvgl/src/indev/../core/lv_obj_style_gen.h **** 
 148:../../Middlewares/LVGL/GUI/lvgl/src/indev/../core/lv_obj_style_gen.h **** static inline int32_t lv_obj_get_style_transform_skew_y(const lv_obj_t * obj, lv_part_t part)
 149:../../Middlewares/LVGL/GUI/lvgl/src/indev/../core/lv_obj_style_gen.h **** {
 150:../../Middlewares/LVGL/GUI/lvgl/src/indev/../core/lv_obj_style_gen.h ****     lv_style_value_t v = lv_obj_get_style_prop(obj, part, LV_STYLE_TRANSFORM_SKEW_Y);
 151:../../Middlewares/LVGL/GUI/lvgl/src/indev/../core/lv_obj_style_gen.h ****     return (int32_t)v.num;
 152:../../Middlewares/LVGL/GUI/lvgl/src/indev/../core/lv_obj_style_gen.h **** }
 153:../../Middlewares/LVGL/GUI/lvgl/src/indev/../core/lv_obj_style_gen.h **** 
 154:../../Middlewares/LVGL/GUI/lvgl/src/indev/../core/lv_obj_style_gen.h **** static inline int32_t lv_obj_get_style_pad_top(const lv_obj_t * obj, lv_part_t part)
 171              		.loc 2 154 23 view .LVU51
ARM GAS  C:\Users\28576\AppData\Local\Temp\ccZznpky.s 			page 18


 172              	.LBB69:
 155:../../Middlewares/LVGL/GUI/lvgl/src/indev/../core/lv_obj_style_gen.h **** {
 156:../../Middlewares/LVGL/GUI/lvgl/src/indev/../core/lv_obj_style_gen.h ****     lv_style_value_t v = lv_obj_get_style_prop(obj, part, LV_STYLE_PAD_TOP);
 173              		.loc 2 156 5 view .LVU52
 174              		.loc 2 156 26 is_stmt 0 view .LVU53
 175 001a 1022     		movs	r2, #16
 176 001c 0021     		movs	r1, #0
 177 001e 3046     		mov	r0, r6
 178              	.LVL6:
 179              		.loc 2 156 26 view .LVU54
 180 0020 FFF7FEFF 		bl	lv_obj_get_style_prop
 181              	.LVL7:
 182 0024 0190     		str	r0, [sp, #4]
 183 0026 0590     		str	r0, [sp, #20]
 157:../../Middlewares/LVGL/GUI/lvgl/src/indev/../core/lv_obj_style_gen.h ****     return (int32_t)v.num;
 184              		.loc 2 157 5 is_stmt 1 view .LVU55
 185              	.LVL8:
 186              		.loc 2 157 5 is_stmt 0 view .LVU56
 187              	.LBE69:
 188              	.LBE68:
 580:../../Middlewares/LVGL/GUI/lvgl/src/indev/lv_indev_scroll.c **** 
 189              		.loc 1 580 5 is_stmt 1 view .LVU57
 190              	.LBB70:
 191              	.LBI70:
 158:../../Middlewares/LVGL/GUI/lvgl/src/indev/../core/lv_obj_style_gen.h **** }
 159:../../Middlewares/LVGL/GUI/lvgl/src/indev/../core/lv_obj_style_gen.h **** 
 160:../../Middlewares/LVGL/GUI/lvgl/src/indev/../core/lv_obj_style_gen.h **** static inline int32_t lv_obj_get_style_pad_bottom(const lv_obj_t * obj, lv_part_t part)
 192              		.loc 2 160 23 view .LVU58
 193              	.LBB71:
 161:../../Middlewares/LVGL/GUI/lvgl/src/indev/../core/lv_obj_style_gen.h **** {
 162:../../Middlewares/LVGL/GUI/lvgl/src/indev/../core/lv_obj_style_gen.h ****     lv_style_value_t v = lv_obj_get_style_prop(obj, part, LV_STYLE_PAD_BOTTOM);
 194              		.loc 2 162 5 view .LVU59
 195              		.loc 2 162 26 is_stmt 0 view .LVU60
 196 0028 1122     		movs	r2, #17
 197 002a 0021     		movs	r1, #0
 198 002c 3046     		mov	r0, r6
 199              	.LVL9:
 200              		.loc 2 162 26 view .LVU61
 201 002e FFF7FEFF 		bl	lv_obj_get_style_prop
 202              	.LVL10:
 203 0032 0290     		str	r0, [sp, #8]
 204 0034 0590     		str	r0, [sp, #20]
 163:../../Middlewares/LVGL/GUI/lvgl/src/indev/../core/lv_obj_style_gen.h ****     return (int32_t)v.num;
 205              		.loc 2 163 5 is_stmt 1 view .LVU62
 206              	.LVL11:
 207              		.loc 2 163 5 is_stmt 0 view .LVU63
 208              	.LBE71:
 209              	.LBE70:
 582:../../Middlewares/LVGL/GUI/lvgl/src/indev/lv_indev_scroll.c ****     uint32_t child_cnt = lv_obj_get_child_count(obj);
 210              		.loc 1 582 5 is_stmt 1 view .LVU64
 583:../../Middlewares/LVGL/GUI/lvgl/src/indev/lv_indev_scroll.c ****     for(i = 0; i < child_cnt; i++) {
 211              		.loc 1 583 5 view .LVU65
 583:../../Middlewares/LVGL/GUI/lvgl/src/indev/lv_indev_scroll.c ****     for(i = 0; i < child_cnt; i++) {
 212              		.loc 1 583 26 is_stmt 0 view .LVU66
 213 0036 3046     		mov	r0, r6
 214              	.LVL12:
 583:../../Middlewares/LVGL/GUI/lvgl/src/indev/lv_indev_scroll.c ****     for(i = 0; i < child_cnt; i++) {
ARM GAS  C:\Users\28576\AppData\Local\Temp\ccZznpky.s 			page 19


 215              		.loc 1 583 26 view .LVU67
 216 0038 FFF7FEFF 		bl	lv_obj_get_child_count
 217              	.LVL13:
 583:../../Middlewares/LVGL/GUI/lvgl/src/indev/lv_indev_scroll.c ****     for(i = 0; i < child_cnt; i++) {
 218              		.loc 1 583 26 view .LVU68
 219 003c 0746     		mov	r7, r0
 220              	.LVL14:
 584:../../Middlewares/LVGL/GUI/lvgl/src/indev/lv_indev_scroll.c ****         lv_obj_t * child = obj->spec_attr->children[i];
 221              		.loc 1 584 5 is_stmt 1 view .LVU69
 584:../../Middlewares/LVGL/GUI/lvgl/src/indev/lv_indev_scroll.c ****         lv_obj_t * child = obj->spec_attr->children[i];
 222              		.loc 1 584 11 is_stmt 0 view .LVU70
 223 003e 0024     		movs	r4, #0
 577:../../Middlewares/LVGL/GUI/lvgl/src/indev/lv_indev_scroll.c **** 
 224              		.loc 1 577 13 view .LVU71
 225 0040 6FF06042 		mvn	r2, #-536870912
 226 0044 9146     		mov	r9, r2
 584:../../Middlewares/LVGL/GUI/lvgl/src/indev/lv_indev_scroll.c ****         lv_obj_t * child = obj->spec_attr->children[i];
 227              		.loc 1 584 5 view .LVU72
 228 0046 25E0     		b	.L9
 229              	.LVL15:
 230              	.L11:
 231              	.LBB72:
 232              	.LBB73:
 596:../../Middlewares/LVGL/GUI/lvgl/src/indev/lv_indev_scroll.c ****                     y_parent = obj->coords.y2 - pad_bottom;
 233              		.loc 1 596 21 is_stmt 1 view .LVU73
 596:../../Middlewares/LVGL/GUI/lvgl/src/indev/lv_indev_scroll.c ****                     y_parent = obj->coords.y2 - pad_bottom;
 234              		.loc 1 596 29 is_stmt 0 view .LVU74
 235 0048 2D6A     		ldr	r5, [r5, #32]
 236              	.LVL16:
 597:../../Middlewares/LVGL/GUI/lvgl/src/indev/lv_indev_scroll.c ****                     break;
 237              		.loc 1 597 21 is_stmt 1 view .LVU75
 597:../../Middlewares/LVGL/GUI/lvgl/src/indev/lv_indev_scroll.c ****                     break;
 238              		.loc 1 597 43 is_stmt 0 view .LVU76
 239 004a 336A     		ldr	r3, [r6, #32]
 597:../../Middlewares/LVGL/GUI/lvgl/src/indev/lv_indev_scroll.c ****                     break;
 240              		.loc 1 597 30 view .LVU77
 241 004c 029A     		ldr	r2, [sp, #8]
 242 004e 9B1A     		subs	r3, r3, r2
 243              	.LVL17:
 598:../../Middlewares/LVGL/GUI/lvgl/src/indev/lv_indev_scroll.c ****                 case LV_SCROLL_SNAP_CENTER:
 244              		.loc 1 598 21 is_stmt 1 view .LVU78
 245 0050 40E0     		b	.L13
 246              	.LVL18:
 247              	.L12:
 600:../../Middlewares/LVGL/GUI/lvgl/src/indev/lv_indev_scroll.c ****                     y_parent = obj->coords.y1 + pad_top + (lv_area_get_height(&obj->coords) - pad_t
 248              		.loc 1 600 21 view .LVU79
 600:../../Middlewares/LVGL/GUI/lvgl/src/indev/lv_indev_scroll.c ****                     y_parent = obj->coords.y1 + pad_top + (lv_area_get_height(&obj->coords) - pad_t
 249              		.loc 1 600 44 is_stmt 0 view .LVU80
 250 0052 AB69     		ldr	r3, [r5, #24]
 251 0054 0393     		str	r3, [sp, #12]
 600:../../Middlewares/LVGL/GUI/lvgl/src/indev/lv_indev_scroll.c ****                     y_parent = obj->coords.y1 + pad_top + (lv_area_get_height(&obj->coords) - pad_t
 252              		.loc 1 600 50 view .LVU81
 253 0056 05F11400 		add	r0, r5, #20
 254 005a FFF7FEFF 		bl	lv_area_get_height
 255              	.LVL19:
 600:../../Middlewares/LVGL/GUI/lvgl/src/indev/lv_indev_scroll.c ****                     y_parent = obj->coords.y1 + pad_top + (lv_area_get_height(&obj->coords) - pad_t
 256              		.loc 1 600 85 discriminator 1 view .LVU82
ARM GAS  C:\Users\28576\AppData\Local\Temp\ccZznpky.s 			page 20


 257 005e 0028     		cmp	r0, #0
 258 0060 13DB     		blt	.L20
 259              	.L14:
 600:../../Middlewares/LVGL/GUI/lvgl/src/indev/lv_indev_scroll.c ****                     y_parent = obj->coords.y1 + pad_top + (lv_area_get_height(&obj->coords) - pad_t
 260              		.loc 1 600 29 discriminator 1 view .LVU83
 261 0062 039B     		ldr	r3, [sp, #12]
 262 0064 03EB6005 		add	r5, r3, r0, asr #1
 263              	.LVL20:
 601:../../Middlewares/LVGL/GUI/lvgl/src/indev/lv_indev_scroll.c ****                     break;
 264              		.loc 1 601 21 is_stmt 1 view .LVU84
 601:../../Middlewares/LVGL/GUI/lvgl/src/indev/lv_indev_scroll.c ****                     break;
 265              		.loc 1 601 43 is_stmt 0 view .LVU85
 266 0068 B369     		ldr	r3, [r6, #24]
 601:../../Middlewares/LVGL/GUI/lvgl/src/indev/lv_indev_scroll.c ****                     break;
 267              		.loc 1 601 47 view .LVU86
 268 006a 019A     		ldr	r2, [sp, #4]
 269 006c 1344     		add	r3, r3, r2
 270 006e 0393     		str	r3, [sp, #12]
 601:../../Middlewares/LVGL/GUI/lvgl/src/indev/lv_indev_scroll.c ****                     break;
 271              		.loc 1 601 60 view .LVU87
 272 0070 06F11400 		add	r0, r6, #20
 273 0074 FFF7FEFF 		bl	lv_area_get_height
 274              	.LVL21:
 601:../../Middlewares/LVGL/GUI/lvgl/src/indev/lv_indev_scroll.c ****                     break;
 275              		.loc 1 601 93 discriminator 1 view .LVU88
 276 0078 019A     		ldr	r2, [sp, #4]
 277 007a 801A     		subs	r0, r0, r2
 601:../../Middlewares/LVGL/GUI/lvgl/src/indev/lv_indev_scroll.c ****                     break;
 278              		.loc 1 601 117 discriminator 1 view .LVU89
 279 007c 029B     		ldr	r3, [sp, #8]
 280 007e C01A     		subs	r0, r0, r3
 281 0080 05D4     		bmi	.L21
 282              	.L15:
 601:../../Middlewares/LVGL/GUI/lvgl/src/indev/lv_indev_scroll.c ****                     break;
 283              		.loc 1 601 30 discriminator 1 view .LVU90
 284 0082 039B     		ldr	r3, [sp, #12]
 285 0084 03EB6003 		add	r3, r3, r0, asr #1
 286              	.LVL22:
 602:../../Middlewares/LVGL/GUI/lvgl/src/indev/lv_indev_scroll.c ****                 default:
 287              		.loc 1 602 21 is_stmt 1 view .LVU91
 288 0088 24E0     		b	.L13
 289              	.LVL23:
 290              	.L20:
 600:../../Middlewares/LVGL/GUI/lvgl/src/indev/lv_indev_scroll.c ****                     y_parent = obj->coords.y1 + pad_top + (lv_area_get_height(&obj->coords) - pad_t
 291              		.loc 1 600 85 is_stmt 0 discriminator 1 view .LVU92
 292 008a 0130     		adds	r0, r0, #1
 293 008c E9E7     		b	.L14
 294              	.LVL24:
 295              	.L21:
 601:../../Middlewares/LVGL/GUI/lvgl/src/indev/lv_indev_scroll.c ****                     break;
 296              		.loc 1 601 117 discriminator 1 view .LVU93
 297 008e 0130     		adds	r0, r0, #1
 298 0090 F7E7     		b	.L15
 299              	.LVL25:
 300              	.L10:
 601:../../Middlewares/LVGL/GUI/lvgl/src/indev/lv_indev_scroll.c ****                     break;
 301              		.loc 1 601 117 discriminator 1 view .LVU94
ARM GAS  C:\Users\28576\AppData\Local\Temp\ccZznpky.s 			page 21


 302              	.LBE73:
 303              	.LBE72:
 584:../../Middlewares/LVGL/GUI/lvgl/src/indev/lv_indev_scroll.c ****         lv_obj_t * child = obj->spec_attr->children[i];
 304              		.loc 1 584 32 is_stmt 1 discriminator 2 view .LVU95
 305 0092 0134     		adds	r4, r4, #1
 306              	.LVL26:
 307              	.L9:
 584:../../Middlewares/LVGL/GUI/lvgl/src/indev/lv_indev_scroll.c ****         lv_obj_t * child = obj->spec_attr->children[i];
 308              		.loc 1 584 18 discriminator 1 view .LVU96
 309 0094 BC42     		cmp	r4, r7
 310 0096 36D2     		bcs	.L22
 311              	.LBB76:
 585:../../Middlewares/LVGL/GUI/lvgl/src/indev/lv_indev_scroll.c ****         if(lv_obj_has_flag_any(child, LV_OBJ_FLAG_HIDDEN | LV_OBJ_FLAG_FLOATING)) continue;
 312              		.loc 1 585 9 view .LVU97
 585:../../Middlewares/LVGL/GUI/lvgl/src/indev/lv_indev_scroll.c ****         if(lv_obj_has_flag_any(child, LV_OBJ_FLAG_HIDDEN | LV_OBJ_FLAG_FLOATING)) continue;
 313              		.loc 1 585 31 is_stmt 0 view .LVU98
 314 0098 B368     		ldr	r3, [r6, #8]
 585:../../Middlewares/LVGL/GUI/lvgl/src/indev/lv_indev_scroll.c ****         if(lv_obj_has_flag_any(child, LV_OBJ_FLAG_HIDDEN | LV_OBJ_FLAG_FLOATING)) continue;
 315              		.loc 1 585 42 view .LVU99
 316 009a 1B68     		ldr	r3, [r3]
 585:../../Middlewares/LVGL/GUI/lvgl/src/indev/lv_indev_scroll.c ****         if(lv_obj_has_flag_any(child, LV_OBJ_FLAG_HIDDEN | LV_OBJ_FLAG_FLOATING)) continue;
 317              		.loc 1 585 20 view .LVU100
 318 009c 53F82450 		ldr	r5, [r3, r4, lsl #2]
 319              	.LVL27:
 586:../../Middlewares/LVGL/GUI/lvgl/src/indev/lv_indev_scroll.c ****         if(lv_obj_has_flag(child, LV_OBJ_FLAG_SNAPPABLE)) {
 320              		.loc 1 586 9 is_stmt 1 view .LVU101
 586:../../Middlewares/LVGL/GUI/lvgl/src/indev/lv_indev_scroll.c ****         if(lv_obj_has_flag(child, LV_OBJ_FLAG_SNAPPABLE)) {
 321              		.loc 1 586 12 is_stmt 0 view .LVU102
 322 00a0 1F49     		ldr	r1, .L23
 323 00a2 2846     		mov	r0, r5
 324 00a4 FFF7FEFF 		bl	lv_obj_has_flag_any
 325              	.LVL28:
 586:../../Middlewares/LVGL/GUI/lvgl/src/indev/lv_indev_scroll.c ****         if(lv_obj_has_flag(child, LV_OBJ_FLAG_SNAPPABLE)) {
 326              		.loc 1 586 11 discriminator 1 view .LVU103
 327 00a8 0028     		cmp	r0, #0
 328 00aa F2D1     		bne	.L10
 587:../../Middlewares/LVGL/GUI/lvgl/src/indev/lv_indev_scroll.c ****             int32_t y_child = 0;
 329              		.loc 1 587 9 is_stmt 1 view .LVU104
 587:../../Middlewares/LVGL/GUI/lvgl/src/indev/lv_indev_scroll.c ****             int32_t y_child = 0;
 330              		.loc 1 587 12 is_stmt 0 view .LVU105
 331 00ac 4FF48051 		mov	r1, #4096
 332 00b0 2846     		mov	r0, r5
 333 00b2 FFF7FEFF 		bl	lv_obj_has_flag
 334              	.LVL29:
 587:../../Middlewares/LVGL/GUI/lvgl/src/indev/lv_indev_scroll.c ****             int32_t y_child = 0;
 335              		.loc 1 587 11 discriminator 1 view .LVU106
 336 00b6 0028     		cmp	r0, #0
 337 00b8 EBD0     		beq	.L10
 338              	.LBB75:
 588:../../Middlewares/LVGL/GUI/lvgl/src/indev/lv_indev_scroll.c ****             int32_t y_parent = 0;
 339              		.loc 1 588 13 is_stmt 1 view .LVU107
 340              	.LVL30:
 589:../../Middlewares/LVGL/GUI/lvgl/src/indev/lv_indev_scroll.c ****             switch(align) {
 341              		.loc 1 589 13 view .LVU108
 590:../../Middlewares/LVGL/GUI/lvgl/src/indev/lv_indev_scroll.c ****                 case LV_SCROLL_SNAP_START:
 342              		.loc 1 590 13 view .LVU109
 343 00ba B8F1020F 		cmp	r8, #2
ARM GAS  C:\Users\28576\AppData\Local\Temp\ccZznpky.s 			page 22


 344 00be C3D0     		beq	.L11
 345 00c0 B8F1030F 		cmp	r8, #3
 346 00c4 C5D0     		beq	.L12
 347 00c6 B8F1010F 		cmp	r8, #1
 348 00ca E2D1     		bne	.L10
 592:../../Middlewares/LVGL/GUI/lvgl/src/indev/lv_indev_scroll.c ****                     y_parent = obj->coords.y1 + pad_top;
 349              		.loc 1 592 21 view .LVU110
 592:../../Middlewares/LVGL/GUI/lvgl/src/indev/lv_indev_scroll.c ****                     y_parent = obj->coords.y1 + pad_top;
 350              		.loc 1 592 29 is_stmt 0 view .LVU111
 351 00cc AD69     		ldr	r5, [r5, #24]
 352              	.LVL31:
 593:../../Middlewares/LVGL/GUI/lvgl/src/indev/lv_indev_scroll.c ****                     break;
 353              		.loc 1 593 21 is_stmt 1 view .LVU112
 593:../../Middlewares/LVGL/GUI/lvgl/src/indev/lv_indev_scroll.c ****                     break;
 354              		.loc 1 593 43 is_stmt 0 view .LVU113
 355 00ce B369     		ldr	r3, [r6, #24]
 593:../../Middlewares/LVGL/GUI/lvgl/src/indev/lv_indev_scroll.c ****                     break;
 356              		.loc 1 593 30 view .LVU114
 357 00d0 019A     		ldr	r2, [sp, #4]
 358 00d2 1344     		add	r3, r3, r2
 359              	.LVL32:
 594:../../Middlewares/LVGL/GUI/lvgl/src/indev/lv_indev_scroll.c ****                 case LV_SCROLL_SNAP_END:
 360              		.loc 1 594 21 is_stmt 1 view .LVU115
 361              	.L13:
 607:../../Middlewares/LVGL/GUI/lvgl/src/indev/lv_indev_scroll.c ****             if(y_child >= min && y_child <= max) {
 362              		.loc 1 607 13 view .LVU116
 607:../../Middlewares/LVGL/GUI/lvgl/src/indev/lv_indev_scroll.c ****             if(y_child >= min && y_child <= max) {
 363              		.loc 1 607 21 is_stmt 0 view .LVU117
 364 00d4 009A     		ldr	r2, [sp]
 365 00d6 1544     		add	r5, r5, r2
 366              	.LVL33:
 608:../../Middlewares/LVGL/GUI/lvgl/src/indev/lv_indev_scroll.c ****                 int32_t y = y_child -  y_parent;
 367              		.loc 1 608 13 is_stmt 1 view .LVU118
 608:../../Middlewares/LVGL/GUI/lvgl/src/indev/lv_indev_scroll.c ****                 int32_t y = y_child -  y_parent;
 368              		.loc 1 608 31 is_stmt 0 view .LVU119
 369 00d8 5246     		mov	r2, r10
 370 00da 5545     		cmp	r5, r10
 371 00dc B4BF     		ite	lt
 372 00de 0022     		movlt	r2, #0
 373 00e0 0122     		movge	r2, #1
 374 00e2 5D45     		cmp	r5, fp
 375 00e4 C8BF     		it	gt
 376 00e6 0022     		movgt	r2, #0
 608:../../Middlewares/LVGL/GUI/lvgl/src/indev/lv_indev_scroll.c ****                 int32_t y = y_child -  y_parent;
 377              		.loc 1 608 15 view .LVU120
 378 00e8 002A     		cmp	r2, #0
 379 00ea D2D0     		beq	.L10
 380              	.LBB74:
 609:../../Middlewares/LVGL/GUI/lvgl/src/indev/lv_indev_scroll.c ****                 if(LV_ABS(y) < LV_ABS(dist)) dist = y;
 381              		.loc 1 609 17 is_stmt 1 view .LVU121
 609:../../Middlewares/LVGL/GUI/lvgl/src/indev/lv_indev_scroll.c ****                 if(LV_ABS(y) < LV_ABS(dist)) dist = y;
 382              		.loc 1 609 25 is_stmt 0 view .LVU122
 383 00ec ED1A     		subs	r5, r5, r3
 384              	.LVL34:
 610:../../Middlewares/LVGL/GUI/lvgl/src/indev/lv_indev_scroll.c ****             }
 385              		.loc 1 610 17 is_stmt 1 view .LVU123
 610:../../Middlewares/LVGL/GUI/lvgl/src/indev/lv_indev_scroll.c ****             }
ARM GAS  C:\Users\28576\AppData\Local\Temp\ccZznpky.s 			page 23


 386              		.loc 1 610 20 is_stmt 0 view .LVU124
 387 00ee 85EAE572 		eor	r2, r5, r5, asr #31
 388 00f2 A2EBE572 		sub	r2, r2, r5, asr #31
 610:../../Middlewares/LVGL/GUI/lvgl/src/indev/lv_indev_scroll.c ****             }
 389              		.loc 1 610 32 view .LVU125
 390 00f6 89EAE973 		eor	r3, r9, r9, asr #31
 391              	.LVL35:
 610:../../Middlewares/LVGL/GUI/lvgl/src/indev/lv_indev_scroll.c ****             }
 392              		.loc 1 610 32 view .LVU126
 393 00fa A3EBE973 		sub	r3, r3, r9, asr #31
 610:../../Middlewares/LVGL/GUI/lvgl/src/indev/lv_indev_scroll.c ****             }
 394              		.loc 1 610 19 view .LVU127
 395 00fe 9A42     		cmp	r2, r3
 396 0100 C7DA     		bge	.L10
 610:../../Middlewares/LVGL/GUI/lvgl/src/indev/lv_indev_scroll.c ****             }
 397              		.loc 1 610 51 discriminator 1 view .LVU128
 398 0102 A946     		mov	r9, r5
 399              	.LVL36:
 610:../../Middlewares/LVGL/GUI/lvgl/src/indev/lv_indev_scroll.c ****             }
 400              		.loc 1 610 51 discriminator 1 view .LVU129
 401 0104 C5E7     		b	.L10
 402              	.LVL37:
 403              	.L22:
 610:../../Middlewares/LVGL/GUI/lvgl/src/indev/lv_indev_scroll.c ****             }
 404              		.loc 1 610 51 discriminator 1 view .LVU130
 405              	.LBE74:
 406              	.LBE75:
 407              	.LBE76:
 615:../../Middlewares/LVGL/GUI/lvgl/src/indev/lv_indev_scroll.c **** }
 408              		.loc 1 615 48 view .LVU131
 409 0106 4A46     		mov	r2, r9
 615:../../Middlewares/LVGL/GUI/lvgl/src/indev/lv_indev_scroll.c **** }
 410              		.loc 1 615 5 is_stmt 1 view .LVU132
 615:../../Middlewares/LVGL/GUI/lvgl/src/indev/lv_indev_scroll.c **** }
 411              		.loc 1 615 48 is_stmt 0 view .LVU133
 412 0108 6FF06043 		mvn	r3, #-536870912
 413 010c 9945     		cmp	r9, r3
 414 010e 00D0     		beq	.L7
 415              	.LVL38:
 615:../../Middlewares/LVGL/GUI/lvgl/src/indev/lv_indev_scroll.c **** }
 416              		.loc 1 615 48 discriminator 1 view .LVU134
 417 0110 5242     		rsbs	r2, r2, #0
 418              	.LVL39:
 419              	.L7:
 616:../../Middlewares/LVGL/GUI/lvgl/src/indev/lv_indev_scroll.c **** 
 420              		.loc 1 616 1 view .LVU135
 421 0112 1046     		mov	r0, r2
 422 0114 07B0     		add	sp, sp, #28
 423              	.LCFI3:
 424              		.cfi_remember_state
 425              		.cfi_def_cfa_offset 36
 426              	.LVL40:
 616:../../Middlewares/LVGL/GUI/lvgl/src/indev/lv_indev_scroll.c **** 
 427              		.loc 1 616 1 view .LVU136
 428              		@ sp needed
 429 0116 BDE8F08F 		pop	{r4, r5, r6, r7, r8, r9, r10, fp, pc}
 430              	.LVL41:
ARM GAS  C:\Users\28576\AppData\Local\Temp\ccZznpky.s 			page 24


 431              	.L17:
 432              	.LCFI4:
 433              		.cfi_restore_state
 575:../../Middlewares/LVGL/GUI/lvgl/src/indev/lv_indev_scroll.c **** 
 434              		.loc 1 575 45 discriminator 1 view .LVU137
 435 011a 6FF06042 		mvn	r2, #-536870912
 436 011e F8E7     		b	.L7
 437              	.L24:
 438              		.align	2
 439              	.L23:
 440 0120 01000400 		.word	262145
 441              		.cfi_endproc
 442              	.LFE179:
 444              		.section	.text.find_snap_point_x,"ax",%progbits
 445              		.align	1
 446              		.syntax unified
 447              		.thumb
 448              		.thumb_func
 450              	find_snap_point_x:
 451              	.LVL42:
 452              	.LFB178:
 517:../../Middlewares/LVGL/GUI/lvgl/src/indev/lv_indev_scroll.c ****     lv_scroll_snap_t align = lv_obj_get_scroll_snap_x(obj);
 453              		.loc 1 517 1 is_stmt 1 view -0
 454              		.cfi_startproc
 455              		@ args = 0, pretend = 0, frame = 24
 456              		@ frame_needed = 0, uses_anonymous_args = 0
 517:../../Middlewares/LVGL/GUI/lvgl/src/indev/lv_indev_scroll.c ****     lv_scroll_snap_t align = lv_obj_get_scroll_snap_x(obj);
 457              		.loc 1 517 1 is_stmt 0 view .LVU139
 458 0000 2DE9F04F 		push	{r4, r5, r6, r7, r8, r9, r10, fp, lr}
 459              	.LCFI5:
 460              		.cfi_def_cfa_offset 36
 461              		.cfi_offset 4, -36
 462              		.cfi_offset 5, -32
 463              		.cfi_offset 6, -28
 464              		.cfi_offset 7, -24
 465              		.cfi_offset 8, -20
 466              		.cfi_offset 9, -16
 467              		.cfi_offset 10, -12
 468              		.cfi_offset 11, -8
 469              		.cfi_offset 14, -4
 470 0004 87B0     		sub	sp, sp, #28
 471              	.LCFI6:
 472              		.cfi_def_cfa_offset 64
 473 0006 0546     		mov	r5, r0
 474 0008 8B46     		mov	fp, r1
 475 000a 0092     		str	r2, [sp]
 476 000c 0193     		str	r3, [sp, #4]
 518:../../Middlewares/LVGL/GUI/lvgl/src/indev/lv_indev_scroll.c ****     if(align == LV_SCROLL_SNAP_NONE) return LV_COORD_MAX;
 477              		.loc 1 518 5 is_stmt 1 view .LVU140
 518:../../Middlewares/LVGL/GUI/lvgl/src/indev/lv_indev_scroll.c ****     if(align == LV_SCROLL_SNAP_NONE) return LV_COORD_MAX;
 478              		.loc 1 518 30 is_stmt 0 view .LVU141
 479 000e FFF7FEFF 		bl	lv_obj_get_scroll_snap_x
 480              	.LVL43:
 519:../../Middlewares/LVGL/GUI/lvgl/src/indev/lv_indev_scroll.c **** 
 481              		.loc 1 519 5 is_stmt 1 view .LVU142
 519:../../Middlewares/LVGL/GUI/lvgl/src/indev/lv_indev_scroll.c **** 
 482              		.loc 1 519 7 is_stmt 0 view .LVU143
ARM GAS  C:\Users\28576\AppData\Local\Temp\ccZznpky.s 			page 25


 483 0012 0028     		cmp	r0, #0
 484 0014 00F08380 		beq	.L35
 485 0018 8046     		mov	r8, r0
 521:../../Middlewares/LVGL/GUI/lvgl/src/indev/lv_indev_scroll.c **** 
 486              		.loc 1 521 5 is_stmt 1 view .LVU144
 487              	.LVL44:
 523:../../Middlewares/LVGL/GUI/lvgl/src/indev/lv_indev_scroll.c ****     int32_t pad_right = lv_obj_get_style_pad_right(obj, LV_PART_MAIN);
 488              		.loc 1 523 5 view .LVU145
 489              	.LBB77:
 490              	.LBI77:
 164:../../Middlewares/LVGL/GUI/lvgl/src/indev/../core/lv_obj_style_gen.h **** }
 165:../../Middlewares/LVGL/GUI/lvgl/src/indev/../core/lv_obj_style_gen.h **** 
 166:../../Middlewares/LVGL/GUI/lvgl/src/indev/../core/lv_obj_style_gen.h **** static inline int32_t lv_obj_get_style_pad_left(const lv_obj_t * obj, lv_part_t part)
 491              		.loc 2 166 23 view .LVU146
 492              	.LBB78:
 167:../../Middlewares/LVGL/GUI/lvgl/src/indev/../core/lv_obj_style_gen.h **** {
 168:../../Middlewares/LVGL/GUI/lvgl/src/indev/../core/lv_obj_style_gen.h ****     lv_style_value_t v = lv_obj_get_style_prop(obj, part, LV_STYLE_PAD_LEFT);
 493              		.loc 2 168 5 view .LVU147
 494              		.loc 2 168 26 is_stmt 0 view .LVU148
 495 001a 1222     		movs	r2, #18
 496 001c 0021     		movs	r1, #0
 497 001e 2846     		mov	r0, r5
 498              	.LVL45:
 499              		.loc 2 168 26 view .LVU149
 500 0020 FFF7FEFF 		bl	lv_obj_get_style_prop
 501              	.LVL46:
 502 0024 0290     		str	r0, [sp, #8]
 503 0026 0590     		str	r0, [sp, #20]
 169:../../Middlewares/LVGL/GUI/lvgl/src/indev/../core/lv_obj_style_gen.h ****     return (int32_t)v.num;
 504              		.loc 2 169 5 is_stmt 1 view .LVU150
 505              	.LVL47:
 506              		.loc 2 169 5 is_stmt 0 view .LVU151
 507              	.LBE78:
 508              	.LBE77:
 524:../../Middlewares/LVGL/GUI/lvgl/src/indev/lv_indev_scroll.c **** 
 509              		.loc 1 524 5 is_stmt 1 view .LVU152
 510              	.LBB79:
 511              	.LBI79:
 170:../../Middlewares/LVGL/GUI/lvgl/src/indev/../core/lv_obj_style_gen.h **** }
 171:../../Middlewares/LVGL/GUI/lvgl/src/indev/../core/lv_obj_style_gen.h **** 
 172:../../Middlewares/LVGL/GUI/lvgl/src/indev/../core/lv_obj_style_gen.h **** static inline int32_t lv_obj_get_style_pad_right(const lv_obj_t * obj, lv_part_t part)
 512              		.loc 2 172 23 view .LVU153
 513              	.LBB80:
 173:../../Middlewares/LVGL/GUI/lvgl/src/indev/../core/lv_obj_style_gen.h **** {
 174:../../Middlewares/LVGL/GUI/lvgl/src/indev/../core/lv_obj_style_gen.h ****     lv_style_value_t v = lv_obj_get_style_prop(obj, part, LV_STYLE_PAD_RIGHT);
 514              		.loc 2 174 5 view .LVU154
 515              		.loc 2 174 26 is_stmt 0 view .LVU155
 516 0028 1322     		movs	r2, #19
 517 002a 0021     		movs	r1, #0
 518 002c 2846     		mov	r0, r5
 519              	.LVL48:
 520              		.loc 2 174 26 view .LVU156
 521 002e FFF7FEFF 		bl	lv_obj_get_style_prop
 522              	.LVL49:
 523 0032 0390     		str	r0, [sp, #12]
 524 0034 0590     		str	r0, [sp, #20]
 175:../../Middlewares/LVGL/GUI/lvgl/src/indev/../core/lv_obj_style_gen.h ****     return (int32_t)v.num;
ARM GAS  C:\Users\28576\AppData\Local\Temp\ccZznpky.s 			page 26


 525              		.loc 2 175 5 is_stmt 1 view .LVU157
 526              	.LVL50:
 527              		.loc 2 175 5 is_stmt 0 view .LVU158
 528              	.LBE80:
 529              	.LBE79:
 526:../../Middlewares/LVGL/GUI/lvgl/src/indev/lv_indev_scroll.c ****     uint32_t child_cnt = lv_obj_get_child_count(obj);
 530              		.loc 1 526 5 is_stmt 1 view .LVU159
 527:../../Middlewares/LVGL/GUI/lvgl/src/indev/lv_indev_scroll.c ****     for(i = 0; i < child_cnt; i++) {
 531              		.loc 1 527 5 view .LVU160
 527:../../Middlewares/LVGL/GUI/lvgl/src/indev/lv_indev_scroll.c ****     for(i = 0; i < child_cnt; i++) {
 532              		.loc 1 527 26 is_stmt 0 view .LVU161
 533 0036 2846     		mov	r0, r5
 534              	.LVL51:
 527:../../Middlewares/LVGL/GUI/lvgl/src/indev/lv_indev_scroll.c ****     for(i = 0; i < child_cnt; i++) {
 535              		.loc 1 527 26 view .LVU162
 536 0038 FFF7FEFF 		bl	lv_obj_get_child_count
 537              	.LVL52:
 527:../../Middlewares/LVGL/GUI/lvgl/src/indev/lv_indev_scroll.c ****     for(i = 0; i < child_cnt; i++) {
 538              		.loc 1 527 26 view .LVU163
 539 003c 0646     		mov	r6, r0
 540              	.LVL53:
 528:../../Middlewares/LVGL/GUI/lvgl/src/indev/lv_indev_scroll.c ****         lv_obj_t * child = obj->spec_attr->children[i];
 541              		.loc 1 528 5 is_stmt 1 view .LVU164
 528:../../Middlewares/LVGL/GUI/lvgl/src/indev/lv_indev_scroll.c ****         lv_obj_t * child = obj->spec_attr->children[i];
 542              		.loc 1 528 11 is_stmt 0 view .LVU165
 543 003e 0024     		movs	r4, #0
 521:../../Middlewares/LVGL/GUI/lvgl/src/indev/lv_indev_scroll.c **** 
 544              		.loc 1 521 13 view .LVU166
 545 0040 6FF06042 		mvn	r2, #-536870912
 546 0044 C146     		mov	r9, r8
 547 0046 9246     		mov	r10, r2
 528:../../Middlewares/LVGL/GUI/lvgl/src/indev/lv_indev_scroll.c ****         lv_obj_t * child = obj->spec_attr->children[i];
 548              		.loc 1 528 5 view .LVU167
 549 0048 23E0     		b	.L27
 550              	.LVL54:
 551              	.L29:
 552              	.LBB81:
 553              	.LBB82:
 540:../../Middlewares/LVGL/GUI/lvgl/src/indev/lv_indev_scroll.c ****                     x_parent = obj->coords.x2 - pad_right;
 554              		.loc 1 540 21 is_stmt 1 view .LVU168
 540:../../Middlewares/LVGL/GUI/lvgl/src/indev/lv_indev_scroll.c ****                     x_parent = obj->coords.x2 - pad_right;
 555              		.loc 1 540 29 is_stmt 0 view .LVU169
 556 004a FF69     		ldr	r7, [r7, #28]
 557              	.LVL55:
 541:../../Middlewares/LVGL/GUI/lvgl/src/indev/lv_indev_scroll.c ****                     break;
 558              		.loc 1 541 21 is_stmt 1 view .LVU170
 541:../../Middlewares/LVGL/GUI/lvgl/src/indev/lv_indev_scroll.c ****                     break;
 559              		.loc 1 541 43 is_stmt 0 view .LVU171
 560 004c EB69     		ldr	r3, [r5, #28]
 541:../../Middlewares/LVGL/GUI/lvgl/src/indev/lv_indev_scroll.c ****                     break;
 561              		.loc 1 541 30 view .LVU172
 562 004e 039A     		ldr	r2, [sp, #12]
 563 0050 A3EB0208 		sub	r8, r3, r2
 564              	.LVL56:
 542:../../Middlewares/LVGL/GUI/lvgl/src/indev/lv_indev_scroll.c ****                 case LV_SCROLL_SNAP_CENTER:
 565              		.loc 1 542 21 is_stmt 1 view .LVU173
 566 0054 3EE0     		b	.L31
ARM GAS  C:\Users\28576\AppData\Local\Temp\ccZznpky.s 			page 27


 567              	.LVL57:
 568              	.L30:
 544:../../Middlewares/LVGL/GUI/lvgl/src/indev/lv_indev_scroll.c ****                     x_parent = obj->coords.x1 + pad_left + (lv_area_get_width(&obj->coords) - pad_l
 569              		.loc 1 544 21 view .LVU174
 544:../../Middlewares/LVGL/GUI/lvgl/src/indev/lv_indev_scroll.c ****                     x_parent = obj->coords.x1 + pad_left + (lv_area_get_width(&obj->coords) - pad_l
 570              		.loc 1 544 44 is_stmt 0 view .LVU175
 571 0056 3846     		mov	r0, r7
 572 0058 50F8147F 		ldr	r7, [r0, #20]!
 573              	.LVL58:
 544:../../Middlewares/LVGL/GUI/lvgl/src/indev/lv_indev_scroll.c ****                     x_parent = obj->coords.x1 + pad_left + (lv_area_get_width(&obj->coords) - pad_l
 574              		.loc 1 544 50 view .LVU176
 575 005c FFF7FEFF 		bl	lv_area_get_width
 576              	.LVL59:
 544:../../Middlewares/LVGL/GUI/lvgl/src/indev/lv_indev_scroll.c ****                     x_parent = obj->coords.x1 + pad_left + (lv_area_get_width(&obj->coords) - pad_l
 577              		.loc 1 544 84 discriminator 1 view .LVU177
 578 0060 0028     		cmp	r0, #0
 579 0062 11DB     		blt	.L38
 580              	.L32:
 544:../../Middlewares/LVGL/GUI/lvgl/src/indev/lv_indev_scroll.c ****                     x_parent = obj->coords.x1 + pad_left + (lv_area_get_width(&obj->coords) - pad_l
 581              		.loc 1 544 29 discriminator 1 view .LVU178
 582 0064 07EB6007 		add	r7, r7, r0, asr #1
 583              	.LVL60:
 545:../../Middlewares/LVGL/GUI/lvgl/src/indev/lv_indev_scroll.c ****                     break;
 584              		.loc 1 545 21 is_stmt 1 view .LVU179
 545:../../Middlewares/LVGL/GUI/lvgl/src/indev/lv_indev_scroll.c ****                     break;
 585              		.loc 1 545 43 is_stmt 0 view .LVU180
 586 0068 2846     		mov	r0, r5
 587 006a 50F8143F 		ldr	r3, [r0, #20]!
 545:../../Middlewares/LVGL/GUI/lvgl/src/indev/lv_indev_scroll.c ****                     break;
 588              		.loc 1 545 47 view .LVU181
 589 006e 029A     		ldr	r2, [sp, #8]
 590 0070 03EB0208 		add	r8, r3, r2
 545:../../Middlewares/LVGL/GUI/lvgl/src/indev/lv_indev_scroll.c ****                     break;
 591              		.loc 1 545 61 view .LVU182
 592 0074 FFF7FEFF 		bl	lv_area_get_width
 593              	.LVL61:
 545:../../Middlewares/LVGL/GUI/lvgl/src/indev/lv_indev_scroll.c ****                     break;
 594              		.loc 1 545 93 discriminator 1 view .LVU183
 595 0078 029A     		ldr	r2, [sp, #8]
 596 007a 801A     		subs	r0, r0, r2
 545:../../Middlewares/LVGL/GUI/lvgl/src/indev/lv_indev_scroll.c ****                     break;
 597              		.loc 1 545 117 discriminator 1 view .LVU184
 598 007c 039B     		ldr	r3, [sp, #12]
 599 007e C01A     		subs	r0, r0, r3
 600 0080 04D4     		bmi	.L39
 601              	.L33:
 545:../../Middlewares/LVGL/GUI/lvgl/src/indev/lv_indev_scroll.c ****                     break;
 602              		.loc 1 545 30 discriminator 1 view .LVU185
 603 0082 08EB6008 		add	r8, r8, r0, asr #1
 604              	.LVL62:
 546:../../Middlewares/LVGL/GUI/lvgl/src/indev/lv_indev_scroll.c ****                 default:
 605              		.loc 1 546 21 is_stmt 1 view .LVU186
 606 0086 25E0     		b	.L31
 607              	.LVL63:
 608              	.L38:
 544:../../Middlewares/LVGL/GUI/lvgl/src/indev/lv_indev_scroll.c ****                     x_parent = obj->coords.x1 + pad_left + (lv_area_get_width(&obj->coords) - pad_l
 609              		.loc 1 544 84 is_stmt 0 discriminator 1 view .LVU187
ARM GAS  C:\Users\28576\AppData\Local\Temp\ccZznpky.s 			page 28


 610 0088 0130     		adds	r0, r0, #1
 611 008a EBE7     		b	.L32
 612              	.LVL64:
 613              	.L39:
 545:../../Middlewares/LVGL/GUI/lvgl/src/indev/lv_indev_scroll.c ****                     break;
 614              		.loc 1 545 117 discriminator 1 view .LVU188
 615 008c 0130     		adds	r0, r0, #1
 616 008e F8E7     		b	.L33
 617              	.LVL65:
 618              	.L28:
 545:../../Middlewares/LVGL/GUI/lvgl/src/indev/lv_indev_scroll.c ****                     break;
 619              		.loc 1 545 117 discriminator 1 view .LVU189
 620              	.LBE82:
 621              	.LBE81:
 528:../../Middlewares/LVGL/GUI/lvgl/src/indev/lv_indev_scroll.c ****         lv_obj_t * child = obj->spec_attr->children[i];
 622              		.loc 1 528 32 is_stmt 1 discriminator 2 view .LVU190
 623 0090 0134     		adds	r4, r4, #1
 624              	.LVL66:
 625              	.L27:
 528:../../Middlewares/LVGL/GUI/lvgl/src/indev/lv_indev_scroll.c ****         lv_obj_t * child = obj->spec_attr->children[i];
 626              		.loc 1 528 18 discriminator 1 view .LVU191
 627 0092 B442     		cmp	r4, r6
 628 0094 39D2     		bcs	.L40
 629              	.LBB85:
 529:../../Middlewares/LVGL/GUI/lvgl/src/indev/lv_indev_scroll.c ****         if(lv_obj_has_flag_any(child, LV_OBJ_FLAG_HIDDEN | LV_OBJ_FLAG_FLOATING)) continue;
 630              		.loc 1 529 9 view .LVU192
 529:../../Middlewares/LVGL/GUI/lvgl/src/indev/lv_indev_scroll.c ****         if(lv_obj_has_flag_any(child, LV_OBJ_FLAG_HIDDEN | LV_OBJ_FLAG_FLOATING)) continue;
 631              		.loc 1 529 31 is_stmt 0 view .LVU193
 632 0096 AB68     		ldr	r3, [r5, #8]
 529:../../Middlewares/LVGL/GUI/lvgl/src/indev/lv_indev_scroll.c ****         if(lv_obj_has_flag_any(child, LV_OBJ_FLAG_HIDDEN | LV_OBJ_FLAG_FLOATING)) continue;
 633              		.loc 1 529 42 view .LVU194
 634 0098 1B68     		ldr	r3, [r3]
 529:../../Middlewares/LVGL/GUI/lvgl/src/indev/lv_indev_scroll.c ****         if(lv_obj_has_flag_any(child, LV_OBJ_FLAG_HIDDEN | LV_OBJ_FLAG_FLOATING)) continue;
 635              		.loc 1 529 20 view .LVU195
 636 009a 53F82470 		ldr	r7, [r3, r4, lsl #2]
 637              	.LVL67:
 530:../../Middlewares/LVGL/GUI/lvgl/src/indev/lv_indev_scroll.c ****         if(lv_obj_has_flag(child, LV_OBJ_FLAG_SNAPPABLE)) {
 638              		.loc 1 530 9 is_stmt 1 view .LVU196
 530:../../Middlewares/LVGL/GUI/lvgl/src/indev/lv_indev_scroll.c ****         if(lv_obj_has_flag(child, LV_OBJ_FLAG_SNAPPABLE)) {
 639              		.loc 1 530 12 is_stmt 0 view .LVU197
 640 009e 2149     		ldr	r1, .L41
 641 00a0 3846     		mov	r0, r7
 642 00a2 FFF7FEFF 		bl	lv_obj_has_flag_any
 643              	.LVL68:
 530:../../Middlewares/LVGL/GUI/lvgl/src/indev/lv_indev_scroll.c ****         if(lv_obj_has_flag(child, LV_OBJ_FLAG_SNAPPABLE)) {
 644              		.loc 1 530 11 discriminator 1 view .LVU198
 645 00a6 0028     		cmp	r0, #0
 646 00a8 F2D1     		bne	.L28
 531:../../Middlewares/LVGL/GUI/lvgl/src/indev/lv_indev_scroll.c ****             int32_t x_child = 0;
 647              		.loc 1 531 9 is_stmt 1 view .LVU199
 531:../../Middlewares/LVGL/GUI/lvgl/src/indev/lv_indev_scroll.c ****             int32_t x_child = 0;
 648              		.loc 1 531 12 is_stmt 0 view .LVU200
 649 00aa 4FF48051 		mov	r1, #4096
 650 00ae 3846     		mov	r0, r7
 651 00b0 FFF7FEFF 		bl	lv_obj_has_flag
 652              	.LVL69:
 531:../../Middlewares/LVGL/GUI/lvgl/src/indev/lv_indev_scroll.c ****             int32_t x_child = 0;
ARM GAS  C:\Users\28576\AppData\Local\Temp\ccZznpky.s 			page 29


 653              		.loc 1 531 11 discriminator 1 view .LVU201
 654 00b4 0028     		cmp	r0, #0
 655 00b6 EBD0     		beq	.L28
 656              	.LBB84:
 532:../../Middlewares/LVGL/GUI/lvgl/src/indev/lv_indev_scroll.c ****             int32_t x_parent = 0;
 657              		.loc 1 532 13 is_stmt 1 view .LVU202
 658              	.LVL70:
 533:../../Middlewares/LVGL/GUI/lvgl/src/indev/lv_indev_scroll.c ****             switch(align) {
 659              		.loc 1 533 13 view .LVU203
 534:../../Middlewares/LVGL/GUI/lvgl/src/indev/lv_indev_scroll.c ****                 case LV_SCROLL_SNAP_START:
 660              		.loc 1 534 13 view .LVU204
 661 00b8 B9F1020F 		cmp	r9, #2
 662 00bc C5D0     		beq	.L29
 663 00be B9F1030F 		cmp	r9, #3
 664 00c2 C8D0     		beq	.L30
 665 00c4 B9F1010F 		cmp	r9, #1
 666 00c8 E2D1     		bne	.L28
 536:../../Middlewares/LVGL/GUI/lvgl/src/indev/lv_indev_scroll.c ****                     x_parent = obj->coords.x1 + pad_left;
 667              		.loc 1 536 21 view .LVU205
 536:../../Middlewares/LVGL/GUI/lvgl/src/indev/lv_indev_scroll.c ****                     x_parent = obj->coords.x1 + pad_left;
 668              		.loc 1 536 29 is_stmt 0 view .LVU206
 669 00ca 7F69     		ldr	r7, [r7, #20]
 670              	.LVL71:
 537:../../Middlewares/LVGL/GUI/lvgl/src/indev/lv_indev_scroll.c ****                     break;
 671              		.loc 1 537 21 is_stmt 1 view .LVU207
 537:../../Middlewares/LVGL/GUI/lvgl/src/indev/lv_indev_scroll.c ****                     break;
 672              		.loc 1 537 43 is_stmt 0 view .LVU208
 673 00cc 6B69     		ldr	r3, [r5, #20]
 537:../../Middlewares/LVGL/GUI/lvgl/src/indev/lv_indev_scroll.c ****                     break;
 674              		.loc 1 537 30 view .LVU209
 675 00ce 029A     		ldr	r2, [sp, #8]
 676 00d0 03EB0208 		add	r8, r3, r2
 677              	.LVL72:
 538:../../Middlewares/LVGL/GUI/lvgl/src/indev/lv_indev_scroll.c ****                 case LV_SCROLL_SNAP_END:
 678              		.loc 1 538 21 is_stmt 1 view .LVU210
 679              	.L31:
 551:../../Middlewares/LVGL/GUI/lvgl/src/indev/lv_indev_scroll.c ****             if(x_child >= min && x_child <= max) {
 680              		.loc 1 551 13 view .LVU211
 551:../../Middlewares/LVGL/GUI/lvgl/src/indev/lv_indev_scroll.c ****             if(x_child >= min && x_child <= max) {
 681              		.loc 1 551 21 is_stmt 0 view .LVU212
 682 00d4 019B     		ldr	r3, [sp, #4]
 683 00d6 1F44     		add	r7, r7, r3
 684              	.LVL73:
 552:../../Middlewares/LVGL/GUI/lvgl/src/indev/lv_indev_scroll.c ****                 int32_t x = x_child -  x_parent;
 685              		.loc 1 552 13 is_stmt 1 view .LVU213
 552:../../Middlewares/LVGL/GUI/lvgl/src/indev/lv_indev_scroll.c ****                 int32_t x = x_child -  x_parent;
 686              		.loc 1 552 31 is_stmt 0 view .LVU214
 687 00d8 5B46     		mov	r3, fp
 688 00da 009A     		ldr	r2, [sp]
 689 00dc 5F45     		cmp	r7, fp
 690 00de B4BF     		ite	lt
 691 00e0 0023     		movlt	r3, #0
 692 00e2 0123     		movge	r3, #1
 693 00e4 9742     		cmp	r7, r2
 694 00e6 C8BF     		it	gt
 695 00e8 0023     		movgt	r3, #0
 552:../../Middlewares/LVGL/GUI/lvgl/src/indev/lv_indev_scroll.c ****                 int32_t x = x_child -  x_parent;
ARM GAS  C:\Users\28576\AppData\Local\Temp\ccZznpky.s 			page 30


 696              		.loc 1 552 15 view .LVU215
 697 00ea 002B     		cmp	r3, #0
 698 00ec D0D0     		beq	.L28
 699              	.LBB83:
 553:../../Middlewares/LVGL/GUI/lvgl/src/indev/lv_indev_scroll.c ****                 if(LV_ABS(x) < LV_ABS(dist)) dist = x;
 700              		.loc 1 553 17 is_stmt 1 view .LVU216
 553:../../Middlewares/LVGL/GUI/lvgl/src/indev/lv_indev_scroll.c ****                 if(LV_ABS(x) < LV_ABS(dist)) dist = x;
 701              		.loc 1 553 25 is_stmt 0 view .LVU217
 702 00ee A7EB0807 		sub	r7, r7, r8
 703              	.LVL74:
 554:../../Middlewares/LVGL/GUI/lvgl/src/indev/lv_indev_scroll.c ****             }
 704              		.loc 1 554 17 is_stmt 1 view .LVU218
 554:../../Middlewares/LVGL/GUI/lvgl/src/indev/lv_indev_scroll.c ****             }
 705              		.loc 1 554 20 is_stmt 0 view .LVU219
 706 00f2 87EAE772 		eor	r2, r7, r7, asr #31
 707 00f6 A2EBE772 		sub	r2, r2, r7, asr #31
 554:../../Middlewares/LVGL/GUI/lvgl/src/indev/lv_indev_scroll.c ****             }
 708              		.loc 1 554 32 view .LVU220
 709 00fa 8AEAEA73 		eor	r3, r10, r10, asr #31
 710 00fe A3EBEA73 		sub	r3, r3, r10, asr #31
 554:../../Middlewares/LVGL/GUI/lvgl/src/indev/lv_indev_scroll.c ****             }
 711              		.loc 1 554 19 view .LVU221
 712 0102 9A42     		cmp	r2, r3
 713 0104 C4DA     		bge	.L28
 554:../../Middlewares/LVGL/GUI/lvgl/src/indev/lv_indev_scroll.c ****             }
 714              		.loc 1 554 51 discriminator 1 view .LVU222
 715 0106 BA46     		mov	r10, r7
 716              	.LVL75:
 554:../../Middlewares/LVGL/GUI/lvgl/src/indev/lv_indev_scroll.c ****             }
 717              		.loc 1 554 51 discriminator 1 view .LVU223
 718 0108 C2E7     		b	.L28
 719              	.LVL76:
 720              	.L40:
 554:../../Middlewares/LVGL/GUI/lvgl/src/indev/lv_indev_scroll.c ****             }
 721              		.loc 1 554 51 discriminator 1 view .LVU224
 722              	.LBE83:
 723              	.LBE84:
 724              	.LBE85:
 559:../../Middlewares/LVGL/GUI/lvgl/src/indev/lv_indev_scroll.c **** }
 725              		.loc 1 559 48 view .LVU225
 726 010a 5246     		mov	r2, r10
 559:../../Middlewares/LVGL/GUI/lvgl/src/indev/lv_indev_scroll.c **** }
 727              		.loc 1 559 5 is_stmt 1 view .LVU226
 559:../../Middlewares/LVGL/GUI/lvgl/src/indev/lv_indev_scroll.c **** }
 728              		.loc 1 559 48 is_stmt 0 view .LVU227
 729 010c 6FF06043 		mvn	r3, #-536870912
 730 0110 9A45     		cmp	r10, r3
 731 0112 00D0     		beq	.L25
 732              	.LVL77:
 559:../../Middlewares/LVGL/GUI/lvgl/src/indev/lv_indev_scroll.c **** }
 733              		.loc 1 559 48 discriminator 1 view .LVU228
 734 0114 5242     		rsbs	r2, r2, #0
 735              	.LVL78:
 736              	.L25:
 560:../../Middlewares/LVGL/GUI/lvgl/src/indev/lv_indev_scroll.c **** 
 737              		.loc 1 560 1 view .LVU229
 738 0116 1046     		mov	r0, r2
ARM GAS  C:\Users\28576\AppData\Local\Temp\ccZznpky.s 			page 31


 739 0118 07B0     		add	sp, sp, #28
 740              	.LCFI7:
 741              		.cfi_remember_state
 742              		.cfi_def_cfa_offset 36
 743              	.LVL79:
 560:../../Middlewares/LVGL/GUI/lvgl/src/indev/lv_indev_scroll.c **** 
 744              		.loc 1 560 1 view .LVU230
 745              		@ sp needed
 746 011a BDE8F08F 		pop	{r4, r5, r6, r7, r8, r9, r10, fp, pc}
 747              	.LVL80:
 748              	.L35:
 749              	.LCFI8:
 750              		.cfi_restore_state
 519:../../Middlewares/LVGL/GUI/lvgl/src/indev/lv_indev_scroll.c **** 
 751              		.loc 1 519 45 discriminator 1 view .LVU231
 752 011e 6FF06042 		mvn	r2, #-536870912
 753 0122 F8E7     		b	.L25
 754              	.L42:
 755              		.align	2
 756              	.L41:
 757 0124 01000400 		.word	262145
 758              		.cfi_endproc
 759              	.LFE178:
 761              		.section	.text.init_scroll_limits,"ax",%progbits
 762              		.align	1
 763              		.syntax unified
 764              		.thumb
 765              		.thumb_func
 767              	init_scroll_limits:
 768              	.LVL81:
 769              	.LFB177:
 443:../../Middlewares/LVGL/GUI/lvgl/src/indev/lv_indev_scroll.c ****     lv_obj_t * obj = indev->pointer.scroll_obj;
 770              		.loc 1 443 1 is_stmt 1 view -0
 771              		.cfi_startproc
 772              		@ args = 0, pretend = 0, frame = 0
 773              		@ frame_needed = 0, uses_anonymous_args = 0
 443:../../Middlewares/LVGL/GUI/lvgl/src/indev/lv_indev_scroll.c ****     lv_obj_t * obj = indev->pointer.scroll_obj;
 774              		.loc 1 443 1 is_stmt 0 view .LVU233
 775 0000 70B5     		push	{r4, r5, r6, lr}
 776              	.LCFI9:
 777              		.cfi_def_cfa_offset 16
 778              		.cfi_offset 4, -16
 779              		.cfi_offset 5, -12
 780              		.cfi_offset 6, -8
 781              		.cfi_offset 14, -4
 782 0002 82B0     		sub	sp, sp, #8
 783              	.LCFI10:
 784              		.cfi_def_cfa_offset 24
 785 0004 0446     		mov	r4, r0
 444:../../Middlewares/LVGL/GUI/lvgl/src/indev/lv_indev_scroll.c ****     /*If there no STOP allow scrolling anywhere*/
 786              		.loc 1 444 5 is_stmt 1 view .LVU234
 444:../../Middlewares/LVGL/GUI/lvgl/src/indev/lv_indev_scroll.c ****     /*If there no STOP allow scrolling anywhere*/
 787              		.loc 1 444 16 is_stmt 0 view .LVU235
 788 0006 056F     		ldr	r5, [r0, #112]
 789              	.LVL82:
 446:../../Middlewares/LVGL/GUI/lvgl/src/indev/lv_indev_scroll.c ****         lv_area_set(&indev->pointer.scroll_area, LV_COORD_MIN, LV_COORD_MIN, LV_COORD_MAX, LV_COORD
 790              		.loc 1 446 5 is_stmt 1 view .LVU236
ARM GAS  C:\Users\28576\AppData\Local\Temp\ccZznpky.s 			page 32


 446:../../Middlewares/LVGL/GUI/lvgl/src/indev/lv_indev_scroll.c ****         lv_area_set(&indev->pointer.scroll_area, LV_COORD_MIN, LV_COORD_MIN, LV_COORD_MAX, LV_COORD
 791              		.loc 1 446 8 is_stmt 0 view .LVU237
 792 0008 8021     		movs	r1, #128
 793 000a 2846     		mov	r0, r5
 794              	.LVL83:
 446:../../Middlewares/LVGL/GUI/lvgl/src/indev/lv_indev_scroll.c ****         lv_area_set(&indev->pointer.scroll_area, LV_COORD_MIN, LV_COORD_MIN, LV_COORD_MAX, LV_COORD
 795              		.loc 1 446 8 view .LVU238
 796 000c FFF7FEFF 		bl	lv_obj_has_flag
 797              	.LVL84:
 446:../../Middlewares/LVGL/GUI/lvgl/src/indev/lv_indev_scroll.c ****         lv_area_set(&indev->pointer.scroll_area, LV_COORD_MIN, LV_COORD_MIN, LV_COORD_MAX, LV_COORD
 798              		.loc 1 446 7 discriminator 1 view .LVU239
 799 0010 78BB     		cbnz	r0, .L44
 447:../../Middlewares/LVGL/GUI/lvgl/src/indev/lv_indev_scroll.c ****     }
 800              		.loc 1 447 9 is_stmt 1 view .LVU240
 801 0012 6D49     		ldr	r1, .L66
 802 0014 6FF06043 		mvn	r3, #-536870912
 803 0018 0093     		str	r3, [sp]
 804 001a 0A46     		mov	r2, r1
 805 001c 04F17C00 		add	r0, r4, #124
 806 0020 FFF7FEFF 		bl	lv_area_set
 807              	.LVL85:
 808              	.L45:
 496:../../Middlewares/LVGL/GUI/lvgl/src/indev/lv_indev_scroll.c ****     if(indev->pointer.scroll_area.y1 == LV_COORD_MAX) indev->pointer.scroll_area.y1 = LV_COORD_MIN;
 809              		.loc 1 496 5 view .LVU241
 496:../../Middlewares/LVGL/GUI/lvgl/src/indev/lv_indev_scroll.c ****     if(indev->pointer.scroll_area.y1 == LV_COORD_MAX) indev->pointer.scroll_area.y1 = LV_COORD_MIN;
 810              		.loc 1 496 34 is_stmt 0 view .LVU242
 811 0024 E26F     		ldr	r2, [r4, #124]
 496:../../Middlewares/LVGL/GUI/lvgl/src/indev/lv_indev_scroll.c ****     if(indev->pointer.scroll_area.y1 == LV_COORD_MAX) indev->pointer.scroll_area.y1 = LV_COORD_MIN;
 812              		.loc 1 496 7 view .LVU243
 813 0026 6FF06043 		mvn	r3, #-536870912
 814 002a 9A42     		cmp	r2, r3
 815 002c 00F0C480 		beq	.L62
 816              	.L55:
 497:../../Middlewares/LVGL/GUI/lvgl/src/indev/lv_indev_scroll.c **** 
 817              		.loc 1 497 5 is_stmt 1 view .LVU244
 497:../../Middlewares/LVGL/GUI/lvgl/src/indev/lv_indev_scroll.c **** 
 818              		.loc 1 497 34 is_stmt 0 view .LVU245
 819 0030 D4F88020 		ldr	r2, [r4, #128]
 497:../../Middlewares/LVGL/GUI/lvgl/src/indev/lv_indev_scroll.c **** 
 820              		.loc 1 497 7 view .LVU246
 821 0034 6FF06043 		mvn	r3, #-536870912
 822 0038 9A42     		cmp	r2, r3
 823 003a 00F0C080 		beq	.L63
 824              	.L56:
 500:../../Middlewares/LVGL/GUI/lvgl/src/indev/lv_indev_scroll.c ****     if(indev->pointer.scroll_area.x2 == 0) indev->pointer.scroll_area.x2 = LV_COORD_MAX;
 825              		.loc 1 500 5 is_stmt 1 view .LVU247
 500:../../Middlewares/LVGL/GUI/lvgl/src/indev/lv_indev_scroll.c ****     if(indev->pointer.scroll_area.x2 == 0) indev->pointer.scroll_area.x2 = LV_COORD_MAX;
 826              		.loc 1 500 34 is_stmt 0 view .LVU248
 827 003e E36F     		ldr	r3, [r4, #124]
 500:../../Middlewares/LVGL/GUI/lvgl/src/indev/lv_indev_scroll.c ****     if(indev->pointer.scroll_area.x2 == 0) indev->pointer.scroll_area.x2 = LV_COORD_MAX;
 828              		.loc 1 500 7 view .LVU249
 829 0040 0BB9     		cbnz	r3, .L57
 500:../../Middlewares/LVGL/GUI/lvgl/src/indev/lv_indev_scroll.c ****     if(indev->pointer.scroll_area.x2 == 0) indev->pointer.scroll_area.x2 = LV_COORD_MAX;
 830              		.loc 1 500 44 is_stmt 1 discriminator 1 view .LVU250
 500:../../Middlewares/LVGL/GUI/lvgl/src/indev/lv_indev_scroll.c ****     if(indev->pointer.scroll_area.x2 == 0) indev->pointer.scroll_area.x2 = LV_COORD_MAX;
 831              		.loc 1 500 74 is_stmt 0 discriminator 1 view .LVU251
 832 0042 614B     		ldr	r3, .L66
ARM GAS  C:\Users\28576\AppData\Local\Temp\ccZznpky.s 			page 33


 833 0044 E367     		str	r3, [r4, #124]
 834              	.L57:
 501:../../Middlewares/LVGL/GUI/lvgl/src/indev/lv_indev_scroll.c ****     if(indev->pointer.scroll_area.y1 == 0) indev->pointer.scroll_area.y1 = LV_COORD_MIN;
 835              		.loc 1 501 5 is_stmt 1 view .LVU252
 501:../../Middlewares/LVGL/GUI/lvgl/src/indev/lv_indev_scroll.c ****     if(indev->pointer.scroll_area.y1 == 0) indev->pointer.scroll_area.y1 = LV_COORD_MIN;
 836              		.loc 1 501 34 is_stmt 0 view .LVU253
 837 0046 D4F88430 		ldr	r3, [r4, #132]
 501:../../Middlewares/LVGL/GUI/lvgl/src/indev/lv_indev_scroll.c ****     if(indev->pointer.scroll_area.y1 == 0) indev->pointer.scroll_area.y1 = LV_COORD_MIN;
 838              		.loc 1 501 7 view .LVU254
 839 004a 1BB9     		cbnz	r3, .L58
 501:../../Middlewares/LVGL/GUI/lvgl/src/indev/lv_indev_scroll.c ****     if(indev->pointer.scroll_area.y1 == 0) indev->pointer.scroll_area.y1 = LV_COORD_MIN;
 840              		.loc 1 501 44 is_stmt 1 discriminator 1 view .LVU255
 501:../../Middlewares/LVGL/GUI/lvgl/src/indev/lv_indev_scroll.c ****     if(indev->pointer.scroll_area.y1 == 0) indev->pointer.scroll_area.y1 = LV_COORD_MIN;
 841              		.loc 1 501 74 is_stmt 0 discriminator 1 view .LVU256
 842 004c 6FF06043 		mvn	r3, #-536870912
 843 0050 C4F88430 		str	r3, [r4, #132]
 844              	.L58:
 502:../../Middlewares/LVGL/GUI/lvgl/src/indev/lv_indev_scroll.c ****     if(indev->pointer.scroll_area.y2 == 0) indev->pointer.scroll_area.y2 = LV_COORD_MAX;
 845              		.loc 1 502 5 is_stmt 1 view .LVU257
 502:../../Middlewares/LVGL/GUI/lvgl/src/indev/lv_indev_scroll.c ****     if(indev->pointer.scroll_area.y2 == 0) indev->pointer.scroll_area.y2 = LV_COORD_MAX;
 846              		.loc 1 502 34 is_stmt 0 view .LVU258
 847 0054 D4F88030 		ldr	r3, [r4, #128]
 502:../../Middlewares/LVGL/GUI/lvgl/src/indev/lv_indev_scroll.c ****     if(indev->pointer.scroll_area.y2 == 0) indev->pointer.scroll_area.y2 = LV_COORD_MAX;
 848              		.loc 1 502 7 view .LVU259
 849 0058 13B9     		cbnz	r3, .L59
 502:../../Middlewares/LVGL/GUI/lvgl/src/indev/lv_indev_scroll.c ****     if(indev->pointer.scroll_area.y2 == 0) indev->pointer.scroll_area.y2 = LV_COORD_MAX;
 850              		.loc 1 502 44 is_stmt 1 discriminator 1 view .LVU260
 502:../../Middlewares/LVGL/GUI/lvgl/src/indev/lv_indev_scroll.c ****     if(indev->pointer.scroll_area.y2 == 0) indev->pointer.scroll_area.y2 = LV_COORD_MAX;
 851              		.loc 1 502 74 is_stmt 0 discriminator 1 view .LVU261
 852 005a 5B4B     		ldr	r3, .L66
 853 005c C4F88030 		str	r3, [r4, #128]
 854              	.L59:
 503:../../Middlewares/LVGL/GUI/lvgl/src/indev/lv_indev_scroll.c **** }
 855              		.loc 1 503 5 is_stmt 1 view .LVU262
 503:../../Middlewares/LVGL/GUI/lvgl/src/indev/lv_indev_scroll.c **** }
 856              		.loc 1 503 34 is_stmt 0 view .LVU263
 857 0060 D4F88830 		ldr	r3, [r4, #136]
 503:../../Middlewares/LVGL/GUI/lvgl/src/indev/lv_indev_scroll.c **** }
 858              		.loc 1 503 7 view .LVU264
 859 0064 1BB9     		cbnz	r3, .L43
 503:../../Middlewares/LVGL/GUI/lvgl/src/indev/lv_indev_scroll.c **** }
 860              		.loc 1 503 44 is_stmt 1 discriminator 1 view .LVU265
 503:../../Middlewares/LVGL/GUI/lvgl/src/indev/lv_indev_scroll.c **** }
 861              		.loc 1 503 74 is_stmt 0 discriminator 1 view .LVU266
 862 0066 6FF06043 		mvn	r3, #-536870912
 863 006a C4F88830 		str	r3, [r4, #136]
 864              	.L43:
 504:../../Middlewares/LVGL/GUI/lvgl/src/indev/lv_indev_scroll.c **** 
 865              		.loc 1 504 1 view .LVU267
 866 006e 02B0     		add	sp, sp, #8
 867              	.LCFI11:
 868              		.cfi_remember_state
 869              		.cfi_def_cfa_offset 16
 870              		@ sp needed
 871 0070 70BD     		pop	{r4, r5, r6, pc}
 872              	.LVL86:
 873              	.L44:
ARM GAS  C:\Users\28576\AppData\Local\Temp\ccZznpky.s 			page 34


 874              	.LCFI12:
 875              		.cfi_restore_state
 451:../../Middlewares/LVGL/GUI/lvgl/src/indev/lv_indev_scroll.c ****             case LV_SCROLL_SNAP_START:
 876              		.loc 1 451 9 is_stmt 1 view .LVU268
 451:../../Middlewares/LVGL/GUI/lvgl/src/indev/lv_indev_scroll.c ****             case LV_SCROLL_SNAP_START:
 877              		.loc 1 451 16 is_stmt 0 view .LVU269
 878 0072 2846     		mov	r0, r5
 879 0074 FFF7FEFF 		bl	lv_obj_get_scroll_snap_y
 880              	.LVL87:
 451:../../Middlewares/LVGL/GUI/lvgl/src/indev/lv_indev_scroll.c ****             case LV_SCROLL_SNAP_START:
 881              		.loc 1 451 9 discriminator 1 view .LVU270
 882 0078 0228     		cmp	r0, #2
 883 007a 30D0     		beq	.L46
 884 007c 0328     		cmp	r0, #3
 885 007e 40D0     		beq	.L47
 886 0080 0128     		cmp	r0, #1
 887 0082 5CD1     		bne	.L48
 453:../../Middlewares/LVGL/GUI/lvgl/src/indev/lv_indev_scroll.c ****                 indev->pointer.scroll_area.y2 = find_snap_point_y(obj, LV_COORD_MIN, obj->coords.y1
 888              		.loc 1 453 17 is_stmt 1 view .LVU271
 453:../../Middlewares/LVGL/GUI/lvgl/src/indev/lv_indev_scroll.c ****                 indev->pointer.scroll_area.y2 = find_snap_point_y(obj, LV_COORD_MIN, obj->coords.y1
 889              		.loc 1 453 83 is_stmt 0 view .LVU272
 890 0084 A969     		ldr	r1, [r5, #24]
 453:../../Middlewares/LVGL/GUI/lvgl/src/indev/lv_indev_scroll.c ****                 indev->pointer.scroll_area.y2 = find_snap_point_y(obj, LV_COORD_MIN, obj->coords.y1
 891              		.loc 1 453 49 view .LVU273
 892 0086 0023     		movs	r3, #0
 893 0088 6FF06042 		mvn	r2, #-536870912
 894 008c 0131     		adds	r1, r1, #1
 895 008e 2846     		mov	r0, r5
 896 0090 FFF7FEFF 		bl	find_snap_point_y
 897              	.LVL88:
 453:../../Middlewares/LVGL/GUI/lvgl/src/indev/lv_indev_scroll.c ****                 indev->pointer.scroll_area.y2 = find_snap_point_y(obj, LV_COORD_MIN, obj->coords.y1
 898              		.loc 1 453 47 discriminator 1 view .LVU274
 899 0094 C4F88000 		str	r0, [r4, #128]
 454:../../Middlewares/LVGL/GUI/lvgl/src/indev/lv_indev_scroll.c ****                 break;
 900              		.loc 1 454 17 is_stmt 1 view .LVU275
 454:../../Middlewares/LVGL/GUI/lvgl/src/indev/lv_indev_scroll.c ****                 break;
 901              		.loc 1 454 97 is_stmt 0 view .LVU276
 902 0098 AA69     		ldr	r2, [r5, #24]
 454:../../Middlewares/LVGL/GUI/lvgl/src/indev/lv_indev_scroll.c ****                 break;
 903              		.loc 1 454 49 view .LVU277
 904 009a 0023     		movs	r3, #0
 905 009c 013A     		subs	r2, r2, #1
 906 009e 4A49     		ldr	r1, .L66
 907 00a0 2846     		mov	r0, r5
 908 00a2 FFF7FEFF 		bl	find_snap_point_y
 909              	.LVL89:
 454:../../Middlewares/LVGL/GUI/lvgl/src/indev/lv_indev_scroll.c ****                 break;
 910              		.loc 1 454 47 discriminator 1 view .LVU278
 911 00a6 C4F88800 		str	r0, [r4, #136]
 455:../../Middlewares/LVGL/GUI/lvgl/src/indev/lv_indev_scroll.c ****             case LV_SCROLL_SNAP_END:
 912              		.loc 1 455 17 is_stmt 1 view .LVU279
 913              	.L49:
 472:../../Middlewares/LVGL/GUI/lvgl/src/indev/lv_indev_scroll.c ****             case LV_SCROLL_SNAP_START:
 914              		.loc 1 472 9 view .LVU280
 472:../../Middlewares/LVGL/GUI/lvgl/src/indev/lv_indev_scroll.c ****             case LV_SCROLL_SNAP_START:
 915              		.loc 1 472 16 is_stmt 0 view .LVU281
 916 00aa 2846     		mov	r0, r5
ARM GAS  C:\Users\28576\AppData\Local\Temp\ccZznpky.s 			page 35


 917 00ac FFF7FEFF 		bl	lv_obj_get_scroll_snap_x
 918              	.LVL90:
 472:../../Middlewares/LVGL/GUI/lvgl/src/indev/lv_indev_scroll.c ****             case LV_SCROLL_SNAP_START:
 919              		.loc 1 472 9 discriminator 1 view .LVU282
 920 00b0 0228     		cmp	r0, #2
 921 00b2 4CD0     		beq	.L51
 922 00b4 0328     		cmp	r0, #3
 923 00b6 5BD0     		beq	.L52
 924 00b8 0128     		cmp	r0, #1
 925 00ba 76D1     		bne	.L53
 474:../../Middlewares/LVGL/GUI/lvgl/src/indev/lv_indev_scroll.c ****                 indev->pointer.scroll_area.x2 = find_snap_point_x(obj, LV_COORD_MIN, obj->coords.x1
 926              		.loc 1 474 17 is_stmt 1 view .LVU283
 474:../../Middlewares/LVGL/GUI/lvgl/src/indev/lv_indev_scroll.c ****                 indev->pointer.scroll_area.x2 = find_snap_point_x(obj, LV_COORD_MIN, obj->coords.x1
 927              		.loc 1 474 49 is_stmt 0 view .LVU284
 928 00bc 0023     		movs	r3, #0
 929 00be 6FF06042 		mvn	r2, #-536870912
 930 00c2 6969     		ldr	r1, [r5, #20]
 931 00c4 2846     		mov	r0, r5
 932 00c6 FFF7FEFF 		bl	find_snap_point_x
 933              	.LVL91:
 474:../../Middlewares/LVGL/GUI/lvgl/src/indev/lv_indev_scroll.c ****                 indev->pointer.scroll_area.x2 = find_snap_point_x(obj, LV_COORD_MIN, obj->coords.x1
 934              		.loc 1 474 47 discriminator 1 view .LVU285
 935 00ca E067     		str	r0, [r4, #124]
 475:../../Middlewares/LVGL/GUI/lvgl/src/indev/lv_indev_scroll.c ****                 break;
 936              		.loc 1 475 17 is_stmt 1 view .LVU286
 475:../../Middlewares/LVGL/GUI/lvgl/src/indev/lv_indev_scroll.c ****                 break;
 937              		.loc 1 475 49 is_stmt 0 view .LVU287
 938 00cc 0023     		movs	r3, #0
 939 00ce 6A69     		ldr	r2, [r5, #20]
 940 00d0 3D49     		ldr	r1, .L66
 941 00d2 2846     		mov	r0, r5
 942 00d4 FFF7FEFF 		bl	find_snap_point_x
 943              	.LVL92:
 475:../../Middlewares/LVGL/GUI/lvgl/src/indev/lv_indev_scroll.c ****                 break;
 944              		.loc 1 475 47 discriminator 1 view .LVU288
 945 00d8 C4F88400 		str	r0, [r4, #132]
 476:../../Middlewares/LVGL/GUI/lvgl/src/indev/lv_indev_scroll.c ****             case LV_SCROLL_SNAP_END:
 946              		.loc 1 476 17 is_stmt 1 view .LVU289
 947 00dc A2E7     		b	.L45
 948              	.L46:
 457:../../Middlewares/LVGL/GUI/lvgl/src/indev/lv_indev_scroll.c ****                 indev->pointer.scroll_area.y2 = find_snap_point_y(obj, LV_COORD_MIN, obj->coords.y2
 949              		.loc 1 457 17 view .LVU290
 457:../../Middlewares/LVGL/GUI/lvgl/src/indev/lv_indev_scroll.c ****                 indev->pointer.scroll_area.y2 = find_snap_point_y(obj, LV_COORD_MIN, obj->coords.y2
 950              		.loc 1 457 49 is_stmt 0 view .LVU291
 951 00de 0023     		movs	r3, #0
 952 00e0 6FF06042 		mvn	r2, #-536870912
 953 00e4 296A     		ldr	r1, [r5, #32]
 954 00e6 2846     		mov	r0, r5
 955 00e8 FFF7FEFF 		bl	find_snap_point_y
 956              	.LVL93:
 457:../../Middlewares/LVGL/GUI/lvgl/src/indev/lv_indev_scroll.c ****                 indev->pointer.scroll_area.y2 = find_snap_point_y(obj, LV_COORD_MIN, obj->coords.y2
 957              		.loc 1 457 47 discriminator 1 view .LVU292
 958 00ec C4F88000 		str	r0, [r4, #128]
 458:../../Middlewares/LVGL/GUI/lvgl/src/indev/lv_indev_scroll.c ****                 break;
 959              		.loc 1 458 17 is_stmt 1 view .LVU293
 458:../../Middlewares/LVGL/GUI/lvgl/src/indev/lv_indev_scroll.c ****                 break;
 960              		.loc 1 458 49 is_stmt 0 view .LVU294
ARM GAS  C:\Users\28576\AppData\Local\Temp\ccZznpky.s 			page 36


 961 00f0 0023     		movs	r3, #0
 962 00f2 2A6A     		ldr	r2, [r5, #32]
 963 00f4 3449     		ldr	r1, .L66
 964 00f6 2846     		mov	r0, r5
 965 00f8 FFF7FEFF 		bl	find_snap_point_y
 966              	.LVL94:
 458:../../Middlewares/LVGL/GUI/lvgl/src/indev/lv_indev_scroll.c ****                 break;
 967              		.loc 1 458 47 discriminator 1 view .LVU295
 968 00fc C4F88800 		str	r0, [r4, #136]
 459:../../Middlewares/LVGL/GUI/lvgl/src/indev/lv_indev_scroll.c ****             case LV_SCROLL_SNAP_CENTER: {
 969              		.loc 1 459 17 is_stmt 1 view .LVU296
 970 0100 D3E7     		b	.L49
 971              	.L47:
 972              	.LBB86:
 461:../../Middlewares/LVGL/GUI/lvgl/src/indev/lv_indev_scroll.c ****                     indev->pointer.scroll_area.y1 = find_snap_point_y(obj, y_mid + 1, LV_COORD_MAX,
 973              		.loc 1 461 21 view .LVU297
 461:../../Middlewares/LVGL/GUI/lvgl/src/indev/lv_indev_scroll.c ****                     indev->pointer.scroll_area.y1 = find_snap_point_y(obj, y_mid + 1, LV_COORD_MAX,
 974              		.loc 1 461 48 is_stmt 0 view .LVU298
 975 0102 AB69     		ldr	r3, [r5, #24]
 976 0104 1E46     		mov	r6, r3
 461:../../Middlewares/LVGL/GUI/lvgl/src/indev/lv_indev_scroll.c ****                     indev->pointer.scroll_area.y1 = find_snap_point_y(obj, y_mid + 1, LV_COORD_MAX,
 977              		.loc 1 461 54 view .LVU299
 978 0106 05F11400 		add	r0, r5, #20
 979 010a FFF7FEFF 		bl	lv_area_get_height
 980              	.LVL95:
 461:../../Middlewares/LVGL/GUI/lvgl/src/indev/lv_indev_scroll.c ****                     indev->pointer.scroll_area.y1 = find_snap_point_y(obj, y_mid + 1, LV_COORD_MAX,
 981              		.loc 1 461 87 discriminator 1 view .LVU300
 982 010e 0028     		cmp	r0, #0
 983 0110 13DB     		blt	.L64
 984              	.L50:
 461:../../Middlewares/LVGL/GUI/lvgl/src/indev/lv_indev_scroll.c ****                     indev->pointer.scroll_area.y1 = find_snap_point_y(obj, y_mid + 1, LV_COORD_MAX,
 985              		.loc 1 461 29 discriminator 1 view .LVU301
 986 0112 06EB6006 		add	r6, r6, r0, asr #1
 987              	.LVL96:
 462:../../Middlewares/LVGL/GUI/lvgl/src/indev/lv_indev_scroll.c ****                     indev->pointer.scroll_area.y2 = find_snap_point_y(obj, LV_COORD_MIN, y_mid - 1,
 988              		.loc 1 462 21 is_stmt 1 view .LVU302
 462:../../Middlewares/LVGL/GUI/lvgl/src/indev/lv_indev_scroll.c ****                     indev->pointer.scroll_area.y2 = find_snap_point_y(obj, LV_COORD_MIN, y_mid - 1,
 989              		.loc 1 462 53 is_stmt 0 view .LVU303
 990 0116 0023     		movs	r3, #0
 991 0118 6FF06042 		mvn	r2, #-536870912
 992 011c 711C     		adds	r1, r6, #1
 993 011e 2846     		mov	r0, r5
 994 0120 FFF7FEFF 		bl	find_snap_point_y
 995              	.LVL97:
 462:../../Middlewares/LVGL/GUI/lvgl/src/indev/lv_indev_scroll.c ****                     indev->pointer.scroll_area.y2 = find_snap_point_y(obj, LV_COORD_MIN, y_mid - 1,
 996              		.loc 1 462 51 discriminator 1 view .LVU304
 997 0124 C4F88000 		str	r0, [r4, #128]
 463:../../Middlewares/LVGL/GUI/lvgl/src/indev/lv_indev_scroll.c ****                     break;
 998              		.loc 1 463 21 is_stmt 1 view .LVU305
 463:../../Middlewares/LVGL/GUI/lvgl/src/indev/lv_indev_scroll.c ****                     break;
 999              		.loc 1 463 53 is_stmt 0 view .LVU306
 1000 0128 0023     		movs	r3, #0
 1001 012a 721E     		subs	r2, r6, #1
 1002 012c 2649     		ldr	r1, .L66
 1003 012e 2846     		mov	r0, r5
 1004 0130 FFF7FEFF 		bl	find_snap_point_y
 1005              	.LVL98:
ARM GAS  C:\Users\28576\AppData\Local\Temp\ccZznpky.s 			page 37


 463:../../Middlewares/LVGL/GUI/lvgl/src/indev/lv_indev_scroll.c ****                     break;
 1006              		.loc 1 463 51 discriminator 1 view .LVU307
 1007 0134 C4F88800 		str	r0, [r4, #136]
 464:../../Middlewares/LVGL/GUI/lvgl/src/indev/lv_indev_scroll.c ****                 }
 1008              		.loc 1 464 21 is_stmt 1 view .LVU308
 1009 0138 B7E7     		b	.L49
 1010              	.LVL99:
 1011              	.L64:
 461:../../Middlewares/LVGL/GUI/lvgl/src/indev/lv_indev_scroll.c ****                     indev->pointer.scroll_area.y1 = find_snap_point_y(obj, y_mid + 1, LV_COORD_MAX,
 1012              		.loc 1 461 87 is_stmt 0 discriminator 1 view .LVU309
 1013 013a 0130     		adds	r0, r0, #1
 1014 013c E9E7     		b	.L50
 1015              	.L48:
 461:../../Middlewares/LVGL/GUI/lvgl/src/indev/lv_indev_scroll.c ****                     indev->pointer.scroll_area.y1 = find_snap_point_y(obj, y_mid + 1, LV_COORD_MAX,
 1016              		.loc 1 461 87 discriminator 1 view .LVU310
 1017              	.LBE86:
 467:../../Middlewares/LVGL/GUI/lvgl/src/indev/lv_indev_scroll.c ****                 indev->pointer.scroll_area.y2 = LV_COORD_MAX;
 1018              		.loc 1 467 17 is_stmt 1 view .LVU311
 467:../../Middlewares/LVGL/GUI/lvgl/src/indev/lv_indev_scroll.c ****                 indev->pointer.scroll_area.y2 = LV_COORD_MAX;
 1019              		.loc 1 467 47 is_stmt 0 view .LVU312
 1020 013e 224B     		ldr	r3, .L66
 1021 0140 C4F88030 		str	r3, [r4, #128]
 468:../../Middlewares/LVGL/GUI/lvgl/src/indev/lv_indev_scroll.c ****                 break;
 1022              		.loc 1 468 17 is_stmt 1 view .LVU313
 468:../../Middlewares/LVGL/GUI/lvgl/src/indev/lv_indev_scroll.c ****                 break;
 1023              		.loc 1 468 47 is_stmt 0 view .LVU314
 1024 0144 6FF06043 		mvn	r3, #-536870912
 1025 0148 C4F88830 		str	r3, [r4, #136]
 469:../../Middlewares/LVGL/GUI/lvgl/src/indev/lv_indev_scroll.c ****         }
 1026              		.loc 1 469 17 is_stmt 1 view .LVU315
 1027 014c ADE7     		b	.L49
 1028              	.L51:
 478:../../Middlewares/LVGL/GUI/lvgl/src/indev/lv_indev_scroll.c ****                 indev->pointer.scroll_area.x2 = find_snap_point_x(obj, LV_COORD_MIN, obj->coords.x2
 1029              		.loc 1 478 17 view .LVU316
 478:../../Middlewares/LVGL/GUI/lvgl/src/indev/lv_indev_scroll.c ****                 indev->pointer.scroll_area.x2 = find_snap_point_x(obj, LV_COORD_MIN, obj->coords.x2
 1030              		.loc 1 478 49 is_stmt 0 view .LVU317
 1031 014e 0023     		movs	r3, #0
 1032 0150 6FF06042 		mvn	r2, #-536870912
 1033 0154 E969     		ldr	r1, [r5, #28]
 1034 0156 2846     		mov	r0, r5
 1035 0158 FFF7FEFF 		bl	find_snap_point_x
 1036              	.LVL100:
 478:../../Middlewares/LVGL/GUI/lvgl/src/indev/lv_indev_scroll.c ****                 indev->pointer.scroll_area.x2 = find_snap_point_x(obj, LV_COORD_MIN, obj->coords.x2
 1037              		.loc 1 478 47 discriminator 1 view .LVU318
 1038 015c E067     		str	r0, [r4, #124]
 479:../../Middlewares/LVGL/GUI/lvgl/src/indev/lv_indev_scroll.c ****                 break;
 1039              		.loc 1 479 17 is_stmt 1 view .LVU319
 479:../../Middlewares/LVGL/GUI/lvgl/src/indev/lv_indev_scroll.c ****                 break;
 1040              		.loc 1 479 49 is_stmt 0 view .LVU320
 1041 015e 0023     		movs	r3, #0
 1042 0160 EA69     		ldr	r2, [r5, #28]
 1043 0162 1949     		ldr	r1, .L66
 1044 0164 2846     		mov	r0, r5
 1045 0166 FFF7FEFF 		bl	find_snap_point_x
 1046              	.LVL101:
 479:../../Middlewares/LVGL/GUI/lvgl/src/indev/lv_indev_scroll.c ****                 break;
 1047              		.loc 1 479 47 discriminator 1 view .LVU321
ARM GAS  C:\Users\28576\AppData\Local\Temp\ccZznpky.s 			page 38


 1048 016a C4F88400 		str	r0, [r4, #132]
 480:../../Middlewares/LVGL/GUI/lvgl/src/indev/lv_indev_scroll.c ****             case LV_SCROLL_SNAP_CENTER: {
 1049              		.loc 1 480 17 is_stmt 1 view .LVU322
 1050 016e 59E7     		b	.L45
 1051              	.L52:
 1052              	.LBB87:
 482:../../Middlewares/LVGL/GUI/lvgl/src/indev/lv_indev_scroll.c ****                     indev->pointer.scroll_area.x1 = find_snap_point_x(obj, x_mid + 1, LV_COORD_MAX,
 1053              		.loc 1 482 21 view .LVU323
 482:../../Middlewares/LVGL/GUI/lvgl/src/indev/lv_indev_scroll.c ****                     indev->pointer.scroll_area.x1 = find_snap_point_x(obj, x_mid + 1, LV_COORD_MAX,
 1054              		.loc 1 482 48 is_stmt 0 view .LVU324
 1055 0170 2846     		mov	r0, r5
 1056 0172 50F8143F 		ldr	r3, [r0, #20]!
 1057 0176 1E46     		mov	r6, r3
 482:../../Middlewares/LVGL/GUI/lvgl/src/indev/lv_indev_scroll.c ****                     indev->pointer.scroll_area.x1 = find_snap_point_x(obj, x_mid + 1, LV_COORD_MAX,
 1058              		.loc 1 482 54 view .LVU325
 1059 0178 FFF7FEFF 		bl	lv_area_get_width
 1060              	.LVL102:
 482:../../Middlewares/LVGL/GUI/lvgl/src/indev/lv_indev_scroll.c ****                     indev->pointer.scroll_area.x1 = find_snap_point_x(obj, x_mid + 1, LV_COORD_MAX,
 1061              		.loc 1 482 86 discriminator 1 view .LVU326
 1062 017c 0028     		cmp	r0, #0
 1063 017e 12DB     		blt	.L65
 1064              	.L54:
 482:../../Middlewares/LVGL/GUI/lvgl/src/indev/lv_indev_scroll.c ****                     indev->pointer.scroll_area.x1 = find_snap_point_x(obj, x_mid + 1, LV_COORD_MAX,
 1065              		.loc 1 482 29 discriminator 1 view .LVU327
 1066 0180 06EB6006 		add	r6, r6, r0, asr #1
 1067              	.LVL103:
 483:../../Middlewares/LVGL/GUI/lvgl/src/indev/lv_indev_scroll.c ****                     indev->pointer.scroll_area.x2 = find_snap_point_x(obj, LV_COORD_MIN, x_mid - 1,
 1068              		.loc 1 483 21 is_stmt 1 view .LVU328
 483:../../Middlewares/LVGL/GUI/lvgl/src/indev/lv_indev_scroll.c ****                     indev->pointer.scroll_area.x2 = find_snap_point_x(obj, LV_COORD_MIN, x_mid - 1,
 1069              		.loc 1 483 53 is_stmt 0 view .LVU329
 1070 0184 0023     		movs	r3, #0
 1071 0186 6FF06042 		mvn	r2, #-536870912
 1072 018a 711C     		adds	r1, r6, #1
 1073 018c 2846     		mov	r0, r5
 1074 018e FFF7FEFF 		bl	find_snap_point_x
 1075              	.LVL104:
 483:../../Middlewares/LVGL/GUI/lvgl/src/indev/lv_indev_scroll.c ****                     indev->pointer.scroll_area.x2 = find_snap_point_x(obj, LV_COORD_MIN, x_mid - 1,
 1076              		.loc 1 483 51 discriminator 1 view .LVU330
 1077 0192 E067     		str	r0, [r4, #124]
 484:../../Middlewares/LVGL/GUI/lvgl/src/indev/lv_indev_scroll.c ****                     break;
 1078              		.loc 1 484 21 is_stmt 1 view .LVU331
 484:../../Middlewares/LVGL/GUI/lvgl/src/indev/lv_indev_scroll.c ****                     break;
 1079              		.loc 1 484 53 is_stmt 0 view .LVU332
 1080 0194 0023     		movs	r3, #0
 1081 0196 721E     		subs	r2, r6, #1
 1082 0198 0B49     		ldr	r1, .L66
 1083 019a 2846     		mov	r0, r5
 1084 019c FFF7FEFF 		bl	find_snap_point_x
 1085              	.LVL105:
 484:../../Middlewares/LVGL/GUI/lvgl/src/indev/lv_indev_scroll.c ****                     break;
 1086              		.loc 1 484 51 discriminator 1 view .LVU333
 1087 01a0 C4F88400 		str	r0, [r4, #132]
 485:../../Middlewares/LVGL/GUI/lvgl/src/indev/lv_indev_scroll.c ****                 }
 1088              		.loc 1 485 21 is_stmt 1 view .LVU334
 1089 01a4 3EE7     		b	.L45
 1090              	.LVL106:
 1091              	.L65:
ARM GAS  C:\Users\28576\AppData\Local\Temp\ccZznpky.s 			page 39


 482:../../Middlewares/LVGL/GUI/lvgl/src/indev/lv_indev_scroll.c ****                     indev->pointer.scroll_area.x1 = find_snap_point_x(obj, x_mid + 1, LV_COORD_MAX,
 1092              		.loc 1 482 86 is_stmt 0 discriminator 1 view .LVU335
 1093 01a6 0130     		adds	r0, r0, #1
 1094 01a8 EAE7     		b	.L54
 1095              	.L53:
 482:../../Middlewares/LVGL/GUI/lvgl/src/indev/lv_indev_scroll.c ****                     indev->pointer.scroll_area.x1 = find_snap_point_x(obj, x_mid + 1, LV_COORD_MAX,
 1096              		.loc 1 482 86 discriminator 1 view .LVU336
 1097              	.LBE87:
 488:../../Middlewares/LVGL/GUI/lvgl/src/indev/lv_indev_scroll.c ****                 indev->pointer.scroll_area.x2 = LV_COORD_MAX;
 1098              		.loc 1 488 17 is_stmt 1 view .LVU337
 488:../../Middlewares/LVGL/GUI/lvgl/src/indev/lv_indev_scroll.c ****                 indev->pointer.scroll_area.x2 = LV_COORD_MAX;
 1099              		.loc 1 488 47 is_stmt 0 view .LVU338
 1100 01aa 074B     		ldr	r3, .L66
 1101 01ac E367     		str	r3, [r4, #124]
 489:../../Middlewares/LVGL/GUI/lvgl/src/indev/lv_indev_scroll.c ****                 break;
 1102              		.loc 1 489 17 is_stmt 1 view .LVU339
 489:../../Middlewares/LVGL/GUI/lvgl/src/indev/lv_indev_scroll.c ****                 break;
 1103              		.loc 1 489 47 is_stmt 0 view .LVU340
 1104 01ae 6FF06043 		mvn	r3, #-536870912
 1105 01b2 C4F88430 		str	r3, [r4, #132]
 490:../../Middlewares/LVGL/GUI/lvgl/src/indev/lv_indev_scroll.c ****         }
 1106              		.loc 1 490 17 is_stmt 1 view .LVU341
 1107 01b6 35E7     		b	.L45
 1108              	.L62:
 496:../../Middlewares/LVGL/GUI/lvgl/src/indev/lv_indev_scroll.c ****     if(indev->pointer.scroll_area.y1 == LV_COORD_MAX) indev->pointer.scroll_area.y1 = LV_COORD_MIN;
 1109              		.loc 1 496 55 discriminator 1 view .LVU342
 496:../../Middlewares/LVGL/GUI/lvgl/src/indev/lv_indev_scroll.c ****     if(indev->pointer.scroll_area.y1 == LV_COORD_MAX) indev->pointer.scroll_area.y1 = LV_COORD_MIN;
 1110              		.loc 1 496 85 is_stmt 0 discriminator 1 view .LVU343
 1111 01b8 034B     		ldr	r3, .L66
 1112 01ba E367     		str	r3, [r4, #124]
 1113 01bc 38E7     		b	.L55
 1114              	.L63:
 497:../../Middlewares/LVGL/GUI/lvgl/src/indev/lv_indev_scroll.c **** 
 1115              		.loc 1 497 55 is_stmt 1 discriminator 1 view .LVU344
 497:../../Middlewares/LVGL/GUI/lvgl/src/indev/lv_indev_scroll.c **** 
 1116              		.loc 1 497 85 is_stmt 0 discriminator 1 view .LVU345
 1117 01be 024B     		ldr	r3, .L66
 1118 01c0 C4F88030 		str	r3, [r4, #128]
 1119 01c4 3BE7     		b	.L56
 1120              	.L67:
 1121 01c6 00BF     		.align	2
 1122              	.L66:
 1123 01c8 010000E0 		.word	-536870911
 1124              		.cfi_endproc
 1125              	.LFE177:
 1127              		.section	.text.has_more_snap_points,"ax",%progbits
 1128              		.align	1
 1129              		.syntax unified
 1130              		.thumb
 1131              		.thumb_func
 1133              	has_more_snap_points:
 1134              	.LVL107:
 1135              	.LFB182:
 640:../../Middlewares/LVGL/GUI/lvgl/src/indev/lv_indev_scroll.c **** 
 641:../../Middlewares/LVGL/GUI/lvgl/src/indev/lv_indev_scroll.c **** static int32_t elastic_diff(lv_obj_t * scroll_obj, int32_t diff, int32_t scroll_start, int32_t scro
 642:../../Middlewares/LVGL/GUI/lvgl/src/indev/lv_indev_scroll.c ****                             lv_dir_t dir)
 643:../../Middlewares/LVGL/GUI/lvgl/src/indev/lv_indev_scroll.c **** {
ARM GAS  C:\Users\28576\AppData\Local\Temp\ccZznpky.s 			page 40


 644:../../Middlewares/LVGL/GUI/lvgl/src/indev/lv_indev_scroll.c ****     if(diff == 0) return 0;
 645:../../Middlewares/LVGL/GUI/lvgl/src/indev/lv_indev_scroll.c **** 
 646:../../Middlewares/LVGL/GUI/lvgl/src/indev/lv_indev_scroll.c ****     /*Scroll back to the edge if required*/
 647:../../Middlewares/LVGL/GUI/lvgl/src/indev/lv_indev_scroll.c ****     if(!lv_obj_has_flag(scroll_obj, LV_OBJ_FLAG_SCROLL_ELASTIC)) {
 648:../../Middlewares/LVGL/GUI/lvgl/src/indev/lv_indev_scroll.c ****         /*
 649:../../Middlewares/LVGL/GUI/lvgl/src/indev/lv_indev_scroll.c ****          * If the scrolling object does not set the `LV_OBJ_FLAG_SCROLL_ELASTIC` flag,
 650:../../Middlewares/LVGL/GUI/lvgl/src/indev/lv_indev_scroll.c ****          * make sure that `diff` will not cause the scroll to exceed the `start` or `end` boundary 
 651:../../Middlewares/LVGL/GUI/lvgl/src/indev/lv_indev_scroll.c ****          * If the content has exceeded the boundary due to external factors like `LV_SCROLL_SNAP_CE
 652:../../Middlewares/LVGL/GUI/lvgl/src/indev/lv_indev_scroll.c ****          * then respect the current position instead of going straight back to 0.
 653:../../Middlewares/LVGL/GUI/lvgl/src/indev/lv_indev_scroll.c ****          */
 654:../../Middlewares/LVGL/GUI/lvgl/src/indev/lv_indev_scroll.c ****         const int32_t scroll_ended = diff > 0 ? scroll_start : scroll_end;
 655:../../Middlewares/LVGL/GUI/lvgl/src/indev/lv_indev_scroll.c ****         if(scroll_ended < 0) diff = 0;
 656:../../Middlewares/LVGL/GUI/lvgl/src/indev/lv_indev_scroll.c ****         else if(scroll_ended - diff < 0) diff = scroll_ended;
 657:../../Middlewares/LVGL/GUI/lvgl/src/indev/lv_indev_scroll.c ****     }
 658:../../Middlewares/LVGL/GUI/lvgl/src/indev/lv_indev_scroll.c ****     /*Handle elastic scrolling*/
 659:../../Middlewares/LVGL/GUI/lvgl/src/indev/lv_indev_scroll.c ****     else {
 660:../../Middlewares/LVGL/GUI/lvgl/src/indev/lv_indev_scroll.c **** 
 661:../../Middlewares/LVGL/GUI/lvgl/src/indev/lv_indev_scroll.c ****         lv_scroll_snap_t snap;
 662:../../Middlewares/LVGL/GUI/lvgl/src/indev/lv_indev_scroll.c ****         snap = dir == LV_DIR_HOR ? lv_obj_get_scroll_snap_x(scroll_obj) : lv_obj_get_scroll_snap_y(
 663:../../Middlewares/LVGL/GUI/lvgl/src/indev/lv_indev_scroll.c **** 
 664:../../Middlewares/LVGL/GUI/lvgl/src/indev/lv_indev_scroll.c ****         /*Without snapping just scale down the diff when scrolled out*/
 665:../../Middlewares/LVGL/GUI/lvgl/src/indev/lv_indev_scroll.c ****         if(snap == LV_SCROLL_SNAP_NONE) {
 666:../../Middlewares/LVGL/GUI/lvgl/src/indev/lv_indev_scroll.c ****             if(scroll_end < 0 || scroll_start < 0) {
 667:../../Middlewares/LVGL/GUI/lvgl/src/indev/lv_indev_scroll.c ****                 /*Rounding*/
 668:../../Middlewares/LVGL/GUI/lvgl/src/indev/lv_indev_scroll.c ****                 if(diff < 0) diff -= ELASTIC_SLOWNESS_FACTOR / 2;
 669:../../Middlewares/LVGL/GUI/lvgl/src/indev/lv_indev_scroll.c ****                 if(diff > 0) diff += ELASTIC_SLOWNESS_FACTOR / 2;
 670:../../Middlewares/LVGL/GUI/lvgl/src/indev/lv_indev_scroll.c ****                 return diff / ELASTIC_SLOWNESS_FACTOR;
 671:../../Middlewares/LVGL/GUI/lvgl/src/indev/lv_indev_scroll.c ****             }
 672:../../Middlewares/LVGL/GUI/lvgl/src/indev/lv_indev_scroll.c ****             else {
 673:../../Middlewares/LVGL/GUI/lvgl/src/indev/lv_indev_scroll.c ****                 return diff;
 674:../../Middlewares/LVGL/GUI/lvgl/src/indev/lv_indev_scroll.c ****             }
 675:../../Middlewares/LVGL/GUI/lvgl/src/indev/lv_indev_scroll.c ****         }
 676:../../Middlewares/LVGL/GUI/lvgl/src/indev/lv_indev_scroll.c **** 
 677:../../Middlewares/LVGL/GUI/lvgl/src/indev/lv_indev_scroll.c ****         /*With snapping the widget is scrolled out if there are no more snap points
 678:../../Middlewares/LVGL/GUI/lvgl/src/indev/lv_indev_scroll.c ****          *at least in one direction (start or end)*/
 679:../../Middlewares/LVGL/GUI/lvgl/src/indev/lv_indev_scroll.c ****         bool has_start_snap;
 680:../../Middlewares/LVGL/GUI/lvgl/src/indev/lv_indev_scroll.c ****         bool has_end_snap;
 681:../../Middlewares/LVGL/GUI/lvgl/src/indev/lv_indev_scroll.c ****         has_more_snap_points(scroll_obj, dir, &has_start_snap, &has_end_snap);
 682:../../Middlewares/LVGL/GUI/lvgl/src/indev/lv_indev_scroll.c **** 
 683:../../Middlewares/LVGL/GUI/lvgl/src/indev/lv_indev_scroll.c ****         if(!has_start_snap || !has_end_snap) {
 684:../../Middlewares/LVGL/GUI/lvgl/src/indev/lv_indev_scroll.c ****             /*Rounding*/
 685:../../Middlewares/LVGL/GUI/lvgl/src/indev/lv_indev_scroll.c ****             if(diff < 0) diff -= ELASTIC_SLOWNESS_FACTOR / 2;
 686:../../Middlewares/LVGL/GUI/lvgl/src/indev/lv_indev_scroll.c ****             if(diff > 0) diff += ELASTIC_SLOWNESS_FACTOR / 2;
 687:../../Middlewares/LVGL/GUI/lvgl/src/indev/lv_indev_scroll.c ****             return diff / ELASTIC_SLOWNESS_FACTOR;
 688:../../Middlewares/LVGL/GUI/lvgl/src/indev/lv_indev_scroll.c ****         }
 689:../../Middlewares/LVGL/GUI/lvgl/src/indev/lv_indev_scroll.c ****         else {
 690:../../Middlewares/LVGL/GUI/lvgl/src/indev/lv_indev_scroll.c ****             return diff;
 691:../../Middlewares/LVGL/GUI/lvgl/src/indev/lv_indev_scroll.c ****         }
 692:../../Middlewares/LVGL/GUI/lvgl/src/indev/lv_indev_scroll.c ****     }
 693:../../Middlewares/LVGL/GUI/lvgl/src/indev/lv_indev_scroll.c **** 
 694:../../Middlewares/LVGL/GUI/lvgl/src/indev/lv_indev_scroll.c ****     return diff;
 695:../../Middlewares/LVGL/GUI/lvgl/src/indev/lv_indev_scroll.c **** }
 696:../../Middlewares/LVGL/GUI/lvgl/src/indev/lv_indev_scroll.c **** 
 697:../../Middlewares/LVGL/GUI/lvgl/src/indev/lv_indev_scroll.c **** /**
 698:../../Middlewares/LVGL/GUI/lvgl/src/indev/lv_indev_scroll.c ****  * Tell is there are more snap point in a given direction considering snap position.
 699:../../Middlewares/LVGL/GUI/lvgl/src/indev/lv_indev_scroll.c ****  * There is a snap point if there is a snapanble object in the given direction
 700:../../Middlewares/LVGL/GUI/lvgl/src/indev/lv_indev_scroll.c ****  * @param scroll_obj        the object on which snap points should be found
ARM GAS  C:\Users\28576\AppData\Local\Temp\ccZznpky.s 			page 41


 701:../../Middlewares/LVGL/GUI/lvgl/src/indev/lv_indev_scroll.c ****  * @param dir               LV_DIR_HOR or LV_DIR_VER
 702:../../Middlewares/LVGL/GUI/lvgl/src/indev/lv_indev_scroll.c ****  * @param has_start_snap    true: there is snap point in the start direction (top or left depending
 703:../../Middlewares/LVGL/GUI/lvgl/src/indev/lv_indev_scroll.c ****  * @param has_end_snap      true: there is snap point in the end direction (bottom or right dependi
 704:../../Middlewares/LVGL/GUI/lvgl/src/indev/lv_indev_scroll.c ****  * @note snap points will be searched relative to the
 705:../../Middlewares/LVGL/GUI/lvgl/src/indev/lv_indev_scroll.c ****  *       center point in case of LV_SCROLL_SNAP_CENTER
 706:../../Middlewares/LVGL/GUI/lvgl/src/indev/lv_indev_scroll.c ****  *       start point (top or left) in case of LV_SCROLL_SNAP_START
 707:../../Middlewares/LVGL/GUI/lvgl/src/indev/lv_indev_scroll.c ****  *       end point (bottom or right) in case of LV_SCROLL_SNAP_END
 708:../../Middlewares/LVGL/GUI/lvgl/src/indev/lv_indev_scroll.c ****  */
 709:../../Middlewares/LVGL/GUI/lvgl/src/indev/lv_indev_scroll.c **** static void has_more_snap_points(lv_obj_t * scroll_obj, lv_dir_t dir, bool * has_start_snap, bool *
 710:../../Middlewares/LVGL/GUI/lvgl/src/indev/lv_indev_scroll.c **** {
 1136              		.loc 1 710 1 is_stmt 1 view -0
 1137              		.cfi_startproc
 1138              		@ args = 0, pretend = 0, frame = 8
 1139              		@ frame_needed = 0, uses_anonymous_args = 0
 1140              		.loc 1 710 1 is_stmt 0 view .LVU347
 1141 0000 2DE9F043 		push	{r4, r5, r6, r7, r8, r9, lr}
 1142              	.LCFI13:
 1143              		.cfi_def_cfa_offset 28
 1144              		.cfi_offset 4, -28
 1145              		.cfi_offset 5, -24
 1146              		.cfi_offset 6, -20
 1147              		.cfi_offset 7, -16
 1148              		.cfi_offset 8, -12
 1149              		.cfi_offset 9, -8
 1150              		.cfi_offset 14, -4
 1151 0004 83B0     		sub	sp, sp, #12
 1152              	.LCFI14:
 1153              		.cfi_def_cfa_offset 40
 1154 0006 0446     		mov	r4, r0
 1155 0008 0D46     		mov	r5, r1
 1156 000a 1746     		mov	r7, r2
 1157 000c 1946     		mov	r1, r3
 1158              	.LVL108:
 1159              		.loc 1 710 1 view .LVU348
 1160 000e 9846     		mov	r8, r3
 711:../../Middlewares/LVGL/GUI/lvgl/src/indev/lv_indev_scroll.c ****     *has_start_snap = true;
 1161              		.loc 1 711 5 is_stmt 1 view .LVU349
 1162              		.loc 1 711 21 is_stmt 0 view .LVU350
 1163 0010 0123     		movs	r3, #1
 1164              	.LVL109:
 1165              		.loc 1 711 21 view .LVU351
 1166 0012 1370     		strb	r3, [r2]
 712:../../Middlewares/LVGL/GUI/lvgl/src/indev/lv_indev_scroll.c ****     *has_end_snap = true;
 1167              		.loc 1 712 5 is_stmt 1 view .LVU352
 1168              		.loc 1 712 19 is_stmt 0 view .LVU353
 1169 0014 0B70     		strb	r3, [r1]
 713:../../Middlewares/LVGL/GUI/lvgl/src/indev/lv_indev_scroll.c ****     lv_scroll_snap_t snap;
 1170              		.loc 1 713 5 is_stmt 1 view .LVU354
 714:../../Middlewares/LVGL/GUI/lvgl/src/indev/lv_indev_scroll.c ****     snap = dir == LV_DIR_HOR ? lv_obj_get_scroll_snap_x(scroll_obj) : lv_obj_get_scroll_snap_y(scro
 1171              		.loc 1 714 5 view .LVU355
 1172              		.loc 1 714 69 is_stmt 0 view .LVU356
 1173 0016 032D     		cmp	r5, #3
 1174 0018 0DD0     		beq	.L86
 1175              		.loc 1 714 71 discriminator 2 view .LVU357
 1176 001a FFF7FEFF 		bl	lv_obj_get_scroll_snap_y
 1177              	.LVL110:
 1178              	.L70:
ARM GAS  C:\Users\28576\AppData\Local\Temp\ccZznpky.s 			page 42


 715:../../Middlewares/LVGL/GUI/lvgl/src/indev/lv_indev_scroll.c **** 
 716:../../Middlewares/LVGL/GUI/lvgl/src/indev/lv_indev_scroll.c ****     if(dir == LV_DIR_HOR) {
 1179              		.loc 1 716 5 is_stmt 1 view .LVU358
 1180              		.loc 1 716 7 is_stmt 0 view .LVU359
 1181 001e 032D     		cmp	r5, #3
 1182 0020 0CD0     		beq	.L87
 1183              	.LBB88:
 717:../../Middlewares/LVGL/GUI/lvgl/src/indev/lv_indev_scroll.c ****         int32_t x = 0;
 718:../../Middlewares/LVGL/GUI/lvgl/src/indev/lv_indev_scroll.c ****         switch(snap) {
 719:../../Middlewares/LVGL/GUI/lvgl/src/indev/lv_indev_scroll.c ****             case LV_SCROLL_SNAP_CENTER: {
 720:../../Middlewares/LVGL/GUI/lvgl/src/indev/lv_indev_scroll.c ****                     int32_t pad_left = lv_obj_get_style_pad_left(scroll_obj, 0);
 721:../../Middlewares/LVGL/GUI/lvgl/src/indev/lv_indev_scroll.c ****                     int32_t pad_right = lv_obj_get_style_pad_right(scroll_obj, 0);
 722:../../Middlewares/LVGL/GUI/lvgl/src/indev/lv_indev_scroll.c ****                     x = scroll_obj->coords.x1;
 723:../../Middlewares/LVGL/GUI/lvgl/src/indev/lv_indev_scroll.c ****                     x += (lv_area_get_width(&scroll_obj->coords) - pad_left - pad_right) / 2;
 724:../../Middlewares/LVGL/GUI/lvgl/src/indev/lv_indev_scroll.c ****                     x += pad_left;
 725:../../Middlewares/LVGL/GUI/lvgl/src/indev/lv_indev_scroll.c ****                 }
 726:../../Middlewares/LVGL/GUI/lvgl/src/indev/lv_indev_scroll.c ****                 break;
 727:../../Middlewares/LVGL/GUI/lvgl/src/indev/lv_indev_scroll.c ****             case LV_SCROLL_SNAP_START:
 728:../../Middlewares/LVGL/GUI/lvgl/src/indev/lv_indev_scroll.c ****                 x = scroll_obj->coords.x1 + lv_obj_get_style_pad_left(scroll_obj, 0);
 729:../../Middlewares/LVGL/GUI/lvgl/src/indev/lv_indev_scroll.c ****                 break;
 730:../../Middlewares/LVGL/GUI/lvgl/src/indev/lv_indev_scroll.c ****             case LV_SCROLL_SNAP_END:
 731:../../Middlewares/LVGL/GUI/lvgl/src/indev/lv_indev_scroll.c ****                 x = scroll_obj->coords.x2 - lv_obj_get_style_pad_right(scroll_obj, 0);
 732:../../Middlewares/LVGL/GUI/lvgl/src/indev/lv_indev_scroll.c ****                 break;
 733:../../Middlewares/LVGL/GUI/lvgl/src/indev/lv_indev_scroll.c ****             default:
 734:../../Middlewares/LVGL/GUI/lvgl/src/indev/lv_indev_scroll.c ****                 break;
 735:../../Middlewares/LVGL/GUI/lvgl/src/indev/lv_indev_scroll.c ****         }
 736:../../Middlewares/LVGL/GUI/lvgl/src/indev/lv_indev_scroll.c ****         int32_t d;
 737:../../Middlewares/LVGL/GUI/lvgl/src/indev/lv_indev_scroll.c ****         d = find_snap_point_x(scroll_obj, x + 1, LV_COORD_MAX, 0);
 738:../../Middlewares/LVGL/GUI/lvgl/src/indev/lv_indev_scroll.c ****         if(d == LV_COORD_MAX) *has_end_snap = false;
 739:../../Middlewares/LVGL/GUI/lvgl/src/indev/lv_indev_scroll.c ****         d = find_snap_point_x(scroll_obj, LV_COORD_MIN, x - 1, 0);
 740:../../Middlewares/LVGL/GUI/lvgl/src/indev/lv_indev_scroll.c ****         if(d == LV_COORD_MAX) *has_start_snap = false;
 741:../../Middlewares/LVGL/GUI/lvgl/src/indev/lv_indev_scroll.c ****     }
 742:../../Middlewares/LVGL/GUI/lvgl/src/indev/lv_indev_scroll.c ****     else {
 743:../../Middlewares/LVGL/GUI/lvgl/src/indev/lv_indev_scroll.c ****         int32_t y = 0;
 1184              		.loc 1 743 9 is_stmt 1 view .LVU360
 1185              	.LVL111:
 744:../../Middlewares/LVGL/GUI/lvgl/src/indev/lv_indev_scroll.c ****         switch(snap) {
 1186              		.loc 1 744 9 view .LVU361
 1187 0022 0228     		cmp	r0, #2
 1188 0024 00F09980 		beq	.L79
 1189 0028 0328     		cmp	r0, #3
 1190 002a 59D0     		beq	.L80
 1191 002c 0128     		cmp	r0, #1
 1192 002e 00F08B80 		beq	.L81
 1193 0032 0025     		movs	r5, #0
 1194              	.LVL112:
 1195              		.loc 1 744 9 is_stmt 0 view .LVU362
 1196 0034 6EE0     		b	.L82
 1197              	.LVL113:
 1198              	.L86:
 1199              		.loc 1 744 9 view .LVU363
 1200              	.LBE88:
 714:../../Middlewares/LVGL/GUI/lvgl/src/indev/lv_indev_scroll.c **** 
 1201              		.loc 1 714 32 discriminator 1 view .LVU364
 1202 0036 FFF7FEFF 		bl	lv_obj_get_scroll_snap_x
 1203              	.LVL114:
 714:../../Middlewares/LVGL/GUI/lvgl/src/indev/lv_indev_scroll.c **** 
ARM GAS  C:\Users\28576\AppData\Local\Temp\ccZznpky.s 			page 43


 1204              		.loc 1 714 32 discriminator 1 view .LVU365
 1205 003a F0E7     		b	.L70
 1206              	.L87:
 1207              	.LBB99:
 717:../../Middlewares/LVGL/GUI/lvgl/src/indev/lv_indev_scroll.c ****         int32_t x = 0;
 1208              		.loc 1 717 9 is_stmt 1 view .LVU366
 1209              	.LVL115:
 718:../../Middlewares/LVGL/GUI/lvgl/src/indev/lv_indev_scroll.c ****             case LV_SCROLL_SNAP_CENTER: {
 1210              		.loc 1 718 9 view .LVU367
 1211 003c 0228     		cmp	r0, #2
 1212 003e 42D0     		beq	.L72
 1213 0040 0328     		cmp	r0, #3
 1214 0042 1AD0     		beq	.L73
 1215 0044 0128     		cmp	r0, #1
 1216 0046 35D0     		beq	.L74
 1217 0048 0025     		movs	r5, #0
 1218              	.LVL116:
 1219              	.L75:
 736:../../Middlewares/LVGL/GUI/lvgl/src/indev/lv_indev_scroll.c ****         d = find_snap_point_x(scroll_obj, x + 1, LV_COORD_MAX, 0);
 1220              		.loc 1 736 9 view .LVU368
 737:../../Middlewares/LVGL/GUI/lvgl/src/indev/lv_indev_scroll.c ****         if(d == LV_COORD_MAX) *has_end_snap = false;
 1221              		.loc 1 737 9 view .LVU369
 737:../../Middlewares/LVGL/GUI/lvgl/src/indev/lv_indev_scroll.c ****         if(d == LV_COORD_MAX) *has_end_snap = false;
 1222              		.loc 1 737 13 is_stmt 0 view .LVU370
 1223 004a 0023     		movs	r3, #0
 1224 004c 6FF06042 		mvn	r2, #-536870912
 1225 0050 691C     		adds	r1, r5, #1
 1226 0052 2046     		mov	r0, r4
 1227 0054 FFF7FEFF 		bl	find_snap_point_x
 1228              	.LVL117:
 738:../../Middlewares/LVGL/GUI/lvgl/src/indev/lv_indev_scroll.c ****         d = find_snap_point_x(scroll_obj, LV_COORD_MIN, x - 1, 0);
 1229              		.loc 1 738 9 is_stmt 1 view .LVU371
 738:../../Middlewares/LVGL/GUI/lvgl/src/indev/lv_indev_scroll.c ****         d = find_snap_point_x(scroll_obj, LV_COORD_MIN, x - 1, 0);
 1230              		.loc 1 738 11 is_stmt 0 view .LVU372
 1231 0058 6FF06043 		mvn	r3, #-536870912
 1232 005c 9842     		cmp	r0, r3
 1233 005e 3BD0     		beq	.L88
 1234              	.L77:
 739:../../Middlewares/LVGL/GUI/lvgl/src/indev/lv_indev_scroll.c ****         if(d == LV_COORD_MAX) *has_start_snap = false;
 1235              		.loc 1 739 9 is_stmt 1 view .LVU373
 739:../../Middlewares/LVGL/GUI/lvgl/src/indev/lv_indev_scroll.c ****         if(d == LV_COORD_MAX) *has_start_snap = false;
 1236              		.loc 1 739 13 is_stmt 0 view .LVU374
 1237 0060 0023     		movs	r3, #0
 1238 0062 6A1E     		subs	r2, r5, #1
 1239 0064 4549     		ldr	r1, .L93
 1240 0066 2046     		mov	r0, r4
 1241              	.LVL118:
 739:../../Middlewares/LVGL/GUI/lvgl/src/indev/lv_indev_scroll.c ****         if(d == LV_COORD_MAX) *has_start_snap = false;
 1242              		.loc 1 739 13 view .LVU375
 1243 0068 FFF7FEFF 		bl	find_snap_point_x
 1244              	.LVL119:
 740:../../Middlewares/LVGL/GUI/lvgl/src/indev/lv_indev_scroll.c ****     }
 1245              		.loc 1 740 9 is_stmt 1 view .LVU376
 740:../../Middlewares/LVGL/GUI/lvgl/src/indev/lv_indev_scroll.c ****     }
 1246              		.loc 1 740 11 is_stmt 0 view .LVU377
 1247 006c 6FF06043 		mvn	r3, #-536870912
 1248 0070 9842     		cmp	r0, r3
ARM GAS  C:\Users\28576\AppData\Local\Temp\ccZznpky.s 			page 44


 1249 0072 64D1     		bne	.L68
 740:../../Middlewares/LVGL/GUI/lvgl/src/indev/lv_indev_scroll.c ****     }
 1250              		.loc 1 740 31 is_stmt 1 discriminator 1 view .LVU378
 740:../../Middlewares/LVGL/GUI/lvgl/src/indev/lv_indev_scroll.c ****     }
 1251              		.loc 1 740 47 is_stmt 0 discriminator 1 view .LVU379
 1252 0074 0023     		movs	r3, #0
 1253 0076 3B70     		strb	r3, [r7]
 1254 0078 61E0     		b	.L68
 1255              	.LVL120:
 1256              	.L73:
 1257              	.LBB100:
 720:../../Middlewares/LVGL/GUI/lvgl/src/indev/lv_indev_scroll.c ****                     int32_t pad_right = lv_obj_get_style_pad_right(scroll_obj, 0);
 1258              		.loc 1 720 21 is_stmt 1 view .LVU380
 1259              	.LBB101:
 1260              	.LBI101:
 166:../../Middlewares/LVGL/GUI/lvgl/src/indev/../core/lv_obj_style_gen.h **** {
 1261              		.loc 2 166 23 view .LVU381
 1262              	.LBB102:
 168:../../Middlewares/LVGL/GUI/lvgl/src/indev/../core/lv_obj_style_gen.h ****     return (int32_t)v.num;
 1263              		.loc 2 168 5 view .LVU382
 168:../../Middlewares/LVGL/GUI/lvgl/src/indev/../core/lv_obj_style_gen.h ****     return (int32_t)v.num;
 1264              		.loc 2 168 26 is_stmt 0 view .LVU383
 1265 007a 1222     		movs	r2, #18
 1266 007c 0021     		movs	r1, #0
 1267 007e 2046     		mov	r0, r4
 1268              	.LVL121:
 168:../../Middlewares/LVGL/GUI/lvgl/src/indev/../core/lv_obj_style_gen.h ****     return (int32_t)v.num;
 1269              		.loc 2 168 26 view .LVU384
 1270 0080 FFF7FEFF 		bl	lv_obj_get_style_prop
 1271              	.LVL122:
 1272 0084 0646     		mov	r6, r0
 1273 0086 0190     		str	r0, [sp, #4]
 169:../../Middlewares/LVGL/GUI/lvgl/src/indev/../core/lv_obj_style_gen.h **** }
 1274              		.loc 2 169 5 is_stmt 1 view .LVU385
 1275              	.LVL123:
 169:../../Middlewares/LVGL/GUI/lvgl/src/indev/../core/lv_obj_style_gen.h **** }
 1276              		.loc 2 169 5 is_stmt 0 view .LVU386
 1277              	.LBE102:
 1278              	.LBE101:
 721:../../Middlewares/LVGL/GUI/lvgl/src/indev/lv_indev_scroll.c ****                     x = scroll_obj->coords.x1;
 1279              		.loc 1 721 21 is_stmt 1 view .LVU387
 1280              	.LBB103:
 1281              	.LBI103:
 172:../../Middlewares/LVGL/GUI/lvgl/src/indev/../core/lv_obj_style_gen.h **** {
 1282              		.loc 2 172 23 view .LVU388
 1283              	.LBB104:
 174:../../Middlewares/LVGL/GUI/lvgl/src/indev/../core/lv_obj_style_gen.h ****     return (int32_t)v.num;
 1284              		.loc 2 174 5 view .LVU389
 174:../../Middlewares/LVGL/GUI/lvgl/src/indev/../core/lv_obj_style_gen.h ****     return (int32_t)v.num;
 1285              		.loc 2 174 26 is_stmt 0 view .LVU390
 1286 0088 1322     		movs	r2, #19
 1287 008a 0021     		movs	r1, #0
 1288 008c 2046     		mov	r0, r4
 1289              	.LVL124:
 174:../../Middlewares/LVGL/GUI/lvgl/src/indev/../core/lv_obj_style_gen.h ****     return (int32_t)v.num;
 1290              		.loc 2 174 26 view .LVU391
 1291 008e FFF7FEFF 		bl	lv_obj_get_style_prop
ARM GAS  C:\Users\28576\AppData\Local\Temp\ccZznpky.s 			page 45


 1292              	.LVL125:
 1293 0092 0546     		mov	r5, r0
 1294 0094 0190     		str	r0, [sp, #4]
 1295              		.loc 2 175 5 is_stmt 1 view .LVU392
 1296              	.LVL126:
 1297              		.loc 2 175 5 is_stmt 0 view .LVU393
 1298              	.LBE104:
 1299              	.LBE103:
 722:../../Middlewares/LVGL/GUI/lvgl/src/indev/lv_indev_scroll.c ****                     x += (lv_area_get_width(&scroll_obj->coords) - pad_left - pad_right) / 2;
 1300              		.loc 1 722 21 is_stmt 1 view .LVU394
 722:../../Middlewares/LVGL/GUI/lvgl/src/indev/lv_indev_scroll.c ****                     x += (lv_area_get_width(&scroll_obj->coords) - pad_left - pad_right) / 2;
 1301              		.loc 1 722 23 is_stmt 0 view .LVU395
 1302 0096 2046     		mov	r0, r4
 1303              	.LVL127:
 722:../../Middlewares/LVGL/GUI/lvgl/src/indev/lv_indev_scroll.c ****                     x += (lv_area_get_width(&scroll_obj->coords) - pad_left - pad_right) / 2;
 1304              		.loc 1 722 23 view .LVU396
 1305 0098 50F8143F 		ldr	r3, [r0, #20]!
 1306 009c 9946     		mov	r9, r3
 1307              	.LVL128:
 723:../../Middlewares/LVGL/GUI/lvgl/src/indev/lv_indev_scroll.c ****                     x += pad_left;
 1308              		.loc 1 723 21 is_stmt 1 view .LVU397
 723:../../Middlewares/LVGL/GUI/lvgl/src/indev/lv_indev_scroll.c ****                     x += pad_left;
 1309              		.loc 1 723 27 is_stmt 0 view .LVU398
 1310 009e FFF7FEFF 		bl	lv_area_get_width
 1311              	.LVL129:
 723:../../Middlewares/LVGL/GUI/lvgl/src/indev/lv_indev_scroll.c ****                     x += pad_left;
 1312              		.loc 1 723 66 discriminator 1 view .LVU399
 1313 00a2 831B     		subs	r3, r0, r6
 723:../../Middlewares/LVGL/GUI/lvgl/src/indev/lv_indev_scroll.c ****                     x += pad_left;
 1314              		.loc 1 723 90 discriminator 1 view .LVU400
 1315 00a4 5B1B     		subs	r3, r3, r5
 1316 00a6 03D4     		bmi	.L89
 1317              	.L76:
 723:../../Middlewares/LVGL/GUI/lvgl/src/indev/lv_indev_scroll.c ****                     x += pad_left;
 1318              		.loc 1 723 23 discriminator 1 view .LVU401
 1319 00a8 09EB6305 		add	r5, r9, r3, asr #1
 1320              	.LVL130:
 724:../../Middlewares/LVGL/GUI/lvgl/src/indev/lv_indev_scroll.c ****                 }
 1321              		.loc 1 724 21 is_stmt 1 view .LVU402
 724:../../Middlewares/LVGL/GUI/lvgl/src/indev/lv_indev_scroll.c ****                 }
 1322              		.loc 1 724 23 is_stmt 0 view .LVU403
 1323 00ac 3544     		add	r5, r5, r6
 1324              	.LVL131:
 724:../../Middlewares/LVGL/GUI/lvgl/src/indev/lv_indev_scroll.c ****                 }
 1325              		.loc 1 724 23 view .LVU404
 1326              	.LBE100:
 726:../../Middlewares/LVGL/GUI/lvgl/src/indev/lv_indev_scroll.c ****             case LV_SCROLL_SNAP_START:
 1327              		.loc 1 726 17 is_stmt 1 view .LVU405
 1328 00ae CCE7     		b	.L75
 1329              	.LVL132:
 1330              	.L89:
 1331              	.LBB105:
 723:../../Middlewares/LVGL/GUI/lvgl/src/indev/lv_indev_scroll.c ****                     x += pad_left;
 1332              		.loc 1 723 90 is_stmt 0 discriminator 1 view .LVU406
 1333 00b0 0133     		adds	r3, r3, #1
 1334 00b2 F9E7     		b	.L76
 1335              	.LVL133:
ARM GAS  C:\Users\28576\AppData\Local\Temp\ccZznpky.s 			page 46


 1336              	.L74:
 723:../../Middlewares/LVGL/GUI/lvgl/src/indev/lv_indev_scroll.c ****                     x += pad_left;
 1337              		.loc 1 723 90 discriminator 1 view .LVU407
 1338              	.LBE105:
 728:../../Middlewares/LVGL/GUI/lvgl/src/indev/lv_indev_scroll.c ****                 break;
 1339              		.loc 1 728 17 is_stmt 1 view .LVU408
 728:../../Middlewares/LVGL/GUI/lvgl/src/indev/lv_indev_scroll.c ****                 break;
 1340              		.loc 1 728 39 is_stmt 0 view .LVU409
 1341 00b4 6569     		ldr	r5, [r4, #20]
 1342              	.LVL134:
 1343              	.LBB106:
 1344              	.LBI106:
 166:../../Middlewares/LVGL/GUI/lvgl/src/indev/../core/lv_obj_style_gen.h **** {
 1345              		.loc 2 166 23 is_stmt 1 view .LVU410
 1346              	.LBB107:
 168:../../Middlewares/LVGL/GUI/lvgl/src/indev/../core/lv_obj_style_gen.h ****     return (int32_t)v.num;
 1347              		.loc 2 168 5 view .LVU411
 168:../../Middlewares/LVGL/GUI/lvgl/src/indev/../core/lv_obj_style_gen.h ****     return (int32_t)v.num;
 1348              		.loc 2 168 26 is_stmt 0 view .LVU412
 1349 00b6 1222     		movs	r2, #18
 1350 00b8 0021     		movs	r1, #0
 1351 00ba 2046     		mov	r0, r4
 1352              	.LVL135:
 168:../../Middlewares/LVGL/GUI/lvgl/src/indev/../core/lv_obj_style_gen.h ****     return (int32_t)v.num;
 1353              		.loc 2 168 26 view .LVU413
 1354 00bc FFF7FEFF 		bl	lv_obj_get_style_prop
 1355              	.LVL136:
 1356 00c0 0190     		str	r0, [sp, #4]
 169:../../Middlewares/LVGL/GUI/lvgl/src/indev/../core/lv_obj_style_gen.h **** }
 1357              		.loc 2 169 5 is_stmt 1 view .LVU414
 1358              	.LVL137:
 169:../../Middlewares/LVGL/GUI/lvgl/src/indev/../core/lv_obj_style_gen.h **** }
 1359              		.loc 2 169 5 is_stmt 0 view .LVU415
 1360              	.LBE107:
 1361              	.LBE106:
 728:../../Middlewares/LVGL/GUI/lvgl/src/indev/lv_indev_scroll.c ****                 break;
 1362              		.loc 1 728 19 discriminator 1 view .LVU416
 1363 00c2 0544     		add	r5, r5, r0
 1364              	.LVL138:
 729:../../Middlewares/LVGL/GUI/lvgl/src/indev/lv_indev_scroll.c ****             case LV_SCROLL_SNAP_END:
 1365              		.loc 1 729 17 is_stmt 1 view .LVU417
 1366 00c4 C1E7     		b	.L75
 1367              	.LVL139:
 1368              	.L72:
 731:../../Middlewares/LVGL/GUI/lvgl/src/indev/lv_indev_scroll.c ****                 break;
 1369              		.loc 1 731 17 view .LVU418
 731:../../Middlewares/LVGL/GUI/lvgl/src/indev/lv_indev_scroll.c ****                 break;
 1370              		.loc 1 731 39 is_stmt 0 view .LVU419
 1371 00c6 E569     		ldr	r5, [r4, #28]
 1372              	.LVL140:
 1373              	.LBB108:
 1374              	.LBI108:
 172:../../Middlewares/LVGL/GUI/lvgl/src/indev/../core/lv_obj_style_gen.h **** {
 1375              		.loc 2 172 23 is_stmt 1 view .LVU420
 1376              	.LBB109:
 174:../../Middlewares/LVGL/GUI/lvgl/src/indev/../core/lv_obj_style_gen.h ****     return (int32_t)v.num;
 1377              		.loc 2 174 5 view .LVU421
ARM GAS  C:\Users\28576\AppData\Local\Temp\ccZznpky.s 			page 47


 174:../../Middlewares/LVGL/GUI/lvgl/src/indev/../core/lv_obj_style_gen.h ****     return (int32_t)v.num;
 1378              		.loc 2 174 26 is_stmt 0 view .LVU422
 1379 00c8 1322     		movs	r2, #19
 1380 00ca 0021     		movs	r1, #0
 1381 00cc 2046     		mov	r0, r4
 1382              	.LVL141:
 174:../../Middlewares/LVGL/GUI/lvgl/src/indev/../core/lv_obj_style_gen.h ****     return (int32_t)v.num;
 1383              		.loc 2 174 26 view .LVU423
 1384 00ce FFF7FEFF 		bl	lv_obj_get_style_prop
 1385              	.LVL142:
 1386 00d2 0190     		str	r0, [sp, #4]
 1387              		.loc 2 175 5 is_stmt 1 view .LVU424
 1388              	.LVL143:
 1389              		.loc 2 175 5 is_stmt 0 view .LVU425
 1390              	.LBE109:
 1391              	.LBE108:
 731:../../Middlewares/LVGL/GUI/lvgl/src/indev/lv_indev_scroll.c ****                 break;
 1392              		.loc 1 731 19 discriminator 1 view .LVU426
 1393 00d4 2D1A     		subs	r5, r5, r0
 1394              	.LVL144:
 732:../../Middlewares/LVGL/GUI/lvgl/src/indev/lv_indev_scroll.c ****             default:
 1395              		.loc 1 732 17 is_stmt 1 view .LVU427
 1396 00d6 B8E7     		b	.L75
 1397              	.LVL145:
 1398              	.L88:
 738:../../Middlewares/LVGL/GUI/lvgl/src/indev/lv_indev_scroll.c ****         d = find_snap_point_x(scroll_obj, LV_COORD_MIN, x - 1, 0);
 1399              		.loc 1 738 31 discriminator 1 view .LVU428
 738:../../Middlewares/LVGL/GUI/lvgl/src/indev/lv_indev_scroll.c ****         d = find_snap_point_x(scroll_obj, LV_COORD_MIN, x - 1, 0);
 1400              		.loc 1 738 45 is_stmt 0 discriminator 1 view .LVU429
 1401 00d8 0023     		movs	r3, #0
 1402 00da 88F80030 		strb	r3, [r8]
 1403 00de BFE7     		b	.L77
 1404              	.LVL146:
 1405              	.L80:
 738:../../Middlewares/LVGL/GUI/lvgl/src/indev/lv_indev_scroll.c ****         d = find_snap_point_x(scroll_obj, LV_COORD_MIN, x - 1, 0);
 1406              		.loc 1 738 45 discriminator 1 view .LVU430
 1407              	.LBE99:
 1408              	.LBB110:
 1409              	.LBB89:
 745:../../Middlewares/LVGL/GUI/lvgl/src/indev/lv_indev_scroll.c ****             case LV_SCROLL_SNAP_CENTER: {
 746:../../Middlewares/LVGL/GUI/lvgl/src/indev/lv_indev_scroll.c ****                     int32_t pad_top = lv_obj_get_style_pad_top(scroll_obj, 0);
 1410              		.loc 1 746 21 is_stmt 1 view .LVU431
 1411              	.LBB90:
 1412              	.LBI90:
 154:../../Middlewares/LVGL/GUI/lvgl/src/indev/../core/lv_obj_style_gen.h **** {
 1413              		.loc 2 154 23 view .LVU432
 1414              	.LBB91:
 156:../../Middlewares/LVGL/GUI/lvgl/src/indev/../core/lv_obj_style_gen.h ****     return (int32_t)v.num;
 1415              		.loc 2 156 5 view .LVU433
 156:../../Middlewares/LVGL/GUI/lvgl/src/indev/../core/lv_obj_style_gen.h ****     return (int32_t)v.num;
 1416              		.loc 2 156 26 is_stmt 0 view .LVU434
 1417 00e0 1022     		movs	r2, #16
 1418 00e2 0021     		movs	r1, #0
 1419 00e4 2046     		mov	r0, r4
 1420              	.LVL147:
 156:../../Middlewares/LVGL/GUI/lvgl/src/indev/../core/lv_obj_style_gen.h ****     return (int32_t)v.num;
 1421              		.loc 2 156 26 view .LVU435
ARM GAS  C:\Users\28576\AppData\Local\Temp\ccZznpky.s 			page 48


 1422 00e6 FFF7FEFF 		bl	lv_obj_get_style_prop
 1423              	.LVL148:
 1424 00ea 0646     		mov	r6, r0
 1425 00ec 0190     		str	r0, [sp, #4]
 157:../../Middlewares/LVGL/GUI/lvgl/src/indev/../core/lv_obj_style_gen.h **** }
 1426              		.loc 2 157 5 is_stmt 1 view .LVU436
 1427              	.LVL149:
 157:../../Middlewares/LVGL/GUI/lvgl/src/indev/../core/lv_obj_style_gen.h **** }
 1428              		.loc 2 157 5 is_stmt 0 view .LVU437
 1429              	.LBE91:
 1430              	.LBE90:
 747:../../Middlewares/LVGL/GUI/lvgl/src/indev/lv_indev_scroll.c ****                     int32_t pad_bottom = lv_obj_get_style_pad_bottom(scroll_obj, 0);
 1431              		.loc 1 747 21 is_stmt 1 view .LVU438
 1432              	.LBB92:
 1433              	.LBI92:
 160:../../Middlewares/LVGL/GUI/lvgl/src/indev/../core/lv_obj_style_gen.h **** {
 1434              		.loc 2 160 23 view .LVU439
 1435              	.LBB93:
 162:../../Middlewares/LVGL/GUI/lvgl/src/indev/../core/lv_obj_style_gen.h ****     return (int32_t)v.num;
 1436              		.loc 2 162 5 view .LVU440
 162:../../Middlewares/LVGL/GUI/lvgl/src/indev/../core/lv_obj_style_gen.h ****     return (int32_t)v.num;
 1437              		.loc 2 162 26 is_stmt 0 view .LVU441
 1438 00ee 1122     		movs	r2, #17
 1439 00f0 0021     		movs	r1, #0
 1440 00f2 2046     		mov	r0, r4
 1441              	.LVL150:
 162:../../Middlewares/LVGL/GUI/lvgl/src/indev/../core/lv_obj_style_gen.h ****     return (int32_t)v.num;
 1442              		.loc 2 162 26 view .LVU442
 1443 00f4 FFF7FEFF 		bl	lv_obj_get_style_prop
 1444              	.LVL151:
 1445 00f8 0546     		mov	r5, r0
 1446 00fa 0190     		str	r0, [sp, #4]
 163:../../Middlewares/LVGL/GUI/lvgl/src/indev/../core/lv_obj_style_gen.h **** }
 1447              		.loc 2 163 5 is_stmt 1 view .LVU443
 1448              	.LVL152:
 163:../../Middlewares/LVGL/GUI/lvgl/src/indev/../core/lv_obj_style_gen.h **** }
 1449              		.loc 2 163 5 is_stmt 0 view .LVU444
 1450              	.LBE93:
 1451              	.LBE92:
 748:../../Middlewares/LVGL/GUI/lvgl/src/indev/lv_indev_scroll.c ****                     y = scroll_obj->coords.y1;
 1452              		.loc 1 748 21 is_stmt 1 view .LVU445
 1453              		.loc 1 748 23 is_stmt 0 view .LVU446
 1454 00fc A369     		ldr	r3, [r4, #24]
 1455 00fe 9946     		mov	r9, r3
 1456              	.LVL153:
 749:../../Middlewares/LVGL/GUI/lvgl/src/indev/lv_indev_scroll.c ****                     y += (lv_area_get_height(&scroll_obj->coords) - pad_top - pad_bottom) / 2;
 1457              		.loc 1 749 21 is_stmt 1 view .LVU447
 1458              		.loc 1 749 27 is_stmt 0 view .LVU448
 1459 0100 04F11400 		add	r0, r4, #20
 1460              	.LVL154:
 1461              		.loc 1 749 27 view .LVU449
 1462 0104 FFF7FEFF 		bl	lv_area_get_height
 1463              	.LVL155:
 1464              		.loc 1 749 67 discriminator 1 view .LVU450
 1465 0108 831B     		subs	r3, r0, r6
 1466              		.loc 1 749 91 discriminator 1 view .LVU451
 1467 010a 5B1B     		subs	r3, r3, r5
ARM GAS  C:\Users\28576\AppData\Local\Temp\ccZznpky.s 			page 49


 1468 010c 1AD4     		bmi	.L90
 1469              	.L83:
 1470              		.loc 1 749 23 discriminator 1 view .LVU452
 1471 010e 09EB6305 		add	r5, r9, r3, asr #1
 1472              	.LVL156:
 750:../../Middlewares/LVGL/GUI/lvgl/src/indev/lv_indev_scroll.c ****                     y += pad_top;
 1473              		.loc 1 750 21 is_stmt 1 view .LVU453
 1474              		.loc 1 750 23 is_stmt 0 view .LVU454
 1475 0112 3544     		add	r5, r5, r6
 1476              	.LVL157:
 1477              		.loc 1 750 23 view .LVU455
 1478              	.LBE89:
 751:../../Middlewares/LVGL/GUI/lvgl/src/indev/lv_indev_scroll.c ****                 }
 752:../../Middlewares/LVGL/GUI/lvgl/src/indev/lv_indev_scroll.c ****                 break;
 1479              		.loc 1 752 17 is_stmt 1 view .LVU456
 1480              	.L82:
 753:../../Middlewares/LVGL/GUI/lvgl/src/indev/lv_indev_scroll.c ****             case LV_SCROLL_SNAP_START:
 754:../../Middlewares/LVGL/GUI/lvgl/src/indev/lv_indev_scroll.c ****                 y = scroll_obj->coords.y1 + lv_obj_get_style_pad_top(scroll_obj, 0);
 755:../../Middlewares/LVGL/GUI/lvgl/src/indev/lv_indev_scroll.c ****                 break;
 756:../../Middlewares/LVGL/GUI/lvgl/src/indev/lv_indev_scroll.c ****             case LV_SCROLL_SNAP_END:
 757:../../Middlewares/LVGL/GUI/lvgl/src/indev/lv_indev_scroll.c ****                 y = scroll_obj->coords.y2 - lv_obj_get_style_pad_bottom(scroll_obj, 0);
 758:../../Middlewares/LVGL/GUI/lvgl/src/indev/lv_indev_scroll.c ****                 break;
 759:../../Middlewares/LVGL/GUI/lvgl/src/indev/lv_indev_scroll.c ****             default:
 760:../../Middlewares/LVGL/GUI/lvgl/src/indev/lv_indev_scroll.c ****                 break;
 761:../../Middlewares/LVGL/GUI/lvgl/src/indev/lv_indev_scroll.c ****         }
 762:../../Middlewares/LVGL/GUI/lvgl/src/indev/lv_indev_scroll.c ****         int32_t d;
 1481              		.loc 1 762 9 view .LVU457
 763:../../Middlewares/LVGL/GUI/lvgl/src/indev/lv_indev_scroll.c ****         d = find_snap_point_y(scroll_obj, y + 1, LV_COORD_MAX, 0);
 1482              		.loc 1 763 9 view .LVU458
 1483              		.loc 1 763 13 is_stmt 0 view .LVU459
 1484 0114 0023     		movs	r3, #0
 1485 0116 6FF06042 		mvn	r2, #-536870912
 1486 011a 691C     		adds	r1, r5, #1
 1487 011c 2046     		mov	r0, r4
 1488 011e FFF7FEFF 		bl	find_snap_point_y
 1489              	.LVL158:
 764:../../Middlewares/LVGL/GUI/lvgl/src/indev/lv_indev_scroll.c ****         if(d == LV_COORD_MAX) *has_end_snap = false;
 1490              		.loc 1 764 9 is_stmt 1 view .LVU460
 1491              		.loc 1 764 11 is_stmt 0 view .LVU461
 1492 0122 6FF06043 		mvn	r3, #-536870912
 1493 0126 9842     		cmp	r0, r3
 1494 0128 20D0     		beq	.L91
 1495              	.L84:
 765:../../Middlewares/LVGL/GUI/lvgl/src/indev/lv_indev_scroll.c ****         d = find_snap_point_y(scroll_obj, LV_COORD_MIN, y - 1, 0);
 1496              		.loc 1 765 9 is_stmt 1 view .LVU462
 1497              		.loc 1 765 13 is_stmt 0 view .LVU463
 1498 012a 0023     		movs	r3, #0
 1499 012c 6A1E     		subs	r2, r5, #1
 1500 012e 1349     		ldr	r1, .L93
 1501 0130 2046     		mov	r0, r4
 1502              	.LVL159:
 1503              		.loc 1 765 13 view .LVU464
 1504 0132 FFF7FEFF 		bl	find_snap_point_y
 1505              	.LVL160:
 766:../../Middlewares/LVGL/GUI/lvgl/src/indev/lv_indev_scroll.c ****         if(d == LV_COORD_MAX) *has_start_snap = false;
 1506              		.loc 1 766 9 is_stmt 1 view .LVU465
 1507              		.loc 1 766 11 is_stmt 0 view .LVU466
ARM GAS  C:\Users\28576\AppData\Local\Temp\ccZznpky.s 			page 50


 1508 0136 6FF06043 		mvn	r3, #-536870912
 1509 013a 9842     		cmp	r0, r3
 1510 013c 1AD0     		beq	.L92
 1511              	.LVL161:
 1512              	.L68:
 1513              		.loc 1 766 11 view .LVU467
 1514              	.LBE110:
 767:../../Middlewares/LVGL/GUI/lvgl/src/indev/lv_indev_scroll.c ****     }
 768:../../Middlewares/LVGL/GUI/lvgl/src/indev/lv_indev_scroll.c **** }
 1515              		.loc 1 768 1 view .LVU468
 1516 013e 03B0     		add	sp, sp, #12
 1517              	.LCFI15:
 1518              		.cfi_remember_state
 1519              		.cfi_def_cfa_offset 28
 1520              		@ sp needed
 1521 0140 BDE8F083 		pop	{r4, r5, r6, r7, r8, r9, pc}
 1522              	.LVL162:
 1523              	.L90:
 1524              	.LCFI16:
 1525              		.cfi_restore_state
 1526              	.LBB111:
 1527              	.LBB94:
 749:../../Middlewares/LVGL/GUI/lvgl/src/indev/lv_indev_scroll.c ****                     y += pad_top;
 1528              		.loc 1 749 91 discriminator 1 view .LVU469
 1529 0144 0133     		adds	r3, r3, #1
 1530 0146 E2E7     		b	.L83
 1531              	.LVL163:
 1532              	.L81:
 749:../../Middlewares/LVGL/GUI/lvgl/src/indev/lv_indev_scroll.c ****                     y += pad_top;
 1533              		.loc 1 749 91 discriminator 1 view .LVU470
 1534              	.LBE94:
 754:../../Middlewares/LVGL/GUI/lvgl/src/indev/lv_indev_scroll.c ****                 break;
 1535              		.loc 1 754 17 is_stmt 1 view .LVU471
 754:../../Middlewares/LVGL/GUI/lvgl/src/indev/lv_indev_scroll.c ****                 break;
 1536              		.loc 1 754 39 is_stmt 0 view .LVU472
 1537 0148 A569     		ldr	r5, [r4, #24]
 1538              	.LVL164:
 1539              	.LBB95:
 1540              	.LBI95:
 154:../../Middlewares/LVGL/GUI/lvgl/src/indev/../core/lv_obj_style_gen.h **** {
 1541              		.loc 2 154 23 is_stmt 1 view .LVU473
 1542              	.LBB96:
 156:../../Middlewares/LVGL/GUI/lvgl/src/indev/../core/lv_obj_style_gen.h ****     return (int32_t)v.num;
 1543              		.loc 2 156 5 view .LVU474
 156:../../Middlewares/LVGL/GUI/lvgl/src/indev/../core/lv_obj_style_gen.h ****     return (int32_t)v.num;
 1544              		.loc 2 156 26 is_stmt 0 view .LVU475
 1545 014a 1022     		movs	r2, #16
 1546 014c 0021     		movs	r1, #0
 1547 014e 2046     		mov	r0, r4
 1548              	.LVL165:
 156:../../Middlewares/LVGL/GUI/lvgl/src/indev/../core/lv_obj_style_gen.h ****     return (int32_t)v.num;
 1549              		.loc 2 156 26 view .LVU476
 1550 0150 FFF7FEFF 		bl	lv_obj_get_style_prop
 1551              	.LVL166:
 1552 0154 0190     		str	r0, [sp, #4]
 157:../../Middlewares/LVGL/GUI/lvgl/src/indev/../core/lv_obj_style_gen.h **** }
 1553              		.loc 2 157 5 is_stmt 1 view .LVU477
ARM GAS  C:\Users\28576\AppData\Local\Temp\ccZznpky.s 			page 51


 1554              	.LVL167:
 157:../../Middlewares/LVGL/GUI/lvgl/src/indev/../core/lv_obj_style_gen.h **** }
 1555              		.loc 2 157 5 is_stmt 0 view .LVU478
 1556              	.LBE96:
 1557              	.LBE95:
 754:../../Middlewares/LVGL/GUI/lvgl/src/indev/lv_indev_scroll.c ****                 break;
 1558              		.loc 1 754 19 discriminator 1 view .LVU479
 1559 0156 0544     		add	r5, r5, r0
 1560              	.LVL168:
 755:../../Middlewares/LVGL/GUI/lvgl/src/indev/lv_indev_scroll.c ****             case LV_SCROLL_SNAP_END:
 1561              		.loc 1 755 17 is_stmt 1 view .LVU480
 1562 0158 DCE7     		b	.L82
 1563              	.LVL169:
 1564              	.L79:
 757:../../Middlewares/LVGL/GUI/lvgl/src/indev/lv_indev_scroll.c ****                 break;
 1565              		.loc 1 757 17 view .LVU481
 757:../../Middlewares/LVGL/GUI/lvgl/src/indev/lv_indev_scroll.c ****                 break;
 1566              		.loc 1 757 39 is_stmt 0 view .LVU482
 1567 015a 256A     		ldr	r5, [r4, #32]
 1568              	.LVL170:
 1569              	.LBB97:
 1570              	.LBI97:
 160:../../Middlewares/LVGL/GUI/lvgl/src/indev/../core/lv_obj_style_gen.h **** {
 1571              		.loc 2 160 23 is_stmt 1 view .LVU483
 1572              	.LBB98:
 162:../../Middlewares/LVGL/GUI/lvgl/src/indev/../core/lv_obj_style_gen.h ****     return (int32_t)v.num;
 1573              		.loc 2 162 5 view .LVU484
 162:../../Middlewares/LVGL/GUI/lvgl/src/indev/../core/lv_obj_style_gen.h ****     return (int32_t)v.num;
 1574              		.loc 2 162 26 is_stmt 0 view .LVU485
 1575 015c 1122     		movs	r2, #17
 1576 015e 0021     		movs	r1, #0
 1577 0160 2046     		mov	r0, r4
 1578              	.LVL171:
 162:../../Middlewares/LVGL/GUI/lvgl/src/indev/../core/lv_obj_style_gen.h ****     return (int32_t)v.num;
 1579              		.loc 2 162 26 view .LVU486
 1580 0162 FFF7FEFF 		bl	lv_obj_get_style_prop
 1581              	.LVL172:
 1582 0166 0190     		str	r0, [sp, #4]
 163:../../Middlewares/LVGL/GUI/lvgl/src/indev/../core/lv_obj_style_gen.h **** }
 1583              		.loc 2 163 5 is_stmt 1 view .LVU487
 1584              	.LVL173:
 163:../../Middlewares/LVGL/GUI/lvgl/src/indev/../core/lv_obj_style_gen.h **** }
 1585              		.loc 2 163 5 is_stmt 0 view .LVU488
 1586              	.LBE98:
 1587              	.LBE97:
 757:../../Middlewares/LVGL/GUI/lvgl/src/indev/lv_indev_scroll.c ****                 break;
 1588              		.loc 1 757 19 discriminator 1 view .LVU489
 1589 0168 2D1A     		subs	r5, r5, r0
 1590              	.LVL174:
 758:../../Middlewares/LVGL/GUI/lvgl/src/indev/lv_indev_scroll.c ****             default:
 1591              		.loc 1 758 17 is_stmt 1 view .LVU490
 1592 016a D3E7     		b	.L82
 1593              	.LVL175:
 1594              	.L91:
 764:../../Middlewares/LVGL/GUI/lvgl/src/indev/lv_indev_scroll.c ****         d = find_snap_point_y(scroll_obj, LV_COORD_MIN, y - 1, 0);
 1595              		.loc 1 764 31 discriminator 1 view .LVU491
 764:../../Middlewares/LVGL/GUI/lvgl/src/indev/lv_indev_scroll.c ****         d = find_snap_point_y(scroll_obj, LV_COORD_MIN, y - 1, 0);
ARM GAS  C:\Users\28576\AppData\Local\Temp\ccZznpky.s 			page 52


 1596              		.loc 1 764 45 is_stmt 0 discriminator 1 view .LVU492
 1597 016c 0023     		movs	r3, #0
 1598 016e 88F80030 		strb	r3, [r8]
 1599 0172 DAE7     		b	.L84
 1600              	.L92:
 766:../../Middlewares/LVGL/GUI/lvgl/src/indev/lv_indev_scroll.c ****     }
 1601              		.loc 1 766 31 is_stmt 1 discriminator 1 view .LVU493
 766:../../Middlewares/LVGL/GUI/lvgl/src/indev/lv_indev_scroll.c ****     }
 1602              		.loc 1 766 47 is_stmt 0 discriminator 1 view .LVU494
 1603 0174 0023     		movs	r3, #0
 1604 0176 3B70     		strb	r3, [r7]
 1605              	.LBE111:
 1606              		.loc 1 768 1 view .LVU495
 1607 0178 E1E7     		b	.L68
 1608              	.L94:
 1609 017a 00BF     		.align	2
 1610              	.L93:
 1611 017c 010000E0 		.word	-536870911
 1612              		.cfi_endproc
 1613              	.LFE182:
 1615              		.section	.text.elastic_diff,"ax",%progbits
 1616              		.align	1
 1617              		.syntax unified
 1618              		.thumb
 1619              		.thumb_func
 1621              	elastic_diff:
 1622              	.LVL176:
 1623              	.LFB181:
 643:../../Middlewares/LVGL/GUI/lvgl/src/indev/lv_indev_scroll.c ****     if(diff == 0) return 0;
 1624              		.loc 1 643 1 is_stmt 1 view -0
 1625              		.cfi_startproc
 1626              		@ args = 4, pretend = 0, frame = 8
 1627              		@ frame_needed = 0, uses_anonymous_args = 0
 643:../../Middlewares/LVGL/GUI/lvgl/src/indev/lv_indev_scroll.c ****     if(diff == 0) return 0;
 1628              		.loc 1 643 1 is_stmt 0 view .LVU497
 1629 0000 2DE9F041 		push	{r4, r5, r6, r7, r8, lr}
 1630              	.LCFI17:
 1631              		.cfi_def_cfa_offset 24
 1632              		.cfi_offset 4, -24
 1633              		.cfi_offset 5, -20
 1634              		.cfi_offset 6, -16
 1635              		.cfi_offset 7, -12
 1636              		.cfi_offset 8, -8
 1637              		.cfi_offset 14, -4
 1638 0004 82B0     		sub	sp, sp, #8
 1639              	.LCFI18:
 1640              		.cfi_def_cfa_offset 32
 1641 0006 1E46     		mov	r6, r3
 1642 0008 9DF82030 		ldrb	r3, [sp, #32]	@ zero_extendqisi2
 1643              	.LVL177:
 644:../../Middlewares/LVGL/GUI/lvgl/src/indev/lv_indev_scroll.c **** 
 1644              		.loc 1 644 5 is_stmt 1 view .LVU498
 644:../../Middlewares/LVGL/GUI/lvgl/src/indev/lv_indev_scroll.c **** 
 1645              		.loc 1 644 7 is_stmt 0 view .LVU499
 1646 000c 0C46     		mov	r4, r1
 1647 000e 19B9     		cbnz	r1, .L113
 1648              	.LVL178:
ARM GAS  C:\Users\28576\AppData\Local\Temp\ccZznpky.s 			page 53


 1649              	.L96:
 695:../../Middlewares/LVGL/GUI/lvgl/src/indev/lv_indev_scroll.c **** 
 1650              		.loc 1 695 1 view .LVU500
 1651 0010 2046     		mov	r0, r4
 1652 0012 02B0     		add	sp, sp, #8
 1653              	.LCFI19:
 1654              		.cfi_remember_state
 1655              		.cfi_def_cfa_offset 24
 1656              		@ sp needed
 1657 0014 BDE8F081 		pop	{r4, r5, r6, r7, r8, pc}
 1658              	.LVL179:
 1659              	.L113:
 1660              	.LCFI20:
 1661              		.cfi_restore_state
 695:../../Middlewares/LVGL/GUI/lvgl/src/indev/lv_indev_scroll.c **** 
 1662              		.loc 1 695 1 view .LVU501
 1663 0018 0746     		mov	r7, r0
 1664 001a 1546     		mov	r5, r2
 1665 001c 9846     		mov	r8, r3
 647:../../Middlewares/LVGL/GUI/lvgl/src/indev/lv_indev_scroll.c ****         /*
 1666              		.loc 1 647 5 is_stmt 1 view .LVU502
 647:../../Middlewares/LVGL/GUI/lvgl/src/indev/lv_indev_scroll.c ****         /*
 1667              		.loc 1 647 9 is_stmt 0 view .LVU503
 1668 001e 2021     		movs	r1, #32
 1669              	.LVL180:
 647:../../Middlewares/LVGL/GUI/lvgl/src/indev/lv_indev_scroll.c ****         /*
 1670              		.loc 1 647 9 view .LVU504
 1671 0020 FFF7FEFF 		bl	lv_obj_has_flag
 1672              	.LVL181:
 647:../../Middlewares/LVGL/GUI/lvgl/src/indev/lv_indev_scroll.c ****         /*
 1673              		.loc 1 647 7 discriminator 1 view .LVU505
 1674 0024 48B9     		cbnz	r0, .L97
 1675              	.LBB112:
 654:../../Middlewares/LVGL/GUI/lvgl/src/indev/lv_indev_scroll.c ****         if(scroll_ended < 0) diff = 0;
 1676              		.loc 1 654 9 is_stmt 1 view .LVU506
 654:../../Middlewares/LVGL/GUI/lvgl/src/indev/lv_indev_scroll.c ****         if(scroll_ended < 0) diff = 0;
 1677              		.loc 1 654 62 is_stmt 0 view .LVU507
 1678 0026 8442     		cmp	r4, r0
 1679 0028 00DD     		ble	.L98
 654:../../Middlewares/LVGL/GUI/lvgl/src/indev/lv_indev_scroll.c ****         if(scroll_ended < 0) diff = 0;
 1680              		.loc 1 654 23 discriminator 1 view .LVU508
 1681 002a 2E46     		mov	r6, r5
 1682              	.LVL182:
 1683              	.L98:
 655:../../Middlewares/LVGL/GUI/lvgl/src/indev/lv_indev_scroll.c ****         else if(scroll_ended - diff < 0) diff = scroll_ended;
 1684              		.loc 1 655 9 is_stmt 1 view .LVU509
 655:../../Middlewares/LVGL/GUI/lvgl/src/indev/lv_indev_scroll.c ****         else if(scroll_ended - diff < 0) diff = scroll_ended;
 1685              		.loc 1 655 11 is_stmt 0 view .LVU510
 1686 002c 002E     		cmp	r6, #0
 1687 002e 3DDB     		blt	.L110
 656:../../Middlewares/LVGL/GUI/lvgl/src/indev/lv_indev_scroll.c ****     }
 1688              		.loc 1 656 14 is_stmt 1 view .LVU511
 656:../../Middlewares/LVGL/GUI/lvgl/src/indev/lv_indev_scroll.c ****     }
 1689              		.loc 1 656 30 is_stmt 0 view .LVU512
 1690 0030 331B     		subs	r3, r6, r4
 656:../../Middlewares/LVGL/GUI/lvgl/src/indev/lv_indev_scroll.c ****     }
 1691              		.loc 1 656 16 view .LVU513
ARM GAS  C:\Users\28576\AppData\Local\Temp\ccZznpky.s 			page 54


 1692 0032 002B     		cmp	r3, #0
 1693 0034 ECDA     		bge	.L96
 656:../../Middlewares/LVGL/GUI/lvgl/src/indev/lv_indev_scroll.c ****     }
 1694              		.loc 1 656 47 discriminator 1 view .LVU514
 1695 0036 3446     		mov	r4, r6
 1696              	.LVL183:
 656:../../Middlewares/LVGL/GUI/lvgl/src/indev/lv_indev_scroll.c ****     }
 1697              		.loc 1 656 47 discriminator 1 view .LVU515
 1698 0038 EAE7     		b	.L96
 1699              	.LVL184:
 1700              	.L97:
 656:../../Middlewares/LVGL/GUI/lvgl/src/indev/lv_indev_scroll.c ****     }
 1701              		.loc 1 656 47 discriminator 1 view .LVU516
 1702              	.LBE112:
 1703              	.LBB113:
 661:../../Middlewares/LVGL/GUI/lvgl/src/indev/lv_indev_scroll.c ****         snap = dir == LV_DIR_HOR ? lv_obj_get_scroll_snap_x(scroll_obj) : lv_obj_get_scroll_snap_y(
 1704              		.loc 1 661 9 is_stmt 1 view .LVU517
 662:../../Middlewares/LVGL/GUI/lvgl/src/indev/lv_indev_scroll.c **** 
 1705              		.loc 1 662 9 view .LVU518
 662:../../Middlewares/LVGL/GUI/lvgl/src/indev/lv_indev_scroll.c **** 
 1706              		.loc 1 662 73 is_stmt 0 view .LVU519
 1707 003a 4346     		mov	r3, r8
 1708 003c 032B     		cmp	r3, #3
 1709 003e 0CD0     		beq	.L114
 662:../../Middlewares/LVGL/GUI/lvgl/src/indev/lv_indev_scroll.c **** 
 1710              		.loc 1 662 75 discriminator 2 view .LVU520
 1711 0040 3846     		mov	r0, r7
 1712 0042 FFF7FEFF 		bl	lv_obj_get_scroll_snap_y
 1713              	.LVL185:
 1714              	.L100:
 665:../../Middlewares/LVGL/GUI/lvgl/src/indev/lv_indev_scroll.c ****             if(scroll_end < 0 || scroll_start < 0) {
 1715              		.loc 1 665 9 is_stmt 1 view .LVU521
 665:../../Middlewares/LVGL/GUI/lvgl/src/indev/lv_indev_scroll.c ****             if(scroll_end < 0 || scroll_start < 0) {
 1716              		.loc 1 665 11 is_stmt 0 view .LVU522
 1717 0046 A0B9     		cbnz	r0, .L101
 666:../../Middlewares/LVGL/GUI/lvgl/src/indev/lv_indev_scroll.c ****                 /*Rounding*/
 1718              		.loc 1 666 13 is_stmt 1 view .LVU523
 666:../../Middlewares/LVGL/GUI/lvgl/src/indev/lv_indev_scroll.c ****                 /*Rounding*/
 1719              		.loc 1 666 15 is_stmt 0 view .LVU524
 1720 0048 3346     		mov	r3, r6
 1721 004a 2B43     		orrs	r3, r3, r5
 1722              	.LVL186:
 666:../../Middlewares/LVGL/GUI/lvgl/src/indev/lv_indev_scroll.c ****                 /*Rounding*/
 1723              		.loc 1 666 15 view .LVU525
 1724 004c E0D5     		bpl	.L96
 668:../../Middlewares/LVGL/GUI/lvgl/src/indev/lv_indev_scroll.c ****                 if(diff > 0) diff += ELASTIC_SLOWNESS_FACTOR / 2;
 1725              		.loc 1 668 17 is_stmt 1 view .LVU526
 668:../../Middlewares/LVGL/GUI/lvgl/src/indev/lv_indev_scroll.c ****                 if(diff > 0) diff += ELASTIC_SLOWNESS_FACTOR / 2;
 1726              		.loc 1 668 19 is_stmt 0 view .LVU527
 1727 004e 8442     		cmp	r4, r0
 1728 0050 07DB     		blt	.L115
 669:../../Middlewares/LVGL/GUI/lvgl/src/indev/lv_indev_scroll.c ****                 return diff / ELASTIC_SLOWNESS_FACTOR;
 1729              		.loc 1 669 17 is_stmt 1 view .LVU528
 669:../../Middlewares/LVGL/GUI/lvgl/src/indev/lv_indev_scroll.c ****                 return diff / ELASTIC_SLOWNESS_FACTOR;
 1730              		.loc 1 669 19 is_stmt 0 view .LVU529
 1731 0052 002C     		cmp	r4, #0
 1732 0054 06DD     		ble	.L104
ARM GAS  C:\Users\28576\AppData\Local\Temp\ccZznpky.s 			page 55


 669:../../Middlewares/LVGL/GUI/lvgl/src/indev/lv_indev_scroll.c ****                 return diff / ELASTIC_SLOWNESS_FACTOR;
 1733              		.loc 1 669 30 is_stmt 1 discriminator 1 view .LVU530
 669:../../Middlewares/LVGL/GUI/lvgl/src/indev/lv_indev_scroll.c ****                 return diff / ELASTIC_SLOWNESS_FACTOR;
 1734              		.loc 1 669 35 is_stmt 0 discriminator 1 view .LVU531
 1735 0056 0234     		adds	r4, r4, #2
 1736              	.LVL187:
 669:../../Middlewares/LVGL/GUI/lvgl/src/indev/lv_indev_scroll.c ****                 return diff / ELASTIC_SLOWNESS_FACTOR;
 1737              		.loc 1 669 35 discriminator 1 view .LVU532
 1738 0058 04E0     		b	.L104
 1739              	.LVL188:
 1740              	.L114:
 662:../../Middlewares/LVGL/GUI/lvgl/src/indev/lv_indev_scroll.c **** 
 1741              		.loc 1 662 36 discriminator 1 view .LVU533
 1742 005a 3846     		mov	r0, r7
 1743 005c FFF7FEFF 		bl	lv_obj_get_scroll_snap_x
 1744              	.LVL189:
 662:../../Middlewares/LVGL/GUI/lvgl/src/indev/lv_indev_scroll.c **** 
 1745              		.loc 1 662 36 discriminator 1 view .LVU534
 1746 0060 F1E7     		b	.L100
 1747              	.LVL190:
 1748              	.L115:
 668:../../Middlewares/LVGL/GUI/lvgl/src/indev/lv_indev_scroll.c ****                 if(diff > 0) diff += ELASTIC_SLOWNESS_FACTOR / 2;
 1749              		.loc 1 668 30 is_stmt 1 discriminator 1 view .LVU535
 668:../../Middlewares/LVGL/GUI/lvgl/src/indev/lv_indev_scroll.c ****                 if(diff > 0) diff += ELASTIC_SLOWNESS_FACTOR / 2;
 1750              		.loc 1 668 35 is_stmt 0 discriminator 1 view .LVU536
 1751 0062 023C     		subs	r4, r4, #2
 1752              	.LVL191:
 669:../../Middlewares/LVGL/GUI/lvgl/src/indev/lv_indev_scroll.c ****                 return diff / ELASTIC_SLOWNESS_FACTOR;
 1753              		.loc 1 669 17 is_stmt 1 view .LVU537
 1754              	.L104:
 670:../../Middlewares/LVGL/GUI/lvgl/src/indev/lv_indev_scroll.c ****             }
 1755              		.loc 1 670 17 view .LVU538
 670:../../Middlewares/LVGL/GUI/lvgl/src/indev/lv_indev_scroll.c ****             }
 1756              		.loc 1 670 29 is_stmt 0 view .LVU539
 1757 0064 2346     		mov	r3, r4
 1758 0066 002C     		cmp	r4, #0
 1759 0068 01DB     		blt	.L116
 1760              	.L105:
 670:../../Middlewares/LVGL/GUI/lvgl/src/indev/lv_indev_scroll.c ****             }
 1761              		.loc 1 670 29 view .LVU540
 1762 006a 9C10     		asrs	r4, r3, #2
 1763              	.LVL192:
 670:../../Middlewares/LVGL/GUI/lvgl/src/indev/lv_indev_scroll.c ****             }
 1764              		.loc 1 670 29 view .LVU541
 1765 006c D0E7     		b	.L96
 1766              	.LVL193:
 1767              	.L116:
 670:../../Middlewares/LVGL/GUI/lvgl/src/indev/lv_indev_scroll.c ****             }
 1768              		.loc 1 670 29 view .LVU542
 1769 006e E31C     		adds	r3, r4, #3
 1770              	.LVL194:
 670:../../Middlewares/LVGL/GUI/lvgl/src/indev/lv_indev_scroll.c ****             }
 1771              		.loc 1 670 29 view .LVU543
 1772 0070 FBE7     		b	.L105
 1773              	.LVL195:
 1774              	.L101:
 679:../../Middlewares/LVGL/GUI/lvgl/src/indev/lv_indev_scroll.c ****         bool has_end_snap;
ARM GAS  C:\Users\28576\AppData\Local\Temp\ccZznpky.s 			page 56


 1775              		.loc 1 679 9 is_stmt 1 view .LVU544
 680:../../Middlewares/LVGL/GUI/lvgl/src/indev/lv_indev_scroll.c ****         has_more_snap_points(scroll_obj, dir, &has_start_snap, &has_end_snap);
 1776              		.loc 1 680 9 view .LVU545
 681:../../Middlewares/LVGL/GUI/lvgl/src/indev/lv_indev_scroll.c **** 
 1777              		.loc 1 681 9 view .LVU546
 1778 0072 0DF10703 		add	r3, sp, #7
 1779 0076 0DF10602 		add	r2, sp, #6
 1780 007a 4146     		mov	r1, r8
 1781 007c 3846     		mov	r0, r7
 1782              	.LVL196:
 681:../../Middlewares/LVGL/GUI/lvgl/src/indev/lv_indev_scroll.c **** 
 1783              		.loc 1 681 9 is_stmt 0 view .LVU547
 1784 007e FFF7FEFF 		bl	has_more_snap_points
 1785              	.LVL197:
 683:../../Middlewares/LVGL/GUI/lvgl/src/indev/lv_indev_scroll.c ****             /*Rounding*/
 1786              		.loc 1 683 9 is_stmt 1 view .LVU548
 683:../../Middlewares/LVGL/GUI/lvgl/src/indev/lv_indev_scroll.c ****             /*Rounding*/
 1787              		.loc 1 683 12 is_stmt 0 view .LVU549
 1788 0082 9DF80630 		ldrb	r3, [sp, #6]	@ zero_extendqisi2
 683:../../Middlewares/LVGL/GUI/lvgl/src/indev/lv_indev_scroll.c ****             /*Rounding*/
 1789              		.loc 1 683 11 view .LVU550
 1790 0086 1BB1     		cbz	r3, .L106
 683:../../Middlewares/LVGL/GUI/lvgl/src/indev/lv_indev_scroll.c ****             /*Rounding*/
 1791              		.loc 1 683 31 discriminator 1 view .LVU551
 1792 0088 9DF80730 		ldrb	r3, [sp, #7]	@ zero_extendqisi2
 683:../../Middlewares/LVGL/GUI/lvgl/src/indev/lv_indev_scroll.c ****             /*Rounding*/
 1793              		.loc 1 683 28 discriminator 1 view .LVU552
 1794 008c 002B     		cmp	r3, #0
 1795 008e BFD1     		bne	.L96
 1796              	.L106:
 685:../../Middlewares/LVGL/GUI/lvgl/src/indev/lv_indev_scroll.c ****             if(diff > 0) diff += ELASTIC_SLOWNESS_FACTOR / 2;
 1797              		.loc 1 685 13 is_stmt 1 view .LVU553
 685:../../Middlewares/LVGL/GUI/lvgl/src/indev/lv_indev_scroll.c ****             if(diff > 0) diff += ELASTIC_SLOWNESS_FACTOR / 2;
 1798              		.loc 1 685 15 is_stmt 0 view .LVU554
 1799 0090 9C42     		cmp	r4, r3
 1800 0092 03DB     		blt	.L117
 686:../../Middlewares/LVGL/GUI/lvgl/src/indev/lv_indev_scroll.c ****             return diff / ELASTIC_SLOWNESS_FACTOR;
 1801              		.loc 1 686 13 is_stmt 1 view .LVU555
 686:../../Middlewares/LVGL/GUI/lvgl/src/indev/lv_indev_scroll.c ****             return diff / ELASTIC_SLOWNESS_FACTOR;
 1802              		.loc 1 686 15 is_stmt 0 view .LVU556
 1803 0094 002C     		cmp	r4, #0
 1804 0096 02DD     		ble	.L108
 686:../../Middlewares/LVGL/GUI/lvgl/src/indev/lv_indev_scroll.c ****             return diff / ELASTIC_SLOWNESS_FACTOR;
 1805              		.loc 1 686 26 is_stmt 1 discriminator 1 view .LVU557
 686:../../Middlewares/LVGL/GUI/lvgl/src/indev/lv_indev_scroll.c ****             return diff / ELASTIC_SLOWNESS_FACTOR;
 1806              		.loc 1 686 31 is_stmt 0 discriminator 1 view .LVU558
 1807 0098 0234     		adds	r4, r4, #2
 1808              	.LVL198:
 686:../../Middlewares/LVGL/GUI/lvgl/src/indev/lv_indev_scroll.c ****             return diff / ELASTIC_SLOWNESS_FACTOR;
 1809              		.loc 1 686 31 discriminator 1 view .LVU559
 1810 009a 00E0     		b	.L108
 1811              	.LVL199:
 1812              	.L117:
 685:../../Middlewares/LVGL/GUI/lvgl/src/indev/lv_indev_scroll.c ****             if(diff > 0) diff += ELASTIC_SLOWNESS_FACTOR / 2;
 1813              		.loc 1 685 26 is_stmt 1 discriminator 1 view .LVU560
 685:../../Middlewares/LVGL/GUI/lvgl/src/indev/lv_indev_scroll.c ****             if(diff > 0) diff += ELASTIC_SLOWNESS_FACTOR / 2;
 1814              		.loc 1 685 31 is_stmt 0 discriminator 1 view .LVU561
ARM GAS  C:\Users\28576\AppData\Local\Temp\ccZznpky.s 			page 57


 1815 009c 023C     		subs	r4, r4, #2
 1816              	.LVL200:
 686:../../Middlewares/LVGL/GUI/lvgl/src/indev/lv_indev_scroll.c ****             return diff / ELASTIC_SLOWNESS_FACTOR;
 1817              		.loc 1 686 13 is_stmt 1 view .LVU562
 1818              	.L108:
 687:../../Middlewares/LVGL/GUI/lvgl/src/indev/lv_indev_scroll.c ****         }
 1819              		.loc 1 687 13 view .LVU563
 687:../../Middlewares/LVGL/GUI/lvgl/src/indev/lv_indev_scroll.c ****         }
 1820              		.loc 1 687 25 is_stmt 0 view .LVU564
 1821 009e 2346     		mov	r3, r4
 1822 00a0 002C     		cmp	r4, #0
 1823 00a2 01DB     		blt	.L118
 1824              	.L109:
 687:../../Middlewares/LVGL/GUI/lvgl/src/indev/lv_indev_scroll.c ****         }
 1825              		.loc 1 687 25 view .LVU565
 1826 00a4 9C10     		asrs	r4, r3, #2
 1827              	.LVL201:
 687:../../Middlewares/LVGL/GUI/lvgl/src/indev/lv_indev_scroll.c ****         }
 1828              		.loc 1 687 25 view .LVU566
 1829 00a6 B3E7     		b	.L96
 1830              	.LVL202:
 1831              	.L118:
 687:../../Middlewares/LVGL/GUI/lvgl/src/indev/lv_indev_scroll.c ****         }
 1832              		.loc 1 687 25 view .LVU567
 1833 00a8 E31C     		adds	r3, r4, #3
 1834              	.LVL203:
 687:../../Middlewares/LVGL/GUI/lvgl/src/indev/lv_indev_scroll.c ****         }
 1835              		.loc 1 687 25 view .LVU568
 1836 00aa FBE7     		b	.L109
 1837              	.LVL204:
 1838              	.L110:
 687:../../Middlewares/LVGL/GUI/lvgl/src/indev/lv_indev_scroll.c ****         }
 1839              		.loc 1 687 25 view .LVU569
 1840              	.LBE113:
 1841              	.LBB114:
 655:../../Middlewares/LVGL/GUI/lvgl/src/indev/lv_indev_scroll.c ****         else if(scroll_ended - diff < 0) diff = scroll_ended;
 1842              		.loc 1 655 35 discriminator 1 view .LVU570
 1843 00ac 0024     		movs	r4, #0
 1844              	.LVL205:
 655:../../Middlewares/LVGL/GUI/lvgl/src/indev/lv_indev_scroll.c ****         else if(scroll_ended - diff < 0) diff = scroll_ended;
 1845              		.loc 1 655 35 discriminator 1 view .LVU571
 1846 00ae AFE7     		b	.L96
 1847              	.LBE114:
 1848              		.cfi_endproc
 1849              	.LFE181:
 1851              		.section	.text.lv_indev_scroll_throw_predict,"ax",%progbits
 1852              		.align	1
 1853              		.global	lv_indev_scroll_throw_predict
 1854              		.syntax unified
 1855              		.thumb
 1856              		.thumb_func
 1858              	lv_indev_scroll_throw_predict:
 1859              	.LVL206:
 1860              	.LFB174:
 237:../../Middlewares/LVGL/GUI/lvgl/src/indev/lv_indev_scroll.c ****     if(indev == NULL) return 0;
 1861              		.loc 1 237 1 is_stmt 1 view -0
 1862              		.cfi_startproc
ARM GAS  C:\Users\28576\AppData\Local\Temp\ccZznpky.s 			page 58


 1863              		@ args = 0, pretend = 0, frame = 0
 1864              		@ frame_needed = 0, uses_anonymous_args = 0
 1865              		@ link register save eliminated.
 238:../../Middlewares/LVGL/GUI/lvgl/src/indev/lv_indev_scroll.c ****     int32_t v;
 1866              		.loc 1 238 5 view .LVU573
 238:../../Middlewares/LVGL/GUI/lvgl/src/indev/lv_indev_scroll.c ****     int32_t v;
 1867              		.loc 1 238 7 is_stmt 0 view .LVU574
 1868 0000 0246     		mov	r2, r0
 1869 0002 C8B1     		cbz	r0, .L119
 239:../../Middlewares/LVGL/GUI/lvgl/src/indev/lv_indev_scroll.c ****     switch(dir) {
 1870              		.loc 1 239 5 is_stmt 1 view .LVU575
 240:../../Middlewares/LVGL/GUI/lvgl/src/indev/lv_indev_scroll.c ****         case LV_DIR_VER:
 1871              		.loc 1 240 5 view .LVU576
 1872 0004 0329     		cmp	r1, #3
 1873 0006 06D0     		beq	.L121
 1874 0008 0C29     		cmp	r1, #12
 1875 000a 14D1     		bne	.L126
 242:../../Middlewares/LVGL/GUI/lvgl/src/indev/lv_indev_scroll.c ****             break;
 1876              		.loc 1 242 13 view .LVU577
 242:../../Middlewares/LVGL/GUI/lvgl/src/indev/lv_indev_scroll.c ****             break;
 1877              		.loc 1 242 15 is_stmt 0 view .LVU578
 1878 000c 436E     		ldr	r3, [r0, #100]
 1879              	.LVL207:
 243:../../Middlewares/LVGL/GUI/lvgl/src/indev/lv_indev_scroll.c ****         case LV_DIR_HOR:
 1880              		.loc 1 243 13 is_stmt 1 view .LVU579
 1881              	.L122:
 251:../../Middlewares/LVGL/GUI/lvgl/src/indev/lv_indev_scroll.c ****     int32_t sum = 0;
 1882              		.loc 1 251 5 view .LVU580
 251:../../Middlewares/LVGL/GUI/lvgl/src/indev/lv_indev_scroll.c ****     int32_t sum = 0;
 1883              		.loc 1 251 33 is_stmt 0 view .LVU581
 1884 000e 92F82510 		ldrb	r1, [r2, #37]	@ zero_extendqisi2
 1885              	.LVL208:
 252:../../Middlewares/LVGL/GUI/lvgl/src/indev/lv_indev_scroll.c ****     while(v) {
 1886              		.loc 1 252 5 is_stmt 1 view .LVU582
 253:../../Middlewares/LVGL/GUI/lvgl/src/indev/lv_indev_scroll.c ****         sum += v;
 1887              		.loc 1 253 5 view .LVU583
 252:../../Middlewares/LVGL/GUI/lvgl/src/indev/lv_indev_scroll.c ****     while(v) {
 1888              		.loc 1 252 13 is_stmt 0 view .LVU584
 1889 0012 0020     		movs	r0, #0
 1890              	.LVL209:
 253:../../Middlewares/LVGL/GUI/lvgl/src/indev/lv_indev_scroll.c ****         sum += v;
 1891              		.loc 1 253 10 view .LVU585
 1892 0014 0CE0     		b	.L123
 1893              	.LVL210:
 1894              	.L121:
 245:../../Middlewares/LVGL/GUI/lvgl/src/indev/lv_indev_scroll.c ****             break;
 1895              		.loc 1 245 13 is_stmt 1 view .LVU586
 245:../../Middlewares/LVGL/GUI/lvgl/src/indev/lv_indev_scroll.c ****             break;
 1896              		.loc 1 245 15 is_stmt 0 view .LVU587
 1897 0016 036E     		ldr	r3, [r0, #96]
 1898              	.LVL211:
 246:../../Middlewares/LVGL/GUI/lvgl/src/indev/lv_indev_scroll.c ****         default:
 1899              		.loc 1 246 13 is_stmt 1 view .LVU588
 1900 0018 F9E7     		b	.L122
 1901              	.LVL212:
 1902              	.L124:
 254:../../Middlewares/LVGL/GUI/lvgl/src/indev/lv_indev_scroll.c ****         v = v * (100 - scroll_throw) / 100;
ARM GAS  C:\Users\28576\AppData\Local\Temp\ccZznpky.s 			page 59


 1903              		.loc 1 254 9 view .LVU589
 254:../../Middlewares/LVGL/GUI/lvgl/src/indev/lv_indev_scroll.c ****         v = v * (100 - scroll_throw) / 100;
 1904              		.loc 1 254 13 is_stmt 0 view .LVU590
 1905 001a 1844     		add	r0, r0, r3
 1906              	.LVL213:
 255:../../Middlewares/LVGL/GUI/lvgl/src/indev/lv_indev_scroll.c ****     }
 1907              		.loc 1 255 9 is_stmt 1 view .LVU591
 255:../../Middlewares/LVGL/GUI/lvgl/src/indev/lv_indev_scroll.c ****     }
 1908              		.loc 1 255 22 is_stmt 0 view .LVU592
 1909 001c C1F16402 		rsb	r2, r1, #100
 255:../../Middlewares/LVGL/GUI/lvgl/src/indev/lv_indev_scroll.c ****     }
 1910              		.loc 1 255 15 view .LVU593
 1911 0020 03FB02F2 		mul	r2, r3, r2
 255:../../Middlewares/LVGL/GUI/lvgl/src/indev/lv_indev_scroll.c ****     }
 1912              		.loc 1 255 11 view .LVU594
 1913 0024 054B     		ldr	r3, .L127
 1914              	.LVL214:
 255:../../Middlewares/LVGL/GUI/lvgl/src/indev/lv_indev_scroll.c ****     }
 1915              		.loc 1 255 11 view .LVU595
 1916 0026 83FB02C3 		smull	ip, r3, r3, r2
 1917 002a D217     		asrs	r2, r2, #31
 1918 002c C2EB6313 		rsb	r3, r2, r3, asr #5
 1919              	.LVL215:
 1920              	.L123:
 253:../../Middlewares/LVGL/GUI/lvgl/src/indev/lv_indev_scroll.c ****         sum += v;
 1921              		.loc 1 253 11 is_stmt 1 view .LVU596
 1922 0030 002B     		cmp	r3, #0
 1923 0032 F2D1     		bne	.L124
 1924 0034 7047     		bx	lr
 1925              	.LVL216:
 1926              	.L126:
 240:../../Middlewares/LVGL/GUI/lvgl/src/indev/lv_indev_scroll.c ****         case LV_DIR_VER:
 1927              		.loc 1 240 5 is_stmt 0 view .LVU597
 1928 0036 0020     		movs	r0, #0
 1929              	.LVL217:
 1930              	.L119:
 259:../../Middlewares/LVGL/GUI/lvgl/src/indev/lv_indev_scroll.c **** 
 1931              		.loc 1 259 1 view .LVU598
 1932 0038 7047     		bx	lr
 1933              	.L128:
 1934 003a 00BF     		.align	2
 1935              	.L127:
 1936 003c 1F85EB51 		.word	1374389535
 1937              		.cfi_endproc
 1938              	.LFE174:
 1940              		.section	.text.lv_indev_scroll_throw_handler,"ax",%progbits
 1941              		.align	1
 1942              		.global	lv_indev_scroll_throw_handler
 1943              		.syntax unified
 1944              		.thumb
 1945              		.thumb_func
 1947              	lv_indev_scroll_throw_handler:
 1948              	.LVL218:
 1949              	.LFB173:
 125:../../Middlewares/LVGL/GUI/lvgl/src/indev/lv_indev_scroll.c ****     lv_obj_t * scroll_obj = indev->pointer.scroll_obj;
 1950              		.loc 1 125 1 is_stmt 1 view -0
 1951              		.cfi_startproc
ARM GAS  C:\Users\28576\AppData\Local\Temp\ccZznpky.s 			page 60


 1952              		@ args = 0, pretend = 0, frame = 8
 1953              		@ frame_needed = 0, uses_anonymous_args = 0
 125:../../Middlewares/LVGL/GUI/lvgl/src/indev/lv_indev_scroll.c ****     lv_obj_t * scroll_obj = indev->pointer.scroll_obj;
 1954              		.loc 1 125 1 is_stmt 0 view .LVU600
 1955 0000 2DE9F041 		push	{r4, r5, r6, r7, r8, lr}
 1956              	.LCFI21:
 1957              		.cfi_def_cfa_offset 24
 1958              		.cfi_offset 4, -24
 1959              		.cfi_offset 5, -20
 1960              		.cfi_offset 6, -16
 1961              		.cfi_offset 7, -12
 1962              		.cfi_offset 8, -8
 1963              		.cfi_offset 14, -4
 1964 0004 84B0     		sub	sp, sp, #16
 1965              	.LCFI22:
 1966              		.cfi_def_cfa_offset 40
 126:../../Middlewares/LVGL/GUI/lvgl/src/indev/lv_indev_scroll.c ****     if(scroll_obj == NULL) return;
 1967              		.loc 1 126 5 is_stmt 1 view .LVU601
 126:../../Middlewares/LVGL/GUI/lvgl/src/indev/lv_indev_scroll.c ****     if(scroll_obj == NULL) return;
 1968              		.loc 1 126 16 is_stmt 0 view .LVU602
 1969 0006 056F     		ldr	r5, [r0, #112]
 1970              	.LVL219:
 127:../../Middlewares/LVGL/GUI/lvgl/src/indev/lv_indev_scroll.c ****     if(indev->pointer.scroll_dir == LV_DIR_NONE) return;
 1971              		.loc 1 127 5 is_stmt 1 view .LVU603
 127:../../Middlewares/LVGL/GUI/lvgl/src/indev/lv_indev_scroll.c ****     if(indev->pointer.scroll_dir == LV_DIR_NONE) return;
 1972              		.loc 1 127 7 is_stmt 0 view .LVU604
 1973 0008 2DB1     		cbz	r5, .L129
 1974 000a 0446     		mov	r4, r0
 128:../../Middlewares/LVGL/GUI/lvgl/src/indev/lv_indev_scroll.c **** 
 1975              		.loc 1 128 5 is_stmt 1 view .LVU605
 128:../../Middlewares/LVGL/GUI/lvgl/src/indev/lv_indev_scroll.c **** 
 1976              		.loc 1 128 34 is_stmt 0 view .LVU606
 1977 000c 90F8A830 		ldrb	r3, [r0, #168]	@ zero_extendqisi2
 128:../../Middlewares/LVGL/GUI/lvgl/src/indev/lv_indev_scroll.c **** 
 1978              		.loc 1 128 7 view .LVU607
 1979 0010 13F00F0F 		tst	r3, #15
 1980 0014 02D1     		bne	.L143
 1981              	.LVL220:
 1982              	.L129:
 234:../../Middlewares/LVGL/GUI/lvgl/src/indev/lv_indev_scroll.c **** 
 1983              		.loc 1 234 1 view .LVU608
 1984 0016 04B0     		add	sp, sp, #16
 1985              	.LCFI23:
 1986              		.cfi_remember_state
 1987              		.cfi_def_cfa_offset 24
 1988              		@ sp needed
 1989 0018 BDE8F081 		pop	{r4, r5, r6, r7, r8, pc}
 1990              	.LVL221:
 1991              	.L143:
 1992              	.LCFI24:
 1993              		.cfi_restore_state
 130:../../Middlewares/LVGL/GUI/lvgl/src/indev/lv_indev_scroll.c **** 
 1994              		.loc 1 130 5 is_stmt 1 view .LVU609
 130:../../Middlewares/LVGL/GUI/lvgl/src/indev/lv_indev_scroll.c **** 
 1995              		.loc 1 130 33 is_stmt 0 view .LVU610
 1996 001c 90F82530 		ldrb	r3, [r0, #37]	@ zero_extendqisi2
 1997 0020 1E46     		mov	r6, r3
ARM GAS  C:\Users\28576\AppData\Local\Temp\ccZznpky.s 			page 61


 1998              	.LVL222:
 132:../../Middlewares/LVGL/GUI/lvgl/src/indev/lv_indev_scroll.c ****         indev->pointer.scroll_throw_vect.y = 0;
 1999              		.loc 1 132 5 is_stmt 1 view .LVU611
 132:../../Middlewares/LVGL/GUI/lvgl/src/indev/lv_indev_scroll.c ****         indev->pointer.scroll_throw_vect.y = 0;
 2000              		.loc 1 132 8 is_stmt 0 view .LVU612
 2001 0022 4021     		movs	r1, #64
 2002 0024 2846     		mov	r0, r5
 2003              	.LVL223:
 132:../../Middlewares/LVGL/GUI/lvgl/src/indev/lv_indev_scroll.c ****         indev->pointer.scroll_throw_vect.y = 0;
 2004              		.loc 1 132 8 view .LVU613
 2005 0026 FFF7FEFF 		bl	lv_obj_has_flag
 2006              	.LVL224:
 132:../../Middlewares/LVGL/GUI/lvgl/src/indev/lv_indev_scroll.c ****         indev->pointer.scroll_throw_vect.y = 0;
 2007              		.loc 1 132 7 discriminator 1 view .LVU614
 2008 002a 08B9     		cbnz	r0, .L131
 133:../../Middlewares/LVGL/GUI/lvgl/src/indev/lv_indev_scroll.c ****         indev->pointer.scroll_throw_vect.x = 0;
 2009              		.loc 1 133 9 is_stmt 1 view .LVU615
 133:../../Middlewares/LVGL/GUI/lvgl/src/indev/lv_indev_scroll.c ****         indev->pointer.scroll_throw_vect.x = 0;
 2010              		.loc 1 133 44 is_stmt 0 view .LVU616
 2011 002c E065     		str	r0, [r4, #92]
 134:../../Middlewares/LVGL/GUI/lvgl/src/indev/lv_indev_scroll.c ****     }
 2012              		.loc 1 134 9 is_stmt 1 view .LVU617
 134:../../Middlewares/LVGL/GUI/lvgl/src/indev/lv_indev_scroll.c ****     }
 2013              		.loc 1 134 44 is_stmt 0 view .LVU618
 2014 002e A065     		str	r0, [r4, #88]
 2015              	.L131:
 137:../../Middlewares/LVGL/GUI/lvgl/src/indev/lv_indev_scroll.c ****     lv_scroll_snap_t align_y = lv_obj_get_scroll_snap_y(scroll_obj);
 2016              		.loc 1 137 5 is_stmt 1 view .LVU619
 137:../../Middlewares/LVGL/GUI/lvgl/src/indev/lv_indev_scroll.c ****     lv_scroll_snap_t align_y = lv_obj_get_scroll_snap_y(scroll_obj);
 2017              		.loc 1 137 32 is_stmt 0 view .LVU620
 2018 0030 2846     		mov	r0, r5
 2019 0032 FFF7FEFF 		bl	lv_obj_get_scroll_snap_x
 2020              	.LVL225:
 2021 0036 8046     		mov	r8, r0
 2022              	.LVL226:
 138:../../Middlewares/LVGL/GUI/lvgl/src/indev/lv_indev_scroll.c **** 
 2023              		.loc 1 138 5 is_stmt 1 view .LVU621
 138:../../Middlewares/LVGL/GUI/lvgl/src/indev/lv_indev_scroll.c **** 
 2024              		.loc 1 138 32 is_stmt 0 view .LVU622
 2025 0038 2846     		mov	r0, r5
 2026 003a FFF7FEFF 		bl	lv_obj_get_scroll_snap_y
 2027              	.LVL227:
 2028 003e 0746     		mov	r7, r0
 2029              	.LVL228:
 140:../../Middlewares/LVGL/GUI/lvgl/src/indev/lv_indev_scroll.c ****         indev->pointer.scroll_throw_vect.x = 0;
 2030              		.loc 1 140 5 is_stmt 1 view .LVU623
 140:../../Middlewares/LVGL/GUI/lvgl/src/indev/lv_indev_scroll.c ****         indev->pointer.scroll_throw_vect.x = 0;
 2031              		.loc 1 140 34 is_stmt 0 view .LVU624
 2032 0040 94F8A830 		ldrb	r3, [r4, #168]	@ zero_extendqisi2
 2033 0044 03F00F03 		and	r3, r3, #15
 140:../../Middlewares/LVGL/GUI/lvgl/src/indev/lv_indev_scroll.c ****         indev->pointer.scroll_throw_vect.x = 0;
 2034              		.loc 1 140 7 view .LVU625
 2035 0048 0C2B     		cmp	r3, #12
 2036 004a 2FD0     		beq	.L144
 166:../../Middlewares/LVGL/GUI/lvgl/src/indev/lv_indev_scroll.c ****         indev->pointer.scroll_throw_vect.y = 0;
 2037              		.loc 1 166 10 is_stmt 1 view .LVU626
 166:../../Middlewares/LVGL/GUI/lvgl/src/indev/lv_indev_scroll.c ****         indev->pointer.scroll_throw_vect.y = 0;
ARM GAS  C:\Users\28576\AppData\Local\Temp\ccZznpky.s 			page 62


 2038              		.loc 1 166 12 is_stmt 0 view .LVU627
 2039 004c 032B     		cmp	r3, #3
 2040 004e 75D0     		beq	.L145
 2041              	.LVL229:
 2042              	.L134:
 194:../../Middlewares/LVGL/GUI/lvgl/src/indev/lv_indev_scroll.c ****         /*Revert if scrolled in*/
 2043              		.loc 1 194 5 is_stmt 1 view .LVU628
 194:../../Middlewares/LVGL/GUI/lvgl/src/indev/lv_indev_scroll.c ****         /*Revert if scrolled in*/
 2044              		.loc 1 194 40 is_stmt 0 view .LVU629
 2045 0050 A36D     		ldr	r3, [r4, #88]
 194:../../Middlewares/LVGL/GUI/lvgl/src/indev/lv_indev_scroll.c ****         /*Revert if scrolled in*/
 2046              		.loc 1 194 7 view .LVU630
 2047 0052 002B     		cmp	r3, #0
 2048 0054 DFD1     		bne	.L129
 194:../../Middlewares/LVGL/GUI/lvgl/src/indev/lv_indev_scroll.c ****         /*Revert if scrolled in*/
 2049              		.loc 1 194 83 discriminator 1 view .LVU631
 2050 0056 E36D     		ldr	r3, [r4, #92]
 194:../../Middlewares/LVGL/GUI/lvgl/src/indev/lv_indev_scroll.c ****         /*Revert if scrolled in*/
 2051              		.loc 1 194 48 discriminator 1 view .LVU632
 2052 0058 002B     		cmp	r3, #0
 2053 005a DCD1     		bne	.L129
 197:../../Middlewares/LVGL/GUI/lvgl/src/indev/lv_indev_scroll.c ****             int32_t st = lv_obj_get_scroll_top(scroll_obj);
 2054              		.loc 1 197 9 is_stmt 1 view .LVU633
 197:../../Middlewares/LVGL/GUI/lvgl/src/indev/lv_indev_scroll.c ****             int32_t st = lv_obj_get_scroll_top(scroll_obj);
 2055              		.loc 1 197 11 is_stmt 0 view .LVU634
 2056 005c 002F     		cmp	r7, #0
 2057 005e 00F0B880 		beq	.L146
 2058              	.L138:
 213:../../Middlewares/LVGL/GUI/lvgl/src/indev/lv_indev_scroll.c ****             int32_t sl = lv_obj_get_scroll_left(scroll_obj);
 2059              		.loc 1 213 9 is_stmt 1 view .LVU635
 213:../../Middlewares/LVGL/GUI/lvgl/src/indev/lv_indev_scroll.c ****             int32_t sl = lv_obj_get_scroll_left(scroll_obj);
 2060              		.loc 1 213 11 is_stmt 0 view .LVU636
 2061 0062 4346     		mov	r3, r8
 2062 0064 83B9     		cbnz	r3, .L140
 2063              	.LBB115:
 214:../../Middlewares/LVGL/GUI/lvgl/src/indev/lv_indev_scroll.c ****             int32_t sr = lv_obj_get_scroll_right(scroll_obj);
 2064              		.loc 1 214 13 is_stmt 1 view .LVU637
 214:../../Middlewares/LVGL/GUI/lvgl/src/indev/lv_indev_scroll.c ****             int32_t sr = lv_obj_get_scroll_right(scroll_obj);
 2065              		.loc 1 214 26 is_stmt 0 view .LVU638
 2066 0066 2846     		mov	r0, r5
 2067 0068 FFF7FEFF 		bl	lv_obj_get_scroll_left
 2068              	.LVL230:
 2069 006c 0646     		mov	r6, r0
 2070              	.LVL231:
 215:../../Middlewares/LVGL/GUI/lvgl/src/indev/lv_indev_scroll.c ****             if(sl > 0 || sr > 0) {
 2071              		.loc 1 215 13 is_stmt 1 view .LVU639
 215:../../Middlewares/LVGL/GUI/lvgl/src/indev/lv_indev_scroll.c ****             if(sl > 0 || sr > 0) {
 2072              		.loc 1 215 26 is_stmt 0 view .LVU640
 2073 006e 2846     		mov	r0, r5
 2074              	.LVL232:
 215:../../Middlewares/LVGL/GUI/lvgl/src/indev/lv_indev_scroll.c ****             if(sl > 0 || sr > 0) {
 2075              		.loc 1 215 26 view .LVU641
 2076 0070 FFF7FEFF 		bl	lv_obj_get_scroll_right
 2077              	.LVL233:
 216:../../Middlewares/LVGL/GUI/lvgl/src/indev/lv_indev_scroll.c ****                 if(sl < 0) {
 2078              		.loc 1 216 13 is_stmt 1 view .LVU642
 216:../../Middlewares/LVGL/GUI/lvgl/src/indev/lv_indev_scroll.c ****                 if(sl < 0) {
ARM GAS  C:\Users\28576\AppData\Local\Temp\ccZznpky.s 			page 63


 2079              		.loc 1 216 15 is_stmt 0 view .LVU643
 2080 0074 0028     		cmp	r0, #0
 2081 0076 D8BF     		it	le
 2082 0078 002E     		cmple	r6, #0
 2083 007a 05DD     		ble	.L140
 217:../../Middlewares/LVGL/GUI/lvgl/src/indev/lv_indev_scroll.c ****                     lv_obj_scroll_by(scroll_obj, sl, 0, LV_ANIM_ON);
 2084              		.loc 1 217 17 is_stmt 1 view .LVU644
 217:../../Middlewares/LVGL/GUI/lvgl/src/indev/lv_indev_scroll.c ****                     lv_obj_scroll_by(scroll_obj, sl, 0, LV_ANIM_ON);
 2085              		.loc 1 217 19 is_stmt 0 view .LVU645
 2086 007c 002E     		cmp	r6, #0
 2087 007e C0F2D180 		blt	.L147
 221:../../Middlewares/LVGL/GUI/lvgl/src/indev/lv_indev_scroll.c ****                     lv_obj_scroll_by(scroll_obj, -sr, 0, LV_ANIM_ON);
 2088              		.loc 1 221 22 is_stmt 1 view .LVU646
 221:../../Middlewares/LVGL/GUI/lvgl/src/indev/lv_indev_scroll.c ****                     lv_obj_scroll_by(scroll_obj, -sr, 0, LV_ANIM_ON);
 2089              		.loc 1 221 24 is_stmt 0 view .LVU647
 2090 0082 0028     		cmp	r0, #0
 2091 0084 C0F2DA80 		blt	.L148
 2092              	.LVL234:
 2093              	.L140:
 221:../../Middlewares/LVGL/GUI/lvgl/src/indev/lv_indev_scroll.c ****                     lv_obj_scroll_by(scroll_obj, -sr, 0, LV_ANIM_ON);
 2094              		.loc 1 221 24 view .LVU648
 2095              	.LBE115:
 228:../../Middlewares/LVGL/GUI/lvgl/src/indev/lv_indev_scroll.c ****         if(indev->reset_query) return;
 2096              		.loc 1 228 9 is_stmt 1 view .LVU649
 2097 0088 2246     		mov	r2, r4
 2098 008a 0E21     		movs	r1, #14
 2099 008c 2846     		mov	r0, r5
 2100 008e FFF7FEFF 		bl	lv_obj_send_event
 2101              	.LVL235:
 229:../../Middlewares/LVGL/GUI/lvgl/src/indev/lv_indev_scroll.c **** 
 2102              		.loc 1 229 9 view .LVU650
 229:../../Middlewares/LVGL/GUI/lvgl/src/indev/lv_indev_scroll.c **** 
 2103              		.loc 1 229 12 is_stmt 0 view .LVU651
 2104 0092 E37A     		ldrb	r3, [r4, #11]	@ zero_extendqisi2
 229:../../Middlewares/LVGL/GUI/lvgl/src/indev/lv_indev_scroll.c **** 
 2105              		.loc 1 229 11 view .LVU652
 2106 0094 13F0020F 		tst	r3, #2
 2107 0098 BDD1     		bne	.L129
 231:../../Middlewares/LVGL/GUI/lvgl/src/indev/lv_indev_scroll.c ****         indev->pointer.scroll_obj = NULL;
 2108              		.loc 1 231 9 is_stmt 1 view .LVU653
 231:../../Middlewares/LVGL/GUI/lvgl/src/indev/lv_indev_scroll.c ****         indev->pointer.scroll_obj = NULL;
 2109              		.loc 1 231 35 is_stmt 0 view .LVU654
 2110 009a 94F8A830 		ldrb	r3, [r4, #168]	@ zero_extendqisi2
 2111 009e 23F00F03 		bic	r3, r3, #15
 2112 00a2 84F8A830 		strb	r3, [r4, #168]
 232:../../Middlewares/LVGL/GUI/lvgl/src/indev/lv_indev_scroll.c ****     }
 2113              		.loc 1 232 9 is_stmt 1 view .LVU655
 232:../../Middlewares/LVGL/GUI/lvgl/src/indev/lv_indev_scroll.c ****     }
 2114              		.loc 1 232 35 is_stmt 0 view .LVU656
 2115 00a6 0023     		movs	r3, #0
 2116 00a8 2367     		str	r3, [r4, #112]
 2117 00aa B4E7     		b	.L129
 2118              	.LVL236:
 2119              	.L144:
 141:../../Middlewares/LVGL/GUI/lvgl/src/indev/lv_indev_scroll.c ****         /*If no snapping "throw"*/
 2120              		.loc 1 141 9 is_stmt 1 view .LVU657
 141:../../Middlewares/LVGL/GUI/lvgl/src/indev/lv_indev_scroll.c ****         /*If no snapping "throw"*/
ARM GAS  C:\Users\28576\AppData\Local\Temp\ccZznpky.s 			page 64


 2121              		.loc 1 141 44 is_stmt 0 view .LVU658
 2122 00ac 0023     		movs	r3, #0
 2123 00ae A365     		str	r3, [r4, #88]
 143:../../Middlewares/LVGL/GUI/lvgl/src/indev/lv_indev_scroll.c ****             indev->pointer.scroll_throw_vect.y =
 2124              		.loc 1 143 9 is_stmt 1 view .LVU659
 143:../../Middlewares/LVGL/GUI/lvgl/src/indev/lv_indev_scroll.c ****             indev->pointer.scroll_throw_vect.y =
 2125              		.loc 1 143 11 is_stmt 0 view .LVU660
 2126 00b0 28BB     		cbnz	r0, .L133
 2127              	.LBB116:
 144:../../Middlewares/LVGL/GUI/lvgl/src/indev/lv_indev_scroll.c ****                 indev->pointer.scroll_throw_vect.y * (100 - scroll_throw) / 100;
 2128              		.loc 1 144 13 is_stmt 1 view .LVU661
 145:../../Middlewares/LVGL/GUI/lvgl/src/indev/lv_indev_scroll.c **** 
 2129              		.loc 1 145 49 is_stmt 0 view .LVU662
 2130 00b2 E36D     		ldr	r3, [r4, #92]
 145:../../Middlewares/LVGL/GUI/lvgl/src/indev/lv_indev_scroll.c **** 
 2131              		.loc 1 145 59 view .LVU663
 2132 00b4 C6F16402 		rsb	r2, r6, #100
 145:../../Middlewares/LVGL/GUI/lvgl/src/indev/lv_indev_scroll.c **** 
 2133              		.loc 1 145 52 view .LVU664
 2134 00b8 02FB03F3 		mul	r3, r2, r3
 145:../../Middlewares/LVGL/GUI/lvgl/src/indev/lv_indev_scroll.c **** 
 2135              		.loc 1 145 75 view .LVU665
 2136 00bc 654A     		ldr	r2, .L150
 2137 00be 82FB0312 		smull	r1, r2, r2, r3
 2138 00c2 DB17     		asrs	r3, r3, #31
 2139 00c4 C3EB6213 		rsb	r3, r3, r2, asr #5
 144:../../Middlewares/LVGL/GUI/lvgl/src/indev/lv_indev_scroll.c ****                 indev->pointer.scroll_throw_vect.y * (100 - scroll_throw) / 100;
 2140              		.loc 1 144 48 view .LVU666
 2141 00c8 E365     		str	r3, [r4, #92]
 147:../../Middlewares/LVGL/GUI/lvgl/src/indev/lv_indev_scroll.c ****             int32_t st = lv_obj_get_scroll_top(scroll_obj);
 2142              		.loc 1 147 13 is_stmt 1 view .LVU667
 147:../../Middlewares/LVGL/GUI/lvgl/src/indev/lv_indev_scroll.c ****             int32_t st = lv_obj_get_scroll_top(scroll_obj);
 2143              		.loc 1 147 26 is_stmt 0 view .LVU668
 2144 00ca 2846     		mov	r0, r5
 2145              	.LVL237:
 147:../../Middlewares/LVGL/GUI/lvgl/src/indev/lv_indev_scroll.c ****             int32_t st = lv_obj_get_scroll_top(scroll_obj);
 2146              		.loc 1 147 26 view .LVU669
 2147 00cc FFF7FEFF 		bl	lv_obj_get_scroll_bottom
 2148              	.LVL238:
 2149 00d0 0646     		mov	r6, r0
 2150              	.LVL239:
 148:../../Middlewares/LVGL/GUI/lvgl/src/indev/lv_indev_scroll.c **** 
 2151              		.loc 1 148 13 is_stmt 1 view .LVU670
 148:../../Middlewares/LVGL/GUI/lvgl/src/indev/lv_indev_scroll.c **** 
 2152              		.loc 1 148 26 is_stmt 0 view .LVU671
 2153 00d2 2846     		mov	r0, r5
 2154              	.LVL240:
 148:../../Middlewares/LVGL/GUI/lvgl/src/indev/lv_indev_scroll.c **** 
 2155              		.loc 1 148 26 view .LVU672
 2156 00d4 FFF7FEFF 		bl	lv_obj_get_scroll_top
 2157              	.LVL241:
 2158 00d8 0246     		mov	r2, r0
 2159              	.LVL242:
 150:../../Middlewares/LVGL/GUI/lvgl/src/indev/lv_indev_scroll.c ****                                                               LV_DIR_VER);
 2160              		.loc 1 150 13 is_stmt 1 view .LVU673
 150:../../Middlewares/LVGL/GUI/lvgl/src/indev/lv_indev_scroll.c ****                                                               LV_DIR_VER);
 2161              		.loc 1 150 50 is_stmt 0 view .LVU674
ARM GAS  C:\Users\28576\AppData\Local\Temp\ccZznpky.s 			page 65


 2162 00da 0C23     		movs	r3, #12
 2163 00dc 0093     		str	r3, [sp]
 2164 00de 3346     		mov	r3, r6
 2165 00e0 E16D     		ldr	r1, [r4, #92]
 2166 00e2 2846     		mov	r0, r5
 2167              	.LVL243:
 150:../../Middlewares/LVGL/GUI/lvgl/src/indev/lv_indev_scroll.c ****                                                               LV_DIR_VER);
 2168              		.loc 1 150 50 view .LVU675
 2169 00e4 FFF7FEFF 		bl	elastic_diff
 2170              	.LVL244:
 150:../../Middlewares/LVGL/GUI/lvgl/src/indev/lv_indev_scroll.c ****                                                               LV_DIR_VER);
 2171              		.loc 1 150 50 view .LVU676
 2172 00e8 0246     		mov	r2, r0
 150:../../Middlewares/LVGL/GUI/lvgl/src/indev/lv_indev_scroll.c ****                                                               LV_DIR_VER);
 2173              		.loc 1 150 48 discriminator 1 view .LVU677
 2174 00ea E065     		str	r0, [r4, #92]
 153:../../Middlewares/LVGL/GUI/lvgl/src/indev/lv_indev_scroll.c ****             if(indev->reset_query) return;
 2175              		.loc 1 153 13 is_stmt 1 view .LVU678
 2176 00ec 0021     		movs	r1, #0
 2177 00ee 2846     		mov	r0, r5
 2178 00f0 FFF7FEFF 		bl	lv_obj_scroll_by_raw
 2179              	.LVL245:
 154:../../Middlewares/LVGL/GUI/lvgl/src/indev/lv_indev_scroll.c ****         }
 2180              		.loc 1 154 13 view .LVU679
 154:../../Middlewares/LVGL/GUI/lvgl/src/indev/lv_indev_scroll.c ****         }
 2181              		.loc 1 154 16 is_stmt 0 view .LVU680
 2182 00f4 E37A     		ldrb	r3, [r4, #11]	@ zero_extendqisi2
 154:../../Middlewares/LVGL/GUI/lvgl/src/indev/lv_indev_scroll.c ****         }
 2183              		.loc 1 154 15 view .LVU681
 2184 00f6 13F0020F 		tst	r3, #2
 2185 00fa A9D0     		beq	.L134
 2186 00fc 8BE7     		b	.L129
 2187              	.LVL246:
 2188              	.L133:
 154:../../Middlewares/LVGL/GUI/lvgl/src/indev/lv_indev_scroll.c ****         }
 2189              		.loc 1 154 15 view .LVU682
 2190              	.LBE116:
 2191              	.LBB117:
 158:../../Middlewares/LVGL/GUI/lvgl/src/indev/lv_indev_scroll.c ****             indev->pointer.scroll_throw_vect.y = 0;
 2192              		.loc 1 158 13 is_stmt 1 view .LVU683
 158:../../Middlewares/LVGL/GUI/lvgl/src/indev/lv_indev_scroll.c ****             indev->pointer.scroll_throw_vect.y = 0;
 2193              		.loc 1 158 30 is_stmt 0 view .LVU684
 2194 00fe 0C21     		movs	r1, #12
 2195 0100 2046     		mov	r0, r4
 2196              	.LVL247:
 158:../../Middlewares/LVGL/GUI/lvgl/src/indev/lv_indev_scroll.c ****             indev->pointer.scroll_throw_vect.y = 0;
 2197              		.loc 1 158 30 view .LVU685
 2198 0102 FFF7FEFF 		bl	lv_indev_scroll_throw_predict
 2199              	.LVL248:
 158:../../Middlewares/LVGL/GUI/lvgl/src/indev/lv_indev_scroll.c ****             indev->pointer.scroll_throw_vect.y = 0;
 2200              		.loc 1 158 21 discriminator 1 view .LVU686
 2201 0106 0390     		str	r0, [sp, #12]
 159:../../Middlewares/LVGL/GUI/lvgl/src/indev/lv_indev_scroll.c ****             scroll_limit_diff(indev, NULL, &diff_y);
 2202              		.loc 1 159 13 is_stmt 1 view .LVU687
 159:../../Middlewares/LVGL/GUI/lvgl/src/indev/lv_indev_scroll.c ****             scroll_limit_diff(indev, NULL, &diff_y);
 2203              		.loc 1 159 48 is_stmt 0 view .LVU688
 2204 0108 0023     		movs	r3, #0
ARM GAS  C:\Users\28576\AppData\Local\Temp\ccZznpky.s 			page 66


 2205 010a E365     		str	r3, [r4, #92]
 160:../../Middlewares/LVGL/GUI/lvgl/src/indev/lv_indev_scroll.c ****             int32_t y = find_snap_point_y(scroll_obj, LV_COORD_MIN, LV_COORD_MAX, diff_y);
 2206              		.loc 1 160 13 is_stmt 1 view .LVU689
 2207 010c 03AA     		add	r2, sp, #12
 2208 010e 1946     		mov	r1, r3
 2209 0110 2046     		mov	r0, r4
 2210 0112 FFF7FEFF 		bl	scroll_limit_diff
 2211              	.LVL249:
 161:../../Middlewares/LVGL/GUI/lvgl/src/indev/lv_indev_scroll.c ****             lv_obj_scroll_by(scroll_obj, 0, diff_y + y, LV_ANIM_ON);
 2212              		.loc 1 161 13 view .LVU690
 161:../../Middlewares/LVGL/GUI/lvgl/src/indev/lv_indev_scroll.c ****             lv_obj_scroll_by(scroll_obj, 0, diff_y + y, LV_ANIM_ON);
 2213              		.loc 1 161 25 is_stmt 0 view .LVU691
 2214 0116 039B     		ldr	r3, [sp, #12]
 2215 0118 6FF06042 		mvn	r2, #-536870912
 2216 011c 4E49     		ldr	r1, .L150+4
 2217 011e 2846     		mov	r0, r5
 2218 0120 FFF7FEFF 		bl	find_snap_point_y
 2219              	.LVL250:
 162:../../Middlewares/LVGL/GUI/lvgl/src/indev/lv_indev_scroll.c ****             if(indev->reset_query) return;
 2220              		.loc 1 162 13 is_stmt 1 view .LVU692
 2221 0124 0123     		movs	r3, #1
 2222 0126 039A     		ldr	r2, [sp, #12]
 2223 0128 0244     		add	r2, r2, r0
 2224 012a 0021     		movs	r1, #0
 2225 012c 2846     		mov	r0, r5
 2226              	.LVL251:
 162:../../Middlewares/LVGL/GUI/lvgl/src/indev/lv_indev_scroll.c ****             if(indev->reset_query) return;
 2227              		.loc 1 162 13 is_stmt 0 view .LVU693
 2228 012e FFF7FEFF 		bl	lv_obj_scroll_by
 2229              	.LVL252:
 163:../../Middlewares/LVGL/GUI/lvgl/src/indev/lv_indev_scroll.c ****         }
 2230              		.loc 1 163 13 is_stmt 1 view .LVU694
 163:../../Middlewares/LVGL/GUI/lvgl/src/indev/lv_indev_scroll.c ****         }
 2231              		.loc 1 163 16 is_stmt 0 view .LVU695
 2232 0132 E37A     		ldrb	r3, [r4, #11]	@ zero_extendqisi2
 163:../../Middlewares/LVGL/GUI/lvgl/src/indev/lv_indev_scroll.c ****         }
 2233              		.loc 1 163 15 view .LVU696
 2234 0134 13F0020F 		tst	r3, #2
 2235 0138 8AD0     		beq	.L134
 2236 013a 6CE7     		b	.L129
 2237              	.LVL253:
 2238              	.L145:
 163:../../Middlewares/LVGL/GUI/lvgl/src/indev/lv_indev_scroll.c ****         }
 2239              		.loc 1 163 15 view .LVU697
 2240              	.LBE117:
 167:../../Middlewares/LVGL/GUI/lvgl/src/indev/lv_indev_scroll.c ****         /*If no snapping "throw"*/
 2241              		.loc 1 167 9 is_stmt 1 view .LVU698
 167:../../Middlewares/LVGL/GUI/lvgl/src/indev/lv_indev_scroll.c ****         /*If no snapping "throw"*/
 2242              		.loc 1 167 44 is_stmt 0 view .LVU699
 2243 013c 0023     		movs	r3, #0
 2244 013e E365     		str	r3, [r4, #92]
 169:../../Middlewares/LVGL/GUI/lvgl/src/indev/lv_indev_scroll.c ****             indev->pointer.scroll_throw_vect.x =
 2245              		.loc 1 169 9 is_stmt 1 view .LVU700
 169:../../Middlewares/LVGL/GUI/lvgl/src/indev/lv_indev_scroll.c ****             indev->pointer.scroll_throw_vect.x =
 2246              		.loc 1 169 11 is_stmt 0 view .LVU701
 2247 0140 4346     		mov	r3, r8
 2248 0142 33BB     		cbnz	r3, .L136
ARM GAS  C:\Users\28576\AppData\Local\Temp\ccZznpky.s 			page 67


 2249              	.LBB118:
 170:../../Middlewares/LVGL/GUI/lvgl/src/indev/lv_indev_scroll.c ****                 indev->pointer.scroll_throw_vect.x * (100 - scroll_throw) / 100;
 2250              		.loc 1 170 13 is_stmt 1 view .LVU702
 171:../../Middlewares/LVGL/GUI/lvgl/src/indev/lv_indev_scroll.c **** 
 2251              		.loc 1 171 49 is_stmt 0 view .LVU703
 2252 0144 A26D     		ldr	r2, [r4, #88]
 171:../../Middlewares/LVGL/GUI/lvgl/src/indev/lv_indev_scroll.c **** 
 2253              		.loc 1 171 59 view .LVU704
 2254 0146 C6F16403 		rsb	r3, r6, #100
 171:../../Middlewares/LVGL/GUI/lvgl/src/indev/lv_indev_scroll.c **** 
 2255              		.loc 1 171 52 view .LVU705
 2256 014a 02FB03F3 		mul	r3, r2, r3
 171:../../Middlewares/LVGL/GUI/lvgl/src/indev/lv_indev_scroll.c **** 
 2257              		.loc 1 171 75 view .LVU706
 2258 014e 414A     		ldr	r2, .L150
 2259 0150 82FB0312 		smull	r1, r2, r2, r3
 2260 0154 DB17     		asrs	r3, r3, #31
 2261 0156 C3EB6213 		rsb	r3, r3, r2, asr #5
 170:../../Middlewares/LVGL/GUI/lvgl/src/indev/lv_indev_scroll.c ****                 indev->pointer.scroll_throw_vect.x * (100 - scroll_throw) / 100;
 2262              		.loc 1 170 48 view .LVU707
 2263 015a A365     		str	r3, [r4, #88]
 173:../../Middlewares/LVGL/GUI/lvgl/src/indev/lv_indev_scroll.c ****             int32_t sr = lv_obj_get_scroll_right(scroll_obj);
 2264              		.loc 1 173 13 is_stmt 1 view .LVU708
 173:../../Middlewares/LVGL/GUI/lvgl/src/indev/lv_indev_scroll.c ****             int32_t sr = lv_obj_get_scroll_right(scroll_obj);
 2265              		.loc 1 173 26 is_stmt 0 view .LVU709
 2266 015c 2846     		mov	r0, r5
 2267              	.LVL254:
 173:../../Middlewares/LVGL/GUI/lvgl/src/indev/lv_indev_scroll.c ****             int32_t sr = lv_obj_get_scroll_right(scroll_obj);
 2268              		.loc 1 173 26 view .LVU710
 2269 015e FFF7FEFF 		bl	lv_obj_get_scroll_left
 2270              	.LVL255:
 2271 0162 0646     		mov	r6, r0
 2272              	.LVL256:
 174:../../Middlewares/LVGL/GUI/lvgl/src/indev/lv_indev_scroll.c **** 
 2273              		.loc 1 174 13 is_stmt 1 view .LVU711
 174:../../Middlewares/LVGL/GUI/lvgl/src/indev/lv_indev_scroll.c **** 
 2274              		.loc 1 174 26 is_stmt 0 view .LVU712
 2275 0164 2846     		mov	r0, r5
 2276              	.LVL257:
 174:../../Middlewares/LVGL/GUI/lvgl/src/indev/lv_indev_scroll.c **** 
 2277              		.loc 1 174 26 view .LVU713
 2278 0166 FFF7FEFF 		bl	lv_obj_get_scroll_right
 2279              	.LVL258:
 2280 016a 0346     		mov	r3, r0
 2281              	.LVL259:
 176:../../Middlewares/LVGL/GUI/lvgl/src/indev/lv_indev_scroll.c ****                                                               LV_DIR_HOR);
 2282              		.loc 1 176 13 is_stmt 1 view .LVU714
 176:../../Middlewares/LVGL/GUI/lvgl/src/indev/lv_indev_scroll.c ****                                                               LV_DIR_HOR);
 2283              		.loc 1 176 50 is_stmt 0 view .LVU715
 2284 016c 0322     		movs	r2, #3
 2285 016e 0092     		str	r2, [sp]
 2286 0170 3246     		mov	r2, r6
 2287 0172 A16D     		ldr	r1, [r4, #88]
 2288 0174 2846     		mov	r0, r5
 2289              	.LVL260:
 176:../../Middlewares/LVGL/GUI/lvgl/src/indev/lv_indev_scroll.c ****                                                               LV_DIR_HOR);
 2290              		.loc 1 176 50 view .LVU716
ARM GAS  C:\Users\28576\AppData\Local\Temp\ccZznpky.s 			page 68


 2291 0176 FFF7FEFF 		bl	elastic_diff
 2292              	.LVL261:
 176:../../Middlewares/LVGL/GUI/lvgl/src/indev/lv_indev_scroll.c ****                                                               LV_DIR_HOR);
 2293              		.loc 1 176 50 view .LVU717
 2294 017a 0146     		mov	r1, r0
 176:../../Middlewares/LVGL/GUI/lvgl/src/indev/lv_indev_scroll.c ****                                                               LV_DIR_HOR);
 2295              		.loc 1 176 48 discriminator 1 view .LVU718
 2296 017c A065     		str	r0, [r4, #88]
 179:../../Middlewares/LVGL/GUI/lvgl/src/indev/lv_indev_scroll.c ****             if(indev->reset_query) return;
 2297              		.loc 1 179 13 is_stmt 1 view .LVU719
 2298 017e 0022     		movs	r2, #0
 2299 0180 2846     		mov	r0, r5
 2300 0182 FFF7FEFF 		bl	lv_obj_scroll_by_raw
 2301              	.LVL262:
 180:../../Middlewares/LVGL/GUI/lvgl/src/indev/lv_indev_scroll.c ****         }
 2302              		.loc 1 180 13 view .LVU720
 180:../../Middlewares/LVGL/GUI/lvgl/src/indev/lv_indev_scroll.c ****         }
 2303              		.loc 1 180 16 is_stmt 0 view .LVU721
 2304 0186 E37A     		ldrb	r3, [r4, #11]	@ zero_extendqisi2
 180:../../Middlewares/LVGL/GUI/lvgl/src/indev/lv_indev_scroll.c ****         }
 2305              		.loc 1 180 15 view .LVU722
 2306 0188 13F0020F 		tst	r3, #2
 2307 018c 3FF460AF 		beq	.L134
 2308 0190 41E7     		b	.L129
 2309              	.LVL263:
 2310              	.L136:
 180:../../Middlewares/LVGL/GUI/lvgl/src/indev/lv_indev_scroll.c ****         }
 2311              		.loc 1 180 15 view .LVU723
 2312              	.LBE118:
 2313              	.LBB119:
 184:../../Middlewares/LVGL/GUI/lvgl/src/indev/lv_indev_scroll.c ****             indev->pointer.scroll_throw_vect.x = 0;
 2314              		.loc 1 184 13 is_stmt 1 view .LVU724
 184:../../Middlewares/LVGL/GUI/lvgl/src/indev/lv_indev_scroll.c ****             indev->pointer.scroll_throw_vect.x = 0;
 2315              		.loc 1 184 30 is_stmt 0 view .LVU725
 2316 0192 0321     		movs	r1, #3
 2317 0194 2046     		mov	r0, r4
 2318              	.LVL264:
 184:../../Middlewares/LVGL/GUI/lvgl/src/indev/lv_indev_scroll.c ****             indev->pointer.scroll_throw_vect.x = 0;
 2319              		.loc 1 184 30 view .LVU726
 2320 0196 FFF7FEFF 		bl	lv_indev_scroll_throw_predict
 2321              	.LVL265:
 184:../../Middlewares/LVGL/GUI/lvgl/src/indev/lv_indev_scroll.c ****             indev->pointer.scroll_throw_vect.x = 0;
 2322              		.loc 1 184 21 discriminator 1 view .LVU727
 2323 019a 0390     		str	r0, [sp, #12]
 185:../../Middlewares/LVGL/GUI/lvgl/src/indev/lv_indev_scroll.c ****             scroll_limit_diff(indev, &diff_x, NULL);
 2324              		.loc 1 185 13 is_stmt 1 view .LVU728
 185:../../Middlewares/LVGL/GUI/lvgl/src/indev/lv_indev_scroll.c ****             scroll_limit_diff(indev, &diff_x, NULL);
 2325              		.loc 1 185 48 is_stmt 0 view .LVU729
 2326 019c 0023     		movs	r3, #0
 2327 019e A365     		str	r3, [r4, #88]
 186:../../Middlewares/LVGL/GUI/lvgl/src/indev/lv_indev_scroll.c ****             int32_t x = find_snap_point_x(scroll_obj, LV_COORD_MIN, LV_COORD_MAX, diff_x);
 2328              		.loc 1 186 13 is_stmt 1 view .LVU730
 2329 01a0 1A46     		mov	r2, r3
 2330 01a2 03A9     		add	r1, sp, #12
 2331 01a4 2046     		mov	r0, r4
 2332 01a6 FFF7FEFF 		bl	scroll_limit_diff
 2333              	.LVL266:
ARM GAS  C:\Users\28576\AppData\Local\Temp\ccZznpky.s 			page 69


 187:../../Middlewares/LVGL/GUI/lvgl/src/indev/lv_indev_scroll.c ****             lv_obj_scroll_by(scroll_obj, x + diff_x, 0, LV_ANIM_ON);
 2334              		.loc 1 187 13 view .LVU731
 187:../../Middlewares/LVGL/GUI/lvgl/src/indev/lv_indev_scroll.c ****             lv_obj_scroll_by(scroll_obj, x + diff_x, 0, LV_ANIM_ON);
 2335              		.loc 1 187 25 is_stmt 0 view .LVU732
 2336 01aa 039B     		ldr	r3, [sp, #12]
 2337 01ac 6FF06042 		mvn	r2, #-536870912
 2338 01b0 2949     		ldr	r1, .L150+4
 2339 01b2 2846     		mov	r0, r5
 2340 01b4 FFF7FEFF 		bl	find_snap_point_x
 2341              	.LVL267:
 188:../../Middlewares/LVGL/GUI/lvgl/src/indev/lv_indev_scroll.c ****             if(indev->reset_query) return;
 2342              		.loc 1 188 13 is_stmt 1 view .LVU733
 2343 01b8 0123     		movs	r3, #1
 2344 01ba 0022     		movs	r2, #0
 2345 01bc 0399     		ldr	r1, [sp, #12]
 2346 01be 0144     		add	r1, r1, r0
 2347 01c0 2846     		mov	r0, r5
 2348              	.LVL268:
 188:../../Middlewares/LVGL/GUI/lvgl/src/indev/lv_indev_scroll.c ****             if(indev->reset_query) return;
 2349              		.loc 1 188 13 is_stmt 0 view .LVU734
 2350 01c2 FFF7FEFF 		bl	lv_obj_scroll_by
 2351              	.LVL269:
 189:../../Middlewares/LVGL/GUI/lvgl/src/indev/lv_indev_scroll.c ****         }
 2352              		.loc 1 189 13 is_stmt 1 view .LVU735
 189:../../Middlewares/LVGL/GUI/lvgl/src/indev/lv_indev_scroll.c ****         }
 2353              		.loc 1 189 16 is_stmt 0 view .LVU736
 2354 01c6 E37A     		ldrb	r3, [r4, #11]	@ zero_extendqisi2
 189:../../Middlewares/LVGL/GUI/lvgl/src/indev/lv_indev_scroll.c ****         }
 2355              		.loc 1 189 15 view .LVU737
 2356 01c8 13F0020F 		tst	r3, #2
 2357 01cc 3FF440AF 		beq	.L134
 2358 01d0 21E7     		b	.L129
 2359              	.LVL270:
 2360              	.L146:
 189:../../Middlewares/LVGL/GUI/lvgl/src/indev/lv_indev_scroll.c ****         }
 2361              		.loc 1 189 15 view .LVU738
 2362              	.LBE119:
 2363              	.LBB120:
 198:../../Middlewares/LVGL/GUI/lvgl/src/indev/lv_indev_scroll.c ****             int32_t sb = lv_obj_get_scroll_bottom(scroll_obj);
 2364              		.loc 1 198 13 is_stmt 1 view .LVU739
 198:../../Middlewares/LVGL/GUI/lvgl/src/indev/lv_indev_scroll.c ****             int32_t sb = lv_obj_get_scroll_bottom(scroll_obj);
 2365              		.loc 1 198 26 is_stmt 0 view .LVU740
 2366 01d2 2846     		mov	r0, r5
 2367 01d4 FFF7FEFF 		bl	lv_obj_get_scroll_top
 2368              	.LVL271:
 2369 01d8 0646     		mov	r6, r0
 2370              	.LVL272:
 199:../../Middlewares/LVGL/GUI/lvgl/src/indev/lv_indev_scroll.c ****             if(st > 0 || sb > 0) {
 2371              		.loc 1 199 13 is_stmt 1 view .LVU741
 199:../../Middlewares/LVGL/GUI/lvgl/src/indev/lv_indev_scroll.c ****             if(st > 0 || sb > 0) {
 2372              		.loc 1 199 26 is_stmt 0 view .LVU742
 2373 01da 2846     		mov	r0, r5
 2374              	.LVL273:
 199:../../Middlewares/LVGL/GUI/lvgl/src/indev/lv_indev_scroll.c ****             if(st > 0 || sb > 0) {
 2375              		.loc 1 199 26 view .LVU743
 2376 01dc FFF7FEFF 		bl	lv_obj_get_scroll_bottom
 2377              	.LVL274:
ARM GAS  C:\Users\28576\AppData\Local\Temp\ccZznpky.s 			page 70


 200:../../Middlewares/LVGL/GUI/lvgl/src/indev/lv_indev_scroll.c ****                 if(st < 0) {
 2378              		.loc 1 200 13 is_stmt 1 view .LVU744
 200:../../Middlewares/LVGL/GUI/lvgl/src/indev/lv_indev_scroll.c ****                 if(st < 0) {
 2379              		.loc 1 200 15 is_stmt 0 view .LVU745
 2380 01e0 0028     		cmp	r0, #0
 2381 01e2 D8BF     		it	le
 2382 01e4 002E     		cmple	r6, #0
 2383 01e6 7FF73CAF 		ble	.L138
 201:../../Middlewares/LVGL/GUI/lvgl/src/indev/lv_indev_scroll.c ****                     lv_obj_scroll_by(scroll_obj, 0, st, LV_ANIM_ON);
 2384              		.loc 1 201 17 is_stmt 1 view .LVU746
 201:../../Middlewares/LVGL/GUI/lvgl/src/indev/lv_indev_scroll.c ****                     lv_obj_scroll_by(scroll_obj, 0, st, LV_ANIM_ON);
 2385              		.loc 1 201 19 is_stmt 0 view .LVU747
 2386 01ea 002E     		cmp	r6, #0
 2387 01ec 0EDB     		blt	.L149
 205:../../Middlewares/LVGL/GUI/lvgl/src/indev/lv_indev_scroll.c ****                     lv_obj_scroll_by(scroll_obj, 0, -sb, LV_ANIM_ON);
 2388              		.loc 1 205 22 is_stmt 1 view .LVU748
 205:../../Middlewares/LVGL/GUI/lvgl/src/indev/lv_indev_scroll.c ****                     lv_obj_scroll_by(scroll_obj, 0, -sb, LV_ANIM_ON);
 2389              		.loc 1 205 24 is_stmt 0 view .LVU749
 2390 01ee 0028     		cmp	r0, #0
 2391 01f0 BFF637AF 		bge	.L138
 206:../../Middlewares/LVGL/GUI/lvgl/src/indev/lv_indev_scroll.c ****                     if(indev->reset_query) return;
 2392              		.loc 1 206 21 is_stmt 1 view .LVU750
 2393 01f4 0123     		movs	r3, #1
 2394 01f6 4242     		rsbs	r2, r0, #0
 2395 01f8 0021     		movs	r1, #0
 2396 01fa 2846     		mov	r0, r5
 2397              	.LVL275:
 206:../../Middlewares/LVGL/GUI/lvgl/src/indev/lv_indev_scroll.c ****                     if(indev->reset_query) return;
 2398              		.loc 1 206 21 is_stmt 0 view .LVU751
 2399 01fc FFF7FEFF 		bl	lv_obj_scroll_by
 2400              	.LVL276:
 207:../../Middlewares/LVGL/GUI/lvgl/src/indev/lv_indev_scroll.c ****                 }
 2401              		.loc 1 207 21 is_stmt 1 view .LVU752
 207:../../Middlewares/LVGL/GUI/lvgl/src/indev/lv_indev_scroll.c ****                 }
 2402              		.loc 1 207 24 is_stmt 0 view .LVU753
 2403 0200 E37A     		ldrb	r3, [r4, #11]	@ zero_extendqisi2
 207:../../Middlewares/LVGL/GUI/lvgl/src/indev/lv_indev_scroll.c ****                 }
 2404              		.loc 1 207 23 view .LVU754
 2405 0202 13F0020F 		tst	r3, #2
 2406 0206 3FF42CAF 		beq	.L138
 2407 020a 04E7     		b	.L129
 2408              	.LVL277:
 2409              	.L149:
 202:../../Middlewares/LVGL/GUI/lvgl/src/indev/lv_indev_scroll.c ****                     if(indev->reset_query) return;
 2410              		.loc 1 202 21 is_stmt 1 view .LVU755
 2411 020c 0123     		movs	r3, #1
 2412 020e 3246     		mov	r2, r6
 2413 0210 0021     		movs	r1, #0
 2414 0212 2846     		mov	r0, r5
 2415              	.LVL278:
 202:../../Middlewares/LVGL/GUI/lvgl/src/indev/lv_indev_scroll.c ****                     if(indev->reset_query) return;
 2416              		.loc 1 202 21 is_stmt 0 view .LVU756
 2417 0214 FFF7FEFF 		bl	lv_obj_scroll_by
 2418              	.LVL279:
 203:../../Middlewares/LVGL/GUI/lvgl/src/indev/lv_indev_scroll.c ****                 }
 2419              		.loc 1 203 21 is_stmt 1 view .LVU757
 203:../../Middlewares/LVGL/GUI/lvgl/src/indev/lv_indev_scroll.c ****                 }
ARM GAS  C:\Users\28576\AppData\Local\Temp\ccZznpky.s 			page 71


 2420              		.loc 1 203 24 is_stmt 0 view .LVU758
 2421 0218 E37A     		ldrb	r3, [r4, #11]	@ zero_extendqisi2
 203:../../Middlewares/LVGL/GUI/lvgl/src/indev/lv_indev_scroll.c ****                 }
 2422              		.loc 1 203 23 view .LVU759
 2423 021a 13F0020F 		tst	r3, #2
 2424 021e 3FF420AF 		beq	.L138
 2425 0222 F8E6     		b	.L129
 2426              	.LVL280:
 2427              	.L147:
 203:../../Middlewares/LVGL/GUI/lvgl/src/indev/lv_indev_scroll.c ****                 }
 2428              		.loc 1 203 23 view .LVU760
 2429              	.LBE120:
 2430              	.LBB121:
 218:../../Middlewares/LVGL/GUI/lvgl/src/indev/lv_indev_scroll.c ****                     if(indev->reset_query) return;
 2431              		.loc 1 218 21 is_stmt 1 view .LVU761
 2432 0224 0123     		movs	r3, #1
 2433 0226 0022     		movs	r2, #0
 2434 0228 3146     		mov	r1, r6
 2435 022a 2846     		mov	r0, r5
 2436              	.LVL281:
 218:../../Middlewares/LVGL/GUI/lvgl/src/indev/lv_indev_scroll.c ****                     if(indev->reset_query) return;
 2437              		.loc 1 218 21 is_stmt 0 view .LVU762
 2438 022c FFF7FEFF 		bl	lv_obj_scroll_by
 2439              	.LVL282:
 219:../../Middlewares/LVGL/GUI/lvgl/src/indev/lv_indev_scroll.c ****                 }
 2440              		.loc 1 219 21 is_stmt 1 view .LVU763
 219:../../Middlewares/LVGL/GUI/lvgl/src/indev/lv_indev_scroll.c ****                 }
 2441              		.loc 1 219 24 is_stmt 0 view .LVU764
 2442 0230 E37A     		ldrb	r3, [r4, #11]	@ zero_extendqisi2
 219:../../Middlewares/LVGL/GUI/lvgl/src/indev/lv_indev_scroll.c ****                 }
 2443              		.loc 1 219 23 view .LVU765
 2444 0232 13F0020F 		tst	r3, #2
 2445 0236 3FF427AF 		beq	.L140
 2446 023a ECE6     		b	.L129
 2447              	.LVL283:
 2448              	.L148:
 222:../../Middlewares/LVGL/GUI/lvgl/src/indev/lv_indev_scroll.c ****                     if(indev->reset_query) return;
 2449              		.loc 1 222 21 is_stmt 1 view .LVU766
 2450 023c 0123     		movs	r3, #1
 2451 023e 0022     		movs	r2, #0
 2452 0240 4142     		rsbs	r1, r0, #0
 2453 0242 2846     		mov	r0, r5
 2454              	.LVL284:
 222:../../Middlewares/LVGL/GUI/lvgl/src/indev/lv_indev_scroll.c ****                     if(indev->reset_query) return;
 2455              		.loc 1 222 21 is_stmt 0 view .LVU767
 2456 0244 FFF7FEFF 		bl	lv_obj_scroll_by
 2457              	.LVL285:
 223:../../Middlewares/LVGL/GUI/lvgl/src/indev/lv_indev_scroll.c ****                 }
 2458              		.loc 1 223 21 is_stmt 1 view .LVU768
 223:../../Middlewares/LVGL/GUI/lvgl/src/indev/lv_indev_scroll.c ****                 }
 2459              		.loc 1 223 24 is_stmt 0 view .LVU769
 2460 0248 E37A     		ldrb	r3, [r4, #11]	@ zero_extendqisi2
 223:../../Middlewares/LVGL/GUI/lvgl/src/indev/lv_indev_scroll.c ****                 }
 2461              		.loc 1 223 23 view .LVU770
 2462 024a 13F0020F 		tst	r3, #2
 2463 024e 3FF41BAF 		beq	.L140
 2464 0252 E0E6     		b	.L129
ARM GAS  C:\Users\28576\AppData\Local\Temp\ccZznpky.s 			page 72


 2465              	.L151:
 2466              		.align	2
 2467              	.L150:
 2468 0254 1F85EB51 		.word	1374389535
 2469 0258 010000E0 		.word	-536870911
 2470              	.LBE121:
 2471              		.cfi_endproc
 2472              	.LFE173:
 2474              		.section	.text.lv_indev_scroll_get_snap_dist,"ax",%progbits
 2475              		.align	1
 2476              		.global	lv_indev_scroll_get_snap_dist
 2477              		.syntax unified
 2478              		.thumb
 2479              		.thumb_func
 2481              	lv_indev_scroll_get_snap_dist:
 2482              	.LVL286:
 2483              	.LFB175:
 262:../../Middlewares/LVGL/GUI/lvgl/src/indev/lv_indev_scroll.c ****     p->x = find_snap_point_x(obj, obj->coords.x1, obj->coords.x2, 0);
 2484              		.loc 1 262 1 is_stmt 1 view -0
 2485              		.cfi_startproc
 2486              		@ args = 0, pretend = 0, frame = 0
 2487              		@ frame_needed = 0, uses_anonymous_args = 0
 262:../../Middlewares/LVGL/GUI/lvgl/src/indev/lv_indev_scroll.c ****     p->x = find_snap_point_x(obj, obj->coords.x1, obj->coords.x2, 0);
 2488              		.loc 1 262 1 is_stmt 0 view .LVU772
 2489 0000 38B5     		push	{r3, r4, r5, lr}
 2490              	.LCFI25:
 2491              		.cfi_def_cfa_offset 16
 2492              		.cfi_offset 3, -16
 2493              		.cfi_offset 4, -12
 2494              		.cfi_offset 5, -8
 2495              		.cfi_offset 14, -4
 2496 0002 0446     		mov	r4, r0
 2497 0004 0D46     		mov	r5, r1
 263:../../Middlewares/LVGL/GUI/lvgl/src/indev/lv_indev_scroll.c ****     p->y = find_snap_point_y(obj, obj->coords.y1, obj->coords.y2, 0);
 2498              		.loc 1 263 5 is_stmt 1 view .LVU773
 263:../../Middlewares/LVGL/GUI/lvgl/src/indev/lv_indev_scroll.c ****     p->y = find_snap_point_y(obj, obj->coords.y1, obj->coords.y2, 0);
 2499              		.loc 1 263 12 is_stmt 0 view .LVU774
 2500 0006 0023     		movs	r3, #0
 2501 0008 C269     		ldr	r2, [r0, #28]
 2502 000a 4169     		ldr	r1, [r0, #20]
 2503              	.LVL287:
 263:../../Middlewares/LVGL/GUI/lvgl/src/indev/lv_indev_scroll.c ****     p->y = find_snap_point_y(obj, obj->coords.y1, obj->coords.y2, 0);
 2504              		.loc 1 263 12 view .LVU775
 2505 000c FFF7FEFF 		bl	find_snap_point_x
 2506              	.LVL288:
 263:../../Middlewares/LVGL/GUI/lvgl/src/indev/lv_indev_scroll.c ****     p->y = find_snap_point_y(obj, obj->coords.y1, obj->coords.y2, 0);
 2507              		.loc 1 263 10 discriminator 1 view .LVU776
 2508 0010 2860     		str	r0, [r5]
 264:../../Middlewares/LVGL/GUI/lvgl/src/indev/lv_indev_scroll.c **** }
 2509              		.loc 1 264 5 is_stmt 1 view .LVU777
 264:../../Middlewares/LVGL/GUI/lvgl/src/indev/lv_indev_scroll.c **** }
 2510              		.loc 1 264 12 is_stmt 0 view .LVU778
 2511 0012 0023     		movs	r3, #0
 2512 0014 226A     		ldr	r2, [r4, #32]
 2513 0016 A169     		ldr	r1, [r4, #24]
 2514 0018 2046     		mov	r0, r4
 2515 001a FFF7FEFF 		bl	find_snap_point_y
ARM GAS  C:\Users\28576\AppData\Local\Temp\ccZznpky.s 			page 73


 2516              	.LVL289:
 264:../../Middlewares/LVGL/GUI/lvgl/src/indev/lv_indev_scroll.c **** }
 2517              		.loc 1 264 10 discriminator 1 view .LVU779
 2518 001e 6860     		str	r0, [r5, #4]
 265:../../Middlewares/LVGL/GUI/lvgl/src/indev/lv_indev_scroll.c **** 
 2519              		.loc 1 265 1 view .LVU780
 2520 0020 38BD     		pop	{r3, r4, r5, pc}
 265:../../Middlewares/LVGL/GUI/lvgl/src/indev/lv_indev_scroll.c **** 
 2521              		.loc 1 265 1 view .LVU781
 2522              		.cfi_endproc
 2523              	.LFE175:
 2525              		.section	.text.lv_indev_find_scroll_obj,"ax",%progbits
 2526              		.align	1
 2527              		.global	lv_indev_find_scroll_obj
 2528              		.syntax unified
 2529              		.thumb
 2530              		.thumb_func
 2532              	lv_indev_find_scroll_obj:
 2533              	.LVL290:
 2534              	.LFB176:
 268:../../Middlewares/LVGL/GUI/lvgl/src/indev/lv_indev_scroll.c ****     lv_obj_t * obj_candidate = NULL;
 2535              		.loc 1 268 1 is_stmt 1 view -0
 2536              		.cfi_startproc
 2537              		@ args = 0, pretend = 0, frame = 48
 2538              		@ frame_needed = 0, uses_anonymous_args = 0
 268:../../Middlewares/LVGL/GUI/lvgl/src/indev/lv_indev_scroll.c ****     lv_obj_t * obj_candidate = NULL;
 2539              		.loc 1 268 1 is_stmt 0 view .LVU783
 2540 0000 2DE9F04F 		push	{r4, r5, r6, r7, r8, r9, r10, fp, lr}
 2541              	.LCFI26:
 2542              		.cfi_def_cfa_offset 36
 2543              		.cfi_offset 4, -36
 2544              		.cfi_offset 5, -32
 2545              		.cfi_offset 6, -28
 2546              		.cfi_offset 7, -24
 2547              		.cfi_offset 8, -20
 2548              		.cfi_offset 9, -16
 2549              		.cfi_offset 10, -12
 2550              		.cfi_offset 11, -8
 2551              		.cfi_offset 14, -4
 2552 0004 8FB0     		sub	sp, sp, #60
 2553              	.LCFI27:
 2554              		.cfi_def_cfa_offset 96
 2555 0006 8346     		mov	fp, r0
 269:../../Middlewares/LVGL/GUI/lvgl/src/indev/lv_indev_scroll.c ****     lv_dir_t dir_candidate = LV_DIR_NONE;
 2556              		.loc 1 269 5 is_stmt 1 view .LVU784
 2557              	.LVL291:
 270:../../Middlewares/LVGL/GUI/lvgl/src/indev/lv_indev_scroll.c ****     int32_t scroll_limit = indev->scroll_limit;
 2558              		.loc 1 270 5 view .LVU785
 271:../../Middlewares/LVGL/GUI/lvgl/src/indev/lv_indev_scroll.c **** 
 2559              		.loc 1 271 5 view .LVU786
 271:../../Middlewares/LVGL/GUI/lvgl/src/indev/lv_indev_scroll.c **** 
 2560              		.loc 1 271 33 is_stmt 0 view .LVU787
 2561 0008 90F82450 		ldrb	r5, [r0, #36]	@ zero_extendqisi2
 2562              	.LVL292:
 280:../../Middlewares/LVGL/GUI/lvgl/src/indev/lv_indev_scroll.c **** 
 2563              		.loc 1 280 5 is_stmt 1 view .LVU788
 280:../../Middlewares/LVGL/GUI/lvgl/src/indev/lv_indev_scroll.c **** 
ARM GAS  C:\Users\28576\AppData\Local\Temp\ccZznpky.s 			page 74


 2564              		.loc 1 280 16 is_stmt 0 view .LVU789
 2565 000c 846E     		ldr	r4, [r0, #104]
 2566              	.LVL293:
 283:../../Middlewares/LVGL/GUI/lvgl/src/indev/lv_indev_scroll.c ****     bool ver_en = false;
 2567              		.loc 1 283 5 is_stmt 1 view .LVU790
 284:../../Middlewares/LVGL/GUI/lvgl/src/indev/lv_indev_scroll.c ****     indev->pointer.scroll_sum.x += indev->pointer.vect.x;
 2568              		.loc 1 284 5 view .LVU791
 285:../../Middlewares/LVGL/GUI/lvgl/src/indev/lv_indev_scroll.c ****     indev->pointer.scroll_sum.y += indev->pointer.vect.y;
 2569              		.loc 1 285 5 view .LVU792
 285:../../Middlewares/LVGL/GUI/lvgl/src/indev/lv_indev_scroll.c ****     indev->pointer.scroll_sum.y += indev->pointer.vect.y;
 2570              		.loc 1 285 30 is_stmt 0 view .LVU793
 2571 000e 026D     		ldr	r2, [r0, #80]
 285:../../Middlewares/LVGL/GUI/lvgl/src/indev/lv_indev_scroll.c ****     indev->pointer.scroll_sum.y += indev->pointer.vect.y;
 2572              		.loc 1 285 55 view .LVU794
 2573 0010 816C     		ldr	r1, [r0, #72]
 285:../../Middlewares/LVGL/GUI/lvgl/src/indev/lv_indev_scroll.c ****     indev->pointer.scroll_sum.y += indev->pointer.vect.y;
 2574              		.loc 1 285 33 view .LVU795
 2575 0012 0A44     		add	r2, r2, r1
 2576 0014 0265     		str	r2, [r0, #80]
 286:../../Middlewares/LVGL/GUI/lvgl/src/indev/lv_indev_scroll.c **** 
 2577              		.loc 1 286 5 is_stmt 1 view .LVU796
 286:../../Middlewares/LVGL/GUI/lvgl/src/indev/lv_indev_scroll.c **** 
 2578              		.loc 1 286 30 is_stmt 0 view .LVU797
 2579 0016 426D     		ldr	r2, [r0, #84]
 286:../../Middlewares/LVGL/GUI/lvgl/src/indev/lv_indev_scroll.c **** 
 2580              		.loc 1 286 55 view .LVU798
 2581 0018 C16C     		ldr	r1, [r0, #76]
 286:../../Middlewares/LVGL/GUI/lvgl/src/indev/lv_indev_scroll.c **** 
 2582              		.loc 1 286 33 view .LVU799
 2583 001a 0A44     		add	r2, r2, r1
 2584 001c 4265     		str	r2, [r0, #84]
 288:../../Middlewares/LVGL/GUI/lvgl/src/indev/lv_indev_scroll.c ****         /*Get the transformed scroll_sum with this object*/
 2585              		.loc 1 288 5 is_stmt 1 view .LVU800
 284:../../Middlewares/LVGL/GUI/lvgl/src/indev/lv_indev_scroll.c ****     indev->pointer.scroll_sum.x += indev->pointer.vect.x;
 2586              		.loc 1 284 10 is_stmt 0 view .LVU801
 2587 001e 4FF0000A 		mov	r10, #0
 283:../../Middlewares/LVGL/GUI/lvgl/src/indev/lv_indev_scroll.c ****     bool ver_en = false;
 2588              		.loc 1 283 10 view .LVU802
 2589 0022 CDF80CA0 		str	r10, [sp, #12]
 270:../../Middlewares/LVGL/GUI/lvgl/src/indev/lv_indev_scroll.c ****     int32_t scroll_limit = indev->scroll_limit;
 2590              		.loc 1 270 14 view .LVU803
 2591 0026 CDF81CA0 		str	r10, [sp, #28]
 269:../../Middlewares/LVGL/GUI/lvgl/src/indev/lv_indev_scroll.c ****     lv_dir_t dir_candidate = LV_DIR_NONE;
 2592              		.loc 1 269 16 view .LVU804
 2593 002a CDF818A0 		str	r10, [sp, #24]
 2594 002e CDF808A0 		str	r10, [sp, #8]
 288:../../Middlewares/LVGL/GUI/lvgl/src/indev/lv_indev_scroll.c ****         /*Get the transformed scroll_sum with this object*/
 2595              		.loc 1 288 10 view .LVU805
 2596 0032 60E1     		b	.L155
 2597              	.LVL294:
 2598              	.L157:
 2599              	.LBB122:
 2600              	.LBB123:
 296:../../Middlewares/LVGL/GUI/lvgl/src/indev/lv_indev_scroll.c ****             int32_t zoom_act_x = lv_obj_get_style_transform_scale_x_safe(parent, 0);
 2601              		.loc 1 296 13 is_stmt 1 view .LVU806
 2602              	.LBB124:
 2603              	.LBI124:
ARM GAS  C:\Users\28576\AppData\Local\Temp\ccZznpky.s 			page 75


 124:../../Middlewares/LVGL/GUI/lvgl/src/indev/../core/lv_obj_style_gen.h **** {
 2604              		.loc 2 124 23 view .LVU807
 2605              	.LBB125:
 126:../../Middlewares/LVGL/GUI/lvgl/src/indev/../core/lv_obj_style_gen.h ****     return (int32_t)v.num;
 2606              		.loc 2 126 5 view .LVU808
 126:../../Middlewares/LVGL/GUI/lvgl/src/indev/../core/lv_obj_style_gen.h ****     return (int32_t)v.num;
 2607              		.loc 2 126 26 is_stmt 0 view .LVU809
 2608 0034 7022     		movs	r2, #112
 2609 0036 0021     		movs	r1, #0
 2610 0038 2046     		mov	r0, r4
 2611 003a FFF7FEFF 		bl	lv_obj_get_style_prop
 2612              	.LVL295:
 2613 003e 0C90     		str	r0, [sp, #48]
 127:../../Middlewares/LVGL/GUI/lvgl/src/indev/../core/lv_obj_style_gen.h **** }
 2614              		.loc 2 127 5 is_stmt 1 view .LVU810
 2615              	.LVL296:
 127:../../Middlewares/LVGL/GUI/lvgl/src/indev/../core/lv_obj_style_gen.h **** }
 2616              		.loc 2 127 5 is_stmt 0 view .LVU811
 2617              	.LBE125:
 2618              	.LBE124:
 296:../../Middlewares/LVGL/GUI/lvgl/src/indev/lv_indev_scroll.c ****             int32_t zoom_act_x = lv_obj_get_style_transform_scale_x_safe(parent, 0);
 2619              		.loc 1 296 19 discriminator 1 view .LVU812
 2620 0040 4044     		add	r0, r0, r8
 2621 0042 0FFA80F8 		sxth	r8, r0
 2622              	.LVL297:
 297:../../Middlewares/LVGL/GUI/lvgl/src/indev/lv_indev_scroll.c ****             int32_t zoom_act_y = lv_obj_get_style_transform_scale_y_safe(parent, 0);
 2623              		.loc 1 297 13 is_stmt 1 view .LVU813
 2624              	.LBB126:
 2625              	.LBI126:
 2626              		.file 3 "../../Middlewares/LVGL/GUI/lvgl/src/indev/../core/lv_obj_style.h"
   1:../../Middlewares/LVGL/GUI/lvgl/src/indev/../core/lv_obj_style.h **** /**
   2:../../Middlewares/LVGL/GUI/lvgl/src/indev/../core/lv_obj_style.h ****  * @file lv_obj_style.h
   3:../../Middlewares/LVGL/GUI/lvgl/src/indev/../core/lv_obj_style.h ****  *
   4:../../Middlewares/LVGL/GUI/lvgl/src/indev/../core/lv_obj_style.h ****  */
   5:../../Middlewares/LVGL/GUI/lvgl/src/indev/../core/lv_obj_style.h **** 
   6:../../Middlewares/LVGL/GUI/lvgl/src/indev/../core/lv_obj_style.h **** #ifndef LV_OBJ_STYLE_H
   7:../../Middlewares/LVGL/GUI/lvgl/src/indev/../core/lv_obj_style.h **** #define LV_OBJ_STYLE_H
   8:../../Middlewares/LVGL/GUI/lvgl/src/indev/../core/lv_obj_style.h **** 
   9:../../Middlewares/LVGL/GUI/lvgl/src/indev/../core/lv_obj_style.h **** #ifdef __cplusplus
  10:../../Middlewares/LVGL/GUI/lvgl/src/indev/../core/lv_obj_style.h **** extern "C" {
  11:../../Middlewares/LVGL/GUI/lvgl/src/indev/../core/lv_obj_style.h **** #endif
  12:../../Middlewares/LVGL/GUI/lvgl/src/indev/../core/lv_obj_style.h **** 
  13:../../Middlewares/LVGL/GUI/lvgl/src/indev/../core/lv_obj_style.h **** /*********************
  14:../../Middlewares/LVGL/GUI/lvgl/src/indev/../core/lv_obj_style.h ****  *      INCLUDES
  15:../../Middlewares/LVGL/GUI/lvgl/src/indev/../core/lv_obj_style.h ****  *********************/
  16:../../Middlewares/LVGL/GUI/lvgl/src/indev/../core/lv_obj_style.h **** #include "../misc/lv_bidi.h"
  17:../../Middlewares/LVGL/GUI/lvgl/src/indev/../core/lv_obj_style.h **** #include "../misc/lv_style.h"
  18:../../Middlewares/LVGL/GUI/lvgl/src/indev/../core/lv_obj_style.h **** #include "../misc/lv_types.h"
  19:../../Middlewares/LVGL/GUI/lvgl/src/indev/../core/lv_obj_style.h **** 
  20:../../Middlewares/LVGL/GUI/lvgl/src/indev/../core/lv_obj_style.h **** /*********************
  21:../../Middlewares/LVGL/GUI/lvgl/src/indev/../core/lv_obj_style.h ****  *      DEFINES
  22:../../Middlewares/LVGL/GUI/lvgl/src/indev/../core/lv_obj_style.h ****  *********************/
  23:../../Middlewares/LVGL/GUI/lvgl/src/indev/../core/lv_obj_style.h **** 
  24:../../Middlewares/LVGL/GUI/lvgl/src/indev/../core/lv_obj_style.h **** /**********************
  25:../../Middlewares/LVGL/GUI/lvgl/src/indev/../core/lv_obj_style.h ****  *      TYPEDEFS
  26:../../Middlewares/LVGL/GUI/lvgl/src/indev/../core/lv_obj_style.h ****  **********************/
  27:../../Middlewares/LVGL/GUI/lvgl/src/indev/../core/lv_obj_style.h **** 
ARM GAS  C:\Users\28576\AppData\Local\Temp\ccZznpky.s 			page 76


  28:../../Middlewares/LVGL/GUI/lvgl/src/indev/../core/lv_obj_style.h **** typedef enum {
  29:../../Middlewares/LVGL/GUI/lvgl/src/indev/../core/lv_obj_style.h ****     LV_STYLE_STATE_CMP_SAME,           /**< The style properties in the 2 states are identical */
  30:../../Middlewares/LVGL/GUI/lvgl/src/indev/../core/lv_obj_style.h ****     LV_STYLE_STATE_CMP_DIFF_REDRAW,    /**< The differences can be shown with a simple redraw */
  31:../../Middlewares/LVGL/GUI/lvgl/src/indev/../core/lv_obj_style.h ****     LV_STYLE_STATE_CMP_DIFF_DRAW_PAD,  /**< The differences can be shown with a simple redraw */
  32:../../Middlewares/LVGL/GUI/lvgl/src/indev/../core/lv_obj_style.h ****     LV_STYLE_STATE_CMP_DIFF_LAYOUT,    /**< The differences can be shown with a simple redraw */
  33:../../Middlewares/LVGL/GUI/lvgl/src/indev/../core/lv_obj_style.h **** } lv_style_state_cmp_t;
  34:../../Middlewares/LVGL/GUI/lvgl/src/indev/../core/lv_obj_style.h **** 
  35:../../Middlewares/LVGL/GUI/lvgl/src/indev/../core/lv_obj_style.h **** typedef uint32_t lv_style_selector_t;
  36:../../Middlewares/LVGL/GUI/lvgl/src/indev/../core/lv_obj_style.h **** 
  37:../../Middlewares/LVGL/GUI/lvgl/src/indev/../core/lv_obj_style.h **** /**********************
  38:../../Middlewares/LVGL/GUI/lvgl/src/indev/../core/lv_obj_style.h ****  * GLOBAL PROTOTYPES
  39:../../Middlewares/LVGL/GUI/lvgl/src/indev/../core/lv_obj_style.h ****  **********************/
  40:../../Middlewares/LVGL/GUI/lvgl/src/indev/../core/lv_obj_style.h **** 
  41:../../Middlewares/LVGL/GUI/lvgl/src/indev/../core/lv_obj_style.h **** /**
  42:../../Middlewares/LVGL/GUI/lvgl/src/indev/../core/lv_obj_style.h ****  * Add a style to an object.
  43:../../Middlewares/LVGL/GUI/lvgl/src/indev/../core/lv_obj_style.h ****  * @param obj       pointer to an object
  44:../../Middlewares/LVGL/GUI/lvgl/src/indev/../core/lv_obj_style.h ****  * @param style     pointer to a style to add
  45:../../Middlewares/LVGL/GUI/lvgl/src/indev/../core/lv_obj_style.h ****  * @param selector  OR-ed value of parts and state to which the style should be added
  46:../../Middlewares/LVGL/GUI/lvgl/src/indev/../core/lv_obj_style.h ****  *
  47:../../Middlewares/LVGL/GUI/lvgl/src/indev/../core/lv_obj_style.h ****  * Examples:
  48:../../Middlewares/LVGL/GUI/lvgl/src/indev/../core/lv_obj_style.h ****  * @code
  49:../../Middlewares/LVGL/GUI/lvgl/src/indev/../core/lv_obj_style.h ****  * lv_obj_add_style(btn, &style_btn, 0); //Default button style
  50:../../Middlewares/LVGL/GUI/lvgl/src/indev/../core/lv_obj_style.h ****  *
  51:../../Middlewares/LVGL/GUI/lvgl/src/indev/../core/lv_obj_style.h ****  * lv_obj_add_style(btn, &btn_red, LV_STATE_PRESSED); //Overwrite only some colors to red when pres
  52:../../Middlewares/LVGL/GUI/lvgl/src/indev/../core/lv_obj_style.h ****  * @endcode
  53:../../Middlewares/LVGL/GUI/lvgl/src/indev/../core/lv_obj_style.h ****  */
  54:../../Middlewares/LVGL/GUI/lvgl/src/indev/../core/lv_obj_style.h **** void lv_obj_add_style(lv_obj_t * obj, const lv_style_t * style, lv_style_selector_t selector);
  55:../../Middlewares/LVGL/GUI/lvgl/src/indev/../core/lv_obj_style.h **** 
  56:../../Middlewares/LVGL/GUI/lvgl/src/indev/../core/lv_obj_style.h **** /**
  57:../../Middlewares/LVGL/GUI/lvgl/src/indev/../core/lv_obj_style.h ****  * Replaces a style of an object, preserving the order of the style stack (local styles and transit
  58:../../Middlewares/LVGL/GUI/lvgl/src/indev/../core/lv_obj_style.h ****  * @param obj           pointer to an object
  59:../../Middlewares/LVGL/GUI/lvgl/src/indev/../core/lv_obj_style.h ****  * @param old_style     pointer to a style to replace.
  60:../../Middlewares/LVGL/GUI/lvgl/src/indev/../core/lv_obj_style.h ****  * @param new_style     pointer to a style to replace the old style with.
  61:../../Middlewares/LVGL/GUI/lvgl/src/indev/../core/lv_obj_style.h ****  * @param selector      OR-ed values of states and a part to replace only styles with matching sele
  62:../../Middlewares/LVGL/GUI/lvgl/src/indev/../core/lv_obj_style.h ****  *
  63:../../Middlewares/LVGL/GUI/lvgl/src/indev/../core/lv_obj_style.h ****  * Examples:
  64:../../Middlewares/LVGL/GUI/lvgl/src/indev/../core/lv_obj_style.h ****  * @code
  65:../../Middlewares/LVGL/GUI/lvgl/src/indev/../core/lv_obj_style.h ****  * lv_obj_replace_style(obj, &yellow_style, &blue_style, LV_PART_ANY | LV_STATE_ANY); //Replace a s
  66:../../Middlewares/LVGL/GUI/lvgl/src/indev/../core/lv_obj_style.h ****  *
  67:../../Middlewares/LVGL/GUI/lvgl/src/indev/../core/lv_obj_style.h ****  * lv_obj_replace_style(obj, &yellow_style, &blue_style, LV_PART_MAIN | LV_STATE_PRESSED); //Replac
  68:../../Middlewares/LVGL/GUI/lvgl/src/indev/../core/lv_obj_style.h ****  * @endcode
  69:../../Middlewares/LVGL/GUI/lvgl/src/indev/../core/lv_obj_style.h ****  */
  70:../../Middlewares/LVGL/GUI/lvgl/src/indev/../core/lv_obj_style.h **** bool lv_obj_replace_style(lv_obj_t * obj, const lv_style_t * old_style, const lv_style_t * new_styl
  71:../../Middlewares/LVGL/GUI/lvgl/src/indev/../core/lv_obj_style.h ****                           lv_style_selector_t selector);
  72:../../Middlewares/LVGL/GUI/lvgl/src/indev/../core/lv_obj_style.h **** 
  73:../../Middlewares/LVGL/GUI/lvgl/src/indev/../core/lv_obj_style.h **** /**
  74:../../Middlewares/LVGL/GUI/lvgl/src/indev/../core/lv_obj_style.h ****  * Remove a style from an object.
  75:../../Middlewares/LVGL/GUI/lvgl/src/indev/../core/lv_obj_style.h ****  * @param obj       pointer to an object
  76:../../Middlewares/LVGL/GUI/lvgl/src/indev/../core/lv_obj_style.h ****  * @param style     pointer to a style to remove. Can be NULL to check only the selector
  77:../../Middlewares/LVGL/GUI/lvgl/src/indev/../core/lv_obj_style.h ****  * @param selector  OR-ed values of states and a part to remove only styles with matching selectors
  78:../../Middlewares/LVGL/GUI/lvgl/src/indev/../core/lv_obj_style.h ****  *
  79:../../Middlewares/LVGL/GUI/lvgl/src/indev/../core/lv_obj_style.h ****  * Examples:
  80:../../Middlewares/LVGL/GUI/lvgl/src/indev/../core/lv_obj_style.h ****  * @code
  81:../../Middlewares/LVGL/GUI/lvgl/src/indev/../core/lv_obj_style.h ****  * lv_obj_remove_style(obj, &style, LV_PART_ANY | LV_STATE_ANY); //Remove a specific style
  82:../../Middlewares/LVGL/GUI/lvgl/src/indev/../core/lv_obj_style.h ****  *
  83:../../Middlewares/LVGL/GUI/lvgl/src/indev/../core/lv_obj_style.h ****  * lv_obj_remove_style(obj, NULL, LV_PART_MAIN | LV_STATE_ANY); //Remove all styles from the main p
  84:../../Middlewares/LVGL/GUI/lvgl/src/indev/../core/lv_obj_style.h ****  *
ARM GAS  C:\Users\28576\AppData\Local\Temp\ccZznpky.s 			page 77


  85:../../Middlewares/LVGL/GUI/lvgl/src/indev/../core/lv_obj_style.h ****  * lv_obj_remove_style(obj, NULL, LV_PART_ANY | LV_STATE_ANY); //Remove all styles
  86:../../Middlewares/LVGL/GUI/lvgl/src/indev/../core/lv_obj_style.h ****  * @endcode
  87:../../Middlewares/LVGL/GUI/lvgl/src/indev/../core/lv_obj_style.h ****  */
  88:../../Middlewares/LVGL/GUI/lvgl/src/indev/../core/lv_obj_style.h **** void lv_obj_remove_style(lv_obj_t * obj, const lv_style_t * style, lv_style_selector_t selector);
  89:../../Middlewares/LVGL/GUI/lvgl/src/indev/../core/lv_obj_style.h **** 
  90:../../Middlewares/LVGL/GUI/lvgl/src/indev/../core/lv_obj_style.h **** /**
  91:../../Middlewares/LVGL/GUI/lvgl/src/indev/../core/lv_obj_style.h ****  * Remove all styles from an object
  92:../../Middlewares/LVGL/GUI/lvgl/src/indev/../core/lv_obj_style.h ****  * @param obj       pointer to an object
  93:../../Middlewares/LVGL/GUI/lvgl/src/indev/../core/lv_obj_style.h ****  */
  94:../../Middlewares/LVGL/GUI/lvgl/src/indev/../core/lv_obj_style.h **** void lv_obj_remove_style_all(lv_obj_t * obj);
  95:../../Middlewares/LVGL/GUI/lvgl/src/indev/../core/lv_obj_style.h **** 
  96:../../Middlewares/LVGL/GUI/lvgl/src/indev/../core/lv_obj_style.h **** /**
  97:../../Middlewares/LVGL/GUI/lvgl/src/indev/../core/lv_obj_style.h ****  * Notify all object if a style is modified
  98:../../Middlewares/LVGL/GUI/lvgl/src/indev/../core/lv_obj_style.h ****  * @param style     pointer to a style. Only the objects with this style will be notified
  99:../../Middlewares/LVGL/GUI/lvgl/src/indev/../core/lv_obj_style.h ****  *                  (NULL to notify all objects)
 100:../../Middlewares/LVGL/GUI/lvgl/src/indev/../core/lv_obj_style.h ****  */
 101:../../Middlewares/LVGL/GUI/lvgl/src/indev/../core/lv_obj_style.h **** void lv_obj_report_style_change(lv_style_t * style);
 102:../../Middlewares/LVGL/GUI/lvgl/src/indev/../core/lv_obj_style.h **** 
 103:../../Middlewares/LVGL/GUI/lvgl/src/indev/../core/lv_obj_style.h **** /**
 104:../../Middlewares/LVGL/GUI/lvgl/src/indev/../core/lv_obj_style.h ****  * Notify an object and its children about its style is modified.
 105:../../Middlewares/LVGL/GUI/lvgl/src/indev/../core/lv_obj_style.h ****  * @param obj       pointer to an object
 106:../../Middlewares/LVGL/GUI/lvgl/src/indev/../core/lv_obj_style.h ****  * @param part      the part whose style was changed. E.g. `LV_PART_ANY`, `LV_PART_MAIN`
 107:../../Middlewares/LVGL/GUI/lvgl/src/indev/../core/lv_obj_style.h ****  * @param prop      `LV_STYLE_PROP_ANY` or an `LV_STYLE_...` property.
 108:../../Middlewares/LVGL/GUI/lvgl/src/indev/../core/lv_obj_style.h ****  *                  It is used to optimize what needs to be refreshed.
 109:../../Middlewares/LVGL/GUI/lvgl/src/indev/../core/lv_obj_style.h ****  *                  `LV_STYLE_PROP_INV` to perform only a style cache update
 110:../../Middlewares/LVGL/GUI/lvgl/src/indev/../core/lv_obj_style.h ****  */
 111:../../Middlewares/LVGL/GUI/lvgl/src/indev/../core/lv_obj_style.h **** void lv_obj_refresh_style(lv_obj_t * obj, lv_part_t part, lv_style_prop_t prop);
 112:../../Middlewares/LVGL/GUI/lvgl/src/indev/../core/lv_obj_style.h **** 
 113:../../Middlewares/LVGL/GUI/lvgl/src/indev/../core/lv_obj_style.h **** /**
 114:../../Middlewares/LVGL/GUI/lvgl/src/indev/../core/lv_obj_style.h ****  * Enable or disable automatic style refreshing when a new style is added/removed to/from an object
 115:../../Middlewares/LVGL/GUI/lvgl/src/indev/../core/lv_obj_style.h ****  * or any other style change happens.
 116:../../Middlewares/LVGL/GUI/lvgl/src/indev/../core/lv_obj_style.h ****  * @param en        true: enable refreshing; false: disable refreshing
 117:../../Middlewares/LVGL/GUI/lvgl/src/indev/../core/lv_obj_style.h ****  */
 118:../../Middlewares/LVGL/GUI/lvgl/src/indev/../core/lv_obj_style.h **** void lv_obj_enable_style_refresh(bool en);
 119:../../Middlewares/LVGL/GUI/lvgl/src/indev/../core/lv_obj_style.h **** 
 120:../../Middlewares/LVGL/GUI/lvgl/src/indev/../core/lv_obj_style.h **** /**
 121:../../Middlewares/LVGL/GUI/lvgl/src/indev/../core/lv_obj_style.h ****  * Get the value of a style property. The current state of the object will be considered.
 122:../../Middlewares/LVGL/GUI/lvgl/src/indev/../core/lv_obj_style.h ****  * Inherited properties will be inherited.
 123:../../Middlewares/LVGL/GUI/lvgl/src/indev/../core/lv_obj_style.h ****  * If a property is not set a default value will be returned.
 124:../../Middlewares/LVGL/GUI/lvgl/src/indev/../core/lv_obj_style.h ****  * @param obj       pointer to an object
 125:../../Middlewares/LVGL/GUI/lvgl/src/indev/../core/lv_obj_style.h ****  * @param part      a part from which the property should be get
 126:../../Middlewares/LVGL/GUI/lvgl/src/indev/../core/lv_obj_style.h ****  * @param prop      the property to get
 127:../../Middlewares/LVGL/GUI/lvgl/src/indev/../core/lv_obj_style.h ****  * @return          the value of the property.
 128:../../Middlewares/LVGL/GUI/lvgl/src/indev/../core/lv_obj_style.h ****  *                  Should be read from the correct field of the `lv_style_value_t` according to th
 129:../../Middlewares/LVGL/GUI/lvgl/src/indev/../core/lv_obj_style.h ****  */
 130:../../Middlewares/LVGL/GUI/lvgl/src/indev/../core/lv_obj_style.h **** lv_style_value_t lv_obj_get_style_prop(const lv_obj_t * obj, lv_part_t part, lv_style_prop_t prop);
 131:../../Middlewares/LVGL/GUI/lvgl/src/indev/../core/lv_obj_style.h **** 
 132:../../Middlewares/LVGL/GUI/lvgl/src/indev/../core/lv_obj_style.h **** /**
 133:../../Middlewares/LVGL/GUI/lvgl/src/indev/../core/lv_obj_style.h ****  * Check if an object has a specified style property for a given style selector.
 134:../../Middlewares/LVGL/GUI/lvgl/src/indev/../core/lv_obj_style.h ****  * @param obj       pointer to an object
 135:../../Middlewares/LVGL/GUI/lvgl/src/indev/../core/lv_obj_style.h ****  * @param selector  the style selector to be checked, defining the scope of the style to be examine
 136:../../Middlewares/LVGL/GUI/lvgl/src/indev/../core/lv_obj_style.h ****  * @param prop      the property to be checked.
 137:../../Middlewares/LVGL/GUI/lvgl/src/indev/../core/lv_obj_style.h ****  * @return          true if the object has the specified selector and property, false otherwise.
 138:../../Middlewares/LVGL/GUI/lvgl/src/indev/../core/lv_obj_style.h ****  */
 139:../../Middlewares/LVGL/GUI/lvgl/src/indev/../core/lv_obj_style.h **** bool lv_obj_has_style_prop(const lv_obj_t * obj, lv_style_selector_t selector, lv_style_prop_t prop
 140:../../Middlewares/LVGL/GUI/lvgl/src/indev/../core/lv_obj_style.h **** 
 141:../../Middlewares/LVGL/GUI/lvgl/src/indev/../core/lv_obj_style.h **** /**
ARM GAS  C:\Users\28576\AppData\Local\Temp\ccZznpky.s 			page 78


 142:../../Middlewares/LVGL/GUI/lvgl/src/indev/../core/lv_obj_style.h ****  * Set local style property on an object's part and state.
 143:../../Middlewares/LVGL/GUI/lvgl/src/indev/../core/lv_obj_style.h ****  * @param obj       pointer to an object
 144:../../Middlewares/LVGL/GUI/lvgl/src/indev/../core/lv_obj_style.h ****  * @param prop      the property
 145:../../Middlewares/LVGL/GUI/lvgl/src/indev/../core/lv_obj_style.h ****  * @param value     value of the property. The correct element should be set according to the type 
 146:../../Middlewares/LVGL/GUI/lvgl/src/indev/../core/lv_obj_style.h ****  * @param selector  OR-ed value of parts and state for which the style should be set
 147:../../Middlewares/LVGL/GUI/lvgl/src/indev/../core/lv_obj_style.h ****  */
 148:../../Middlewares/LVGL/GUI/lvgl/src/indev/../core/lv_obj_style.h **** void lv_obj_set_local_style_prop(lv_obj_t * obj, lv_style_prop_t prop, lv_style_value_t value,
 149:../../Middlewares/LVGL/GUI/lvgl/src/indev/../core/lv_obj_style.h ****                                  lv_style_selector_t selector);
 150:../../Middlewares/LVGL/GUI/lvgl/src/indev/../core/lv_obj_style.h **** 
 151:../../Middlewares/LVGL/GUI/lvgl/src/indev/../core/lv_obj_style.h **** lv_style_res_t lv_obj_get_local_style_prop(lv_obj_t * obj, lv_style_prop_t prop, lv_style_value_t *
 152:../../Middlewares/LVGL/GUI/lvgl/src/indev/../core/lv_obj_style.h ****                                            lv_style_selector_t selector);
 153:../../Middlewares/LVGL/GUI/lvgl/src/indev/../core/lv_obj_style.h **** 
 154:../../Middlewares/LVGL/GUI/lvgl/src/indev/../core/lv_obj_style.h **** /**
 155:../../Middlewares/LVGL/GUI/lvgl/src/indev/../core/lv_obj_style.h ****  * Remove a local style property from a part of an object with a given state.
 156:../../Middlewares/LVGL/GUI/lvgl/src/indev/../core/lv_obj_style.h ****  * @param obj       pointer to an object
 157:../../Middlewares/LVGL/GUI/lvgl/src/indev/../core/lv_obj_style.h ****  * @param prop      a style property to remove.
 158:../../Middlewares/LVGL/GUI/lvgl/src/indev/../core/lv_obj_style.h ****  * @param selector  OR-ed value of parts and state for which the style should be removed
 159:../../Middlewares/LVGL/GUI/lvgl/src/indev/../core/lv_obj_style.h ****  * @return true     the property was found and removed; false: the property was not found
 160:../../Middlewares/LVGL/GUI/lvgl/src/indev/../core/lv_obj_style.h ****  */
 161:../../Middlewares/LVGL/GUI/lvgl/src/indev/../core/lv_obj_style.h **** bool lv_obj_remove_local_style_prop(lv_obj_t * obj, lv_style_prop_t prop, lv_style_selector_t selec
 162:../../Middlewares/LVGL/GUI/lvgl/src/indev/../core/lv_obj_style.h **** 
 163:../../Middlewares/LVGL/GUI/lvgl/src/indev/../core/lv_obj_style.h **** /**
 164:../../Middlewares/LVGL/GUI/lvgl/src/indev/../core/lv_obj_style.h ****  * Used internally for color filtering
 165:../../Middlewares/LVGL/GUI/lvgl/src/indev/../core/lv_obj_style.h ****  */
 166:../../Middlewares/LVGL/GUI/lvgl/src/indev/../core/lv_obj_style.h **** lv_style_value_t lv_obj_style_apply_color_filter(const lv_obj_t * obj, lv_part_t part, lv_style_val
 167:../../Middlewares/LVGL/GUI/lvgl/src/indev/../core/lv_obj_style.h **** 
 168:../../Middlewares/LVGL/GUI/lvgl/src/indev/../core/lv_obj_style.h **** /**
 169:../../Middlewares/LVGL/GUI/lvgl/src/indev/../core/lv_obj_style.h ****  * Fade in an an object and all its children.
 170:../../Middlewares/LVGL/GUI/lvgl/src/indev/../core/lv_obj_style.h ****  * @param obj       the object to fade in
 171:../../Middlewares/LVGL/GUI/lvgl/src/indev/../core/lv_obj_style.h ****  * @param time      time of fade
 172:../../Middlewares/LVGL/GUI/lvgl/src/indev/../core/lv_obj_style.h ****  * @param delay     delay to start the animation
 173:../../Middlewares/LVGL/GUI/lvgl/src/indev/../core/lv_obj_style.h ****  */
 174:../../Middlewares/LVGL/GUI/lvgl/src/indev/../core/lv_obj_style.h **** void lv_obj_fade_in(lv_obj_t * obj, uint32_t time, uint32_t delay);
 175:../../Middlewares/LVGL/GUI/lvgl/src/indev/../core/lv_obj_style.h **** 
 176:../../Middlewares/LVGL/GUI/lvgl/src/indev/../core/lv_obj_style.h **** /**
 177:../../Middlewares/LVGL/GUI/lvgl/src/indev/../core/lv_obj_style.h ****  * Fade out an an object and all its children.
 178:../../Middlewares/LVGL/GUI/lvgl/src/indev/../core/lv_obj_style.h ****  * @param obj       the object to fade out
 179:../../Middlewares/LVGL/GUI/lvgl/src/indev/../core/lv_obj_style.h ****  * @param time      time of fade
 180:../../Middlewares/LVGL/GUI/lvgl/src/indev/../core/lv_obj_style.h ****  * @param delay     delay to start the animation
 181:../../Middlewares/LVGL/GUI/lvgl/src/indev/../core/lv_obj_style.h ****  */
 182:../../Middlewares/LVGL/GUI/lvgl/src/indev/../core/lv_obj_style.h **** void lv_obj_fade_out(lv_obj_t * obj, uint32_t time, uint32_t delay);
 183:../../Middlewares/LVGL/GUI/lvgl/src/indev/../core/lv_obj_style.h **** 
 184:../../Middlewares/LVGL/GUI/lvgl/src/indev/../core/lv_obj_style.h **** static inline lv_state_t lv_obj_style_get_selector_state(lv_style_selector_t selector)
 185:../../Middlewares/LVGL/GUI/lvgl/src/indev/../core/lv_obj_style.h **** {
 186:../../Middlewares/LVGL/GUI/lvgl/src/indev/../core/lv_obj_style.h ****     return selector & 0xFFFF;
 187:../../Middlewares/LVGL/GUI/lvgl/src/indev/../core/lv_obj_style.h **** }
 188:../../Middlewares/LVGL/GUI/lvgl/src/indev/../core/lv_obj_style.h **** 
 189:../../Middlewares/LVGL/GUI/lvgl/src/indev/../core/lv_obj_style.h **** static inline lv_part_t lv_obj_style_get_selector_part(lv_style_selector_t selector)
 190:../../Middlewares/LVGL/GUI/lvgl/src/indev/../core/lv_obj_style.h **** {
 191:../../Middlewares/LVGL/GUI/lvgl/src/indev/../core/lv_obj_style.h ****     return selector & 0xFF0000;
 192:../../Middlewares/LVGL/GUI/lvgl/src/indev/../core/lv_obj_style.h **** }
 193:../../Middlewares/LVGL/GUI/lvgl/src/indev/../core/lv_obj_style.h **** 
 194:../../Middlewares/LVGL/GUI/lvgl/src/indev/../core/lv_obj_style.h **** #include "lv_obj_style_gen.h"
 195:../../Middlewares/LVGL/GUI/lvgl/src/indev/../core/lv_obj_style.h **** 
 196:../../Middlewares/LVGL/GUI/lvgl/src/indev/../core/lv_obj_style.h **** static inline void lv_obj_set_style_pad_all(lv_obj_t * obj, int32_t value, lv_style_selector_t sele
 197:../../Middlewares/LVGL/GUI/lvgl/src/indev/../core/lv_obj_style.h **** {
 198:../../Middlewares/LVGL/GUI/lvgl/src/indev/../core/lv_obj_style.h ****     lv_obj_set_style_pad_left(obj, value, selector);
ARM GAS  C:\Users\28576\AppData\Local\Temp\ccZznpky.s 			page 79


 199:../../Middlewares/LVGL/GUI/lvgl/src/indev/../core/lv_obj_style.h ****     lv_obj_set_style_pad_right(obj, value, selector);
 200:../../Middlewares/LVGL/GUI/lvgl/src/indev/../core/lv_obj_style.h ****     lv_obj_set_style_pad_top(obj, value, selector);
 201:../../Middlewares/LVGL/GUI/lvgl/src/indev/../core/lv_obj_style.h ****     lv_obj_set_style_pad_bottom(obj, value, selector);
 202:../../Middlewares/LVGL/GUI/lvgl/src/indev/../core/lv_obj_style.h **** }
 203:../../Middlewares/LVGL/GUI/lvgl/src/indev/../core/lv_obj_style.h **** 
 204:../../Middlewares/LVGL/GUI/lvgl/src/indev/../core/lv_obj_style.h **** static inline void lv_obj_set_style_pad_hor(lv_obj_t * obj, int32_t value, lv_style_selector_t sele
 205:../../Middlewares/LVGL/GUI/lvgl/src/indev/../core/lv_obj_style.h **** {
 206:../../Middlewares/LVGL/GUI/lvgl/src/indev/../core/lv_obj_style.h ****     lv_obj_set_style_pad_left(obj, value, selector);
 207:../../Middlewares/LVGL/GUI/lvgl/src/indev/../core/lv_obj_style.h ****     lv_obj_set_style_pad_right(obj, value, selector);
 208:../../Middlewares/LVGL/GUI/lvgl/src/indev/../core/lv_obj_style.h **** }
 209:../../Middlewares/LVGL/GUI/lvgl/src/indev/../core/lv_obj_style.h **** 
 210:../../Middlewares/LVGL/GUI/lvgl/src/indev/../core/lv_obj_style.h **** static inline void lv_obj_set_style_pad_ver(lv_obj_t * obj, int32_t value, lv_style_selector_t sele
 211:../../Middlewares/LVGL/GUI/lvgl/src/indev/../core/lv_obj_style.h **** {
 212:../../Middlewares/LVGL/GUI/lvgl/src/indev/../core/lv_obj_style.h ****     lv_obj_set_style_pad_top(obj, value, selector);
 213:../../Middlewares/LVGL/GUI/lvgl/src/indev/../core/lv_obj_style.h ****     lv_obj_set_style_pad_bottom(obj, value, selector);
 214:../../Middlewares/LVGL/GUI/lvgl/src/indev/../core/lv_obj_style.h **** }
 215:../../Middlewares/LVGL/GUI/lvgl/src/indev/../core/lv_obj_style.h **** 
 216:../../Middlewares/LVGL/GUI/lvgl/src/indev/../core/lv_obj_style.h **** static inline void lv_obj_set_style_margin_all(lv_obj_t * obj, int32_t value, lv_style_selector_t s
 217:../../Middlewares/LVGL/GUI/lvgl/src/indev/../core/lv_obj_style.h **** {
 218:../../Middlewares/LVGL/GUI/lvgl/src/indev/../core/lv_obj_style.h ****     lv_obj_set_style_margin_left(obj, value, selector);
 219:../../Middlewares/LVGL/GUI/lvgl/src/indev/../core/lv_obj_style.h ****     lv_obj_set_style_margin_right(obj, value, selector);
 220:../../Middlewares/LVGL/GUI/lvgl/src/indev/../core/lv_obj_style.h ****     lv_obj_set_style_margin_top(obj, value, selector);
 221:../../Middlewares/LVGL/GUI/lvgl/src/indev/../core/lv_obj_style.h ****     lv_obj_set_style_margin_bottom(obj, value, selector);
 222:../../Middlewares/LVGL/GUI/lvgl/src/indev/../core/lv_obj_style.h **** }
 223:../../Middlewares/LVGL/GUI/lvgl/src/indev/../core/lv_obj_style.h **** 
 224:../../Middlewares/LVGL/GUI/lvgl/src/indev/../core/lv_obj_style.h **** static inline void lv_obj_set_style_margin_hor(lv_obj_t * obj, int32_t value, lv_style_selector_t s
 225:../../Middlewares/LVGL/GUI/lvgl/src/indev/../core/lv_obj_style.h **** {
 226:../../Middlewares/LVGL/GUI/lvgl/src/indev/../core/lv_obj_style.h ****     lv_obj_set_style_margin_left(obj, value, selector);
 227:../../Middlewares/LVGL/GUI/lvgl/src/indev/../core/lv_obj_style.h ****     lv_obj_set_style_margin_right(obj, value, selector);
 228:../../Middlewares/LVGL/GUI/lvgl/src/indev/../core/lv_obj_style.h **** }
 229:../../Middlewares/LVGL/GUI/lvgl/src/indev/../core/lv_obj_style.h **** 
 230:../../Middlewares/LVGL/GUI/lvgl/src/indev/../core/lv_obj_style.h **** static inline void lv_obj_set_style_margin_ver(lv_obj_t * obj, int32_t value, lv_style_selector_t s
 231:../../Middlewares/LVGL/GUI/lvgl/src/indev/../core/lv_obj_style.h **** {
 232:../../Middlewares/LVGL/GUI/lvgl/src/indev/../core/lv_obj_style.h ****     lv_obj_set_style_margin_top(obj, value, selector);
 233:../../Middlewares/LVGL/GUI/lvgl/src/indev/../core/lv_obj_style.h ****     lv_obj_set_style_margin_bottom(obj, value, selector);
 234:../../Middlewares/LVGL/GUI/lvgl/src/indev/../core/lv_obj_style.h **** }
 235:../../Middlewares/LVGL/GUI/lvgl/src/indev/../core/lv_obj_style.h **** 
 236:../../Middlewares/LVGL/GUI/lvgl/src/indev/../core/lv_obj_style.h **** static inline void lv_obj_set_style_pad_gap(lv_obj_t * obj, int32_t value, lv_style_selector_t sele
 237:../../Middlewares/LVGL/GUI/lvgl/src/indev/../core/lv_obj_style.h **** {
 238:../../Middlewares/LVGL/GUI/lvgl/src/indev/../core/lv_obj_style.h ****     lv_obj_set_style_pad_row(obj, value, selector);
 239:../../Middlewares/LVGL/GUI/lvgl/src/indev/../core/lv_obj_style.h ****     lv_obj_set_style_pad_column(obj, value, selector);
 240:../../Middlewares/LVGL/GUI/lvgl/src/indev/../core/lv_obj_style.h **** }
 241:../../Middlewares/LVGL/GUI/lvgl/src/indev/../core/lv_obj_style.h **** 
 242:../../Middlewares/LVGL/GUI/lvgl/src/indev/../core/lv_obj_style.h **** static inline void lv_obj_set_style_size(lv_obj_t * obj, int32_t width, int32_t height,
 243:../../Middlewares/LVGL/GUI/lvgl/src/indev/../core/lv_obj_style.h ****                                          lv_style_selector_t selector)
 244:../../Middlewares/LVGL/GUI/lvgl/src/indev/../core/lv_obj_style.h **** {
 245:../../Middlewares/LVGL/GUI/lvgl/src/indev/../core/lv_obj_style.h ****     lv_obj_set_style_width(obj, width, selector);
 246:../../Middlewares/LVGL/GUI/lvgl/src/indev/../core/lv_obj_style.h ****     lv_obj_set_style_height(obj, height, selector);
 247:../../Middlewares/LVGL/GUI/lvgl/src/indev/../core/lv_obj_style.h **** }
 248:../../Middlewares/LVGL/GUI/lvgl/src/indev/../core/lv_obj_style.h **** 
 249:../../Middlewares/LVGL/GUI/lvgl/src/indev/../core/lv_obj_style.h **** static inline void lv_obj_set_style_transform_scale(lv_obj_t * obj, int32_t value,
 250:../../Middlewares/LVGL/GUI/lvgl/src/indev/../core/lv_obj_style.h ****                                                     lv_style_selector_t selector)
 251:../../Middlewares/LVGL/GUI/lvgl/src/indev/../core/lv_obj_style.h **** {
 252:../../Middlewares/LVGL/GUI/lvgl/src/indev/../core/lv_obj_style.h ****     lv_obj_set_style_transform_scale_x(obj, value, selector);
 253:../../Middlewares/LVGL/GUI/lvgl/src/indev/../core/lv_obj_style.h ****     lv_obj_set_style_transform_scale_y(obj, value, selector);
 254:../../Middlewares/LVGL/GUI/lvgl/src/indev/../core/lv_obj_style.h **** }
 255:../../Middlewares/LVGL/GUI/lvgl/src/indev/../core/lv_obj_style.h **** 
ARM GAS  C:\Users\28576\AppData\Local\Temp\ccZznpky.s 			page 80


 256:../../Middlewares/LVGL/GUI/lvgl/src/indev/../core/lv_obj_style.h **** static inline int32_t lv_obj_get_style_space_left(const lv_obj_t * obj, lv_part_t part)
 257:../../Middlewares/LVGL/GUI/lvgl/src/indev/../core/lv_obj_style.h **** {
 258:../../Middlewares/LVGL/GUI/lvgl/src/indev/../core/lv_obj_style.h ****     int32_t padding = lv_obj_get_style_pad_left(obj, part);
 259:../../Middlewares/LVGL/GUI/lvgl/src/indev/../core/lv_obj_style.h ****     int32_t border_width = lv_obj_get_style_border_width(obj, part);
 260:../../Middlewares/LVGL/GUI/lvgl/src/indev/../core/lv_obj_style.h ****     lv_border_side_t border_side = lv_obj_get_style_border_side(obj, part);
 261:../../Middlewares/LVGL/GUI/lvgl/src/indev/../core/lv_obj_style.h ****     return (border_side & LV_BORDER_SIDE_LEFT) ? padding + border_width : padding;
 262:../../Middlewares/LVGL/GUI/lvgl/src/indev/../core/lv_obj_style.h **** }
 263:../../Middlewares/LVGL/GUI/lvgl/src/indev/../core/lv_obj_style.h **** 
 264:../../Middlewares/LVGL/GUI/lvgl/src/indev/../core/lv_obj_style.h **** static inline int32_t lv_obj_get_style_space_right(const lv_obj_t * obj, lv_part_t part)
 265:../../Middlewares/LVGL/GUI/lvgl/src/indev/../core/lv_obj_style.h **** {
 266:../../Middlewares/LVGL/GUI/lvgl/src/indev/../core/lv_obj_style.h ****     int32_t padding = lv_obj_get_style_pad_right(obj, part);
 267:../../Middlewares/LVGL/GUI/lvgl/src/indev/../core/lv_obj_style.h ****     int32_t border_width = lv_obj_get_style_border_width(obj, part);
 268:../../Middlewares/LVGL/GUI/lvgl/src/indev/../core/lv_obj_style.h ****     lv_border_side_t border_side = lv_obj_get_style_border_side(obj, part);
 269:../../Middlewares/LVGL/GUI/lvgl/src/indev/../core/lv_obj_style.h ****     return (border_side & LV_BORDER_SIDE_RIGHT) ? padding + border_width : padding;
 270:../../Middlewares/LVGL/GUI/lvgl/src/indev/../core/lv_obj_style.h **** }
 271:../../Middlewares/LVGL/GUI/lvgl/src/indev/../core/lv_obj_style.h **** 
 272:../../Middlewares/LVGL/GUI/lvgl/src/indev/../core/lv_obj_style.h **** static inline int32_t lv_obj_get_style_space_top(const lv_obj_t * obj, lv_part_t part)
 273:../../Middlewares/LVGL/GUI/lvgl/src/indev/../core/lv_obj_style.h **** {
 274:../../Middlewares/LVGL/GUI/lvgl/src/indev/../core/lv_obj_style.h ****     int32_t padding = lv_obj_get_style_pad_top(obj, part);
 275:../../Middlewares/LVGL/GUI/lvgl/src/indev/../core/lv_obj_style.h ****     int32_t border_width = lv_obj_get_style_border_width(obj, part);
 276:../../Middlewares/LVGL/GUI/lvgl/src/indev/../core/lv_obj_style.h ****     lv_border_side_t border_side = lv_obj_get_style_border_side(obj, part);
 277:../../Middlewares/LVGL/GUI/lvgl/src/indev/../core/lv_obj_style.h ****     return (border_side & LV_BORDER_SIDE_TOP) ? padding + border_width : padding;
 278:../../Middlewares/LVGL/GUI/lvgl/src/indev/../core/lv_obj_style.h **** }
 279:../../Middlewares/LVGL/GUI/lvgl/src/indev/../core/lv_obj_style.h **** 
 280:../../Middlewares/LVGL/GUI/lvgl/src/indev/../core/lv_obj_style.h **** static inline int32_t lv_obj_get_style_space_bottom(const lv_obj_t * obj, lv_part_t part)
 281:../../Middlewares/LVGL/GUI/lvgl/src/indev/../core/lv_obj_style.h **** {
 282:../../Middlewares/LVGL/GUI/lvgl/src/indev/../core/lv_obj_style.h ****     int32_t padding = lv_obj_get_style_pad_bottom(obj, part);
 283:../../Middlewares/LVGL/GUI/lvgl/src/indev/../core/lv_obj_style.h ****     int32_t border_width = lv_obj_get_style_border_width(obj, part);
 284:../../Middlewares/LVGL/GUI/lvgl/src/indev/../core/lv_obj_style.h ****     lv_border_side_t border_side = lv_obj_get_style_border_side(obj, part);
 285:../../Middlewares/LVGL/GUI/lvgl/src/indev/../core/lv_obj_style.h ****     return (border_side & LV_BORDER_SIDE_BOTTOM) ? padding + border_width : padding;
 286:../../Middlewares/LVGL/GUI/lvgl/src/indev/../core/lv_obj_style.h **** }
 287:../../Middlewares/LVGL/GUI/lvgl/src/indev/../core/lv_obj_style.h **** 
 288:../../Middlewares/LVGL/GUI/lvgl/src/indev/../core/lv_obj_style.h **** lv_text_align_t lv_obj_calculate_style_text_align(const lv_obj_t * obj, lv_part_t part, const char 
 289:../../Middlewares/LVGL/GUI/lvgl/src/indev/../core/lv_obj_style.h **** 
 290:../../Middlewares/LVGL/GUI/lvgl/src/indev/../core/lv_obj_style.h **** static inline int32_t lv_obj_get_style_transform_scale_x_safe(const lv_obj_t * obj, lv_part_t part)
 2627              		.loc 3 290 23 view .LVU814
 2628              	.LBB127:
 291:../../Middlewares/LVGL/GUI/lvgl/src/indev/../core/lv_obj_style.h **** {
 292:../../Middlewares/LVGL/GUI/lvgl/src/indev/../core/lv_obj_style.h ****     int32_t scale = lv_obj_get_style_transform_scale_x(obj, part);
 2629              		.loc 3 292 5 view .LVU815
 2630              	.LBB128:
 2631              	.LBI128:
 112:../../Middlewares/LVGL/GUI/lvgl/src/indev/../core/lv_obj_style_gen.h **** {
 2632              		.loc 2 112 23 view .LVU816
 2633              	.LBB129:
 114:../../Middlewares/LVGL/GUI/lvgl/src/indev/../core/lv_obj_style_gen.h ****     return (int32_t)v.num;
 2634              		.loc 2 114 5 view .LVU817
 114:../../Middlewares/LVGL/GUI/lvgl/src/indev/../core/lv_obj_style_gen.h ****     return (int32_t)v.num;
 2635              		.loc 2 114 26 is_stmt 0 view .LVU818
 2636 0046 6E22     		movs	r2, #110
 2637 0048 0021     		movs	r1, #0
 2638 004a 2046     		mov	r0, r4
 2639 004c FFF7FEFF 		bl	lv_obj_get_style_prop
 2640              	.LVL298:
 2641 0050 0746     		mov	r7, r0
 2642 0052 0C90     		str	r0, [sp, #48]
 115:../../Middlewares/LVGL/GUI/lvgl/src/indev/../core/lv_obj_style_gen.h **** }
ARM GAS  C:\Users\28576\AppData\Local\Temp\ccZznpky.s 			page 81


 2643              		.loc 2 115 5 is_stmt 1 view .LVU819
 2644              	.LVL299:
 115:../../Middlewares/LVGL/GUI/lvgl/src/indev/../core/lv_obj_style_gen.h **** }
 2645              		.loc 2 115 5 is_stmt 0 view .LVU820
 2646              	.LBE129:
 2647              	.LBE128:
 293:../../Middlewares/LVGL/GUI/lvgl/src/indev/../core/lv_obj_style.h ****     return scale > 0 ? scale : 1;
 2648              		.loc 3 293 5 is_stmt 1 view .LVU821
 2649              		.loc 3 293 30 is_stmt 0 view .LVU822
 2650 0054 0128     		cmp	r0, #1
 2651 0056 B8BF     		it	lt
 2652 0058 0127     		movlt	r7, #1
 2653              	.LVL300:
 2654              		.loc 3 293 30 view .LVU823
 2655              	.LBE127:
 2656              	.LBE126:
 298:../../Middlewares/LVGL/GUI/lvgl/src/indev/lv_indev_scroll.c ****             scale_x = (scale_x * zoom_act_x) >> 8;
 2657              		.loc 1 298 13 is_stmt 1 view .LVU824
 2658              	.LBB130:
 2659              	.LBI130:
 294:../../Middlewares/LVGL/GUI/lvgl/src/indev/../core/lv_obj_style.h **** }
 295:../../Middlewares/LVGL/GUI/lvgl/src/indev/../core/lv_obj_style.h **** 
 296:../../Middlewares/LVGL/GUI/lvgl/src/indev/../core/lv_obj_style.h **** static inline int32_t lv_obj_get_style_transform_scale_y_safe(const lv_obj_t * obj, lv_part_t part)
 2660              		.loc 3 296 23 view .LVU825
 2661              	.LBB131:
 297:../../Middlewares/LVGL/GUI/lvgl/src/indev/../core/lv_obj_style.h **** {
 298:../../Middlewares/LVGL/GUI/lvgl/src/indev/../core/lv_obj_style.h ****     int32_t scale = lv_obj_get_style_transform_scale_y(obj, part);
 2662              		.loc 3 298 5 view .LVU826
 2663              	.LBB132:
 2664              	.LBI132:
 118:../../Middlewares/LVGL/GUI/lvgl/src/indev/../core/lv_obj_style_gen.h **** {
 2665              		.loc 2 118 23 view .LVU827
 2666              	.LBB133:
 120:../../Middlewares/LVGL/GUI/lvgl/src/indev/../core/lv_obj_style_gen.h ****     return (int32_t)v.num;
 2667              		.loc 2 120 5 view .LVU828
 120:../../Middlewares/LVGL/GUI/lvgl/src/indev/../core/lv_obj_style_gen.h ****     return (int32_t)v.num;
 2668              		.loc 2 120 26 is_stmt 0 view .LVU829
 2669 005a 6F22     		movs	r2, #111
 2670 005c 0021     		movs	r1, #0
 2671 005e 2046     		mov	r0, r4
 2672              	.LVL301:
 120:../../Middlewares/LVGL/GUI/lvgl/src/indev/../core/lv_obj_style_gen.h ****     return (int32_t)v.num;
 2673              		.loc 2 120 26 view .LVU830
 2674 0060 FFF7FEFF 		bl	lv_obj_get_style_prop
 2675              	.LVL302:
 120:../../Middlewares/LVGL/GUI/lvgl/src/indev/../core/lv_obj_style_gen.h ****     return (int32_t)v.num;
 2676              		.loc 2 120 26 view .LVU831
 2677 0064 0C90     		str	r0, [sp, #48]
 121:../../Middlewares/LVGL/GUI/lvgl/src/indev/../core/lv_obj_style_gen.h **** }
 2678              		.loc 2 121 5 is_stmt 1 view .LVU832
 2679              	.LVL303:
 121:../../Middlewares/LVGL/GUI/lvgl/src/indev/../core/lv_obj_style_gen.h **** }
 2680              		.loc 2 121 5 is_stmt 0 view .LVU833
 2681              	.LBE133:
 2682              	.LBE132:
 299:../../Middlewares/LVGL/GUI/lvgl/src/indev/../core/lv_obj_style.h ****     return scale > 0 ? scale : 1;
 2683              		.loc 3 299 5 is_stmt 1 view .LVU834
ARM GAS  C:\Users\28576\AppData\Local\Temp\ccZznpky.s 			page 82


 2684              		.loc 3 299 30 is_stmt 0 view .LVU835
 2685 0066 0128     		cmp	r0, #1
 2686 0068 B8BF     		it	lt
 2687 006a 0120     		movlt	r0, #1
 2688              	.LVL304:
 2689              		.loc 3 299 30 view .LVU836
 2690              	.LBE131:
 2691              	.LBE130:
 299:../../Middlewares/LVGL/GUI/lvgl/src/indev/lv_indev_scroll.c ****             scale_y = (scale_y * zoom_act_y) >> 8;
 2692              		.loc 1 299 13 is_stmt 1 view .LVU837
 299:../../Middlewares/LVGL/GUI/lvgl/src/indev/lv_indev_scroll.c ****             scale_y = (scale_y * zoom_act_y) >> 8;
 2693              		.loc 1 299 32 is_stmt 0 view .LVU838
 2694 006c 07FB0AF7 		mul	r7, r7, r10
 2695              	.LVL305:
 299:../../Middlewares/LVGL/GUI/lvgl/src/indev/lv_indev_scroll.c ****             scale_y = (scale_y * zoom_act_y) >> 8;
 2696              		.loc 1 299 21 view .LVU839
 2697 0070 4FEA272A 		asr	r10, r7, #8
 2698              	.LVL306:
 300:../../Middlewares/LVGL/GUI/lvgl/src/indev/lv_indev_scroll.c ****             parent = lv_obj_get_parent(parent);
 2699              		.loc 1 300 13 is_stmt 1 view .LVU840
 300:../../Middlewares/LVGL/GUI/lvgl/src/indev/lv_indev_scroll.c ****             parent = lv_obj_get_parent(parent);
 2700              		.loc 1 300 32 is_stmt 0 view .LVU841
 2701 0074 06FB00F0 		mul	r0, r6, r0
 2702              	.LVL307:
 300:../../Middlewares/LVGL/GUI/lvgl/src/indev/lv_indev_scroll.c ****             parent = lv_obj_get_parent(parent);
 2703              		.loc 1 300 21 view .LVU842
 2704 0078 0612     		asrs	r6, r0, #8
 2705              	.LVL308:
 301:../../Middlewares/LVGL/GUI/lvgl/src/indev/lv_indev_scroll.c ****         }
 2706              		.loc 1 301 13 is_stmt 1 view .LVU843
 301:../../Middlewares/LVGL/GUI/lvgl/src/indev/lv_indev_scroll.c ****         }
 2707              		.loc 1 301 22 is_stmt 0 view .LVU844
 2708 007a 2046     		mov	r0, r4
 2709 007c FFF7FEFF 		bl	lv_obj_get_parent
 2710              	.LVL309:
 301:../../Middlewares/LVGL/GUI/lvgl/src/indev/lv_indev_scroll.c ****         }
 2711              		.loc 1 301 22 view .LVU845
 2712 0080 0446     		mov	r4, r0
 2713              	.LVL310:
 2714              	.L156:
 301:../../Middlewares/LVGL/GUI/lvgl/src/indev/lv_indev_scroll.c ****         }
 2715              		.loc 1 301 22 view .LVU846
 2716              	.LBE123:
 295:../../Middlewares/LVGL/GUI/lvgl/src/indev/lv_indev_scroll.c ****             angle += lv_obj_get_style_transform_rotation(parent, 0);
 2717              		.loc 1 295 15 is_stmt 1 view .LVU847
 2718 0082 002C     		cmp	r4, #0
 2719 0084 D6D1     		bne	.L157
 304:../../Middlewares/LVGL/GUI/lvgl/src/indev/lv_indev_scroll.c ****             scale_x = 1;
 2720              		.loc 1 304 11 is_stmt 0 view .LVU848
 2721 0086 4C46     		mov	r4, r9
 2722              	.LVL311:
 304:../../Middlewares/LVGL/GUI/lvgl/src/indev/lv_indev_scroll.c ****             scale_x = 1;
 2723              		.loc 1 304 9 is_stmt 1 view .LVU849
 304:../../Middlewares/LVGL/GUI/lvgl/src/indev/lv_indev_scroll.c ****             scale_x = 1;
 2724              		.loc 1 304 11 is_stmt 0 view .LVU850
 2725 0088 BAF1000F 		cmp	r10, #0
 2726 008c 01D1     		bne	.L158
ARM GAS  C:\Users\28576\AppData\Local\Temp\ccZznpky.s 			page 83


 2727              	.LVL312:
 305:../../Middlewares/LVGL/GUI/lvgl/src/indev/lv_indev_scroll.c ****         }
 2728              		.loc 1 305 21 view .LVU851
 2729 008e 4FF0010A 		mov	r10, #1
 2730              	.LVL313:
 2731              	.L158:
 308:../../Middlewares/LVGL/GUI/lvgl/src/indev/lv_indev_scroll.c ****             scale_y = 1;
 2732              		.loc 1 308 9 is_stmt 1 view .LVU852
 308:../../Middlewares/LVGL/GUI/lvgl/src/indev/lv_indev_scroll.c ****             scale_y = 1;
 2733              		.loc 1 308 11 is_stmt 0 view .LVU853
 2734 0092 06B9     		cbnz	r6, .L159
 309:../../Middlewares/LVGL/GUI/lvgl/src/indev/lv_indev_scroll.c ****         }
 2735              		.loc 1 309 21 view .LVU854
 2736 0094 0126     		movs	r6, #1
 2737              	.LVL314:
 2738              	.L159:
 312:../../Middlewares/LVGL/GUI/lvgl/src/indev/lv_indev_scroll.c ****         if(angle != 0 || scale_x != LV_SCALE_NONE || scale_y != LV_SCALE_NONE) {
 2739              		.loc 1 312 9 is_stmt 1 view .LVU855
 312:../../Middlewares/LVGL/GUI/lvgl/src/indev/lv_indev_scroll.c ****         if(angle != 0 || scale_x != LV_SCALE_NONE || scale_y != LV_SCALE_NONE) {
 2740              		.loc 1 312 20 is_stmt 0 view .LVU856
 2741 0096 0BF15003 		add	r3, fp, #80
 2742 009a 93E80300 		ldm	r3, {r0, r1}
 2743 009e 0EAB     		add	r3, sp, #56
 2744 00a0 03E90300 		stmdb	r3, {r0, r1}
 313:../../Middlewares/LVGL/GUI/lvgl/src/indev/lv_indev_scroll.c ****             angle = -angle;
 2745              		.loc 1 313 9 is_stmt 1 view .LVU857
 313:../../Middlewares/LVGL/GUI/lvgl/src/indev/lv_indev_scroll.c ****             angle = -angle;
 2746              		.loc 1 313 11 is_stmt 0 view .LVU858
 2747 00a4 BAF5807F 		cmp	r10, #256
 2748 00a8 08BF     		it	eq
 2749 00aa B8F1000F 		cmpeq	r8, #0
 2750 00ae 02D1     		bne	.L160
 313:../../Middlewares/LVGL/GUI/lvgl/src/indev/lv_indev_scroll.c ****             angle = -angle;
 2751              		.loc 1 313 51 discriminator 1 view .LVU859
 2752 00b0 B6F5807F 		cmp	r6, #256
 2753 00b4 0FD0     		beq	.L161
 2754              	.L160:
 314:../../Middlewares/LVGL/GUI/lvgl/src/indev/lv_indev_scroll.c ****             scale_x = (256 * 256) / scale_x;
 2755              		.loc 1 314 13 is_stmt 1 view .LVU860
 314:../../Middlewares/LVGL/GUI/lvgl/src/indev/lv_indev_scroll.c ****             scale_x = (256 * 256) / scale_x;
 2756              		.loc 1 314 19 is_stmt 0 view .LVU861
 2757 00b6 C8F10001 		rsb	r1, r8, #0
 2758              	.LVL315:
 315:../../Middlewares/LVGL/GUI/lvgl/src/indev/lv_indev_scroll.c ****             scale_y = (256 * 256) / scale_y;
 2759              		.loc 1 315 13 is_stmt 1 view .LVU862
 315:../../Middlewares/LVGL/GUI/lvgl/src/indev/lv_indev_scroll.c ****             scale_y = (256 * 256) / scale_y;
 2760              		.loc 1 315 21 is_stmt 0 view .LVU863
 2761 00ba 4FF48032 		mov	r2, #65536
 2762              	.LVL316:
 316:../../Middlewares/LVGL/GUI/lvgl/src/indev/lv_indev_scroll.c ****             lv_point_transform(&obj_scroll_sum, angle, scale_x, scale_y, &pivot, false);
 2763              		.loc 1 316 13 is_stmt 1 view .LVU864
 317:../../Middlewares/LVGL/GUI/lvgl/src/indev/lv_indev_scroll.c ****         }
 2764              		.loc 1 317 13 view .LVU865
 2765 00be 0023     		movs	r3, #0
 2766 00c0 0193     		str	r3, [sp, #4]
 2767 00c2 0AAB     		add	r3, sp, #40
 2768 00c4 0093     		str	r3, [sp]
ARM GAS  C:\Users\28576\AppData\Local\Temp\ccZznpky.s 			page 84


 2769 00c6 92FBF6F3 		sdiv	r3, r2, r6
 2770              	.LVL317:
 317:../../Middlewares/LVGL/GUI/lvgl/src/indev/lv_indev_scroll.c ****         }
 2771              		.loc 1 317 13 is_stmt 0 view .LVU866
 2772 00ca 92FBFAF2 		sdiv	r2, r2, r10
 2773              	.LVL318:
 317:../../Middlewares/LVGL/GUI/lvgl/src/indev/lv_indev_scroll.c ****         }
 2774              		.loc 1 317 13 view .LVU867
 2775 00ce 09B2     		sxth	r1, r1
 317:../../Middlewares/LVGL/GUI/lvgl/src/indev/lv_indev_scroll.c ****         }
 2776              		.loc 1 317 13 view .LVU868
 2777 00d0 0CA8     		add	r0, sp, #48
 2778 00d2 FFF7FEFF 		bl	lv_point_transform
 2779              	.LVL319:
 2780              	.L161:
 320:../../Middlewares/LVGL/GUI/lvgl/src/indev/lv_indev_scroll.c ****             hor_en = true;
 2781              		.loc 1 320 9 is_stmt 1 view .LVU869
 320:../../Middlewares/LVGL/GUI/lvgl/src/indev/lv_indev_scroll.c ****             hor_en = true;
 2782              		.loc 1 320 12 is_stmt 0 view .LVU870
 2783 00d6 0C9B     		ldr	r3, [sp, #48]
 2784 00d8 83EAE372 		eor	r2, r3, r3, asr #31
 2785 00dc A2EBE372 		sub	r2, r2, r3, asr #31
 320:../../Middlewares/LVGL/GUI/lvgl/src/indev/lv_indev_scroll.c ****             hor_en = true;
 2786              		.loc 1 320 39 view .LVU871
 2787 00e0 0D9B     		ldr	r3, [sp, #52]
 2788 00e2 002B     		cmp	r3, #0
 2789 00e4 B8BF     		it	lt
 2790 00e6 5B42     		rsblt	r3, r3, #0
 320:../../Middlewares/LVGL/GUI/lvgl/src/indev/lv_indev_scroll.c ****             hor_en = true;
 2791              		.loc 1 320 11 view .LVU872
 2792 00e8 9A42     		cmp	r2, r3
 2793 00ea 2ADC     		bgt	.L224
 324:../../Middlewares/LVGL/GUI/lvgl/src/indev/lv_indev_scroll.c ****         }
 2794              		.loc 1 324 20 view .LVU873
 2795 00ec 0123     		movs	r3, #1
 2796 00ee 0293     		str	r3, [sp, #8]
 2797              	.LVL320:
 2798              	.L162:
 327:../../Middlewares/LVGL/GUI/lvgl/src/indev/lv_indev_scroll.c ****             /*If this object don't want to chain the scroll to the parent stop searching*/
 2799              		.loc 1 327 9 is_stmt 1 view .LVU874
 327:../../Middlewares/LVGL/GUI/lvgl/src/indev/lv_indev_scroll.c ****             /*If this object don't want to chain the scroll to the parent stop searching*/
 2800              		.loc 1 327 12 is_stmt 0 view .LVU875
 2801 00f0 1021     		movs	r1, #16
 2802 00f2 2046     		mov	r0, r4
 2803 00f4 FFF7FEFF 		bl	lv_obj_has_flag
 2804              	.LVL321:
 327:../../Middlewares/LVGL/GUI/lvgl/src/indev/lv_indev_scroll.c ****             /*If this object don't want to chain the scroll to the parent stop searching*/
 2805              		.loc 1 327 11 discriminator 1 view .LVU876
 2806 00f8 58BB     		cbnz	r0, .L163
 329:../../Middlewares/LVGL/GUI/lvgl/src/indev/lv_indev_scroll.c ****             if(lv_obj_has_flag(obj_act, LV_OBJ_FLAG_SCROLL_CHAIN_VER) == false && ver_en) break;
 2807              		.loc 1 329 13 is_stmt 1 view .LVU877
 329:../../Middlewares/LVGL/GUI/lvgl/src/indev/lv_indev_scroll.c ****             if(lv_obj_has_flag(obj_act, LV_OBJ_FLAG_SCROLL_CHAIN_VER) == false && ver_en) break;
 2808              		.loc 1 329 16 is_stmt 0 view .LVU878
 2809 00fa 4FF48071 		mov	r1, #256
 2810 00fe 2046     		mov	r0, r4
 2811 0100 FFF7FEFF 		bl	lv_obj_has_flag
 2812              	.LVL322:
ARM GAS  C:\Users\28576\AppData\Local\Temp\ccZznpky.s 			page 85


 329:../../Middlewares/LVGL/GUI/lvgl/src/indev/lv_indev_scroll.c ****             if(lv_obj_has_flag(obj_act, LV_OBJ_FLAG_SCROLL_CHAIN_VER) == false && ver_en) break;
 2813              		.loc 1 329 15 discriminator 1 view .LVU879
 2814 0104 08B9     		cbnz	r0, .L164
 329:../../Middlewares/LVGL/GUI/lvgl/src/indev/lv_indev_scroll.c ****             if(lv_obj_has_flag(obj_act, LV_OBJ_FLAG_SCROLL_CHAIN_VER) == false && ver_en) break;
 2815              		.loc 1 329 80 discriminator 2 view .LVU880
 2816 0106 039B     		ldr	r3, [sp, #12]
 2817 0108 3BB9     		cbnz	r3, .L196
 2818              	.L164:
 330:../../Middlewares/LVGL/GUI/lvgl/src/indev/lv_indev_scroll.c **** 
 2819              		.loc 1 330 13 is_stmt 1 view .LVU881
 330:../../Middlewares/LVGL/GUI/lvgl/src/indev/lv_indev_scroll.c **** 
 2820              		.loc 1 330 16 is_stmt 0 view .LVU882
 2821 010a 4FF40071 		mov	r1, #512
 2822 010e 2046     		mov	r0, r4
 2823 0110 FFF7FEFF 		bl	lv_obj_has_flag
 2824              	.LVL323:
 330:../../Middlewares/LVGL/GUI/lvgl/src/indev/lv_indev_scroll.c **** 
 2825              		.loc 1 330 15 discriminator 1 view .LVU883
 2826 0114 C0B9     		cbnz	r0, .L166
 330:../../Middlewares/LVGL/GUI/lvgl/src/indev/lv_indev_scroll.c **** 
 2827              		.loc 1 330 80 discriminator 2 view .LVU884
 2828 0116 029B     		ldr	r3, [sp, #8]
 2829 0118 B3B1     		cbz	r3, .L166
 2830              	.LVL324:
 2831              	.L196:
 330:../../Middlewares/LVGL/GUI/lvgl/src/indev/lv_indev_scroll.c **** 
 2832              		.loc 1 330 80 discriminator 2 view .LVU885
 2833              	.LBE122:
 428:../../Middlewares/LVGL/GUI/lvgl/src/indev/lv_indev_scroll.c ****         indev->pointer.scroll_dir = dir_candidate;
 2834              		.loc 1 428 5 is_stmt 1 view .LVU886
 428:../../Middlewares/LVGL/GUI/lvgl/src/indev/lv_indev_scroll.c ****         indev->pointer.scroll_dir = dir_candidate;
 2835              		.loc 1 428 7 is_stmt 0 view .LVU887
 2836 011a 069B     		ldr	r3, [sp, #24]
 2837 011c 6BB1     		cbz	r3, .L154
 429:../../Middlewares/LVGL/GUI/lvgl/src/indev/lv_indev_scroll.c ****         indev->pointer.scroll_obj = obj_candidate;
 2838              		.loc 1 429 9 is_stmt 1 view .LVU888
 429:../../Middlewares/LVGL/GUI/lvgl/src/indev/lv_indev_scroll.c ****         indev->pointer.scroll_obj = obj_candidate;
 2839              		.loc 1 429 35 is_stmt 0 view .LVU889
 2840 011e 9BF8A820 		ldrb	r2, [fp, #168]	@ zero_extendqisi2
 2841 0122 0799     		ldr	r1, [sp, #28]
 2842 0124 61F30302 		bfi	r2, r1, #0, #4
 2843 0128 8BF8A820 		strb	r2, [fp, #168]
 430:../../Middlewares/LVGL/GUI/lvgl/src/indev/lv_indev_scroll.c ****         indev->pointer.scroll_sum.x = 0;
 2844              		.loc 1 430 9 is_stmt 1 view .LVU890
 430:../../Middlewares/LVGL/GUI/lvgl/src/indev/lv_indev_scroll.c ****         indev->pointer.scroll_sum.x = 0;
 2845              		.loc 1 430 35 is_stmt 0 view .LVU891
 2846 012c CBF87030 		str	r3, [fp, #112]
 431:../../Middlewares/LVGL/GUI/lvgl/src/indev/lv_indev_scroll.c ****         indev->pointer.scroll_sum.y = 0;
 2847              		.loc 1 431 9 is_stmt 1 view .LVU892
 431:../../Middlewares/LVGL/GUI/lvgl/src/indev/lv_indev_scroll.c ****         indev->pointer.scroll_sum.y = 0;
 2848              		.loc 1 431 37 is_stmt 0 view .LVU893
 2849 0130 0022     		movs	r2, #0
 2850 0132 CBF85020 		str	r2, [fp, #80]
 432:../../Middlewares/LVGL/GUI/lvgl/src/indev/lv_indev_scroll.c ****     }
 2851              		.loc 1 432 9 is_stmt 1 view .LVU894
 432:../../Middlewares/LVGL/GUI/lvgl/src/indev/lv_indev_scroll.c ****     }
 2852              		.loc 1 432 37 is_stmt 0 view .LVU895
ARM GAS  C:\Users\28576\AppData\Local\Temp\ccZznpky.s 			page 86


 2853 0136 CBF85420 		str	r2, [fp, #84]
 435:../../Middlewares/LVGL/GUI/lvgl/src/indev/lv_indev_scroll.c **** }
 2854              		.loc 1 435 5 is_stmt 1 view .LVU896
 2855              	.LVL325:
 2856              	.L154:
 436:../../Middlewares/LVGL/GUI/lvgl/src/indev/lv_indev_scroll.c **** 
 2857              		.loc 1 436 1 is_stmt 0 view .LVU897
 2858 013a 0698     		ldr	r0, [sp, #24]
 2859 013c 0FB0     		add	sp, sp, #60
 2860              	.LCFI28:
 2861              		.cfi_remember_state
 2862              		.cfi_def_cfa_offset 36
 2863              		@ sp needed
 2864 013e BDE8F08F 		pop	{r4, r5, r6, r7, r8, r9, r10, fp, pc}
 2865              	.LVL326:
 2866              	.L224:
 2867              	.LCFI29:
 2868              		.cfi_restore_state
 2869              	.LBB136:
 321:../../Middlewares/LVGL/GUI/lvgl/src/indev/lv_indev_scroll.c ****         }
 2870              		.loc 1 321 20 view .LVU898
 2871 0142 0123     		movs	r3, #1
 2872 0144 0393     		str	r3, [sp, #12]
 2873              	.LVL327:
 321:../../Middlewares/LVGL/GUI/lvgl/src/indev/lv_indev_scroll.c ****         }
 2874              		.loc 1 321 20 view .LVU899
 2875 0146 D3E7     		b	.L162
 2876              	.LVL328:
 2877              	.L166:
 332:../../Middlewares/LVGL/GUI/lvgl/src/indev/lv_indev_scroll.c ****             continue;
 2878              		.loc 1 332 13 is_stmt 1 view .LVU900
 332:../../Middlewares/LVGL/GUI/lvgl/src/indev/lv_indev_scroll.c ****             continue;
 2879              		.loc 1 332 23 is_stmt 0 view .LVU901
 2880 0148 2046     		mov	r0, r4
 2881 014a FFF7FEFF 		bl	lv_obj_get_parent
 2882              	.LVL329:
 2883 014e 0446     		mov	r4, r0
 2884              	.LVL330:
 333:../../Middlewares/LVGL/GUI/lvgl/src/indev/lv_indev_scroll.c ****         }
 2885              		.loc 1 333 13 is_stmt 1 view .LVU902
 2886 0150 D1E0     		b	.L155
 2887              	.LVL331:
 2888              	.L163:
 337:../../Middlewares/LVGL/GUI/lvgl/src/indev/lv_indev_scroll.c ****         bool down_en = ver_en;
 2889              		.loc 1 337 9 view .LVU903
 338:../../Middlewares/LVGL/GUI/lvgl/src/indev/lv_indev_scroll.c ****         bool left_en = hor_en;
 2890              		.loc 1 338 9 view .LVU904
 339:../../Middlewares/LVGL/GUI/lvgl/src/indev/lv_indev_scroll.c ****         bool right_en = hor_en;
 2891              		.loc 1 339 9 view .LVU905
 340:../../Middlewares/LVGL/GUI/lvgl/src/indev/lv_indev_scroll.c **** 
 2892              		.loc 1 340 9 view .LVU906
 343:../../Middlewares/LVGL/GUI/lvgl/src/indev/lv_indev_scroll.c ****         if((scroll_dir & LV_DIR_LEFT) == 0) left_en = false;
 2893              		.loc 1 343 9 view .LVU907
 343:../../Middlewares/LVGL/GUI/lvgl/src/indev/lv_indev_scroll.c ****         if((scroll_dir & LV_DIR_LEFT) == 0) left_en = false;
 2894              		.loc 1 343 31 is_stmt 0 view .LVU908
 2895 0152 2046     		mov	r0, r4
 2896 0154 FFF7FEFF 		bl	lv_obj_get_scroll_dir
ARM GAS  C:\Users\28576\AppData\Local\Temp\ccZznpky.s 			page 87


 2897              	.LVL332:
 344:../../Middlewares/LVGL/GUI/lvgl/src/indev/lv_indev_scroll.c ****         if((scroll_dir & LV_DIR_RIGHT) == 0) right_en = false;
 2898              		.loc 1 344 9 is_stmt 1 view .LVU909
 344:../../Middlewares/LVGL/GUI/lvgl/src/indev/lv_indev_scroll.c ****         if((scroll_dir & LV_DIR_RIGHT) == 0) right_en = false;
 2899              		.loc 1 344 11 is_stmt 0 view .LVU910
 2900 0158 10F0010F 		tst	r0, #1
 2901 015c 3ED0     		beq	.L202
 339:../../Middlewares/LVGL/GUI/lvgl/src/indev/lv_indev_scroll.c ****         bool right_en = hor_en;
 2902              		.loc 1 339 14 view .LVU911
 2903 015e DDF80C90 		ldr	r9, [sp, #12]
 2904              	.L168:
 2905              	.LVL333:
 345:../../Middlewares/LVGL/GUI/lvgl/src/indev/lv_indev_scroll.c ****         if((scroll_dir & LV_DIR_TOP) == 0) up_en = false;
 2906              		.loc 1 345 9 is_stmt 1 view .LVU912
 345:../../Middlewares/LVGL/GUI/lvgl/src/indev/lv_indev_scroll.c ****         if((scroll_dir & LV_DIR_TOP) == 0) up_en = false;
 2907              		.loc 1 345 11 is_stmt 0 view .LVU913
 2908 0162 10F0020F 		tst	r0, #2
 2909 0166 3CD0     		beq	.L203
 340:../../Middlewares/LVGL/GUI/lvgl/src/indev/lv_indev_scroll.c **** 
 2910              		.loc 1 340 14 view .LVU914
 2911 0168 039B     		ldr	r3, [sp, #12]
 2912 016a 0493     		str	r3, [sp, #16]
 2913              	.L169:
 2914              	.LVL334:
 346:../../Middlewares/LVGL/GUI/lvgl/src/indev/lv_indev_scroll.c ****         if((scroll_dir & LV_DIR_BOTTOM) == 0) down_en = false;
 2915              		.loc 1 346 9 is_stmt 1 view .LVU915
 346:../../Middlewares/LVGL/GUI/lvgl/src/indev/lv_indev_scroll.c ****         if((scroll_dir & LV_DIR_BOTTOM) == 0) down_en = false;
 2916              		.loc 1 346 11 is_stmt 0 view .LVU916
 2917 016c 10F0040F 		tst	r0, #4
 2918 0170 3AD0     		beq	.L204
 337:../../Middlewares/LVGL/GUI/lvgl/src/indev/lv_indev_scroll.c ****         bool down_en = ver_en;
 2919              		.loc 1 337 14 view .LVU917
 2920 0172 029B     		ldr	r3, [sp, #8]
 2921 0174 9A46     		mov	r10, r3
 2922              	.L170:
 2923              	.LVL335:
 347:../../Middlewares/LVGL/GUI/lvgl/src/indev/lv_indev_scroll.c **** 
 2924              		.loc 1 347 9 is_stmt 1 view .LVU918
 347:../../Middlewares/LVGL/GUI/lvgl/src/indev/lv_indev_scroll.c **** 
 2925              		.loc 1 347 11 is_stmt 0 view .LVU919
 2926 0176 10F0080F 		tst	r0, #8
 2927 017a 38D0     		beq	.L205
 338:../../Middlewares/LVGL/GUI/lvgl/src/indev/lv_indev_scroll.c ****         bool left_en = hor_en;
 2928              		.loc 1 338 14 view .LVU920
 2929 017c 029B     		ldr	r3, [sp, #8]
 2930 017e 0593     		str	r3, [sp, #20]
 2931              	.L171:
 2932              	.LVL336:
 350:../../Middlewares/LVGL/GUI/lvgl/src/indev/lv_indev_scroll.c ****         int32_t sr = 0;
 2933              		.loc 1 350 9 is_stmt 1 view .LVU921
 351:../../Middlewares/LVGL/GUI/lvgl/src/indev/lv_indev_scroll.c ****         lv_scroll_snap_t snap_x = lv_obj_get_scroll_snap_x(obj_act);
 2934              		.loc 1 351 9 view .LVU922
 352:../../Middlewares/LVGL/GUI/lvgl/src/indev/lv_indev_scroll.c ****         if(snap_x == LV_SCROLL_SNAP_NONE) {
 2935              		.loc 1 352 9 view .LVU923
 352:../../Middlewares/LVGL/GUI/lvgl/src/indev/lv_indev_scroll.c ****         if(snap_x == LV_SCROLL_SNAP_NONE) {
 2936              		.loc 1 352 35 is_stmt 0 view .LVU924
 2937 0180 2046     		mov	r0, r4
ARM GAS  C:\Users\28576\AppData\Local\Temp\ccZznpky.s 			page 88


 2938              	.LVL337:
 352:../../Middlewares/LVGL/GUI/lvgl/src/indev/lv_indev_scroll.c ****         if(snap_x == LV_SCROLL_SNAP_NONE) {
 2939              		.loc 1 352 35 view .LVU925
 2940 0182 FFF7FEFF 		bl	lv_obj_get_scroll_snap_x
 2941              	.LVL338:
 353:../../Middlewares/LVGL/GUI/lvgl/src/indev/lv_indev_scroll.c ****             sl = lv_obj_get_scroll_left(obj_act);
 2942              		.loc 1 353 9 is_stmt 1 view .LVU926
 353:../../Middlewares/LVGL/GUI/lvgl/src/indev/lv_indev_scroll.c ****             sl = lv_obj_get_scroll_left(obj_act);
 2943              		.loc 1 353 11 is_stmt 0 view .LVU927
 2944 0186 0028     		cmp	r0, #0
 2945 0188 34D1     		bne	.L172
 354:../../Middlewares/LVGL/GUI/lvgl/src/indev/lv_indev_scroll.c ****             sr = lv_obj_get_scroll_right(obj_act);
 2946              		.loc 1 354 13 is_stmt 1 view .LVU928
 354:../../Middlewares/LVGL/GUI/lvgl/src/indev/lv_indev_scroll.c ****             sr = lv_obj_get_scroll_right(obj_act);
 2947              		.loc 1 354 18 is_stmt 0 view .LVU929
 2948 018a 2046     		mov	r0, r4
 2949              	.LVL339:
 354:../../Middlewares/LVGL/GUI/lvgl/src/indev/lv_indev_scroll.c ****             sr = lv_obj_get_scroll_right(obj_act);
 2950              		.loc 1 354 18 view .LVU930
 2951 018c FFF7FEFF 		bl	lv_obj_get_scroll_left
 2952              	.LVL340:
 2953 0190 0746     		mov	r7, r0
 2954              	.LVL341:
 355:../../Middlewares/LVGL/GUI/lvgl/src/indev/lv_indev_scroll.c ****         }
 2955              		.loc 1 355 13 is_stmt 1 view .LVU931
 355:../../Middlewares/LVGL/GUI/lvgl/src/indev/lv_indev_scroll.c ****         }
 2956              		.loc 1 355 18 is_stmt 0 view .LVU932
 2957 0192 2046     		mov	r0, r4
 2958              	.LVL342:
 355:../../Middlewares/LVGL/GUI/lvgl/src/indev/lv_indev_scroll.c ****         }
 2959              		.loc 1 355 18 view .LVU933
 2960 0194 FFF7FEFF 		bl	lv_obj_get_scroll_right
 2961              	.LVL343:
 2962 0198 0646     		mov	r6, r0
 2963              	.LVL344:
 2964              	.L173:
 369:../../Middlewares/LVGL/GUI/lvgl/src/indev/lv_indev_scroll.c ****         int32_t sb = 0;
 2965              		.loc 1 369 9 is_stmt 1 view .LVU934
 370:../../Middlewares/LVGL/GUI/lvgl/src/indev/lv_indev_scroll.c ****         lv_scroll_snap_t snap_y = lv_obj_get_scroll_snap_y(obj_act);
 2966              		.loc 1 370 9 view .LVU935
 371:../../Middlewares/LVGL/GUI/lvgl/src/indev/lv_indev_scroll.c ****         if(snap_y == LV_SCROLL_SNAP_NONE) {
 2967              		.loc 1 371 9 view .LVU936
 371:../../Middlewares/LVGL/GUI/lvgl/src/indev/lv_indev_scroll.c ****         if(snap_y == LV_SCROLL_SNAP_NONE) {
 2968              		.loc 1 371 35 is_stmt 0 view .LVU937
 2969 019a 2046     		mov	r0, r4
 2970 019c FFF7FEFF 		bl	lv_obj_get_scroll_snap_y
 2971              	.LVL345:
 372:../../Middlewares/LVGL/GUI/lvgl/src/indev/lv_indev_scroll.c ****             st = lv_obj_get_scroll_top(obj_act);
 2972              		.loc 1 372 9 is_stmt 1 view .LVU938
 372:../../Middlewares/LVGL/GUI/lvgl/src/indev/lv_indev_scroll.c ****             st = lv_obj_get_scroll_top(obj_act);
 2973              		.loc 1 372 11 is_stmt 0 view .LVU939
 2974 01a0 0028     		cmp	r0, #0
 2975 01a2 3ED1     		bne	.L176
 373:../../Middlewares/LVGL/GUI/lvgl/src/indev/lv_indev_scroll.c ****             sb = lv_obj_get_scroll_bottom(obj_act);
 2976              		.loc 1 373 13 is_stmt 1 view .LVU940
 373:../../Middlewares/LVGL/GUI/lvgl/src/indev/lv_indev_scroll.c ****             sb = lv_obj_get_scroll_bottom(obj_act);
 2977              		.loc 1 373 18 is_stmt 0 view .LVU941
ARM GAS  C:\Users\28576\AppData\Local\Temp\ccZznpky.s 			page 89


 2978 01a4 2046     		mov	r0, r4
 2979              	.LVL346:
 373:../../Middlewares/LVGL/GUI/lvgl/src/indev/lv_indev_scroll.c ****             sb = lv_obj_get_scroll_bottom(obj_act);
 2980              		.loc 1 373 18 view .LVU942
 2981 01a6 FFF7FEFF 		bl	lv_obj_get_scroll_top
 2982              	.LVL347:
 2983 01aa 8046     		mov	r8, r0
 2984              	.LVL348:
 374:../../Middlewares/LVGL/GUI/lvgl/src/indev/lv_indev_scroll.c ****         }
 2985              		.loc 1 374 13 is_stmt 1 view .LVU943
 374:../../Middlewares/LVGL/GUI/lvgl/src/indev/lv_indev_scroll.c ****         }
 2986              		.loc 1 374 18 is_stmt 0 view .LVU944
 2987 01ac 2046     		mov	r0, r4
 2988              	.LVL349:
 374:../../Middlewares/LVGL/GUI/lvgl/src/indev/lv_indev_scroll.c ****         }
 2989              		.loc 1 374 18 view .LVU945
 2990 01ae FFF7FEFF 		bl	lv_obj_get_scroll_bottom
 2991              	.LVL350:
 2992              	.L177:
 391:../../Middlewares/LVGL/GUI/lvgl/src/indev/lv_indev_scroll.c ****            ((up_en    && obj_scroll_sum.y >=   scroll_limit) ||
 2993              		.loc 1 391 9 is_stmt 1 view .LVU946
 391:../../Middlewares/LVGL/GUI/lvgl/src/indev/lv_indev_scroll.c ****            ((up_en    && obj_scroll_sum.y >=   scroll_limit) ||
 2994              		.loc 1 391 11 is_stmt 0 view .LVU947
 2995 01b2 0028     		cmp	r0, #0
 2996 01b4 D8BF     		it	le
 2997 01b6 B8F1000F 		cmple	r8, #0
 2998 01ba 4DDD     		ble	.L180
 391:../../Middlewares/LVGL/GUI/lvgl/src/indev/lv_indev_scroll.c ****            ((up_en    && obj_scroll_sum.y >=   scroll_limit) ||
 2999              		.loc 1 391 32 discriminator 1 view .LVU948
 3000 01bc 5346     		mov	r3, r10
 3001 01be 13B1     		cbz	r3, .L181
 392:../../Middlewares/LVGL/GUI/lvgl/src/indev/lv_indev_scroll.c ****             (down_en  && obj_scroll_sum.y <= - scroll_limit))) {
 3002              		.loc 1 392 40 view .LVU949
 3003 01c0 0D9B     		ldr	r3, [sp, #52]
 392:../../Middlewares/LVGL/GUI/lvgl/src/indev/lv_indev_scroll.c ****             (down_en  && obj_scroll_sum.y <= - scroll_limit))) {
 3004              		.loc 1 392 23 view .LVU950
 3005 01c2 AB42     		cmp	r3, r5
 3006 01c4 45DA     		bge	.L210
 3007              	.L181:
 392:../../Middlewares/LVGL/GUI/lvgl/src/indev/lv_indev_scroll.c ****             (down_en  && obj_scroll_sum.y <= - scroll_limit))) {
 3008              		.loc 1 392 62 discriminator 1 view .LVU951
 3009 01c6 059B     		ldr	r3, [sp, #20]
 3010 01c8 002B     		cmp	r3, #0
 3011 01ca 45D0     		beq	.L180
 393:../../Middlewares/LVGL/GUI/lvgl/src/indev/lv_indev_scroll.c ****             obj_candidate = obj_act;
 3012              		.loc 1 393 46 view .LVU952
 3013 01cc 6B42     		rsbs	r3, r5, #0
 393:../../Middlewares/LVGL/GUI/lvgl/src/indev/lv_indev_scroll.c ****             obj_candidate = obj_act;
 3014              		.loc 1 393 23 view .LVU953
 3015 01ce 0D9A     		ldr	r2, [sp, #52]
 3016 01d0 9A42     		cmp	r2, r3
 3017 01d2 41DC     		bgt	.L180
 394:../../Middlewares/LVGL/GUI/lvgl/src/indev/lv_indev_scroll.c ****             dir_candidate = LV_DIR_VER;
 3018              		.loc 1 394 27 view .LVU954
 3019 01d4 0694     		str	r4, [sp, #24]
 3020              	.LVL351:
 395:../../Middlewares/LVGL/GUI/lvgl/src/indev/lv_indev_scroll.c ****         }
ARM GAS  C:\Users\28576\AppData\Local\Temp\ccZznpky.s 			page 90


 3021              		.loc 1 395 27 view .LVU955
 3022 01d6 0C23     		movs	r3, #12
 3023 01d8 0793     		str	r3, [sp, #28]
 3024              	.LVL352:
 395:../../Middlewares/LVGL/GUI/lvgl/src/indev/lv_indev_scroll.c ****         }
 3025              		.loc 1 395 27 view .LVU956
 3026 01da 3DE0     		b	.L180
 3027              	.LVL353:
 3028              	.L202:
 344:../../Middlewares/LVGL/GUI/lvgl/src/indev/lv_indev_scroll.c ****         if((scroll_dir & LV_DIR_RIGHT) == 0) right_en = false;
 3029              		.loc 1 344 53 discriminator 1 view .LVU957
 3030 01dc 4FF00009 		mov	r9, #0
 3031 01e0 BFE7     		b	.L168
 3032              	.LVL354:
 3033              	.L203:
 345:../../Middlewares/LVGL/GUI/lvgl/src/indev/lv_indev_scroll.c ****         if((scroll_dir & LV_DIR_TOP) == 0) up_en = false;
 3034              		.loc 1 345 55 discriminator 1 view .LVU958
 3035 01e2 0023     		movs	r3, #0
 3036 01e4 0493     		str	r3, [sp, #16]
 3037 01e6 C1E7     		b	.L169
 3038              	.LVL355:
 3039              	.L204:
 346:../../Middlewares/LVGL/GUI/lvgl/src/indev/lv_indev_scroll.c ****         if((scroll_dir & LV_DIR_BOTTOM) == 0) down_en = false;
 3040              		.loc 1 346 50 discriminator 1 view .LVU959
 3041 01e8 0023     		movs	r3, #0
 3042 01ea 9A46     		mov	r10, r3
 3043 01ec C3E7     		b	.L170
 3044              	.LVL356:
 3045              	.L205:
 347:../../Middlewares/LVGL/GUI/lvgl/src/indev/lv_indev_scroll.c **** 
 3046              		.loc 1 347 55 discriminator 1 view .LVU960
 3047 01ee 0023     		movs	r3, #0
 3048 01f0 0593     		str	r3, [sp, #20]
 3049 01f2 C5E7     		b	.L171
 3050              	.LVL357:
 3051              	.L172:
 3052              	.LBB134:
 358:../../Middlewares/LVGL/GUI/lvgl/src/indev/lv_indev_scroll.c ****             bool has_end_snap;
 3053              		.loc 1 358 13 is_stmt 1 view .LVU961
 359:../../Middlewares/LVGL/GUI/lvgl/src/indev/lv_indev_scroll.c ****             has_more_snap_points(obj_act, LV_DIR_HOR, &has_start_snap, &has_end_snap);
 3054              		.loc 1 359 13 view .LVU962
 360:../../Middlewares/LVGL/GUI/lvgl/src/indev/lv_indev_scroll.c **** 
 3055              		.loc 1 360 13 view .LVU963
 3056 01f4 0DF12703 		add	r3, sp, #39
 3057 01f8 0DF12602 		add	r2, sp, #38
 3058 01fc 0321     		movs	r1, #3
 3059 01fe 2046     		mov	r0, r4
 3060              	.LVL358:
 360:../../Middlewares/LVGL/GUI/lvgl/src/indev/lv_indev_scroll.c **** 
 3061              		.loc 1 360 13 is_stmt 0 view .LVU964
 3062 0200 FFF7FEFF 		bl	has_more_snap_points
 3063              	.LVL359:
 364:../../Middlewares/LVGL/GUI/lvgl/src/indev/lv_indev_scroll.c ****             sr = has_end_snap ? 1 : -1;
 3064              		.loc 1 364 13 is_stmt 1 view .LVU965
 364:../../Middlewares/LVGL/GUI/lvgl/src/indev/lv_indev_scroll.c ****             sr = has_end_snap ? 1 : -1;
 3065              		.loc 1 364 33 is_stmt 0 view .LVU966
 3066 0204 9DF82630 		ldrb	r3, [sp, #38]	@ zero_extendqisi2
ARM GAS  C:\Users\28576\AppData\Local\Temp\ccZznpky.s 			page 91


 364:../../Middlewares/LVGL/GUI/lvgl/src/indev/lv_indev_scroll.c ****             sr = has_end_snap ? 1 : -1;
 3067              		.loc 1 364 37 view .LVU967
 3068 0208 2BB1     		cbz	r3, .L206
 364:../../Middlewares/LVGL/GUI/lvgl/src/indev/lv_indev_scroll.c ****             sr = has_end_snap ? 1 : -1;
 3069              		.loc 1 364 16 discriminator 1 view .LVU968
 3070 020a 0127     		movs	r7, #1
 3071              	.L174:
 3072              	.LVL360:
 365:../../Middlewares/LVGL/GUI/lvgl/src/indev/lv_indev_scroll.c ****         }
 3073              		.loc 1 365 13 is_stmt 1 view .LVU969
 365:../../Middlewares/LVGL/GUI/lvgl/src/indev/lv_indev_scroll.c ****         }
 3074              		.loc 1 365 31 is_stmt 0 view .LVU970
 3075 020c 9DF82730 		ldrb	r3, [sp, #39]	@ zero_extendqisi2
 365:../../Middlewares/LVGL/GUI/lvgl/src/indev/lv_indev_scroll.c ****         }
 3076              		.loc 1 365 35 view .LVU971
 3077 0210 23B1     		cbz	r3, .L207
 365:../../Middlewares/LVGL/GUI/lvgl/src/indev/lv_indev_scroll.c ****         }
 3078              		.loc 1 365 16 discriminator 1 view .LVU972
 3079 0212 0126     		movs	r6, #1
 3080 0214 C1E7     		b	.L173
 3081              	.LVL361:
 3082              	.L206:
 364:../../Middlewares/LVGL/GUI/lvgl/src/indev/lv_indev_scroll.c ****             sr = has_end_snap ? 1 : -1;
 3083              		.loc 1 364 16 discriminator 2 view .LVU973
 3084 0216 4FF0FF37 		mov	r7, #-1
 3085 021a F7E7     		b	.L174
 3086              	.LVL362:
 3087              	.L207:
 365:../../Middlewares/LVGL/GUI/lvgl/src/indev/lv_indev_scroll.c ****         }
 3088              		.loc 1 365 16 discriminator 2 view .LVU974
 3089 021c 4FF0FF36 		mov	r6, #-1
 3090 0220 BBE7     		b	.L173
 3091              	.LVL363:
 3092              	.L176:
 365:../../Middlewares/LVGL/GUI/lvgl/src/indev/lv_indev_scroll.c ****         }
 3093              		.loc 1 365 16 discriminator 2 view .LVU975
 3094              	.LBE134:
 3095              	.LBB135:
 377:../../Middlewares/LVGL/GUI/lvgl/src/indev/lv_indev_scroll.c ****             bool has_end_snap;
 3096              		.loc 1 377 13 is_stmt 1 view .LVU976
 378:../../Middlewares/LVGL/GUI/lvgl/src/indev/lv_indev_scroll.c ****             has_more_snap_points(obj_act, LV_DIR_VER, &has_start_snap, &has_end_snap);
 3097              		.loc 1 378 13 view .LVU977
 379:../../Middlewares/LVGL/GUI/lvgl/src/indev/lv_indev_scroll.c **** 
 3098              		.loc 1 379 13 view .LVU978
 3099 0222 0DF12703 		add	r3, sp, #39
 3100 0226 0DF12602 		add	r2, sp, #38
 3101 022a 0C21     		movs	r1, #12
 3102 022c 2046     		mov	r0, r4
 3103              	.LVL364:
 379:../../Middlewares/LVGL/GUI/lvgl/src/indev/lv_indev_scroll.c **** 
 3104              		.loc 1 379 13 is_stmt 0 view .LVU979
 3105 022e FFF7FEFF 		bl	has_more_snap_points
 3106              	.LVL365:
 383:../../Middlewares/LVGL/GUI/lvgl/src/indev/lv_indev_scroll.c ****             sb = has_end_snap ? 1 : -1;
 3107              		.loc 1 383 13 is_stmt 1 view .LVU980
 383:../../Middlewares/LVGL/GUI/lvgl/src/indev/lv_indev_scroll.c ****             sb = has_end_snap ? 1 : -1;
 3108              		.loc 1 383 33 is_stmt 0 view .LVU981
ARM GAS  C:\Users\28576\AppData\Local\Temp\ccZznpky.s 			page 92


 3109 0232 9DF82630 		ldrb	r3, [sp, #38]	@ zero_extendqisi2
 383:../../Middlewares/LVGL/GUI/lvgl/src/indev/lv_indev_scroll.c ****             sb = has_end_snap ? 1 : -1;
 3110              		.loc 1 383 37 view .LVU982
 3111 0236 33B1     		cbz	r3, .L208
 383:../../Middlewares/LVGL/GUI/lvgl/src/indev/lv_indev_scroll.c ****             sb = has_end_snap ? 1 : -1;
 3112              		.loc 1 383 16 discriminator 1 view .LVU983
 3113 0238 4FF00108 		mov	r8, #1
 3114              	.L178:
 3115              	.LVL366:
 384:../../Middlewares/LVGL/GUI/lvgl/src/indev/lv_indev_scroll.c ****         }
 3116              		.loc 1 384 13 is_stmt 1 view .LVU984
 384:../../Middlewares/LVGL/GUI/lvgl/src/indev/lv_indev_scroll.c ****         }
 3117              		.loc 1 384 31 is_stmt 0 view .LVU985
 3118 023c 9DF82730 		ldrb	r3, [sp, #39]	@ zero_extendqisi2
 384:../../Middlewares/LVGL/GUI/lvgl/src/indev/lv_indev_scroll.c ****         }
 3119              		.loc 1 384 35 view .LVU986
 3120 0240 23B1     		cbz	r3, .L209
 384:../../Middlewares/LVGL/GUI/lvgl/src/indev/lv_indev_scroll.c ****         }
 3121              		.loc 1 384 16 discriminator 1 view .LVU987
 3122 0242 0120     		movs	r0, #1
 3123 0244 B5E7     		b	.L177
 3124              	.LVL367:
 3125              	.L208:
 383:../../Middlewares/LVGL/GUI/lvgl/src/indev/lv_indev_scroll.c ****             sb = has_end_snap ? 1 : -1;
 3126              		.loc 1 383 16 discriminator 2 view .LVU988
 3127 0246 4FF0FF38 		mov	r8, #-1
 3128 024a F7E7     		b	.L178
 3129              	.LVL368:
 3130              	.L209:
 384:../../Middlewares/LVGL/GUI/lvgl/src/indev/lv_indev_scroll.c ****         }
 3131              		.loc 1 384 16 discriminator 2 view .LVU989
 3132 024c 4FF0FF30 		mov	r0, #-1
 3133 0250 AFE7     		b	.L177
 3134              	.LVL369:
 3135              	.L210:
 384:../../Middlewares/LVGL/GUI/lvgl/src/indev/lv_indev_scroll.c ****         }
 3136              		.loc 1 384 16 discriminator 2 view .LVU990
 3137              	.LBE135:
 394:../../Middlewares/LVGL/GUI/lvgl/src/indev/lv_indev_scroll.c ****             dir_candidate = LV_DIR_VER;
 3138              		.loc 1 394 27 view .LVU991
 3139 0252 0694     		str	r4, [sp, #24]
 3140              	.LVL370:
 395:../../Middlewares/LVGL/GUI/lvgl/src/indev/lv_indev_scroll.c ****         }
 3141              		.loc 1 395 27 view .LVU992
 3142 0254 0C23     		movs	r3, #12
 3143 0256 0793     		str	r3, [sp, #28]
 3144              	.LVL371:
 3145              	.L180:
 398:../../Middlewares/LVGL/GUI/lvgl/src/indev/lv_indev_scroll.c ****            ((left_en   && obj_scroll_sum.x >=   scroll_limit) ||
 3146              		.loc 1 398 9 is_stmt 1 view .LVU993
 398:../../Middlewares/LVGL/GUI/lvgl/src/indev/lv_indev_scroll.c ****            ((left_en   && obj_scroll_sum.x >=   scroll_limit) ||
 3147              		.loc 1 398 11 is_stmt 0 view .LVU994
 3148 0258 002E     		cmp	r6, #0
 3149 025a D8BF     		it	le
 3150 025c 002F     		cmple	r7, #0
 3151 025e 12DD     		ble	.L182
 398:../../Middlewares/LVGL/GUI/lvgl/src/indev/lv_indev_scroll.c ****            ((left_en   && obj_scroll_sum.x >=   scroll_limit) ||
ARM GAS  C:\Users\28576\AppData\Local\Temp\ccZznpky.s 			page 93


 3152              		.loc 1 398 32 discriminator 1 view .LVU995
 3153 0260 B9F1000F 		cmp	r9, #0
 3154 0264 02D0     		beq	.L183
 399:../../Middlewares/LVGL/GUI/lvgl/src/indev/lv_indev_scroll.c ****             (right_en  && obj_scroll_sum.x <= - scroll_limit))) {
 3155              		.loc 1 399 41 view .LVU996
 3156 0266 0C9B     		ldr	r3, [sp, #48]
 399:../../Middlewares/LVGL/GUI/lvgl/src/indev/lv_indev_scroll.c ****             (right_en  && obj_scroll_sum.x <= - scroll_limit))) {
 3157              		.loc 1 399 24 view .LVU997
 3158 0268 AB42     		cmp	r3, r5
 3159 026a 09DA     		bge	.L212
 3160              	.L183:
 399:../../Middlewares/LVGL/GUI/lvgl/src/indev/lv_indev_scroll.c ****             (right_en  && obj_scroll_sum.x <= - scroll_limit))) {
 3161              		.loc 1 399 63 discriminator 1 view .LVU998
 3162 026c 049B     		ldr	r3, [sp, #16]
 3163 026e 53B1     		cbz	r3, .L182
 400:../../Middlewares/LVGL/GUI/lvgl/src/indev/lv_indev_scroll.c ****             obj_candidate = obj_act;
 3164              		.loc 1 400 47 view .LVU999
 3165 0270 6B42     		rsbs	r3, r5, #0
 400:../../Middlewares/LVGL/GUI/lvgl/src/indev/lv_indev_scroll.c ****             obj_candidate = obj_act;
 3166              		.loc 1 400 24 view .LVU1000
 3167 0272 0C9A     		ldr	r2, [sp, #48]
 3168 0274 9A42     		cmp	r2, r3
 3169 0276 06DC     		bgt	.L182
 401:../../Middlewares/LVGL/GUI/lvgl/src/indev/lv_indev_scroll.c ****             dir_candidate = LV_DIR_HOR;
 3170              		.loc 1 401 27 view .LVU1001
 3171 0278 0694     		str	r4, [sp, #24]
 3172              	.LVL372:
 402:../../Middlewares/LVGL/GUI/lvgl/src/indev/lv_indev_scroll.c ****         }
 3173              		.loc 1 402 27 view .LVU1002
 3174 027a 0323     		movs	r3, #3
 3175 027c 0793     		str	r3, [sp, #28]
 3176              	.LVL373:
 402:../../Middlewares/LVGL/GUI/lvgl/src/indev/lv_indev_scroll.c ****         }
 3177              		.loc 1 402 27 view .LVU1003
 3178 027e 02E0     		b	.L182
 3179              	.LVL374:
 3180              	.L212:
 401:../../Middlewares/LVGL/GUI/lvgl/src/indev/lv_indev_scroll.c ****             dir_candidate = LV_DIR_HOR;
 3181              		.loc 1 401 27 view .LVU1004
 3182 0280 0694     		str	r4, [sp, #24]
 3183              	.LVL375:
 402:../../Middlewares/LVGL/GUI/lvgl/src/indev/lv_indev_scroll.c ****         }
 3184              		.loc 1 402 27 view .LVU1005
 3185 0282 0323     		movs	r3, #3
 3186 0284 0793     		str	r3, [sp, #28]
 3187              	.LVL376:
 3188              	.L182:
 405:../../Middlewares/LVGL/GUI/lvgl/src/indev/lv_indev_scroll.c ****         if(sb <= 0) down_en = false;
 3189              		.loc 1 405 9 is_stmt 1 view .LVU1006
 405:../../Middlewares/LVGL/GUI/lvgl/src/indev/lv_indev_scroll.c ****         if(sb <= 0) down_en = false;
 3190              		.loc 1 405 11 is_stmt 0 view .LVU1007
 3191 0286 B8F1000F 		cmp	r8, #0
 3192 028a 40DD     		ble	.L225
 3193              	.LVL377:
 3194              	.L184:
 406:../../Middlewares/LVGL/GUI/lvgl/src/indev/lv_indev_scroll.c ****         if(sl <= 0) left_en = false;
 3195              		.loc 1 406 9 is_stmt 1 view .LVU1008
ARM GAS  C:\Users\28576\AppData\Local\Temp\ccZznpky.s 			page 94


 406:../../Middlewares/LVGL/GUI/lvgl/src/indev/lv_indev_scroll.c ****         if(sl <= 0) left_en = false;
 3196              		.loc 1 406 11 is_stmt 0 view .LVU1009
 3197 028c 0028     		cmp	r0, #0
 3198 028e 41DD     		ble	.L226
 3199              	.LVL378:
 3200              	.L185:
 407:../../Middlewares/LVGL/GUI/lvgl/src/indev/lv_indev_scroll.c ****         if(sr <= 0) right_en = false;
 3201              		.loc 1 407 9 is_stmt 1 view .LVU1010
 407:../../Middlewares/LVGL/GUI/lvgl/src/indev/lv_indev_scroll.c ****         if(sr <= 0) right_en = false;
 3202              		.loc 1 407 11 is_stmt 0 view .LVU1011
 3203 0290 002F     		cmp	r7, #0
 3204 0292 42DD     		ble	.L227
 3205              	.LVL379:
 3206              	.L186:
 408:../../Middlewares/LVGL/GUI/lvgl/src/indev/lv_indev_scroll.c **** 
 3207              		.loc 1 408 9 is_stmt 1 view .LVU1012
 408:../../Middlewares/LVGL/GUI/lvgl/src/indev/lv_indev_scroll.c **** 
 3208              		.loc 1 408 11 is_stmt 0 view .LVU1013
 3209 0294 002E     		cmp	r6, #0
 3210 0296 43DD     		ble	.L228
 3211              	.LVL380:
 3212              	.L187:
 411:../../Middlewares/LVGL/GUI/lvgl/src/indev/lv_indev_scroll.c ****            (right_en && obj_scroll_sum.x <= - scroll_limit) ||
 3213              		.loc 1 411 9 is_stmt 1 view .LVU1014
 411:../../Middlewares/LVGL/GUI/lvgl/src/indev/lv_indev_scroll.c ****            (right_en && obj_scroll_sum.x <= - scroll_limit) ||
 3214              		.loc 1 411 11 is_stmt 0 view .LVU1015
 3215 0298 B9F1000F 		cmp	r9, #0
 3216 029c 02D0     		beq	.L188
 411:../../Middlewares/LVGL/GUI/lvgl/src/indev/lv_indev_scroll.c ****            (right_en && obj_scroll_sum.x <= - scroll_limit) ||
 3217              		.loc 1 411 39 discriminator 1 view .LVU1016
 3218 029e 0C9B     		ldr	r3, [sp, #48]
 411:../../Middlewares/LVGL/GUI/lvgl/src/indev/lv_indev_scroll.c ****            (right_en && obj_scroll_sum.x <= - scroll_limit) ||
 3219              		.loc 1 411 22 discriminator 1 view .LVU1017
 3220 02a0 AB42     		cmp	r3, r5
 3221 02a2 40DA     		bge	.L189
 3222              	.L188:
 411:../../Middlewares/LVGL/GUI/lvgl/src/indev/lv_indev_scroll.c ****            (right_en && obj_scroll_sum.x <= - scroll_limit) ||
 3223              		.loc 1 411 61 discriminator 3 view .LVU1018
 3224 02a4 049B     		ldr	r3, [sp, #16]
 3225 02a6 1BB1     		cbz	r3, .L190
 412:../../Middlewares/LVGL/GUI/lvgl/src/indev/lv_indev_scroll.c ****            (up_en    && obj_scroll_sum.y >=   scroll_limit) ||
 3226              		.loc 1 412 45 view .LVU1019
 3227 02a8 6B42     		rsbs	r3, r5, #0
 412:../../Middlewares/LVGL/GUI/lvgl/src/indev/lv_indev_scroll.c ****            (up_en    && obj_scroll_sum.y >=   scroll_limit) ||
 3228              		.loc 1 412 22 view .LVU1020
 3229 02aa 0C9A     		ldr	r2, [sp, #48]
 3230 02ac 9A42     		cmp	r2, r3
 3231 02ae 3ADD     		ble	.L189
 3232              	.L190:
 412:../../Middlewares/LVGL/GUI/lvgl/src/indev/lv_indev_scroll.c ****            (up_en    && obj_scroll_sum.y >=   scroll_limit) ||
 3233              		.loc 1 412 61 discriminator 1 view .LVU1021
 3234 02b0 5346     		mov	r3, r10
 3235 02b2 13B1     		cbz	r3, .L191
 413:../../Middlewares/LVGL/GUI/lvgl/src/indev/lv_indev_scroll.c ****            (down_en  && obj_scroll_sum.y <= - scroll_limit)) {
 3236              		.loc 1 413 39 view .LVU1022
 3237 02b4 0D9B     		ldr	r3, [sp, #52]
 413:../../Middlewares/LVGL/GUI/lvgl/src/indev/lv_indev_scroll.c ****            (down_en  && obj_scroll_sum.y <= - scroll_limit)) {
ARM GAS  C:\Users\28576\AppData\Local\Temp\ccZznpky.s 			page 95


 3238              		.loc 1 413 22 view .LVU1023
 3239 02b6 AB42     		cmp	r3, r5
 3240 02b8 35DA     		bge	.L189
 3241              	.L191:
 413:../../Middlewares/LVGL/GUI/lvgl/src/indev/lv_indev_scroll.c ****            (down_en  && obj_scroll_sum.y <= - scroll_limit)) {
 3242              		.loc 1 413 61 discriminator 1 view .LVU1024
 3243 02ba 059B     		ldr	r3, [sp, #20]
 3244 02bc 1BB1     		cbz	r3, .L192
 414:../../Middlewares/LVGL/GUI/lvgl/src/indev/lv_indev_scroll.c ****             indev->pointer.scroll_dir = hor_en ? LV_DIR_HOR : LV_DIR_VER;
 3245              		.loc 1 414 45 view .LVU1025
 3246 02be 6B42     		rsbs	r3, r5, #0
 414:../../Middlewares/LVGL/GUI/lvgl/src/indev/lv_indev_scroll.c ****             indev->pointer.scroll_dir = hor_en ? LV_DIR_HOR : LV_DIR_VER;
 3247              		.loc 1 414 22 view .LVU1026
 3248 02c0 0D9A     		ldr	r2, [sp, #52]
 3249 02c2 9A42     		cmp	r2, r3
 3250 02c4 2FDD     		ble	.L189
 3251              	.L192:
 420:../../Middlewares/LVGL/GUI/lvgl/src/indev/lv_indev_scroll.c ****         if(lv_obj_has_flag(obj_act, LV_OBJ_FLAG_SCROLL_CHAIN_VER) == false && ver_en) break;
 3252              		.loc 1 420 9 is_stmt 1 view .LVU1027
 420:../../Middlewares/LVGL/GUI/lvgl/src/indev/lv_indev_scroll.c ****         if(lv_obj_has_flag(obj_act, LV_OBJ_FLAG_SCROLL_CHAIN_VER) == false && ver_en) break;
 3253              		.loc 1 420 12 is_stmt 0 view .LVU1028
 3254 02c6 4FF48071 		mov	r1, #256
 3255 02ca 2046     		mov	r0, r4
 3256              	.LVL381:
 420:../../Middlewares/LVGL/GUI/lvgl/src/indev/lv_indev_scroll.c ****         if(lv_obj_has_flag(obj_act, LV_OBJ_FLAG_SCROLL_CHAIN_VER) == false && ver_en) break;
 3257              		.loc 1 420 12 view .LVU1029
 3258 02cc FFF7FEFF 		bl	lv_obj_has_flag
 3259              	.LVL382:
 420:../../Middlewares/LVGL/GUI/lvgl/src/indev/lv_indev_scroll.c ****         if(lv_obj_has_flag(obj_act, LV_OBJ_FLAG_SCROLL_CHAIN_VER) == false && ver_en) break;
 3260              		.loc 1 420 11 discriminator 1 view .LVU1030
 3261 02d0 18B9     		cbnz	r0, .L194
 420:../../Middlewares/LVGL/GUI/lvgl/src/indev/lv_indev_scroll.c ****         if(lv_obj_has_flag(obj_act, LV_OBJ_FLAG_SCROLL_CHAIN_VER) == false && ver_en) break;
 3262              		.loc 1 420 76 discriminator 2 view .LVU1031
 3263 02d2 039B     		ldr	r3, [sp, #12]
 3264 02d4 002B     		cmp	r3, #0
 3265 02d6 7FF420AF 		bne	.L196
 3266              	.L194:
 421:../../Middlewares/LVGL/GUI/lvgl/src/indev/lv_indev_scroll.c **** 
 3267              		.loc 1 421 9 is_stmt 1 view .LVU1032
 421:../../Middlewares/LVGL/GUI/lvgl/src/indev/lv_indev_scroll.c **** 
 3268              		.loc 1 421 12 is_stmt 0 view .LVU1033
 3269 02da 4FF40071 		mov	r1, #512
 3270 02de 2046     		mov	r0, r4
 3271 02e0 FFF7FEFF 		bl	lv_obj_has_flag
 3272              	.LVL383:
 421:../../Middlewares/LVGL/GUI/lvgl/src/indev/lv_indev_scroll.c **** 
 3273              		.loc 1 421 11 discriminator 1 view .LVU1034
 3274 02e4 18B9     		cbnz	r0, .L195
 421:../../Middlewares/LVGL/GUI/lvgl/src/indev/lv_indev_scroll.c **** 
 3275              		.loc 1 421 76 discriminator 2 view .LVU1035
 3276 02e6 029B     		ldr	r3, [sp, #8]
 3277 02e8 002B     		cmp	r3, #0
 3278 02ea 7FF416AF 		bne	.L196
 3279              	.L195:
 424:../../Middlewares/LVGL/GUI/lvgl/src/indev/lv_indev_scroll.c ****     }
 3280              		.loc 1 424 9 is_stmt 1 view .LVU1036
 424:../../Middlewares/LVGL/GUI/lvgl/src/indev/lv_indev_scroll.c ****     }
ARM GAS  C:\Users\28576\AppData\Local\Temp\ccZznpky.s 			page 96


 3281              		.loc 1 424 19 is_stmt 0 view .LVU1037
 3282 02ee 2046     		mov	r0, r4
 3283 02f0 FFF7FEFF 		bl	lv_obj_get_parent
 3284              	.LVL384:
 3285 02f4 0446     		mov	r4, r0
 3286              	.LVL385:
 3287              	.L155:
 424:../../Middlewares/LVGL/GUI/lvgl/src/indev/lv_indev_scroll.c ****     }
 3288              		.loc 1 424 19 view .LVU1038
 3289              	.LBE136:
 288:../../Middlewares/LVGL/GUI/lvgl/src/indev/lv_indev_scroll.c ****         /*Get the transformed scroll_sum with this object*/
 3290              		.loc 1 288 11 is_stmt 1 view .LVU1039
 3291 02f6 002C     		cmp	r4, #0
 3292 02f8 3FF40FAF 		beq	.L196
 3293              	.LBB137:
 290:../../Middlewares/LVGL/GUI/lvgl/src/indev/lv_indev_scroll.c ****         int32_t scale_x = 256;
 3294              		.loc 1 290 9 view .LVU1040
 3295              	.LVL386:
 291:../../Middlewares/LVGL/GUI/lvgl/src/indev/lv_indev_scroll.c ****         int32_t scale_y = 256;
 3296              		.loc 1 291 9 view .LVU1041
 292:../../Middlewares/LVGL/GUI/lvgl/src/indev/lv_indev_scroll.c ****         lv_point_t pivot = { 0, 0 };
 3297              		.loc 1 292 9 view .LVU1042
 293:../../Middlewares/LVGL/GUI/lvgl/src/indev/lv_indev_scroll.c ****         lv_obj_t * parent = obj_act;
 3298              		.loc 1 293 9 view .LVU1043
 293:../../Middlewares/LVGL/GUI/lvgl/src/indev/lv_indev_scroll.c ****         lv_obj_t * parent = obj_act;
 3299              		.loc 1 293 20 is_stmt 0 view .LVU1044
 3300 02fc 0021     		movs	r1, #0
 3301 02fe 0A91     		str	r1, [sp, #40]
 3302 0300 0B91     		str	r1, [sp, #44]
 294:../../Middlewares/LVGL/GUI/lvgl/src/indev/lv_indev_scroll.c ****         while(parent) {
 3303              		.loc 1 294 9 is_stmt 1 view .LVU1045
 3304              	.LVL387:
 295:../../Middlewares/LVGL/GUI/lvgl/src/indev/lv_indev_scroll.c ****             angle += lv_obj_get_style_transform_rotation(parent, 0);
 3305              		.loc 1 295 9 view .LVU1046
 294:../../Middlewares/LVGL/GUI/lvgl/src/indev/lv_indev_scroll.c ****         while(parent) {
 3306              		.loc 1 294 20 is_stmt 0 view .LVU1047
 3307 0302 A146     		mov	r9, r4
 292:../../Middlewares/LVGL/GUI/lvgl/src/indev/lv_indev_scroll.c ****         lv_point_t pivot = { 0, 0 };
 3308              		.loc 1 292 17 view .LVU1048
 3309 0304 4FF48076 		mov	r6, #256
 291:../../Middlewares/LVGL/GUI/lvgl/src/indev/lv_indev_scroll.c ****         int32_t scale_y = 256;
 3310              		.loc 1 291 17 view .LVU1049
 3311 0308 B246     		mov	r10, r6
 290:../../Middlewares/LVGL/GUI/lvgl/src/indev/lv_indev_scroll.c ****         int32_t scale_x = 256;
 3312              		.loc 1 290 17 view .LVU1050
 3313 030a 8846     		mov	r8, r1
 295:../../Middlewares/LVGL/GUI/lvgl/src/indev/lv_indev_scroll.c ****             angle += lv_obj_get_style_transform_rotation(parent, 0);
 3314              		.loc 1 295 14 view .LVU1051
 3315 030c B9E6     		b	.L156
 3316              	.LVL388:
 3317              	.L225:
 405:../../Middlewares/LVGL/GUI/lvgl/src/indev/lv_indev_scroll.c ****         if(sb <= 0) down_en = false;
 3318              		.loc 1 405 27 discriminator 1 view .LVU1052
 3319 030e 0023     		movs	r3, #0
 3320 0310 9A46     		mov	r10, r3
 3321              	.LVL389:
 405:../../Middlewares/LVGL/GUI/lvgl/src/indev/lv_indev_scroll.c ****         if(sb <= 0) down_en = false;
ARM GAS  C:\Users\28576\AppData\Local\Temp\ccZznpky.s 			page 97


 3322              		.loc 1 405 27 discriminator 1 view .LVU1053
 3323 0312 BBE7     		b	.L184
 3324              	.LVL390:
 3325              	.L226:
 406:../../Middlewares/LVGL/GUI/lvgl/src/indev/lv_indev_scroll.c ****         if(sl <= 0) left_en = false;
 3326              		.loc 1 406 29 discriminator 1 view .LVU1054
 3327 0314 0023     		movs	r3, #0
 3328 0316 0593     		str	r3, [sp, #20]
 3329              	.LVL391:
 406:../../Middlewares/LVGL/GUI/lvgl/src/indev/lv_indev_scroll.c ****         if(sl <= 0) left_en = false;
 3330              		.loc 1 406 29 discriminator 1 view .LVU1055
 3331 0318 BAE7     		b	.L185
 3332              	.LVL392:
 3333              	.L227:
 407:../../Middlewares/LVGL/GUI/lvgl/src/indev/lv_indev_scroll.c ****         if(sr <= 0) right_en = false;
 3334              		.loc 1 407 29 discriminator 1 view .LVU1056
 3335 031a 4FF00009 		mov	r9, #0
 3336              	.LVL393:
 407:../../Middlewares/LVGL/GUI/lvgl/src/indev/lv_indev_scroll.c ****         if(sr <= 0) right_en = false;
 3337              		.loc 1 407 29 discriminator 1 view .LVU1057
 3338 031e B9E7     		b	.L186
 3339              	.LVL394:
 3340              	.L228:
 408:../../Middlewares/LVGL/GUI/lvgl/src/indev/lv_indev_scroll.c **** 
 3341              		.loc 1 408 30 discriminator 1 view .LVU1058
 3342 0320 0023     		movs	r3, #0
 3343 0322 0493     		str	r3, [sp, #16]
 3344              	.LVL395:
 408:../../Middlewares/LVGL/GUI/lvgl/src/indev/lv_indev_scroll.c **** 
 3345              		.loc 1 408 30 discriminator 1 view .LVU1059
 3346 0324 B8E7     		b	.L187
 3347              	.LVL396:
 3348              	.L189:
 415:../../Middlewares/LVGL/GUI/lvgl/src/indev/lv_indev_scroll.c ****             break;
 3349              		.loc 1 415 13 is_stmt 1 view .LVU1060
 415:../../Middlewares/LVGL/GUI/lvgl/src/indev/lv_indev_scroll.c ****             break;
 3350              		.loc 1 415 61 is_stmt 0 view .LVU1061
 3351 0326 039B     		ldr	r3, [sp, #12]
 3352 0328 3BB1     		cbz	r3, .L218
 415:../../Middlewares/LVGL/GUI/lvgl/src/indev/lv_indev_scroll.c ****             break;
 3353              		.loc 1 415 61 discriminator 1 view .LVU1062
 3354 032a 0321     		movs	r1, #3
 3355              	.L193:
 415:../../Middlewares/LVGL/GUI/lvgl/src/indev/lv_indev_scroll.c ****             break;
 3356              		.loc 1 415 39 discriminator 4 view .LVU1063
 3357 032c 9BF8A820 		ldrb	r2, [fp, #168]	@ zero_extendqisi2
 3358 0330 61F30302 		bfi	r2, r1, #0, #4
 3359 0334 8BF8A820 		strb	r2, [fp, #168]
 416:../../Middlewares/LVGL/GUI/lvgl/src/indev/lv_indev_scroll.c ****         }
 3360              		.loc 1 416 13 is_stmt 1 view .LVU1064
 3361 0338 EFE6     		b	.L196
 3362              	.L218:
 415:../../Middlewares/LVGL/GUI/lvgl/src/indev/lv_indev_scroll.c ****             break;
 3363              		.loc 1 415 61 is_stmt 0 discriminator 2 view .LVU1065
 3364 033a 0C21     		movs	r1, #12
 3365 033c F6E7     		b	.L193
 3366              	.LBE137:
ARM GAS  C:\Users\28576\AppData\Local\Temp\ccZznpky.s 			page 98


 3367              		.cfi_endproc
 3368              	.LFE176:
 3370              		.section	.text.lv_indev_scroll_handler,"ax",%progbits
 3371              		.align	1
 3372              		.global	lv_indev_scroll_handler
 3373              		.syntax unified
 3374              		.thumb
 3375              		.thumb_func
 3377              	lv_indev_scroll_handler:
 3378              	.LVL397:
 3379              	.LFB172:
  48:../../Middlewares/LVGL/GUI/lvgl/src/indev/lv_indev_scroll.c ****     if(indev->pointer.vect.x == 0 && indev->pointer.vect.y == 0) {
 3380              		.loc 1 48 1 is_stmt 1 view -0
 3381              		.cfi_startproc
 3382              		@ args = 0, pretend = 0, frame = 16
 3383              		@ frame_needed = 0, uses_anonymous_args = 0
  48:../../Middlewares/LVGL/GUI/lvgl/src/indev/lv_indev_scroll.c ****     if(indev->pointer.vect.x == 0 && indev->pointer.vect.y == 0) {
 3384              		.loc 1 48 1 is_stmt 0 view .LVU1067
 3385 0000 2DE9F047 		push	{r4, r5, r6, r7, r8, r9, r10, lr}
 3386              	.LCFI30:
 3387              		.cfi_def_cfa_offset 32
 3388              		.cfi_offset 4, -32
 3389              		.cfi_offset 5, -28
 3390              		.cfi_offset 6, -24
 3391              		.cfi_offset 7, -20
 3392              		.cfi_offset 8, -16
 3393              		.cfi_offset 9, -12
 3394              		.cfi_offset 10, -8
 3395              		.cfi_offset 14, -4
 3396 0004 86B0     		sub	sp, sp, #24
 3397              	.LCFI31:
 3398              		.cfi_def_cfa_offset 56
 3399 0006 8046     		mov	r8, r0
  49:../../Middlewares/LVGL/GUI/lvgl/src/indev/lv_indev_scroll.c ****         return;
 3400              		.loc 1 49 5 is_stmt 1 view .LVU1068
  49:../../Middlewares/LVGL/GUI/lvgl/src/indev/lv_indev_scroll.c ****         return;
 3401              		.loc 1 49 27 is_stmt 0 view .LVU1069
 3402 0008 836C     		ldr	r3, [r0, #72]
  49:../../Middlewares/LVGL/GUI/lvgl/src/indev/lv_indev_scroll.c ****         return;
 3403              		.loc 1 49 7 view .LVU1070
 3404 000a 1BB9     		cbnz	r3, .L230
  49:../../Middlewares/LVGL/GUI/lvgl/src/indev/lv_indev_scroll.c ****         return;
 3405              		.loc 1 49 57 discriminator 1 view .LVU1071
 3406 000c C36C     		ldr	r3, [r0, #76]
  49:../../Middlewares/LVGL/GUI/lvgl/src/indev/lv_indev_scroll.c ****         return;
 3407              		.loc 1 49 35 discriminator 1 view .LVU1072
 3408 000e 002B     		cmp	r3, #0
 3409 0010 00F0C580 		beq	.L229
 3410              	.L230:
  53:../../Middlewares/LVGL/GUI/lvgl/src/indev/lv_indev_scroll.c ****     /*If there is no scroll object yet try to find one*/
 3411              		.loc 1 53 5 is_stmt 1 view .LVU1073
  53:../../Middlewares/LVGL/GUI/lvgl/src/indev/lv_indev_scroll.c ****     /*If there is no scroll object yet try to find one*/
 3412              		.loc 1 53 16 is_stmt 0 view .LVU1074
 3413 0014 D8F87090 		ldr	r9, [r8, #112]
 3414              	.LVL398:
  55:../../Middlewares/LVGL/GUI/lvgl/src/indev/lv_indev_scroll.c ****         scroll_obj = lv_indev_find_scroll_obj(indev);
 3415              		.loc 1 55 5 is_stmt 1 view .LVU1075
ARM GAS  C:\Users\28576\AppData\Local\Temp\ccZznpky.s 			page 99


  55:../../Middlewares/LVGL/GUI/lvgl/src/indev/lv_indev_scroll.c ****         scroll_obj = lv_indev_find_scroll_obj(indev);
 3416              		.loc 1 55 7 is_stmt 0 view .LVU1076
 3417 0018 B9F1000F 		cmp	r9, #0
 3418 001c 05D0     		beq	.L249
 3419              	.LVL399:
 3420              	.L232:
  67:../../Middlewares/LVGL/GUI/lvgl/src/indev/lv_indev_scroll.c ****     int16_t scale_x = 256;
 3421              		.loc 1 67 5 is_stmt 1 view .LVU1077
  68:../../Middlewares/LVGL/GUI/lvgl/src/indev/lv_indev_scroll.c ****     int16_t scale_y = 256;
 3422              		.loc 1 68 5 view .LVU1078
  69:../../Middlewares/LVGL/GUI/lvgl/src/indev/lv_indev_scroll.c ****     lv_obj_t * parent = scroll_obj;
 3423              		.loc 1 69 5 view .LVU1079
  70:../../Middlewares/LVGL/GUI/lvgl/src/indev/lv_indev_scroll.c ****     while(parent) {
 3424              		.loc 1 70 5 view .LVU1080
  71:../../Middlewares/LVGL/GUI/lvgl/src/indev/lv_indev_scroll.c ****         angle += lv_obj_get_style_transform_rotation(parent, 0);
 3425              		.loc 1 71 5 view .LVU1081
  70:../../Middlewares/LVGL/GUI/lvgl/src/indev/lv_indev_scroll.c ****     while(parent) {
 3426              		.loc 1 70 16 is_stmt 0 view .LVU1082
 3427 001e 4D46     		mov	r5, r9
  69:../../Middlewares/LVGL/GUI/lvgl/src/indev/lv_indev_scroll.c ****     lv_obj_t * parent = scroll_obj;
 3428              		.loc 1 69 13 view .LVU1083
 3429 0020 4FF4807A 		mov	r10, #256
  68:../../Middlewares/LVGL/GUI/lvgl/src/indev/lv_indev_scroll.c ****     int16_t scale_y = 256;
 3430              		.loc 1 68 13 view .LVU1084
 3431 0024 5646     		mov	r6, r10
  67:../../Middlewares/LVGL/GUI/lvgl/src/indev/lv_indev_scroll.c ****     int16_t scale_x = 256;
 3432              		.loc 1 67 13 view .LVU1085
 3433 0026 0027     		movs	r7, #0
  71:../../Middlewares/LVGL/GUI/lvgl/src/indev/lv_indev_scroll.c ****         angle += lv_obj_get_style_transform_rotation(parent, 0);
 3434              		.loc 1 71 10 view .LVU1086
 3435 0028 40E0     		b	.L233
 3436              	.LVL400:
 3437              	.L249:
  56:../../Middlewares/LVGL/GUI/lvgl/src/indev/lv_indev_scroll.c ****         if(scroll_obj == NULL) return;
 3438              		.loc 1 56 9 is_stmt 1 view .LVU1087
  56:../../Middlewares/LVGL/GUI/lvgl/src/indev/lv_indev_scroll.c ****         if(scroll_obj == NULL) return;
 3439              		.loc 1 56 22 is_stmt 0 view .LVU1088
 3440 002a 4046     		mov	r0, r8
 3441              	.LVL401:
  56:../../Middlewares/LVGL/GUI/lvgl/src/indev/lv_indev_scroll.c ****         if(scroll_obj == NULL) return;
 3442              		.loc 1 56 22 view .LVU1089
 3443 002c FFF7FEFF 		bl	lv_indev_find_scroll_obj
 3444              	.LVL402:
  57:../../Middlewares/LVGL/GUI/lvgl/src/indev/lv_indev_scroll.c **** 
 3445              		.loc 1 57 9 is_stmt 1 view .LVU1090
  57:../../Middlewares/LVGL/GUI/lvgl/src/indev/lv_indev_scroll.c **** 
 3446              		.loc 1 57 11 is_stmt 0 view .LVU1091
 3447 0030 8146     		mov	r9, r0
 3448 0032 0028     		cmp	r0, #0
 3449 0034 00F0B380 		beq	.L229
  59:../../Middlewares/LVGL/GUI/lvgl/src/indev/lv_indev_scroll.c **** 
 3450              		.loc 1 59 9 is_stmt 1 view .LVU1092
 3451 0038 4046     		mov	r0, r8
 3452              	.LVL403:
  59:../../Middlewares/LVGL/GUI/lvgl/src/indev/lv_indev_scroll.c **** 
 3453              		.loc 1 59 9 is_stmt 0 view .LVU1093
 3454 003a FFF7FEFF 		bl	init_scroll_limits
ARM GAS  C:\Users\28576\AppData\Local\Temp\ccZznpky.s 			page 100


 3455              	.LVL404:
  61:../../Middlewares/LVGL/GUI/lvgl/src/indev/lv_indev_scroll.c ****         lv_obj_send_event(scroll_obj, LV_EVENT_SCROLL_BEGIN, NULL);
 3456              		.loc 1 61 9 is_stmt 1 view .LVU1094
 3457 003e 2021     		movs	r1, #32
 3458 0040 D8F86800 		ldr	r0, [r8, #104]
 3459 0044 FFF7FEFF 		bl	lv_obj_remove_state
 3460              	.LVL405:
  62:../../Middlewares/LVGL/GUI/lvgl/src/indev/lv_indev_scroll.c ****         if(indev->reset_query) return;
 3461              		.loc 1 62 9 view .LVU1095
 3462 0048 0022     		movs	r2, #0
 3463 004a 0C21     		movs	r1, #12
 3464 004c 4846     		mov	r0, r9
 3465 004e FFF7FEFF 		bl	lv_obj_send_event
 3466              	.LVL406:
  63:../../Middlewares/LVGL/GUI/lvgl/src/indev/lv_indev_scroll.c ****     }
 3467              		.loc 1 63 9 view .LVU1096
  63:../../Middlewares/LVGL/GUI/lvgl/src/indev/lv_indev_scroll.c ****     }
 3468              		.loc 1 63 12 is_stmt 0 view .LVU1097
 3469 0052 98F80B30 		ldrb	r3, [r8, #11]	@ zero_extendqisi2
  63:../../Middlewares/LVGL/GUI/lvgl/src/indev/lv_indev_scroll.c ****     }
 3470              		.loc 1 63 11 view .LVU1098
 3471 0056 13F0020F 		tst	r3, #2
 3472 005a E0D0     		beq	.L232
 3473 005c 9FE0     		b	.L229
 3474              	.LVL407:
 3475              	.L234:
 3476              	.LBB138:
  72:../../Middlewares/LVGL/GUI/lvgl/src/indev/lv_indev_scroll.c ****         int32_t zoom_act_x = lv_obj_get_style_transform_scale_x_safe(parent, 0);
 3477              		.loc 1 72 9 is_stmt 1 view .LVU1099
 3478              	.LBB139:
 3479              	.LBI139:
 124:../../Middlewares/LVGL/GUI/lvgl/src/indev/../core/lv_obj_style_gen.h **** {
 3480              		.loc 2 124 23 view .LVU1100
 3481              	.LBB140:
 126:../../Middlewares/LVGL/GUI/lvgl/src/indev/../core/lv_obj_style_gen.h ****     return (int32_t)v.num;
 3482              		.loc 2 126 5 view .LVU1101
 126:../../Middlewares/LVGL/GUI/lvgl/src/indev/../core/lv_obj_style_gen.h ****     return (int32_t)v.num;
 3483              		.loc 2 126 26 is_stmt 0 view .LVU1102
 3484 005e 7022     		movs	r2, #112
 3485 0060 0021     		movs	r1, #0
 3486 0062 2846     		mov	r0, r5
 3487 0064 FFF7FEFF 		bl	lv_obj_get_style_prop
 3488              	.LVL408:
 3489 0068 0290     		str	r0, [sp, #8]
 127:../../Middlewares/LVGL/GUI/lvgl/src/indev/../core/lv_obj_style_gen.h **** }
 3490              		.loc 2 127 5 is_stmt 1 view .LVU1103
 3491              	.LVL409:
 127:../../Middlewares/LVGL/GUI/lvgl/src/indev/../core/lv_obj_style_gen.h **** }
 3492              		.loc 2 127 5 is_stmt 0 view .LVU1104
 3493              	.LBE140:
 3494              	.LBE139:
  72:../../Middlewares/LVGL/GUI/lvgl/src/indev/lv_indev_scroll.c ****         int32_t zoom_act_x = lv_obj_get_style_transform_scale_x_safe(parent, 0);
 3495              		.loc 1 72 15 discriminator 1 view .LVU1105
 3496 006a 3844     		add	r0, r0, r7
 3497 006c 07B2     		sxth	r7, r0
 3498              	.LVL410:
  73:../../Middlewares/LVGL/GUI/lvgl/src/indev/lv_indev_scroll.c ****         int32_t zoom_act_y = lv_obj_get_style_transform_scale_y_safe(parent, 0);
ARM GAS  C:\Users\28576\AppData\Local\Temp\ccZznpky.s 			page 101


 3499              		.loc 1 73 9 is_stmt 1 view .LVU1106
 3500              	.LBB141:
 3501              	.LBI141:
 290:../../Middlewares/LVGL/GUI/lvgl/src/indev/../core/lv_obj_style.h **** {
 3502              		.loc 3 290 23 view .LVU1107
 3503              	.LBB142:
 292:../../Middlewares/LVGL/GUI/lvgl/src/indev/../core/lv_obj_style.h ****     return scale > 0 ? scale : 1;
 3504              		.loc 3 292 5 view .LVU1108
 3505              	.LBB143:
 3506              	.LBI143:
 112:../../Middlewares/LVGL/GUI/lvgl/src/indev/../core/lv_obj_style_gen.h **** {
 3507              		.loc 2 112 23 view .LVU1109
 3508              	.LBB144:
 114:../../Middlewares/LVGL/GUI/lvgl/src/indev/../core/lv_obj_style_gen.h ****     return (int32_t)v.num;
 3509              		.loc 2 114 5 view .LVU1110
 114:../../Middlewares/LVGL/GUI/lvgl/src/indev/../core/lv_obj_style_gen.h ****     return (int32_t)v.num;
 3510              		.loc 2 114 26 is_stmt 0 view .LVU1111
 3511 006e 6E22     		movs	r2, #110
 3512 0070 0021     		movs	r1, #0
 3513 0072 2846     		mov	r0, r5
 3514 0074 FFF7FEFF 		bl	lv_obj_get_style_prop
 3515              	.LVL411:
 3516 0078 0446     		mov	r4, r0
 3517 007a 0290     		str	r0, [sp, #8]
 115:../../Middlewares/LVGL/GUI/lvgl/src/indev/../core/lv_obj_style_gen.h **** }
 3518              		.loc 2 115 5 is_stmt 1 view .LVU1112
 3519              	.LVL412:
 115:../../Middlewares/LVGL/GUI/lvgl/src/indev/../core/lv_obj_style_gen.h **** }
 3520              		.loc 2 115 5 is_stmt 0 view .LVU1113
 3521              	.LBE144:
 3522              	.LBE143:
 293:../../Middlewares/LVGL/GUI/lvgl/src/indev/../core/lv_obj_style.h **** }
 3523              		.loc 3 293 5 is_stmt 1 view .LVU1114
 293:../../Middlewares/LVGL/GUI/lvgl/src/indev/../core/lv_obj_style.h **** }
 3524              		.loc 3 293 30 is_stmt 0 view .LVU1115
 3525 007c 0128     		cmp	r0, #1
 3526 007e B8BF     		it	lt
 3527 0080 0124     		movlt	r4, #1
 3528              	.LVL413:
 293:../../Middlewares/LVGL/GUI/lvgl/src/indev/../core/lv_obj_style.h **** }
 3529              		.loc 3 293 30 view .LVU1116
 3530              	.LBE142:
 3531              	.LBE141:
  74:../../Middlewares/LVGL/GUI/lvgl/src/indev/lv_indev_scroll.c ****         scale_x = (scale_x * zoom_act_x) >> 8;
 3532              		.loc 1 74 9 is_stmt 1 view .LVU1117
 3533              	.LBB145:
 3534              	.LBI145:
 296:../../Middlewares/LVGL/GUI/lvgl/src/indev/../core/lv_obj_style.h **** {
 3535              		.loc 3 296 23 view .LVU1118
 3536              	.LBB146:
 298:../../Middlewares/LVGL/GUI/lvgl/src/indev/../core/lv_obj_style.h ****     return scale > 0 ? scale : 1;
 3537              		.loc 3 298 5 view .LVU1119
 3538              	.LBB147:
 3539              	.LBI147:
 118:../../Middlewares/LVGL/GUI/lvgl/src/indev/../core/lv_obj_style_gen.h **** {
 3540              		.loc 2 118 23 view .LVU1120
 3541              	.LBB148:
ARM GAS  C:\Users\28576\AppData\Local\Temp\ccZznpky.s 			page 102


 120:../../Middlewares/LVGL/GUI/lvgl/src/indev/../core/lv_obj_style_gen.h ****     return (int32_t)v.num;
 3542              		.loc 2 120 5 view .LVU1121
 120:../../Middlewares/LVGL/GUI/lvgl/src/indev/../core/lv_obj_style_gen.h ****     return (int32_t)v.num;
 3543              		.loc 2 120 26 is_stmt 0 view .LVU1122
 3544 0082 6F22     		movs	r2, #111
 3545 0084 0021     		movs	r1, #0
 3546 0086 2846     		mov	r0, r5
 3547              	.LVL414:
 120:../../Middlewares/LVGL/GUI/lvgl/src/indev/../core/lv_obj_style_gen.h ****     return (int32_t)v.num;
 3548              		.loc 2 120 26 view .LVU1123
 3549 0088 FFF7FEFF 		bl	lv_obj_get_style_prop
 3550              	.LVL415:
 120:../../Middlewares/LVGL/GUI/lvgl/src/indev/../core/lv_obj_style_gen.h ****     return (int32_t)v.num;
 3551              		.loc 2 120 26 view .LVU1124
 3552 008c 0290     		str	r0, [sp, #8]
 121:../../Middlewares/LVGL/GUI/lvgl/src/indev/../core/lv_obj_style_gen.h **** }
 3553              		.loc 2 121 5 is_stmt 1 view .LVU1125
 3554              	.LVL416:
 121:../../Middlewares/LVGL/GUI/lvgl/src/indev/../core/lv_obj_style_gen.h **** }
 3555              		.loc 2 121 5 is_stmt 0 view .LVU1126
 3556              	.LBE148:
 3557              	.LBE147:
 3558              		.loc 3 299 5 is_stmt 1 view .LVU1127
 3559              		.loc 3 299 30 is_stmt 0 view .LVU1128
 3560 008e 0128     		cmp	r0, #1
 3561 0090 B8BF     		it	lt
 3562 0092 0120     		movlt	r0, #1
 3563              	.LVL417:
 3564              		.loc 3 299 30 view .LVU1129
 3565              	.LBE146:
 3566              	.LBE145:
  75:../../Middlewares/LVGL/GUI/lvgl/src/indev/lv_indev_scroll.c ****         scale_y = (scale_y * zoom_act_y) >> 8;
 3567              		.loc 1 75 9 is_stmt 1 view .LVU1130
  75:../../Middlewares/LVGL/GUI/lvgl/src/indev/lv_indev_scroll.c ****         scale_y = (scale_y * zoom_act_y) >> 8;
 3568              		.loc 1 75 28 is_stmt 0 view .LVU1131
 3569 0094 06FB04F4 		mul	r4, r6, r4
 3570              	.LVL418:
  75:../../Middlewares/LVGL/GUI/lvgl/src/indev/lv_indev_scroll.c ****         scale_y = (scale_y * zoom_act_y) >> 8;
 3571              		.loc 1 75 17 view .LVU1132
 3572 0098 44F30F26 		sbfx	r6, r4, #8, #16
 3573              	.LVL419:
  76:../../Middlewares/LVGL/GUI/lvgl/src/indev/lv_indev_scroll.c ****         parent = lv_obj_get_parent(parent);
 3574              		.loc 1 76 9 is_stmt 1 view .LVU1133
  76:../../Middlewares/LVGL/GUI/lvgl/src/indev/lv_indev_scroll.c ****         parent = lv_obj_get_parent(parent);
 3575              		.loc 1 76 28 is_stmt 0 view .LVU1134
 3576 009c 00FB0AF3 		mul	r3, r0, r10
  76:../../Middlewares/LVGL/GUI/lvgl/src/indev/lv_indev_scroll.c ****         parent = lv_obj_get_parent(parent);
 3577              		.loc 1 76 17 view .LVU1135
 3578 00a0 43F30F2A 		sbfx	r10, r3, #8, #16
 3579              	.LVL420:
  77:../../Middlewares/LVGL/GUI/lvgl/src/indev/lv_indev_scroll.c ****     }
 3580              		.loc 1 77 9 is_stmt 1 view .LVU1136
  77:../../Middlewares/LVGL/GUI/lvgl/src/indev/lv_indev_scroll.c ****     }
 3581              		.loc 1 77 18 is_stmt 0 view .LVU1137
 3582 00a4 2846     		mov	r0, r5
 3583              	.LVL421:
  77:../../Middlewares/LVGL/GUI/lvgl/src/indev/lv_indev_scroll.c ****     }
ARM GAS  C:\Users\28576\AppData\Local\Temp\ccZznpky.s 			page 103


 3584              		.loc 1 77 18 view .LVU1138
 3585 00a6 FFF7FEFF 		bl	lv_obj_get_parent
 3586              	.LVL422:
  77:../../Middlewares/LVGL/GUI/lvgl/src/indev/lv_indev_scroll.c ****     }
 3587              		.loc 1 77 18 view .LVU1139
 3588 00aa 0546     		mov	r5, r0
 3589              	.LVL423:
 3590              	.L233:
  77:../../Middlewares/LVGL/GUI/lvgl/src/indev/lv_indev_scroll.c ****     }
 3591              		.loc 1 77 18 view .LVU1140
 3592              	.LBE138:
  71:../../Middlewares/LVGL/GUI/lvgl/src/indev/lv_indev_scroll.c ****         angle += lv_obj_get_style_transform_rotation(parent, 0);
 3593              		.loc 1 71 11 is_stmt 1 view .LVU1141
 3594 00ac 002D     		cmp	r5, #0
 3595 00ae D6D1     		bne	.L234
  80:../../Middlewares/LVGL/GUI/lvgl/src/indev/lv_indev_scroll.c ****         scale_x = 1;
 3596              		.loc 1 80 5 view .LVU1142
  80:../../Middlewares/LVGL/GUI/lvgl/src/indev/lv_indev_scroll.c ****         scale_x = 1;
 3597              		.loc 1 80 7 is_stmt 0 view .LVU1143
 3598 00b0 06B9     		cbnz	r6, .L235
  81:../../Middlewares/LVGL/GUI/lvgl/src/indev/lv_indev_scroll.c ****     }
 3599              		.loc 1 81 17 view .LVU1144
 3600 00b2 0126     		movs	r6, #1
 3601              	.LVL424:
 3602              	.L235:
  84:../../Middlewares/LVGL/GUI/lvgl/src/indev/lv_indev_scroll.c ****         scale_y = 1;
 3603              		.loc 1 84 5 is_stmt 1 view .LVU1145
  84:../../Middlewares/LVGL/GUI/lvgl/src/indev/lv_indev_scroll.c ****         scale_y = 1;
 3604              		.loc 1 84 7 is_stmt 0 view .LVU1146
 3605 00b4 BAF1000F 		cmp	r10, #0
 3606 00b8 01D1     		bne	.L236
  85:../../Middlewares/LVGL/GUI/lvgl/src/indev/lv_indev_scroll.c ****     }
 3607              		.loc 1 85 17 view .LVU1147
 3608 00ba 4FF0010A 		mov	r10, #1
 3609              	.LVL425:
 3610              	.L236:
  88:../../Middlewares/LVGL/GUI/lvgl/src/indev/lv_indev_scroll.c ****         angle = -angle;
 3611              		.loc 1 88 5 is_stmt 1 view .LVU1148
  88:../../Middlewares/LVGL/GUI/lvgl/src/indev/lv_indev_scroll.c ****         angle = -angle;
 3612              		.loc 1 88 7 is_stmt 0 view .LVU1149
 3613 00be B6F5807F 		cmp	r6, #256
 3614 00c2 08BF     		it	eq
 3615 00c4 002F     		cmpeq	r7, #0
 3616 00c6 02D1     		bne	.L237
  88:../../Middlewares/LVGL/GUI/lvgl/src/indev/lv_indev_scroll.c ****         angle = -angle;
 3617              		.loc 1 88 47 discriminator 1 view .LVU1150
 3618 00c8 BAF5807F 		cmp	r10, #256
 3619 00cc 13D0     		beq	.L238
 3620              	.L237:
 3621              	.LBB149:
  89:../../Middlewares/LVGL/GUI/lvgl/src/indev/lv_indev_scroll.c ****         scale_x = (256 * 256) / scale_x;
 3622              		.loc 1 89 9 is_stmt 1 view .LVU1151
  89:../../Middlewares/LVGL/GUI/lvgl/src/indev/lv_indev_scroll.c ****         scale_x = (256 * 256) / scale_x;
 3623              		.loc 1 89 15 is_stmt 0 view .LVU1152
 3624 00ce 7942     		rsbs	r1, r7, #0
 3625              	.LVL426:
  90:../../Middlewares/LVGL/GUI/lvgl/src/indev/lv_indev_scroll.c ****         scale_y = (256 * 256) / scale_y;
ARM GAS  C:\Users\28576\AppData\Local\Temp\ccZznpky.s 			page 104


 3626              		.loc 1 90 9 is_stmt 1 view .LVU1153
  90:../../Middlewares/LVGL/GUI/lvgl/src/indev/lv_indev_scroll.c ****         scale_y = (256 * 256) / scale_y;
 3627              		.loc 1 90 31 is_stmt 0 view .LVU1154
 3628 00d0 4FF48033 		mov	r3, #65536
 3629 00d4 93FBF6F2 		sdiv	r2, r3, r6
 3630              	.LVL427:
  91:../../Middlewares/LVGL/GUI/lvgl/src/indev/lv_indev_scroll.c ****         lv_point_t pivot = { 0, 0 };
 3631              		.loc 1 91 9 is_stmt 1 view .LVU1155
  91:../../Middlewares/LVGL/GUI/lvgl/src/indev/lv_indev_scroll.c ****         lv_point_t pivot = { 0, 0 };
 3632              		.loc 1 91 31 is_stmt 0 view .LVU1156
 3633 00d8 93FBFAF3 		sdiv	r3, r3, r10
 3634              	.LVL428:
  92:../../Middlewares/LVGL/GUI/lvgl/src/indev/lv_indev_scroll.c ****         lv_point_transform(&indev->pointer.vect, angle, scale_x, scale_y, &pivot, false);
 3635              		.loc 1 92 9 is_stmt 1 view .LVU1157
  92:../../Middlewares/LVGL/GUI/lvgl/src/indev/lv_indev_scroll.c ****         lv_point_transform(&indev->pointer.vect, angle, scale_x, scale_y, &pivot, false);
 3636              		.loc 1 92 20 is_stmt 0 view .LVU1158
 3637 00dc 0020     		movs	r0, #0
 3638 00de 0290     		str	r0, [sp, #8]
 3639 00e0 0390     		str	r0, [sp, #12]
  93:../../Middlewares/LVGL/GUI/lvgl/src/indev/lv_indev_scroll.c ****     }
 3640              		.loc 1 93 9 is_stmt 1 view .LVU1159
 3641 00e2 0190     		str	r0, [sp, #4]
 3642 00e4 02A8     		add	r0, sp, #8
 3643 00e6 0090     		str	r0, [sp]
 3644 00e8 1BB2     		sxth	r3, r3
  93:../../Middlewares/LVGL/GUI/lvgl/src/indev/lv_indev_scroll.c ****     }
 3645              		.loc 1 93 9 is_stmt 0 view .LVU1160
 3646 00ea 12B2     		sxth	r2, r2
  93:../../Middlewares/LVGL/GUI/lvgl/src/indev/lv_indev_scroll.c ****     }
 3647              		.loc 1 93 9 view .LVU1161
 3648 00ec 09B2     		sxth	r1, r1
  93:../../Middlewares/LVGL/GUI/lvgl/src/indev/lv_indev_scroll.c ****     }
 3649              		.loc 1 93 9 view .LVU1162
 3650 00ee 08F14800 		add	r0, r8, #72
 3651 00f2 FFF7FEFF 		bl	lv_point_transform
 3652              	.LVL429:
 3653              	.L238:
  93:../../Middlewares/LVGL/GUI/lvgl/src/indev/lv_indev_scroll.c ****     }
 3654              		.loc 1 93 9 view .LVU1163
 3655              	.LBE149:
  96:../../Middlewares/LVGL/GUI/lvgl/src/indev/lv_indev_scroll.c ****     int32_t diff_y = 0;
 3656              		.loc 1 96 5 is_stmt 1 view .LVU1164
  96:../../Middlewares/LVGL/GUI/lvgl/src/indev/lv_indev_scroll.c ****     int32_t diff_y = 0;
 3657              		.loc 1 96 13 is_stmt 0 view .LVU1165
 3658 00f6 0023     		movs	r3, #0
 3659 00f8 0593     		str	r3, [sp, #20]
  97:../../Middlewares/LVGL/GUI/lvgl/src/indev/lv_indev_scroll.c ****     if(indev->pointer.scroll_dir == LV_DIR_HOR) {
 3660              		.loc 1 97 5 is_stmt 1 view .LVU1166
  97:../../Middlewares/LVGL/GUI/lvgl/src/indev/lv_indev_scroll.c ****     if(indev->pointer.scroll_dir == LV_DIR_HOR) {
 3661              		.loc 1 97 13 is_stmt 0 view .LVU1167
 3662 00fa 0493     		str	r3, [sp, #16]
  98:../../Middlewares/LVGL/GUI/lvgl/src/indev/lv_indev_scroll.c ****         int32_t sr = lv_obj_get_scroll_right(scroll_obj);
 3663              		.loc 1 98 5 is_stmt 1 view .LVU1168
  98:../../Middlewares/LVGL/GUI/lvgl/src/indev/lv_indev_scroll.c ****         int32_t sr = lv_obj_get_scroll_right(scroll_obj);
 3664              		.loc 1 98 34 is_stmt 0 view .LVU1169
 3665 00fc 98F8A830 		ldrb	r3, [r8, #168]	@ zero_extendqisi2
 3666 0100 03F00F03 		and	r3, r3, #15
ARM GAS  C:\Users\28576\AppData\Local\Temp\ccZznpky.s 			page 105


  98:../../Middlewares/LVGL/GUI/lvgl/src/indev/lv_indev_scroll.c ****         int32_t sr = lv_obj_get_scroll_right(scroll_obj);
 3667              		.loc 1 98 7 view .LVU1170
 3668 0104 032B     		cmp	r3, #3
 3669 0106 4DD0     		beq	.L250
 3670              	.LBB150:
 104:../../Middlewares/LVGL/GUI/lvgl/src/indev/lv_indev_scroll.c ****         int32_t sb = lv_obj_get_scroll_bottom(scroll_obj);
 3671              		.loc 1 104 9 is_stmt 1 view .LVU1171
 104:../../Middlewares/LVGL/GUI/lvgl/src/indev/lv_indev_scroll.c ****         int32_t sb = lv_obj_get_scroll_bottom(scroll_obj);
 3672              		.loc 1 104 22 is_stmt 0 view .LVU1172
 3673 0108 4846     		mov	r0, r9
 3674 010a FFF7FEFF 		bl	lv_obj_get_scroll_top
 3675              	.LVL430:
 3676 010e 0446     		mov	r4, r0
 3677              	.LVL431:
 105:../../Middlewares/LVGL/GUI/lvgl/src/indev/lv_indev_scroll.c ****         diff_y = elastic_diff(scroll_obj, indev->pointer.vect.y, st, sb, LV_DIR_VER);
 3678              		.loc 1 105 9 is_stmt 1 view .LVU1173
 105:../../Middlewares/LVGL/GUI/lvgl/src/indev/lv_indev_scroll.c ****         diff_y = elastic_diff(scroll_obj, indev->pointer.vect.y, st, sb, LV_DIR_VER);
 3679              		.loc 1 105 22 is_stmt 0 view .LVU1174
 3680 0110 4846     		mov	r0, r9
 3681              	.LVL432:
 105:../../Middlewares/LVGL/GUI/lvgl/src/indev/lv_indev_scroll.c ****         diff_y = elastic_diff(scroll_obj, indev->pointer.vect.y, st, sb, LV_DIR_VER);
 3682              		.loc 1 105 22 view .LVU1175
 3683 0112 FFF7FEFF 		bl	lv_obj_get_scroll_bottom
 3684              	.LVL433:
 3685 0116 0346     		mov	r3, r0
 3686              	.LVL434:
 106:../../Middlewares/LVGL/GUI/lvgl/src/indev/lv_indev_scroll.c ****     }
 3687              		.loc 1 106 9 is_stmt 1 view .LVU1176
 106:../../Middlewares/LVGL/GUI/lvgl/src/indev/lv_indev_scroll.c ****     }
 3688              		.loc 1 106 18 is_stmt 0 view .LVU1177
 3689 0118 0C22     		movs	r2, #12
 3690 011a 0092     		str	r2, [sp]
 3691 011c 2246     		mov	r2, r4
 3692 011e D8F84C10 		ldr	r1, [r8, #76]
 3693 0122 4846     		mov	r0, r9
 3694              	.LVL435:
 106:../../Middlewares/LVGL/GUI/lvgl/src/indev/lv_indev_scroll.c ****     }
 3695              		.loc 1 106 18 view .LVU1178
 3696 0124 FFF7FEFF 		bl	elastic_diff
 3697              	.LVL436:
 106:../../Middlewares/LVGL/GUI/lvgl/src/indev/lv_indev_scroll.c ****     }
 3698              		.loc 1 106 16 discriminator 1 view .LVU1179
 3699 0128 0490     		str	r0, [sp, #16]
 3700              	.LVL437:
 3701              	.L240:
 106:../../Middlewares/LVGL/GUI/lvgl/src/indev/lv_indev_scroll.c ****     }
 3702              		.loc 1 106 16 discriminator 1 view .LVU1180
 3703              	.LBE150:
 109:../../Middlewares/LVGL/GUI/lvgl/src/indev/lv_indev_scroll.c ****     if((scroll_dir & LV_DIR_LEFT)   == 0 && diff_x > 0) diff_x = 0;
 3704              		.loc 1 109 5 is_stmt 1 view .LVU1181
 109:../../Middlewares/LVGL/GUI/lvgl/src/indev/lv_indev_scroll.c ****     if((scroll_dir & LV_DIR_LEFT)   == 0 && diff_x > 0) diff_x = 0;
 3705              		.loc 1 109 27 is_stmt 0 view .LVU1182
 3706 012a 4846     		mov	r0, r9
 3707 012c FFF7FEFF 		bl	lv_obj_get_scroll_dir
 3708              	.LVL438:
 110:../../Middlewares/LVGL/GUI/lvgl/src/indev/lv_indev_scroll.c ****     if((scroll_dir & LV_DIR_RIGHT)  == 0 && diff_x < 0) diff_x = 0;
 3709              		.loc 1 110 5 is_stmt 1 view .LVU1183
ARM GAS  C:\Users\28576\AppData\Local\Temp\ccZznpky.s 			page 106


 110:../../Middlewares/LVGL/GUI/lvgl/src/indev/lv_indev_scroll.c ****     if((scroll_dir & LV_DIR_RIGHT)  == 0 && diff_x < 0) diff_x = 0;
 3710              		.loc 1 110 7 is_stmt 0 view .LVU1184
 3711 0130 10F0010F 		tst	r0, #1
 3712 0134 04D1     		bne	.L241
 110:../../Middlewares/LVGL/GUI/lvgl/src/indev/lv_indev_scroll.c ****     if((scroll_dir & LV_DIR_RIGHT)  == 0 && diff_x < 0) diff_x = 0;
 3713              		.loc 1 110 52 discriminator 1 view .LVU1185
 3714 0136 059B     		ldr	r3, [sp, #20]
 110:../../Middlewares/LVGL/GUI/lvgl/src/indev/lv_indev_scroll.c ****     if((scroll_dir & LV_DIR_RIGHT)  == 0 && diff_x < 0) diff_x = 0;
 3715              		.loc 1 110 42 discriminator 1 view .LVU1186
 3716 0138 002B     		cmp	r3, #0
 3717 013a 01DD     		ble	.L241
 110:../../Middlewares/LVGL/GUI/lvgl/src/indev/lv_indev_scroll.c ****     if((scroll_dir & LV_DIR_RIGHT)  == 0 && diff_x < 0) diff_x = 0;
 3718              		.loc 1 110 57 is_stmt 1 discriminator 2 view .LVU1187
 110:../../Middlewares/LVGL/GUI/lvgl/src/indev/lv_indev_scroll.c ****     if((scroll_dir & LV_DIR_RIGHT)  == 0 && diff_x < 0) diff_x = 0;
 3719              		.loc 1 110 64 is_stmt 0 discriminator 2 view .LVU1188
 3720 013c 0023     		movs	r3, #0
 3721 013e 0593     		str	r3, [sp, #20]
 3722              	.L241:
 111:../../Middlewares/LVGL/GUI/lvgl/src/indev/lv_indev_scroll.c ****     if((scroll_dir & LV_DIR_TOP)    == 0 && diff_y > 0) diff_y = 0;
 3723              		.loc 1 111 5 is_stmt 1 view .LVU1189
 111:../../Middlewares/LVGL/GUI/lvgl/src/indev/lv_indev_scroll.c ****     if((scroll_dir & LV_DIR_TOP)    == 0 && diff_y > 0) diff_y = 0;
 3724              		.loc 1 111 7 is_stmt 0 view .LVU1190
 3725 0140 10F0020F 		tst	r0, #2
 3726 0144 02D1     		bne	.L242
 111:../../Middlewares/LVGL/GUI/lvgl/src/indev/lv_indev_scroll.c ****     if((scroll_dir & LV_DIR_TOP)    == 0 && diff_y > 0) diff_y = 0;
 3727              		.loc 1 111 52 discriminator 1 view .LVU1191
 3728 0146 059B     		ldr	r3, [sp, #20]
 111:../../Middlewares/LVGL/GUI/lvgl/src/indev/lv_indev_scroll.c ****     if((scroll_dir & LV_DIR_TOP)    == 0 && diff_y > 0) diff_y = 0;
 3729              		.loc 1 111 42 discriminator 1 view .LVU1192
 3730 0148 002B     		cmp	r3, #0
 3731 014a 3DDB     		blt	.L251
 3732              	.L242:
 112:../../Middlewares/LVGL/GUI/lvgl/src/indev/lv_indev_scroll.c ****     if((scroll_dir & LV_DIR_BOTTOM) == 0 && diff_y < 0) diff_y = 0;
 3733              		.loc 1 112 5 is_stmt 1 view .LVU1193
 112:../../Middlewares/LVGL/GUI/lvgl/src/indev/lv_indev_scroll.c ****     if((scroll_dir & LV_DIR_BOTTOM) == 0 && diff_y < 0) diff_y = 0;
 3734              		.loc 1 112 7 is_stmt 0 view .LVU1194
 3735 014c 10F0040F 		tst	r0, #4
 3736 0150 04D1     		bne	.L243
 112:../../Middlewares/LVGL/GUI/lvgl/src/indev/lv_indev_scroll.c ****     if((scroll_dir & LV_DIR_BOTTOM) == 0 && diff_y < 0) diff_y = 0;
 3737              		.loc 1 112 52 discriminator 1 view .LVU1195
 3738 0152 049B     		ldr	r3, [sp, #16]
 112:../../Middlewares/LVGL/GUI/lvgl/src/indev/lv_indev_scroll.c ****     if((scroll_dir & LV_DIR_BOTTOM) == 0 && diff_y < 0) diff_y = 0;
 3739              		.loc 1 112 42 discriminator 1 view .LVU1196
 3740 0154 002B     		cmp	r3, #0
 3741 0156 01DD     		ble	.L243
 112:../../Middlewares/LVGL/GUI/lvgl/src/indev/lv_indev_scroll.c ****     if((scroll_dir & LV_DIR_BOTTOM) == 0 && diff_y < 0) diff_y = 0;
 3742              		.loc 1 112 57 is_stmt 1 discriminator 2 view .LVU1197
 112:../../Middlewares/LVGL/GUI/lvgl/src/indev/lv_indev_scroll.c ****     if((scroll_dir & LV_DIR_BOTTOM) == 0 && diff_y < 0) diff_y = 0;
 3743              		.loc 1 112 64 is_stmt 0 discriminator 2 view .LVU1198
 3744 0158 0023     		movs	r3, #0
 3745 015a 0493     		str	r3, [sp, #16]
 3746              	.L243:
 113:../../Middlewares/LVGL/GUI/lvgl/src/indev/lv_indev_scroll.c **** 
 3747              		.loc 1 113 5 is_stmt 1 view .LVU1199
 113:../../Middlewares/LVGL/GUI/lvgl/src/indev/lv_indev_scroll.c **** 
 3748              		.loc 1 113 7 is_stmt 0 view .LVU1200
 3749 015c 10F0080F 		tst	r0, #8
ARM GAS  C:\Users\28576\AppData\Local\Temp\ccZznpky.s 			page 107


 3750 0160 02D1     		bne	.L244
 113:../../Middlewares/LVGL/GUI/lvgl/src/indev/lv_indev_scroll.c **** 
 3751              		.loc 1 113 52 discriminator 1 view .LVU1201
 3752 0162 049B     		ldr	r3, [sp, #16]
 113:../../Middlewares/LVGL/GUI/lvgl/src/indev/lv_indev_scroll.c **** 
 3753              		.loc 1 113 42 discriminator 1 view .LVU1202
 3754 0164 002B     		cmp	r3, #0
 3755 0166 32DB     		blt	.L252
 3756              	.L244:
 116:../../Middlewares/LVGL/GUI/lvgl/src/indev/lv_indev_scroll.c **** 
 3757              		.loc 1 116 5 is_stmt 1 view .LVU1203
 3758 0168 04AA     		add	r2, sp, #16
 3759 016a 05A9     		add	r1, sp, #20
 3760 016c 4046     		mov	r0, r8
 3761              	.LVL439:
 116:../../Middlewares/LVGL/GUI/lvgl/src/indev/lv_indev_scroll.c **** 
 3762              		.loc 1 116 5 is_stmt 0 view .LVU1204
 3763 016e FFF7FEFF 		bl	scroll_limit_diff
 3764              	.LVL440:
 118:../../Middlewares/LVGL/GUI/lvgl/src/indev/lv_indev_scroll.c ****     if(indev->reset_query) return;
 3765              		.loc 1 118 5 is_stmt 1 view .LVU1205
 3766 0172 049A     		ldr	r2, [sp, #16]
 3767 0174 0599     		ldr	r1, [sp, #20]
 3768 0176 4846     		mov	r0, r9
 3769 0178 FFF7FEFF 		bl	lv_obj_scroll_by_raw
 3770              	.LVL441:
 119:../../Middlewares/LVGL/GUI/lvgl/src/indev/lv_indev_scroll.c ****     indev->pointer.scroll_sum.x += diff_x;
 3771              		.loc 1 119 5 view .LVU1206
 119:../../Middlewares/LVGL/GUI/lvgl/src/indev/lv_indev_scroll.c ****     indev->pointer.scroll_sum.x += diff_x;
 3772              		.loc 1 119 8 is_stmt 0 view .LVU1207
 3773 017c 98F80B30 		ldrb	r3, [r8, #11]	@ zero_extendqisi2
 119:../../Middlewares/LVGL/GUI/lvgl/src/indev/lv_indev_scroll.c ****     indev->pointer.scroll_sum.x += diff_x;
 3774              		.loc 1 119 7 view .LVU1208
 3775 0180 13F0020F 		tst	r3, #2
 3776 0184 0BD1     		bne	.L229
 120:../../Middlewares/LVGL/GUI/lvgl/src/indev/lv_indev_scroll.c ****     indev->pointer.scroll_sum.y += diff_y;
 3777              		.loc 1 120 5 is_stmt 1 view .LVU1209
 120:../../Middlewares/LVGL/GUI/lvgl/src/indev/lv_indev_scroll.c ****     indev->pointer.scroll_sum.y += diff_y;
 3778              		.loc 1 120 30 is_stmt 0 view .LVU1210
 3779 0186 D8F85020 		ldr	r2, [r8, #80]
 120:../../Middlewares/LVGL/GUI/lvgl/src/indev/lv_indev_scroll.c ****     indev->pointer.scroll_sum.y += diff_y;
 3780              		.loc 1 120 33 view .LVU1211
 3781 018a 059B     		ldr	r3, [sp, #20]
 3782 018c 1344     		add	r3, r3, r2
 3783 018e C8F85030 		str	r3, [r8, #80]
 121:../../Middlewares/LVGL/GUI/lvgl/src/indev/lv_indev_scroll.c **** }
 3784              		.loc 1 121 5 is_stmt 1 view .LVU1212
 121:../../Middlewares/LVGL/GUI/lvgl/src/indev/lv_indev_scroll.c **** }
 3785              		.loc 1 121 30 is_stmt 0 view .LVU1213
 3786 0192 D8F85420 		ldr	r2, [r8, #84]
 121:../../Middlewares/LVGL/GUI/lvgl/src/indev/lv_indev_scroll.c **** }
 3787              		.loc 1 121 33 view .LVU1214
 3788 0196 049B     		ldr	r3, [sp, #16]
 3789 0198 1344     		add	r3, r3, r2
 3790 019a C8F85430 		str	r3, [r8, #84]
 3791              	.LVL442:
 3792              	.L229:
ARM GAS  C:\Users\28576\AppData\Local\Temp\ccZznpky.s 			page 108


 122:../../Middlewares/LVGL/GUI/lvgl/src/indev/lv_indev_scroll.c **** 
 3793              		.loc 1 122 1 view .LVU1215
 3794 019e 06B0     		add	sp, sp, #24
 3795              	.LCFI32:
 3796              		.cfi_remember_state
 3797              		.cfi_def_cfa_offset 32
 3798              		@ sp needed
 3799 01a0 BDE8F087 		pop	{r4, r5, r6, r7, r8, r9, r10, pc}
 3800              	.LVL443:
 3801              	.L250:
 3802              	.LCFI33:
 3803              		.cfi_restore_state
 3804              	.LBB151:
  99:../../Middlewares/LVGL/GUI/lvgl/src/indev/lv_indev_scroll.c ****         int32_t sl = lv_obj_get_scroll_left(scroll_obj);
 3805              		.loc 1 99 9 is_stmt 1 view .LVU1216
  99:../../Middlewares/LVGL/GUI/lvgl/src/indev/lv_indev_scroll.c ****         int32_t sl = lv_obj_get_scroll_left(scroll_obj);
 3806              		.loc 1 99 22 is_stmt 0 view .LVU1217
 3807 01a4 4846     		mov	r0, r9
 3808 01a6 FFF7FEFF 		bl	lv_obj_get_scroll_right
 3809              	.LVL444:
 3810 01aa 0446     		mov	r4, r0
 3811              	.LVL445:
 100:../../Middlewares/LVGL/GUI/lvgl/src/indev/lv_indev_scroll.c ****         diff_x = elastic_diff(scroll_obj, indev->pointer.vect.x, sl, sr, LV_DIR_HOR);
 3812              		.loc 1 100 9 is_stmt 1 view .LVU1218
 100:../../Middlewares/LVGL/GUI/lvgl/src/indev/lv_indev_scroll.c ****         diff_x = elastic_diff(scroll_obj, indev->pointer.vect.x, sl, sr, LV_DIR_HOR);
 3813              		.loc 1 100 22 is_stmt 0 view .LVU1219
 3814 01ac 4846     		mov	r0, r9
 3815              	.LVL446:
 100:../../Middlewares/LVGL/GUI/lvgl/src/indev/lv_indev_scroll.c ****         diff_x = elastic_diff(scroll_obj, indev->pointer.vect.x, sl, sr, LV_DIR_HOR);
 3816              		.loc 1 100 22 view .LVU1220
 3817 01ae FFF7FEFF 		bl	lv_obj_get_scroll_left
 3818              	.LVL447:
 3819 01b2 0246     		mov	r2, r0
 3820              	.LVL448:
 101:../../Middlewares/LVGL/GUI/lvgl/src/indev/lv_indev_scroll.c ****     }
 3821              		.loc 1 101 9 is_stmt 1 view .LVU1221
 101:../../Middlewares/LVGL/GUI/lvgl/src/indev/lv_indev_scroll.c ****     }
 3822              		.loc 1 101 18 is_stmt 0 view .LVU1222
 3823 01b4 0323     		movs	r3, #3
 3824 01b6 0093     		str	r3, [sp]
 3825 01b8 2346     		mov	r3, r4
 3826 01ba D8F84810 		ldr	r1, [r8, #72]
 3827 01be 4846     		mov	r0, r9
 3828              	.LVL449:
 101:../../Middlewares/LVGL/GUI/lvgl/src/indev/lv_indev_scroll.c ****     }
 3829              		.loc 1 101 18 view .LVU1223
 3830 01c0 FFF7FEFF 		bl	elastic_diff
 3831              	.LVL450:
 101:../../Middlewares/LVGL/GUI/lvgl/src/indev/lv_indev_scroll.c ****     }
 3832              		.loc 1 101 16 discriminator 1 view .LVU1224
 3833 01c4 0590     		str	r0, [sp, #20]
 3834              	.LBE151:
 3835 01c6 B0E7     		b	.L240
 3836              	.LVL451:
 3837              	.L251:
 111:../../Middlewares/LVGL/GUI/lvgl/src/indev/lv_indev_scroll.c ****     if((scroll_dir & LV_DIR_TOP)    == 0 && diff_y > 0) diff_y = 0;
 3838              		.loc 1 111 57 is_stmt 1 discriminator 2 view .LVU1225
ARM GAS  C:\Users\28576\AppData\Local\Temp\ccZznpky.s 			page 109


 111:../../Middlewares/LVGL/GUI/lvgl/src/indev/lv_indev_scroll.c ****     if((scroll_dir & LV_DIR_TOP)    == 0 && diff_y > 0) diff_y = 0;
 3839              		.loc 1 111 64 is_stmt 0 discriminator 2 view .LVU1226
 3840 01c8 0023     		movs	r3, #0
 3841 01ca 0593     		str	r3, [sp, #20]
 3842 01cc BEE7     		b	.L242
 3843              	.L252:
 113:../../Middlewares/LVGL/GUI/lvgl/src/indev/lv_indev_scroll.c **** 
 3844              		.loc 1 113 57 is_stmt 1 discriminator 2 view .LVU1227
 113:../../Middlewares/LVGL/GUI/lvgl/src/indev/lv_indev_scroll.c **** 
 3845              		.loc 1 113 64 is_stmt 0 discriminator 2 view .LVU1228
 3846 01ce 0023     		movs	r3, #0
 3847 01d0 0493     		str	r3, [sp, #16]
 3848 01d2 C9E7     		b	.L244
 3849              		.cfi_endproc
 3850              	.LFE172:
 3852              		.text
 3853              	.Letext0:
 3854              		.file 4 "C:/Users/28576/AppData/Roaming/xPacks/@xpack-dev-tools/arm-none-eabi-gcc/15.2.1-1.1.1/.co
 3855              		.file 5 "C:/Users/28576/AppData/Roaming/xPacks/@xpack-dev-tools/arm-none-eabi-gcc/15.2.1-1.1.1/.co
 3856              		.file 6 "H:/STM32H7/RGB_LVGL/Middlewares/LVGL/GUI/lvgl/src/misc/lv_types.h"
 3857              		.file 7 "../../Middlewares/LVGL/GUI/lvgl/src/indev/../core/lv_obj_private.h"
 3858              		.file 8 "../../Middlewares/LVGL/GUI/lvgl/src/indev/lv_indev_private.h"
 3859              		.file 9 "H:/STM32H7/RGB_LVGL/Middlewares/LVGL/GUI/lvgl/src/misc/lv_anim.h"
 3860              		.file 10 "H:/STM32H7/RGB_LVGL/Middlewares/LVGL/GUI/lvgl/src/misc/lv_array.h"
 3861              		.file 11 "H:/STM32H7/RGB_LVGL/Middlewares/LVGL/GUI/lvgl/src/misc/lv_area.h"
 3862              		.file 12 "../../Middlewares/LVGL/GUI/lvgl/src/indev/../core/lv_obj_scroll.h"
 3863              		.file 13 "H:/STM32H7/RGB_LVGL/Middlewares/LVGL/GUI/lvgl/src/misc/lv_color.h"
 3864              		.file 14 "H:/STM32H7/RGB_LVGL/Middlewares/LVGL/GUI/lvgl/src/misc/lv_style.h"
 3865              		.file 15 "H:/STM32H7/RGB_LVGL/Middlewares/LVGL/GUI/lvgl/src/misc/lv_event.h"
 3866              		.file 16 "H:/STM32H7/RGB_LVGL/Middlewares/LVGL/GUI/lvgl/src/indev/lv_indev.h"
 3867              		.file 17 "../../Middlewares/LVGL/GUI/lvgl/src/indev/../core/lv_obj.h"
 3868              		.file 18 "../../Middlewares/LVGL/GUI/lvgl/src/indev/../core/lv_obj_tree.h"
 3869              		.file 19 "../../Middlewares/LVGL/GUI/lvgl/src/indev/../core/lv_obj_scroll_private.h"
 3870              		.file 20 "../../Middlewares/LVGL/GUI/lvgl/src/indev/../core/lv_obj_event.h"
ARM GAS  C:\Users\28576\AppData\Local\Temp\ccZznpky.s 			page 110


DEFINED SYMBOLS
                            *ABS*:00000000 lv_indev_scroll.c
C:\Users\28576\AppData\Local\Temp\ccZznpky.s:20     .text.scroll_limit_diff:00000000 $t
C:\Users\28576\AppData\Local\Temp\ccZznpky.s:25     .text.scroll_limit_diff:00000000 scroll_limit_diff
C:\Users\28576\AppData\Local\Temp\ccZznpky.s:124    .text.find_snap_point_y:00000000 $t
C:\Users\28576\AppData\Local\Temp\ccZznpky.s:129    .text.find_snap_point_y:00000000 find_snap_point_y
C:\Users\28576\AppData\Local\Temp\ccZznpky.s:440    .text.find_snap_point_y:00000120 $d
C:\Users\28576\AppData\Local\Temp\ccZznpky.s:445    .text.find_snap_point_x:00000000 $t
C:\Users\28576\AppData\Local\Temp\ccZznpky.s:450    .text.find_snap_point_x:00000000 find_snap_point_x
C:\Users\28576\AppData\Local\Temp\ccZznpky.s:757    .text.find_snap_point_x:00000124 $d
C:\Users\28576\AppData\Local\Temp\ccZznpky.s:762    .text.init_scroll_limits:00000000 $t
C:\Users\28576\AppData\Local\Temp\ccZznpky.s:767    .text.init_scroll_limits:00000000 init_scroll_limits
C:\Users\28576\AppData\Local\Temp\ccZznpky.s:1123   .text.init_scroll_limits:000001c8 $d
C:\Users\28576\AppData\Local\Temp\ccZznpky.s:1128   .text.has_more_snap_points:00000000 $t
C:\Users\28576\AppData\Local\Temp\ccZznpky.s:1133   .text.has_more_snap_points:00000000 has_more_snap_points
C:\Users\28576\AppData\Local\Temp\ccZznpky.s:1611   .text.has_more_snap_points:0000017c $d
C:\Users\28576\AppData\Local\Temp\ccZznpky.s:1616   .text.elastic_diff:00000000 $t
C:\Users\28576\AppData\Local\Temp\ccZznpky.s:1621   .text.elastic_diff:00000000 elastic_diff
C:\Users\28576\AppData\Local\Temp\ccZznpky.s:1852   .text.lv_indev_scroll_throw_predict:00000000 $t
C:\Users\28576\AppData\Local\Temp\ccZznpky.s:1858   .text.lv_indev_scroll_throw_predict:00000000 lv_indev_scroll_throw_predict
C:\Users\28576\AppData\Local\Temp\ccZznpky.s:1936   .text.lv_indev_scroll_throw_predict:0000003c $d
C:\Users\28576\AppData\Local\Temp\ccZznpky.s:1941   .text.lv_indev_scroll_throw_handler:00000000 $t
C:\Users\28576\AppData\Local\Temp\ccZznpky.s:1947   .text.lv_indev_scroll_throw_handler:00000000 lv_indev_scroll_throw_handler
C:\Users\28576\AppData\Local\Temp\ccZznpky.s:2468   .text.lv_indev_scroll_throw_handler:00000254 $d
C:\Users\28576\AppData\Local\Temp\ccZznpky.s:2475   .text.lv_indev_scroll_get_snap_dist:00000000 $t
C:\Users\28576\AppData\Local\Temp\ccZznpky.s:2481   .text.lv_indev_scroll_get_snap_dist:00000000 lv_indev_scroll_get_snap_dist
C:\Users\28576\AppData\Local\Temp\ccZznpky.s:2526   .text.lv_indev_find_scroll_obj:00000000 $t
C:\Users\28576\AppData\Local\Temp\ccZznpky.s:2532   .text.lv_indev_find_scroll_obj:00000000 lv_indev_find_scroll_obj
C:\Users\28576\AppData\Local\Temp\ccZznpky.s:3371   .text.lv_indev_scroll_handler:00000000 $t
C:\Users\28576\AppData\Local\Temp\ccZznpky.s:3377   .text.lv_indev_scroll_handler:00000000 lv_indev_scroll_handler

UNDEFINED SYMBOLS
lv_obj_get_scroll_snap_y
lv_obj_get_style_prop
lv_obj_get_child_count
lv_area_get_height
lv_obj_has_flag_any
lv_obj_has_flag
lv_obj_get_scroll_snap_x
lv_area_get_width
lv_area_set
lv_obj_get_scroll_left
lv_obj_get_scroll_right
lv_obj_send_event
lv_obj_get_scroll_bottom
lv_obj_get_scroll_top
lv_obj_scroll_by_raw
lv_obj_scroll_by
lv_obj_get_parent
lv_point_transform
lv_obj_get_scroll_dir
lv_obj_remove_state
