ARM GAS  C:\Users\28576\AppData\Local\Temp\ccmR1ofs.s 			page 1


   1              		.cpu cortex-m7
   2              		.arch armv7e-m
   3              		.fpu fpv5-d16
   4              		.eabi_attribute 28, 1
   5              		.eabi_attribute 20, 1
   6              		.eabi_attribute 21, 1
   7              		.eabi_attribute 23, 3
   8              		.eabi_attribute 24, 1
   9              		.eabi_attribute 25, 1
  10              		.eabi_attribute 26, 1
  11              		.eabi_attribute 30, 1
  12              		.eabi_attribute 34, 1
  13              		.eabi_attribute 18, 4
  14              		.file	"lv_image_cache.c"
  15              		.text
  16              	.Ltext0:
  17              		.cfi_sections	.debug_frame
  18              		.file 1 "../../Middlewares/LVGL/GUI/lvgl/src/misc/cache/instance/lv_image_cache.c"
  19              		.section	.text.image_cache_free_cb,"ax",%progbits
  20              		.align	1
  21              		.syntax unified
  22              		.thumb
  23              		.thumb_func
  25              	image_cache_free_cb:
  26              	.LVL0:
  27              	.LFB195:
   1:../../Middlewares/LVGL/GUI/lvgl/src/misc/cache/instance/lv_image_cache.c **** /**
   2:../../Middlewares/LVGL/GUI/lvgl/src/misc/cache/instance/lv_image_cache.c **** * @file lv_image_cache.c
   3:../../Middlewares/LVGL/GUI/lvgl/src/misc/cache/instance/lv_image_cache.c **** *
   4:../../Middlewares/LVGL/GUI/lvgl/src/misc/cache/instance/lv_image_cache.c ****  */
   5:../../Middlewares/LVGL/GUI/lvgl/src/misc/cache/instance/lv_image_cache.c **** 
   6:../../Middlewares/LVGL/GUI/lvgl/src/misc/cache/instance/lv_image_cache.c **** /*********************
   7:../../Middlewares/LVGL/GUI/lvgl/src/misc/cache/instance/lv_image_cache.c ****  *      INCLUDES
   8:../../Middlewares/LVGL/GUI/lvgl/src/misc/cache/instance/lv_image_cache.c ****  *********************/
   9:../../Middlewares/LVGL/GUI/lvgl/src/misc/cache/instance/lv_image_cache.c **** 
  10:../../Middlewares/LVGL/GUI/lvgl/src/misc/cache/instance/lv_image_cache.c **** #include "../../../draw/lv_image_decoder_private.h"
  11:../../Middlewares/LVGL/GUI/lvgl/src/misc/cache/instance/lv_image_cache.c **** #include "../../lv_assert.h"
  12:../../Middlewares/LVGL/GUI/lvgl/src/misc/cache/instance/lv_image_cache.c **** #include "../../../core/lv_global.h"
  13:../../Middlewares/LVGL/GUI/lvgl/src/misc/cache/instance/lv_image_cache.c **** #include "../../../misc/lv_iter.h"
  14:../../Middlewares/LVGL/GUI/lvgl/src/misc/cache/instance/lv_image_cache.c **** 
  15:../../Middlewares/LVGL/GUI/lvgl/src/misc/cache/instance/lv_image_cache.c **** #include "lv_image_cache.h"
  16:../../Middlewares/LVGL/GUI/lvgl/src/misc/cache/instance/lv_image_cache.c **** 
  17:../../Middlewares/LVGL/GUI/lvgl/src/misc/cache/instance/lv_image_cache.c **** /*********************
  18:../../Middlewares/LVGL/GUI/lvgl/src/misc/cache/instance/lv_image_cache.c ****  *      DEFINES
  19:../../Middlewares/LVGL/GUI/lvgl/src/misc/cache/instance/lv_image_cache.c ****  *********************/
  20:../../Middlewares/LVGL/GUI/lvgl/src/misc/cache/instance/lv_image_cache.c **** 
  21:../../Middlewares/LVGL/GUI/lvgl/src/misc/cache/instance/lv_image_cache.c **** #define CACHE_NAME  "IMAGE"
  22:../../Middlewares/LVGL/GUI/lvgl/src/misc/cache/instance/lv_image_cache.c **** 
  23:../../Middlewares/LVGL/GUI/lvgl/src/misc/cache/instance/lv_image_cache.c **** #define img_cache_p (LV_GLOBAL_DEFAULT()->img_cache)
  24:../../Middlewares/LVGL/GUI/lvgl/src/misc/cache/instance/lv_image_cache.c **** #define image_cache_draw_buf_handlers &(LV_GLOBAL_DEFAULT()->image_cache_draw_buf_handlers)
  25:../../Middlewares/LVGL/GUI/lvgl/src/misc/cache/instance/lv_image_cache.c **** 
  26:../../Middlewares/LVGL/GUI/lvgl/src/misc/cache/instance/lv_image_cache.c **** /**********************
  27:../../Middlewares/LVGL/GUI/lvgl/src/misc/cache/instance/lv_image_cache.c ****  *      TYPEDEFS
  28:../../Middlewares/LVGL/GUI/lvgl/src/misc/cache/instance/lv_image_cache.c ****  **********************/
  29:../../Middlewares/LVGL/GUI/lvgl/src/misc/cache/instance/lv_image_cache.c **** 
  30:../../Middlewares/LVGL/GUI/lvgl/src/misc/cache/instance/lv_image_cache.c **** /**********************
  31:../../Middlewares/LVGL/GUI/lvgl/src/misc/cache/instance/lv_image_cache.c ****  *  STATIC PROTOTYPES
ARM GAS  C:\Users\28576\AppData\Local\Temp\ccmR1ofs.s 			page 2


  32:../../Middlewares/LVGL/GUI/lvgl/src/misc/cache/instance/lv_image_cache.c ****  **********************/
  33:../../Middlewares/LVGL/GUI/lvgl/src/misc/cache/instance/lv_image_cache.c **** 
  34:../../Middlewares/LVGL/GUI/lvgl/src/misc/cache/instance/lv_image_cache.c **** static lv_cache_compare_res_t image_cache_compare_cb(const lv_image_cache_data_t * lhs,
  35:../../Middlewares/LVGL/GUI/lvgl/src/misc/cache/instance/lv_image_cache.c ****                                                      const lv_image_cache_data_t * rhs);
  36:../../Middlewares/LVGL/GUI/lvgl/src/misc/cache/instance/lv_image_cache.c **** static void image_cache_free_cb(lv_image_cache_data_t * entry, void * user_data);
  37:../../Middlewares/LVGL/GUI/lvgl/src/misc/cache/instance/lv_image_cache.c **** static void iter_inspect_cb(void * elem);
  38:../../Middlewares/LVGL/GUI/lvgl/src/misc/cache/instance/lv_image_cache.c **** 
  39:../../Middlewares/LVGL/GUI/lvgl/src/misc/cache/instance/lv_image_cache.c **** /**********************
  40:../../Middlewares/LVGL/GUI/lvgl/src/misc/cache/instance/lv_image_cache.c ****  *  GLOBAL VARIABLES
  41:../../Middlewares/LVGL/GUI/lvgl/src/misc/cache/instance/lv_image_cache.c ****  **********************/
  42:../../Middlewares/LVGL/GUI/lvgl/src/misc/cache/instance/lv_image_cache.c **** 
  43:../../Middlewares/LVGL/GUI/lvgl/src/misc/cache/instance/lv_image_cache.c **** /**********************
  44:../../Middlewares/LVGL/GUI/lvgl/src/misc/cache/instance/lv_image_cache.c ****  *  STATIC VARIABLES
  45:../../Middlewares/LVGL/GUI/lvgl/src/misc/cache/instance/lv_image_cache.c ****  **********************/
  46:../../Middlewares/LVGL/GUI/lvgl/src/misc/cache/instance/lv_image_cache.c **** 
  47:../../Middlewares/LVGL/GUI/lvgl/src/misc/cache/instance/lv_image_cache.c **** /**********************
  48:../../Middlewares/LVGL/GUI/lvgl/src/misc/cache/instance/lv_image_cache.c ****  *      MACROS
  49:../../Middlewares/LVGL/GUI/lvgl/src/misc/cache/instance/lv_image_cache.c ****  **********************/
  50:../../Middlewares/LVGL/GUI/lvgl/src/misc/cache/instance/lv_image_cache.c **** 
  51:../../Middlewares/LVGL/GUI/lvgl/src/misc/cache/instance/lv_image_cache.c **** /**********************
  52:../../Middlewares/LVGL/GUI/lvgl/src/misc/cache/instance/lv_image_cache.c ****  *   GLOBAL FUNCTIONS
  53:../../Middlewares/LVGL/GUI/lvgl/src/misc/cache/instance/lv_image_cache.c ****  **********************/
  54:../../Middlewares/LVGL/GUI/lvgl/src/misc/cache/instance/lv_image_cache.c **** 
  55:../../Middlewares/LVGL/GUI/lvgl/src/misc/cache/instance/lv_image_cache.c **** lv_result_t lv_image_cache_init(uint32_t size)
  56:../../Middlewares/LVGL/GUI/lvgl/src/misc/cache/instance/lv_image_cache.c **** {
  57:../../Middlewares/LVGL/GUI/lvgl/src/misc/cache/instance/lv_image_cache.c ****     if(img_cache_p != NULL) {
  58:../../Middlewares/LVGL/GUI/lvgl/src/misc/cache/instance/lv_image_cache.c ****         return LV_RESULT_OK;
  59:../../Middlewares/LVGL/GUI/lvgl/src/misc/cache/instance/lv_image_cache.c ****     }
  60:../../Middlewares/LVGL/GUI/lvgl/src/misc/cache/instance/lv_image_cache.c **** 
  61:../../Middlewares/LVGL/GUI/lvgl/src/misc/cache/instance/lv_image_cache.c ****     img_cache_p = lv_cache_create(&lv_cache_class_lru_rb_size,
  62:../../Middlewares/LVGL/GUI/lvgl/src/misc/cache/instance/lv_image_cache.c ****     sizeof(lv_image_cache_data_t), size, (lv_cache_ops_t) {
  63:../../Middlewares/LVGL/GUI/lvgl/src/misc/cache/instance/lv_image_cache.c ****         .compare_cb = (lv_cache_compare_cb_t) image_cache_compare_cb,
  64:../../Middlewares/LVGL/GUI/lvgl/src/misc/cache/instance/lv_image_cache.c ****         .create_cb = NULL,
  65:../../Middlewares/LVGL/GUI/lvgl/src/misc/cache/instance/lv_image_cache.c ****         .free_cb = (lv_cache_free_cb_t) image_cache_free_cb,
  66:../../Middlewares/LVGL/GUI/lvgl/src/misc/cache/instance/lv_image_cache.c ****     });
  67:../../Middlewares/LVGL/GUI/lvgl/src/misc/cache/instance/lv_image_cache.c **** 
  68:../../Middlewares/LVGL/GUI/lvgl/src/misc/cache/instance/lv_image_cache.c ****     lv_cache_set_name(img_cache_p, CACHE_NAME);
  69:../../Middlewares/LVGL/GUI/lvgl/src/misc/cache/instance/lv_image_cache.c ****     return img_cache_p != NULL ? LV_RESULT_OK : LV_RESULT_INVALID;
  70:../../Middlewares/LVGL/GUI/lvgl/src/misc/cache/instance/lv_image_cache.c **** }
  71:../../Middlewares/LVGL/GUI/lvgl/src/misc/cache/instance/lv_image_cache.c **** 
  72:../../Middlewares/LVGL/GUI/lvgl/src/misc/cache/instance/lv_image_cache.c **** void lv_image_cache_resize(uint32_t new_size, bool evict_now)
  73:../../Middlewares/LVGL/GUI/lvgl/src/misc/cache/instance/lv_image_cache.c **** {
  74:../../Middlewares/LVGL/GUI/lvgl/src/misc/cache/instance/lv_image_cache.c ****     lv_cache_set_max_size(img_cache_p, new_size, NULL);
  75:../../Middlewares/LVGL/GUI/lvgl/src/misc/cache/instance/lv_image_cache.c ****     if(evict_now) {
  76:../../Middlewares/LVGL/GUI/lvgl/src/misc/cache/instance/lv_image_cache.c ****         lv_cache_reserve(img_cache_p, new_size, NULL);
  77:../../Middlewares/LVGL/GUI/lvgl/src/misc/cache/instance/lv_image_cache.c ****     }
  78:../../Middlewares/LVGL/GUI/lvgl/src/misc/cache/instance/lv_image_cache.c **** }
  79:../../Middlewares/LVGL/GUI/lvgl/src/misc/cache/instance/lv_image_cache.c **** 
  80:../../Middlewares/LVGL/GUI/lvgl/src/misc/cache/instance/lv_image_cache.c **** void lv_image_cache_drop(const void * src)
  81:../../Middlewares/LVGL/GUI/lvgl/src/misc/cache/instance/lv_image_cache.c **** {
  82:../../Middlewares/LVGL/GUI/lvgl/src/misc/cache/instance/lv_image_cache.c ****     /*If user invalidate image, the header cache should be invalidated too.*/
  83:../../Middlewares/LVGL/GUI/lvgl/src/misc/cache/instance/lv_image_cache.c ****     lv_image_header_cache_drop(src);
  84:../../Middlewares/LVGL/GUI/lvgl/src/misc/cache/instance/lv_image_cache.c **** 
  85:../../Middlewares/LVGL/GUI/lvgl/src/misc/cache/instance/lv_image_cache.c ****     if(src == NULL) {
  86:../../Middlewares/LVGL/GUI/lvgl/src/misc/cache/instance/lv_image_cache.c ****         lv_cache_drop_all(img_cache_p, NULL);
  87:../../Middlewares/LVGL/GUI/lvgl/src/misc/cache/instance/lv_image_cache.c ****         return;
  88:../../Middlewares/LVGL/GUI/lvgl/src/misc/cache/instance/lv_image_cache.c ****     }
ARM GAS  C:\Users\28576\AppData\Local\Temp\ccmR1ofs.s 			page 3


  89:../../Middlewares/LVGL/GUI/lvgl/src/misc/cache/instance/lv_image_cache.c **** 
  90:../../Middlewares/LVGL/GUI/lvgl/src/misc/cache/instance/lv_image_cache.c ****     lv_image_cache_data_t search_key = {
  91:../../Middlewares/LVGL/GUI/lvgl/src/misc/cache/instance/lv_image_cache.c ****         .src = src,
  92:../../Middlewares/LVGL/GUI/lvgl/src/misc/cache/instance/lv_image_cache.c ****         .src_type = lv_image_src_get_type(src),
  93:../../Middlewares/LVGL/GUI/lvgl/src/misc/cache/instance/lv_image_cache.c ****     };
  94:../../Middlewares/LVGL/GUI/lvgl/src/misc/cache/instance/lv_image_cache.c **** 
  95:../../Middlewares/LVGL/GUI/lvgl/src/misc/cache/instance/lv_image_cache.c ****     lv_cache_drop(img_cache_p, &search_key, NULL);
  96:../../Middlewares/LVGL/GUI/lvgl/src/misc/cache/instance/lv_image_cache.c **** }
  97:../../Middlewares/LVGL/GUI/lvgl/src/misc/cache/instance/lv_image_cache.c **** 
  98:../../Middlewares/LVGL/GUI/lvgl/src/misc/cache/instance/lv_image_cache.c **** bool lv_image_cache_is_enabled(void)
  99:../../Middlewares/LVGL/GUI/lvgl/src/misc/cache/instance/lv_image_cache.c **** {
 100:../../Middlewares/LVGL/GUI/lvgl/src/misc/cache/instance/lv_image_cache.c ****     return lv_cache_is_enabled(img_cache_p);
 101:../../Middlewares/LVGL/GUI/lvgl/src/misc/cache/instance/lv_image_cache.c **** }
 102:../../Middlewares/LVGL/GUI/lvgl/src/misc/cache/instance/lv_image_cache.c **** 
 103:../../Middlewares/LVGL/GUI/lvgl/src/misc/cache/instance/lv_image_cache.c **** lv_iter_t * lv_image_cache_iter_create(void)
 104:../../Middlewares/LVGL/GUI/lvgl/src/misc/cache/instance/lv_image_cache.c **** {
 105:../../Middlewares/LVGL/GUI/lvgl/src/misc/cache/instance/lv_image_cache.c ****     return lv_cache_iter_create(img_cache_p);
 106:../../Middlewares/LVGL/GUI/lvgl/src/misc/cache/instance/lv_image_cache.c **** }
 107:../../Middlewares/LVGL/GUI/lvgl/src/misc/cache/instance/lv_image_cache.c **** 
 108:../../Middlewares/LVGL/GUI/lvgl/src/misc/cache/instance/lv_image_cache.c **** void lv_image_cache_dump(void)
 109:../../Middlewares/LVGL/GUI/lvgl/src/misc/cache/instance/lv_image_cache.c **** {
 110:../../Middlewares/LVGL/GUI/lvgl/src/misc/cache/instance/lv_image_cache.c ****     lv_iter_t * iter = lv_image_cache_iter_create();
 111:../../Middlewares/LVGL/GUI/lvgl/src/misc/cache/instance/lv_image_cache.c ****     if(iter == NULL) return;
 112:../../Middlewares/LVGL/GUI/lvgl/src/misc/cache/instance/lv_image_cache.c **** 
 113:../../Middlewares/LVGL/GUI/lvgl/src/misc/cache/instance/lv_image_cache.c ****     LV_LOG_USER("Image cache dump:");
 114:../../Middlewares/LVGL/GUI/lvgl/src/misc/cache/instance/lv_image_cache.c ****     LV_LOG_USER("\tsize\tdata_size\tcf\trc\ttype\tdecoded\t\t\tsrc");
 115:../../Middlewares/LVGL/GUI/lvgl/src/misc/cache/instance/lv_image_cache.c ****     lv_iter_inspect(iter, iter_inspect_cb);
 116:../../Middlewares/LVGL/GUI/lvgl/src/misc/cache/instance/lv_image_cache.c **** }
 117:../../Middlewares/LVGL/GUI/lvgl/src/misc/cache/instance/lv_image_cache.c **** 
 118:../../Middlewares/LVGL/GUI/lvgl/src/misc/cache/instance/lv_image_cache.c **** /**********************
 119:../../Middlewares/LVGL/GUI/lvgl/src/misc/cache/instance/lv_image_cache.c ****  *   STATIC FUNCTIONS
 120:../../Middlewares/LVGL/GUI/lvgl/src/misc/cache/instance/lv_image_cache.c ****  **********************/
 121:../../Middlewares/LVGL/GUI/lvgl/src/misc/cache/instance/lv_image_cache.c **** 
 122:../../Middlewares/LVGL/GUI/lvgl/src/misc/cache/instance/lv_image_cache.c **** inline static lv_cache_compare_res_t image_cache_common_compare(const void * lhs_src, lv_image_src_
 123:../../Middlewares/LVGL/GUI/lvgl/src/misc/cache/instance/lv_image_cache.c ****                                                                 const void * rhs_src, lv_image_src_
 124:../../Middlewares/LVGL/GUI/lvgl/src/misc/cache/instance/lv_image_cache.c **** {
 125:../../Middlewares/LVGL/GUI/lvgl/src/misc/cache/instance/lv_image_cache.c ****     if(lhs_src_type == rhs_src_type) {
 126:../../Middlewares/LVGL/GUI/lvgl/src/misc/cache/instance/lv_image_cache.c ****         if(lhs_src_type == LV_IMAGE_SRC_FILE) {
 127:../../Middlewares/LVGL/GUI/lvgl/src/misc/cache/instance/lv_image_cache.c ****             int32_t cmp_res = lv_strcmp(lhs_src, rhs_src);
 128:../../Middlewares/LVGL/GUI/lvgl/src/misc/cache/instance/lv_image_cache.c ****             if(cmp_res != 0) {
 129:../../Middlewares/LVGL/GUI/lvgl/src/misc/cache/instance/lv_image_cache.c ****                 return cmp_res > 0 ? 1 : -1;
 130:../../Middlewares/LVGL/GUI/lvgl/src/misc/cache/instance/lv_image_cache.c ****             }
 131:../../Middlewares/LVGL/GUI/lvgl/src/misc/cache/instance/lv_image_cache.c ****         }
 132:../../Middlewares/LVGL/GUI/lvgl/src/misc/cache/instance/lv_image_cache.c ****         else if(lhs_src_type == LV_IMAGE_SRC_VARIABLE) {
 133:../../Middlewares/LVGL/GUI/lvgl/src/misc/cache/instance/lv_image_cache.c ****             if(lhs_src != rhs_src) {
 134:../../Middlewares/LVGL/GUI/lvgl/src/misc/cache/instance/lv_image_cache.c ****                 return lhs_src > rhs_src ? 1 : -1;
 135:../../Middlewares/LVGL/GUI/lvgl/src/misc/cache/instance/lv_image_cache.c ****             }
 136:../../Middlewares/LVGL/GUI/lvgl/src/misc/cache/instance/lv_image_cache.c ****         }
 137:../../Middlewares/LVGL/GUI/lvgl/src/misc/cache/instance/lv_image_cache.c ****         return 0;
 138:../../Middlewares/LVGL/GUI/lvgl/src/misc/cache/instance/lv_image_cache.c ****     }
 139:../../Middlewares/LVGL/GUI/lvgl/src/misc/cache/instance/lv_image_cache.c ****     return lhs_src_type > rhs_src_type ? 1 : -1;
 140:../../Middlewares/LVGL/GUI/lvgl/src/misc/cache/instance/lv_image_cache.c **** }
 141:../../Middlewares/LVGL/GUI/lvgl/src/misc/cache/instance/lv_image_cache.c **** 
 142:../../Middlewares/LVGL/GUI/lvgl/src/misc/cache/instance/lv_image_cache.c **** static lv_cache_compare_res_t image_cache_compare_cb(
 143:../../Middlewares/LVGL/GUI/lvgl/src/misc/cache/instance/lv_image_cache.c ****     const lv_image_cache_data_t * lhs,
 144:../../Middlewares/LVGL/GUI/lvgl/src/misc/cache/instance/lv_image_cache.c ****     const lv_image_cache_data_t * rhs)
 145:../../Middlewares/LVGL/GUI/lvgl/src/misc/cache/instance/lv_image_cache.c **** {
ARM GAS  C:\Users\28576\AppData\Local\Temp\ccmR1ofs.s 			page 4


 146:../../Middlewares/LVGL/GUI/lvgl/src/misc/cache/instance/lv_image_cache.c ****     return image_cache_common_compare(lhs->src, lhs->src_type, rhs->src, rhs->src_type);
 147:../../Middlewares/LVGL/GUI/lvgl/src/misc/cache/instance/lv_image_cache.c **** }
 148:../../Middlewares/LVGL/GUI/lvgl/src/misc/cache/instance/lv_image_cache.c **** 
 149:../../Middlewares/LVGL/GUI/lvgl/src/misc/cache/instance/lv_image_cache.c **** static void image_cache_free_cb(lv_image_cache_data_t * entry, void * user_data)
 150:../../Middlewares/LVGL/GUI/lvgl/src/misc/cache/instance/lv_image_cache.c **** {
  28              		.loc 1 150 1 view -0
  29              		.cfi_startproc
  30              		@ args = 0, pretend = 0, frame = 0
  31              		@ frame_needed = 0, uses_anonymous_args = 0
  32              		.loc 1 150 1 is_stmt 0 view .LVU1
  33 0000 38B5     		push	{r3, r4, r5, lr}
  34              	.LCFI0:
  35              		.cfi_def_cfa_offset 16
  36              		.cfi_offset 3, -16
  37              		.cfi_offset 4, -12
  38              		.cfi_offset 5, -8
  39              		.cfi_offset 14, -4
  40 0002 0446     		mov	r4, r0
 151:../../Middlewares/LVGL/GUI/lvgl/src/misc/cache/instance/lv_image_cache.c ****     LV_UNUSED(user_data);
  41              		.loc 1 151 5 is_stmt 1 view .LVU2
 152:../../Middlewares/LVGL/GUI/lvgl/src/misc/cache/instance/lv_image_cache.c **** 
 153:../../Middlewares/LVGL/GUI/lvgl/src/misc/cache/instance/lv_image_cache.c ****     /* Destroy the decoded draw buffer if necessary. */
 154:../../Middlewares/LVGL/GUI/lvgl/src/misc/cache/instance/lv_image_cache.c ****     lv_draw_buf_t * decoded = (lv_draw_buf_t *)entry->decoded;
  42              		.loc 1 154 5 view .LVU3
  43              		.loc 1 154 21 is_stmt 0 view .LVU4
  44 0004 C568     		ldr	r5, [r0, #12]
  45              	.LVL1:
 155:../../Middlewares/LVGL/GUI/lvgl/src/misc/cache/instance/lv_image_cache.c ****     if(lv_draw_buf_has_flag(decoded, LV_IMAGE_FLAGS_ALLOCATED)) {
  46              		.loc 1 155 5 is_stmt 1 view .LVU5
  47              		.loc 1 155 8 is_stmt 0 view .LVU6
  48 0006 1021     		movs	r1, #16
  49              	.LVL2:
  50              		.loc 1 155 8 view .LVU7
  51 0008 2846     		mov	r0, r5
  52              	.LVL3:
  53              		.loc 1 155 8 view .LVU8
  54 000a FFF7FEFF 		bl	lv_draw_buf_has_flag
  55              	.LVL4:
  56              		.loc 1 155 7 discriminator 1 view .LVU9
  57 000e 18B9     		cbnz	r0, .L5
  58              	.L2:
 156:../../Middlewares/LVGL/GUI/lvgl/src/misc/cache/instance/lv_image_cache.c ****         lv_draw_buf_destroy(decoded);
 157:../../Middlewares/LVGL/GUI/lvgl/src/misc/cache/instance/lv_image_cache.c ****     }
 158:../../Middlewares/LVGL/GUI/lvgl/src/misc/cache/instance/lv_image_cache.c **** 
 159:../../Middlewares/LVGL/GUI/lvgl/src/misc/cache/instance/lv_image_cache.c ****     /*Free the duplicated file name*/
 160:../../Middlewares/LVGL/GUI/lvgl/src/misc/cache/instance/lv_image_cache.c ****     if(entry->src_type == LV_IMAGE_SRC_FILE) lv_free((void *)entry->src);
  59              		.loc 1 160 5 is_stmt 1 view .LVU10
  60              		.loc 1 160 13 is_stmt 0 view .LVU11
  61 0010 237A     		ldrb	r3, [r4, #8]	@ zero_extendqisi2
  62              		.loc 1 160 7 view .LVU12
  63 0012 012B     		cmp	r3, #1
  64 0014 04D0     		beq	.L6
  65              	.L1:
 161:../../Middlewares/LVGL/GUI/lvgl/src/misc/cache/instance/lv_image_cache.c **** }
  66              		.loc 1 161 1 view .LVU13
  67 0016 38BD     		pop	{r3, r4, r5, pc}
  68              	.LVL5:
ARM GAS  C:\Users\28576\AppData\Local\Temp\ccmR1ofs.s 			page 5


  69              	.L5:
 156:../../Middlewares/LVGL/GUI/lvgl/src/misc/cache/instance/lv_image_cache.c ****         lv_draw_buf_destroy(decoded);
  70              		.loc 1 156 9 is_stmt 1 view .LVU14
  71 0018 2846     		mov	r0, r5
  72 001a FFF7FEFF 		bl	lv_draw_buf_destroy
  73              	.LVL6:
  74 001e F7E7     		b	.L2
  75              	.L6:
 160:../../Middlewares/LVGL/GUI/lvgl/src/misc/cache/instance/lv_image_cache.c **** }
  76              		.loc 1 160 46 discriminator 1 view .LVU15
  77 0020 6068     		ldr	r0, [r4, #4]
  78 0022 FFF7FEFF 		bl	lv_free
  79              	.LVL7:
  80              		.loc 1 161 1 is_stmt 0 view .LVU16
  81 0026 F6E7     		b	.L1
  82              		.cfi_endproc
  83              	.LFE195:
  85              		.section	.text.image_cache_common_compare,"ax",%progbits
  86              		.align	1
  87              		.syntax unified
  88              		.thumb
  89              		.thumb_func
  91              	image_cache_common_compare:
  92              	.LVL8:
  93              	.LFB193:
 124:../../Middlewares/LVGL/GUI/lvgl/src/misc/cache/instance/lv_image_cache.c ****     if(lhs_src_type == rhs_src_type) {
  94              		.loc 1 124 1 is_stmt 1 view -0
  95              		.cfi_startproc
  96              		@ args = 0, pretend = 0, frame = 0
  97              		@ frame_needed = 0, uses_anonymous_args = 0
 125:../../Middlewares/LVGL/GUI/lvgl/src/misc/cache/instance/lv_image_cache.c ****         if(lhs_src_type == LV_IMAGE_SRC_FILE) {
  98              		.loc 1 125 5 view .LVU18
 125:../../Middlewares/LVGL/GUI/lvgl/src/misc/cache/instance/lv_image_cache.c ****         if(lhs_src_type == LV_IMAGE_SRC_FILE) {
  99              		.loc 1 125 7 is_stmt 0 view .LVU19
 100 0000 9942     		cmp	r1, r3
 101 0002 03D0     		beq	.L22
 139:../../Middlewares/LVGL/GUI/lvgl/src/misc/cache/instance/lv_image_cache.c **** }
 102              		.loc 1 139 5 is_stmt 1 view .LVU20
 139:../../Middlewares/LVGL/GUI/lvgl/src/misc/cache/instance/lv_image_cache.c **** }
 103              		.loc 1 139 44 is_stmt 0 view .LVU21
 104 0004 9942     		cmp	r1, r3
 105 0006 1AD9     		bls	.L16
 139:../../Middlewares/LVGL/GUI/lvgl/src/misc/cache/instance/lv_image_cache.c **** }
 106              		.loc 1 139 44 discriminator 1 view .LVU22
 107 0008 0120     		movs	r0, #1
 108              	.LVL9:
 139:../../Middlewares/LVGL/GUI/lvgl/src/misc/cache/instance/lv_image_cache.c **** }
 109              		.loc 1 139 44 discriminator 1 view .LVU23
 110 000a 7047     		bx	lr
 111              	.LVL10:
 112              	.L22:
 126:../../Middlewares/LVGL/GUI/lvgl/src/misc/cache/instance/lv_image_cache.c ****             int32_t cmp_res = lv_strcmp(lhs_src, rhs_src);
 113              		.loc 1 126 9 is_stmt 1 view .LVU24
 126:../../Middlewares/LVGL/GUI/lvgl/src/misc/cache/instance/lv_image_cache.c ****             int32_t cmp_res = lv_strcmp(lhs_src, rhs_src);
 114              		.loc 1 126 11 is_stmt 0 view .LVU25
 115 000c 0129     		cmp	r1, #1
 116 000e 05D0     		beq	.L23
ARM GAS  C:\Users\28576\AppData\Local\Temp\ccmR1ofs.s 			page 6


 132:../../Middlewares/LVGL/GUI/lvgl/src/misc/cache/instance/lv_image_cache.c ****             if(lhs_src != rhs_src) {
 117              		.loc 1 132 14 is_stmt 1 view .LVU26
 132:../../Middlewares/LVGL/GUI/lvgl/src/misc/cache/instance/lv_image_cache.c ****             if(lhs_src != rhs_src) {
 118              		.loc 1 132 16 is_stmt 0 view .LVU27
 119 0010 C1B9     		cbnz	r1, .L18
 133:../../Middlewares/LVGL/GUI/lvgl/src/misc/cache/instance/lv_image_cache.c ****                 return lhs_src > rhs_src ? 1 : -1;
 120              		.loc 1 133 13 is_stmt 1 view .LVU28
 133:../../Middlewares/LVGL/GUI/lvgl/src/misc/cache/instance/lv_image_cache.c ****                 return lhs_src > rhs_src ? 1 : -1;
 121              		.loc 1 133 15 is_stmt 0 view .LVU29
 122 0012 9042     		cmp	r0, r2
 123 0014 16D0     		beq	.L18
 134:../../Middlewares/LVGL/GUI/lvgl/src/misc/cache/instance/lv_image_cache.c ****             }
 124              		.loc 1 134 17 is_stmt 1 view .LVU30
 134:../../Middlewares/LVGL/GUI/lvgl/src/misc/cache/instance/lv_image_cache.c ****             }
 125              		.loc 1 134 46 is_stmt 0 view .LVU31
 126 0016 0DD9     		bls	.L15
 134:../../Middlewares/LVGL/GUI/lvgl/src/misc/cache/instance/lv_image_cache.c ****             }
 127              		.loc 1 134 46 discriminator 1 view .LVU32
 128 0018 0120     		movs	r0, #1
 129              	.LVL11:
 134:../../Middlewares/LVGL/GUI/lvgl/src/misc/cache/instance/lv_image_cache.c ****             }
 130              		.loc 1 134 46 discriminator 1 view .LVU33
 131 001a 7047     		bx	lr
 132              	.LVL12:
 133              	.L23:
 124:../../Middlewares/LVGL/GUI/lvgl/src/misc/cache/instance/lv_image_cache.c ****     if(lhs_src_type == rhs_src_type) {
 134              		.loc 1 124 1 view .LVU34
 135 001c 08B5     		push	{r3, lr}
 136              	.LCFI1:
 137              		.cfi_def_cfa_offset 8
 138              		.cfi_offset 3, -8
 139              		.cfi_offset 14, -4
 140              	.LBB2:
 127:../../Middlewares/LVGL/GUI/lvgl/src/misc/cache/instance/lv_image_cache.c ****             if(cmp_res != 0) {
 141              		.loc 1 127 13 is_stmt 1 view .LVU35
 127:../../Middlewares/LVGL/GUI/lvgl/src/misc/cache/instance/lv_image_cache.c ****             if(cmp_res != 0) {
 142              		.loc 1 127 31 is_stmt 0 view .LVU36
 143 001e 1146     		mov	r1, r2
 144              	.LVL13:
 127:../../Middlewares/LVGL/GUI/lvgl/src/misc/cache/instance/lv_image_cache.c ****             if(cmp_res != 0) {
 145              		.loc 1 127 31 view .LVU37
 146 0020 FFF7FEFF 		bl	lv_strcmp
 147              	.LVL14:
 128:../../Middlewares/LVGL/GUI/lvgl/src/misc/cache/instance/lv_image_cache.c ****                 return cmp_res > 0 ? 1 : -1;
 148              		.loc 1 128 13 is_stmt 1 view .LVU38
 128:../../Middlewares/LVGL/GUI/lvgl/src/misc/cache/instance/lv_image_cache.c ****                 return cmp_res > 0 ? 1 : -1;
 149              		.loc 1 128 15 is_stmt 0 view .LVU39
 150 0024 48B1     		cbz	r0, .L10
 129:../../Middlewares/LVGL/GUI/lvgl/src/misc/cache/instance/lv_image_cache.c ****             }
 151              		.loc 1 129 17 is_stmt 1 view .LVU40
 129:../../Middlewares/LVGL/GUI/lvgl/src/misc/cache/instance/lv_image_cache.c ****             }
 152              		.loc 1 129 40 is_stmt 0 view .LVU41
 153 0026 0028     		cmp	r0, #0
 154 0028 01DD     		ble	.L14
 129:../../Middlewares/LVGL/GUI/lvgl/src/misc/cache/instance/lv_image_cache.c ****             }
 155              		.loc 1 129 40 discriminator 1 view .LVU42
 156 002a 0120     		movs	r0, #1
ARM GAS  C:\Users\28576\AppData\Local\Temp\ccmR1ofs.s 			page 7


 157              	.LVL15:
 129:../../Middlewares/LVGL/GUI/lvgl/src/misc/cache/instance/lv_image_cache.c ****             }
 158              		.loc 1 129 40 discriminator 1 view .LVU43
 159 002c 06E0     		b	.L12
 160              	.LVL16:
 161              	.L14:
 129:../../Middlewares/LVGL/GUI/lvgl/src/misc/cache/instance/lv_image_cache.c ****             }
 162              		.loc 1 129 40 discriminator 2 view .LVU44
 163 002e 4FF0FF30 		mov	r0, #-1
 164              	.LVL17:
 129:../../Middlewares/LVGL/GUI/lvgl/src/misc/cache/instance/lv_image_cache.c ****             }
 165              		.loc 1 129 40 view .LVU45
 166 0032 03E0     		b	.L12
 167              	.LVL18:
 168              	.L15:
 169              	.LCFI2:
 170              		.cfi_def_cfa_offset 0
 171              		.cfi_restore 3
 172              		.cfi_restore 14
 129:../../Middlewares/LVGL/GUI/lvgl/src/misc/cache/instance/lv_image_cache.c ****             }
 173              		.loc 1 129 40 view .LVU46
 174              	.LBE2:
 134:../../Middlewares/LVGL/GUI/lvgl/src/misc/cache/instance/lv_image_cache.c ****             }
 175              		.loc 1 134 46 discriminator 2 view .LVU47
 176 0034 4FF0FF30 		mov	r0, #-1
 177              	.LVL19:
 134:../../Middlewares/LVGL/GUI/lvgl/src/misc/cache/instance/lv_image_cache.c ****             }
 178              		.loc 1 134 46 view .LVU48
 179 0038 7047     		bx	lr
 180              	.LVL20:
 181              	.L10:
 182              	.LCFI3:
 183              		.cfi_def_cfa_offset 8
 184              		.cfi_offset 3, -8
 185              		.cfi_offset 14, -4
 137:../../Middlewares/LVGL/GUI/lvgl/src/misc/cache/instance/lv_image_cache.c ****     }
 186              		.loc 1 137 9 is_stmt 1 view .LVU49
 137:../../Middlewares/LVGL/GUI/lvgl/src/misc/cache/instance/lv_image_cache.c ****     }
 187              		.loc 1 137 16 is_stmt 0 view .LVU50
 188 003a 0020     		movs	r0, #0
 189              	.LVL21:
 190              	.L12:
 140:../../Middlewares/LVGL/GUI/lvgl/src/misc/cache/instance/lv_image_cache.c **** 
 191              		.loc 1 140 1 view .LVU51
 192 003c 08BD     		pop	{r3, pc}
 193              	.LVL22:
 194              	.L16:
 195              	.LCFI4:
 196              		.cfi_def_cfa_offset 0
 197              		.cfi_restore 3
 198              		.cfi_restore 14
 139:../../Middlewares/LVGL/GUI/lvgl/src/misc/cache/instance/lv_image_cache.c **** }
 199              		.loc 1 139 44 discriminator 2 view .LVU52
 200 003e 4FF0FF30 		mov	r0, #-1
 201              	.LVL23:
 139:../../Middlewares/LVGL/GUI/lvgl/src/misc/cache/instance/lv_image_cache.c **** }
 202              		.loc 1 139 44 discriminator 2 view .LVU53
ARM GAS  C:\Users\28576\AppData\Local\Temp\ccmR1ofs.s 			page 8


 203 0042 7047     		bx	lr
 204              	.LVL24:
 205              	.L18:
 137:../../Middlewares/LVGL/GUI/lvgl/src/misc/cache/instance/lv_image_cache.c ****     }
 206              		.loc 1 137 9 is_stmt 1 view .LVU54
 137:../../Middlewares/LVGL/GUI/lvgl/src/misc/cache/instance/lv_image_cache.c ****     }
 207              		.loc 1 137 16 is_stmt 0 view .LVU55
 208 0044 0020     		movs	r0, #0
 209              	.LVL25:
 140:../../Middlewares/LVGL/GUI/lvgl/src/misc/cache/instance/lv_image_cache.c **** 
 210              		.loc 1 140 1 view .LVU56
 211 0046 7047     		bx	lr
 212              		.cfi_endproc
 213              	.LFE193:
 215              		.section	.text.image_cache_compare_cb,"ax",%progbits
 216              		.align	1
 217              		.syntax unified
 218              		.thumb
 219              		.thumb_func
 221              	image_cache_compare_cb:
 222              	.LVL26:
 223              	.LFB194:
 145:../../Middlewares/LVGL/GUI/lvgl/src/misc/cache/instance/lv_image_cache.c ****     return image_cache_common_compare(lhs->src, lhs->src_type, rhs->src, rhs->src_type);
 224              		.loc 1 145 1 is_stmt 1 view -0
 225              		.cfi_startproc
 226              		@ args = 0, pretend = 0, frame = 0
 227              		@ frame_needed = 0, uses_anonymous_args = 0
 145:../../Middlewares/LVGL/GUI/lvgl/src/misc/cache/instance/lv_image_cache.c ****     return image_cache_common_compare(lhs->src, lhs->src_type, rhs->src, rhs->src_type);
 228              		.loc 1 145 1 is_stmt 0 view .LVU58
 229 0000 08B5     		push	{r3, lr}
 230              	.LCFI5:
 231              		.cfi_def_cfa_offset 8
 232              		.cfi_offset 3, -8
 233              		.cfi_offset 14, -4
 146:../../Middlewares/LVGL/GUI/lvgl/src/misc/cache/instance/lv_image_cache.c **** }
 234              		.loc 1 146 5 is_stmt 1 view .LVU59
 146:../../Middlewares/LVGL/GUI/lvgl/src/misc/cache/instance/lv_image_cache.c **** }
 235              		.loc 1 146 12 is_stmt 0 view .LVU60
 236 0002 0B7A     		ldrb	r3, [r1, #8]	@ zero_extendqisi2
 237 0004 4A68     		ldr	r2, [r1, #4]
 238 0006 017A     		ldrb	r1, [r0, #8]	@ zero_extendqisi2
 239              	.LVL27:
 146:../../Middlewares/LVGL/GUI/lvgl/src/misc/cache/instance/lv_image_cache.c **** }
 240              		.loc 1 146 12 view .LVU61
 241 0008 4068     		ldr	r0, [r0, #4]
 242              	.LVL28:
 146:../../Middlewares/LVGL/GUI/lvgl/src/misc/cache/instance/lv_image_cache.c **** }
 243              		.loc 1 146 12 view .LVU62
 244 000a FFF7FEFF 		bl	image_cache_common_compare
 245              	.LVL29:
 147:../../Middlewares/LVGL/GUI/lvgl/src/misc/cache/instance/lv_image_cache.c **** 
 246              		.loc 1 147 1 view .LVU63
 247 000e 08BD     		pop	{r3, pc}
 248              		.cfi_endproc
 249              	.LFE194:
 251              		.section	.text.iter_inspect_cb,"ax",%progbits
 252              		.align	1
ARM GAS  C:\Users\28576\AppData\Local\Temp\ccmR1ofs.s 			page 9


 253              		.syntax unified
 254              		.thumb
 255              		.thumb_func
 257              	iter_inspect_cb:
 258              	.LVL30:
 259              	.LFB196:
 162:../../Middlewares/LVGL/GUI/lvgl/src/misc/cache/instance/lv_image_cache.c **** 
 163:../../Middlewares/LVGL/GUI/lvgl/src/misc/cache/instance/lv_image_cache.c **** static void iter_inspect_cb(void * elem)
 164:../../Middlewares/LVGL/GUI/lvgl/src/misc/cache/instance/lv_image_cache.c **** {
 260              		.loc 1 164 1 is_stmt 1 view -0
 261              		.cfi_startproc
 262              		@ args = 0, pretend = 0, frame = 0
 263              		@ frame_needed = 0, uses_anonymous_args = 0
 264              		.loc 1 164 1 is_stmt 0 view .LVU65
 265 0000 08B5     		push	{r3, lr}
 266              	.LCFI6:
 267              		.cfi_def_cfa_offset 8
 268              		.cfi_offset 3, -8
 269              		.cfi_offset 14, -4
 165:../../Middlewares/LVGL/GUI/lvgl/src/misc/cache/instance/lv_image_cache.c ****     lv_image_cache_data_t * data = (lv_image_cache_data_t *)elem;
 270              		.loc 1 165 5 is_stmt 1 view .LVU66
 271              	.LVL31:
 166:../../Middlewares/LVGL/GUI/lvgl/src/misc/cache/instance/lv_image_cache.c ****     lv_draw_buf_t * decoded = (lv_draw_buf_t *)data->decoded;
 272              		.loc 1 166 5 view .LVU67
 167:../../Middlewares/LVGL/GUI/lvgl/src/misc/cache/instance/lv_image_cache.c ****     lv_image_header_t * header = &decoded->header;
 273              		.loc 1 167 5 view .LVU68
 168:../../Middlewares/LVGL/GUI/lvgl/src/misc/cache/instance/lv_image_cache.c ****     lv_cache_entry_t * entry = lv_cache_entry_get_entry(data, img_cache_p->node_size);
 274              		.loc 1 168 5 view .LVU69
 275              		.loc 1 168 63 is_stmt 0 view .LVU70
 276 0002 034B     		ldr	r3, .L28
 277 0004 D3F81C31 		ldr	r3, [r3, #284]
 278              		.loc 1 168 32 view .LVU71
 279 0008 5968     		ldr	r1, [r3, #4]
 280 000a FFF7FEFF 		bl	lv_cache_entry_get_entry
 281              	.LVL32:
 169:../../Middlewares/LVGL/GUI/lvgl/src/misc/cache/instance/lv_image_cache.c **** 
 170:../../Middlewares/LVGL/GUI/lvgl/src/misc/cache/instance/lv_image_cache.c ****     LV_UNUSED(decoded);
 282              		.loc 1 170 5 is_stmt 1 view .LVU72
 171:../../Middlewares/LVGL/GUI/lvgl/src/misc/cache/instance/lv_image_cache.c ****     LV_UNUSED(header);
 283              		.loc 1 171 5 view .LVU73
 172:../../Middlewares/LVGL/GUI/lvgl/src/misc/cache/instance/lv_image_cache.c ****     LV_UNUSED(entry);
 284              		.loc 1 172 5 view .LVU74
 173:../../Middlewares/LVGL/GUI/lvgl/src/misc/cache/instance/lv_image_cache.c **** 
 174:../../Middlewares/LVGL/GUI/lvgl/src/misc/cache/instance/lv_image_cache.c ****     /*  size    data_size   cf  rc  type    decoded         src*/
 175:../../Middlewares/LVGL/GUI/lvgl/src/misc/cache/instance/lv_image_cache.c **** #define IMAGE_CACHE_DUMP_FORMAT "	%4dx%-4d	%9"LV_PRIu32"	%d	%"LV_PRId32"	"
 176:../../Middlewares/LVGL/GUI/lvgl/src/misc/cache/instance/lv_image_cache.c ****     switch(data->src_type) {
 285              		.loc 1 176 5 view .LVU75
 177:../../Middlewares/LVGL/GUI/lvgl/src/misc/cache/instance/lv_image_cache.c ****         case LV_IMAGE_SRC_FILE:
 178:../../Middlewares/LVGL/GUI/lvgl/src/misc/cache/instance/lv_image_cache.c ****             LV_LOG_USER(IMAGE_CACHE_DUMP_FORMAT "file\t%-12p\t%s", header->w, header->h, decoded->d
 179:../../Middlewares/LVGL/GUI/lvgl/src/misc/cache/instance/lv_image_cache.c ****                         lv_cache_entry_get_ref(entry), (void *)data->decoded, (char *)data->src);
 180:../../Middlewares/LVGL/GUI/lvgl/src/misc/cache/instance/lv_image_cache.c ****             break;
 181:../../Middlewares/LVGL/GUI/lvgl/src/misc/cache/instance/lv_image_cache.c ****         case LV_IMAGE_SRC_VARIABLE:
 182:../../Middlewares/LVGL/GUI/lvgl/src/misc/cache/instance/lv_image_cache.c ****             LV_LOG_USER(IMAGE_CACHE_DUMP_FORMAT "var \t%-12p\t%p", header->w, header->h, decoded->d
 183:../../Middlewares/LVGL/GUI/lvgl/src/misc/cache/instance/lv_image_cache.c ****                         lv_cache_entry_get_ref(entry), (void *)data->decoded, data->src);
 184:../../Middlewares/LVGL/GUI/lvgl/src/misc/cache/instance/lv_image_cache.c ****             break;
 185:../../Middlewares/LVGL/GUI/lvgl/src/misc/cache/instance/lv_image_cache.c ****         default:
 186:../../Middlewares/LVGL/GUI/lvgl/src/misc/cache/instance/lv_image_cache.c ****             LV_LOG_USER(IMAGE_CACHE_DUMP_FORMAT "unkn\t%-12p\t%p", header->w, header->h, decoded->d
ARM GAS  C:\Users\28576\AppData\Local\Temp\ccmR1ofs.s 			page 10


 286              		.loc 1 186 13 view .LVU76
 287              		.loc 1 186 13 view .LVU77
 288              		.loc 1 186 13 view .LVU78
 187:../../Middlewares/LVGL/GUI/lvgl/src/misc/cache/instance/lv_image_cache.c ****                         lv_cache_entry_get_ref(entry), (void *)data->decoded, data->src);
 188:../../Middlewares/LVGL/GUI/lvgl/src/misc/cache/instance/lv_image_cache.c ****             break;
 289              		.loc 1 188 13 view .LVU79
 189:../../Middlewares/LVGL/GUI/lvgl/src/misc/cache/instance/lv_image_cache.c ****     }
 190:../../Middlewares/LVGL/GUI/lvgl/src/misc/cache/instance/lv_image_cache.c **** }
 290              		.loc 1 190 1 is_stmt 0 view .LVU80
 291 000e 08BD     		pop	{r3, pc}
 292              	.L29:
 293              		.align	2
 294              	.L28:
 295 0010 00000000 		.word	lv_global
 296              		.cfi_endproc
 297              	.LFE196:
 299              		.section	.rodata.lv_image_cache_init.str1.4,"aMS",%progbits,1
 300              		.align	2
 301              	.LC2:
 302 0000 494D4147 		.ascii	"IMAGE\000"
 302      4500
 303              		.section	.text.lv_image_cache_init,"ax",%progbits
 304              		.align	1
 305              		.global	lv_image_cache_init
 306              		.syntax unified
 307              		.thumb
 308              		.thumb_func
 310              	lv_image_cache_init:
 311              	.LVL33:
 312              	.LFB187:
  56:../../Middlewares/LVGL/GUI/lvgl/src/misc/cache/instance/lv_image_cache.c ****     if(img_cache_p != NULL) {
 313              		.loc 1 56 1 is_stmt 1 view -0
 314              		.cfi_startproc
 315              		@ args = 0, pretend = 0, frame = 16
 316              		@ frame_needed = 0, uses_anonymous_args = 0
  57:../../Middlewares/LVGL/GUI/lvgl/src/misc/cache/instance/lv_image_cache.c ****         return LV_RESULT_OK;
 317              		.loc 1 57 5 view .LVU82
  57:../../Middlewares/LVGL/GUI/lvgl/src/misc/cache/instance/lv_image_cache.c ****         return LV_RESULT_OK;
 318              		.loc 1 57 8 is_stmt 0 view .LVU83
 319 0000 134B     		ldr	r3, .L38
 320 0002 D3F81C31 		ldr	r3, [r3, #284]
  57:../../Middlewares/LVGL/GUI/lvgl/src/misc/cache/instance/lv_image_cache.c ****         return LV_RESULT_OK;
 321              		.loc 1 57 7 view .LVU84
 322 0006 0BB1     		cbz	r3, .L37
  58:../../Middlewares/LVGL/GUI/lvgl/src/misc/cache/instance/lv_image_cache.c ****     }
 323              		.loc 1 58 16 view .LVU85
 324 0008 0120     		movs	r0, #1
 325              	.LVL34:
  70:../../Middlewares/LVGL/GUI/lvgl/src/misc/cache/instance/lv_image_cache.c **** 
 326              		.loc 1 70 1 view .LVU86
 327 000a 7047     		bx	lr
 328              	.LVL35:
 329              	.L37:
  56:../../Middlewares/LVGL/GUI/lvgl/src/misc/cache/instance/lv_image_cache.c ****     if(img_cache_p != NULL) {
 330              		.loc 1 56 1 view .LVU87
 331 000c 10B5     		push	{r4, lr}
 332              	.LCFI7:
ARM GAS  C:\Users\28576\AppData\Local\Temp\ccmR1ofs.s 			page 11


 333              		.cfi_def_cfa_offset 8
 334              		.cfi_offset 4, -8
 335              		.cfi_offset 14, -4
 336 000e 86B0     		sub	sp, sp, #24
 337              	.LCFI8:
 338              		.cfi_def_cfa_offset 32
 339 0010 8446     		mov	ip, r0
  61:../../Middlewares/LVGL/GUI/lvgl/src/misc/cache/instance/lv_image_cache.c ****     sizeof(lv_image_cache_data_t), size, (lv_cache_ops_t) {
 340              		.loc 1 61 5 is_stmt 1 view .LVU88
  62:../../Middlewares/LVGL/GUI/lvgl/src/misc/cache/instance/lv_image_cache.c ****         .compare_cb = (lv_cache_compare_cb_t) image_cache_compare_cb,
 341              		.loc 1 62 59 is_stmt 0 view .LVU89
 342 0012 104B     		ldr	r3, .L38+4
 343 0014 93E80700 		ldm	r3, {r0, r1, r2}
 344              	.LVL36:
  62:../../Middlewares/LVGL/GUI/lvgl/src/misc/cache/instance/lv_image_cache.c ****         .compare_cb = (lv_cache_compare_cb_t) image_cache_compare_cb,
 345              		.loc 1 62 59 view .LVU90
 346 0018 06AB     		add	r3, sp, #24
 347 001a 03E90700 		stmdb	r3, {r0, r1, r2}
  61:../../Middlewares/LVGL/GUI/lvgl/src/misc/cache/instance/lv_image_cache.c ****     sizeof(lv_image_cache_data_t), size, (lv_cache_ops_t) {
 348              		.loc 1 61 19 view .LVU91
 349 001e 13E90300 		ldmdb	r3, {r0, r1}
 350 0022 8DE80300 		stm	sp, {r0, r1}
 351 0026 039B     		ldr	r3, [sp, #12]
 352 0028 6246     		mov	r2, ip
 353 002a 1821     		movs	r1, #24
 354 002c 0A48     		ldr	r0, .L38+8
 355 002e FFF7FEFF 		bl	lv_cache_create
 356              	.LVL37:
  61:../../Middlewares/LVGL/GUI/lvgl/src/misc/cache/instance/lv_image_cache.c ****     sizeof(lv_image_cache_data_t), size, (lv_cache_ops_t) {
 357              		.loc 1 61 17 discriminator 1 view .LVU92
 358 0032 074B     		ldr	r3, .L38
 359 0034 1C46     		mov	r4, r3
 360 0036 C3F81C01 		str	r0, [r3, #284]
  68:../../Middlewares/LVGL/GUI/lvgl/src/misc/cache/instance/lv_image_cache.c ****     return img_cache_p != NULL ? LV_RESULT_OK : LV_RESULT_INVALID;
 361              		.loc 1 68 5 is_stmt 1 view .LVU93
 362 003a 0849     		ldr	r1, .L38+12
 363 003c FFF7FEFF 		bl	lv_cache_set_name
 364              	.LVL38:
  69:../../Middlewares/LVGL/GUI/lvgl/src/misc/cache/instance/lv_image_cache.c **** }
 365              		.loc 1 69 5 view .LVU94
  69:../../Middlewares/LVGL/GUI/lvgl/src/misc/cache/instance/lv_image_cache.c **** }
 366              		.loc 1 69 12 is_stmt 0 view .LVU95
 367 0040 D4F81C01 		ldr	r0, [r4, #284]
  69:../../Middlewares/LVGL/GUI/lvgl/src/misc/cache/instance/lv_image_cache.c **** }
 368              		.loc 1 69 47 view .LVU96
 369 0044 0038     		subs	r0, r0, #0
 370 0046 18BF     		it	ne
 371 0048 0120     		movne	r0, #1
  70:../../Middlewares/LVGL/GUI/lvgl/src/misc/cache/instance/lv_image_cache.c **** 
 372              		.loc 1 70 1 view .LVU97
 373 004a 06B0     		add	sp, sp, #24
 374              	.LCFI9:
 375              		.cfi_def_cfa_offset 8
 376              		@ sp needed
 377 004c 10BD     		pop	{r4, pc}
 378              	.L39:
 379 004e 00BF     		.align	2
ARM GAS  C:\Users\28576\AppData\Local\Temp\ccmR1ofs.s 			page 12


 380              	.L38:
 381 0050 00000000 		.word	lv_global
 382 0054 00000000 		.word	.LANCHOR0
 383 0058 00000000 		.word	lv_cache_class_lru_rb_size
 384 005c 00000000 		.word	.LC2
 385              		.cfi_endproc
 386              	.LFE187:
 388              		.section	.text.lv_image_cache_resize,"ax",%progbits
 389              		.align	1
 390              		.global	lv_image_cache_resize
 391              		.syntax unified
 392              		.thumb
 393              		.thumb_func
 395              	lv_image_cache_resize:
 396              	.LVL39:
 397              	.LFB188:
  73:../../Middlewares/LVGL/GUI/lvgl/src/misc/cache/instance/lv_image_cache.c ****     lv_cache_set_max_size(img_cache_p, new_size, NULL);
 398              		.loc 1 73 1 is_stmt 1 view -0
 399              		.cfi_startproc
 400              		@ args = 0, pretend = 0, frame = 0
 401              		@ frame_needed = 0, uses_anonymous_args = 0
  73:../../Middlewares/LVGL/GUI/lvgl/src/misc/cache/instance/lv_image_cache.c ****     lv_cache_set_max_size(img_cache_p, new_size, NULL);
 402              		.loc 1 73 1 is_stmt 0 view .LVU99
 403 0000 38B5     		push	{r3, r4, r5, lr}
 404              	.LCFI10:
 405              		.cfi_def_cfa_offset 16
 406              		.cfi_offset 3, -16
 407              		.cfi_offset 4, -12
 408              		.cfi_offset 5, -8
 409              		.cfi_offset 14, -4
 410 0002 0546     		mov	r5, r0
 411 0004 0C46     		mov	r4, r1
  74:../../Middlewares/LVGL/GUI/lvgl/src/misc/cache/instance/lv_image_cache.c ****     if(evict_now) {
 412              		.loc 1 74 5 is_stmt 1 view .LVU100
 413 0006 0022     		movs	r2, #0
 414 0008 0146     		mov	r1, r0
 415              	.LVL40:
  74:../../Middlewares/LVGL/GUI/lvgl/src/misc/cache/instance/lv_image_cache.c ****     if(evict_now) {
 416              		.loc 1 74 5 is_stmt 0 view .LVU101
 417 000a 074B     		ldr	r3, .L44
 418 000c D3F81C01 		ldr	r0, [r3, #284]
 419              	.LVL41:
  74:../../Middlewares/LVGL/GUI/lvgl/src/misc/cache/instance/lv_image_cache.c ****     if(evict_now) {
 420              		.loc 1 74 5 view .LVU102
 421 0010 FFF7FEFF 		bl	lv_cache_set_max_size
 422              	.LVL42:
  75:../../Middlewares/LVGL/GUI/lvgl/src/misc/cache/instance/lv_image_cache.c ****         lv_cache_reserve(img_cache_p, new_size, NULL);
 423              		.loc 1 75 5 is_stmt 1 view .LVU103
  75:../../Middlewares/LVGL/GUI/lvgl/src/misc/cache/instance/lv_image_cache.c ****         lv_cache_reserve(img_cache_p, new_size, NULL);
 424              		.loc 1 75 7 is_stmt 0 view .LVU104
 425 0014 04B9     		cbnz	r4, .L43
 426              	.L40:
  78:../../Middlewares/LVGL/GUI/lvgl/src/misc/cache/instance/lv_image_cache.c **** 
 427              		.loc 1 78 1 view .LVU105
 428 0016 38BD     		pop	{r3, r4, r5, pc}
 429              	.LVL43:
 430              	.L43:
ARM GAS  C:\Users\28576\AppData\Local\Temp\ccmR1ofs.s 			page 13


  76:../../Middlewares/LVGL/GUI/lvgl/src/misc/cache/instance/lv_image_cache.c ****     }
 431              		.loc 1 76 9 is_stmt 1 view .LVU106
 432 0018 0022     		movs	r2, #0
 433 001a 2946     		mov	r1, r5
 434 001c 024B     		ldr	r3, .L44
 435 001e D3F81C01 		ldr	r0, [r3, #284]
 436 0022 FFF7FEFF 		bl	lv_cache_reserve
 437              	.LVL44:
  78:../../Middlewares/LVGL/GUI/lvgl/src/misc/cache/instance/lv_image_cache.c **** 
 438              		.loc 1 78 1 is_stmt 0 view .LVU107
 439 0026 F6E7     		b	.L40
 440              	.L45:
 441              		.align	2
 442              	.L44:
 443 0028 00000000 		.word	lv_global
 444              		.cfi_endproc
 445              	.LFE188:
 447              		.section	.text.lv_image_cache_drop,"ax",%progbits
 448              		.align	1
 449              		.global	lv_image_cache_drop
 450              		.syntax unified
 451              		.thumb
 452              		.thumb_func
 454              	lv_image_cache_drop:
 455              	.LVL45:
 456              	.LFB189:
  81:../../Middlewares/LVGL/GUI/lvgl/src/misc/cache/instance/lv_image_cache.c ****     /*If user invalidate image, the header cache should be invalidated too.*/
 457              		.loc 1 81 1 is_stmt 1 view -0
 458              		.cfi_startproc
 459              		@ args = 0, pretend = 0, frame = 24
 460              		@ frame_needed = 0, uses_anonymous_args = 0
  81:../../Middlewares/LVGL/GUI/lvgl/src/misc/cache/instance/lv_image_cache.c ****     /*If user invalidate image, the header cache should be invalidated too.*/
 461              		.loc 1 81 1 is_stmt 0 view .LVU109
 462 0000 70B5     		push	{r4, r5, r6, lr}
 463              	.LCFI11:
 464              		.cfi_def_cfa_offset 16
 465              		.cfi_offset 4, -16
 466              		.cfi_offset 5, -12
 467              		.cfi_offset 6, -8
 468              		.cfi_offset 14, -4
 469 0002 86B0     		sub	sp, sp, #24
 470              	.LCFI12:
 471              		.cfi_def_cfa_offset 40
 472 0004 0646     		mov	r6, r0
  83:../../Middlewares/LVGL/GUI/lvgl/src/misc/cache/instance/lv_image_cache.c **** 
 473              		.loc 1 83 5 is_stmt 1 view .LVU110
 474 0006 FFF7FEFF 		bl	lv_image_header_cache_drop
 475              	.LVL46:
  85:../../Middlewares/LVGL/GUI/lvgl/src/misc/cache/instance/lv_image_cache.c ****         lv_cache_drop_all(img_cache_p, NULL);
 476              		.loc 1 85 5 view .LVU111
  85:../../Middlewares/LVGL/GUI/lvgl/src/misc/cache/instance/lv_image_cache.c ****         lv_cache_drop_all(img_cache_p, NULL);
 477              		.loc 1 85 7 is_stmt 0 view .LVU112
 478 000a AEB1     		cbz	r6, .L50
  90:../../Middlewares/LVGL/GUI/lvgl/src/misc/cache/instance/lv_image_cache.c ****         .src = src,
 479              		.loc 1 90 5 is_stmt 1 view .LVU113
  90:../../Middlewares/LVGL/GUI/lvgl/src/misc/cache/instance/lv_image_cache.c ****         .src = src,
 480              		.loc 1 90 27 is_stmt 0 view .LVU114
ARM GAS  C:\Users\28576\AppData\Local\Temp\ccmR1ofs.s 			page 14


 481 000c 0024     		movs	r4, #0
 482 000e 0094     		str	r4, [sp]
 483 0010 0194     		str	r4, [sp, #4]
 484 0012 0294     		str	r4, [sp, #8]
 485 0014 0394     		str	r4, [sp, #12]
 486 0016 0494     		str	r4, [sp, #16]
 487 0018 0594     		str	r4, [sp, #20]
 488 001a 0196     		str	r6, [sp, #4]
  92:../../Middlewares/LVGL/GUI/lvgl/src/misc/cache/instance/lv_image_cache.c ****     };
 489              		.loc 1 92 21 view .LVU115
 490 001c 3046     		mov	r0, r6
 491 001e FFF7FEFF 		bl	lv_image_src_get_type
 492              	.LVL47:
  90:../../Middlewares/LVGL/GUI/lvgl/src/misc/cache/instance/lv_image_cache.c ****         .src = src,
 493              		.loc 1 90 27 view .LVU116
 494 0022 8DF80800 		strb	r0, [sp, #8]
  95:../../Middlewares/LVGL/GUI/lvgl/src/misc/cache/instance/lv_image_cache.c **** }
 495              		.loc 1 95 5 is_stmt 1 view .LVU117
 496 0026 2246     		mov	r2, r4
 497 0028 6946     		mov	r1, sp
 498 002a 074B     		ldr	r3, .L51
 499 002c D3F81C01 		ldr	r0, [r3, #284]
 500 0030 FFF7FEFF 		bl	lv_cache_drop
 501              	.LVL48:
 502              	.L46:
  96:../../Middlewares/LVGL/GUI/lvgl/src/misc/cache/instance/lv_image_cache.c **** 
 503              		.loc 1 96 1 is_stmt 0 view .LVU118
 504 0034 06B0     		add	sp, sp, #24
 505              	.LCFI13:
 506              		.cfi_remember_state
 507              		.cfi_def_cfa_offset 16
 508              		@ sp needed
 509 0036 70BD     		pop	{r4, r5, r6, pc}
 510              	.LVL49:
 511              	.L50:
 512              	.LCFI14:
 513              		.cfi_restore_state
  86:../../Middlewares/LVGL/GUI/lvgl/src/misc/cache/instance/lv_image_cache.c ****         return;
 514              		.loc 1 86 9 is_stmt 1 view .LVU119
 515 0038 3146     		mov	r1, r6
 516 003a 034B     		ldr	r3, .L51
 517 003c D3F81C01 		ldr	r0, [r3, #284]
 518 0040 FFF7FEFF 		bl	lv_cache_drop_all
 519              	.LVL50:
  87:../../Middlewares/LVGL/GUI/lvgl/src/misc/cache/instance/lv_image_cache.c ****     }
 520              		.loc 1 87 9 view .LVU120
 521 0044 F6E7     		b	.L46
 522              	.L52:
 523 0046 00BF     		.align	2
 524              	.L51:
 525 0048 00000000 		.word	lv_global
 526              		.cfi_endproc
 527              	.LFE189:
 529              		.section	.text.lv_image_cache_is_enabled,"ax",%progbits
 530              		.align	1
 531              		.global	lv_image_cache_is_enabled
 532              		.syntax unified
ARM GAS  C:\Users\28576\AppData\Local\Temp\ccmR1ofs.s 			page 15


 533              		.thumb
 534              		.thumb_func
 536              	lv_image_cache_is_enabled:
 537              	.LFB190:
  99:../../Middlewares/LVGL/GUI/lvgl/src/misc/cache/instance/lv_image_cache.c ****     return lv_cache_is_enabled(img_cache_p);
 538              		.loc 1 99 1 view -0
 539              		.cfi_startproc
 540              		@ args = 0, pretend = 0, frame = 0
 541              		@ frame_needed = 0, uses_anonymous_args = 0
 542 0000 08B5     		push	{r3, lr}
 543              	.LCFI15:
 544              		.cfi_def_cfa_offset 8
 545              		.cfi_offset 3, -8
 546              		.cfi_offset 14, -4
 100:../../Middlewares/LVGL/GUI/lvgl/src/misc/cache/instance/lv_image_cache.c **** }
 547              		.loc 1 100 5 view .LVU122
 100:../../Middlewares/LVGL/GUI/lvgl/src/misc/cache/instance/lv_image_cache.c **** }
 548              		.loc 1 100 12 is_stmt 0 view .LVU123
 549 0002 034B     		ldr	r3, .L55
 550 0004 D3F81C01 		ldr	r0, [r3, #284]
 551 0008 FFF7FEFF 		bl	lv_cache_is_enabled
 552              	.LVL51:
 101:../../Middlewares/LVGL/GUI/lvgl/src/misc/cache/instance/lv_image_cache.c **** 
 553              		.loc 1 101 1 view .LVU124
 554 000c 08BD     		pop	{r3, pc}
 555              	.L56:
 556 000e 00BF     		.align	2
 557              	.L55:
 558 0010 00000000 		.word	lv_global
 559              		.cfi_endproc
 560              	.LFE190:
 562              		.section	.text.lv_image_cache_iter_create,"ax",%progbits
 563              		.align	1
 564              		.global	lv_image_cache_iter_create
 565              		.syntax unified
 566              		.thumb
 567              		.thumb_func
 569              	lv_image_cache_iter_create:
 570              	.LFB191:
 104:../../Middlewares/LVGL/GUI/lvgl/src/misc/cache/instance/lv_image_cache.c ****     return lv_cache_iter_create(img_cache_p);
 571              		.loc 1 104 1 is_stmt 1 view -0
 572              		.cfi_startproc
 573              		@ args = 0, pretend = 0, frame = 0
 574              		@ frame_needed = 0, uses_anonymous_args = 0
 575 0000 08B5     		push	{r3, lr}
 576              	.LCFI16:
 577              		.cfi_def_cfa_offset 8
 578              		.cfi_offset 3, -8
 579              		.cfi_offset 14, -4
 105:../../Middlewares/LVGL/GUI/lvgl/src/misc/cache/instance/lv_image_cache.c **** }
 580              		.loc 1 105 5 view .LVU126
 105:../../Middlewares/LVGL/GUI/lvgl/src/misc/cache/instance/lv_image_cache.c **** }
 581              		.loc 1 105 12 is_stmt 0 view .LVU127
 582 0002 034B     		ldr	r3, .L59
 583 0004 D3F81C01 		ldr	r0, [r3, #284]
 584 0008 FFF7FEFF 		bl	lv_cache_iter_create
 585              	.LVL52:
ARM GAS  C:\Users\28576\AppData\Local\Temp\ccmR1ofs.s 			page 16


 106:../../Middlewares/LVGL/GUI/lvgl/src/misc/cache/instance/lv_image_cache.c **** 
 586              		.loc 1 106 1 view .LVU128
 587 000c 08BD     		pop	{r3, pc}
 588              	.L60:
 589 000e 00BF     		.align	2
 590              	.L59:
 591 0010 00000000 		.word	lv_global
 592              		.cfi_endproc
 593              	.LFE191:
 595              		.section	.text.lv_image_cache_dump,"ax",%progbits
 596              		.align	1
 597              		.global	lv_image_cache_dump
 598              		.syntax unified
 599              		.thumb
 600              		.thumb_func
 602              	lv_image_cache_dump:
 603              	.LFB192:
 109:../../Middlewares/LVGL/GUI/lvgl/src/misc/cache/instance/lv_image_cache.c ****     lv_iter_t * iter = lv_image_cache_iter_create();
 604              		.loc 1 109 1 is_stmt 1 view -0
 605              		.cfi_startproc
 606              		@ args = 0, pretend = 0, frame = 0
 607              		@ frame_needed = 0, uses_anonymous_args = 0
 608 0000 08B5     		push	{r3, lr}
 609              	.LCFI17:
 610              		.cfi_def_cfa_offset 8
 611              		.cfi_offset 3, -8
 612              		.cfi_offset 14, -4
 110:../../Middlewares/LVGL/GUI/lvgl/src/misc/cache/instance/lv_image_cache.c ****     if(iter == NULL) return;
 613              		.loc 1 110 5 view .LVU130
 110:../../Middlewares/LVGL/GUI/lvgl/src/misc/cache/instance/lv_image_cache.c ****     if(iter == NULL) return;
 614              		.loc 1 110 24 is_stmt 0 view .LVU131
 615 0002 FFF7FEFF 		bl	lv_image_cache_iter_create
 616              	.LVL53:
 111:../../Middlewares/LVGL/GUI/lvgl/src/misc/cache/instance/lv_image_cache.c **** 
 617              		.loc 1 111 5 is_stmt 1 view .LVU132
 111:../../Middlewares/LVGL/GUI/lvgl/src/misc/cache/instance/lv_image_cache.c **** 
 618              		.loc 1 111 7 is_stmt 0 view .LVU133
 619 0006 10B1     		cbz	r0, .L61
 113:../../Middlewares/LVGL/GUI/lvgl/src/misc/cache/instance/lv_image_cache.c ****     LV_LOG_USER("\tsize\tdata_size\tcf\trc\ttype\tdecoded\t\t\tsrc");
 620              		.loc 1 113 5 is_stmt 1 view .LVU134
 113:../../Middlewares/LVGL/GUI/lvgl/src/misc/cache/instance/lv_image_cache.c ****     LV_LOG_USER("\tsize\tdata_size\tcf\trc\ttype\tdecoded\t\t\tsrc");
 621              		.loc 1 113 5 view .LVU135
 113:../../Middlewares/LVGL/GUI/lvgl/src/misc/cache/instance/lv_image_cache.c ****     LV_LOG_USER("\tsize\tdata_size\tcf\trc\ttype\tdecoded\t\t\tsrc");
 622              		.loc 1 113 5 view .LVU136
 114:../../Middlewares/LVGL/GUI/lvgl/src/misc/cache/instance/lv_image_cache.c ****     lv_iter_inspect(iter, iter_inspect_cb);
 623              		.loc 1 114 5 view .LVU137
 114:../../Middlewares/LVGL/GUI/lvgl/src/misc/cache/instance/lv_image_cache.c ****     lv_iter_inspect(iter, iter_inspect_cb);
 624              		.loc 1 114 5 view .LVU138
 114:../../Middlewares/LVGL/GUI/lvgl/src/misc/cache/instance/lv_image_cache.c ****     lv_iter_inspect(iter, iter_inspect_cb);
 625              		.loc 1 114 5 view .LVU139
 115:../../Middlewares/LVGL/GUI/lvgl/src/misc/cache/instance/lv_image_cache.c **** }
 626              		.loc 1 115 5 view .LVU140
 627 0008 0149     		ldr	r1, .L64
 628 000a FFF7FEFF 		bl	lv_iter_inspect
 629              	.LVL54:
 630              	.L61:
 116:../../Middlewares/LVGL/GUI/lvgl/src/misc/cache/instance/lv_image_cache.c **** 
ARM GAS  C:\Users\28576\AppData\Local\Temp\ccmR1ofs.s 			page 17


 631              		.loc 1 116 1 is_stmt 0 view .LVU141
 632 000e 08BD     		pop	{r3, pc}
 633              	.L65:
 634              		.align	2
 635              	.L64:
 636 0010 00000000 		.word	iter_inspect_cb
 637              		.cfi_endproc
 638              	.LFE192:
 640              		.section	.rodata
 641              		.align	2
 642              		.set	.LANCHOR0,. + 0
 643              	.LC1:
 644 0000 00000000 		.word	image_cache_compare_cb
 645 0004 00000000 		.word	0
 646 0008 00000000 		.word	image_cache_free_cb
 647              		.text
 648              	.Letext0:
 649              		.file 2 "C:/Users/28576/AppData/Roaming/xPacks/@xpack-dev-tools/arm-none-eabi-gcc/15.2.1-1.1.1/.co
 650              		.file 3 "C:/Users/28576/AppData/Roaming/xPacks/@xpack-dev-tools/arm-none-eabi-gcc/15.2.1-1.1.1/.co
 651              		.file 4 "C:/Users/28576/AppData/Roaming/xPacks/@xpack-dev-tools/arm-none-eabi-gcc/15.2.1-1.1.1/.co
 652              		.file 5 "H:/STM32H7/RGB_LVGL/Middlewares/LVGL/GUI/lvgl/src/misc/lv_types.h"
 653              		.file 6 "H:/STM32H7/RGB_LVGL/Middlewares/LVGL/GUI/lvgl/src/draw/lv_draw.h"
 654              		.file 7 "H:/STM32H7/RGB_LVGL/Middlewares/LVGL/GUI/lvgl/src/draw/lv_draw_private.h"
 655              		.file 8 "H:/STM32H7/RGB_LVGL/Middlewares/LVGL/GUI/lvgl/src/misc/lv_timer_private.h"
 656              		.file 9 "H:/STM32H7/RGB_LVGL/Middlewares/LVGL/GUI/lvgl/src/draw/lv_image_decoder_private.h"
 657              		.file 10 "H:/STM32H7/RGB_LVGL/Middlewares/LVGL/GUI/lvgl/src/draw/lv_draw_image.h"
 658              		.file 11 "H:/STM32H7/RGB_LVGL/Middlewares/LVGL/GUI/lvgl/src/misc/cache/lv_cache_private.h"
 659              		.file 12 "H:/STM32H7/RGB_LVGL/Middlewares/LVGL/GUI/lvgl/src/draw/lv_draw_buf_private.h"
 660              		.file 13 "H:/STM32H7/RGB_LVGL/Middlewares/LVGL/GUI/lvgl/src/draw/lv_draw_buf.h"
 661              		.file 14 "H:/STM32H7/RGB_LVGL/Middlewares/LVGL/GUI/lvgl/src/misc/lv_area.h"
 662              		.file 15 "H:/STM32H7/RGB_LVGL/Middlewares/LVGL/GUI/lvgl/src/misc/lv_color.h"
 663              		.file 16 "H:/STM32H7/RGB_LVGL/Middlewares/LVGL/GUI/lvgl/src/draw/lv_image_dsc.h"
 664              		.file 17 "H:/STM32H7/RGB_LVGL/Middlewares/LVGL/GUI/lvgl/src/misc/lv_fs.h"
 665              		.file 18 "H:/STM32H7/RGB_LVGL/Middlewares/LVGL/GUI/lvgl/src/draw/lv_image_decoder.h"
 666              		.file 19 "H:/STM32H7/RGB_LVGL/Middlewares/LVGL/GUI/lvgl/src/osal/lv_os_none.h"
 667              		.file 20 "H:/STM32H7/RGB_LVGL/Middlewares/LVGL/GUI/lvgl/src/tick/lv_tick.h"
 668              		.file 21 "H:/STM32H7/RGB_LVGL/Middlewares/LVGL/GUI/lvgl/src/misc/lv_ll.h"
 669              		.file 22 "H:/STM32H7/RGB_LVGL/Middlewares/LVGL/GUI/lvgl/src/misc/lv_timer.h"
 670              		.file 23 "H:/STM32H7/RGB_LVGL/Middlewares/LVGL/GUI/lvgl/src/layouts/lv_layout.h"
 671              		.file 24 "H:/STM32H7/RGB_LVGL/Middlewares/LVGL/GUI/lvgl/src/misc/lv_style.h"
 672              		.file 25 "H:/STM32H7/RGB_LVGL/Middlewares/LVGL/GUI/lvgl/src/stdlib/builtin/lv_tlsf.h"
 673              		.file 26 "H:/STM32H7/RGB_LVGL/Middlewares/LVGL/GUI/lvgl/src/misc/lv_anim_private.h"
 674              		.file 27 "H:/STM32H7/RGB_LVGL/Middlewares/LVGL/GUI/lvgl/src/tick/lv_tick_private.h"
 675              		.file 28 "H:/STM32H7/RGB_LVGL/Middlewares/LVGL/GUI/lvgl/src/draw/sw/lv_draw_sw_mask_private.h"
 676              		.file 29 "H:/STM32H7/RGB_LVGL/Middlewares/LVGL/GUI/lvgl/src/stdlib/builtin/lv_tlsf_private.h"
 677              		.file 30 "H:/STM32H7/RGB_LVGL/Middlewares/LVGL/GUI/lvgl/src/layouts/lv_layout_private.h"
 678              		.file 31 "H:/STM32H7/RGB_LVGL/Middlewares/LVGL/GUI/lvgl/src/core/lv_global.h"
 679              		.file 32 "H:/STM32H7/RGB_LVGL/Middlewares/LVGL/GUI/lvgl/src/misc/cache/class/lv_cache_lru_rb.h"
 680              		.file 33 "H:/STM32H7/RGB_LVGL/Middlewares/LVGL/GUI/lvgl/src/misc/lv_iter.h"
 681              		.file 34 "H:/STM32H7/RGB_LVGL/Middlewares/LVGL/GUI/lvgl/src/misc/cache/lv_cache_entry.h"
 682              		.file 35 "H:/STM32H7/RGB_LVGL/Middlewares/LVGL/GUI/lvgl/src/misc/cache/lv_cache.h"
 683              		.file 36 "H:/STM32H7/RGB_LVGL/Middlewares/LVGL/GUI/lvgl/src/misc/cache/instance/lv_image_header_ca
 684              		.file 37 "H:/STM32H7/RGB_LVGL/Middlewares/LVGL/GUI/lvgl/src/stdlib/lv_string.h"
 685              		.file 38 "H:/STM32H7/RGB_LVGL/Middlewares/LVGL/GUI/lvgl/src/stdlib/lv_mem.h"
ARM GAS  C:\Users\28576\AppData\Local\Temp\ccmR1ofs.s 			page 18

