ARM GAS  C:\Users\28576\AppData\Local\Temp\cc8rRXGp.s 			page 1


   1              		.cpu cortex-m7
   2              		.arch armv7e-m
   3              		.fpu fpv5-d16
   4              		.eabi_attribute 28, 1
   5              		.eabi_attribute 20, 1
   6              		.eabi_attribute 21, 1
   7              		.eabi_attribute 23, 3
   8              		.eabi_attribute 24, 1
   9              		.eabi_attribute 25, 1
  10              		.eabi_attribute 26, 1
  11              		.eabi_attribute 30, 1
  12              		.eabi_attribute 34, 1
  13              		.eabi_attribute 18, 4
  14              		.file	"lv_init.c"
  15              		.text
  16              	.Ltext0:
  17              		.cfi_sections	.debug_frame
  18              		.file 1 "../../Middlewares/LVGL/GUI/lvgl/src/lv_init.c"
  19              		.section	.text.lv_global_init,"ax",%progbits
  20              		.align	1
  21              		.syntax unified
  22              		.thumb
  23              		.thumb_func
  25              	lv_global_init:
  26              	.LVL0:
  27              	.LFB187:
   1:../../Middlewares/LVGL/GUI/lvgl/src/lv_init.c **** /**
   2:../../Middlewares/LVGL/GUI/lvgl/src/lv_init.c ****  * @file lv_init.c
   3:../../Middlewares/LVGL/GUI/lvgl/src/lv_init.c ****  *
   4:../../Middlewares/LVGL/GUI/lvgl/src/lv_init.c ****  */
   5:../../Middlewares/LVGL/GUI/lvgl/src/lv_init.c **** 
   6:../../Middlewares/LVGL/GUI/lvgl/src/lv_init.c **** /*********************
   7:../../Middlewares/LVGL/GUI/lvgl/src/lv_init.c ****  *      INCLUDES
   8:../../Middlewares/LVGL/GUI/lvgl/src/lv_init.c ****  *********************/
   9:../../Middlewares/LVGL/GUI/lvgl/src/lv_init.c **** #include "misc/lv_timer_private.h"
  10:../../Middlewares/LVGL/GUI/lvgl/src/lv_init.c **** #include "misc/lv_profiler_builtin_private.h"
  11:../../Middlewares/LVGL/GUI/lvgl/src/lv_init.c **** #include "misc/lv_anim_private.h"
  12:../../Middlewares/LVGL/GUI/lvgl/src/lv_init.c **** #include "draw/lv_image_decoder_private.h"
  13:../../Middlewares/LVGL/GUI/lvgl/src/lv_init.c **** #include "draw/lv_draw_buf_private.h"
  14:../../Middlewares/LVGL/GUI/lvgl/src/lv_init.c **** #include "core/lv_refr_private.h"
  15:../../Middlewares/LVGL/GUI/lvgl/src/lv_init.c **** #include "core/lv_obj_style_private.h"
  16:../../Middlewares/LVGL/GUI/lvgl/src/lv_init.c **** #include "core/lv_group_private.h"
  17:../../Middlewares/LVGL/GUI/lvgl/src/lv_init.c **** #include "lv_init.h"
  18:../../Middlewares/LVGL/GUI/lvgl/src/lv_init.c **** #include "core/lv_global.h"
  19:../../Middlewares/LVGL/GUI/lvgl/src/lv_init.c **** #include "core/lv_obj.h"
  20:../../Middlewares/LVGL/GUI/lvgl/src/lv_init.c **** #include "display/lv_display_private.h"
  21:../../Middlewares/LVGL/GUI/lvgl/src/lv_init.c **** #include "indev/lv_indev_private.h"
  22:../../Middlewares/LVGL/GUI/lvgl/src/lv_init.c **** #include "layouts/lv_layout_private.h"
  23:../../Middlewares/LVGL/GUI/lvgl/src/lv_init.c **** #include "libs/bin_decoder/lv_bin_decoder.h"
  24:../../Middlewares/LVGL/GUI/lvgl/src/lv_init.c **** #include "libs/bmp/lv_bmp.h"
  25:../../Middlewares/LVGL/GUI/lvgl/src/lv_init.c **** #include "libs/ffmpeg/lv_ffmpeg.h"
  26:../../Middlewares/LVGL/GUI/lvgl/src/lv_init.c **** #include "libs/freetype/lv_freetype.h"
  27:../../Middlewares/LVGL/GUI/lvgl/src/lv_init.c **** #include "libs/fsdrv/lv_fsdrv.h"
  28:../../Middlewares/LVGL/GUI/lvgl/src/lv_init.c **** #include "libs/gif/lv_gif.h"
  29:../../Middlewares/LVGL/GUI/lvgl/src/lv_init.c **** #include "libs/tjpgd/lv_tjpgd.h"
  30:../../Middlewares/LVGL/GUI/lvgl/src/lv_init.c **** #include "libs/libjpeg_turbo/lv_libjpeg_turbo.h"
  31:../../Middlewares/LVGL/GUI/lvgl/src/lv_init.c **** #include "libs/lodepng/lv_lodepng.h"
ARM GAS  C:\Users\28576\AppData\Local\Temp\cc8rRXGp.s 			page 2


  32:../../Middlewares/LVGL/GUI/lvgl/src/lv_init.c **** #include "libs/libpng/lv_libpng.h"
  33:../../Middlewares/LVGL/GUI/lvgl/src/lv_init.c **** #include "libs/tiny_ttf/lv_tiny_ttf.h"
  34:../../Middlewares/LVGL/GUI/lvgl/src/lv_init.c **** #include "draw/lv_draw.h"
  35:../../Middlewares/LVGL/GUI/lvgl/src/lv_init.c **** #include "misc/lv_async.h"
  36:../../Middlewares/LVGL/GUI/lvgl/src/lv_init.c **** #include "misc/lv_fs_private.h"
  37:../../Middlewares/LVGL/GUI/lvgl/src/lv_init.c **** #include "widgets/span/lv_span.h"
  38:../../Middlewares/LVGL/GUI/lvgl/src/lv_init.c **** #include "themes/simple/lv_theme_simple.h"
  39:../../Middlewares/LVGL/GUI/lvgl/src/lv_init.c **** #include "misc/lv_fs.h"
  40:../../Middlewares/LVGL/GUI/lvgl/src/lv_init.c **** #include "osal/lv_os_private.h"
  41:../../Middlewares/LVGL/GUI/lvgl/src/lv_init.c **** #include "others/sysmon/lv_sysmon_private.h"
  42:../../Middlewares/LVGL/GUI/lvgl/src/lv_init.c **** #include "others/xml/lv_xml.h"
  43:../../Middlewares/LVGL/GUI/lvgl/src/lv_init.c **** 
  44:../../Middlewares/LVGL/GUI/lvgl/src/lv_init.c **** #if LV_USE_SVG
  45:../../Middlewares/LVGL/GUI/lvgl/src/lv_init.c ****     #include "libs/svg/lv_svg_decoder.h"
  46:../../Middlewares/LVGL/GUI/lvgl/src/lv_init.c **** #endif
  47:../../Middlewares/LVGL/GUI/lvgl/src/lv_init.c **** 
  48:../../Middlewares/LVGL/GUI/lvgl/src/lv_init.c **** #if LV_USE_NEMA_GFX
  49:../../Middlewares/LVGL/GUI/lvgl/src/lv_init.c ****     #include "draw/nema_gfx/lv_draw_nema_gfx.h"
  50:../../Middlewares/LVGL/GUI/lvgl/src/lv_init.c **** #endif
  51:../../Middlewares/LVGL/GUI/lvgl/src/lv_init.c **** #if LV_USE_DRAW_VGLITE
  52:../../Middlewares/LVGL/GUI/lvgl/src/lv_init.c ****     #include "draw/nxp/vglite/lv_draw_vglite.h"
  53:../../Middlewares/LVGL/GUI/lvgl/src/lv_init.c **** #endif
  54:../../Middlewares/LVGL/GUI/lvgl/src/lv_init.c **** #if LV_USE_PXP
  55:../../Middlewares/LVGL/GUI/lvgl/src/lv_init.c ****     #if LV_USE_DRAW_PXP || LV_USE_ROTATE_PXP
  56:../../Middlewares/LVGL/GUI/lvgl/src/lv_init.c ****         #include "draw/nxp/pxp/lv_draw_pxp.h"
  57:../../Middlewares/LVGL/GUI/lvgl/src/lv_init.c ****     #endif
  58:../../Middlewares/LVGL/GUI/lvgl/src/lv_init.c **** #endif
  59:../../Middlewares/LVGL/GUI/lvgl/src/lv_init.c **** #if LV_USE_DRAW_G2D
  60:../../Middlewares/LVGL/GUI/lvgl/src/lv_init.c ****     #include "draw/nxp/g2d/lv_draw_g2d.h"
  61:../../Middlewares/LVGL/GUI/lvgl/src/lv_init.c **** #endif
  62:../../Middlewares/LVGL/GUI/lvgl/src/lv_init.c **** #if LV_USE_DRAW_DAVE2D
  63:../../Middlewares/LVGL/GUI/lvgl/src/lv_init.c ****     #include "draw/renesas/dave2d/lv_draw_dave2d.h"
  64:../../Middlewares/LVGL/GUI/lvgl/src/lv_init.c **** #endif
  65:../../Middlewares/LVGL/GUI/lvgl/src/lv_init.c **** #if LV_USE_DRAW_SDL
  66:../../Middlewares/LVGL/GUI/lvgl/src/lv_init.c ****     #include "draw/sdl/lv_draw_sdl.h"
  67:../../Middlewares/LVGL/GUI/lvgl/src/lv_init.c **** #endif
  68:../../Middlewares/LVGL/GUI/lvgl/src/lv_init.c **** #if LV_USE_DRAW_VG_LITE
  69:../../Middlewares/LVGL/GUI/lvgl/src/lv_init.c ****     #include "draw/vg_lite/lv_draw_vg_lite.h"
  70:../../Middlewares/LVGL/GUI/lvgl/src/lv_init.c **** #endif
  71:../../Middlewares/LVGL/GUI/lvgl/src/lv_init.c **** #if LV_USE_DRAW_DMA2D
  72:../../Middlewares/LVGL/GUI/lvgl/src/lv_init.c ****     #include "draw/dma2d/lv_draw_dma2d.h"
  73:../../Middlewares/LVGL/GUI/lvgl/src/lv_init.c **** #endif
  74:../../Middlewares/LVGL/GUI/lvgl/src/lv_init.c **** #if LV_USE_DRAW_OPENGLES
  75:../../Middlewares/LVGL/GUI/lvgl/src/lv_init.c ****     #include "draw/opengles/lv_draw_opengles.h"
  76:../../Middlewares/LVGL/GUI/lvgl/src/lv_init.c **** #endif
  77:../../Middlewares/LVGL/GUI/lvgl/src/lv_init.c **** #if LV_USE_WINDOWS
  78:../../Middlewares/LVGL/GUI/lvgl/src/lv_init.c ****     #include "drivers/windows/lv_windows_context.h"
  79:../../Middlewares/LVGL/GUI/lvgl/src/lv_init.c **** #endif
  80:../../Middlewares/LVGL/GUI/lvgl/src/lv_init.c **** #if LV_USE_UEFI
  81:../../Middlewares/LVGL/GUI/lvgl/src/lv_init.c ****     #include "drivers/uefi/lv_uefi_context.h"
  82:../../Middlewares/LVGL/GUI/lvgl/src/lv_init.c **** #endif
  83:../../Middlewares/LVGL/GUI/lvgl/src/lv_init.c **** #if LV_USE_EVDEV
  84:../../Middlewares/LVGL/GUI/lvgl/src/lv_init.c ****     #include "drivers/evdev/lv_evdev_private.h"
  85:../../Middlewares/LVGL/GUI/lvgl/src/lv_init.c **** #endif
  86:../../Middlewares/LVGL/GUI/lvgl/src/lv_init.c **** 
  87:../../Middlewares/LVGL/GUI/lvgl/src/lv_init.c **** /*********************
  88:../../Middlewares/LVGL/GUI/lvgl/src/lv_init.c ****  *      DEFINES
ARM GAS  C:\Users\28576\AppData\Local\Temp\cc8rRXGp.s 			page 3


  89:../../Middlewares/LVGL/GUI/lvgl/src/lv_init.c ****  *********************/
  90:../../Middlewares/LVGL/GUI/lvgl/src/lv_init.c **** #define lv_initialized  LV_GLOBAL_DEFAULT()->inited
  91:../../Middlewares/LVGL/GUI/lvgl/src/lv_init.c **** #define lv_deinit_in_progress  LV_GLOBAL_DEFAULT()->deinit_in_progress
  92:../../Middlewares/LVGL/GUI/lvgl/src/lv_init.c **** 
  93:../../Middlewares/LVGL/GUI/lvgl/src/lv_init.c **** /**********************
  94:../../Middlewares/LVGL/GUI/lvgl/src/lv_init.c ****  *      TYPEDEFS
  95:../../Middlewares/LVGL/GUI/lvgl/src/lv_init.c ****  **********************/
  96:../../Middlewares/LVGL/GUI/lvgl/src/lv_init.c **** 
  97:../../Middlewares/LVGL/GUI/lvgl/src/lv_init.c **** /**********************
  98:../../Middlewares/LVGL/GUI/lvgl/src/lv_init.c ****  *  STATIC PROTOTYPES
  99:../../Middlewares/LVGL/GUI/lvgl/src/lv_init.c ****  **********************/
 100:../../Middlewares/LVGL/GUI/lvgl/src/lv_init.c **** 
 101:../../Middlewares/LVGL/GUI/lvgl/src/lv_init.c **** /**********************
 102:../../Middlewares/LVGL/GUI/lvgl/src/lv_init.c ****  *  STATIC VARIABLES
 103:../../Middlewares/LVGL/GUI/lvgl/src/lv_init.c ****  **********************/
 104:../../Middlewares/LVGL/GUI/lvgl/src/lv_init.c **** #if LV_ENABLE_GLOBAL_CUSTOM == 0
 105:../../Middlewares/LVGL/GUI/lvgl/src/lv_init.c ****     lv_global_t lv_global;
 106:../../Middlewares/LVGL/GUI/lvgl/src/lv_init.c **** #endif
 107:../../Middlewares/LVGL/GUI/lvgl/src/lv_init.c **** 
 108:../../Middlewares/LVGL/GUI/lvgl/src/lv_init.c **** /**********************
 109:../../Middlewares/LVGL/GUI/lvgl/src/lv_init.c ****  *      MACROS
 110:../../Middlewares/LVGL/GUI/lvgl/src/lv_init.c ****  **********************/
 111:../../Middlewares/LVGL/GUI/lvgl/src/lv_init.c **** 
 112:../../Middlewares/LVGL/GUI/lvgl/src/lv_init.c **** #ifndef LV_GLOBAL_INIT
 113:../../Middlewares/LVGL/GUI/lvgl/src/lv_init.c ****     #define LV_GLOBAL_INIT(__GLOBAL_PTR)    lv_global_init((lv_global_t *)(__GLOBAL_PTR))
 114:../../Middlewares/LVGL/GUI/lvgl/src/lv_init.c **** #endif
 115:../../Middlewares/LVGL/GUI/lvgl/src/lv_init.c **** 
 116:../../Middlewares/LVGL/GUI/lvgl/src/lv_init.c **** /**********************
 117:../../Middlewares/LVGL/GUI/lvgl/src/lv_init.c ****  *   GLOBAL FUNCTIONS
 118:../../Middlewares/LVGL/GUI/lvgl/src/lv_init.c ****  **********************/
 119:../../Middlewares/LVGL/GUI/lvgl/src/lv_init.c **** static inline void lv_global_init(lv_global_t * global)
 120:../../Middlewares/LVGL/GUI/lvgl/src/lv_init.c **** {
  28              		.loc 1 120 1 view -0
  29              		.cfi_startproc
  30              		@ args = 0, pretend = 0, frame = 0
  31              		@ frame_needed = 0, uses_anonymous_args = 0
 121:../../Middlewares/LVGL/GUI/lvgl/src/lv_init.c ****     LV_ASSERT_NULL(global);
  32              		.loc 1 121 5 view .LVU1
  33              		.loc 1 121 5 view .LVU2
  34 0000 F8B1     		cbz	r0, .L3
 120:../../Middlewares/LVGL/GUI/lvgl/src/lv_init.c ****     LV_ASSERT_NULL(global);
  35              		.loc 1 120 1 is_stmt 0 view .LVU3
  36 0002 10B5     		push	{r4, lr}
  37              	.LCFI0:
  38              		.cfi_def_cfa_offset 8
  39              		.cfi_offset 4, -8
  40              		.cfi_offset 14, -4
  41 0004 0446     		mov	r4, r0
  42              		.loc 1 121 5 is_stmt 1 view .LVU4
  43              		.loc 1 121 27 view .LVU5
 122:../../Middlewares/LVGL/GUI/lvgl/src/lv_init.c **** 
 123:../../Middlewares/LVGL/GUI/lvgl/src/lv_init.c ****     if(global == NULL) {
  44              		.loc 1 123 5 view .LVU6
 124:../../Middlewares/LVGL/GUI/lvgl/src/lv_init.c ****         LV_LOG_ERROR("lv_global cannot be null");
 125:../../Middlewares/LVGL/GUI/lvgl/src/lv_init.c ****         return;
 126:../../Middlewares/LVGL/GUI/lvgl/src/lv_init.c ****     }
 127:../../Middlewares/LVGL/GUI/lvgl/src/lv_init.c **** 
ARM GAS  C:\Users\28576\AppData\Local\Temp\cc8rRXGp.s 			page 4


 128:../../Middlewares/LVGL/GUI/lvgl/src/lv_init.c ****     lv_memzero(global, sizeof(lv_global_t));
  45              		.loc 1 128 5 view .LVU7
  46              	.LVL1:
  47              	.LBB4:
  48              	.LBI4:
  49              		.file 2 "H:/STM32H7/RGB_LVGL/Middlewares/LVGL/GUI/lvgl/src/stdlib/lv_string.h"
   1:H:/STM32H7/RGB_LVGL/Middlewares/LVGL/GUI/lvgl/src/stdlib\lv_string.h **** /**
   2:H:/STM32H7/RGB_LVGL/Middlewares/LVGL/GUI/lvgl/src/stdlib\lv_string.h ****  * @file lv_string.h
   3:H:/STM32H7/RGB_LVGL/Middlewares/LVGL/GUI/lvgl/src/stdlib\lv_string.h ****  *
   4:H:/STM32H7/RGB_LVGL/Middlewares/LVGL/GUI/lvgl/src/stdlib\lv_string.h ****  */
   5:H:/STM32H7/RGB_LVGL/Middlewares/LVGL/GUI/lvgl/src/stdlib\lv_string.h **** 
   6:H:/STM32H7/RGB_LVGL/Middlewares/LVGL/GUI/lvgl/src/stdlib\lv_string.h **** #ifndef LV_STRING_H
   7:H:/STM32H7/RGB_LVGL/Middlewares/LVGL/GUI/lvgl/src/stdlib\lv_string.h **** #define LV_STRING_H
   8:H:/STM32H7/RGB_LVGL/Middlewares/LVGL/GUI/lvgl/src/stdlib\lv_string.h **** 
   9:H:/STM32H7/RGB_LVGL/Middlewares/LVGL/GUI/lvgl/src/stdlib\lv_string.h **** #ifdef __cplusplus
  10:H:/STM32H7/RGB_LVGL/Middlewares/LVGL/GUI/lvgl/src/stdlib\lv_string.h **** extern "C" {
  11:H:/STM32H7/RGB_LVGL/Middlewares/LVGL/GUI/lvgl/src/stdlib\lv_string.h **** #endif
  12:H:/STM32H7/RGB_LVGL/Middlewares/LVGL/GUI/lvgl/src/stdlib\lv_string.h **** 
  13:H:/STM32H7/RGB_LVGL/Middlewares/LVGL/GUI/lvgl/src/stdlib\lv_string.h **** /*********************
  14:H:/STM32H7/RGB_LVGL/Middlewares/LVGL/GUI/lvgl/src/stdlib\lv_string.h ****  *      INCLUDES
  15:H:/STM32H7/RGB_LVGL/Middlewares/LVGL/GUI/lvgl/src/stdlib\lv_string.h ****  *********************/
  16:H:/STM32H7/RGB_LVGL/Middlewares/LVGL/GUI/lvgl/src/stdlib\lv_string.h **** #include "../lv_conf_internal.h"
  17:H:/STM32H7/RGB_LVGL/Middlewares/LVGL/GUI/lvgl/src/stdlib\lv_string.h **** #include "../misc/lv_types.h"
  18:H:/STM32H7/RGB_LVGL/Middlewares/LVGL/GUI/lvgl/src/stdlib\lv_string.h **** 
  19:H:/STM32H7/RGB_LVGL/Middlewares/LVGL/GUI/lvgl/src/stdlib\lv_string.h **** /*********************
  20:H:/STM32H7/RGB_LVGL/Middlewares/LVGL/GUI/lvgl/src/stdlib\lv_string.h ****  *      DEFINES
  21:H:/STM32H7/RGB_LVGL/Middlewares/LVGL/GUI/lvgl/src/stdlib\lv_string.h ****  *********************/
  22:H:/STM32H7/RGB_LVGL/Middlewares/LVGL/GUI/lvgl/src/stdlib\lv_string.h **** 
  23:H:/STM32H7/RGB_LVGL/Middlewares/LVGL/GUI/lvgl/src/stdlib\lv_string.h **** /**********************
  24:H:/STM32H7/RGB_LVGL/Middlewares/LVGL/GUI/lvgl/src/stdlib\lv_string.h ****  *      TYPEDEFS
  25:H:/STM32H7/RGB_LVGL/Middlewares/LVGL/GUI/lvgl/src/stdlib\lv_string.h ****  **********************/
  26:H:/STM32H7/RGB_LVGL/Middlewares/LVGL/GUI/lvgl/src/stdlib\lv_string.h **** 
  27:H:/STM32H7/RGB_LVGL/Middlewares/LVGL/GUI/lvgl/src/stdlib\lv_string.h **** /**********************
  28:H:/STM32H7/RGB_LVGL/Middlewares/LVGL/GUI/lvgl/src/stdlib\lv_string.h ****  * GLOBAL PROTOTYPES
  29:H:/STM32H7/RGB_LVGL/Middlewares/LVGL/GUI/lvgl/src/stdlib\lv_string.h ****  **********************/
  30:H:/STM32H7/RGB_LVGL/Middlewares/LVGL/GUI/lvgl/src/stdlib\lv_string.h **** 
  31:H:/STM32H7/RGB_LVGL/Middlewares/LVGL/GUI/lvgl/src/stdlib\lv_string.h **** /**
  32:H:/STM32H7/RGB_LVGL/Middlewares/LVGL/GUI/lvgl/src/stdlib\lv_string.h ****  * @brief Copies a block of memory from a source address to a destination address.
  33:H:/STM32H7/RGB_LVGL/Middlewares/LVGL/GUI/lvgl/src/stdlib\lv_string.h ****  * @param dst Pointer to the destination array where the content is to be copied.
  34:H:/STM32H7/RGB_LVGL/Middlewares/LVGL/GUI/lvgl/src/stdlib\lv_string.h ****  * @param src Pointer to the source of data to be copied.
  35:H:/STM32H7/RGB_LVGL/Middlewares/LVGL/GUI/lvgl/src/stdlib\lv_string.h ****  * @param len Number of bytes to copy.
  36:H:/STM32H7/RGB_LVGL/Middlewares/LVGL/GUI/lvgl/src/stdlib\lv_string.h ****  * @return Pointer to the destination array.
  37:H:/STM32H7/RGB_LVGL/Middlewares/LVGL/GUI/lvgl/src/stdlib\lv_string.h ****  * @note The function does not check for any overlapping of the source and destination memory block
  38:H:/STM32H7/RGB_LVGL/Middlewares/LVGL/GUI/lvgl/src/stdlib\lv_string.h ****  */
  39:H:/STM32H7/RGB_LVGL/Middlewares/LVGL/GUI/lvgl/src/stdlib\lv_string.h **** void * lv_memcpy(void * dst, const void * src, size_t len);
  40:H:/STM32H7/RGB_LVGL/Middlewares/LVGL/GUI/lvgl/src/stdlib\lv_string.h **** 
  41:H:/STM32H7/RGB_LVGL/Middlewares/LVGL/GUI/lvgl/src/stdlib\lv_string.h **** /**
  42:H:/STM32H7/RGB_LVGL/Middlewares/LVGL/GUI/lvgl/src/stdlib\lv_string.h ****  * @brief Fills a block of memory with a specified value.
  43:H:/STM32H7/RGB_LVGL/Middlewares/LVGL/GUI/lvgl/src/stdlib\lv_string.h ****  * @param dst Pointer to the destination array to fill with the specified value.
  44:H:/STM32H7/RGB_LVGL/Middlewares/LVGL/GUI/lvgl/src/stdlib\lv_string.h ****  * @param v Value to be set. The value is passed as an int, but the function fills
  45:H:/STM32H7/RGB_LVGL/Middlewares/LVGL/GUI/lvgl/src/stdlib\lv_string.h ****  *          the block of memory using the unsigned char conversion of this value.
  46:H:/STM32H7/RGB_LVGL/Middlewares/LVGL/GUI/lvgl/src/stdlib\lv_string.h ****  * @param len Number of bytes to be set to the value.
  47:H:/STM32H7/RGB_LVGL/Middlewares/LVGL/GUI/lvgl/src/stdlib\lv_string.h ****  */
  48:H:/STM32H7/RGB_LVGL/Middlewares/LVGL/GUI/lvgl/src/stdlib\lv_string.h **** void lv_memset(void * dst, uint8_t v, size_t len);
  49:H:/STM32H7/RGB_LVGL/Middlewares/LVGL/GUI/lvgl/src/stdlib\lv_string.h **** 
  50:H:/STM32H7/RGB_LVGL/Middlewares/LVGL/GUI/lvgl/src/stdlib\lv_string.h **** /**
  51:H:/STM32H7/RGB_LVGL/Middlewares/LVGL/GUI/lvgl/src/stdlib\lv_string.h ****  * @brief Move a block of memory from source to destination
ARM GAS  C:\Users\28576\AppData\Local\Temp\cc8rRXGp.s 			page 5


  52:H:/STM32H7/RGB_LVGL/Middlewares/LVGL/GUI/lvgl/src/stdlib\lv_string.h ****  * @param dst Pointer to the destination array where the content is to be copied.
  53:H:/STM32H7/RGB_LVGL/Middlewares/LVGL/GUI/lvgl/src/stdlib\lv_string.h ****  * @param src Pointer to the source of data to be copied.
  54:H:/STM32H7/RGB_LVGL/Middlewares/LVGL/GUI/lvgl/src/stdlib\lv_string.h ****  * @param len Number of bytes to copy
  55:H:/STM32H7/RGB_LVGL/Middlewares/LVGL/GUI/lvgl/src/stdlib\lv_string.h ****  * @return Pointer to the destination array.
  56:H:/STM32H7/RGB_LVGL/Middlewares/LVGL/GUI/lvgl/src/stdlib\lv_string.h ****  */
  57:H:/STM32H7/RGB_LVGL/Middlewares/LVGL/GUI/lvgl/src/stdlib\lv_string.h **** void * lv_memmove(void * dst, const void * src, size_t len);
  58:H:/STM32H7/RGB_LVGL/Middlewares/LVGL/GUI/lvgl/src/stdlib\lv_string.h **** 
  59:H:/STM32H7/RGB_LVGL/Middlewares/LVGL/GUI/lvgl/src/stdlib\lv_string.h **** /**
  60:H:/STM32H7/RGB_LVGL/Middlewares/LVGL/GUI/lvgl/src/stdlib\lv_string.h ****  * @brief This function will compare two memory blocks
  61:H:/STM32H7/RGB_LVGL/Middlewares/LVGL/GUI/lvgl/src/stdlib\lv_string.h ****  * @param p1 Pointer to the first memory block
  62:H:/STM32H7/RGB_LVGL/Middlewares/LVGL/GUI/lvgl/src/stdlib\lv_string.h ****  * @param p2 Pointer to the second memory block
  63:H:/STM32H7/RGB_LVGL/Middlewares/LVGL/GUI/lvgl/src/stdlib\lv_string.h ****  * @param len Number of bytes to compare
  64:H:/STM32H7/RGB_LVGL/Middlewares/LVGL/GUI/lvgl/src/stdlib\lv_string.h ****  * @return The difference between the value of the first unmatching byte.
  65:H:/STM32H7/RGB_LVGL/Middlewares/LVGL/GUI/lvgl/src/stdlib\lv_string.h ****  */
  66:H:/STM32H7/RGB_LVGL/Middlewares/LVGL/GUI/lvgl/src/stdlib\lv_string.h **** int lv_memcmp(const void * p1, const void * p2, size_t len);
  67:H:/STM32H7/RGB_LVGL/Middlewares/LVGL/GUI/lvgl/src/stdlib\lv_string.h **** 
  68:H:/STM32H7/RGB_LVGL/Middlewares/LVGL/GUI/lvgl/src/stdlib\lv_string.h **** /**
  69:H:/STM32H7/RGB_LVGL/Middlewares/LVGL/GUI/lvgl/src/stdlib\lv_string.h ****  * Same as `memset(dst, 0x00, len)`.
  70:H:/STM32H7/RGB_LVGL/Middlewares/LVGL/GUI/lvgl/src/stdlib\lv_string.h ****  * @param dst pointer to the destination buffer
  71:H:/STM32H7/RGB_LVGL/Middlewares/LVGL/GUI/lvgl/src/stdlib\lv_string.h ****  * @param len number of byte to set
  72:H:/STM32H7/RGB_LVGL/Middlewares/LVGL/GUI/lvgl/src/stdlib\lv_string.h ****  */
  73:H:/STM32H7/RGB_LVGL/Middlewares/LVGL/GUI/lvgl/src/stdlib\lv_string.h **** static inline void lv_memzero(void * dst, size_t len)
  50              		.loc 2 73 20 view .LVU8
  51              	.LBB5:
  74:H:/STM32H7/RGB_LVGL/Middlewares/LVGL/GUI/lvgl/src/stdlib\lv_string.h **** {
  75:H:/STM32H7/RGB_LVGL/Middlewares/LVGL/GUI/lvgl/src/stdlib\lv_string.h ****     lv_memset(dst, 0x00, len);
  52              		.loc 2 75 5 view .LVU9
  53 0006 4FF4FC72 		mov	r2, #504
  54 000a 0021     		movs	r1, #0
  55 000c FFF7FEFF 		bl	lv_memset
  56              	.LVL2:
  57              		.loc 2 75 5 is_stmt 0 view .LVU10
  58              	.LBE5:
  59              	.LBE4:
 129:../../Middlewares/LVGL/GUI/lvgl/src/lv_init.c **** 
 130:../../Middlewares/LVGL/GUI/lvgl/src/lv_init.c ****     lv_ll_init(&(global->disp_ll), sizeof(lv_display_t));
  60              		.loc 1 130 5 is_stmt 1 view .LVU11
  61 0010 4FF44971 		mov	r1, #804
  62 0014 201D     		adds	r0, r4, #4
  63 0016 FFF7FEFF 		bl	lv_ll_init
  64              	.LVL3:
 131:../../Middlewares/LVGL/GUI/lvgl/src/lv_init.c ****     lv_ll_init(&(global->indev_ll), sizeof(lv_indev_t));
  65              		.loc 1 131 5 view .LVU12
  66 001a DC21     		movs	r1, #220
  67 001c 04F14400 		add	r0, r4, #68
  68 0020 FFF7FEFF 		bl	lv_ll_init
  69              	.LVL4:
 132:../../Middlewares/LVGL/GUI/lvgl/src/lv_init.c **** 
 133:../../Middlewares/LVGL/GUI/lvgl/src/lv_init.c ****     global->memory_zero = ZERO_MEM_SENTINEL;
  70              		.loc 1 133 5 view .LVU13
  71              		.loc 1 133 25 is_stmt 0 view .LVU14
  72 0024 074B     		ldr	r3, .L6
  73 0026 6366     		str	r3, [r4, #100]
 134:../../Middlewares/LVGL/GUI/lvgl/src/lv_init.c ****     global->style_refresh = true;
  74              		.loc 1 134 5 is_stmt 1 view .LVU15
  75              		.loc 1 134 27 is_stmt 0 view .LVU16
  76 0028 0123     		movs	r3, #1
ARM GAS  C:\Users\28576\AppData\Local\Temp\cc8rRXGp.s 			page 6


  77 002a 84F82430 		strb	r3, [r4, #36]
 135:../../Middlewares/LVGL/GUI/lvgl/src/lv_init.c ****     global->layout_count = LV_LAYOUT_LAST;
  78              		.loc 1 135 5 is_stmt 1 view .LVU17
  79              		.loc 1 135 26 is_stmt 0 view .LVU18
  80 002e 0323     		movs	r3, #3
  81 0030 A365     		str	r3, [r4, #88]
 136:../../Middlewares/LVGL/GUI/lvgl/src/lv_init.c ****     global->style_last_custom_prop_id = (uint32_t)LV_STYLE_LAST_BUILT_IN_PROP;
  82              		.loc 1 136 5 is_stmt 1 view .LVU19
  83              		.loc 1 136 39 is_stmt 0 view .LVU20
  84 0032 8923     		movs	r3, #137
  85 0034 E362     		str	r3, [r4, #44]
 137:../../Middlewares/LVGL/GUI/lvgl/src/lv_init.c ****     global->event_last_register_id = LV_EVENT_LAST;
  86              		.loc 1 137 5 is_stmt 1 view .LVU21
  87              		.loc 1 137 36 is_stmt 0 view .LVU22
  88 0036 4323     		movs	r3, #67
  89 0038 2367     		str	r3, [r4, #112]
 138:../../Middlewares/LVGL/GUI/lvgl/src/lv_init.c ****     lv_rand_set_seed(0x1234ABCD);
  90              		.loc 1 138 5 is_stmt 1 view .LVU23
  91 003a 0348     		ldr	r0, .L6+4
  92 003c FFF7FEFF 		bl	lv_rand_set_seed
  93              	.LVL5:
 139:../../Middlewares/LVGL/GUI/lvgl/src/lv_init.c **** 
 140:../../Middlewares/LVGL/GUI/lvgl/src/lv_init.c **** #ifdef LV_LOG_PRINT_CB
 141:../../Middlewares/LVGL/GUI/lvgl/src/lv_init.c ****     void LV_LOG_PRINT_CB(lv_log_level_t, const char * txt);
 142:../../Middlewares/LVGL/GUI/lvgl/src/lv_init.c ****     global->custom_log_print_cb = LV_LOG_PRINT_CB;
 143:../../Middlewares/LVGL/GUI/lvgl/src/lv_init.c **** #endif
 144:../../Middlewares/LVGL/GUI/lvgl/src/lv_init.c **** 
 145:../../Middlewares/LVGL/GUI/lvgl/src/lv_init.c **** #if defined(LV_DRAW_SW_SHADOW_CACHE_SIZE) && LV_DRAW_SW_SHADOW_CACHE_SIZE > 0
 146:../../Middlewares/LVGL/GUI/lvgl/src/lv_init.c ****     global->sw_shadow_cache.cache_size = -1;
 147:../../Middlewares/LVGL/GUI/lvgl/src/lv_init.c ****     global->sw_shadow_cache.cache_r = -1;
 148:../../Middlewares/LVGL/GUI/lvgl/src/lv_init.c **** #endif
 149:../../Middlewares/LVGL/GUI/lvgl/src/lv_init.c **** }
  94              		.loc 1 149 1 is_stmt 0 view .LVU24
  95 0040 10BD     		pop	{r4, pc}
  96              	.LVL6:
  97              	.L3:
  98              	.LCFI1:
  99              		.cfi_def_cfa_offset 0
 100              		.cfi_restore 4
 101              		.cfi_restore 14
 121:../../Middlewares/LVGL/GUI/lvgl/src/lv_init.c **** 
 102              		.loc 1 121 5 is_stmt 1 view .LVU25
 121:../../Middlewares/LVGL/GUI/lvgl/src/lv_init.c **** 
 103              		.loc 1 121 5 view .LVU26
 121:../../Middlewares/LVGL/GUI/lvgl/src/lv_init.c **** 
 104              		.loc 1 121 5 view .LVU27
 121:../../Middlewares/LVGL/GUI/lvgl/src/lv_init.c **** 
 105              		.loc 1 121 5 view .LVU28
 121:../../Middlewares/LVGL/GUI/lvgl/src/lv_init.c **** 
 106              		.loc 1 121 5 view .LVU29
 107 0042 FEE7     		b	.L3
 108              	.L7:
 109              		.align	2
 110              	.L6:
 111 0044 D4C3B2A1 		.word	-1582119980
 112 0048 CDAB3412 		.word	305441741
 113              		.cfi_endproc
ARM GAS  C:\Users\28576\AppData\Local\Temp\cc8rRXGp.s 			page 7


 114              	.LFE187:
 116              		.section	.text.lv_cleanup_devices,"ax",%progbits
 117              		.align	1
 118              		.syntax unified
 119              		.thumb
 120              		.thumb_func
 122              	lv_cleanup_devices:
 123              	.LVL7:
 124              	.LFB188:
 150:../../Middlewares/LVGL/GUI/lvgl/src/lv_init.c **** 
 151:../../Middlewares/LVGL/GUI/lvgl/src/lv_init.c **** static inline void lv_cleanup_devices(lv_global_t * global)
 152:../../Middlewares/LVGL/GUI/lvgl/src/lv_init.c **** {
 125              		.loc 1 152 1 view -0
 126              		.cfi_startproc
 127              		@ args = 0, pretend = 0, frame = 0
 128              		@ frame_needed = 0, uses_anonymous_args = 0
 153:../../Middlewares/LVGL/GUI/lvgl/src/lv_init.c ****     LV_ASSERT_NULL(global);
 129              		.loc 1 153 5 view .LVU31
 130              		.loc 1 153 5 view .LVU32
 131 0000 50B1     		cbz	r0, .L10
 152:../../Middlewares/LVGL/GUI/lvgl/src/lv_init.c ****     LV_ASSERT_NULL(global);
 132              		.loc 1 152 1 is_stmt 0 view .LVU33
 133 0002 10B5     		push	{r4, lr}
 134              	.LCFI2:
 135              		.cfi_def_cfa_offset 8
 136              		.cfi_offset 4, -8
 137              		.cfi_offset 14, -4
 138              		.loc 1 153 5 is_stmt 1 view .LVU34
 139              		.loc 1 153 27 view .LVU35
 154:../../Middlewares/LVGL/GUI/lvgl/src/lv_init.c **** 
 155:../../Middlewares/LVGL/GUI/lvgl/src/lv_init.c ****     if(global) {
 140              		.loc 1 155 5 view .LVU36
 156:../../Middlewares/LVGL/GUI/lvgl/src/lv_init.c ****         /* cleanup indev and display */
 157:../../Middlewares/LVGL/GUI/lvgl/src/lv_init.c ****         lv_ll_clear_custom(&(global->indev_ll), (void (*)(void *)) lv_indev_delete);
 141              		.loc 1 157 9 view .LVU37
 142 0004 0549     		ldr	r1, .L13
 143 0006 0446     		mov	r4, r0
 144 0008 4430     		adds	r0, r0, #68
 145              	.LVL8:
 146              		.loc 1 157 9 is_stmt 0 view .LVU38
 147 000a FFF7FEFF 		bl	lv_ll_clear_custom
 148              	.LVL9:
 158:../../Middlewares/LVGL/GUI/lvgl/src/lv_init.c ****         lv_ll_clear_custom(&(global->disp_ll), (void (*)(void *)) lv_display_delete);
 149              		.loc 1 158 9 is_stmt 1 view .LVU39
 150 000e 0449     		ldr	r1, .L13+4
 151 0010 201D     		adds	r0, r4, #4
 152 0012 FFF7FEFF 		bl	lv_ll_clear_custom
 153              	.LVL10:
 159:../../Middlewares/LVGL/GUI/lvgl/src/lv_init.c ****     }
 160:../../Middlewares/LVGL/GUI/lvgl/src/lv_init.c **** }
 154              		.loc 1 160 1 is_stmt 0 view .LVU40
 155 0016 10BD     		pop	{r4, pc}
 156              	.LVL11:
 157              	.L10:
 158              	.LCFI3:
 159              		.cfi_def_cfa_offset 0
 160              		.cfi_restore 4
ARM GAS  C:\Users\28576\AppData\Local\Temp\cc8rRXGp.s 			page 8


 161              		.cfi_restore 14
 153:../../Middlewares/LVGL/GUI/lvgl/src/lv_init.c **** 
 162              		.loc 1 153 5 is_stmt 1 view .LVU41
 153:../../Middlewares/LVGL/GUI/lvgl/src/lv_init.c **** 
 163              		.loc 1 153 5 view .LVU42
 153:../../Middlewares/LVGL/GUI/lvgl/src/lv_init.c **** 
 164              		.loc 1 153 5 view .LVU43
 153:../../Middlewares/LVGL/GUI/lvgl/src/lv_init.c **** 
 165              		.loc 1 153 5 view .LVU44
 153:../../Middlewares/LVGL/GUI/lvgl/src/lv_init.c **** 
 166              		.loc 1 153 5 view .LVU45
 167 0018 FEE7     		b	.L10
 168              	.L14:
 169 001a 00BF     		.align	2
 170              	.L13:
 171 001c 00000000 		.word	lv_indev_delete
 172 0020 00000000 		.word	lv_display_delete
 173              		.cfi_endproc
 174              	.LFE188:
 176              		.section	.text.lv_is_initialized,"ax",%progbits
 177              		.align	1
 178              		.global	lv_is_initialized
 179              		.syntax unified
 180              		.thumb
 181              		.thumb_func
 183              	lv_is_initialized:
 184              	.LFB189:
 161:../../Middlewares/LVGL/GUI/lvgl/src/lv_init.c **** 
 162:../../Middlewares/LVGL/GUI/lvgl/src/lv_init.c **** bool lv_is_initialized(void)
 163:../../Middlewares/LVGL/GUI/lvgl/src/lv_init.c **** {
 185              		.loc 1 163 1 view -0
 186              		.cfi_startproc
 187              		@ args = 0, pretend = 0, frame = 0
 188              		@ frame_needed = 0, uses_anonymous_args = 0
 189              		@ link register save eliminated.
 164:../../Middlewares/LVGL/GUI/lvgl/src/lv_init.c **** #if LV_ENABLE_GLOBAL_CUSTOM
 165:../../Middlewares/LVGL/GUI/lvgl/src/lv_init.c ****     if(LV_GLOBAL_DEFAULT()) return lv_initialized;
 166:../../Middlewares/LVGL/GUI/lvgl/src/lv_init.c ****     else return false;
 167:../../Middlewares/LVGL/GUI/lvgl/src/lv_init.c **** #else
 168:../../Middlewares/LVGL/GUI/lvgl/src/lv_init.c ****     return lv_initialized;
 190              		.loc 1 168 5 view .LVU47
 169:../../Middlewares/LVGL/GUI/lvgl/src/lv_init.c **** #endif
 170:../../Middlewares/LVGL/GUI/lvgl/src/lv_init.c **** }
 191              		.loc 1 170 1 is_stmt 0 view .LVU48
 192 0000 014B     		ldr	r3, .L16
 193 0002 1878     		ldrb	r0, [r3]	@ zero_extendqisi2
 194 0004 7047     		bx	lr
 195              	.L17:
 196 0006 00BF     		.align	2
 197              	.L16:
 198 0008 00000000 		.word	lv_global
 199              		.cfi_endproc
 200              	.LFE189:
 202              		.section	.text.lv_init,"ax",%progbits
 203              		.align	1
 204              		.global	lv_init
 205              		.syntax unified
ARM GAS  C:\Users\28576\AppData\Local\Temp\cc8rRXGp.s 			page 9


 206              		.thumb
 207              		.thumb_func
 209              	lv_init:
 210              	.LFB190:
 171:../../Middlewares/LVGL/GUI/lvgl/src/lv_init.c **** 
 172:../../Middlewares/LVGL/GUI/lvgl/src/lv_init.c **** void lv_init(void)
 173:../../Middlewares/LVGL/GUI/lvgl/src/lv_init.c **** {
 211              		.loc 1 173 1 is_stmt 1 view -0
 212              		.cfi_startproc
 213              		@ args = 0, pretend = 0, frame = 0
 214              		@ frame_needed = 0, uses_anonymous_args = 0
 215 0000 08B5     		push	{r3, lr}
 216              	.LCFI4:
 217              		.cfi_def_cfa_offset 8
 218              		.cfi_offset 3, -8
 219              		.cfi_offset 14, -4
 174:../../Middlewares/LVGL/GUI/lvgl/src/lv_init.c ****     /*First initialize Garbage Collection if needed*/
 175:../../Middlewares/LVGL/GUI/lvgl/src/lv_init.c **** #ifdef LV_GC_INIT
 176:../../Middlewares/LVGL/GUI/lvgl/src/lv_init.c ****     LV_GC_INIT();
 177:../../Middlewares/LVGL/GUI/lvgl/src/lv_init.c **** #endif
 178:../../Middlewares/LVGL/GUI/lvgl/src/lv_init.c **** 
 179:../../Middlewares/LVGL/GUI/lvgl/src/lv_init.c ****     /*Do nothing if already initialized*/
 180:../../Middlewares/LVGL/GUI/lvgl/src/lv_init.c ****     if(lv_initialized) {
 220              		.loc 1 180 5 view .LVU50
 221              		.loc 1 180 8 is_stmt 0 view .LVU51
 222 0002 164B     		ldr	r3, .L22
 223 0004 1B78     		ldrb	r3, [r3]	@ zero_extendqisi2
 224              		.loc 1 180 7 view .LVU52
 225 0006 03B1     		cbz	r3, .L21
 226              	.L18:
 181:../../Middlewares/LVGL/GUI/lvgl/src/lv_init.c ****         LV_LOG_WARN("lv_init: already initialized");
 182:../../Middlewares/LVGL/GUI/lvgl/src/lv_init.c ****         return;
 183:../../Middlewares/LVGL/GUI/lvgl/src/lv_init.c ****     }
 184:../../Middlewares/LVGL/GUI/lvgl/src/lv_init.c **** 
 185:../../Middlewares/LVGL/GUI/lvgl/src/lv_init.c ****     LV_LOG_INFO("begin");
 186:../../Middlewares/LVGL/GUI/lvgl/src/lv_init.c **** 
 187:../../Middlewares/LVGL/GUI/lvgl/src/lv_init.c ****     /*Initialize members of static variable lv_global */
 188:../../Middlewares/LVGL/GUI/lvgl/src/lv_init.c ****     LV_GLOBAL_INIT(LV_GLOBAL_DEFAULT());
 189:../../Middlewares/LVGL/GUI/lvgl/src/lv_init.c **** 
 190:../../Middlewares/LVGL/GUI/lvgl/src/lv_init.c ****     lv_mem_init();
 191:../../Middlewares/LVGL/GUI/lvgl/src/lv_init.c **** 
 192:../../Middlewares/LVGL/GUI/lvgl/src/lv_init.c ****     lv_draw_buf_init_handlers();
 193:../../Middlewares/LVGL/GUI/lvgl/src/lv_init.c **** 
 194:../../Middlewares/LVGL/GUI/lvgl/src/lv_init.c **** #if LV_USE_SPAN != 0
 195:../../Middlewares/LVGL/GUI/lvgl/src/lv_init.c ****     lv_span_stack_init();
 196:../../Middlewares/LVGL/GUI/lvgl/src/lv_init.c **** #endif
 197:../../Middlewares/LVGL/GUI/lvgl/src/lv_init.c **** 
 198:../../Middlewares/LVGL/GUI/lvgl/src/lv_init.c **** #if LV_USE_PROFILER && LV_USE_PROFILER_BUILTIN
 199:../../Middlewares/LVGL/GUI/lvgl/src/lv_init.c ****     lv_profiler_builtin_config_t profiler_config;
 200:../../Middlewares/LVGL/GUI/lvgl/src/lv_init.c ****     lv_profiler_builtin_config_init(&profiler_config);
 201:../../Middlewares/LVGL/GUI/lvgl/src/lv_init.c ****     lv_profiler_builtin_init(&profiler_config);
 202:../../Middlewares/LVGL/GUI/lvgl/src/lv_init.c **** #endif
 203:../../Middlewares/LVGL/GUI/lvgl/src/lv_init.c **** 
 204:../../Middlewares/LVGL/GUI/lvgl/src/lv_init.c ****     lv_os_init();
 205:../../Middlewares/LVGL/GUI/lvgl/src/lv_init.c **** 
 206:../../Middlewares/LVGL/GUI/lvgl/src/lv_init.c ****     lv_timer_core_init();
 207:../../Middlewares/LVGL/GUI/lvgl/src/lv_init.c **** 
ARM GAS  C:\Users\28576\AppData\Local\Temp\cc8rRXGp.s 			page 10


 208:../../Middlewares/LVGL/GUI/lvgl/src/lv_init.c ****     lv_fs_init();
 209:../../Middlewares/LVGL/GUI/lvgl/src/lv_init.c **** 
 210:../../Middlewares/LVGL/GUI/lvgl/src/lv_init.c ****     lv_layout_init();
 211:../../Middlewares/LVGL/GUI/lvgl/src/lv_init.c **** 
 212:../../Middlewares/LVGL/GUI/lvgl/src/lv_init.c ****     lv_anim_core_init();
 213:../../Middlewares/LVGL/GUI/lvgl/src/lv_init.c **** 
 214:../../Middlewares/LVGL/GUI/lvgl/src/lv_init.c ****     lv_group_init();
 215:../../Middlewares/LVGL/GUI/lvgl/src/lv_init.c **** 
 216:../../Middlewares/LVGL/GUI/lvgl/src/lv_init.c **** #if LV_USE_FREETYPE
 217:../../Middlewares/LVGL/GUI/lvgl/src/lv_init.c ****     /* Since the drawing unit needs to register the freetype event,
 218:../../Middlewares/LVGL/GUI/lvgl/src/lv_init.c ****      * initialize the freetype module first
 219:../../Middlewares/LVGL/GUI/lvgl/src/lv_init.c ****      */
 220:../../Middlewares/LVGL/GUI/lvgl/src/lv_init.c ****     lv_freetype_init(LV_FREETYPE_CACHE_FT_GLYPH_CNT);
 221:../../Middlewares/LVGL/GUI/lvgl/src/lv_init.c **** #endif
 222:../../Middlewares/LVGL/GUI/lvgl/src/lv_init.c **** 
 223:../../Middlewares/LVGL/GUI/lvgl/src/lv_init.c ****     lv_draw_init();
 224:../../Middlewares/LVGL/GUI/lvgl/src/lv_init.c **** 
 225:../../Middlewares/LVGL/GUI/lvgl/src/lv_init.c **** #if LV_USE_DRAW_SW
 226:../../Middlewares/LVGL/GUI/lvgl/src/lv_init.c ****     lv_draw_sw_init();
 227:../../Middlewares/LVGL/GUI/lvgl/src/lv_init.c **** #endif
 228:../../Middlewares/LVGL/GUI/lvgl/src/lv_init.c **** 
 229:../../Middlewares/LVGL/GUI/lvgl/src/lv_init.c **** #if LV_USE_NEMA_GFX
 230:../../Middlewares/LVGL/GUI/lvgl/src/lv_init.c ****     lv_draw_nema_gfx_init();
 231:../../Middlewares/LVGL/GUI/lvgl/src/lv_init.c **** #endif
 232:../../Middlewares/LVGL/GUI/lvgl/src/lv_init.c **** 
 233:../../Middlewares/LVGL/GUI/lvgl/src/lv_init.c **** #if LV_USE_DRAW_VGLITE
 234:../../Middlewares/LVGL/GUI/lvgl/src/lv_init.c ****     lv_draw_vglite_init();
 235:../../Middlewares/LVGL/GUI/lvgl/src/lv_init.c **** #endif
 236:../../Middlewares/LVGL/GUI/lvgl/src/lv_init.c **** 
 237:../../Middlewares/LVGL/GUI/lvgl/src/lv_init.c **** #if LV_USE_PXP
 238:../../Middlewares/LVGL/GUI/lvgl/src/lv_init.c **** #if LV_USE_DRAW_PXP || LV_USE_ROTATE_PXP
 239:../../Middlewares/LVGL/GUI/lvgl/src/lv_init.c ****     lv_draw_pxp_init();
 240:../../Middlewares/LVGL/GUI/lvgl/src/lv_init.c **** #endif
 241:../../Middlewares/LVGL/GUI/lvgl/src/lv_init.c **** #endif
 242:../../Middlewares/LVGL/GUI/lvgl/src/lv_init.c **** 
 243:../../Middlewares/LVGL/GUI/lvgl/src/lv_init.c **** #if LV_USE_DRAW_G2D
 244:../../Middlewares/LVGL/GUI/lvgl/src/lv_init.c ****     lv_draw_g2d_init();
 245:../../Middlewares/LVGL/GUI/lvgl/src/lv_init.c **** #endif
 246:../../Middlewares/LVGL/GUI/lvgl/src/lv_init.c **** 
 247:../../Middlewares/LVGL/GUI/lvgl/src/lv_init.c **** #if LV_USE_DRAW_DAVE2D
 248:../../Middlewares/LVGL/GUI/lvgl/src/lv_init.c ****     lv_draw_dave2d_init();
 249:../../Middlewares/LVGL/GUI/lvgl/src/lv_init.c **** #endif
 250:../../Middlewares/LVGL/GUI/lvgl/src/lv_init.c **** 
 251:../../Middlewares/LVGL/GUI/lvgl/src/lv_init.c **** #if LV_USE_DRAW_SDL
 252:../../Middlewares/LVGL/GUI/lvgl/src/lv_init.c ****     lv_draw_sdl_init();
 253:../../Middlewares/LVGL/GUI/lvgl/src/lv_init.c **** #endif
 254:../../Middlewares/LVGL/GUI/lvgl/src/lv_init.c **** 
 255:../../Middlewares/LVGL/GUI/lvgl/src/lv_init.c **** #if LV_USE_DRAW_DMA2D
 256:../../Middlewares/LVGL/GUI/lvgl/src/lv_init.c ****     lv_draw_dma2d_init();
 257:../../Middlewares/LVGL/GUI/lvgl/src/lv_init.c **** #endif
 258:../../Middlewares/LVGL/GUI/lvgl/src/lv_init.c **** 
 259:../../Middlewares/LVGL/GUI/lvgl/src/lv_init.c **** #if LV_USE_DRAW_OPENGLES
 260:../../Middlewares/LVGL/GUI/lvgl/src/lv_init.c ****     lv_draw_opengles_init();
 261:../../Middlewares/LVGL/GUI/lvgl/src/lv_init.c **** #endif
 262:../../Middlewares/LVGL/GUI/lvgl/src/lv_init.c **** 
 263:../../Middlewares/LVGL/GUI/lvgl/src/lv_init.c **** #if LV_USE_WINDOWS
 264:../../Middlewares/LVGL/GUI/lvgl/src/lv_init.c ****     lv_windows_platform_init();
ARM GAS  C:\Users\28576\AppData\Local\Temp\cc8rRXGp.s 			page 11


 265:../../Middlewares/LVGL/GUI/lvgl/src/lv_init.c **** #endif
 266:../../Middlewares/LVGL/GUI/lvgl/src/lv_init.c **** 
 267:../../Middlewares/LVGL/GUI/lvgl/src/lv_init.c **** #if LV_USE_UEFI
 268:../../Middlewares/LVGL/GUI/lvgl/src/lv_init.c ****     lv_uefi_platform_init();
 269:../../Middlewares/LVGL/GUI/lvgl/src/lv_init.c **** #endif
 270:../../Middlewares/LVGL/GUI/lvgl/src/lv_init.c **** 
 271:../../Middlewares/LVGL/GUI/lvgl/src/lv_init.c ****     lv_obj_style_init();
 272:../../Middlewares/LVGL/GUI/lvgl/src/lv_init.c **** 
 273:../../Middlewares/LVGL/GUI/lvgl/src/lv_init.c ****     /*Initialize the screen refresh system*/
 274:../../Middlewares/LVGL/GUI/lvgl/src/lv_init.c ****     lv_refr_init();
 275:../../Middlewares/LVGL/GUI/lvgl/src/lv_init.c **** 
 276:../../Middlewares/LVGL/GUI/lvgl/src/lv_init.c **** #if LV_USE_SYSMON
 277:../../Middlewares/LVGL/GUI/lvgl/src/lv_init.c ****     lv_sysmon_builtin_init();
 278:../../Middlewares/LVGL/GUI/lvgl/src/lv_init.c **** #endif
 279:../../Middlewares/LVGL/GUI/lvgl/src/lv_init.c **** 
 280:../../Middlewares/LVGL/GUI/lvgl/src/lv_init.c ****     lv_image_decoder_init(LV_CACHE_DEF_SIZE, LV_IMAGE_HEADER_CACHE_DEF_CNT);
 281:../../Middlewares/LVGL/GUI/lvgl/src/lv_init.c ****     lv_bin_decoder_init();  /*LVGL built-in binary image decoder*/
 282:../../Middlewares/LVGL/GUI/lvgl/src/lv_init.c **** 
 283:../../Middlewares/LVGL/GUI/lvgl/src/lv_init.c **** #if LV_USE_DRAW_VG_LITE
 284:../../Middlewares/LVGL/GUI/lvgl/src/lv_init.c ****     lv_draw_vg_lite_init();
 285:../../Middlewares/LVGL/GUI/lvgl/src/lv_init.c **** #endif
 286:../../Middlewares/LVGL/GUI/lvgl/src/lv_init.c **** 
 287:../../Middlewares/LVGL/GUI/lvgl/src/lv_init.c ****     /*Test if the IDE has UTF-8 encoding*/
 288:../../Middlewares/LVGL/GUI/lvgl/src/lv_init.c ****     const char * txt = "Á";
 289:../../Middlewares/LVGL/GUI/lvgl/src/lv_init.c **** 
 290:../../Middlewares/LVGL/GUI/lvgl/src/lv_init.c ****     uint8_t * txt_u8 = (uint8_t *)txt;
 291:../../Middlewares/LVGL/GUI/lvgl/src/lv_init.c ****     if(txt_u8[0] != 0xc3 || txt_u8[1] != 0x81 || txt_u8[2] != 0x00) {
 292:../../Middlewares/LVGL/GUI/lvgl/src/lv_init.c ****         LV_LOG_WARN("The strings have no UTF-8 encoding. Non-ASCII characters won't be displayed.")
 293:../../Middlewares/LVGL/GUI/lvgl/src/lv_init.c ****     }
 294:../../Middlewares/LVGL/GUI/lvgl/src/lv_init.c **** 
 295:../../Middlewares/LVGL/GUI/lvgl/src/lv_init.c ****     uint32_t endianness_test = 0x11223344;
 296:../../Middlewares/LVGL/GUI/lvgl/src/lv_init.c ****     uint8_t * endianness_test_p = (uint8_t *) &endianness_test;
 297:../../Middlewares/LVGL/GUI/lvgl/src/lv_init.c ****     bool big_endian = endianness_test_p[0] == 0x11;
 298:../../Middlewares/LVGL/GUI/lvgl/src/lv_init.c **** 
 299:../../Middlewares/LVGL/GUI/lvgl/src/lv_init.c ****     if(big_endian) {
 300:../../Middlewares/LVGL/GUI/lvgl/src/lv_init.c ****         LV_ASSERT_MSG(LV_BIG_ENDIAN_SYSTEM == 1,
 301:../../Middlewares/LVGL/GUI/lvgl/src/lv_init.c ****                       "It's a big endian system but LV_BIG_ENDIAN_SYSTEM is not enabled in lv_conf.
 302:../../Middlewares/LVGL/GUI/lvgl/src/lv_init.c ****     }
 303:../../Middlewares/LVGL/GUI/lvgl/src/lv_init.c ****     else {
 304:../../Middlewares/LVGL/GUI/lvgl/src/lv_init.c ****         LV_ASSERT_MSG(LV_BIG_ENDIAN_SYSTEM == 0,
 305:../../Middlewares/LVGL/GUI/lvgl/src/lv_init.c ****                       "It's a little endian system but LV_BIG_ENDIAN_SYSTEM is enabled in lv_conf.h
 306:../../Middlewares/LVGL/GUI/lvgl/src/lv_init.c ****     }
 307:../../Middlewares/LVGL/GUI/lvgl/src/lv_init.c **** 
 308:../../Middlewares/LVGL/GUI/lvgl/src/lv_init.c **** #if LV_USE_ASSERT_MEM_INTEGRITY
 309:../../Middlewares/LVGL/GUI/lvgl/src/lv_init.c ****     LV_LOG_WARN("Memory integrity checks are enabled via LV_USE_ASSERT_MEM_INTEGRITY which makes LV
 310:../../Middlewares/LVGL/GUI/lvgl/src/lv_init.c **** #endif
 311:../../Middlewares/LVGL/GUI/lvgl/src/lv_init.c **** 
 312:../../Middlewares/LVGL/GUI/lvgl/src/lv_init.c **** #if LV_USE_ASSERT_OBJ
 313:../../Middlewares/LVGL/GUI/lvgl/src/lv_init.c ****     LV_LOG_WARN("Object sanity checks are enabled via LV_USE_ASSERT_OBJ which makes LVGL much slowe
 314:../../Middlewares/LVGL/GUI/lvgl/src/lv_init.c **** #endif
 315:../../Middlewares/LVGL/GUI/lvgl/src/lv_init.c **** 
 316:../../Middlewares/LVGL/GUI/lvgl/src/lv_init.c **** #if LV_USE_ASSERT_STYLE
 317:../../Middlewares/LVGL/GUI/lvgl/src/lv_init.c ****     LV_LOG_WARN("Style sanity checks are enabled that uses more RAM");
 318:../../Middlewares/LVGL/GUI/lvgl/src/lv_init.c **** #endif
 319:../../Middlewares/LVGL/GUI/lvgl/src/lv_init.c **** 
 320:../../Middlewares/LVGL/GUI/lvgl/src/lv_init.c **** #if LV_LOG_LEVEL == LV_LOG_LEVEL_TRACE
 321:../../Middlewares/LVGL/GUI/lvgl/src/lv_init.c ****     LV_LOG_WARN("Log level is set to 'Trace' which makes LVGL much slower");
ARM GAS  C:\Users\28576\AppData\Local\Temp\cc8rRXGp.s 			page 12


 322:../../Middlewares/LVGL/GUI/lvgl/src/lv_init.c **** #endif
 323:../../Middlewares/LVGL/GUI/lvgl/src/lv_init.c **** 
 324:../../Middlewares/LVGL/GUI/lvgl/src/lv_init.c **** #if LV_USE_FS_FATFS != '\0'
 325:../../Middlewares/LVGL/GUI/lvgl/src/lv_init.c ****     lv_fs_fatfs_init();
 326:../../Middlewares/LVGL/GUI/lvgl/src/lv_init.c **** #endif
 327:../../Middlewares/LVGL/GUI/lvgl/src/lv_init.c **** 
 328:../../Middlewares/LVGL/GUI/lvgl/src/lv_init.c **** #if LV_USE_FS_STDIO != '\0'
 329:../../Middlewares/LVGL/GUI/lvgl/src/lv_init.c ****     lv_fs_stdio_init();
 330:../../Middlewares/LVGL/GUI/lvgl/src/lv_init.c **** #endif
 331:../../Middlewares/LVGL/GUI/lvgl/src/lv_init.c **** 
 332:../../Middlewares/LVGL/GUI/lvgl/src/lv_init.c **** #if LV_USE_FS_POSIX != '\0'
 333:../../Middlewares/LVGL/GUI/lvgl/src/lv_init.c ****     lv_fs_posix_init();
 334:../../Middlewares/LVGL/GUI/lvgl/src/lv_init.c **** #endif
 335:../../Middlewares/LVGL/GUI/lvgl/src/lv_init.c **** 
 336:../../Middlewares/LVGL/GUI/lvgl/src/lv_init.c **** #if LV_USE_FS_WIN32 != '\0'
 337:../../Middlewares/LVGL/GUI/lvgl/src/lv_init.c ****     lv_fs_win32_init();
 338:../../Middlewares/LVGL/GUI/lvgl/src/lv_init.c **** #endif
 339:../../Middlewares/LVGL/GUI/lvgl/src/lv_init.c **** 
 340:../../Middlewares/LVGL/GUI/lvgl/src/lv_init.c **** #if LV_USE_FS_MEMFS
 341:../../Middlewares/LVGL/GUI/lvgl/src/lv_init.c ****     lv_fs_memfs_init();
 342:../../Middlewares/LVGL/GUI/lvgl/src/lv_init.c **** #endif
 343:../../Middlewares/LVGL/GUI/lvgl/src/lv_init.c **** 
 344:../../Middlewares/LVGL/GUI/lvgl/src/lv_init.c **** #if LV_USE_FS_LITTLEFS
 345:../../Middlewares/LVGL/GUI/lvgl/src/lv_init.c ****     lv_fs_littlefs_init();
 346:../../Middlewares/LVGL/GUI/lvgl/src/lv_init.c **** #endif
 347:../../Middlewares/LVGL/GUI/lvgl/src/lv_init.c **** 
 348:../../Middlewares/LVGL/GUI/lvgl/src/lv_init.c **** #if LV_USE_FS_ARDUINO_ESP_LITTLEFS
 349:../../Middlewares/LVGL/GUI/lvgl/src/lv_init.c ****     lv_fs_arduino_esp_littlefs_init();
 350:../../Middlewares/LVGL/GUI/lvgl/src/lv_init.c **** #endif
 351:../../Middlewares/LVGL/GUI/lvgl/src/lv_init.c **** 
 352:../../Middlewares/LVGL/GUI/lvgl/src/lv_init.c **** #if LV_USE_FS_ARDUINO_SD
 353:../../Middlewares/LVGL/GUI/lvgl/src/lv_init.c ****     lv_fs_arduino_sd_init();
 354:../../Middlewares/LVGL/GUI/lvgl/src/lv_init.c **** #endif
 355:../../Middlewares/LVGL/GUI/lvgl/src/lv_init.c **** 
 356:../../Middlewares/LVGL/GUI/lvgl/src/lv_init.c **** #if LV_USE_FS_UEFI
 357:../../Middlewares/LVGL/GUI/lvgl/src/lv_init.c ****     lv_fs_uefi_init();
 358:../../Middlewares/LVGL/GUI/lvgl/src/lv_init.c **** #endif
 359:../../Middlewares/LVGL/GUI/lvgl/src/lv_init.c **** 
 360:../../Middlewares/LVGL/GUI/lvgl/src/lv_init.c ****     /*Use the earlier initialized position of FFmpeg decoder as a fallback decoder*/
 361:../../Middlewares/LVGL/GUI/lvgl/src/lv_init.c **** #if LV_USE_FFMPEG
 362:../../Middlewares/LVGL/GUI/lvgl/src/lv_init.c ****     lv_ffmpeg_init();
 363:../../Middlewares/LVGL/GUI/lvgl/src/lv_init.c **** #endif
 364:../../Middlewares/LVGL/GUI/lvgl/src/lv_init.c **** 
 365:../../Middlewares/LVGL/GUI/lvgl/src/lv_init.c **** #if LV_USE_LODEPNG
 366:../../Middlewares/LVGL/GUI/lvgl/src/lv_init.c ****     lv_lodepng_init();
 367:../../Middlewares/LVGL/GUI/lvgl/src/lv_init.c **** #endif
 368:../../Middlewares/LVGL/GUI/lvgl/src/lv_init.c **** 
 369:../../Middlewares/LVGL/GUI/lvgl/src/lv_init.c **** #if LV_USE_LIBPNG
 370:../../Middlewares/LVGL/GUI/lvgl/src/lv_init.c ****     lv_libpng_init();
 371:../../Middlewares/LVGL/GUI/lvgl/src/lv_init.c **** #endif
 372:../../Middlewares/LVGL/GUI/lvgl/src/lv_init.c **** 
 373:../../Middlewares/LVGL/GUI/lvgl/src/lv_init.c **** #if LV_USE_TJPGD
 374:../../Middlewares/LVGL/GUI/lvgl/src/lv_init.c ****     lv_tjpgd_init();
 375:../../Middlewares/LVGL/GUI/lvgl/src/lv_init.c **** #endif
 376:../../Middlewares/LVGL/GUI/lvgl/src/lv_init.c **** 
 377:../../Middlewares/LVGL/GUI/lvgl/src/lv_init.c **** #if LV_USE_LIBJPEG_TURBO
 378:../../Middlewares/LVGL/GUI/lvgl/src/lv_init.c ****     lv_libjpeg_turbo_init();
ARM GAS  C:\Users\28576\AppData\Local\Temp\cc8rRXGp.s 			page 13


 379:../../Middlewares/LVGL/GUI/lvgl/src/lv_init.c **** #endif
 380:../../Middlewares/LVGL/GUI/lvgl/src/lv_init.c **** 
 381:../../Middlewares/LVGL/GUI/lvgl/src/lv_init.c **** #if LV_USE_BMP
 382:../../Middlewares/LVGL/GUI/lvgl/src/lv_init.c ****     lv_bmp_init();
 383:../../Middlewares/LVGL/GUI/lvgl/src/lv_init.c **** #endif
 384:../../Middlewares/LVGL/GUI/lvgl/src/lv_init.c **** 
 385:../../Middlewares/LVGL/GUI/lvgl/src/lv_init.c **** #if LV_USE_SVG
 386:../../Middlewares/LVGL/GUI/lvgl/src/lv_init.c ****     lv_svg_decoder_init();
 387:../../Middlewares/LVGL/GUI/lvgl/src/lv_init.c **** #endif
 388:../../Middlewares/LVGL/GUI/lvgl/src/lv_init.c **** 
 389:../../Middlewares/LVGL/GUI/lvgl/src/lv_init.c **** #if LV_USE_XML
 390:../../Middlewares/LVGL/GUI/lvgl/src/lv_init.c ****     lv_xml_init();
 391:../../Middlewares/LVGL/GUI/lvgl/src/lv_init.c **** #endif
 392:../../Middlewares/LVGL/GUI/lvgl/src/lv_init.c **** 
 393:../../Middlewares/LVGL/GUI/lvgl/src/lv_init.c ****     lv_initialized = true;
 394:../../Middlewares/LVGL/GUI/lvgl/src/lv_init.c **** 
 395:../../Middlewares/LVGL/GUI/lvgl/src/lv_init.c ****     LV_LOG_TRACE("finished");
 396:../../Middlewares/LVGL/GUI/lvgl/src/lv_init.c **** }
 227              		.loc 1 396 1 view .LVU53
 228 0008 08BD     		pop	{r3, pc}
 229              	.L21:
 185:../../Middlewares/LVGL/GUI/lvgl/src/lv_init.c **** 
 230              		.loc 1 185 5 is_stmt 1 view .LVU54
 185:../../Middlewares/LVGL/GUI/lvgl/src/lv_init.c **** 
 231              		.loc 1 185 5 view .LVU55
 185:../../Middlewares/LVGL/GUI/lvgl/src/lv_init.c **** 
 232              		.loc 1 185 5 view .LVU56
 188:../../Middlewares/LVGL/GUI/lvgl/src/lv_init.c **** 
 233              		.loc 1 188 5 view .LVU57
 234 000a 1448     		ldr	r0, .L22
 235 000c FFF7FEFF 		bl	lv_global_init
 236              	.LVL12:
 190:../../Middlewares/LVGL/GUI/lvgl/src/lv_init.c **** 
 237              		.loc 1 190 5 view .LVU58
 238 0010 FFF7FEFF 		bl	lv_mem_init
 239              	.LVL13:
 192:../../Middlewares/LVGL/GUI/lvgl/src/lv_init.c **** 
 240              		.loc 1 192 5 view .LVU59
 241 0014 FFF7FEFF 		bl	lv_draw_buf_init_handlers
 242              	.LVL14:
 195:../../Middlewares/LVGL/GUI/lvgl/src/lv_init.c **** #endif
 243              		.loc 1 195 5 view .LVU60
 244 0018 FFF7FEFF 		bl	lv_span_stack_init
 245              	.LVL15:
 204:../../Middlewares/LVGL/GUI/lvgl/src/lv_init.c **** 
 246              		.loc 1 204 5 view .LVU61
 247 001c FFF7FEFF 		bl	lv_os_init
 248              	.LVL16:
 206:../../Middlewares/LVGL/GUI/lvgl/src/lv_init.c **** 
 249              		.loc 1 206 5 view .LVU62
 250 0020 FFF7FEFF 		bl	lv_timer_core_init
 251              	.LVL17:
 208:../../Middlewares/LVGL/GUI/lvgl/src/lv_init.c **** 
 252              		.loc 1 208 5 view .LVU63
 253 0024 FFF7FEFF 		bl	lv_fs_init
 254              	.LVL18:
 210:../../Middlewares/LVGL/GUI/lvgl/src/lv_init.c **** 
ARM GAS  C:\Users\28576\AppData\Local\Temp\cc8rRXGp.s 			page 14


 255              		.loc 1 210 5 view .LVU64
 256 0028 FFF7FEFF 		bl	lv_layout_init
 257              	.LVL19:
 212:../../Middlewares/LVGL/GUI/lvgl/src/lv_init.c **** 
 258              		.loc 1 212 5 view .LVU65
 259 002c FFF7FEFF 		bl	lv_anim_core_init
 260              	.LVL20:
 214:../../Middlewares/LVGL/GUI/lvgl/src/lv_init.c **** 
 261              		.loc 1 214 5 view .LVU66
 262 0030 FFF7FEFF 		bl	lv_group_init
 263              	.LVL21:
 223:../../Middlewares/LVGL/GUI/lvgl/src/lv_init.c **** 
 264              		.loc 1 223 5 view .LVU67
 265 0034 FFF7FEFF 		bl	lv_draw_init
 266              	.LVL22:
 226:../../Middlewares/LVGL/GUI/lvgl/src/lv_init.c **** #endif
 267              		.loc 1 226 5 view .LVU68
 268 0038 FFF7FEFF 		bl	lv_draw_sw_init
 269              	.LVL23:
 271:../../Middlewares/LVGL/GUI/lvgl/src/lv_init.c **** 
 270              		.loc 1 271 5 view .LVU69
 271 003c FFF7FEFF 		bl	lv_obj_style_init
 272              	.LVL24:
 274:../../Middlewares/LVGL/GUI/lvgl/src/lv_init.c **** 
 273              		.loc 1 274 5 view .LVU70
 274 0040 FFF7FEFF 		bl	lv_refr_init
 275              	.LVL25:
 277:../../Middlewares/LVGL/GUI/lvgl/src/lv_init.c **** #endif
 276              		.loc 1 277 5 view .LVU71
 277 0044 FFF7FEFF 		bl	lv_sysmon_builtin_init
 278              	.LVL26:
 280:../../Middlewares/LVGL/GUI/lvgl/src/lv_init.c ****     lv_bin_decoder_init();  /*LVGL built-in binary image decoder*/
 279              		.loc 1 280 5 view .LVU72
 280 0048 0021     		movs	r1, #0
 281 004a 0846     		mov	r0, r1
 282 004c FFF7FEFF 		bl	lv_image_decoder_init
 283              	.LVL27:
 281:../../Middlewares/LVGL/GUI/lvgl/src/lv_init.c **** 
 284              		.loc 1 281 5 view .LVU73
 285 0050 FFF7FEFF 		bl	lv_bin_decoder_init
 286              	.LVL28:
 288:../../Middlewares/LVGL/GUI/lvgl/src/lv_init.c **** 
 287              		.loc 1 288 5 view .LVU74
 290:../../Middlewares/LVGL/GUI/lvgl/src/lv_init.c ****     if(txt_u8[0] != 0xc3 || txt_u8[1] != 0x81 || txt_u8[2] != 0x00) {
 288              		.loc 1 290 5 view .LVU75
 291:../../Middlewares/LVGL/GUI/lvgl/src/lv_init.c ****         LV_LOG_WARN("The strings have no UTF-8 encoding. Non-ASCII characters won't be displayed.")
 289              		.loc 1 291 5 view .LVU76
 292:../../Middlewares/LVGL/GUI/lvgl/src/lv_init.c ****     }
 290              		.loc 1 292 9 view .LVU77
 292:../../Middlewares/LVGL/GUI/lvgl/src/lv_init.c ****     }
 291              		.loc 1 292 9 view .LVU78
 292:../../Middlewares/LVGL/GUI/lvgl/src/lv_init.c ****     }
 292              		.loc 1 292 9 view .LVU79
 295:../../Middlewares/LVGL/GUI/lvgl/src/lv_init.c ****     uint8_t * endianness_test_p = (uint8_t *) &endianness_test;
 293              		.loc 1 295 5 view .LVU80
 296:../../Middlewares/LVGL/GUI/lvgl/src/lv_init.c ****     bool big_endian = endianness_test_p[0] == 0x11;
 294              		.loc 1 296 5 view .LVU81
ARM GAS  C:\Users\28576\AppData\Local\Temp\cc8rRXGp.s 			page 15


 297:../../Middlewares/LVGL/GUI/lvgl/src/lv_init.c **** 
 295              		.loc 1 297 5 view .LVU82
 299:../../Middlewares/LVGL/GUI/lvgl/src/lv_init.c ****         LV_ASSERT_MSG(LV_BIG_ENDIAN_SYSTEM == 1,
 296              		.loc 1 299 5 view .LVU83
 304:../../Middlewares/LVGL/GUI/lvgl/src/lv_init.c ****                       "It's a little endian system but LV_BIG_ENDIAN_SYSTEM is enabled in lv_conf.h
 297              		.loc 1 304 9 view .LVU84
 304:../../Middlewares/LVGL/GUI/lvgl/src/lv_init.c ****                       "It's a little endian system but LV_BIG_ENDIAN_SYSTEM is enabled in lv_conf.h
 298              		.loc 1 304 9 view .LVU85
 304:../../Middlewares/LVGL/GUI/lvgl/src/lv_init.c ****                       "It's a little endian system but LV_BIG_ENDIAN_SYSTEM is enabled in lv_conf.h
 299              		.loc 1 304 9 view .LVU86
 393:../../Middlewares/LVGL/GUI/lvgl/src/lv_init.c **** 
 300              		.loc 1 393 5 view .LVU87
 393:../../Middlewares/LVGL/GUI/lvgl/src/lv_init.c **** 
 301              		.loc 1 393 20 is_stmt 0 view .LVU88
 302 0054 0123     		movs	r3, #1
 303 0056 014A     		ldr	r2, .L22
 304 0058 1370     		strb	r3, [r2]
 395:../../Middlewares/LVGL/GUI/lvgl/src/lv_init.c **** }
 305              		.loc 1 395 5 is_stmt 1 view .LVU89
 395:../../Middlewares/LVGL/GUI/lvgl/src/lv_init.c **** }
 306              		.loc 1 395 5 view .LVU90
 395:../../Middlewares/LVGL/GUI/lvgl/src/lv_init.c **** }
 307              		.loc 1 395 5 view .LVU91
 308              	.LVL29:
 395:../../Middlewares/LVGL/GUI/lvgl/src/lv_init.c **** }
 309              		.loc 1 395 5 is_stmt 0 view .LVU92
 310 005a D5E7     		b	.L18
 311              	.L23:
 312              		.align	2
 313              	.L22:
 314 005c 00000000 		.word	lv_global
 315              		.cfi_endproc
 316              	.LFE190:
 318              		.section	.text.lv_deinit,"ax",%progbits
 319              		.align	1
 320              		.global	lv_deinit
 321              		.syntax unified
 322              		.thumb
 323              		.thumb_func
 325              	lv_deinit:
 326              	.LFB191:
 397:../../Middlewares/LVGL/GUI/lvgl/src/lv_init.c **** 
 398:../../Middlewares/LVGL/GUI/lvgl/src/lv_init.c **** void lv_deinit(void)
 399:../../Middlewares/LVGL/GUI/lvgl/src/lv_init.c **** {
 327              		.loc 1 399 1 is_stmt 1 view -0
 328              		.cfi_startproc
 329              		@ args = 0, pretend = 0, frame = 0
 330              		@ frame_needed = 0, uses_anonymous_args = 0
 400:../../Middlewares/LVGL/GUI/lvgl/src/lv_init.c ****     /*Do nothing if already deinit*/
 401:../../Middlewares/LVGL/GUI/lvgl/src/lv_init.c ****     if(!lv_initialized) {
 331              		.loc 1 401 5 view .LVU94
 332              		.loc 1 401 9 is_stmt 0 view .LVU95
 333 0000 194B     		ldr	r3, .L31
 334 0002 1B78     		ldrb	r3, [r3]	@ zero_extendqisi2
 335              		.loc 1 401 7 view .LVU96
 336 0004 13B1     		cbz	r3, .L27
 402:../../Middlewares/LVGL/GUI/lvgl/src/lv_init.c ****         LV_LOG_WARN("lv_deinit: already deinit!");
ARM GAS  C:\Users\28576\AppData\Local\Temp\cc8rRXGp.s 			page 16


 403:../../Middlewares/LVGL/GUI/lvgl/src/lv_init.c ****         return;
 404:../../Middlewares/LVGL/GUI/lvgl/src/lv_init.c ****     }
 405:../../Middlewares/LVGL/GUI/lvgl/src/lv_init.c **** 
 406:../../Middlewares/LVGL/GUI/lvgl/src/lv_init.c ****     if(lv_deinit_in_progress) return;
 337              		.loc 1 406 5 is_stmt 1 view .LVU97
 338              		.loc 1 406 8 is_stmt 0 view .LVU98
 339 0006 184B     		ldr	r3, .L31
 340 0008 5B78     		ldrb	r3, [r3, #1]	@ zero_extendqisi2
 341              		.loc 1 406 7 view .LVU99
 342 000a 03B1     		cbz	r3, .L30
 343              	.L27:
 344 000c 7047     		bx	lr
 345              	.L30:
 399:../../Middlewares/LVGL/GUI/lvgl/src/lv_init.c ****     /*Do nothing if already deinit*/
 346              		.loc 1 399 1 view .LVU100
 347 000e 10B5     		push	{r4, lr}
 348              	.LCFI5:
 349              		.cfi_def_cfa_offset 8
 350              		.cfi_offset 4, -8
 351              		.cfi_offset 14, -4
 407:../../Middlewares/LVGL/GUI/lvgl/src/lv_init.c **** 
 408:../../Middlewares/LVGL/GUI/lvgl/src/lv_init.c ****     lv_deinit_in_progress = true;
 352              		.loc 1 408 5 is_stmt 1 view .LVU101
 353              		.loc 1 408 27 is_stmt 0 view .LVU102
 354 0010 0123     		movs	r3, #1
 355 0012 154C     		ldr	r4, .L31
 356 0014 6370     		strb	r3, [r4, #1]
 409:../../Middlewares/LVGL/GUI/lvgl/src/lv_init.c **** 
 410:../../Middlewares/LVGL/GUI/lvgl/src/lv_init.c **** #if LV_USE_SYSMON
 411:../../Middlewares/LVGL/GUI/lvgl/src/lv_init.c ****     lv_sysmon_builtin_deinit();
 357              		.loc 1 411 5 is_stmt 1 view .LVU103
 358 0016 FFF7FEFF 		bl	lv_sysmon_builtin_deinit
 359              	.LVL30:
 412:../../Middlewares/LVGL/GUI/lvgl/src/lv_init.c **** #endif
 413:../../Middlewares/LVGL/GUI/lvgl/src/lv_init.c **** 
 414:../../Middlewares/LVGL/GUI/lvgl/src/lv_init.c ****     lv_display_set_default(NULL);
 360              		.loc 1 414 5 view .LVU104
 361 001a 0020     		movs	r0, #0
 362 001c FFF7FEFF 		bl	lv_display_set_default
 363              	.LVL31:
 415:../../Middlewares/LVGL/GUI/lvgl/src/lv_init.c **** 
 416:../../Middlewares/LVGL/GUI/lvgl/src/lv_init.c ****     lv_cleanup_devices(LV_GLOBAL_DEFAULT());
 364              		.loc 1 416 5 view .LVU105
 365 0020 2046     		mov	r0, r4
 366 0022 FFF7FEFF 		bl	lv_cleanup_devices
 367              	.LVL32:
 417:../../Middlewares/LVGL/GUI/lvgl/src/lv_init.c **** 
 418:../../Middlewares/LVGL/GUI/lvgl/src/lv_init.c **** #if LV_USE_EVDEV
 419:../../Middlewares/LVGL/GUI/lvgl/src/lv_init.c ****     lv_evdev_deinit();
 420:../../Middlewares/LVGL/GUI/lvgl/src/lv_init.c **** #endif
 421:../../Middlewares/LVGL/GUI/lvgl/src/lv_init.c **** 
 422:../../Middlewares/LVGL/GUI/lvgl/src/lv_init.c **** #if LV_USE_SPAN != 0
 423:../../Middlewares/LVGL/GUI/lvgl/src/lv_init.c ****     lv_span_stack_deinit();
 368              		.loc 1 423 5 view .LVU106
 369 0026 FFF7FEFF 		bl	lv_span_stack_deinit
 370              	.LVL33:
 424:../../Middlewares/LVGL/GUI/lvgl/src/lv_init.c **** #endif
ARM GAS  C:\Users\28576\AppData\Local\Temp\cc8rRXGp.s 			page 17


 425:../../Middlewares/LVGL/GUI/lvgl/src/lv_init.c **** 
 426:../../Middlewares/LVGL/GUI/lvgl/src/lv_init.c **** #if LV_USE_FREETYPE
 427:../../Middlewares/LVGL/GUI/lvgl/src/lv_init.c ****     lv_freetype_uninit();
 428:../../Middlewares/LVGL/GUI/lvgl/src/lv_init.c **** #endif
 429:../../Middlewares/LVGL/GUI/lvgl/src/lv_init.c **** 
 430:../../Middlewares/LVGL/GUI/lvgl/src/lv_init.c **** #if LV_USE_THEME_DEFAULT
 431:../../Middlewares/LVGL/GUI/lvgl/src/lv_init.c ****     lv_theme_default_deinit();
 371              		.loc 1 431 5 view .LVU107
 372 002a FFF7FEFF 		bl	lv_theme_default_deinit
 373              	.LVL34:
 432:../../Middlewares/LVGL/GUI/lvgl/src/lv_init.c **** #endif
 433:../../Middlewares/LVGL/GUI/lvgl/src/lv_init.c **** 
 434:../../Middlewares/LVGL/GUI/lvgl/src/lv_init.c **** #if LV_USE_THEME_SIMPLE
 435:../../Middlewares/LVGL/GUI/lvgl/src/lv_init.c ****     lv_theme_simple_deinit();
 374              		.loc 1 435 5 view .LVU108
 375 002e FFF7FEFF 		bl	lv_theme_simple_deinit
 376              	.LVL35:
 436:../../Middlewares/LVGL/GUI/lvgl/src/lv_init.c **** #endif
 437:../../Middlewares/LVGL/GUI/lvgl/src/lv_init.c **** 
 438:../../Middlewares/LVGL/GUI/lvgl/src/lv_init.c **** #if LV_USE_THEME_MONO
 439:../../Middlewares/LVGL/GUI/lvgl/src/lv_init.c ****     lv_theme_mono_deinit();
 377              		.loc 1 439 5 view .LVU109
 378 0032 FFF7FEFF 		bl	lv_theme_mono_deinit
 379              	.LVL36:
 440:../../Middlewares/LVGL/GUI/lvgl/src/lv_init.c **** #endif
 441:../../Middlewares/LVGL/GUI/lvgl/src/lv_init.c **** 
 442:../../Middlewares/LVGL/GUI/lvgl/src/lv_init.c ****     lv_image_decoder_deinit();
 380              		.loc 1 442 5 view .LVU110
 381 0036 FFF7FEFF 		bl	lv_image_decoder_deinit
 382              	.LVL37:
 443:../../Middlewares/LVGL/GUI/lvgl/src/lv_init.c **** 
 444:../../Middlewares/LVGL/GUI/lvgl/src/lv_init.c ****     lv_refr_deinit();
 383              		.loc 1 444 5 view .LVU111
 384 003a FFF7FEFF 		bl	lv_refr_deinit
 385              	.LVL38:
 445:../../Middlewares/LVGL/GUI/lvgl/src/lv_init.c **** 
 446:../../Middlewares/LVGL/GUI/lvgl/src/lv_init.c ****     lv_obj_style_deinit();
 386              		.loc 1 446 5 view .LVU112
 387 003e FFF7FEFF 		bl	lv_obj_style_deinit
 388              	.LVL39:
 447:../../Middlewares/LVGL/GUI/lvgl/src/lv_init.c **** 
 448:../../Middlewares/LVGL/GUI/lvgl/src/lv_init.c **** #if LV_USE_UEFI
 449:../../Middlewares/LVGL/GUI/lvgl/src/lv_init.c ****     lv_uefi_platform_deinit();
 450:../../Middlewares/LVGL/GUI/lvgl/src/lv_init.c **** #endif
 451:../../Middlewares/LVGL/GUI/lvgl/src/lv_init.c **** 
 452:../../Middlewares/LVGL/GUI/lvgl/src/lv_init.c **** #if LV_USE_PXP
 453:../../Middlewares/LVGL/GUI/lvgl/src/lv_init.c **** #if LV_USE_DRAW_PXP || LV_USE_ROTATE_PXP
 454:../../Middlewares/LVGL/GUI/lvgl/src/lv_init.c ****     lv_draw_pxp_deinit();
 455:../../Middlewares/LVGL/GUI/lvgl/src/lv_init.c **** #endif
 456:../../Middlewares/LVGL/GUI/lvgl/src/lv_init.c **** #endif
 457:../../Middlewares/LVGL/GUI/lvgl/src/lv_init.c **** 
 458:../../Middlewares/LVGL/GUI/lvgl/src/lv_init.c **** #if LV_USE_DRAW_VGLITE
 459:../../Middlewares/LVGL/GUI/lvgl/src/lv_init.c ****     lv_draw_vglite_deinit();
 460:../../Middlewares/LVGL/GUI/lvgl/src/lv_init.c **** #endif
 461:../../Middlewares/LVGL/GUI/lvgl/src/lv_init.c **** 
 462:../../Middlewares/LVGL/GUI/lvgl/src/lv_init.c **** #if LV_USE_DRAW_G2D
 463:../../Middlewares/LVGL/GUI/lvgl/src/lv_init.c ****     lv_draw_g2d_deinit();
ARM GAS  C:\Users\28576\AppData\Local\Temp\cc8rRXGp.s 			page 18


 464:../../Middlewares/LVGL/GUI/lvgl/src/lv_init.c **** #endif
 465:../../Middlewares/LVGL/GUI/lvgl/src/lv_init.c **** 
 466:../../Middlewares/LVGL/GUI/lvgl/src/lv_init.c **** #if LV_USE_DRAW_VG_LITE
 467:../../Middlewares/LVGL/GUI/lvgl/src/lv_init.c ****     lv_draw_vg_lite_deinit();
 468:../../Middlewares/LVGL/GUI/lvgl/src/lv_init.c **** #endif
 469:../../Middlewares/LVGL/GUI/lvgl/src/lv_init.c **** 
 470:../../Middlewares/LVGL/GUI/lvgl/src/lv_init.c **** #if LV_USE_DRAW_DMA2D
 471:../../Middlewares/LVGL/GUI/lvgl/src/lv_init.c ****     lv_draw_dma2d_deinit();
 472:../../Middlewares/LVGL/GUI/lvgl/src/lv_init.c **** #endif
 473:../../Middlewares/LVGL/GUI/lvgl/src/lv_init.c **** 
 474:../../Middlewares/LVGL/GUI/lvgl/src/lv_init.c **** #if LV_USE_DRAW_OPENGLES
 475:../../Middlewares/LVGL/GUI/lvgl/src/lv_init.c ****     lv_draw_opengles_deinit();
 476:../../Middlewares/LVGL/GUI/lvgl/src/lv_init.c **** #endif
 477:../../Middlewares/LVGL/GUI/lvgl/src/lv_init.c **** 
 478:../../Middlewares/LVGL/GUI/lvgl/src/lv_init.c **** #if LV_USE_DRAW_SW
 479:../../Middlewares/LVGL/GUI/lvgl/src/lv_init.c ****     lv_draw_sw_deinit();
 389              		.loc 1 479 5 view .LVU113
 390 0042 FFF7FEFF 		bl	lv_draw_sw_deinit
 391              	.LVL40:
 480:../../Middlewares/LVGL/GUI/lvgl/src/lv_init.c **** #endif
 481:../../Middlewares/LVGL/GUI/lvgl/src/lv_init.c **** 
 482:../../Middlewares/LVGL/GUI/lvgl/src/lv_init.c ****     lv_draw_deinit();
 392              		.loc 1 482 5 view .LVU114
 393 0046 FFF7FEFF 		bl	lv_draw_deinit
 394              	.LVL41:
 483:../../Middlewares/LVGL/GUI/lvgl/src/lv_init.c **** 
 484:../../Middlewares/LVGL/GUI/lvgl/src/lv_init.c ****     lv_group_deinit();
 395              		.loc 1 484 5 view .LVU115
 396 004a FFF7FEFF 		bl	lv_group_deinit
 397              	.LVL42:
 485:../../Middlewares/LVGL/GUI/lvgl/src/lv_init.c **** 
 486:../../Middlewares/LVGL/GUI/lvgl/src/lv_init.c ****     lv_anim_core_deinit();
 398              		.loc 1 486 5 view .LVU116
 399 004e FFF7FEFF 		bl	lv_anim_core_deinit
 400              	.LVL43:
 487:../../Middlewares/LVGL/GUI/lvgl/src/lv_init.c **** 
 488:../../Middlewares/LVGL/GUI/lvgl/src/lv_init.c ****     lv_layout_deinit();
 401              		.loc 1 488 5 view .LVU117
 402 0052 FFF7FEFF 		bl	lv_layout_deinit
 403              	.LVL44:
 489:../../Middlewares/LVGL/GUI/lvgl/src/lv_init.c **** 
 490:../../Middlewares/LVGL/GUI/lvgl/src/lv_init.c ****     lv_fs_deinit();
 404              		.loc 1 490 5 view .LVU118
 405 0056 FFF7FEFF 		bl	lv_fs_deinit
 406              	.LVL45:
 491:../../Middlewares/LVGL/GUI/lvgl/src/lv_init.c **** 
 492:../../Middlewares/LVGL/GUI/lvgl/src/lv_init.c ****     lv_timer_core_deinit();
 407              		.loc 1 492 5 view .LVU119
 408 005a FFF7FEFF 		bl	lv_timer_core_deinit
 409              	.LVL46:
 493:../../Middlewares/LVGL/GUI/lvgl/src/lv_init.c **** 
 494:../../Middlewares/LVGL/GUI/lvgl/src/lv_init.c **** #if LV_USE_PROFILER && LV_USE_PROFILER_BUILTIN
 495:../../Middlewares/LVGL/GUI/lvgl/src/lv_init.c ****     lv_profiler_builtin_uninit();
 496:../../Middlewares/LVGL/GUI/lvgl/src/lv_init.c **** #endif
 497:../../Middlewares/LVGL/GUI/lvgl/src/lv_init.c **** 
 498:../../Middlewares/LVGL/GUI/lvgl/src/lv_init.c **** #if LV_USE_OBJ_ID && LV_USE_OBJ_ID_BUILTIN
 499:../../Middlewares/LVGL/GUI/lvgl/src/lv_init.c ****     lv_objid_builtin_destroy();
ARM GAS  C:\Users\28576\AppData\Local\Temp\cc8rRXGp.s 			page 19


 500:../../Middlewares/LVGL/GUI/lvgl/src/lv_init.c **** #endif
 501:../../Middlewares/LVGL/GUI/lvgl/src/lv_init.c **** 
 502:../../Middlewares/LVGL/GUI/lvgl/src/lv_init.c ****     lv_mem_deinit();
 410              		.loc 1 502 5 view .LVU120
 411 005e FFF7FEFF 		bl	lv_mem_deinit
 412              	.LVL47:
 503:../../Middlewares/LVGL/GUI/lvgl/src/lv_init.c **** 
 504:../../Middlewares/LVGL/GUI/lvgl/src/lv_init.c ****     lv_initialized = false;
 413              		.loc 1 504 5 view .LVU121
 414              		.loc 1 504 20 is_stmt 0 view .LVU122
 415 0062 0023     		movs	r3, #0
 416 0064 2370     		strb	r3, [r4]
 505:../../Middlewares/LVGL/GUI/lvgl/src/lv_init.c **** 
 506:../../Middlewares/LVGL/GUI/lvgl/src/lv_init.c ****     LV_LOG_INFO("lv_deinit done");
 417              		.loc 1 506 5 is_stmt 1 view .LVU123
 418              		.loc 1 506 5 view .LVU124
 419              		.loc 1 506 5 view .LVU125
 507:../../Middlewares/LVGL/GUI/lvgl/src/lv_init.c **** 
 508:../../Middlewares/LVGL/GUI/lvgl/src/lv_init.c **** #if LV_USE_LOG
 509:../../Middlewares/LVGL/GUI/lvgl/src/lv_init.c ****     lv_log_register_print_cb(NULL);
 510:../../Middlewares/LVGL/GUI/lvgl/src/lv_init.c **** #endif
 511:../../Middlewares/LVGL/GUI/lvgl/src/lv_init.c **** 
 512:../../Middlewares/LVGL/GUI/lvgl/src/lv_init.c **** #ifdef LV_GC_DEINIT
 513:../../Middlewares/LVGL/GUI/lvgl/src/lv_init.c ****     LV_GC_DEINIT();
 514:../../Middlewares/LVGL/GUI/lvgl/src/lv_init.c **** #endif
 515:../../Middlewares/LVGL/GUI/lvgl/src/lv_init.c **** 
 516:../../Middlewares/LVGL/GUI/lvgl/src/lv_init.c **** }
 420              		.loc 1 516 1 is_stmt 0 view .LVU126
 421 0066 10BD     		pop	{r4, pc}
 422              	.L32:
 423              		.align	2
 424              	.L31:
 425 0068 00000000 		.word	lv_global
 426              		.cfi_endproc
 427              	.LFE191:
 429              		.global	lv_global
 430              		.section	.bss.lv_global,"aw",%nobits
 431              		.align	2
 434              	lv_global:
 435 0000 00000000 		.space	504
 435      00000000 
 435      00000000 
 435      00000000 
 435      00000000 
 436              		.text
 437              	.Letext0:
 438              		.file 3 "C:/Users/28576/AppData/Roaming/xPacks/@xpack-dev-tools/arm-none-eabi-gcc/15.2.1-1.1.1/.co
 439              		.file 4 "C:/Users/28576/AppData/Roaming/xPacks/@xpack-dev-tools/arm-none-eabi-gcc/15.2.1-1.1.1/.co
 440              		.file 5 "C:/Users/28576/AppData/Roaming/xPacks/@xpack-dev-tools/arm-none-eabi-gcc/15.2.1-1.1.1/.co
 441              		.file 6 "H:/STM32H7/RGB_LVGL/Middlewares/LVGL/GUI/lvgl/src/misc/lv_types.h"
 442              		.file 7 "../../Middlewares/LVGL/GUI/lvgl/src/core/lv_group_private.h"
 443              		.file 8 "../../Middlewares/LVGL/GUI/lvgl/src/display/lv_display_private.h"
 444              		.file 9 "../../Middlewares/LVGL/GUI/lvgl/src/core/../draw/lv_draw.h"
 445              		.file 10 "../../Middlewares/LVGL/GUI/lvgl/src/core/../draw/lv_draw_private.h"
 446              		.file 11 "../../Middlewares/LVGL/GUI/lvgl/src/indev/lv_indev_private.h"
 447              		.file 12 "../../Middlewares/LVGL/GUI/lvgl/src/misc/lv_timer_private.h"
 448              		.file 13 "../../Middlewares/LVGL/GUI/lvgl/src/misc/lv_anim.h"
ARM GAS  C:\Users\28576\AppData\Local\Temp\cc8rRXGp.s 			page 20


 449              		.file 14 "H:/STM32H7/RGB_LVGL/Middlewares/LVGL/GUI/lvgl/src/misc/cache/lv_cache_private.h"
 450              		.file 15 "../../Middlewares/LVGL/GUI/lvgl/src/draw/lv_draw_buf_private.h"
 451              		.file 16 "H:/STM32H7/RGB_LVGL/Middlewares/LVGL/GUI/lvgl/src/misc/lv_array.h"
 452              		.file 17 "../../Middlewares/LVGL/GUI/lvgl/src/draw/lv_draw_buf.h"
 453              		.file 18 "../../Middlewares/LVGL/GUI/lvgl/src/misc/../tick/lv_tick.h"
 454              		.file 19 "../../Middlewares/LVGL/GUI/lvgl/src/misc/lv_ll.h"
 455              		.file 20 "../../Middlewares/LVGL/GUI/lvgl/src/misc/lv_timer.h"
 456              		.file 21 "../../Middlewares/LVGL/GUI/lvgl/src/misc/lv_anim_private.h"
 457              		.file 22 "../../Middlewares/LVGL/GUI/lvgl/src/draw/../misc/lv_area.h"
 458              		.file 23 "../../Middlewares/LVGL/GUI/lvgl/src/draw/../misc/lv_color.h"
 459              		.file 24 "../../Middlewares/LVGL/GUI/lvgl/src/draw/lv_image_dsc.h"
 460              		.file 25 "H:/STM32H7/RGB_LVGL/Middlewares/LVGL/GUI/lvgl/src/osal/lv_os_none.h"
 461              		.file 26 "H:/STM32H7/RGB_LVGL/Middlewares/LVGL/GUI/lvgl/src/layouts/lv_layout.h"
 462              		.file 27 "../../Middlewares/LVGL/GUI/lvgl/src/core/../misc/lv_style.h"
 463              		.file 28 "H:/STM32H7/RGB_LVGL/Middlewares/LVGL/GUI/lvgl/src/misc/lv_event.h"
 464              		.file 29 "../../Middlewares/LVGL/GUI/lvgl/src/core/../display/lv_display.h"
 465              		.file 30 "H:/STM32H7/RGB_LVGL/Middlewares/LVGL/GUI/lvgl/src/core/lv_group.h"
 466              		.file 31 "../../Middlewares/LVGL/GUI/lvgl/src/core/../indev/lv_indev.h"
 467              		.file 32 "../../Middlewares/LVGL/GUI/lvgl/src/core/../stdlib/builtin/lv_tlsf.h"
 468              		.file 33 "../../Middlewares/LVGL/GUI/lvgl/src/core/../tick/lv_tick_private.h"
 469              		.file 34 "../../Middlewares/LVGL/GUI/lvgl/src/core/../draw/sw/lv_draw_sw_mask_private.h"
 470              		.file 35 "../../Middlewares/LVGL/GUI/lvgl/src/core/../stdlib/builtin/lv_tlsf_private.h"
 471              		.file 36 "../../Middlewares/LVGL/GUI/lvgl/src/core/../layouts/lv_layout_private.h"
 472              		.file 37 "../../Middlewares/LVGL/GUI/lvgl/src/core/lv_global.h"
 473              		.file 38 "H:/STM32H7/RGB_LVGL/Middlewares/LVGL/GUI/lvgl/src/stdlib/lv_mem.h"
 474              		.file 39 "../../Middlewares/LVGL/GUI/lvgl/src/misc/lv_fs_private.h"
 475              		.file 40 "../../Middlewares/LVGL/GUI/lvgl/src/core/../draw/sw/lv_draw_sw.h"
 476              		.file 41 "../../Middlewares/LVGL/GUI/lvgl/src/core/lv_obj_style_private.h"
 477              		.file 42 "../../Middlewares/LVGL/GUI/lvgl/src/core/lv_refr_private.h"
 478              		.file 43 "../../Middlewares/LVGL/GUI/lvgl/src/draw/lv_image_decoder_private.h"
 479              		.file 44 "../../Middlewares/LVGL/GUI/lvgl/src/themes/simple/../mono/lv_theme_mono.h"
 480              		.file 45 "../../Middlewares/LVGL/GUI/lvgl/src/themes/simple/lv_theme_simple.h"
 481              		.file 46 "../../Middlewares/LVGL/GUI/lvgl/src/themes/simple/../default/lv_theme_default.h"
 482              		.file 47 "../../Middlewares/LVGL/GUI/lvgl/src/widgets/span/lv_span.h"
 483              		.file 48 "../../Middlewares/LVGL/GUI/lvgl/src/core/../others/sysmon/lv_sysmon_private.h"
 484              		.file 49 "../../Middlewares/LVGL/GUI/lvgl/src/misc/lv_math.h"
 485              		.file 50 "../../Middlewares/LVGL/GUI/lvgl/src/libs/bin_decoder/lv_bin_decoder.h"
 486              		.file 51 "../../Middlewares/LVGL/GUI/lvgl/src/osal/lv_os_private.h"
ARM GAS  C:\Users\28576\AppData\Local\Temp\cc8rRXGp.s 			page 21

