ARM GAS  C:\Users\28576\AppData\Local\Temp\ccZznpky.s 			page 1


   1              		.cpu cortex-m7
   2              		.arch armv7e-m
   3              		.fpu fpv5-d16
   4              		.eabi_attribute 28, 1
   5              		.eabi_attribute 20, 1
   6              		.eabi_attribute 21, 1
   7              		.eabi_attribute 23, 3
   8              		.eabi_attribute 24, 1
   9              		.eabi_attribute 25, 1
  10              		.eabi_attribute 26, 1
  11              		.eabi_attribute 30, 1
  12              		.eabi_attribute 34, 1
  13              		.eabi_attribute 18, 4
  14              		.file	"lv_indev_scroll.c"
  15              		.text
  16              	.Ltext0:
  17              		.cfi_sections	.debug_frame
  18              		.file 1 "../../Middlewares/LVGL/GUI/lvgl/src/indev/lv_indev_scroll.c"
  19              		.section	.text.scroll_limit_diff,"ax",%progbits
  20              		.align	1
  21              		.syntax unified
  22              		.thumb
  23              		.thumb_func
  25              	scroll_limit_diff:
  26              	.LVL0:
  27              	.LFB180:
   1:../../Middlewares/LVGL/GUI/lvgl/src/indev/lv_indev_scroll.c **** /**
   2:../../Middlewares/LVGL/GUI/lvgl/src/indev/lv_indev_scroll.c ****  * @file lv_indev_scroll.c
   3:../../Middlewares/LVGL/GUI/lvgl/src/indev/lv_indev_scroll.c ****  *
   4:../../Middlewares/LVGL/GUI/lvgl/src/indev/lv_indev_scroll.c ****  */
   5:../../Middlewares/LVGL/GUI/lvgl/src/indev/lv_indev_scroll.c **** 
   6:../../Middlewares/LVGL/GUI/lvgl/src/indev/lv_indev_scroll.c **** /*********************
   7:../../Middlewares/LVGL/GUI/lvgl/src/indev/lv_indev_scroll.c ****  *      INCLUDES
   8:../../Middlewares/LVGL/GUI/lvgl/src/indev/lv_indev_scroll.c ****  *********************/
   9:../../Middlewares/LVGL/GUI/lvgl/src/indev/lv_indev_scroll.c **** #include "../core/lv_obj_scroll_private.h"
  10:../../Middlewares/LVGL/GUI/lvgl/src/indev/lv_indev_scroll.c **** #include "../core/lv_obj_private.h"
  11:../../Middlewares/LVGL/GUI/lvgl/src/indev/lv_indev_scroll.c **** #include "lv_indev.h"
  12:../../Middlewares/LVGL/GUI/lvgl/src/indev/lv_indev_scroll.c **** #include "lv_indev_private.h"
  13:../../Middlewares/LVGL/GUI/lvgl/src/indev/lv_indev_scroll.c **** #include "lv_indev_scroll.h"
  14:../../Middlewares/LVGL/GUI/lvgl/src/indev/lv_indev_scroll.c **** 
  15:../../Middlewares/LVGL/GUI/lvgl/src/indev/lv_indev_scroll.c **** /*********************
  16:../../Middlewares/LVGL/GUI/lvgl/src/indev/lv_indev_scroll.c ****  *      DEFINES
  17:../../Middlewares/LVGL/GUI/lvgl/src/indev/lv_indev_scroll.c ****  *********************/
  18:../../Middlewares/LVGL/GUI/lvgl/src/indev/lv_indev_scroll.c **** #define ELASTIC_SLOWNESS_FACTOR 4   /*Scrolling on elastic parts are slower by this factor*/
  19:../../Middlewares/LVGL/GUI/lvgl/src/indev/lv_indev_scroll.c **** 
  20:../../Middlewares/LVGL/GUI/lvgl/src/indev/lv_indev_scroll.c **** /**********************
  21:../../Middlewares/LVGL/GUI/lvgl/src/indev/lv_indev_scroll.c ****  *      TYPEDEFS
  22:../../Middlewares/LVGL/GUI/lvgl/src/indev/lv_indev_scroll.c ****  **********************/
  23:../../Middlewares/LVGL/GUI/lvgl/src/indev/lv_indev_scroll.c **** 
  24:../../Middlewares/LVGL/GUI/lvgl/src/indev/lv_indev_scroll.c **** /**********************
  25:../../Middlewares/LVGL/GUI/lvgl/src/indev/lv_indev_scroll.c ****  *  STATIC PROTOTYPES
  26:../../Middlewares/LVGL/GUI/lvgl/src/indev/lv_indev_scroll.c ****  **********************/
  27:../../Middlewares/LVGL/GUI/lvgl/src/indev/lv_indev_scroll.c **** static void init_scroll_limits(lv_indev_t * indev);
  28:../../Middlewares/LVGL/GUI/lvgl/src/indev/lv_indev_scroll.c **** static int32_t find_snap_point_x(const lv_obj_t * obj, int32_t min, int32_t max, int32_t ofs);
  29:../../Middlewares/LVGL/GUI/lvgl/src/indev/lv_indev_scroll.c **** static int32_t find_snap_point_y(const lv_obj_t * obj, int32_t min, int32_t max, int32_t ofs);
  30:../../Middlewares/LVGL/GUI/lvgl/src/indev/lv_indev_scroll.c **** static void scroll_limit_diff(lv_indev_t * indev, int32_t * diff_x, int32_t * diff_y);
  31:../../Middlewares/LVGL/GUI/lvgl/src/indev/lv_indev_scroll.c **** static int32_t elastic_diff(lv_obj_t * scroll_obj, int32_t diff, int32_t scroll_start, int32_t scro
ARM GAS  C:\Users\28576\AppData\Local\Temp\ccZznpky.s 			page 2


  32:../../Middlewares/LVGL/GUI/lvgl/src/indev/lv_indev_scroll.c ****                             lv_dir_t dir);
  33:../../Middlewares/LVGL/GUI/lvgl/src/indev/lv_indev_scroll.c **** static void has_more_snap_points(lv_obj_t * scroll_obj, lv_dir_t dir, bool * has_start_snap, bool *
  34:../../Middlewares/LVGL/GUI/lvgl/src/indev/lv_indev_scroll.c **** 
  35:../../Middlewares/LVGL/GUI/lvgl/src/indev/lv_indev_scroll.c **** /**********************
  36:../../Middlewares/LVGL/GUI/lvgl/src/indev/lv_indev_scroll.c ****  *  STATIC VARIABLES
  37:../../Middlewares/LVGL/GUI/lvgl/src/indev/lv_indev_scroll.c ****  **********************/
  38:../../Middlewares/LVGL/GUI/lvgl/src/indev/lv_indev_scroll.c **** 
  39:../../Middlewares/LVGL/GUI/lvgl/src/indev/lv_indev_scroll.c **** /**********************
  40:../../Middlewares/LVGL/GUI/lvgl/src/indev/lv_indev_scroll.c ****  *      MACROS
  41:../../Middlewares/LVGL/GUI/lvgl/src/indev/lv_indev_scroll.c ****  **********************/
  42:../../Middlewares/LVGL/GUI/lvgl/src/indev/lv_indev_scroll.c **** 
  43:../../Middlewares/LVGL/GUI/lvgl/src/indev/lv_indev_scroll.c **** /**********************
  44:../../Middlewares/LVGL/GUI/lvgl/src/indev/lv_indev_scroll.c ****  *   GLOBAL FUNCTIONS
  45:../../Middlewares/LVGL/GUI/lvgl/src/indev/lv_indev_scroll.c ****  **********************/
  46:../../Middlewares/LVGL/GUI/lvgl/src/indev/lv_indev_scroll.c **** 
  47:../../Middlewares/LVGL/GUI/lvgl/src/indev/lv_indev_scroll.c **** void lv_indev_scroll_handler(lv_indev_t * indev)
  48:../../Middlewares/LVGL/GUI/lvgl/src/indev/lv_indev_scroll.c **** {
  49:../../Middlewares/LVGL/GUI/lvgl/src/indev/lv_indev_scroll.c ****     if(indev->pointer.vect.x == 0 && indev->pointer.vect.y == 0) {
  50:../../Middlewares/LVGL/GUI/lvgl/src/indev/lv_indev_scroll.c ****         return;
  51:../../Middlewares/LVGL/GUI/lvgl/src/indev/lv_indev_scroll.c ****     }
  52:../../Middlewares/LVGL/GUI/lvgl/src/indev/lv_indev_scroll.c **** 
  53:../../Middlewares/LVGL/GUI/lvgl/src/indev/lv_indev_scroll.c ****     lv_obj_t * scroll_obj = indev->pointer.scroll_obj;
  54:../../Middlewares/LVGL/GUI/lvgl/src/indev/lv_indev_scroll.c ****     /*If there is no scroll object yet try to find one*/
  55:../../Middlewares/LVGL/GUI/lvgl/src/indev/lv_indev_scroll.c ****     if(scroll_obj == NULL) {
  56:../../Middlewares/LVGL/GUI/lvgl/src/indev/lv_indev_scroll.c ****         scroll_obj = lv_indev_find_scroll_obj(indev);
  57:../../Middlewares/LVGL/GUI/lvgl/src/indev/lv_indev_scroll.c ****         if(scroll_obj == NULL) return;
  58:../../Middlewares/LVGL/GUI/lvgl/src/indev/lv_indev_scroll.c **** 
  59:../../Middlewares/LVGL/GUI/lvgl/src/indev/lv_indev_scroll.c ****         init_scroll_limits(indev);
  60:../../Middlewares/LVGL/GUI/lvgl/src/indev/lv_indev_scroll.c **** 
  61:../../Middlewares/LVGL/GUI/lvgl/src/indev/lv_indev_scroll.c ****         lv_obj_remove_state(indev->pointer.act_obj, LV_STATE_PRESSED);
  62:../../Middlewares/LVGL/GUI/lvgl/src/indev/lv_indev_scroll.c ****         lv_obj_send_event(scroll_obj, LV_EVENT_SCROLL_BEGIN, NULL);
  63:../../Middlewares/LVGL/GUI/lvgl/src/indev/lv_indev_scroll.c ****         if(indev->reset_query) return;
  64:../../Middlewares/LVGL/GUI/lvgl/src/indev/lv_indev_scroll.c ****     }
  65:../../Middlewares/LVGL/GUI/lvgl/src/indev/lv_indev_scroll.c **** 
  66:../../Middlewares/LVGL/GUI/lvgl/src/indev/lv_indev_scroll.c ****     /*Set new position or scroll if the vector is not zero*/
  67:../../Middlewares/LVGL/GUI/lvgl/src/indev/lv_indev_scroll.c ****     int16_t angle = 0;
  68:../../Middlewares/LVGL/GUI/lvgl/src/indev/lv_indev_scroll.c ****     int16_t scale_x = 256;
  69:../../Middlewares/LVGL/GUI/lvgl/src/indev/lv_indev_scroll.c ****     int16_t scale_y = 256;
  70:../../Middlewares/LVGL/GUI/lvgl/src/indev/lv_indev_scroll.c ****     lv_obj_t * parent = scroll_obj;
  71:../../Middlewares/LVGL/GUI/lvgl/src/indev/lv_indev_scroll.c ****     while(parent) {
  72:../../Middlewares/LVGL/GUI/lvgl/src/indev/lv_indev_scroll.c ****         angle += lv_obj_get_style_transform_rotation(parent, 0);
  73:../../Middlewares/LVGL/GUI/lvgl/src/indev/lv_indev_scroll.c ****         int32_t zoom_act_x = lv_obj_get_style_transform_scale_x_safe(parent, 0);
  74:../../Middlewares/LVGL/GUI/lvgl/src/indev/lv_indev_scroll.c ****         int32_t zoom_act_y = lv_obj_get_style_transform_scale_y_safe(parent, 0);
  75:../../Middlewares/LVGL/GUI/lvgl/src/indev/lv_indev_scroll.c ****         scale_x = (scale_x * zoom_act_x) >> 8;
  76:../../Middlewares/LVGL/GUI/lvgl/src/indev/lv_indev_scroll.c ****         scale_y = (scale_y * zoom_act_y) >> 8;
  77:../../Middlewares/LVGL/GUI/lvgl/src/indev/lv_indev_scroll.c ****         parent = lv_obj_get_parent(parent);
  78:../../Middlewares/LVGL/GUI/lvgl/src/indev/lv_indev_scroll.c ****     }
  79:../../Middlewares/LVGL/GUI/lvgl/src/indev/lv_indev_scroll.c **** 
  80:../../Middlewares/LVGL/GUI/lvgl/src/indev/lv_indev_scroll.c ****     if(scale_x == 0) {
  81:../../Middlewares/LVGL/GUI/lvgl/src/indev/lv_indev_scroll.c ****         scale_x = 1;
  82:../../Middlewares/LVGL/GUI/lvgl/src/indev/lv_indev_scroll.c ****     }
  83:../../Middlewares/LVGL/GUI/lvgl/src/indev/lv_indev_scroll.c **** 
  84:../../Middlewares/LVGL/GUI/lvgl/src/indev/lv_indev_scroll.c ****     if(scale_y == 0) {
  85:../../Middlewares/LVGL/GUI/lvgl/src/indev/lv_indev_scroll.c ****         scale_y = 1;
  86:../../Middlewares/LVGL/GUI/lvgl/src/indev/lv_indev_scroll.c ****     }
  87:../../Middlewares/LVGL/GUI/lvgl/src/indev/lv_indev_scroll.c **** 
  88:../../Middlewares/LVGL/GUI/lvgl/src/indev/lv_indev_scroll.c ****     if(angle != 0 || scale_x != LV_SCALE_NONE || scale_y != LV_SCALE_NONE) {
ARM GAS  C:\Users\28576\AppData\Local\Temp\ccZznpky.s 			page 3


  89:../../Middlewares/LVGL/GUI/lvgl/src/indev/lv_indev_scroll.c ****         angle = -angle;
  90:../../Middlewares/LVGL/GUI/lvgl/src/indev/lv_indev_scroll.c ****         scale_x = (256 * 256) / scale_x;
  91:../../Middlewares/LVGL/GUI/lvgl/src/indev/lv_indev_scroll.c ****         scale_y = (256 * 256) / scale_y;
  92:../../Middlewares/LVGL/GUI/lvgl/src/indev/lv_indev_scroll.c ****         lv_point_t pivot = { 0, 0 };
  93:../../Middlewares/LVGL/GUI/lvgl/src/indev/lv_indev_scroll.c ****         lv_point_transform(&indev->pointer.vect, angle, scale_x, scale_y, &pivot, false);
  94:../../Middlewares/LVGL/GUI/lvgl/src/indev/lv_indev_scroll.c ****     }
  95:../../Middlewares/LVGL/GUI/lvgl/src/indev/lv_indev_scroll.c **** 
  96:../../Middlewares/LVGL/GUI/lvgl/src/indev/lv_indev_scroll.c ****     int32_t diff_x = 0;
  97:../../Middlewares/LVGL/GUI/lvgl/src/indev/lv_indev_scroll.c ****     int32_t diff_y = 0;
  98:../../Middlewares/LVGL/GUI/lvgl/src/indev/lv_indev_scroll.c ****     if(indev->pointer.scroll_dir == LV_DIR_HOR) {
  99:../../Middlewares/LVGL/GUI/lvgl/src/indev/lv_indev_scroll.c ****         int32_t sr = lv_obj_get_scroll_right(scroll_obj);
 100:../../Middlewares/LVGL/GUI/lvgl/src/indev/lv_indev_scroll.c ****         int32_t sl = lv_obj_get_scroll_left(scroll_obj);
 101:../../Middlewares/LVGL/GUI/lvgl/src/indev/lv_indev_scroll.c ****         diff_x = elastic_diff(scroll_obj, indev->pointer.vect.x, sl, sr, LV_DIR_HOR);
 102:../../Middlewares/LVGL/GUI/lvgl/src/indev/lv_indev_scroll.c ****     }
 103:../../Middlewares/LVGL/GUI/lvgl/src/indev/lv_indev_scroll.c ****     else {
 104:../../Middlewares/LVGL/GUI/lvgl/src/indev/lv_indev_scroll.c ****         int32_t st = lv_obj_get_scroll_top(scroll_obj);
 105:../../Middlewares/LVGL/GUI/lvgl/src/indev/lv_indev_scroll.c ****         int32_t sb = lv_obj_get_scroll_bottom(scroll_obj);
 106:../../Middlewares/LVGL/GUI/lvgl/src/indev/lv_indev_scroll.c ****         diff_y = elastic_diff(scroll_obj, indev->pointer.vect.y, st, sb, LV_DIR_VER);
 107:../../Middlewares/LVGL/GUI/lvgl/src/indev/lv_indev_scroll.c ****     }
 108:../../Middlewares/LVGL/GUI/lvgl/src/indev/lv_indev_scroll.c **** 
 109:../../Middlewares/LVGL/GUI/lvgl/src/indev/lv_indev_scroll.c ****     lv_dir_t scroll_dir = lv_obj_get_scroll_dir(scroll_obj);
 110:../../Middlewares/LVGL/GUI/lvgl/src/indev/lv_indev_scroll.c ****     if((scroll_dir & LV_DIR_LEFT)   == 0 && diff_x > 0) diff_x = 0;
 111:../../Middlewares/LVGL/GUI/lvgl/src/indev/lv_indev_scroll.c ****     if((scroll_dir & LV_DIR_RIGHT)  == 0 && diff_x < 0) diff_x = 0;
 112:../../Middlewares/LVGL/GUI/lvgl/src/indev/lv_indev_scroll.c ****     if((scroll_dir & LV_DIR_TOP)    == 0 && diff_y > 0) diff_y = 0;
 113:../../Middlewares/LVGL/GUI/lvgl/src/indev/lv_indev_scroll.c ****     if((scroll_dir & LV_DIR_BOTTOM) == 0 && diff_y < 0) diff_y = 0;
 114:../../Middlewares/LVGL/GUI/lvgl/src/indev/lv_indev_scroll.c **** 
 115:../../Middlewares/LVGL/GUI/lvgl/src/indev/lv_indev_scroll.c ****     /*Respect the scroll limit area*/
 116:../../Middlewares/LVGL/GUI/lvgl/src/indev/lv_indev_scroll.c ****     scroll_limit_diff(indev, &diff_x, &diff_y);
 117:../../Middlewares/LVGL/GUI/lvgl/src/indev/lv_indev_scroll.c **** 
 118:../../Middlewares/LVGL/GUI/lvgl/src/indev/lv_indev_scroll.c ****     lv_obj_scroll_by_raw(scroll_obj, diff_x, diff_y);
 119:../../Middlewares/LVGL/GUI/lvgl/src/indev/lv_indev_scroll.c ****     if(indev->reset_query) return;
 120:../../Middlewares/LVGL/GUI/lvgl/src/indev/lv_indev_scroll.c ****     indev->pointer.scroll_sum.x += diff_x;
 121:../../Middlewares/LVGL/GUI/lvgl/src/indev/lv_indev_scroll.c ****     indev->pointer.scroll_sum.y += diff_y;
 122:../../Middlewares/LVGL/GUI/lvgl/src/indev/lv_indev_scroll.c **** }
 123:../../Middlewares/LVGL/GUI/lvgl/src/indev/lv_indev_scroll.c **** 
 124:../../Middlewares/LVGL/GUI/lvgl/src/indev/lv_indev_scroll.c **** void lv_indev_scroll_throw_handler(lv_indev_t * indev)
 125:../../Middlewares/LVGL/GUI/lvgl/src/indev/lv_indev_scroll.c **** {
 126:../../Middlewares/LVGL/GUI/lvgl/src/indev/lv_indev_scroll.c ****     lv_obj_t * scroll_obj = indev->pointer.scroll_obj;
 127:../../Middlewares/LVGL/GUI/lvgl/src/indev/lv_indev_scroll.c ****     if(scroll_obj == NULL) return;
 128:../../Middlewares/LVGL/GUI/lvgl/src/indev/lv_indev_scroll.c ****     if(indev->pointer.scroll_dir == LV_DIR_NONE) return;
 129:../../Middlewares/LVGL/GUI/lvgl/src/indev/lv_indev_scroll.c **** 
 130:../../Middlewares/LVGL/GUI/lvgl/src/indev/lv_indev_scroll.c ****     int32_t scroll_throw = indev->scroll_throw;
 131:../../Middlewares/LVGL/GUI/lvgl/src/indev/lv_indev_scroll.c **** 
 132:../../Middlewares/LVGL/GUI/lvgl/src/indev/lv_indev_scroll.c ****     if(lv_obj_has_flag(scroll_obj, LV_OBJ_FLAG_SCROLL_MOMENTUM) == false) {
 133:../../Middlewares/LVGL/GUI/lvgl/src/indev/lv_indev_scroll.c ****         indev->pointer.scroll_throw_vect.y = 0;
 134:../../Middlewares/LVGL/GUI/lvgl/src/indev/lv_indev_scroll.c ****         indev->pointer.scroll_throw_vect.x = 0;
 135:../../Middlewares/LVGL/GUI/lvgl/src/indev/lv_indev_scroll.c ****     }
 136:../../Middlewares/LVGL/GUI/lvgl/src/indev/lv_indev_scroll.c **** 
 137:../../Middlewares/LVGL/GUI/lvgl/src/indev/lv_indev_scroll.c ****     lv_scroll_snap_t align_x = lv_obj_get_scroll_snap_x(scroll_obj);
 138:../../Middlewares/LVGL/GUI/lvgl/src/indev/lv_indev_scroll.c ****     lv_scroll_snap_t align_y = lv_obj_get_scroll_snap_y(scroll_obj);
 139:../../Middlewares/LVGL/GUI/lvgl/src/indev/lv_indev_scroll.c **** 
 140:../../Middlewares/LVGL/GUI/lvgl/src/indev/lv_indev_scroll.c ****     if(indev->pointer.scroll_dir == LV_DIR_VER) {
 141:../../Middlewares/LVGL/GUI/lvgl/src/indev/lv_indev_scroll.c ****         indev->pointer.scroll_throw_vect.x = 0;
 142:../../Middlewares/LVGL/GUI/lvgl/src/indev/lv_indev_scroll.c ****         /*If no snapping "throw"*/
 143:../../Middlewares/LVGL/GUI/lvgl/src/indev/lv_indev_scroll.c ****         if(align_y == LV_SCROLL_SNAP_NONE) {
 144:../../Middlewares/LVGL/GUI/lvgl/src/indev/lv_indev_scroll.c ****             indev->pointer.scroll_throw_vect.y =
 145:../../Middlewares/LVGL/GUI/lvgl/src/indev/lv_indev_scroll.c ****                 indev->pointer.scroll_throw_vect.y * (100 - scroll_throw) / 100;
ARM GAS  C:\Users\28576\AppData\Local\Temp\ccZznpky.s 			page 4


 146:../../Middlewares/LVGL/GUI/lvgl/src/indev/lv_indev_scroll.c **** 
 147:../../Middlewares/LVGL/GUI/lvgl/src/indev/lv_indev_scroll.c ****             int32_t sb = lv_obj_get_scroll_bottom(scroll_obj);
 148:../../Middlewares/LVGL/GUI/lvgl/src/indev/lv_indev_scroll.c ****             int32_t st = lv_obj_get_scroll_top(scroll_obj);
 149:../../Middlewares/LVGL/GUI/lvgl/src/indev/lv_indev_scroll.c **** 
 150:../../Middlewares/LVGL/GUI/lvgl/src/indev/lv_indev_scroll.c ****             indev->pointer.scroll_throw_vect.y = elastic_diff(scroll_obj, indev->pointer.scroll_thr
 151:../../Middlewares/LVGL/GUI/lvgl/src/indev/lv_indev_scroll.c ****                                                               LV_DIR_VER);
 152:../../Middlewares/LVGL/GUI/lvgl/src/indev/lv_indev_scroll.c **** 
 153:../../Middlewares/LVGL/GUI/lvgl/src/indev/lv_indev_scroll.c ****             lv_obj_scroll_by_raw(scroll_obj, 0,  indev->pointer.scroll_throw_vect.y);
 154:../../Middlewares/LVGL/GUI/lvgl/src/indev/lv_indev_scroll.c ****             if(indev->reset_query) return;
 155:../../Middlewares/LVGL/GUI/lvgl/src/indev/lv_indev_scroll.c ****         }
 156:../../Middlewares/LVGL/GUI/lvgl/src/indev/lv_indev_scroll.c ****         /*With snapping find the nearest snap point and scroll there*/
 157:../../Middlewares/LVGL/GUI/lvgl/src/indev/lv_indev_scroll.c ****         else {
 158:../../Middlewares/LVGL/GUI/lvgl/src/indev/lv_indev_scroll.c ****             int32_t diff_y = lv_indev_scroll_throw_predict(indev, LV_DIR_VER);
 159:../../Middlewares/LVGL/GUI/lvgl/src/indev/lv_indev_scroll.c ****             indev->pointer.scroll_throw_vect.y = 0;
 160:../../Middlewares/LVGL/GUI/lvgl/src/indev/lv_indev_scroll.c ****             scroll_limit_diff(indev, NULL, &diff_y);
 161:../../Middlewares/LVGL/GUI/lvgl/src/indev/lv_indev_scroll.c ****             int32_t y = find_snap_point_y(scroll_obj, LV_COORD_MIN, LV_COORD_MAX, diff_y);
 162:../../Middlewares/LVGL/GUI/lvgl/src/indev/lv_indev_scroll.c ****             lv_obj_scroll_by(scroll_obj, 0, diff_y + y, LV_ANIM_ON);
 163:../../Middlewares/LVGL/GUI/lvgl/src/indev/lv_indev_scroll.c ****             if(indev->reset_query) return;
 164:../../Middlewares/LVGL/GUI/lvgl/src/indev/lv_indev_scroll.c ****         }
 165:../../Middlewares/LVGL/GUI/lvgl/src/indev/lv_indev_scroll.c ****     }
 166:../../Middlewares/LVGL/GUI/lvgl/src/indev/lv_indev_scroll.c ****     else if(indev->pointer.scroll_dir == LV_DIR_HOR) {
 167:../../Middlewares/LVGL/GUI/lvgl/src/indev/lv_indev_scroll.c ****         indev->pointer.scroll_throw_vect.y = 0;
 168:../../Middlewares/LVGL/GUI/lvgl/src/indev/lv_indev_scroll.c ****         /*If no snapping "throw"*/
 169:../../Middlewares/LVGL/GUI/lvgl/src/indev/lv_indev_scroll.c ****         if(align_x == LV_SCROLL_SNAP_NONE) {
 170:../../Middlewares/LVGL/GUI/lvgl/src/indev/lv_indev_scroll.c ****             indev->pointer.scroll_throw_vect.x =
 171:../../Middlewares/LVGL/GUI/lvgl/src/indev/lv_indev_scroll.c ****                 indev->pointer.scroll_throw_vect.x * (100 - scroll_throw) / 100;
 172:../../Middlewares/LVGL/GUI/lvgl/src/indev/lv_indev_scroll.c **** 
 173:../../Middlewares/LVGL/GUI/lvgl/src/indev/lv_indev_scroll.c ****             int32_t sl = lv_obj_get_scroll_left(scroll_obj);
 174:../../Middlewares/LVGL/GUI/lvgl/src/indev/lv_indev_scroll.c ****             int32_t sr = lv_obj_get_scroll_right(scroll_obj);
 175:../../Middlewares/LVGL/GUI/lvgl/src/indev/lv_indev_scroll.c **** 
 176:../../Middlewares/LVGL/GUI/lvgl/src/indev/lv_indev_scroll.c ****             indev->pointer.scroll_throw_vect.x = elastic_diff(scroll_obj, indev->pointer.scroll_thr
 177:../../Middlewares/LVGL/GUI/lvgl/src/indev/lv_indev_scroll.c ****                                                               LV_DIR_HOR);
 178:../../Middlewares/LVGL/GUI/lvgl/src/indev/lv_indev_scroll.c **** 
 179:../../Middlewares/LVGL/GUI/lvgl/src/indev/lv_indev_scroll.c ****             lv_obj_scroll_by_raw(scroll_obj, indev->pointer.scroll_throw_vect.x, 0);
 180:../../Middlewares/LVGL/GUI/lvgl/src/indev/lv_indev_scroll.c ****             if(indev->reset_query) return;
 181:../../Middlewares/LVGL/GUI/lvgl/src/indev/lv_indev_scroll.c ****         }
 182:../../Middlewares/LVGL/GUI/lvgl/src/indev/lv_indev_scroll.c ****         /*With snapping find the nearest snap point and scroll there*/
 183:../../Middlewares/LVGL/GUI/lvgl/src/indev/lv_indev_scroll.c ****         else {
 184:../../Middlewares/LVGL/GUI/lvgl/src/indev/lv_indev_scroll.c ****             int32_t diff_x = lv_indev_scroll_throw_predict(indev, LV_DIR_HOR);
 185:../../Middlewares/LVGL/GUI/lvgl/src/indev/lv_indev_scroll.c ****             indev->pointer.scroll_throw_vect.x = 0;
 186:../../Middlewares/LVGL/GUI/lvgl/src/indev/lv_indev_scroll.c ****             scroll_limit_diff(indev, &diff_x, NULL);
 187:../../Middlewares/LVGL/GUI/lvgl/src/indev/lv_indev_scroll.c ****             int32_t x = find_snap_point_x(scroll_obj, LV_COORD_MIN, LV_COORD_MAX, diff_x);
 188:../../Middlewares/LVGL/GUI/lvgl/src/indev/lv_indev_scroll.c ****             lv_obj_scroll_by(scroll_obj, x + diff_x, 0, LV_ANIM_ON);
 189:../../Middlewares/LVGL/GUI/lvgl/src/indev/lv_indev_scroll.c ****             if(indev->reset_query) return;
 190:../../Middlewares/LVGL/GUI/lvgl/src/indev/lv_indev_scroll.c ****         }
 191:../../Middlewares/LVGL/GUI/lvgl/src/indev/lv_indev_scroll.c ****     }
 192:../../Middlewares/LVGL/GUI/lvgl/src/indev/lv_indev_scroll.c **** 
 193:../../Middlewares/LVGL/GUI/lvgl/src/indev/lv_indev_scroll.c ****     /*Check if the scroll has finished*/
 194:../../Middlewares/LVGL/GUI/lvgl/src/indev/lv_indev_scroll.c ****     if(indev->pointer.scroll_throw_vect.x == 0 && indev->pointer.scroll_throw_vect.y == 0) {
 195:../../Middlewares/LVGL/GUI/lvgl/src/indev/lv_indev_scroll.c ****         /*Revert if scrolled in*/
 196:../../Middlewares/LVGL/GUI/lvgl/src/indev/lv_indev_scroll.c ****         /*If vertically scrollable and not controlled by snap*/
 197:../../Middlewares/LVGL/GUI/lvgl/src/indev/lv_indev_scroll.c ****         if(align_y == LV_SCROLL_SNAP_NONE) {
 198:../../Middlewares/LVGL/GUI/lvgl/src/indev/lv_indev_scroll.c ****             int32_t st = lv_obj_get_scroll_top(scroll_obj);
 199:../../Middlewares/LVGL/GUI/lvgl/src/indev/lv_indev_scroll.c ****             int32_t sb = lv_obj_get_scroll_bottom(scroll_obj);
 200:../../Middlewares/LVGL/GUI/lvgl/src/indev/lv_indev_scroll.c ****             if(st > 0 || sb > 0) {
 201:../../Middlewares/LVGL/GUI/lvgl/src/indev/lv_indev_scroll.c ****                 if(st < 0) {
 202:../../Middlewares/LVGL/GUI/lvgl/src/indev/lv_indev_scroll.c ****                     lv_obj_scroll_by(scroll_obj, 0, st, LV_ANIM_ON);
ARM GAS  C:\Users\28576\AppData\Local\Temp\ccZznpky.s 			page 5


 203:../../Middlewares/LVGL/GUI/lvgl/src/indev/lv_indev_scroll.c ****                     if(indev->reset_query) return;
 204:../../Middlewares/LVGL/GUI/lvgl/src/indev/lv_indev_scroll.c ****                 }
 205:../../Middlewares/LVGL/GUI/lvgl/src/indev/lv_indev_scroll.c ****                 else if(sb < 0) {
 206:../../Middlewares/LVGL/GUI/lvgl/src/indev/lv_indev_scroll.c ****                     lv_obj_scroll_by(scroll_obj, 0, -sb, LV_ANIM_ON);
 207:../../Middlewares/LVGL/GUI/lvgl/src/indev/lv_indev_scroll.c ****                     if(indev->reset_query) return;
 208:../../Middlewares/LVGL/GUI/lvgl/src/indev/lv_indev_scroll.c ****                 }
 209:../../Middlewares/LVGL/GUI/lvgl/src/indev/lv_indev_scroll.c ****             }
 210:../../Middlewares/LVGL/GUI/lvgl/src/indev/lv_indev_scroll.c ****         }
 211:../../Middlewares/LVGL/GUI/lvgl/src/indev/lv_indev_scroll.c **** 
 212:../../Middlewares/LVGL/GUI/lvgl/src/indev/lv_indev_scroll.c ****         /*If horizontally scrollable and not controlled by snap*/
 213:../../Middlewares/LVGL/GUI/lvgl/src/indev/lv_indev_scroll.c ****         if(align_x == LV_SCROLL_SNAP_NONE) {
 214:../../Middlewares/LVGL/GUI/lvgl/src/indev/lv_indev_scroll.c ****             int32_t sl = lv_obj_get_scroll_left(scroll_obj);
 215:../../Middlewares/LVGL/GUI/lvgl/src/indev/lv_indev_scroll.c ****             int32_t sr = lv_obj_get_scroll_right(scroll_obj);
 216:../../Middlewares/LVGL/GUI/lvgl/src/indev/lv_indev_scroll.c ****             if(sl > 0 || sr > 0) {
 217:../../Middlewares/LVGL/GUI/lvgl/src/indev/lv_indev_scroll.c ****                 if(sl < 0) {
 218:../../Middlewares/LVGL/GUI/lvgl/src/indev/lv_indev_scroll.c ****                     lv_obj_scroll_by(scroll_obj, sl, 0, LV_ANIM_ON);
 219:../../Middlewares/LVGL/GUI/lvgl/src/indev/lv_indev_scroll.c ****                     if(indev->reset_query) return;
 220:../../Middlewares/LVGL/GUI/lvgl/src/indev/lv_indev_scroll.c ****                 }
 221:../../Middlewares/LVGL/GUI/lvgl/src/indev/lv_indev_scroll.c ****                 else if(sr < 0) {
 222:../../Middlewares/LVGL/GUI/lvgl/src/indev/lv_indev_scroll.c ****                     lv_obj_scroll_by(scroll_obj, -sr, 0, LV_ANIM_ON);
 223:../../Middlewares/LVGL/GUI/lvgl/src/indev/lv_indev_scroll.c ****                     if(indev->reset_query) return;
 224:../../Middlewares/LVGL/GUI/lvgl/src/indev/lv_indev_scroll.c ****                 }
 225:../../Middlewares/LVGL/GUI/lvgl/src/indev/lv_indev_scroll.c ****             }
 226:../../Middlewares/LVGL/GUI/lvgl/src/indev/lv_indev_scroll.c ****         }
 227:../../Middlewares/LVGL/GUI/lvgl/src/indev/lv_indev_scroll.c **** 
 228:../../Middlewares/LVGL/GUI/lvgl/src/indev/lv_indev_scroll.c ****         lv_obj_send_event(scroll_obj, LV_EVENT_SCROLL_END, indev);
 229:../../Middlewares/LVGL/GUI/lvgl/src/indev/lv_indev_scroll.c ****         if(indev->reset_query) return;
 230:../../Middlewares/LVGL/GUI/lvgl/src/indev/lv_indev_scroll.c **** 
 231:../../Middlewares/LVGL/GUI/lvgl/src/indev/lv_indev_scroll.c ****         indev->pointer.scroll_dir = LV_DIR_NONE;
 232:../../Middlewares/LVGL/GUI/lvgl/src/indev/lv_indev_scroll.c ****         indev->pointer.scroll_obj = NULL;
 233:../../Middlewares/LVGL/GUI/lvgl/src/indev/lv_indev_scroll.c ****     }
 234:../../Middlewares/LVGL/GUI/lvgl/src/indev/lv_indev_scroll.c **** }
 235:../../Middlewares/LVGL/GUI/lvgl/src/indev/lv_indev_scroll.c **** 
 236:../../Middlewares/LVGL/GUI/lvgl/src/indev/lv_indev_scroll.c **** int32_t lv_indev_scroll_throw_predict(lv_indev_t * indev, lv_dir_t dir)
 237:../../Middlewares/LVGL/GUI/lvgl/src/indev/lv_indev_scroll.c **** {
 238:../../Middlewares/LVGL/GUI/lvgl/src/indev/lv_indev_scroll.c ****     if(indev == NULL) return 0;
 239:../../Middlewares/LVGL/GUI/lvgl/src/indev/lv_indev_scroll.c ****     int32_t v;
 240:../../Middlewares/LVGL/GUI/lvgl/src/indev/lv_indev_scroll.c ****     switch(dir) {
 241:../../Middlewares/LVGL/GUI/lvgl/src/indev/lv_indev_scroll.c ****         case LV_DIR_VER:
 242:../../Middlewares/LVGL/GUI/lvgl/src/indev/lv_indev_scroll.c ****             v = indev->pointer.scroll_throw_vect_ori.y;
 243:../../Middlewares/LVGL/GUI/lvgl/src/indev/lv_indev_scroll.c ****             break;
 244:../../Middlewares/LVGL/GUI/lvgl/src/indev/lv_indev_scroll.c ****         case LV_DIR_HOR:
 245:../../Middlewares/LVGL/GUI/lvgl/src/indev/lv_indev_scroll.c ****             v = indev->pointer.scroll_throw_vect_ori.x;
 246:../../Middlewares/LVGL/GUI/lvgl/src/indev/lv_indev_scroll.c ****             break;
 247:../../Middlewares/LVGL/GUI/lvgl/src/indev/lv_indev_scroll.c ****         default:
 248:../../Middlewares/LVGL/GUI/lvgl/src/indev/lv_indev_scroll.c ****             return 0;
 249:../../Middlewares/LVGL/GUI/lvgl/src/indev/lv_indev_scroll.c ****     }
 250:../../Middlewares/LVGL/GUI/lvgl/src/indev/lv_indev_scroll.c **** 
 251:../../Middlewares/LVGL/GUI/lvgl/src/indev/lv_indev_scroll.c ****     int32_t scroll_throw = indev->scroll_throw;
 252:../../Middlewares/LVGL/GUI/lvgl/src/indev/lv_indev_scroll.c ****     int32_t sum = 0;
 253:../../Middlewares/LVGL/GUI/lvgl/src/indev/lv_indev_scroll.c ****     while(v) {
 254:../../Middlewares/LVGL/GUI/lvgl/src/indev/lv_indev_scroll.c ****         sum += v;
 255:../../Middlewares/LVGL/GUI/lvgl/src/indev/lv_indev_scroll.c ****         v = v * (100 - scroll_throw) / 100;
 256:../../Middlewares/LVGL/GUI/lvgl/src/indev/lv_indev_scroll.c ****     }
 257:../../Middlewares/LVGL/GUI/lvgl/src/indev/lv_indev_scroll.c **** 
 258:../../Middlewares/LVGL/GUI/lvgl/src/indev/lv_indev_scroll.c ****     return sum;
 259:../../Middlewares/LVGL/GUI/lvgl/src/indev/lv_indev_scroll.c **** }
ARM GAS  C:\Users\28576\AppData\Local\Temp\ccZznpky.s 			page 6


 260:../../Middlewares/LVGL/GUI/lvgl/src/indev/lv_indev_scroll.c **** 
 261:../../Middlewares/LVGL/GUI/lvgl/src/indev/lv_indev_scroll.c **** void lv_indev_scroll_get_snap_dist(lv_obj_t * obj, lv_point_t * p)
 262:../../Middlewares/LVGL/GUI/lvgl/src/indev/lv_indev_scroll.c **** {
 263:../../Middlewares/LVGL/GUI/lvgl/src/indev/lv_indev_scroll.c ****     p->x = find_snap_point_x(obj, obj->coords.x1, obj->coords.x2, 0);
 264:../../Middlewares/LVGL/GUI/lvgl/src/indev/lv_indev_scroll.c ****     p->y = find_snap_point_y(obj, obj->coords.y1, obj->coords.y2, 0);
 265:../../Middlewares/LVGL/GUI/lvgl/src/indev/lv_indev_scroll.c **** }
 266:../../Middlewares/LVGL/GUI/lvgl/src/indev/lv_indev_scroll.c **** 
 267:../../Middlewares/LVGL/GUI/lvgl/src/indev/lv_indev_scroll.c **** lv_obj_t * lv_indev_find_scroll_obj(lv_indev_t * indev)
 268:../../Middlewares/LVGL/GUI/lvgl/src/indev/lv_indev_scroll.c **** {
 269:../../Middlewares/LVGL/GUI/lvgl/src/indev/lv_indev_scroll.c ****     lv_obj_t * obj_candidate = NULL;
 270:../../Middlewares/LVGL/GUI/lvgl/src/indev/lv_indev_scroll.c ****     lv_dir_t dir_candidate = LV_DIR_NONE;
 271:../../Middlewares/LVGL/GUI/lvgl/src/indev/lv_indev_scroll.c ****     int32_t scroll_limit = indev->scroll_limit;
 272:../../Middlewares/LVGL/GUI/lvgl/src/indev/lv_indev_scroll.c **** 
 273:../../Middlewares/LVGL/GUI/lvgl/src/indev/lv_indev_scroll.c ****     /*Go until find a scrollable object in the current direction
 274:../../Middlewares/LVGL/GUI/lvgl/src/indev/lv_indev_scroll.c ****      *More precisely:
 275:../../Middlewares/LVGL/GUI/lvgl/src/indev/lv_indev_scroll.c ****      * 1. Check the pressed object and all of its ancestors and try to find an object which is scro
 276:../../Middlewares/LVGL/GUI/lvgl/src/indev/lv_indev_scroll.c ****      * 2. Scrollable means it has some content out of its area
 277:../../Middlewares/LVGL/GUI/lvgl/src/indev/lv_indev_scroll.c ****      * 3. If an object can be scrolled into the current direction then use it ("real match"")
 278:../../Middlewares/LVGL/GUI/lvgl/src/indev/lv_indev_scroll.c ****      * 4. If can be scrolled on the current axis (hor/ver) save it as candidate (at least show an e
 279:../../Middlewares/LVGL/GUI/lvgl/src/indev/lv_indev_scroll.c ****      * 5. Use the last candidate. Always the "deepest" parent or the object from point 3*/
 280:../../Middlewares/LVGL/GUI/lvgl/src/indev/lv_indev_scroll.c ****     lv_obj_t * obj_act = indev->pointer.act_obj;
 281:../../Middlewares/LVGL/GUI/lvgl/src/indev/lv_indev_scroll.c **** 
 282:../../Middlewares/LVGL/GUI/lvgl/src/indev/lv_indev_scroll.c ****     /*Decide if it's a horizontal or vertical scroll*/
 283:../../Middlewares/LVGL/GUI/lvgl/src/indev/lv_indev_scroll.c ****     bool hor_en = false;
 284:../../Middlewares/LVGL/GUI/lvgl/src/indev/lv_indev_scroll.c ****     bool ver_en = false;
 285:../../Middlewares/LVGL/GUI/lvgl/src/indev/lv_indev_scroll.c ****     indev->pointer.scroll_sum.x += indev->pointer.vect.x;
 286:../../Middlewares/LVGL/GUI/lvgl/src/indev/lv_indev_scroll.c ****     indev->pointer.scroll_sum.y += indev->pointer.vect.y;
 287:../../Middlewares/LVGL/GUI/lvgl/src/indev/lv_indev_scroll.c **** 
 288:../../Middlewares/LVGL/GUI/lvgl/src/indev/lv_indev_scroll.c ****     while(obj_act) {
 289:../../Middlewares/LVGL/GUI/lvgl/src/indev/lv_indev_scroll.c ****         /*Get the transformed scroll_sum with this object*/
 290:../../Middlewares/LVGL/GUI/lvgl/src/indev/lv_indev_scroll.c ****         int16_t angle = 0;
 291:../../Middlewares/LVGL/GUI/lvgl/src/indev/lv_indev_scroll.c ****         int32_t scale_x = 256;
 292:../../Middlewares/LVGL/GUI/lvgl/src/indev/lv_indev_scroll.c ****         int32_t scale_y = 256;
 293:../../Middlewares/LVGL/GUI/lvgl/src/indev/lv_indev_scroll.c ****         lv_point_t pivot = { 0, 0 };
 294:../../Middlewares/LVGL/GUI/lvgl/src/indev/lv_indev_scroll.c ****         lv_obj_t * parent = obj_act;
 295:../../Middlewares/LVGL/GUI/lvgl/src/indev/lv_indev_scroll.c ****         while(parent) {
 296:../../Middlewares/LVGL/GUI/lvgl/src/indev/lv_indev_scroll.c ****             angle += lv_obj_get_style_transform_rotation(parent, 0);
 297:../../Middlewares/LVGL/GUI/lvgl/src/indev/lv_indev_scroll.c ****             int32_t zoom_act_x = lv_obj_get_style_transform_scale_x_safe(parent, 0);
 298:../../Middlewares/LVGL/GUI/lvgl/src/indev/lv_indev_scroll.c ****             int32_t zoom_act_y = lv_obj_get_style_transform_scale_y_safe(parent, 0);
 299:../../Middlewares/LVGL/GUI/lvgl/src/indev/lv_indev_scroll.c ****             scale_x = (scale_x * zoom_act_x) >> 8;
 300:../../Middlewares/LVGL/GUI/lvgl/src/indev/lv_indev_scroll.c ****             scale_y = (scale_y * zoom_act_y) >> 8;
 301:../../Middlewares/LVGL/GUI/lvgl/src/indev/lv_indev_scroll.c ****             parent = lv_obj_get_parent(parent);
 302:../../Middlewares/LVGL/GUI/lvgl/src/indev/lv_indev_scroll.c ****         }
 303:../../Middlewares/LVGL/GUI/lvgl/src/indev/lv_indev_scroll.c **** 
 304:../../Middlewares/LVGL/GUI/lvgl/src/indev/lv_indev_scroll.c ****         if(scale_x == 0) {
 305:../../Middlewares/LVGL/GUI/lvgl/src/indev/lv_indev_scroll.c ****             scale_x = 1;
 306:../../Middlewares/LVGL/GUI/lvgl/src/indev/lv_indev_scroll.c ****         }
 307:../../Middlewares/LVGL/GUI/lvgl/src/indev/lv_indev_scroll.c **** 
 308:../../Middlewares/LVGL/GUI/lvgl/src/indev/lv_indev_scroll.c ****         if(scale_y == 0) {
 309:../../Middlewares/LVGL/GUI/lvgl/src/indev/lv_indev_scroll.c ****             scale_y = 1;
 310:../../Middlewares/LVGL/GUI/lvgl/src/indev/lv_indev_scroll.c ****         }
 311:../../Middlewares/LVGL/GUI/lvgl/src/indev/lv_indev_scroll.c **** 
 312:../../Middlewares/LVGL/GUI/lvgl/src/indev/lv_indev_scroll.c ****         lv_point_t obj_scroll_sum = indev->pointer.scroll_sum;
 313:../../Middlewares/LVGL/GUI/lvgl/src/indev/lv_indev_scroll.c ****         if(angle != 0 || scale_x != LV_SCALE_NONE || scale_y != LV_SCALE_NONE) {
 314:../../Middlewares/LVGL/GUI/lvgl/src/indev/lv_indev_scroll.c ****             angle = -angle;
 315:../../Middlewares/LVGL/GUI/lvgl/src/indev/lv_indev_scroll.c ****             scale_x = (256 * 256) / scale_x;
 316:../../Middlewares/LVGL/GUI/lvgl/src/indev/lv_indev_scroll.c ****             scale_y = (256 * 256) / scale_y;
ARM GAS  C:\Users\28576\AppData\Local\Temp\ccZznpky.s 			page 7


 317:../../Middlewares/LVGL/GUI/lvgl/src/indev/lv_indev_scroll.c ****             lv_point_transform(&obj_scroll_sum, angle, scale_x, scale_y, &pivot, false);
 318:../../Middlewares/LVGL/GUI/lvgl/src/indev/lv_indev_scroll.c ****         }
 319:../../Middlewares/LVGL/GUI/lvgl/src/indev/lv_indev_scroll.c **** 
 320:../../Middlewares/LVGL/GUI/lvgl/src/indev/lv_indev_scroll.c ****         if(LV_ABS(obj_scroll_sum.x) > LV_ABS(obj_scroll_sum.y)) {
 321:../../Middlewares/LVGL/GUI/lvgl/src/indev/lv_indev_scroll.c ****             hor_en = true;
 322:../../Middlewares/LVGL/GUI/lvgl/src/indev/lv_indev_scroll.c ****         }
 323:../../Middlewares/LVGL/GUI/lvgl/src/indev/lv_indev_scroll.c ****         else {
 324:../../Middlewares/LVGL/GUI/lvgl/src/indev/lv_indev_scroll.c ****             ver_en = true;
 325:../../Middlewares/LVGL/GUI/lvgl/src/indev/lv_indev_scroll.c ****         }
 326:../../Middlewares/LVGL/GUI/lvgl/src/indev/lv_indev_scroll.c **** 
 327:../../Middlewares/LVGL/GUI/lvgl/src/indev/lv_indev_scroll.c ****         if(lv_obj_has_flag(obj_act, LV_OBJ_FLAG_SCROLLABLE) == false) {
 328:../../Middlewares/LVGL/GUI/lvgl/src/indev/lv_indev_scroll.c ****             /*If this object don't want to chain the scroll to the parent stop searching*/
 329:../../Middlewares/LVGL/GUI/lvgl/src/indev/lv_indev_scroll.c ****             if(lv_obj_has_flag(obj_act, LV_OBJ_FLAG_SCROLL_CHAIN_HOR) == false && hor_en) break;
 330:../../Middlewares/LVGL/GUI/lvgl/src/indev/lv_indev_scroll.c ****             if(lv_obj_has_flag(obj_act, LV_OBJ_FLAG_SCROLL_CHAIN_VER) == false && ver_en) break;
 331:../../Middlewares/LVGL/GUI/lvgl/src/indev/lv_indev_scroll.c **** 
 332:../../Middlewares/LVGL/GUI/lvgl/src/indev/lv_indev_scroll.c ****             obj_act = lv_obj_get_parent(obj_act);
 333:../../Middlewares/LVGL/GUI/lvgl/src/indev/lv_indev_scroll.c ****             continue;
 334:../../Middlewares/LVGL/GUI/lvgl/src/indev/lv_indev_scroll.c ****         }
 335:../../Middlewares/LVGL/GUI/lvgl/src/indev/lv_indev_scroll.c **** 
 336:../../Middlewares/LVGL/GUI/lvgl/src/indev/lv_indev_scroll.c ****         /*Consider both up-down or left/right scrollable according to the current direction*/
 337:../../Middlewares/LVGL/GUI/lvgl/src/indev/lv_indev_scroll.c ****         bool up_en = ver_en;
 338:../../Middlewares/LVGL/GUI/lvgl/src/indev/lv_indev_scroll.c ****         bool down_en = ver_en;
 339:../../Middlewares/LVGL/GUI/lvgl/src/indev/lv_indev_scroll.c ****         bool left_en = hor_en;
 340:../../Middlewares/LVGL/GUI/lvgl/src/indev/lv_indev_scroll.c ****         bool right_en = hor_en;
 341:../../Middlewares/LVGL/GUI/lvgl/src/indev/lv_indev_scroll.c **** 
 342:../../Middlewares/LVGL/GUI/lvgl/src/indev/lv_indev_scroll.c ****         /*The object might have disabled some directions.*/
 343:../../Middlewares/LVGL/GUI/lvgl/src/indev/lv_indev_scroll.c ****         lv_dir_t scroll_dir = lv_obj_get_scroll_dir(obj_act);
 344:../../Middlewares/LVGL/GUI/lvgl/src/indev/lv_indev_scroll.c ****         if((scroll_dir & LV_DIR_LEFT) == 0) left_en = false;
 345:../../Middlewares/LVGL/GUI/lvgl/src/indev/lv_indev_scroll.c ****         if((scroll_dir & LV_DIR_RIGHT) == 0) right_en = false;
 346:../../Middlewares/LVGL/GUI/lvgl/src/indev/lv_indev_scroll.c ****         if((scroll_dir & LV_DIR_TOP) == 0) up_en = false;
 347:../../Middlewares/LVGL/GUI/lvgl/src/indev/lv_indev_scroll.c ****         if((scroll_dir & LV_DIR_BOTTOM) == 0) down_en = false;
 348:../../Middlewares/LVGL/GUI/lvgl/src/indev/lv_indev_scroll.c **** 
 349:../../Middlewares/LVGL/GUI/lvgl/src/indev/lv_indev_scroll.c ****         /*Horizontal scroll*/
 350:../../Middlewares/LVGL/GUI/lvgl/src/indev/lv_indev_scroll.c ****         int32_t sl = 0;
 351:../../Middlewares/LVGL/GUI/lvgl/src/indev/lv_indev_scroll.c ****         int32_t sr = 0;
 352:../../Middlewares/LVGL/GUI/lvgl/src/indev/lv_indev_scroll.c ****         lv_scroll_snap_t snap_x = lv_obj_get_scroll_snap_x(obj_act);
 353:../../Middlewares/LVGL/GUI/lvgl/src/indev/lv_indev_scroll.c ****         if(snap_x == LV_SCROLL_SNAP_NONE) {
 354:../../Middlewares/LVGL/GUI/lvgl/src/indev/lv_indev_scroll.c ****             sl = lv_obj_get_scroll_left(obj_act);
 355:../../Middlewares/LVGL/GUI/lvgl/src/indev/lv_indev_scroll.c ****             sr = lv_obj_get_scroll_right(obj_act);
 356:../../Middlewares/LVGL/GUI/lvgl/src/indev/lv_indev_scroll.c ****         }
 357:../../Middlewares/LVGL/GUI/lvgl/src/indev/lv_indev_scroll.c ****         else {
 358:../../Middlewares/LVGL/GUI/lvgl/src/indev/lv_indev_scroll.c ****             bool has_start_snap;
 359:../../Middlewares/LVGL/GUI/lvgl/src/indev/lv_indev_scroll.c ****             bool has_end_snap;
 360:../../Middlewares/LVGL/GUI/lvgl/src/indev/lv_indev_scroll.c ****             has_more_snap_points(obj_act, LV_DIR_HOR, &has_start_snap, &has_end_snap);
 361:../../Middlewares/LVGL/GUI/lvgl/src/indev/lv_indev_scroll.c **** 
 362:../../Middlewares/LVGL/GUI/lvgl/src/indev/lv_indev_scroll.c ****             /*Assume scrolling is there are more snap point
 363:../../Middlewares/LVGL/GUI/lvgl/src/indev/lv_indev_scroll.c ****              *Assumed scroll in if there are NO more nap points*/
 364:../../Middlewares/LVGL/GUI/lvgl/src/indev/lv_indev_scroll.c ****             sl = has_start_snap ? 1 : -1;
 365:../../Middlewares/LVGL/GUI/lvgl/src/indev/lv_indev_scroll.c ****             sr = has_end_snap ? 1 : -1;
 366:../../Middlewares/LVGL/GUI/lvgl/src/indev/lv_indev_scroll.c ****         }
 367:../../Middlewares/LVGL/GUI/lvgl/src/indev/lv_indev_scroll.c **** 
 368:../../Middlewares/LVGL/GUI/lvgl/src/indev/lv_indev_scroll.c ****         /*Vertical scroll*/
 369:../../Middlewares/LVGL/GUI/lvgl/src/indev/lv_indev_scroll.c ****         int32_t st = 0;
 370:../../Middlewares/LVGL/GUI/lvgl/src/indev/lv_indev_scroll.c ****         int32_t sb = 0;
 371:../../Middlewares/LVGL/GUI/lvgl/src/indev/lv_indev_scroll.c ****         lv_scroll_snap_t snap_y = lv_obj_get_scroll_snap_y(obj_act);
 372:../../Middlewares/LVGL/GUI/lvgl/src/indev/lv_indev_scroll.c ****         if(snap_y == LV_SCROLL_SNAP_NONE) {
 373:../../Middlewares/LVGL/GUI/lvgl/src/indev/lv_indev_scroll.c ****             st = lv_obj_get_scroll_top(obj_act);
ARM GAS  C:\Users\28576\AppData\Local\Temp\ccZznpky.s 			page 8


 374:../../Middlewares/LVGL/GUI/lvgl/src/indev/lv_indev_scroll.c ****             sb = lv_obj_get_scroll_bottom(obj_act);
 375:../../Middlewares/LVGL/GUI/lvgl/src/indev/lv_indev_scroll.c ****         }
 376:../../Middlewares/LVGL/GUI/lvgl/src/indev/lv_indev_scroll.c ****         else {
 377:../../Middlewares/LVGL/GUI/lvgl/src/indev/lv_indev_scroll.c ****             bool has_start_snap;
 378:../../Middlewares/LVGL/GUI/lvgl/src/indev/lv_indev_scroll.c ****             bool has_end_snap;
 379:../../Middlewares/LVGL/GUI/lvgl/src/indev/lv_indev_scroll.c ****             has_more_snap_points(obj_act, LV_DIR_VER, &has_start_snap, &has_end_snap);
 380:../../Middlewares/LVGL/GUI/lvgl/src/indev/lv_indev_scroll.c **** 
 381:../../Middlewares/LVGL/GUI/lvgl/src/indev/lv_indev_scroll.c ****             /*Assume scrolling is there are more snap point
 382:../../Middlewares/LVGL/GUI/lvgl/src/indev/lv_indev_scroll.c ****              *Assumed scroll in if there are NO more nap points*/
 383:../../Middlewares/LVGL/GUI/lvgl/src/indev/lv_indev_scroll.c ****             st = has_start_snap ? 1 : -1;
 384:../../Middlewares/LVGL/GUI/lvgl/src/indev/lv_indev_scroll.c ****             sb = has_end_snap ? 1 : -1;
 385:../../Middlewares/LVGL/GUI/lvgl/src/indev/lv_indev_scroll.c ****         }
 386:../../Middlewares/LVGL/GUI/lvgl/src/indev/lv_indev_scroll.c **** 
 387:../../Middlewares/LVGL/GUI/lvgl/src/indev/lv_indev_scroll.c ****         /*If this object is scrollable into the current scroll direction then save it as a candidat
 388:../../Middlewares/LVGL/GUI/lvgl/src/indev/lv_indev_scroll.c ****          *It's important only to be scrollable on the current axis (hor/ver) because if the scroll
 389:../../Middlewares/LVGL/GUI/lvgl/src/indev/lv_indev_scroll.c ****          *is propagated to this object it can show at least elastic scroll effect.
 390:../../Middlewares/LVGL/GUI/lvgl/src/indev/lv_indev_scroll.c ****          *But if not hor/ver scrollable do not scroll it at all (so it's not a good candidate)*/
 391:../../Middlewares/LVGL/GUI/lvgl/src/indev/lv_indev_scroll.c ****         if((st > 0 || sb > 0)  &&
 392:../../Middlewares/LVGL/GUI/lvgl/src/indev/lv_indev_scroll.c ****            ((up_en    && obj_scroll_sum.y >=   scroll_limit) ||
 393:../../Middlewares/LVGL/GUI/lvgl/src/indev/lv_indev_scroll.c ****             (down_en  && obj_scroll_sum.y <= - scroll_limit))) {
 394:../../Middlewares/LVGL/GUI/lvgl/src/indev/lv_indev_scroll.c ****             obj_candidate = obj_act;
 395:../../Middlewares/LVGL/GUI/lvgl/src/indev/lv_indev_scroll.c ****             dir_candidate = LV_DIR_VER;
 396:../../Middlewares/LVGL/GUI/lvgl/src/indev/lv_indev_scroll.c ****         }
 397:../../Middlewares/LVGL/GUI/lvgl/src/indev/lv_indev_scroll.c **** 
 398:../../Middlewares/LVGL/GUI/lvgl/src/indev/lv_indev_scroll.c ****         if((sl > 0 || sr > 0)  &&
 399:../../Middlewares/LVGL/GUI/lvgl/src/indev/lv_indev_scroll.c ****            ((left_en   && obj_scroll_sum.x >=   scroll_limit) ||
 400:../../Middlewares/LVGL/GUI/lvgl/src/indev/lv_indev_scroll.c ****             (right_en  && obj_scroll_sum.x <= - scroll_limit))) {
 401:../../Middlewares/LVGL/GUI/lvgl/src/indev/lv_indev_scroll.c ****             obj_candidate = obj_act;
 402:../../Middlewares/LVGL/GUI/lvgl/src/indev/lv_indev_scroll.c ****             dir_candidate = LV_DIR_HOR;
 403:../../Middlewares/LVGL/GUI/lvgl/src/indev/lv_indev_scroll.c ****         }
 404:../../Middlewares/LVGL/GUI/lvgl/src/indev/lv_indev_scroll.c **** 
 405:../../Middlewares/LVGL/GUI/lvgl/src/indev/lv_indev_scroll.c ****         if(st <= 0) up_en = false;
 406:../../Middlewares/LVGL/GUI/lvgl/src/indev/lv_indev_scroll.c ****         if(sb <= 0) down_en = false;
 407:../../Middlewares/LVGL/GUI/lvgl/src/indev/lv_indev_scroll.c ****         if(sl <= 0) left_en = false;
 408:../../Middlewares/LVGL/GUI/lvgl/src/indev/lv_indev_scroll.c ****         if(sr <= 0) right_en = false;
 409:../../Middlewares/LVGL/GUI/lvgl/src/indev/lv_indev_scroll.c **** 
 410:../../Middlewares/LVGL/GUI/lvgl/src/indev/lv_indev_scroll.c ****         /*If the object really can be scrolled into the current direction then use it.*/
 411:../../Middlewares/LVGL/GUI/lvgl/src/indev/lv_indev_scroll.c ****         if((left_en  && obj_scroll_sum.x >=   scroll_limit) ||
 412:../../Middlewares/LVGL/GUI/lvgl/src/indev/lv_indev_scroll.c ****            (right_en && obj_scroll_sum.x <= - scroll_limit) ||
 413:../../Middlewares/LVGL/GUI/lvgl/src/indev/lv_indev_scroll.c ****            (up_en    && obj_scroll_sum.y >=   scroll_limit) ||
 414:../../Middlewares/LVGL/GUI/lvgl/src/indev/lv_indev_scroll.c ****            (down_en  && obj_scroll_sum.y <= - scroll_limit)) {
 415:../../Middlewares/LVGL/GUI/lvgl/src/indev/lv_indev_scroll.c ****             indev->pointer.scroll_dir = hor_en ? LV_DIR_HOR : LV_DIR_VER;
 416:../../Middlewares/LVGL/GUI/lvgl/src/indev/lv_indev_scroll.c ****             break;
 417:../../Middlewares/LVGL/GUI/lvgl/src/indev/lv_indev_scroll.c ****         }
 418:../../Middlewares/LVGL/GUI/lvgl/src/indev/lv_indev_scroll.c **** 
 419:../../Middlewares/LVGL/GUI/lvgl/src/indev/lv_indev_scroll.c ****         /*If this object don't want to chain the scroll to the parent stop searching*/
 420:../../Middlewares/LVGL/GUI/lvgl/src/indev/lv_indev_scroll.c ****         if(lv_obj_has_flag(obj_act, LV_OBJ_FLAG_SCROLL_CHAIN_HOR) == false && hor_en) break;
 421:../../Middlewares/LVGL/GUI/lvgl/src/indev/lv_indev_scroll.c ****         if(lv_obj_has_flag(obj_act, LV_OBJ_FLAG_SCROLL_CHAIN_VER) == false && ver_en) break;
 422:../../Middlewares/LVGL/GUI/lvgl/src/indev/lv_indev_scroll.c **** 
 423:../../Middlewares/LVGL/GUI/lvgl/src/indev/lv_indev_scroll.c ****         /*Try the parent*/
 424:../../Middlewares/LVGL/GUI/lvgl/src/indev/lv_indev_scroll.c ****         obj_act = lv_obj_get_parent(obj_act);
 425:../../Middlewares/LVGL/GUI/lvgl/src/indev/lv_indev_scroll.c ****     }
 426:../../Middlewares/LVGL/GUI/lvgl/src/indev/lv_indev_scroll.c **** 
 427:../../Middlewares/LVGL/GUI/lvgl/src/indev/lv_indev_scroll.c ****     /*Use the last candidate*/
 428:../../Middlewares/LVGL/GUI/lvgl/src/indev/lv_indev_scroll.c ****     if(obj_candidate) {
 429:../../Middlewares/LVGL/GUI/lvgl/src/indev/lv_indev_scroll.c ****         indev->pointer.scroll_dir = dir_candidate;
 430:../../Middlewares/LVGL/GUI/lvgl/src/indev/lv_indev_scroll.c ****         indev->pointer.scroll_obj = obj_candidate;
ARM GAS  C:\Users\28576\AppData\Local\Temp\ccZznpky.s 			page 9


 431:../../Middlewares/LVGL/GUI/lvgl/src/indev/lv_indev_scroll.c ****         indev->pointer.scroll_sum.x = 0;
 432:../../Middlewares/LVGL/GUI/lvgl/src/indev/lv_indev_scroll.c ****         indev->pointer.scroll_sum.y = 0;
 433:../../Middlewares/LVGL/GUI/lvgl/src/indev/lv_indev_scroll.c ****     }
 434:../../Middlewares/LVGL/GUI/lvgl/src/indev/lv_indev_scroll.c **** 
 435:../../Middlewares/LVGL/GUI/lvgl/src/indev/lv_indev_scroll.c ****     return obj_candidate;
 436:../../Middlewares/LVGL/GUI/lvgl/src/indev/lv_indev_scroll.c **** }
 437:../../Middlewares/LVGL/GUI/lvgl/src/indev/lv_indev_scroll.c **** 
 438:../../Middlewares/LVGL/GUI/lvgl/src/indev/lv_indev_scroll.c **** /**********************
 439:../../Middlewares/LVGL/GUI/lvgl/src/indev/lv_indev_scroll.c ****  *   STATIC FUNCTIONS
 440:../../Middlewares/LVGL/GUI/lvgl/src/indev/lv_indev_scroll.c ****  **********************/
 441:../../Middlewares/LVGL/GUI/lvgl/src/indev/lv_indev_scroll.c **** 
 442:../../Middlewares/LVGL/GUI/lvgl/src/indev/lv_indev_scroll.c **** static void init_scroll_limits(lv_indev_t * indev)
 443:../../Middlewares/LVGL/GUI/lvgl/src/indev/lv_indev_scroll.c **** {
 444:../../Middlewares/LVGL/GUI/lvgl/src/indev/lv_indev_scroll.c ****     lv_obj_t * obj = indev->pointer.scroll_obj;
 445:../../Middlewares/LVGL/GUI/lvgl/src/indev/lv_indev_scroll.c ****     /*If there no STOP allow scrolling anywhere*/
 446:../../Middlewares/LVGL/GUI/lvgl/src/indev/lv_indev_scroll.c ****     if(lv_obj_has_flag(obj, LV_OBJ_FLAG_SCROLL_ONE) == false) {
 447:../../Middlewares/LVGL/GUI/lvgl/src/indev/lv_indev_scroll.c ****         lv_area_set(&indev->pointer.scroll_area, LV_COORD_MIN, LV_COORD_MIN, LV_COORD_MAX, LV_COORD
 448:../../Middlewares/LVGL/GUI/lvgl/src/indev/lv_indev_scroll.c ****     }
 449:../../Middlewares/LVGL/GUI/lvgl/src/indev/lv_indev_scroll.c ****     /*With STOP limit the scrolling to the perv and next snap point*/
 450:../../Middlewares/LVGL/GUI/lvgl/src/indev/lv_indev_scroll.c ****     else {
 451:../../Middlewares/LVGL/GUI/lvgl/src/indev/lv_indev_scroll.c ****         switch(lv_obj_get_scroll_snap_y(obj)) {
 452:../../Middlewares/LVGL/GUI/lvgl/src/indev/lv_indev_scroll.c ****             case LV_SCROLL_SNAP_START:
 453:../../Middlewares/LVGL/GUI/lvgl/src/indev/lv_indev_scroll.c ****                 indev->pointer.scroll_area.y1 = find_snap_point_y(obj, obj->coords.y1 + 1, LV_COORD
 454:../../Middlewares/LVGL/GUI/lvgl/src/indev/lv_indev_scroll.c ****                 indev->pointer.scroll_area.y2 = find_snap_point_y(obj, LV_COORD_MIN, obj->coords.y1
 455:../../Middlewares/LVGL/GUI/lvgl/src/indev/lv_indev_scroll.c ****                 break;
 456:../../Middlewares/LVGL/GUI/lvgl/src/indev/lv_indev_scroll.c ****             case LV_SCROLL_SNAP_END:
 457:../../Middlewares/LVGL/GUI/lvgl/src/indev/lv_indev_scroll.c ****                 indev->pointer.scroll_area.y1 = find_snap_point_y(obj, obj->coords.y2, LV_COORD_MAX
 458:../../Middlewares/LVGL/GUI/lvgl/src/indev/lv_indev_scroll.c ****                 indev->pointer.scroll_area.y2 = find_snap_point_y(obj, LV_COORD_MIN, obj->coords.y2
 459:../../Middlewares/LVGL/GUI/lvgl/src/indev/lv_indev_scroll.c ****                 break;
 460:../../Middlewares/LVGL/GUI/lvgl/src/indev/lv_indev_scroll.c ****             case LV_SCROLL_SNAP_CENTER: {
 461:../../Middlewares/LVGL/GUI/lvgl/src/indev/lv_indev_scroll.c ****                     int32_t y_mid = obj->coords.y1 + lv_area_get_height(&obj->coords) / 2;
 462:../../Middlewares/LVGL/GUI/lvgl/src/indev/lv_indev_scroll.c ****                     indev->pointer.scroll_area.y1 = find_snap_point_y(obj, y_mid + 1, LV_COORD_MAX,
 463:../../Middlewares/LVGL/GUI/lvgl/src/indev/lv_indev_scroll.c ****                     indev->pointer.scroll_area.y2 = find_snap_point_y(obj, LV_COORD_MIN, y_mid - 1,
 464:../../Middlewares/LVGL/GUI/lvgl/src/indev/lv_indev_scroll.c ****                     break;
 465:../../Middlewares/LVGL/GUI/lvgl/src/indev/lv_indev_scroll.c ****                 }
 466:../../Middlewares/LVGL/GUI/lvgl/src/indev/lv_indev_scroll.c ****             default:
 467:../../Middlewares/LVGL/GUI/lvgl/src/indev/lv_indev_scroll.c ****                 indev->pointer.scroll_area.y1 = LV_COORD_MIN;
 468:../../Middlewares/LVGL/GUI/lvgl/src/indev/lv_indev_scroll.c ****                 indev->pointer.scroll_area.y2 = LV_COORD_MAX;
 469:../../Middlewares/LVGL/GUI/lvgl/src/indev/lv_indev_scroll.c ****                 break;
 470:../../Middlewares/LVGL/GUI/lvgl/src/indev/lv_indev_scroll.c ****         }
 471:../../Middlewares/LVGL/GUI/lvgl/src/indev/lv_indev_scroll.c **** 
 472:../../Middlewares/LVGL/GUI/lvgl/src/indev/lv_indev_scroll.c ****         switch(lv_obj_get_scroll_snap_x(obj)) {
 473:../../Middlewares/LVGL/GUI/lvgl/src/indev/lv_indev_scroll.c ****             case LV_SCROLL_SNAP_START:
 474:../../Middlewares/LVGL/GUI/lvgl/src/indev/lv_indev_scroll.c ****                 indev->pointer.scroll_area.x1 = find_snap_point_x(obj, obj->coords.x1, LV_COORD_MAX
 475:../../Middlewares/LVGL/GUI/lvgl/src/indev/lv_indev_scroll.c ****                 indev->pointer.scroll_area.x2 = find_snap_point_x(obj, LV_COORD_MIN, obj->coords.x1
 476:../../Middlewares/LVGL/GUI/lvgl/src/indev/lv_indev_scroll.c ****                 break;
 477:../../Middlewares/LVGL/GUI/lvgl/src/indev/lv_indev_scroll.c ****             case LV_SCROLL_SNAP_END:
 478:../../Middlewares/LVGL/GUI/lvgl/src/indev/lv_indev_scroll.c ****                 indev->pointer.scroll_area.x1 = find_snap_point_x(obj, obj->coords.x2, LV_COORD_MAX
 479:../../Middlewares/LVGL/GUI/lvgl/src/indev/lv_indev_scroll.c ****                 indev->pointer.scroll_area.x2 = find_snap_point_x(obj, LV_COORD_MIN, obj->coords.x2
 480:../../Middlewares/LVGL/GUI/lvgl/src/indev/lv_indev_scroll.c ****                 break;
 481:../../Middlewares/LVGL/GUI/lvgl/src/indev/lv_indev_scroll.c ****             case LV_SCROLL_SNAP_CENTER: {
 482:../../Middlewares/LVGL/GUI/lvgl/src/indev/lv_indev_scroll.c ****                     int32_t x_mid = obj->coords.x1 + lv_area_get_width(&obj->coords) / 2;
 483:../../Middlewares/LVGL/GUI/lvgl/src/indev/lv_indev_scroll.c ****                     indev->pointer.scroll_area.x1 = find_snap_point_x(obj, x_mid + 1, LV_COORD_MAX,
 484:../../Middlewares/LVGL/GUI/lvgl/src/indev/lv_indev_scroll.c ****                     indev->pointer.scroll_area.x2 = find_snap_point_x(obj, LV_COORD_MIN, x_mid - 1,
 485:../../Middlewares/LVGL/GUI/lvgl/src/indev/lv_indev_scroll.c ****                     break;
 486:../../Middlewares/LVGL/GUI/lvgl/src/indev/lv_indev_scroll.c ****                 }
 487:../../Middlewares/LVGL/GUI/lvgl/src/indev/lv_indev_scroll.c ****             default:
ARM GAS  C:\Users\28576\AppData\Local\Temp\ccZznpky.s 			page 10


 488:../../Middlewares/LVGL/GUI/lvgl/src/indev/lv_indev_scroll.c ****                 indev->pointer.scroll_area.x1 = LV_COORD_MIN;
 489:../../Middlewares/LVGL/GUI/lvgl/src/indev/lv_indev_scroll.c ****                 indev->pointer.scroll_area.x2 = LV_COORD_MAX;
 490:../../Middlewares/LVGL/GUI/lvgl/src/indev/lv_indev_scroll.c ****                 break;
 491:../../Middlewares/LVGL/GUI/lvgl/src/indev/lv_indev_scroll.c ****         }
 492:../../Middlewares/LVGL/GUI/lvgl/src/indev/lv_indev_scroll.c ****     }
 493:../../Middlewares/LVGL/GUI/lvgl/src/indev/lv_indev_scroll.c **** 
 494:../../Middlewares/LVGL/GUI/lvgl/src/indev/lv_indev_scroll.c ****     /*`find_snap_point_x/y()` return LV_COORD_MAX is not snap point was found,
 495:../../Middlewares/LVGL/GUI/lvgl/src/indev/lv_indev_scroll.c ****      *but x1/y1 should be small. */
 496:../../Middlewares/LVGL/GUI/lvgl/src/indev/lv_indev_scroll.c ****     if(indev->pointer.scroll_area.x1 == LV_COORD_MAX) indev->pointer.scroll_area.x1 = LV_COORD_MIN;
 497:../../Middlewares/LVGL/GUI/lvgl/src/indev/lv_indev_scroll.c ****     if(indev->pointer.scroll_area.y1 == LV_COORD_MAX) indev->pointer.scroll_area.y1 = LV_COORD_MIN;
 498:../../Middlewares/LVGL/GUI/lvgl/src/indev/lv_indev_scroll.c **** 
 499:../../Middlewares/LVGL/GUI/lvgl/src/indev/lv_indev_scroll.c ****     /*Allow scrolling on the edges. It will be reverted to the edge due to snapping anyway*/
 500:../../Middlewares/LVGL/GUI/lvgl/src/indev/lv_indev_scroll.c ****     if(indev->pointer.scroll_area.x1 == 0) indev->pointer.scroll_area.x1 = LV_COORD_MIN;
 501:../../Middlewares/LVGL/GUI/lvgl/src/indev/lv_indev_scroll.c ****     if(indev->pointer.scroll_area.x2 == 0) indev->pointer.scroll_area.x2 = LV_COORD_MAX;
 502:../../Middlewares/LVGL/GUI/lvgl/src/indev/lv_indev_scroll.c ****     if(indev->pointer.scroll_area.y1 == 0) indev->pointer.scroll_area.y1 = LV_COORD_MIN;
 503:../../Middlewares/LVGL/GUI/lvgl/src/indev/lv_indev_scroll.c ****     if(indev->pointer.scroll_area.y2 == 0) indev->pointer.scroll_area.y2 = LV_COORD_MAX;
 504:../../Middlewares/LVGL/GUI/lvgl/src/indev/lv_indev_scroll.c **** }
 505:../../Middlewares/LVGL/GUI/lvgl/src/indev/lv_indev_scroll.c **** 
 506:../../Middlewares/LVGL/GUI/lvgl/src/indev/lv_indev_scroll.c **** /**
 507:../../Middlewares/LVGL/GUI/lvgl/src/indev/lv_indev_scroll.c ****  * Search for snap point in the min..max range.
 508:../../Middlewares/LVGL/GUI/lvgl/src/indev/lv_indev_scroll.c ****  * @param obj the object on which snap point should be found
 509:../../Middlewares/LVGL/GUI/lvgl/src/indev/lv_indev_scroll.c ****  * @param min ignore snap points smaller than this. (Absolute coordinate)
 510:../../Middlewares/LVGL/GUI/lvgl/src/indev/lv_indev_scroll.c ****  * @param max ignore snap points greater than this. (Absolute coordinate)
 511:../../Middlewares/LVGL/GUI/lvgl/src/indev/lv_indev_scroll.c ****  * @param ofs offset to snap points. Useful the get a snap point in an imagined case
 512:../../Middlewares/LVGL/GUI/lvgl/src/indev/lv_indev_scroll.c ****  *            what if children are already moved by this value
 513:../../Middlewares/LVGL/GUI/lvgl/src/indev/lv_indev_scroll.c ****  * @return the absolute x coordinate of the nearest snap point
 514:../../Middlewares/LVGL/GUI/lvgl/src/indev/lv_indev_scroll.c ****  *         or `LV_COORD_MAX` if there is no snap point in the min..max range
 515:../../Middlewares/LVGL/GUI/lvgl/src/indev/lv_indev_scroll.c ****  */
 516:../../Middlewares/LVGL/GUI/lvgl/src/indev/lv_indev_scroll.c **** static int32_t find_snap_point_x(const lv_obj_t * obj, int32_t min, int32_t max, int32_t ofs)
 517:../../Middlewares/LVGL/GUI/lvgl/src/indev/lv_indev_scroll.c **** {
 518:../../Middlewares/LVGL/GUI/lvgl/src/indev/lv_indev_scroll.c ****     lv_scroll_snap_t align = lv_obj_get_scroll_snap_x(obj);
 519:../../Middlewares/LVGL/GUI/lvgl/src/indev/lv_indev_scroll.c ****     if(align == LV_SCROLL_SNAP_NONE) return LV_COORD_MAX;
 520:../../Middlewares/LVGL/GUI/lvgl/src/indev/lv_indev_scroll.c **** 
 521:../../Middlewares/LVGL/GUI/lvgl/src/indev/lv_indev_scroll.c ****     int32_t dist = LV_COORD_MAX;
 522:../../Middlewares/LVGL/GUI/lvgl/src/indev/lv_indev_scroll.c **** 
 523:../../Middlewares/LVGL/GUI/lvgl/src/indev/lv_indev_scroll.c ****     int32_t pad_left = lv_obj_get_style_pad_left(obj, LV_PART_MAIN);
 524:../../Middlewares/LVGL/GUI/lvgl/src/indev/lv_indev_scroll.c ****     int32_t pad_right = lv_obj_get_style_pad_right(obj, LV_PART_MAIN);
 525:../../Middlewares/LVGL/GUI/lvgl/src/indev/lv_indev_scroll.c **** 
 526:../../Middlewares/LVGL/GUI/lvgl/src/indev/lv_indev_scroll.c ****     uint32_t i;
 527:../../Middlewares/LVGL/GUI/lvgl/src/indev/lv_indev_scroll.c ****     uint32_t child_cnt = lv_obj_get_child_count(obj);
 528:../../Middlewares/LVGL/GUI/lvgl/src/indev/lv_indev_scroll.c ****     for(i = 0; i < child_cnt; i++) {
 529:../../Middlewares/LVGL/GUI/lvgl/src/indev/lv_indev_scroll.c ****         lv_obj_t * child = obj->spec_attr->children[i];
 530:../../Middlewares/LVGL/GUI/lvgl/src/indev/lv_indev_scroll.c ****         if(lv_obj_has_flag_any(child, LV_OBJ_FLAG_HIDDEN | LV_OBJ_FLAG_FLOATING)) continue;
 531:../../Middlewares/LVGL/GUI/lvgl/src/indev/lv_indev_scroll.c ****         if(lv_obj_has_flag(child, LV_OBJ_FLAG_SNAPPABLE)) {
 532:../../Middlewares/LVGL/GUI/lvgl/src/indev/lv_indev_scroll.c ****             int32_t x_child = 0;
 533:../../Middlewares/LVGL/GUI/lvgl/src/indev/lv_indev_scroll.c ****             int32_t x_parent = 0;
 534:../../Middlewares/LVGL/GUI/lvgl/src/indev/lv_indev_scroll.c ****             switch(align) {
 535:../../Middlewares/LVGL/GUI/lvgl/src/indev/lv_indev_scroll.c ****                 case LV_SCROLL_SNAP_START:
 536:../../Middlewares/LVGL/GUI/lvgl/src/indev/lv_indev_scroll.c ****                     x_child = child->coords.x1;
 537:../../Middlewares/LVGL/GUI/lvgl/src/indev/lv_indev_scroll.c ****                     x_parent = obj->coords.x1 + pad_left;
 538:../../Middlewares/LVGL/GUI/lvgl/src/indev/lv_indev_scroll.c ****                     break;
 539:../../Middlewares/LVGL/GUI/lvgl/src/indev/lv_indev_scroll.c ****                 case LV_SCROLL_SNAP_END:
 540:../../Middlewares/LVGL/GUI/lvgl/src/indev/lv_indev_scroll.c ****                     x_child = child->coords.x2;
 541:../../Middlewares/LVGL/GUI/lvgl/src/indev/lv_indev_scroll.c ****                     x_parent = obj->coords.x2 - pad_right;
 542:../../Middlewares/LVGL/GUI/lvgl/src/indev/lv_indev_scroll.c ****                     break;
 543:../../Middlewares/LVGL/GUI/lvgl/src/indev/lv_indev_scroll.c ****                 case LV_SCROLL_SNAP_CENTER:
 544:../../Middlewares/LVGL/GUI/lvgl/src/indev/lv_indev_scroll.c ****                     x_child = child->coords.x1 + lv_area_get_width(&child->coords) / 2;
ARM GAS  C:\Users\28576\AppData\Local\Temp\ccZznpky.s 			page 11


 545:../../Middlewares/LVGL/GUI/lvgl/src/indev/lv_indev_scroll.c ****                     x_parent = obj->coords.x1 + pad_left + (lv_area_get_width(&obj->coords) - pad_l
 546:../../Middlewares/LVGL/GUI/lvgl/src/indev/lv_indev_scroll.c ****                     break;
 547:../../Middlewares/LVGL/GUI/lvgl/src/indev/lv_indev_scroll.c ****                 default:
 548:../../Middlewares/LVGL/GUI/lvgl/src/indev/lv_indev_scroll.c ****                     continue;
 549:../../Middlewares/LVGL/GUI/lvgl/src/indev/lv_indev_scroll.c ****             }
 550:../../Middlewares/LVGL/GUI/lvgl/src/indev/lv_indev_scroll.c **** 
 551:../../Middlewares/LVGL/GUI/lvgl/src/indev/lv_indev_scroll.c ****             x_child += ofs;
 552:../../Middlewares/LVGL/GUI/lvgl/src/indev/lv_indev_scroll.c ****             if(x_child >= min && x_child <= max) {
 553:../../Middlewares/LVGL/GUI/lvgl/src/indev/lv_indev_scroll.c ****                 int32_t x = x_child -  x_parent;
 554:../../Middlewares/LVGL/GUI/lvgl/src/indev/lv_indev_scroll.c ****                 if(LV_ABS(x) < LV_ABS(dist)) dist = x;
 555:../../Middlewares/LVGL/GUI/lvgl/src/indev/lv_indev_scroll.c ****             }
 556:../../Middlewares/LVGL/GUI/lvgl/src/indev/lv_indev_scroll.c ****         }
 557:../../Middlewares/LVGL/GUI/lvgl/src/indev/lv_indev_scroll.c ****     }
 558:../../Middlewares/LVGL/GUI/lvgl/src/indev/lv_indev_scroll.c **** 
 559:../../Middlewares/LVGL/GUI/lvgl/src/indev/lv_indev_scroll.c ****     return dist == LV_COORD_MAX ? LV_COORD_MAX : -dist;
 560:../../Middlewares/LVGL/GUI/lvgl/src/indev/lv_indev_scroll.c **** }
 561:../../Middlewares/LVGL/GUI/lvgl/src/indev/lv_indev_scroll.c **** 
 562:../../Middlewares/LVGL/GUI/lvgl/src/indev/lv_indev_scroll.c **** /**
 563:../../Middlewares/LVGL/GUI/lvgl/src/indev/lv_indev_scroll.c ****  * Search for snap point in the min..max range.
 564:../../Middlewares/LVGL/GUI/lvgl/src/indev/lv_indev_scroll.c ****  * @param obj the object on which snap point should be found
 565:../../Middlewares/LVGL/GUI/lvgl/src/indev/lv_indev_scroll.c ****  * @param min ignore snap points smaller than this. (Absolute coordinate)
 566:../../Middlewares/LVGL/GUI/lvgl/src/indev/lv_indev_scroll.c ****  * @param max ignore snap points greater than this. (Absolute coordinate)
 567:../../Middlewares/LVGL/GUI/lvgl/src/indev/lv_indev_scroll.c ****  * @param ofs offset to snap points. Useful to get a snap point in an imagined case
 568:../../Middlewares/LVGL/GUI/lvgl/src/indev/lv_indev_scroll.c ****  *            what if children are already moved by this value
 569:../../Middlewares/LVGL/GUI/lvgl/src/indev/lv_indev_scroll.c ****  * @return the absolute y coordinate of the nearest snap point
 570:../../Middlewares/LVGL/GUI/lvgl/src/indev/lv_indev_scroll.c ****  *         or `LV_COORD_MAX` if there is no snap point in the min..max range
 571:../../Middlewares/LVGL/GUI/lvgl/src/indev/lv_indev_scroll.c ****  */
 572:../../Middlewares/LVGL/GUI/lvgl/src/indev/lv_indev_scroll.c **** static int32_t find_snap_point_y(const lv_obj_t * obj, int32_t min, int32_t max, int32_t ofs)
 573:../../Middlewares/LVGL/GUI/lvgl/src/indev/lv_indev_scroll.c **** {
 574:../../Middlewares/LVGL/GUI/lvgl/src/indev/lv_indev_scroll.c ****     lv_scroll_snap_t align = lv_obj_get_scroll_snap_y(obj);
 575:../../Middlewares/LVGL/GUI/lvgl/src/indev/lv_indev_scroll.c ****     if(align == LV_SCROLL_SNAP_NONE) return LV_COORD_MAX;
 576:../../Middlewares/LVGL/GUI/lvgl/src/indev/lv_indev_scroll.c **** 
 577:../../Middlewares/LVGL/GUI/lvgl/src/indev/lv_indev_scroll.c ****     int32_t dist = LV_COORD_MAX;
 578:../../Middlewares/LVGL/GUI/lvgl/src/indev/lv_indev_scroll.c **** 
 579:../../Middlewares/LVGL/GUI/lvgl/src/indev/lv_indev_scroll.c ****     int32_t pad_top = lv_obj_get_style_pad_top(obj, LV_PART_MAIN);
 580:../../Middlewares/LVGL/GUI/lvgl/src/indev/lv_indev_scroll.c ****     int32_t pad_bottom = lv_obj_get_style_pad_bottom(obj, LV_PART_MAIN);
 581:../../Middlewares/LVGL/GUI/lvgl/src/indev/lv_indev_scroll.c **** 
 582:../../Middlewares/LVGL/GUI/lvgl/src/indev/lv_indev_scroll.c ****     uint32_t i;
 583:../../Middlewares/LVGL/GUI/lvgl/src/indev/lv_indev_scroll.c ****     uint32_t child_cnt = lv_obj_get_child_count(obj);
 584:../../Middlewares/LVGL/GUI/lvgl/src/indev/lv_indev_scroll.c ****     for(i = 0; i < child_cnt; i++) {
 585:../../Middlewares/LVGL/GUI/lvgl/src/indev/lv_indev_scroll.c ****         lv_obj_t * child = obj->spec_attr->children[i];
 586:../../Middlewares/LVGL/GUI/lvgl/src/indev/lv_indev_scroll.c ****         if(lv_obj_has_flag_any(child, LV_OBJ_FLAG_HIDDEN | LV_OBJ_FLAG_FLOATING)) continue;
 587:../../Middlewares/LVGL/GUI/lvgl/src/indev/lv_indev_scroll.c ****         if(lv_obj_has_flag(child, LV_OBJ_FLAG_SNAPPABLE)) {
 588:../../Middlewares/LVGL/GUI/lvgl/src/indev/lv_indev_scroll.c ****             int32_t y_child = 0;
 589:../../Middlewares/LVGL/GUI/lvgl/src/indev/lv_indev_scroll.c ****             int32_t y_parent = 0;
 590:../../Middlewares/LVGL/GUI/lvgl/src/indev/lv_indev_scroll.c ****             switch(align) {
 591:../../Middlewares/LVGL/GUI/lvgl/src/indev/lv_indev_scroll.c ****                 case LV_SCROLL_SNAP_START:
 592:../../Middlewares/LVGL/GUI/lvgl/src/indev/lv_indev_scroll.c ****                     y_child = child->coords.y1;
 593:../../Middlewares/LVGL/GUI/lvgl/src/indev/lv_indev_scroll.c ****                     y_parent = obj->coords.y1 + pad_top;
 594:../../Middlewares/LVGL/GUI/lvgl/src/indev/lv_indev_scroll.c ****                     break;
 595:../../Middlewares/LVGL/GUI/lvgl/src/indev/lv_indev_scroll.c ****                 case LV_SCROLL_SNAP_END:
 596:../../Middlewares/LVGL/GUI/lvgl/src/indev/lv_indev_scroll.c ****                     y_child = child->coords.y2;
 597:../../Middlewares/LVGL/GUI/lvgl/src/indev/lv_indev_scroll.c ****                     y_parent = obj->coords.y2 - pad_bottom;
 598:../../Middlewares/LVGL/GUI/lvgl/src/indev/lv_indev_scroll.c ****                     break;
 599:../../Middlewares/LVGL/GUI/lvgl/src/indev/lv_indev_scroll.c ****                 case LV_SCROLL_SNAP_CENTER:
 600:../../Middlewares/LVGL/GUI/lvgl/src/indev/lv_indev_scroll.c ****                     y_child = child->coords.y1 + lv_area_get_height(&child->coords) / 2;
 601:../../Middlewares/LVGL/GUI/lvgl/src/indev/lv_indev_scroll.c ****                     y_parent = obj->coords.y1 + pad_top + (lv_area_get_height(&obj->coords) - pad_t
ARM GAS  C:\Users\28576\AppData\Local\Temp\ccZznpky.s 			page 12


 602:../../Middlewares/LVGL/GUI/lvgl/src/indev/lv_indev_scroll.c ****                     break;
 603:../../Middlewares/LVGL/GUI/lvgl/src/indev/lv_indev_scroll.c ****                 default:
 604:../../Middlewares/LVGL/GUI/lvgl/src/indev/lv_indev_scroll.c ****                     continue;
 605:../../Middlewares/LVGL/GUI/lvgl/src/indev/lv_indev_scroll.c ****             }
 606:../../Middlewares/LVGL/GUI/lvgl/src/indev/lv_indev_scroll.c **** 
 607:../../Middlewares/LVGL/GUI/lvgl/src/indev/lv_indev_scroll.c ****             y_child += ofs;
 608:../../Middlewares/LVGL/GUI/lvgl/src/indev/lv_indev_scroll.c ****             if(y_child >= min && y_child <= max) {
 609:../../Middlewares/LVGL/GUI/lvgl/src/indev/lv_indev_scroll.c ****                 int32_t y = y_child -  y_parent;
 610:../../Middlewares/LVGL/GUI/lvgl/src/indev/lv_indev_scroll.c ****                 if(LV_ABS(y) < LV_ABS(dist)) dist = y;
 611:../../Middlewares/LVGL/GUI/lvgl/src/indev/lv_indev_scroll.c ****             }
 612:../../Middlewares/LVGL/GUI/lvgl/src/indev/lv_indev_scroll.c ****         }
 613:../../Middlewares/LVGL/GUI/lvgl/src/indev/lv_indev_scroll.c ****     }
 614:../../Middlewares/LVGL/GUI/lvgl/src/indev/lv_indev_scroll.c **** 
 615:../../Middlewares/LVGL/GUI/lvgl/src/indev/lv_indev_scroll.c ****     return dist == LV_COORD_MAX ? LV_COORD_MAX : -dist;
 616:../../Middlewares/LVGL/GUI/lvgl/src/indev/lv_indev_scroll.c **** }
 617:../../Middlewares/LVGL/GUI/lvgl/src/indev/lv_indev_scroll.c **** 
 618:../../Middlewares/LVGL/GUI/lvgl/src/indev/lv_indev_scroll.c **** static void scroll_limit_diff(lv_indev_t * indev, int32_t * diff_x, int32_t * diff_y)
 619:../../Middlewares/LVGL/GUI/lvgl/src/indev/lv_indev_scroll.c **** {
  28              		.loc 1 619 1 view -0
  29              		.cfi_startproc
  30              		@ args = 0, pretend = 0, frame = 0
  31              		@ frame_needed = 0, uses_anonymous_args = 0
  32              		.loc 1 619 1 is_stmt 0 view .LVU1
  33 0000 00B5     		push	{lr}
  34              	.LCFI0:
  35              		.cfi_def_cfa_offset 4
  36              		.cfi_offset 14, -4
 620:../../Middlewares/LVGL/GUI/lvgl/src/indev/lv_indev_scroll.c ****     if(diff_y) {
  37              		.loc 1 620 5 is_stmt 1 view .LVU2
  38              		.loc 1 620 7 is_stmt 0 view .LVU3
  39 0002 B2B1     		cbz	r2, .L2
  40 0004 1346     		mov	r3, r2
 621:../../Middlewares/LVGL/GUI/lvgl/src/indev/lv_indev_scroll.c ****         if(indev->pointer.scroll_sum.y + *diff_y < indev->pointer.scroll_area.y1) {
  41              		.loc 1 621 9 is_stmt 1 view .LVU4
  42              		.loc 1 621 37 is_stmt 0 view .LVU5
  43 0006 D0F854E0 		ldr	lr, [r0, #84]
  44              		.loc 1 621 42 view .LVU6
  45 000a 1268     		ldr	r2, [r2]
  46              	.LVL1:
  47              		.loc 1 621 40 view .LVU7
  48 000c 7244     		add	r2, r2, lr
  49              		.loc 1 621 78 view .LVU8
  50 000e D0F880C0 		ldr	ip, [r0, #128]
  51              		.loc 1 621 11 view .LVU9
  52 0012 6245     		cmp	r2, ip
  53 0014 02DA     		bge	.L3
 622:../../Middlewares/LVGL/GUI/lvgl/src/indev/lv_indev_scroll.c ****             *diff_y = indev->pointer.scroll_area.y1 - indev->pointer.scroll_sum.y;
  54              		.loc 1 622 13 is_stmt 1 view .LVU10
  55              		.loc 1 622 53 is_stmt 0 view .LVU11
  56 0016 ACEB0E02 		sub	r2, ip, lr
  57              		.loc 1 622 21 view .LVU12
  58 001a 1A60     		str	r2, [r3]
  59              	.L3:
 623:../../Middlewares/LVGL/GUI/lvgl/src/indev/lv_indev_scroll.c ****         }
 624:../../Middlewares/LVGL/GUI/lvgl/src/indev/lv_indev_scroll.c **** 
 625:../../Middlewares/LVGL/GUI/lvgl/src/indev/lv_indev_scroll.c ****         if(indev->pointer.scroll_sum.y + *diff_y > indev->pointer.scroll_area.y2) {
  60              		.loc 1 625 9 is_stmt 1 view .LVU13
ARM GAS  C:\Users\28576\AppData\Local\Temp\ccZznpky.s 			page 13


  61              		.loc 1 625 37 is_stmt 0 view .LVU14
  62 001c D0F854E0 		ldr	lr, [r0, #84]
  63              		.loc 1 625 42 view .LVU15
  64 0020 1A68     		ldr	r2, [r3]
  65              		.loc 1 625 40 view .LVU16
  66 0022 7244     		add	r2, r2, lr
  67              		.loc 1 625 78 view .LVU17
  68 0024 D0F888C0 		ldr	ip, [r0, #136]
  69              		.loc 1 625 11 view .LVU18
  70 0028 6245     		cmp	r2, ip
  71 002a 02DD     		ble	.L2
 626:../../Middlewares/LVGL/GUI/lvgl/src/indev/lv_indev_scroll.c ****             *diff_y = indev->pointer.scroll_area.y2 - indev->pointer.scroll_sum.y;
  72              		.loc 1 626 13 is_stmt 1 view .LVU19
  73              		.loc 1 626 53 is_stmt 0 view .LVU20
  74 002c ACEB0E02 		sub	r2, ip, lr
  75              		.loc 1 626 21 view .LVU21
  76 0030 1A60     		str	r2, [r3]
  77              	.LVL2:
  78              	.L2:
 627:../../Middlewares/LVGL/GUI/lvgl/src/indev/lv_indev_scroll.c ****         }
 628:../../Middlewares/LVGL/GUI/lvgl/src/indev/lv_indev_scroll.c ****     }
 629:../../Middlewares/LVGL/GUI/lvgl/src/indev/lv_indev_scroll.c **** 
 630:../../Middlewares/LVGL/GUI/lvgl/src/indev/lv_indev_scroll.c ****     if(diff_x) {
  79              		.loc 1 630 5 is_stmt 1 view .LVU22
  80              		.loc 1 630 7 is_stmt 0 view .LVU23
  81 0032 A1B1     		cbz	r1, .L1
 631:../../Middlewares/LVGL/GUI/lvgl/src/indev/lv_indev_scroll.c ****         if(indev->pointer.scroll_sum.x + *diff_x < indev->pointer.scroll_area.x1) {
  82              		.loc 1 631 9 is_stmt 1 view .LVU24
  83              		.loc 1 631 37 is_stmt 0 view .LVU25
  84 0034 D0F850C0 		ldr	ip, [r0, #80]
  85              		.loc 1 631 42 view .LVU26
  86 0038 0B68     		ldr	r3, [r1]
  87              		.loc 1 631 40 view .LVU27
  88 003a 6344     		add	r3, r3, ip
  89              		.loc 1 631 78 view .LVU28
  90 003c C26F     		ldr	r2, [r0, #124]
  91              		.loc 1 631 11 view .LVU29
  92 003e 9342     		cmp	r3, r2
  93 0040 02DA     		bge	.L5
 632:../../Middlewares/LVGL/GUI/lvgl/src/indev/lv_indev_scroll.c ****             *diff_x = indev->pointer.scroll_area.x1 - indev->pointer.scroll_sum.x;
  94              		.loc 1 632 13 is_stmt 1 view .LVU30
  95              		.loc 1 632 53 is_stmt 0 view .LVU31
  96 0042 A2EB0C02 		sub	r2, r2, ip
  97              		.loc 1 632 21 view .LVU32
  98 0046 0A60     		str	r2, [r1]
  99              	.L5:
 633:../../Middlewares/LVGL/GUI/lvgl/src/indev/lv_indev_scroll.c ****         }
 634:../../Middlewares/LVGL/GUI/lvgl/src/indev/lv_indev_scroll.c **** 
 635:../../Middlewares/LVGL/GUI/lvgl/src/indev/lv_indev_scroll.c ****         if(indev->pointer.scroll_sum.x + *diff_x > indev->pointer.scroll_area.x2) {
 100              		.loc 1 635 9 is_stmt 1 view .LVU33
 101              		.loc 1 635 37 is_stmt 0 view .LVU34
 102 0048 D0F850C0 		ldr	ip, [r0, #80]
 103              		.loc 1 635 42 view .LVU35
 104 004c 0B68     		ldr	r3, [r1]
 105              		.loc 1 635 40 view .LVU36
 106 004e 6344     		add	r3, r3, ip
 107              		.loc 1 635 78 view .LVU37
ARM GAS  C:\Users\28576\AppData\Local\Temp\ccZznpky.s 			page 14


 108 0050 D0F88420 		ldr	r2, [r0, #132]
 109              		.loc 1 635 11 view .LVU38
 110 0054 9342     		cmp	r3, r2
 111 0056 02DD     		ble	.L1
 636:../../Middlewares/LVGL/GUI/lvgl/src/indev/lv_indev_scroll.c ****             *diff_x = indev->pointer.scroll_area.x2 - indev->pointer.scroll_sum.x;
 112              		.loc 1 636 13 is_stmt 1 view .LVU39
 113              		.loc 1 636 53 is_stmt 0 view .LVU40
 114 0058 A2EB0C02 		sub	r2, r2, ip
 115              		.loc 1 636 21 view .LVU41
 116 005c 0A60     		str	r2, [r1]
 117              	.L1:
 637:../../Middlewares/LVGL/GUI/lvgl/src/indev/lv_indev_scroll.c ****         }
 638:../../Middlewares/LVGL/GUI/lvgl/src/indev/lv_indev_scroll.c ****     }
 639:../../Middlewares/LVGL/GUI/lvgl/src/indev/lv_indev_scroll.c **** }
 118              		.loc 1 639 1 view .LVU42
 119 005e 00BD     		pop	{pc}
 120              		.cfi_endproc
 121              	.LFE180:
 123              		.section	.text.find_snap_point_y,"ax",%progbits
 124              		.align	1
 125              		.syntax unified
 126              		.thumb
 127              		.thumb_func
 129              	find_snap_point_y:
 130              	.LVL3:
 131              	.LFB179:
 573:../../Middlewares/LVGL/GUI/lvgl/src/indev/lv_indev_scroll.c ****     lv_scroll_snap_t align = lv_obj_get_scroll_snap_y(obj);
 132              		.loc 1 573 1 is_stmt 1 view -0
 133              		.cfi_startproc
 134              		@ args = 0, pretend = 0, frame = 24
 135              		@ frame_needed = 0, uses_anonymous_args = 0
 573:../../Middlewares/LVGL/GUI/lvgl/src/indev/lv_indev_scroll.c ****     lv_scroll_snap_t align = lv_obj_get_scroll_snap_y(obj);
 136              		.loc 1 573 1 is_stmt 0 view .LVU44
 137 0000 2DE9F04F 		push	{r4, r5, r6, r7, r8, r9, r10, fp, lr}
 138              	.LCFI1:
 139              		.cfi_def_cfa_offset 36
 140              		.cfi_offset 4, -36
 141              		.cfi_offset 5, -32
 142              		.cfi_offset 6, -28
 143              		.cfi_offset 7, -24
 144              		.cfi_offset 8, -20
 145              		.cfi_offset 9, -16
 146              		.cfi_offset 10, -12
 147              		.cfi_offset 11, -8
 148              		.cfi_offset 14, -4
 149 0004 87B0     		sub	sp, sp, #28
 150              	.LCFI2:
 151              		.cfi_def_cfa_offset 64
 152 0006 0646     		mov	r6, r0
 153 0008 8A46     		mov	r10, r1
 154 000a 9346     		mov	fp, r2
 155 000c 0093     		str	r3, [sp]
 574:../../Middlewares/LVGL/GUI/lvgl/src/indev/lv_indev_scroll.c ****     if(align == LV_SCROLL_SNAP_NONE) return LV_COORD_MAX;
 156              		.loc 1 574 5 is_stmt 1 view .LVU45
 574:../../Middlewares/LVGL/GUI/lvgl/src/indev/lv_indev_scroll.c ****     if(align == LV_SCROLL_SNAP_NONE) return LV_COORD_MAX;
 157              		.loc 1 574 30 is_stmt 0 view .LVU46
 158 000e FFF7FEFF 		bl	lv_obj_get_scroll_snap_y
ARM GAS  C:\Users\28576\AppData\Local\Temp\ccZznpky.s 			page 15


 159              	.LVL4:
 575:../../Middlewares/LVGL/GUI/lvgl/src/indev/lv_indev_scroll.c **** 
 160              		.loc 1 575 5 is_stmt 1 view .LVU47
 575:../../Middlewares/LVGL/GUI/lvgl/src/indev/lv_indev_scroll.c **** 
 161              		.loc 1 575 7 is_stmt 0 view .LVU48
 162 0012 0028     		cmp	r0, #0
 163 0014 00F08180 		beq	.L17
 164 0018 8046     		mov	r8, r0
 577:../../Middlewares/LVGL/GUI/lvgl/src/indev/lv_indev_scroll.c **** 
 165              		.loc 1 577 5 is_stmt 1 view .LVU49
 166              	.LVL5:
 579:../../Middlewares/LVGL/GUI/lvgl/src/indev/lv_indev_scroll.c ****     int32_t pad_bottom = lv_obj_get_style_pad_bottom(obj, LV_PART_MAIN);
 167              		.loc 1 579 5 view .LVU50
 168              	.LBB68:
 169              	.LBI68:
 170              		.file 2 "../../Middlewares/LVGL/GUI/lvgl/src/indev/../core/lv_obj_style_gen.h"
   1:../../Middlewares/LVGL/GUI/lvgl/src/indev/../core/lv_obj_style_gen.h **** 
   2:../../Middlewares/LVGL/GUI/lvgl/src/indev/../core/lv_obj_style_gen.h **** /*
   3:../../Middlewares/LVGL/GUI/lvgl/src/indev/../core/lv_obj_style_gen.h ****  **********************************************************************
   4:../../Middlewares/LVGL/GUI/lvgl/src/indev/../core/lv_obj_style_gen.h ****  *                            DO NOT EDIT
   5:../../Middlewares/LVGL/GUI/lvgl/src/indev/../core/lv_obj_style_gen.h ****  * This file is automatically generated by "style_api_gen.py"
   6:../../Middlewares/LVGL/GUI/lvgl/src/indev/../core/lv_obj_style_gen.h ****  **********************************************************************
   7:../../Middlewares/LVGL/GUI/lvgl/src/indev/../core/lv_obj_style_gen.h ****  */
   8:../../Middlewares/LVGL/GUI/lvgl/src/indev/../core/lv_obj_style_gen.h **** 
   9:../../Middlewares/LVGL/GUI/lvgl/src/indev/../core/lv_obj_style_gen.h **** 
  10:../../Middlewares/LVGL/GUI/lvgl/src/indev/../core/lv_obj_style_gen.h **** #ifndef LV_OBJ_STYLE_GEN_H
  11:../../Middlewares/LVGL/GUI/lvgl/src/indev/../core/lv_obj_style_gen.h **** #define LV_OBJ_STYLE_GEN_H
  12:../../Middlewares/LVGL/GUI/lvgl/src/indev/../core/lv_obj_style_gen.h **** 
  13:../../Middlewares/LVGL/GUI/lvgl/src/indev/../core/lv_obj_style_gen.h **** #ifdef __cplusplus
  14:../../Middlewares/LVGL/GUI/lvgl/src/indev/../core/lv_obj_style_gen.h **** extern "C" {
  15:../../Middlewares/LVGL/GUI/lvgl/src/indev/../core/lv_obj_style_gen.h **** #endif
  16:../../Middlewares/LVGL/GUI/lvgl/src/indev/../core/lv_obj_style_gen.h **** 
  17:../../Middlewares/LVGL/GUI/lvgl/src/indev/../core/lv_obj_style_gen.h **** #include "../misc/lv_area.h"
  18:../../Middlewares/LVGL/GUI/lvgl/src/indev/../core/lv_obj_style_gen.h **** #include "../misc/lv_style.h"
  19:../../Middlewares/LVGL/GUI/lvgl/src/indev/../core/lv_obj_style_gen.h **** #include "../core/lv_obj_style.h"
  20:../../Middlewares/LVGL/GUI/lvgl/src/indev/../core/lv_obj_style_gen.h **** #include "../misc/lv_types.h"
  21:../../Middlewares/LVGL/GUI/lvgl/src/indev/../core/lv_obj_style_gen.h **** 
  22:../../Middlewares/LVGL/GUI/lvgl/src/indev/../core/lv_obj_style_gen.h **** static inline int32_t lv_obj_get_style_width(const lv_obj_t * obj, lv_part_t part)
  23:../../Middlewares/LVGL/GUI/lvgl/src/indev/../core/lv_obj_style_gen.h **** {
  24:../../Middlewares/LVGL/GUI/lvgl/src/indev/../core/lv_obj_style_gen.h ****     lv_style_value_t v = lv_obj_get_style_prop(obj, part, LV_STYLE_WIDTH);
  25:../../Middlewares/LVGL/GUI/lvgl/src/indev/../core/lv_obj_style_gen.h ****     return (int32_t)v.num;
  26:../../Middlewares/LVGL/GUI/lvgl/src/indev/../core/lv_obj_style_gen.h **** }
  27:../../Middlewares/LVGL/GUI/lvgl/src/indev/../core/lv_obj_style_gen.h **** 
  28:../../Middlewares/LVGL/GUI/lvgl/src/indev/../core/lv_obj_style_gen.h **** static inline int32_t lv_obj_get_style_min_width(const lv_obj_t * obj, lv_part_t part)
  29:../../Middlewares/LVGL/GUI/lvgl/src/indev/../core/lv_obj_style_gen.h **** {
  30:../../Middlewares/LVGL/GUI/lvgl/src/indev/../core/lv_obj_style_gen.h ****     lv_style_value_t v = lv_obj_get_style_prop(obj, part, LV_STYLE_MIN_WIDTH);
  31:../../Middlewares/LVGL/GUI/lvgl/src/indev/../core/lv_obj_style_gen.h ****     return (int32_t)v.num;
  32:../../Middlewares/LVGL/GUI/lvgl/src/indev/../core/lv_obj_style_gen.h **** }
  33:../../Middlewares/LVGL/GUI/lvgl/src/indev/../core/lv_obj_style_gen.h **** 
  34:../../Middlewares/LVGL/GUI/lvgl/src/indev/../core/lv_obj_style_gen.h **** static inline int32_t lv_obj_get_style_max_width(const lv_obj_t * obj, lv_part_t part)
  35:../../Middlewares/LVGL/GUI/lvgl/src/indev/../core/lv_obj_style_gen.h **** {
  36:../../Middlewares/LVGL/GUI/lvgl/src/indev/../core/lv_obj_style_gen.h ****     lv_style_value_t v = lv_obj_get_style_prop(obj, part, LV_STYLE_MAX_WIDTH);
  37:../../Middlewares/LVGL/GUI/lvgl/src/indev/../core/lv_obj_style_gen.h ****     return (int32_t)v.num;
  38:../../Middlewares/LVGL/GUI/lvgl/src/indev/../core/lv_obj_style_gen.h **** }
  39:../../Middlewares/LVGL/GUI/lvgl/src/indev/../core/lv_obj_style_gen.h **** 
  40:../../Middlewares/LVGL/GUI/lvgl/src/indev/../core/lv_obj_style_gen.h **** static inline int32_t lv_obj_get_style_height(const lv_obj_t * obj, lv_part_t part)
  41:../../Middlewares/LVGL/GUI/lvgl/src/indev/../core/lv_obj_style_gen.h **** {
ARM GAS  C:\Users\28576\AppData\Local\Temp\ccZznpky.s 			page 16


  42:../../Middlewares/LVGL/GUI/lvgl/src/indev/../core/lv_obj_style_gen.h ****     lv_style_value_t v = lv_obj_get_style_prop(obj, part, LV_STYLE_HEIGHT);
  43:../../Middlewares/LVGL/GUI/lvgl/src/indev/../core/lv_obj_style_gen.h ****     return (int32_t)v.num;
  44:../../Middlewares/LVGL/GUI/lvgl/src/indev/../core/lv_obj_style_gen.h **** }
  45:../../Middlewares/LVGL/GUI/lvgl/src/indev/../core/lv_obj_style_gen.h **** 
  46:../../Middlewares/LVGL/GUI/lvgl/src/indev/../core/lv_obj_style_gen.h **** static inline int32_t lv_obj_get_style_min_height(const lv_obj_t * obj, lv_part_t part)
  47:../../Middlewares/LVGL/GUI/lvgl/src/indev/../core/lv_obj_style_gen.h **** {
  48:../../Middlewares/LVGL/GUI/lvgl/src/indev/../core/lv_obj_style_gen.h ****     lv_style_value_t v = lv_obj_get_style_prop(obj, part, LV_STYLE_MIN_HEIGHT);
  49:../../Middlewares/LVGL/GUI/lvgl/src/indev/../core/lv_obj_style_gen.h ****     return (int32_t)v.num;
  50:../../Middlewares/LVGL/GUI/lvgl/src/indev/../core/lv_obj_style_gen.h **** }
  51:../../Middlewares/LVGL/GUI/lvgl/src/indev/../core/lv_obj_style_gen.h **** 
  52:../../Middlewares/LVGL/GUI/lvgl/src/indev/../core/lv_obj_style_gen.h **** static inline int32_t lv_obj_get_style_max_height(const lv_obj_t * obj, lv_part_t part)
  53:../../Middlewares/LVGL/GUI/lvgl/src/indev/../core/lv_obj_style_gen.h **** {
  54:../../Middlewares/LVGL/GUI/lvgl/src/indev/../core/lv_obj_style_gen.h ****     lv_style_value_t v = lv_obj_get_style_prop(obj, part, LV_STYLE_MAX_HEIGHT);
  55:../../Middlewares/LVGL/GUI/lvgl/src/indev/../core/lv_obj_style_gen.h ****     return (int32_t)v.num;
  56:../../Middlewares/LVGL/GUI/lvgl/src/indev/../core/lv_obj_style_gen.h **** }
  57:../../Middlewares/LVGL/GUI/lvgl/src/indev/../core/lv_obj_style_gen.h **** 
  58:../../Middlewares/LVGL/GUI/lvgl/src/indev/../core/lv_obj_style_gen.h **** static inline int32_t lv_obj_get_style_length(const lv_obj_t * obj, lv_part_t part)
  59:../../Middlewares/LVGL/GUI/lvgl/src/indev/../core/lv_obj_style_gen.h **** {
  60:../../Middlewares/LVGL/GUI/lvgl/src/indev/../core/lv_obj_style_gen.h ****     lv_style_value_t v = lv_obj_get_style_prop(obj, part, LV_STYLE_LENGTH);
  61:../../Middlewares/LVGL/GUI/lvgl/src/indev/../core/lv_obj_style_gen.h ****     return (int32_t)v.num;
  62:../../Middlewares/LVGL/GUI/lvgl/src/indev/../core/lv_obj_style_gen.h **** }
  63:../../Middlewares/LVGL/GUI/lvgl/src/indev/../core/lv_obj_style_gen.h **** 
  64:../../Middlewares/LVGL/GUI/lvgl/src/indev/../core/lv_obj_style_gen.h **** static inline int32_t lv_obj_get_style_x(const lv_obj_t * obj, lv_part_t part)
  65:../../Middlewares/LVGL/GUI/lvgl/src/indev/../core/lv_obj_style_gen.h **** {
  66:../../Middlewares/LVGL/GUI/lvgl/src/indev/../core/lv_obj_style_gen.h ****     lv_style_value_t v = lv_obj_get_style_prop(obj, part, LV_STYLE_X);
  67:../../Middlewares/LVGL/GUI/lvgl/src/indev/../core/lv_obj_style_gen.h ****     return (int32_t)v.num;
  68:../../Middlewares/LVGL/GUI/lvgl/src/indev/../core/lv_obj_style_gen.h **** }
  69:../../Middlewares/LVGL/GUI/lvgl/src/indev/../core/lv_obj_style_gen.h **** 
  70:../../Middlewares/LVGL/GUI/lvgl/src/indev/../core/lv_obj_style_gen.h **** static inline int32_t lv_obj_get_style_y(const lv_obj_t * obj, lv_part_t part)
  71:../../Middlewares/LVGL/GUI/lvgl/src/indev/../core/lv_obj_style_gen.h **** {
  72:../../Middlewares/LVGL/GUI/lvgl/src/indev/../core/lv_obj_style_gen.h ****     lv_style_value_t v = lv_obj_get_style_prop(obj, part, LV_STYLE_Y);
  73:../../Middlewares/LVGL/GUI/lvgl/src/indev/../core/lv_obj_style_gen.h ****     return (int32_t)v.num;
  74:../../Middlewares/LVGL/GUI/lvgl/src/indev/../core/lv_obj_style_gen.h **** }
  75:../../Middlewares/LVGL/GUI/lvgl/src/indev/../core/lv_obj_style_gen.h **** 
  76:../../Middlewares/LVGL/GUI/lvgl/src/indev/../core/lv_obj_style_gen.h **** static inline lv_align_t lv_obj_get_style_align(const lv_obj_t * obj, lv_part_t part)
  77:../../Middlewares/LVGL/GUI/lvgl/src/indev/../core/lv_obj_style_gen.h **** {
  78:../../Middlewares/LVGL/GUI/lvgl/src/indev/../core/lv_obj_style_gen.h ****     lv_style_value_t v = lv_obj_get_style_prop(obj, part, LV_STYLE_ALIGN);
  79:../../Middlewares/LVGL/GUI/lvgl/src/indev/../core/lv_obj_style_gen.h ****     return (lv_align_t)v.num;
  80:../../Middlewares/LVGL/GUI/lvgl/src/indev/../core/lv_obj_style_gen.h **** }
  81:../../Middlewares/LVGL/GUI/lvgl/src/indev/../core/lv_obj_style_gen.h **** 
  82:../../Middlewares/LVGL/GUI/lvgl/src/indev/../core/lv_obj_style_gen.h **** static inline int32_t lv_obj_get_style_transform_width(const lv_obj_t * obj, lv_part_t part)
  83:../../Middlewares/LVGL/GUI/lvgl/src/indev/../core/lv_obj_style_gen.h **** {
  84:../../Middlewares/LVGL/GUI/lvgl/src/indev/../core/lv_obj_style_gen.h ****     lv_style_value_t v = lv_obj_get_style_prop(obj, part, LV_STYLE_TRANSFORM_WIDTH);
  85:../../Middlewares/LVGL/GUI/lvgl/src/indev/../core/lv_obj_style_gen.h ****     return (int32_t)v.num;
  86:../../Middlewares/LVGL/GUI/lvgl/src/indev/../core/lv_obj_style_gen.h **** }
  87:../../Middlewares/LVGL/GUI/lvgl/src/indev/../core/lv_obj_style_gen.h **** 
  88:../../Middlewares/LVGL/GUI/lvgl/src/indev/../core/lv_obj_style_gen.h **** static inline int32_t lv_obj_get_style_transform_height(const lv_obj_t * obj, lv_part_t part)
  89:../../Middlewares/LVGL/GUI/lvgl/src/indev/../core/lv_obj_style_gen.h **** {
  90:../../Middlewares/LVGL/GUI/lvgl/src/indev/../core/lv_obj_style_gen.h ****     lv_style_value_t v = lv_obj_get_style_prop(obj, part, LV_STYLE_TRANSFORM_HEIGHT);
  91:../../Middlewares/LVGL/GUI/lvgl/src/indev/../core/lv_obj_style_gen.h ****     return (int32_t)v.num;
  92:../../Middlewares/LVGL/GUI/lvgl/src/indev/../core/lv_obj_style_gen.h **** }
  93:../../Middlewares/LVGL/GUI/lvgl/src/indev/../core/lv_obj_style_gen.h **** 
  94:../../Middlewares/LVGL/GUI/lvgl/src/indev/../core/lv_obj_style_gen.h **** static inline int32_t lv_obj_get_style_translate_x(const lv_obj_t * obj, lv_part_t part)
  95:../../Middlewares/LVGL/GUI/lvgl/src/indev/../core/lv_obj_style_gen.h **** {
  96:../../Middlewares/LVGL/GUI/lvgl/src/indev/../core/lv_obj_style_gen.h ****     lv_style_value_t v = lv_obj_get_style_prop(obj, part, LV_STYLE_TRANSLATE_X);
  97:../../Middlewares/LVGL/GUI/lvgl/src/indev/../core/lv_obj_style_gen.h ****     return (int32_t)v.num;
  98:../../Middlewares/LVGL/GUI/lvgl/src/indev/../core/lv_obj_style_gen.h **** }
ARM GAS  C:\Users\28576\AppData\Local\Temp\ccZznpky.s 			page 17


  99:../../Middlewares/LVGL/GUI/lvgl/src/indev/../core/lv_obj_style_gen.h **** 
 100:../../Middlewares/LVGL/GUI/lvgl/src/indev/../core/lv_obj_style_gen.h **** static inline int32_t lv_obj_get_style_translate_y(const lv_obj_t * obj, lv_part_t part)
 101:../../Middlewares/LVGL/GUI/lvgl/src/indev/../core/lv_obj_style_gen.h **** {
 102:../../Middlewares/LVGL/GUI/lvgl/src/indev/../core/lv_obj_style_gen.h ****     lv_style_value_t v = lv_obj_get_style_prop(obj, part, LV_STYLE_TRANSLATE_Y);
 103:../../Middlewares/LVGL/GUI/lvgl/src/indev/../core/lv_obj_style_gen.h ****     return (int32_t)v.num;
 104:../../Middlewares/LVGL/GUI/lvgl/src/indev/../core/lv_obj_style_gen.h **** }
 105:../../Middlewares/LVGL/GUI/lvgl/src/indev/../core/lv_obj_style_gen.h **** 
 106:../../Middlewares/LVGL/GUI/lvgl/src/indev/../core/lv_obj_style_gen.h **** static inline int32_t lv_obj_get_style_translate_radial(const lv_obj_t * obj, lv_part_t part)
 107:../../Middlewares/LVGL/GUI/lvgl/src/indev/../core/lv_obj_style_gen.h **** {
 108:../../Middlewares/LVGL/GUI/lvgl/src/indev/../core/lv_obj_style_gen.h ****     lv_style_value_t v = lv_obj_get_style_prop(obj, part, LV_STYLE_TRANSLATE_RADIAL);
 109:../../Middlewares/LVGL/GUI/lvgl/src/indev/../core/lv_obj_style_gen.h ****     return (int32_t)v.num;
 110:../../Middlewares/LVGL/GUI/lvgl/src/indev/../core/lv_obj_style_gen.h **** }
 111:../../Middlewares/LVGL/GUI/lvgl/src/indev/../core/lv_obj_style_gen.h **** 
 112:../../Middlewares/LVGL/GUI/lvgl/src/indev/../core/lv_obj_style_gen.h **** static inline int32_t lv_obj_get_style_transform_scale_x(const lv_obj_t * obj, lv_part_t part)
 113:../../Middlewares/LVGL/GUI/lvgl/src/indev/../core/lv_obj_style_gen.h **** {
 114:../../Middlewares/LVGL/GUI/lvgl/src/indev/../core/lv_obj_style_gen.h ****     lv_style_value_t v = lv_obj_get_style_prop(obj, part, LV_STYLE_TRANSFORM_SCALE_X);
 115:../../Middlewares/LVGL/GUI/lvgl/src/indev/../core/lv_obj_style_gen.h ****     return (int32_t)v.num;
 116:../../Middlewares/LVGL/GUI/lvgl/src/indev/../core/lv_obj_style_gen.h **** }
 117:../../Middlewares/LVGL/GUI/lvgl/src/indev/../core/lv_obj_style_gen.h **** 
 118:../../Middlewares/LVGL/GUI/lvgl/src/indev/../core/lv_obj_style_gen.h **** static inline int32_t lv_obj_get_style_transform_scale_y(const lv_obj_t * obj, lv_part_t part)
 119:../../Middlewares/LVGL/GUI/lvgl/src/indev/../core/lv_obj_style_gen.h **** {
 120:../../Middlewares/LVGL/GUI/lvgl/src/indev/../core/lv_obj_style_gen.h ****     lv_style_value_t v = lv_obj_get_style_prop(obj, part, LV_STYLE_TRANSFORM_SCALE_Y);
 121:../../Middlewares/LVGL/GUI/lvgl/src/indev/../core/lv_obj_style_gen.h ****     return (int32_t)v.num;
 122:../../Middlewares/LVGL/GUI/lvgl/src/indev/../core/lv_obj_style_gen.h **** }
 123:../../Middlewares/LVGL/GUI/lvgl/src/indev/../core/lv_obj_style_gen.h **** 
 124:../../Middlewares/LVGL/GUI/lvgl/src/indev/../core/lv_obj_style_gen.h **** static inline int32_t lv_obj_get_style_transform_rotation(const lv_obj_t * obj, lv_part_t part)
 125:../../Middlewares/LVGL/GUI/lvgl/src/indev/../core/lv_obj_style_gen.h **** {
 126:../../Middlewares/LVGL/GUI/lvgl/src/indev/../core/lv_obj_style_gen.h ****     lv_style_value_t v = lv_obj_get_style_prop(obj, part, LV_STYLE_TRANSFORM_ROTATION);
 127:../../Middlewares/LVGL/GUI/lvgl/src/indev/../core/lv_obj_style_gen.h ****     return (int32_t)v.num;
 128:../../Middlewares/LVGL/GUI/lvgl/src/indev/../core/lv_obj_style_gen.h **** }
 129:../../Middlewares/LVGL/GUI/lvgl/src/indev/../core/lv_obj_style_gen.h **** 
 130:../../Middlewares/LVGL/GUI/lvgl/src/indev/../core/lv_obj_style_gen.h **** static inline int32_t lv_obj_get_style_transform_pivot_x(const lv_obj_t * obj, lv_part_t part)
 131:../../Middlewares/LVGL/GUI/lvgl/src/indev/../core/lv_obj_style_gen.h **** {
 132:../../Middlewares/LVGL/GUI/lvgl/src/indev/../core/lv_obj_style_gen.h ****     lv_style_value_t v = lv_obj_get_style_prop(obj, part, LV_STYLE_TRANSFORM_PIVOT_X);
 133:../../Middlewares/LVGL/GUI/lvgl/src/indev/../core/lv_obj_style_gen.h ****     return (int32_t)v.num;
 134:../../Middlewares/LVGL/GUI/lvgl/src/indev/../core/lv_obj_style_gen.h **** }
 135:../../Middlewares/LVGL/GUI/lvgl/src/indev/../core/lv_obj_style_gen.h **** 
 136:../../Middlewares/LVGL/GUI/lvgl/src/indev/../core/lv_obj_style_gen.h **** static inline int32_t lv_obj_get_style_transform_pivot_y(const lv_obj_t * obj, lv_part_t part)
 137:../../Middlewares/LVGL/GUI/lvgl/src/indev/../core/lv_obj_style_gen.h **** {
 138:../../Middlewares/LVGL/GUI/lvgl/src/indev/../core/lv_obj_style_gen.h ****     lv_style_value_t v = lv_obj_get_style_prop(obj, part, LV_STYLE_TRANSFORM_PIVOT_Y);
 139:../../Middlewares/LVGL/GUI/lvgl/src/indev/../core/lv_obj_style_gen.h ****     return (int32_t)v.num;
 140:../../Middlewares/LVGL/GUI/lvgl/src/indev/../core/lv_obj_style_gen.h **** }
 141:../../Middlewares/LVGL/GUI/lvgl/src/indev/../core/lv_obj_style_gen.h **** 
 142:../../Middlewares/LVGL/GUI/lvgl/src/indev/../core/lv_obj_style_gen.h **** static inline int32_t lv_obj_get_style_transform_skew_x(const lv_obj_t * obj, lv_part_t part)
 143:../../Middlewares/LVGL/GUI/lvgl/src/indev/../core/lv_obj_style_gen.h **** {
 144:../../Middlewares/LVGL/GUI/lvgl/src/indev/../core/lv_obj_style_gen.h ****     lv_style_value_t v = lv_obj_get_style_prop(obj, part, LV_STYLE_TRANSFORM_SKEW_X);
 145:../../Middlewares/LVGL/GUI/lvgl/src/indev/../core/lv_obj_style_gen.h ****     return (int32_t)v.num;
 146:../../Middlewares/LVGL/GUI/lvgl/src/indev/../core/lv_obj_style_gen.h **** }
 147:../../Middlewares/LVGL/GUI/lvgl/src/indev/../core/lv_obj_style_gen.h **** 
 148:../../Middlewares/LVGL/GUI/lvgl/src/indev/../core/lv_obj_style_gen.h **** static inline int32_t lv_obj_get_style_transform_skew_y(const lv_obj_t * obj, lv_part_t part)
 149:../../Middlewares/LVGL/GUI/lvgl/src/indev/../core/lv_obj_style_gen.h **** {
 150:../../Middlewares/LVGL/GUI/lvgl/src/indev/../core/lv_obj_style_gen.h ****     lv_style_value_t v = lv_obj_get_style_prop(obj, part, LV_STYLE_TRANSFORM_SKEW_Y);
 151:../../Middlewares/LVGL/GUI/lvgl/src/indev/../core/lv_obj_style_gen.h ****     return (int32_t)v.num;
 152:../../Middlewares/LVGL/GUI/lvgl/src/indev/../core/lv_obj_style_gen.h **** }
 153:../../Middlewares/LVGL/GUI/lvgl/src/indev/../core/lv_obj_style_gen.h **** 
 154:../../Middlewares/LVGL/GUI/lvgl/src/indev/../core/lv_obj_style_gen.h **** static inline int32_t lv_obj_get_style_pad_top(const lv_obj_t * obj, lv_part_t part)
 171              		.loc 2 154 23 view .LVU51
ARM GAS  C:\Users\28576\AppData\Local\Temp\ccZznpky.s 			page 18


 172              	.LBB69:
 155:../../Middlewares/LVGL/GUI/lvgl/src/indev/../core/lv_obj_style_gen.h **** {
 156:../../Middlewares/LVGL/GUI/lvgl/src/indev/../core/lv_obj_style_gen.h ****     lv_style_value_t v = lv_obj_get_style_prop(obj, part, LV_STYLE_PAD_TOP);
 173              		.loc 2 156 5 view .LVU52
 174              		.loc 2 156 26 is_stmt 0 view .LVU53
 175 001a 1022     		movs	r2, #16
 176 001c 0021     		movs	r1, #0
 177 001e 3046     		mov	r0, r6
 178              	.LVL6:
 179              		.loc 2 156 26 view .LVU54
 180 0020 FFF7FEFF 		bl	lv_obj_get_style_prop
 181              	.LVL7:
 182 0024 0190     		str	r0, [sp, #4]
 183 0026 0590     		str	r0, [sp, #20]
 157:../../Middlewares/LVGL/GUI/lvgl/src/indev/../core/lv_obj_style_gen.h ****     return (int32_t)v.num;
 184              		.loc 2 157 5 is_stmt 1 view .LVU55
 185              	.LVL8:
 186              		.loc 2 157 5 is_stmt 0 view .LVU56
 187              	.LBE69:
 188              	.LBE68:
 580:../../Middlewares/LVGL/GUI/lvgl/src/indev/lv_indev_scroll.c **** 
 189              		.loc 1 580 5 is_stmt 1 view .LVU57
 190              	.LBB70:
 191              	.LBI70:
 158:../../Middlewares/LVGL/GUI/lvgl/src/indev/../core/lv_obj_style_gen.h **** }
 159:../../Middlewares/LVGL/GUI/lvgl/src/indev/../core/lv_obj_style_gen.h **** 
 160:../../Middlewares/LVGL/GUI/lvgl/src/indev/../core/lv_obj_style_gen.h **** static inline int32_t lv_obj_get_style_pad_bottom(const lv_obj_t * obj, lv_part_t part)
 192              		.loc 2 160 23 view .LVU58
 193              	.LBB71:
 161:../../Middlewares/LVGL/GUI/lvgl/src/indev/../core/lv_obj_style_gen.h **** {
 162:../../Middlewares/LVGL/GUI/lvgl/src/indev/../core/lv_obj_style_gen.h ****     lv_style_value_t v = lv_obj_get_style_prop(obj, part, LV_STYLE_PAD_BOTTOM);
 194              		.loc 2 162 5 view .LVU59
 195              		.loc 2 162 26 is_stmt 0 view .LVU60
 196 0028 1122     		movs	r2, #17
 197 002a 0021     		movs	r1, #0
 198 002c 3046     		mov	r0, r6
 199              	.LVL9:
 200              		.loc 2 162 26 view .LVU61
 201 002e FFF7FEFF 		bl	lv_obj_get_style_prop
 202              	.LVL10:
 203 0032 0290     		str	r0, [sp, #8]
 204 0034 0590     		str	r0, [sp, #20]
 163:../../Middlewares/LVGL/GUI/lvgl/src/indev/../core/lv_obj_style_gen.h ****     return (int32_t)v.num;
 205              		.loc 2 163 5 is_stmt 1 view .LVU62
 206              	.LVL11:
 207              		.loc 2 163 5 is_stmt 0 view .LVU63
 208              	.LBE71:
 209              	.LBE70:
 582:../../Middlewares/LVGL/GUI/lvgl/src/indev/lv_indev_scroll.c ****     uint32_t child_cnt = lv_obj_get_child_count(obj);
 210              		.loc 1 582 5 is_stmt 1 view .LVU64
 583:../../Middlewares/LVGL/GUI/lvgl/src/indev/lv_indev_scroll.c ****     for(i = 0; i < child_cnt; i++) {
 211              		.loc 1 583 5 view .LVU65
 583:../../Middlewares/LVGL/GUI/lvgl/src/indev/lv_indev_scroll.c ****     for(i = 0; i < child_cnt; i++) {
 212              		.loc 1 583 26 is_stmt 0 view .LVU66
 213 0036 3046     		mov	r0, r6
 214              	.LVL12:
 583:../../Middlewares/LVGL/GUI/lvgl/src/indev/lv_indev_scroll.c ****     for(i = 0; i < child_cnt; i++) {
ARM GAS  C:\Users\28576\AppData\Local\Temp\ccZznpky.s 			page 19


 215              		.loc 1 583 26 view .LVU67
 216 0038 FFF7FEFF 		bl	lv_obj_get_child_count
 217              	.LVL13:
 583:../../Middlewares/LVGL/GUI/lvgl/src/indev/lv_indev_scroll.c ****     for(i = 0; i < child_cnt; i++) {
 218              		.loc 1 583 26 view .LVU68
 219 003c 0746     		mov	r7, r0
 220              	.LVL14:
 584:../../Middlewares/LVGL/GUI/lvgl/src/indev/lv_indev_scroll.c ****         lv_obj_t * child = obj->spec_attr->children[i];
 221              		.loc 1 584 5 is_stmt 1 view .LVU69
 584:../../Middlewares/LVGL/GUI/lvgl/src/indev/lv_indev_scroll.c ****         lv_obj_t * child = obj->spec_attr->children[i];
 222              		.loc 1 584 11 is_stmt 0 view .LVU70
 223 003e 0024     		movs	r4, #0
 577:../../Middlewares/LVGL/GUI/lvgl/src/indev/lv_indev_scroll.c **** 
 224              		.loc 1 577 13 view .LVU71
 225 0040 6FF06042 		mvn	r2, #-536870912
 226 0044 9146     		mov	r9, r2
 584:../../Middlewares/LVGL/GUI/lvgl/src/indev/lv_indev_scroll.c ****         lv_obj_t * child = obj->spec_attr->children[i];
 227              		.loc 1 584 5 view .LVU72
 228 0046 25E0     		b	.L9
 229              	.LVL15:
 230              	.L11:
 231              	.LBB72:
 232              	.LBB73:
 596:../../Middlewares/LVGL/GUI/lvgl/src/indev/lv_indev_scroll.c ****                     y_parent = obj->coords.y2 - pad_bottom;
 233              		.loc 1 596 21 is_stmt 1 view .LVU73
 596:../../Middlewares/LVGL/GUI/lvgl/src/indev/lv_indev_scroll.c ****                     y_parent = obj->coords.y2 - pad_bottom;
 234              		.loc 1 596 29 is_stmt 0 view .LVU74
 235 0048 2D6A     		ldr	r5, [r5, #32]
 236              	.LVL16:
 597:../../Middlewares/LVGL/GUI/lvgl/src/indev/lv_indev_scroll.c ****                     break;
 237              		.loc 1 597 21 is_stmt 1 view .LVU75
 597:../../Middlewares/LVGL/GUI/lvgl/src/indev/lv_indev_scroll.c ****                     break;
 238              		.loc 1 597 43 is_stmt 0 view .LVU76
 239 004a 336A     		ldr	r3, [r6, #32]
 597:../../Middlewares/LVGL/GUI/lvgl/src/indev/lv_indev_scroll.c ****                     break;
 240              		.loc 1 597 30 view .LVU77
 241 004c 029A     		ldr	r2, [sp, #8]
 242 004e 9B1A     		subs	r3, r3, r2
 243              	.LVL17:
 598:../../Middlewares/LVGL/GUI/lvgl/src/indev/lv_indev_scroll.c ****                 case LV_SCROLL_SNAP_CENTER:
 244              		.loc 1 598 21 is_stmt 1 view .LVU78
 245 0050 40E0     		b	.L13
 246              	.LVL18:
 247              	.L12:
 600:../../Middlewares/LVGL/GUI/lvgl/src/indev/lv_indev_scroll.c ****                     y_parent = obj->coords.y1 + pad_top + (lv_area_get_height(&obj->coords) - pad_t
 248              		.loc 1 600 21 view .LVU79
 600:../../Middlewares/LVGL/GUI/lvgl/src/indev/lv_indev_scroll.c ****                     y_parent = obj->coords.y1 + pad_top + (lv_area_get_height(&obj->coords) - pad_t
 249              		.loc 1 600 44 is_stmt 0 view .LVU80
 250 0052 AB69     		ldr	r3, [r5, #24]
 251 0054 0393     		str	r3, [sp, #12]
 600:../../Middlewares/LVGL/GUI/lvgl/src/indev/lv_indev_scroll.c ****                     y_parent = obj->coords.y1 + pad_top + (lv_area_get_height(&obj->coords) - pad_t
 252              		.loc 1 600 50 view .LVU81
 253 0056 05F11400 		add	r0, r5, #20
 254 005a FFF7FEFF 		bl	lv_area_get_height
 255              	.LVL19:
 600:../../Middlewares/LVGL/GUI/lvgl/src/indev/lv_indev_scroll.c ****                     y_parent = obj->coords.y1 + pad_top + (lv_area_get_height(&obj->coords) - pad_t
 256              		.loc 1 600 85 discriminator 1 view .LVU82
ARM GAS  C:\Users\28576\AppData\Local\Temp\ccZznpky.s 			page 20


 257 005e 0028     		cmp	r0, #0
 258 0060 13DB     		blt	.L20
 259              	.L14:
 600:../../Middlewares/LVGL/GUI/lvgl/src/indev/lv_indev_scroll.c ****                     y_parent = obj->coords.y1 + pad_top + (lv_area_get_height(&obj->coords) - pad_t
 260              		.loc 1 600 29 discriminator 1 view .LVU83
 261 0062 039B     		ldr	r3, [sp, #12]
 262 0064 03EB6005 		add	r5, r3, r0, asr #1
 263              	.LVL20:
 601:../../Middlewares/LVGL/GUI/lvgl/src/indev/lv_indev_scroll.c ****                     break;
 264              		.loc 1 601 21 is_stmt 1 view .LVU84
 601:../../Middlewares/LVGL/GUI/lvgl/src/indev/lv_indev_scroll.c ****                     break;
 265              		.loc 1 601 43 is_stmt 0 view .LVU85
 266 0068 B369     		ldr	r3, [r6, #24]
 601:../../Middlewares/LVGL/GUI/lvgl/src/indev/lv_indev_scroll.c ****                     break;
 267              		.loc 1 601 47 view .LVU86
 268 006a 019A     		ldr	r2, [sp, #4]
 269 006c 1344     		add	r3, r3, r2
 270 006e 0393     		str	r3, [sp, #12]
 601:../../Middlewares/LVGL/GUI/lvgl/src/indev/lv_indev_scroll.c ****                     break;
 271              		.loc 1 601 60 view .LVU87
 272 0070 06F11400 		add	r0, r6, #20
 273 0074 FFF7FEFF 		bl	lv_area_get_height
 274              	.LVL21:
 601:../../Middlewares/LVGL/GUI/lvgl/src/indev/lv_indev_scroll.c ****                     break;
 275              		.loc 1 601 93 discriminator 1 view .LVU88
 276 0078 019A     		ldr	r2, [sp, #4]
 277 007a 801A     		subs	r0, r0, r2
 601:../../Middlewares/LVGL/GUI/lvgl/src/indev/lv_indev_scroll.c ****                     break;
 278              		.loc 1 601 117 discriminator 1 view .LVU89
 279 007c 029B     		ldr	r3, [sp, #8]
 280 007e C01A     		subs	r0, r0, r3
 281 0080 05D4     		bmi	.L21
 282              	.L15:
 601:../../Middlewares/LVGL/GUI/lvgl/src/indev/lv_indev_scroll.c ****                     break;
 283              		.loc 1 601 30 discriminator 1 view .LVU90
 284 0082 039B     		ldr	r3, [sp, #12]
 285 0084 03EB6003 		add	r3, r3, r0, asr #1
 286              	.LVL22:
 602:../../Middlewares/LVGL/GUI/lvgl/src/indev/lv_indev_scroll.c ****                 default:
 287              		.loc 1 602 21 is_stmt 1 view .LVU91
 288 0088 24E0     		b	.L13
 289              	.LVL23:
 290              	.L20:
 600:../../Middlewares/LVGL/GUI/lvgl/src/indev/lv_indev_scroll.c ****                     y_parent = obj->coords.y1 + pad_top + (lv_area_get_height(&obj->coords) - pad_t
 291              		.loc 1 600 85 is_stmt 0 discriminator 1 view .LVU92
 292 008a 0130     		adds	r0, r0, #1
 293 008c E9E7     		b	.L14
 294              	.LVL24:
 295              	.L21:
 601:../../Middlewares/LVGL/GUI/lvgl/src/indev/lv_indev_scroll.c ****                     break;
 296              		.loc 1 601 117 discriminator 1 view .LVU93
 297 008e 0130     		adds	r0, r0, #1
 298 0090 F7E7     		b	.L15
 299              	.LVL25:
 300              	.L10:
 601:../../Middlewares/LVGL/GUI/lvgl/src/indev/lv_indev_scroll.c ****                     break;
 301              		.loc 1 601 117 discriminator 1 view .LVU94
ARM GAS  C:\Users\28576\AppData\Local\Temp\ccZznpky.s 			page 21


 302              	.LBE73:
 303              	.LBE72:
 584:../../Middlewares/LVGL/GUI/lvgl/src/indev/lv_indev_scroll.c ****         lv_obj_t * child = obj->spec_attr->children[i];
 304              		.loc 1 584 32 is_stmt 1 discriminator 2 view .LVU95
 305 0092 0134     		adds	r4, r4, #1
 306              	.LVL26:
 307              	.L9:
 584:../../Middlewares/LVGL/GUI/lvgl/src/indev/lv_indev_scroll.c ****         lv_obj_t * child = obj->spec_attr->children[i];
 308              		.loc 1 584 18 discriminator 1 view .LVU96
 309 0094 BC42     		cmp	r4, r7
 310 0096 36D2     		bcs	.L22
 311              	.LBB76:
 585:../../Middlewares/LVGL/GUI/lvgl/src/indev/lv_indev_scroll.c ****         if(lv_obj_has_flag_any(child, LV_OBJ_FLAG_HIDDEN | LV_OBJ_FLAG_FLOATING)) continue;
 312              		.loc 1 585 9 view .LVU97
 585:../../Middlewares/LVGL/GUI/lvgl/src/indev/lv_indev_scroll.c ****         if(lv_obj_has_flag_any(child, LV_OBJ_FLAG_HIDDEN | LV_OBJ_FLAG_FLOATING)) continue;
 313              		.loc 1 585 31 is_stmt 0 view .LVU98
 314 0098 B368     		ldr	r3, [r6, #8]
 585:../../Middlewares/LVGL/GUI/lvgl/src/indev/lv_indev_scroll.c ****         if(lv_obj_has_flag_any(child, LV_OBJ_FLAG_HIDDEN | LV_OBJ_FLAG_FLOATING)) continue;
 315              		.loc 1 585 42 view .LVU99
 316 009a 1B68     		ldr	r3, [r3]
 585:../../Middlewares/LVGL/GUI/lvgl/src/indev/lv_indev_scroll.c ****         if(lv_obj_has_flag_any(child, LV_OBJ_FLAG_HIDDEN | LV_OBJ_FLAG_FLOATING)) continue;
 317              		.loc 1 585 20 view .LVU100
 318 009c 53F82450 		ldr	r5, [r3, r4, lsl #2]
 319              	.LVL27:
 586:../../Middlewares/LVGL/GUI/lvgl/src/indev/lv_indev_scroll.c ****         if(lv_obj_has_flag(child, LV_OBJ_FLAG_SNAPPABLE)) {
 320              		.loc 1 586 9 is_stmt 1 view .LVU101
 586:../../Middlewares/LVGL/GUI/lvgl/src/indev/lv_indev_scroll.c ****         if(lv_obj_has_flag(child, LV_OBJ_FLAG_SNAPPABLE)) {
 321              		.loc 1 586 12 is_stmt 0 view .LVU102
 322 00a0 1F49     		ldr	r1, .L23
 323 00a2 2846     		mov	r0, r5
 324 00a4 FFF7FEFF 		bl	lv_obj_has_flag_any
 325              	.LVL28:
 586:../../Middlewares/LVGL/GUI/lvgl/src/indev/lv_indev_scroll.c ****         if(lv_obj_has_flag(child, LV_OBJ_FLAG_SNAPPABLE)) {
 326              		.loc 1 586 11 discriminator 1 view .LVU103
 327 00a8 0028     		cmp	r0, #0
 328 00aa F2D1     		bne	.L10
 587:../../Middlewares/LVGL/GUI/lvgl/src/indev/lv_indev_scroll.c ****             int32_t y_child = 0;
 329              		.loc 1 587 9 is_stmt 1 view .LVU104
 587:../../Middlewares/LVGL/GUI/lvgl/src/indev/lv_indev_scroll.c ****             int32_t y_child = 0;
 330              		.loc 1 587 12 is_stmt 0 view .LVU105
 331 00ac 4FF48051 		mov	r1, #4096
 332 00b0 2846     		mov	r0, r5
 333 00b2 FFF7FEFF 		bl	lv_obj_has_flag
 334              	.LVL29:
 587:../../Middlewares/LVGL/GUI/lvgl/src/indev/lv_indev_scroll.c ****             int32_t y_child = 0;
 335              		.loc 1 587 11 discriminator 1 view .LVU106
 336 00b6 0028     		cmp	r0, #0
 337 00b8 EBD0     		beq	.L10
 338              	.LBB75:
 588:../../Middlewares/LVGL/GUI/lvgl/src/indev/lv_indev_scroll.c ****             int32_t y_parent = 0;
 339              		.loc 1 588 13 is_stmt 1 view .LVU107
 340              	.LVL30:
 589:../../Middlewares/LVGL/GUI/lvgl/src/indev/lv_indev_scroll.c ****             switch(align) {
 341              		.loc 1 589 13 view .LVU108
 590:../../Middlewares/LVGL/GUI/lvgl/src/indev/lv_indev_scroll.c ****                 case LV_SCROLL_SNAP_START:
 342              		.loc 1 590 13 view .LVU109
 343 00ba B8F1020F 		cmp	r8, #2
ARM GAS  C:\Users\28576\AppData\Local\Temp\ccZznpky.s 			page 22


 344 00be C3D0     		beq	.L11
 345 00c0 B8F1030F 		cmp	r8, #3
 346 00c4 C5D0     		beq	.L12
 347 00c6 B8F1010F 		cmp	r8, #1
 348 00ca E2D1     		bne	.L10
 592:../../Middlewares/LVGL/GUI/lvgl/src/indev/lv_indev_scroll.c ****                     y_parent = obj->coords.y1 + pad_top;
 349              		.loc 1 592 21 view .LVU110
 592:../../Middlewares/LVGL/GUI/lvgl/src/indev/lv_indev_scroll.c ****                     y_parent = obj->coords.y1 + pad_top;
 350              		.loc 1 592 29 is_stmt 0 view .LVU111
 351 00cc AD69     		ldr	r5, [r5, #24]
 352              	.LVL31:
 593:../../Middlewares/LVGL/GUI/lvgl/src/indev/lv_indev_scroll.c ****                     break;
 353              		.loc 1 593 21 is_stmt 1 view .LVU112
 593:../../Middlewares/LVGL/GUI/lvgl/src/indev/lv_indev_scroll.c ****                     break;
 354              		.loc 1 593 43 is_stmt 0 view .LVU113
 355 00ce B369     		ldr	r3, [r6, #24]
 593:../../Middlewares/LVGL/GUI/lvgl/src/indev/lv_indev_scroll.c ****                     break;
 356              		.loc 1 593 30 view .LVU114
 357 00d0 019A     		ldr	r2, [sp, #4]
 358 00d2 1344     		add	r3, r3, r2
 359              	.LVL32:
 594:../../Middlewares/LVGL/GUI/lvgl/src/indev/lv_indev_scroll.c ****                 case LV_SCROLL_SNAP_END:
 360              		.loc 1 594 21 is_stmt 1 view .LVU115
 361              	.L13:
 607:../../Middlewares/LVGL/GUI/lvgl/src/indev/lv_indev_scroll.c ****             if(y_child >= min && y_child <= max) {
 362              		.loc 1 607 13 view .LVU116
 607:../../Middlewares/LVGL/GUI/lvgl/src/indev/lv_indev_scroll.c ****             if(y_child >= min && y_child <= max) {
 363              		.loc 1 607 21 is_stmt 0 view .LVU117
 364 00d4 009A     		ldr	r2, [sp]
 365 00d6 1544     		add	r5, r5, r2
 366              	.LVL33:
 608:../../Middlewares/LVGL/GUI/lvgl/src/indev/lv_indev_scroll.c ****                 int32_t y = y_child -  y_parent;
 367              		.loc 1 608 13 is_stmt 1 view .LVU118
 608:../../Middlewares/LVGL/GUI/lvgl/src/indev/lv_indev_scroll.c ****                 int32_t y = y_child -  y_parent;
 368              		.loc 1 608 31 is_stmt 0 view .LVU119
 369 00d8 5246     		mov	r2, r10
 370 00da 5545     		cmp	r5, r10
 371 00dc B4BF     		ite	lt
 372 00de 0022     		movlt	r2, #0
 373 00e0 0122     		movge	r2, #1
 374 00e2 5D45     		cmp	r5, fp
 375 00e4 C8BF     		it	gt
 376 00e6 0022     		movgt	r2, #0
 608:../../Middlewares/LVGL/GUI/lvgl/src/indev/lv_indev_scroll.c ****                 int32_t y = y_child -  y_parent;
 377              		.loc 1 608 15 view .LVU120
 378 00e8 002A     		cmp	r2, #0
 379 00ea D2D0     		beq	.L10
 380              	.LBB74:
 609:../../Middlewares/LVGL/GUI/lvgl/src/indev/lv_indev_scroll.c ****                 if(LV_ABS(y) < LV_ABS(dist)) dist = y;
 381              		.loc 1 609 17 is_stmt 1 view .LVU121
 609:../../Middlewares/LVGL/GUI/lvgl/src/indev/lv_indev_scroll.c ****                 if(LV_ABS(y) < LV_ABS(dist)) dist = y;
 382              		.loc 1 609 25 is_stmt 0 view .LVU122
 383 00ec ED1A     		subs	r5, r5, r3
 384              	.LVL34:
 610:../../Middlewares/LVGL/GUI/lvgl/src/indev/lv_indev_scroll.c ****             }
 385              		.loc 1 610 17 is_stmt 1 view .LVU123
 610:../../Middlewares/LVGL/GUI/lvgl/src/indev/lv_indev_scroll.c ****             }
ARM GAS  C:\Users\28576\AppData\Local\Temp\ccZznpky.s 			page 23


 386              		.loc 1 610 20 is_stmt 0 view .LVU124
 387 00ee 85EAE572 		eor	r2, r5, r5, asr #31
 388 00f2 A2EBE572 		sub	r2, r2, r5, asr #31
 610:../../Middlewares/LVGL/GUI/lvgl/src/indev/lv_indev_scroll.c ****             }
 389              		.loc 1 610 32 view .LVU125
 390 00f6 89EAE973 		eor	r3, r9, r9, asr #31
 391              	.LVL35:
 610:../../Middlewares/LVGL/GUI/lvgl/src/indev/lv_indev_scroll.c ****             }
 392              		.loc 1 610 32 view .LVU126
 393 00fa A3EBE973 		sub	r3, r3, r9, asr #31
 610:../../Middlewares/LVGL/GUI/lvgl/src/indev/lv_indev_scroll.c ****             }
 394              		.loc 1 610 19 view .LVU127
 395 00fe 9A42     		cmp	r2, r3
 396 0100 C7DA     		bge	.L10
 610:../../Middlewares/LVGL/GUI/lvgl/src/indev/lv_indev_scroll.c ****             }
 397              		.loc 1 610 51 discriminator 1 view .LVU128
 398 0102 A946     		mov	r9, r5
 399              	.LVL36:
 610:../../Middlewares/LVGL/GUI/lvgl/src/indev/lv_indev_scroll.c ****             }
 400              		.loc 1 610 51 discriminator 1 view .LVU129
 401 0104 C5E7     		b	.L10
 402              	.LVL37:
 403              	.L22:
 610:../../Middlewares/LVGL/GUI/lvgl/src/indev/lv_indev_scroll.c ****             }
 404              		.loc 1 610 51 discriminator 1 view .LVU130
 405              	.LBE74:
 406              	.LBE75:
 407              	.LBE76:
 615:../../Middlewares/LVGL/GUI/lvgl/src/indev/lv_indev_scroll.c **** }
 408              		.loc 1 615 48 view .LVU131
 409 0106 4A46     		mov	r2, r9
 615:../../Middlewares/LVGL/GUI/lvgl/src/indev/lv_indev_scroll.c **** }
 410              		.loc 1 615 5 is_stmt 1 view .LVU132
 615:../../Middlewares/LVGL/GUI/lvgl/src/indev/lv_indev_scroll.c **** }
 411              		.loc 1 615 48 is_stmt 0 view .LVU133
 412 0108 6FF06043 		mvn	r3, #-536870912
 413 010c 9945     		cmp	r9, r3
 414 010e 00D0     		beq	.L7
 415              	.LVL38:
 615:../../Middlewares/LVGL/GUI/lvgl/src/indev/lv_indev_scroll.c **** }
 416              		.loc 1 615 48 discriminator 1 view .LVU134
 417 0110 5242     		rsbs	r2, r2, #0
 418              	.LVL39:
 419              	.L7:
 616:../../Middlewares/LVGL/GUI/lvgl/src/indev/lv_indev_scroll.c **** 
 420              		.loc 1 616 1 view .LVU135
 421 0112 1046     		mov	r0, r2
 422 0114 07B0     		add	sp, sp, #28
 423              	.LCFI3:
 424              		.cfi_remember_state
 425              		.cfi_def_cfa_offset 36
 426              	.LVL40:
 616:../../Middlewares/LVGL/GUI/lvgl/src/indev/lv_indev_scroll.c **** 
 427              		.loc 1 616 1 view .LVU136
 428              		@ sp needed
 429 0116 BDE8F08F 		pop	{r4, r5, r6, r7, r8, r9, r10, fp, pc}
 430              	.LVL41:
ARM GAS  C:\Users\28576\AppData\Local\Temp\ccZznpky.s 			page 24


 431              	.L17:
 432              	.LCFI4:
 433              		.cfi_restore_state
 575:../../Middlewares/LVGL/GUI/lvgl/src/indev/lv_indev_scroll.c **** 
 434              		.loc 1 575 45 discriminator 1 view .LVU137
 435 011a 6FF06042 		mvn	r2, #-536870912
 436 011e F8E7     		b	.L7
 437              	.L24:
 438              		.align	2
 439              	.L23:
 440 0120 01000400 		.word	262145
 441              		.cfi_endproc
 442              	.LFE179:
 444              		.section	.text.find_snap_point_x,"ax",%progbits
 445              		.align	1
 446              		.syntax unified
 447              		.thumb
 448              		.thumb_func
 450              	find_snap_point_x:
 451              	.LVL42:
 452              	.LFB178:
 517:../../Middlewares/LVGL/GUI/lvgl/src/indev/lv_indev_scroll.c ****     lv_scroll_snap_t align = lv_obj_get_scroll_snap_x(obj);
 453              		.loc 1 517 1 is_stmt 1 view -0
 454              		.cfi_startproc
 455              		@ args = 0, pretend = 0, frame = 24
 456              		@ frame_needed = 0, uses_anonymous_args = 0
 517:../../Middlewares/LVGL/GUI/lvgl/src/indev/lv_indev_scroll.c ****     lv_scroll_snap_t align = lv_obj_get_scroll_snap_x(obj);
 457              		.loc 1 517 1 is_stmt 0 view .LVU139
 458 0000 2DE9F04F 		push	{r4, r5, r6, r7, r8, r9, r10, fp, lr}
 459              	.LCFI5:
 460              		.cfi_def_cfa_offset 36
 461              		.cfi_offset 4, -36
 462              		.cfi_offset 5, -32
 463              		.cfi_offset 6, -28
 464              		.cfi_offset 7, -24
 465              		.cfi_offset 8, -20
 466              		.cfi_offset 9, -16
 467              		.cfi_offset 10, -12
 468              		.cfi_offset 11, -8
 469              		.cfi_offset 14, -4
 470 0004 87B0     		sub	sp, sp, #28
 471              	.LCFI6:
 472              		.cfi_def_cfa_offset 64
 473 0006 0546     		mov	r5, r0
 474 0008 8B46     		mov	fp, r1
 475 000a 0092     		str	r2, [sp]
 476 000c 0193     		str	r3, [sp, #4]
 518:../../Middlewares/LVGL/GUI/lvgl/src/indev/lv_indev_scroll.c ****     if(align == LV_SCROLL_SNAP_NONE) return LV_COORD_MAX;
 477              		.loc 1 518 5 is_stmt 1 view .LVU140
 518:../../Middlewares/LVGL/GUI/lvgl/src/indev/lv_indev_scroll.c ****     if(align == LV_SCROLL_SNAP_NONE) return LV_COORD_MAX;
 478              		.loc 1 518 30 is_stmt 0 view .LVU141
 479 000e FFF7FEFF 		bl	lv_obj_get_scroll_snap_x
 480              	.LVL43:
 519:../../Middlewares/LVGL/GUI/lvgl/src/indev/lv_indev_scroll.c **** 
 481              		.loc 1 519 5 is_stmt 1 view .LVU142
 519:../../Middlewares/LVGL/GUI/lvgl/src/indev/lv_indev_scroll.c **** 
 482              		.loc 1 519 7 is_stmt 0 view .LVU143
ARM GAS  C:\Users\28576\AppData\Local\Temp\ccZznpky.s 			page 25


 483 0012 0028     		cmp	r0, #0
 484 0014 00F08380 		beq	.L35
 485 0018 8046     		mov	r8, r0
 521:../../Middlewares/LVGL/GUI/lvgl/src/indev/lv_indev_scroll.c **** 
 486              		.loc 1 521 5 is_stmt 1 view .LVU144
 487              	.LVL44:
 523:../../Middlewares/LVGL/GUI/lvgl/src/indev/lv_indev_scroll.c ****     int32_t pad_right = lv_obj_get_style_pad_right(obj, LV_PART_MAIN);
 488              		.loc 1 523 5 view .LVU145
 489              	.LBB77:
 490              	.LBI77:
 164:../../Middlewares/LVGL/GUI/lvgl/src/indev/../core/lv_obj_style_gen.h **** }
 165:../../Middlewares/LVGL/GUI/lvgl/src/indev/../core/lv_obj_style_gen.h **** 
 166:../../Middlewares/LVGL/GUI/lvgl/src/indev/../core/lv_obj_style_gen.h **** static inline int32_t lv_obj_get_style_pad_left(const lv_obj_t * obj, lv_part_t part)
 491              		.loc 2 166 23 view .LVU146
 492              	.LBB78:
 167:../../Middlewares/LVGL/GUI/lvgl/src/indev/../core/lv_obj_style_gen.h **** {
 168:../../Middlewares/LVGL/GUI/lvgl/src/indev/../core/lv_obj_style_gen.h ****     lv_style_value_t v = lv_obj_get_style_prop(obj, part, LV_STYLE_PAD_LEFT);
 493              		.loc 2 168 5 view .LVU147
 494              		.loc 2 168 26 is_stmt 0 view .LVU148
 495 001a 1222     		movs	r2, #18
 496 001c 0021     		movs	r1, #0
 497 001e 2846     		mov	r0, r5
 498              	.LVL45:
 499              		.loc 2 168 26 view .LVU149
 500 0020 FFF7FEFF 		bl	lv_obj_get_style_prop
 501              	.LVL46:
 502 0024 0290     		str	r0, [sp, #8]
 503 0026 0590     		str	r0, [sp, #20]
 169:../../Middlewares/LVGL/GUI/lvgl/src/indev/../core/lv_obj_style_gen.h ****     return (int32_t)v.num;
 504              		.loc 2 169 5 is_stmt 1 view .LVU150
 505              	.LVL47:
 506              		.loc 2 169 5 is_stmt 0 view .LVU151
 507              	.LBE78:
 508              	.LBE77:
 524:../../Middlewares/LVGL/GUI/lvgl/src/indev/lv_indev_scroll.c **** 
 509              		.loc 1 524 5 is_stmt 1 view .LVU152
 510              	.LBB79:
 511              	.LBI79:
 170:../../Middlewares/LVGL/GUI/lvgl/src/indev/../core/lv_obj_style_gen.h **** }
 171:../../Middlewares/LVGL/GUI/lvgl/src/indev/../core/lv_obj_style_gen.h **** 
 172:../../Middlewares/LVGL/GUI/lvgl/src/indev/../core/lv_obj_style_gen.h **** static inline int32_t lv_obj_get_style_pad_right(const lv_obj_t * obj, lv_part_t part)
 512              		.loc 2 172 23 view .LVU153
 513              	.LBB80:
 173:../../Middlewares/LVGL/GUI/lvgl/src/indev/../core/lv_obj_style_gen.h **** {
 174:../../Middlewares/LVGL/GUI/lvgl/src/indev/../core/lv_obj_style_gen.h ****     lv_style_value_t v = lv_obj_get_style_prop(obj, part, LV_STYLE_PAD_RIGHT);
 514              		.loc 2 174 5 view .LVU154
 515              		.loc 2 174 26 is_stmt 0 view .LVU155
 516 0028 1322     		movs	r2, #19
 517 002a 0021     		movs	r1, #0
 518 002c 2846     		mov	r0, r5
 519              	.LVL48:
 520              		.loc 2 174 26 view .LVU156
 521 002e FFF7FEFF 		bl	lv_obj_get_style_prop
 522              	.LVL49:
 523 0032 0390     		str	r0, [sp, #12]
 524 0034 0590     		str	r0, [sp, #20]
 175:../../Middlewares/LVGL/GUI/lvgl/src/indev/../core/lv_obj_style_gen.h ****     return (int32_t)v.num;
ARM GAS  C:\Users\28576\AppData\Local\Temp\ccZznpky.s 			page 26


 525              		.loc 2 175 5 is_stmt 1 view .LVU157
 526              	.LVL50:
 527              		.loc 2 175 5 is_stmt 0 view .LVU158
 528              	.LBE80:
 529              	.LBE79:
 526:../../Middlewares/LVGL/GUI/lvgl/src/indev/lv_indev_scroll.c ****     uint32_t child_cnt = lv_obj_get_child_count(obj);
 530              		.loc 1 526 5 is_stmt 1 view .LVU159
 527:../../Middlewares/LVGL/GUI/lvgl/src/indev/lv_indev_scroll.c ****     for(i = 0; i < child_cnt; i++) {
 531              		.loc 1 527 5 view .LVU160
 527:../../Middlewares/LVGL/GUI/lvgl/src/indev/lv_indev_scroll.c ****     for(i = 0; i < child_cnt; i++) {
 532              		.loc 1 527 26 is_stmt 0 view .LVU161
 533 0036 2846     		mov	r0, r5
 534              	.LVL51:
 527:../../Middlewares/LVGL/GUI/lvgl/src/indev/lv_indev_scroll.c ****     for(i = 0; i < child_cnt; i++) {
 535              		.loc 1 527 26 view .LVU162
 536 0038 FFF7FEFF 		bl	lv_obj_get_child_count
 537              	.LVL52:
 527:../../Middlewares/LVGL/GUI/lvgl/src/indev/lv_indev_scroll.c ****     for(i = 0; i < child_cnt; i++) {
 538              		.loc 1 527 26 view .LVU163
 539 003c 0646     		mov	r6, r0
 540              	.LVL53:
 528:../../Middlewares/LVGL/GUI/lvgl/src/indev/lv_indev_scroll.c ****         lv_obj_t * child = obj->spec_attr->children[i];
 541              		.loc 1 528 5 is_stmt 1 view .LVU164
 528:../../Middlewares/LVGL/GUI/lvgl/src/indev/lv_indev_scroll.c ****         lv_obj_t * child = obj->spec_attr->children[i];
 542              		.loc 1 528 11 is_stmt 0 view .LVU165
 543 003e 0024     		movs	r4, #0
 521:../../Middlewares/LVGL/GUI/lvgl/src/indev/lv_indev_scroll.c **** 
 544              		.loc 1 521 13 view .LVU166
 545 0040 6FF06042 		mvn	r2, #-536870912
 546 0044 C146     		mov	r9, r8
 547 0046 9246     		mov	r10, r2
 528:../../Middlewares/LVGL/GUI/lvgl/src/indev/lv_indev_scroll.c ****         lv_obj_t * child = obj->spec_attr->children[i];
 548              		.loc 1 528 5 view .LVU167
 549 0048 23E0     		b	.L27
 550              	.LVL54:
 551              	.L29:
 552              	.LBB81:
 553              	.LBB82:
 540:../../Middlewares/LVGL/GUI/lvgl/src/indev/lv_indev_scroll.c ****                     x_parent = obj->coords.x2 - pad_right;
 554              		.loc 1 540 21 is_stmt 1 view .LVU168
 540:../../Middlewares/LVGL/GUI/lvgl/src/indev/lv_indev_scroll.c ****                     x_parent = obj->coords.x2 - pad_right;
 555              		.loc 1 540 29 is_stmt 0 view .LVU169
 556 004a FF69     		ldr	r7, [r7, #28]
 557              	.LVL55:
 541:../../Middlewares/LVGL/GUI/lvgl/src/indev/lv_indev_scroll.c ****                     break;
 558              		.loc 1 541 21 is_stmt 1 view .LVU170
 541:../../Middlewares/LVGL/GUI/lvgl/src/indev/lv_indev_scroll.c ****                     break;
 559              		.loc 1 541 43 is_stmt 0 view .LVU171
 560 004c EB69     		ldr	r3, [r5, #28]
 541:../../Middlewares/LVGL/GUI/lvgl/src/indev/lv_indev_scroll.c ****                     break;
 561              		.loc 1 541 30 view .LVU172
 562 004e 039A     		ldr	r2, [sp, #12]
 563 0050 A3EB0208 		sub	r8, r3, r2
 564              	.LVL56:
 542:../../Middlewares/LVGL/GUI/lvgl/src/indev/lv_indev_scroll.c ****                 case LV_SCROLL_SNAP_CENTER:
 565              		.loc 1 542 21 is_stmt 1 view .LVU173
 566 0054 3EE0     		b	.L31
ARM GAS  C:\Users\28576\AppData\Local\Temp\ccZznpky.s 			page 27


 567              	.LVL57:
 568              	.L30:
 544:../../Middlewares/LVGL/GUI/lvgl/src/indev/lv_indev_scroll.c ****                     x_parent = obj->coords.x1 + pad_left + (lv_area_get_width(&obj->coords) - pad_l
 569              		.loc 1 544 21 view .LVU174
 544:../../Middlewares/LVGL/GUI/lvgl/src/indev/lv_indev_scroll.c ****                     x_parent = obj->coords.x1 + pad_left + (lv_area_get_width(&obj->coords) - pad_l
 570              		.loc 1 544 44 is_stmt 0 view .LVU175
 571 0056 3846     		mov	r0, r7
 572 0058 50F8147F 		ldr	r7, [r0, #20]!
 573              	.LVL58:
 544:../../Middlewares/LVGL/GUI/lvgl/src/indev/lv_indev_scroll.c ****                     x_parent = obj->coords.x1 + pad_left + (lv_area_get_width(&obj->coords) - pad_l
 574              		.loc 1 544 50 view .LVU176
 575 005c FFF7FEFF 		bl	lv_area_get_width
 576              	.LVL59:
 544:../../Middlewares/LVGL/GUI/lvgl/src/indev/lv_indev_scroll.c ****                     x_parent = obj->coords.x1 + pad_left + (lv_area_get_width(&obj->coords) - pad_l
 577              		.loc 1 544 84 discriminator 1 view .LVU177
 578 0060 0028     		cmp	r0, #0
 579 0062 11DB     		blt	.L38
 580              	.L32:
 544:../../Middlewares/LVGL/GUI/lvgl/src/indev/lv_indev_scroll.c ****                     x_parent = obj->coords.x1 + pad_left + (lv_area_get_width(&obj->coords) - pad_l
 581              		.loc 1 544 29 discriminator 1 view .LVU178
 582 0064 07EB6007 		add	r7, r7, r0, asr #1
 583              	.LVL60:
 545:../../Middlewares/LVGL/GUI/lvgl/src/indev/lv_indev_scroll.c ****                     break;
 584              		.loc 1 545 21 is_stmt 1 view .LVU179
 545:../../Middlewares/LVGL/GUI/lvgl/src/indev/lv_indev_scroll.c ****                     break;
 585              		.loc 1 545 43 is_stmt 0 view .LVU180
 586 0068 2846     		mov	r0, r5
 587 006a 50F8143F 		ldr	r3, [r0, #20]!
 545:../../Middlewares/LVGL/GUI/lvgl/src/indev/lv_indev_scroll.c ****                     break;
 588              		.loc 1 545 47 view .LVU181
 589 006e 029A     		ldr	r2, [sp, #8]
 590 0070 03EB0208 		add	r8, r3, r2
 545:../../Middlewares/LVGL/GUI/lvgl/src/indev/lv_indev_scroll.c ****                     break;
 591              		.loc 1 545 61 view .LVU182
 592 0074 FFF7FEFF 		bl	lv_area_get_width
 593              	.LVL61:
 545:../../Middlewares/LVGL/GUI/lvgl/src/indev/lv_indev_scroll.c ****                     break;
 594              		.loc 1 545 93 discriminator 1 view .LVU183
 595 0078 029A     		ldr	r2, [sp, #8]
 596 007a 801A     		subs	r0, r0, r2
 545:../../Middlewares/LVGL/GUI/lvgl/src/indev/lv_indev_scroll.c ****                     break;
 597              		.loc 1 545 117 discriminator 1 view .LVU184
 598 007c 039B     		ldr	r3, [sp, #12]
 599 007e C01A     		subs	r0, r0, r3
 600 0080 04D4     		bmi	.L39
 601              	.L33:
 545:../../Middlewares/LVGL/GUI/lvgl/src/indev/lv_indev_scroll.c ****                     break;
 602              		.loc 1 545 30 discriminator 1 view .LVU185
 603 0082 08EB6008 		add	r8, r8, r0, asr #1
 604              	.LVL62:
 546:../../Middlewares/LVGL/GUI/lvgl/src/indev/lv_indev_scroll.c ****                 default:
 605              		.loc 1 546 21 is_stmt 1 view .LVU186
 606 0086 25E0     		b	.L31
 607              	.LVL63:
 608              	.L38:
 544:../../Middlewares/LVGL/GUI/lvgl/src/indev/lv_indev_scroll.c ****                     x_parent = obj->coords.x1 + pad_left + (lv_area_get_width(&obj->coords) - pad_l
 609              		.loc 1 544 84 is_stmt 0 discriminator 1 view .LVU187
ARM GAS  C:\Users\28576\AppData\Local\Temp\ccZznpky.s 			page 28


 610 0088 0130     		adds	r0, r0, #1
 611 008a EBE7     		b	.L32
 612              	.LVL64:
 613              	.L39:
 545:../../Middlewares/LVGL/GUI/lvgl/src/indev/lv_indev_scroll.c ****                     break;
 614              		.loc 1 545 117 discriminator 1 view .LVU188
 615 008c 0130     		adds	r0, r0, #1
 616 008e F8E7     		b	.L33
 617              	.LVL65:
 618              	.L28:
 545:../../Middlewares/LVGL/GUI/lvgl/src/indev/lv_indev_scroll.c ****                     break;
 619              		.loc 1 545 117 discriminator 1 view .LVU189
 620              	.LBE82:
 621              	.LBE81:
 528:../../Middlewares/LVGL/GUI/lvgl/src/indev/lv_indev_scroll.c ****         lv_obj_t * child = obj->spec_attr->children[i];
 622              		.loc 1 528 32 is_stmt 1 discriminator 2 view .LVU190
 623 0090 0134     		adds	r4, r4, #1
 624              	.LVL66:
 625              	.L27:
 528:../../Middlewares/LVGL/GUI/lvgl/src/indev/lv_indev_scroll.c ****         lv_obj_t * child = obj->spec_attr->children[i];
 626              		.loc 1 528 18 discriminator 1 view .LVU191
 627 0092 B442     		cmp	r4, r6
 628 0094 39D2     		bcs	.L40
 629              	.LBB85:
 529:../../Middlewares/LVGL/GUI/lvgl/src/indev/lv_indev_scroll.c ****         if(lv_obj_has_flag_any(child, LV_OBJ_FLAG_HIDDEN | LV_OBJ_FLAG_FLOATING)) continue;
 630              		.loc 1 529 9 view .LVU192
 529:../../Middlewares/LVGL/GUI/lvgl/src/indev/lv_indev_scroll.c ****         if(lv_obj_has_flag_any(child, LV_OBJ_FLAG_HIDDEN | LV_OBJ_FLAG_FLOATING)) continue;
 631              		.loc 1 529 31 is_stmt 0 view .LVU193
 632 0096 AB68     		ldr	r3, [r5, #8]
 529:../../Middlewares/LVGL/GUI/lvgl/src/indev/lv_indev_scroll.c ****         if(lv_obj_has_flag_any(child, LV_OBJ_FLAG_HIDDEN | LV_OBJ_FLAG_FLOATING)) continue;
 633              		.loc 1 529 42 view .LVU194
 634 0098 1B68     		ldr	r3, [r3]
 529:../../Middlewares/LVGL/GUI/lvgl/src/indev/lv_indev_scroll.c ****         if(lv_obj_has_flag_any(child, LV_OBJ_FLAG_HIDDEN | LV_OBJ_FLAG_FLOATING)) continue;
 635              		.loc 1 529 20 view .LVU195
 636 009a 53F82470 		ldr	r7, [r3, r4, lsl #2]
 637              	.LVL67:
 530:../../Middlewares/LVGL/GUI/lvgl/src/indev/lv_indev_scroll.c ****         if(lv_obj_has_flag(child, LV_OBJ_FLAG_SNAPPABLE)) {
 638              		.loc 1 530 9 is_stmt 1 view .LVU196
 530:../../Middlewares/LVGL/GUI/lvgl/src/indev/lv_indev_scroll.c ****         if(lv_obj_has_flag(child, LV_OBJ_FLAG_SNAPPABLE)) {
 639              		.loc 1 530 12 is_stmt 0 view .LVU197
 640 009e 2149     		ldr	r1, .L41
 641 00a0 3846     		mov	r0, r7
 642 00a2 FFF7FEFF 		bl	lv_obj_has_flag_any
 643              	.LVL68:
 530:../../Middlewares/LVGL/GUI/lvgl/src/indev/lv_indev_scroll.c ****         if(lv_obj_has_flag(child, LV_OBJ_FLAG_SNAPPABLE)) {
 644              		.loc 1 530 11 discriminator 1 view .LVU198
 645 00a6 0028     		cmp	r0, #0
 646 00a8 F2D1     		bne	.L28
 531:../../Middlewares/LVGL/GUI/lvgl/src/indev/lv_indev_scroll.c ****             int32_t x_child = 0;
 647              		.loc 1 531 9 is_stmt 1 view .LVU199
 531:../../Middlewares/LVGL/GUI/lvgl/src/indev/lv_indev_scroll.c ****             int32_t x_child = 0;
 648              		.loc 1 531 12 is_stmt 0 view .LVU200
 649 00aa 4FF48051 		mov	r1, #4096
 650 00ae 3846     		mov	r0, r7
 651 00b0 FFF7FEFF 		bl	lv_obj_has_flag
 652              	.LVL69:
 531:../../Middlewares/LVGL/GUI/lvgl/src/indev/lv_indev_scroll.c ****             int32_t x_child = 0;
ARM GAS  C:\Users\28576\AppData\Local\Temp\ccZznpky.s 			page 29


 653              		.loc 1 531 11 discriminator 1 view .LVU201
 654 00b4 0028     		cmp	r0, #0
 655 00b6 EBD0     		beq	.L28
 656              	.LBB84:
 532:../../Middlewares/LVGL/GUI/lvgl/src/indev/lv_indev_scroll.c ****             int32_t x_parent = 0;
 657              		.loc 1 532 13 is_stmt 1 view .LVU202
 658              	.LVL70:
 533:../../Middlewares/LVGL/GUI/lvgl/src/indev/lv_indev_scroll.c ****             switch(align) {
 659              		.loc 1 533 13 view .LVU203
 534:../../Middlewares/LVGL/GUI/lvgl/src/indev/lv_indev_scroll.c ****                 case LV_SCROLL_SNAP_START:
 660              		.loc 1 534 13 view .LVU204
 661 00b8 B9F1020F 		cmp	r9, #2
 662 00bc C5D0     		beq	.L29
 663 00be B9F1030F 		cmp	r9, #3
 664 00c2 C8D0     		beq	.L30
 665 00c4 B9F1010F 		cmp	r9, #1
 666 00c8 E2D1     		bne	.L28
 536:../../Middlewares/LVGL/GUI/lvgl/src/indev/lv_indev_scroll.c ****                     x_parent = obj->coords.x1 + pad_left;
 667              		.loc 1 536 21 view .LVU205
 536:../../Middlewares/LVGL/GUI/lvgl/src/indev/lv_indev_scroll.c ****                     x_parent = obj->coords.x1 + pad_left;
 668              		.loc 1 536 29 is_stmt 0 view .LVU206
 669 00ca 7F69     		ldr	r7, [r7, #20]
 670              	.LVL71:
 537:../../Middlewares/LVGL/GUI/lvgl/src/indev/lv_indev_scroll.c ****                     break;
 671              		.loc 1 537 21 is_stmt 1 view .LVU207
 537:../../Middlewares/LVGL/GUI/lvgl/src/indev/lv_indev_scroll.c ****                     break;
 672              		.loc 1 537 43 is_stmt 0 view .LVU208
 673 00cc 6B69     		ldr	r3, [r5, #20]
 537:../../Middlewares/LVGL/GUI/lvgl/src/indev/lv_indev_scroll.c ****                     break;
 674              		.loc 1 537 30 view .LVU209
 675 00ce 029A     		ldr	r2, [sp, #8]
 676 00d0 03EB0208 		add	r8, r3, r2
 677              	.LVL72:
 538:../../Middlewares/LVGL/GUI/lvgl/src/indev/lv_indev_scroll.c ****                 case LV_SCROLL_SNAP_END:
 678              		.loc 1 538 21 is_stmt 1 view .LVU210
 679              	.L31:
 551:../../Middlewares/LVGL/GUI/lvgl/src/indev/lv_indev_scroll.c ****             if(x_child >= min && x_child <= max) {
 680              		.loc 1 551 13 view .LVU211
 551:../../Middlewares/LVGL/GUI/lvgl/src/indev/lv_indev_scroll.c ****             if(x_child >= min && x_child <= max) {
 681              		.loc 1 551 21 is_stmt 0 view .LVU212
 682 00d4 019B     		ldr	r3, [sp, #4]
 683 00d6 1F44     		add	r7, r7, r3
 684              	.LVL73:
 552:../../Middlewares/LVGL/GUI/lvgl/src/indev/lv_indev_scroll.c ****                 int32_t x = x_child -  x_parent;
 685              		.loc 1 552 13 is_stmt 1 view .LVU213
 552:../../Middlewares/LVGL/GUI/lvgl/src/indev/lv_indev_scroll.c ****                 int32_t x = x_child -  x_parent;
 686              		.loc 1 552 31 is_stmt 0 view .LVU214
 687 00d8 5B46     		mov	r3, fp
 688 00da 009A     		ldr	r2, [sp]
 689 00dc 5F45     		cmp	r7, fp
 690 00de B4BF     		ite	lt
 691 00e0 0023     		movlt	r3, #0
 692 00e2 0123     		movge	r3, #1
 693 00e4 9742     		cmp	r7, r2
 694 00e6 C8BF     		it	gt
 695 00e8 0023     		movgt	r3, #0
 552:../../Middlewares/LVGL/GUI/lvgl/src/indev/lv_indev_scroll.c ****                 int32_t x = x_child -  x_parent;
ARM GAS  C:\Users\28576\AppData\Local\Temp\ccZznpky.s 			page 30


 696              		.loc 1 552 15 view .LVU215
 697 00ea 002B     		cmp	r3, #0
 698 00ec D0D0     		beq	.L28
 699              	.LBB83:
 553:../../Middlewares/LVGL/GUI/lvgl/src/indev/lv_indev_scroll.c ****                 if(LV_ABS(x) < LV_ABS(dist)) dist = x;
 700              		.loc 1 553 17 is_stmt 1 view .LVU216
 553:../../Middlewares/LVGL/GUI/lvgl/src/indev/lv_indev_scroll.c ****                 if(LV_ABS(x) < LV_ABS(dist)) dist = x;
 701              		.loc 1 553 25 is_stmt 0 view .LVU217
 702 00ee A7EB0807 		sub	r7, r7, r8
 703              	.LVL74:
 554:../../Middlewares/LVGL/GUI/lvgl/src/indev/lv_indev_scroll.c ****             }
 704              		.loc 1 554 17 is_stmt 1 view .LVU218
 554:../../Middlewares/LVGL/GUI/lvgl/src/indev/lv_indev_scroll.c ****             }
 705              		.loc 1 554 20 is_stmt 0 view .LVU219
 706 00f2 87EAE772 		eor	r2, r7, r7, asr #31
 707 00f6 A2EBE772 		sub	r2, r2, r7, asr #31
 554:../../Middlewares/LVGL/GUI/lvgl/src/indev/lv_indev_scroll.c ****             }
 708              		.loc 1 554 32 view .LVU220
 709 00fa 8AEAEA73 		eor	r3, r10, r10, asr #31
 710 00fe A3EBEA73 		sub	r3, r3, r10, asr #31
 554:../../Middlewares/LVGL/GUI/lvgl/src/indev/lv_indev_scroll.c ****             }
 711              		.loc 1 554 19 view .LVU221
 712 0102 9A42     		cmp	r2, r3
 713 0104 C4DA     		bge	.L28
 554:../../Middlewares/LVGL/GUI/lvgl/src/indev/lv_indev_scroll.c ****             }
 714              		.loc 1 554 51 discriminator 1 view .LVU222
 715 0106 BA46     		mov	r10, r7
 716              	.LVL75:
 554:../../Middlewares/LVGL/GUI/lvgl/src/indev/lv_indev_scroll.c ****             }
 717              		.loc 1 554 51 discriminator 1 view .LVU223
 718 0108 C2E7     		b	.L28
 719              	.LVL76:
 720              	.L40:
 554:../../Middlewares/LVGL/GUI/lvgl/src/indev/lv_indev_scroll.c ****             }
 721              		.loc 1 554 51 discriminator 1 view .LVU224
 722              	.LBE83:
 723              	.LBE84:
 724              	.LBE85:
 559:../../Middlewares/LVGL/GUI/lvgl/src/indev/lv_indev_scroll.c **** }
 725              		.loc 1 559 48 view .LVU225
 726 010a 5246     		mov	r2, r10
 559:../../Middlewares/LVGL/GUI/lvgl/src/indev/lv_indev_scroll.c **** }
 727              		.loc 1 559 5 is_stmt 1 view .LVU226
 559:../../Middlewares/LVGL/GUI/lvgl/src/indev/lv_indev_scroll.c **** }
 728              		.loc 1 559 48 is_stmt 0 view .LVU227
 729 010c 6FF06043 		mvn	r3, #-536870912
 730 0110 9A45     		cmp	r10, r3
 731 0112 00D0     		beq	.L25
 732              	.LVL77:
 559:../../Middlewares/LVGL/GUI/lvgl/src/indev/lv_indev_scroll.c **** }
 733              		.loc 1 559 48 discriminator 1 view .LVU228
 734 0114 5242     		rsbs	r2, r2, #0
 735              	.LVL78:
 736              	.L25:
 560:../../Middlewares/LVGL/GUI/lvgl/src/indev/lv_indev_scroll.c **** 
 737              		.loc 1 560 1 view .LVU229
 738 0116 1046     		mov	r0, r2
ARM GAS  C:\Users\28576\AppData\Local\Temp\ccZznpky.s 			page 31


 739 0118 07B0     		add	sp, sp, #28
 740              	.LCFI7:
 741              		.cfi_remember_state
 742              		.cfi_def_cfa_offset 36
 743              	.LVL79:
 560:../../Middlewares/LVGL/GUI/lvgl/src/indev/lv_indev_scroll.c **** 
 744              		.loc 1 560 1 view .LVU230
 745              		@ sp needed
 746 011a BDE8F08F 		pop	{r4, r5, r6, r7, r8, r9, r10, fp, pc}
 747              	.LVL80:
 748              	.L35:
 749              	.LCFI8:
 750              		.cfi_restore_state
 519:../../Middlewares/LVGL/GUI/lvgl/src/indev/lv_indev_scroll.c **** 
 751              		.loc 1 519 45 discriminator 1 view .LVU231
 752 011e 6FF06042 		mvn	r2, #-536870912
 753 0122 F8E7     		b	.L25
 754              	.L42:
 755              		.align	2
 756              	.L41:
 757 0124 01000400 		.word	262145
 758              		.cfi_endproc
 759              	.LFE178:
 761              		.section	.text.init_scroll_limits,"ax",%progbits
 762              		.align	1
 763              		.syntax unified
 764              		.thumb
 765              		.thumb_func
 767              	init_scroll_limits:
 768              	.LVL81:
 769              	.LFB177:
 443:../../Middlewares/LVGL/GUI/lvgl/src/indev/lv_indev_scroll.c ****     lv_obj_t * obj = indev->pointer.scroll_obj;
 770              		.loc 1 443 1 is_stmt 1 view -0
 771              		.cfi_startproc
 772              		@ args = 0, pretend = 0, frame = 0
 773              		@ frame_needed = 0, uses_anonymous_args = 0
 443:../../Middlewares/LVGL/GUI/lvgl/src/indev/lv_indev_scroll.c ****     lv_obj_t * obj = indev->pointer.scroll_obj;
 774              		.loc 1 443 1 is_stmt 0 view .LVU233
 775 0000 70B5     		push	{r4, r5, r6, lr}
 776              	.LCFI9:
 777              		.cfi_def_cfa_offset 16
 778              		.cfi_offset 4, -16
 779              		.cfi_offset 5, -12
 780              		.cfi_offset 6, -8
 781              		.cfi_offset 14, -4
 782 0002 82B0     		sub	sp, sp, #8
 783              	.LCFI10:
 784              		.cfi_def_cfa_offset 24
 785 0004 0446     		mov	r4, r0
 444:../../Middlewares/LVGL/GUI/lvgl/src/indev/lv_indev_scroll.c ****     /*If there no STOP allow scrolling anywhere*/
 786              		.loc 1 444 5 is_stmt 1 view .LVU234
 444:../../Middlewares/LVGL/GUI/lvgl/src/indev/lv_indev_scroll.c ****     /*If there no STOP allow scrolling anywhere*/
 787              		.loc 1 444 16 is_stmt 0 view .LVU235
 788 0006 056F     		ldr	r5, [r0, #112]
 789              	.LVL82:
 446:../../Middlewares/LVGL/GUI/lvgl/src/indev/lv_indev_scroll.c ****         lv_area_set(&indev->pointer.scroll_area, LV_COORD_MIN, LV_COORD_MIN, LV_COORD_MAX, LV_COORD
 790              		.loc 1 446 5 is_stmt 1 view .LVU236
ARM GAS  C:\Users\28576\AppData\Local\Temp\ccZznpky.s 			page 32


 446:../../Middlewares/LVGL/GUI/lvgl/src/indev/lv_indev_scroll.c ****         lv_area_set(&indev->pointer.scroll_area, LV_COORD_MIN, LV_COORD_MIN, LV_COORD_MAX, LV_COORD
 791              		.loc 1 446 8 is_stmt 0 view .LVU237
 792 0008 8021     		movs	r1, #128
 793 000a 2846     		mov	r0, r5
 794              	.LVL83:
 446:../../Middlewares/LVGL/GUI/lvgl/src/indev/lv_indev_scroll.c ****         lv_area_set(&indev->pointer.scroll_area, LV_COORD_MIN, LV_COORD_MIN, LV_COORD_MAX, LV_COORD
 795              		.loc 1 446 8 view .LVU238
 796 000c FFF7FEFF 		bl	lv_obj_has_flag
 797              	.LVL84:
 446:../../Middlewares/LVGL/GUI/lvgl/src/indev/lv_indev_scroll.c ****         lv_area_set(&indev->pointer.scroll_area, LV_COORD_MIN, LV_COORD_MIN, LV_COORD_MAX, LV_COORD
 798              		.loc 1 446 7 discriminator 1 view .LVU239
 799 0010 78BB     		cbnz	r0, .L44
 447:../../Middlewares/LVGL/GUI/lvgl/src/indev/lv_indev_scroll.c ****     }
 800              		.loc 1 447 9 is_stmt 1 view .LVU240
 801 0012 6D49     		ldr	r1, .L66
 802 0014 6FF06043 		mvn	r3, #-536870912
 803 0018 0093     		str	r3, [sp]
 804 001a 0A46     		mov	r2, r1
 805 001c 04F17C00 		add	r0, r4, #124
 806 0020 FFF7FEFF 		bl	lv_area_set
 807              	.LVL85:
 808              	.L45:
 496:../../Middlewares/LVGL/GUI/lvgl/src/indev/lv_indev_scroll.c ****     if(indev->pointer.scroll_area.y1 == LV_COORD_MAX) indev->pointer.scroll_area.y1 = LV_COORD_MIN;
 809              		.loc 1 496 5 view .LVU241
 496:../../Middlewares/LVGL/GUI/lvgl/src/indev/lv_indev_scroll.c ****     if(indev->pointer.scroll_area.y1 == LV_COORD_MAX) indev->pointer.scroll_area.y1 = LV_COORD_MIN;
 810              		.loc 1 496 34 is_stmt 0 view .LVU242
 811 0024 E26F     		ldr	r2, [r4, #124]
 496:../../Middlewares/LVGL/GUI/lvgl/src/indev/lv_indev_scroll.c ****     if(indev->pointer.scroll_area.y1 == LV_COORD_MAX) indev->pointer.scroll_area.y1 = LV_COORD_MIN;
 812              		.loc 1 496 7 view .LVU243
 813 0026 6FF06043 		mvn	r3, #-536870912
 814 002a 9A42     		cmp	r2, r3
 815 002c 00F0C480 		beq	.L62
 816              	.L55:
 497:../../Middlewares/LVGL/GUI/lvgl/src/indev/lv_indev_scroll.c **** 
 817              		.loc 1 497 5 is_stmt 1 view .LVU244
 497:../../Middlewares/LVGL/GUI/lvgl/src/indev/lv_indev_scroll.c **** 
 818              		.loc 1 497 34 is_stmt 0 view .LVU245
 819 0030 D4F88020 		ldr	r2, [r4, #128]
 497:../../Middlewares/LVGL/GUI/lvgl/src/indev/lv_indev_scroll.c **** 
 820              		.loc 1 497 7 view .LVU246
 821 0034 6FF06043 		mvn	r3, #-536870912
 822 0038 9A42     		cmp	r2, r3
 823 003a 00F0C080 		beq	.L63
 824              	.L56:
 500:../../Middlewares/LVGL/GUI/lvgl/src/indev/lv_indev_scroll.c ****     if(indev->pointer.scroll_area.x2 == 0) indev->pointer.scroll_area.x2 = LV_COORD_MAX;
 825              		.loc 1 500 5 is_stmt 1 view .LVU247
 500:../../Middlewares/LVGL/GUI/lvgl/src/indev/lv_indev_scroll.c ****     if(indev->pointer.scroll_area.x2 == 0) indev->pointer.scroll_area.x2 = LV_COORD_MAX;
 826              		.loc 1 500 34 is_stmt 0 view .LVU248
 827 003e E36F     		ldr	r3, [r4, #124]
 500:../../Middlewares/LVGL/GUI/lvgl/src/indev/lv_indev_scroll.c ****     if(indev->pointer.scroll_area.x2 == 0) indev->pointer.scroll_area.x2 = LV_COORD_MAX;
 828              		.loc 1 500 7 view .LVU249
 829 0040 0BB9     		cbnz	r3, .L57
 500:../../Middlewares/LVGL/GUI/lvgl/src/indev/lv_indev_scroll.c ****     if(indev->pointer.scroll_area.x2 == 0) indev->pointer.scroll_area.x2 = LV_COORD_MAX;
 830              		.loc 1 500 44 is_stmt 1 discriminator 1 view .LVU250
 500:../../Middlewares/LVGL/GUI/lvgl/src/indev/lv_indev_scroll.c ****     if(indev->pointer.scroll_area.x2 == 0) indev->pointer.scroll_area.x2 = LV_COORD_MAX;
 831              		.loc 1 500 74 is_stmt 0 discriminator 1 view .LVU251
 832 0042 614B     		ldr	r3, .L66
ARM GAS  C:\Users\28576\AppData\Local\Temp\ccZznpky.s 			page 33


 833 0044 E367     		str	r3, [r4, #124]
 834              	.L57:
 501:../../Middlewares/LVGL/GUI/lvgl/src/indev/lv_indev_scroll.c ****     if(indev->pointer.scroll_area.y1 == 0) indev->pointer.scroll_area.y1 = LV_COORD_MIN;
 835              		.loc 1 501 5 is_stmt 1 view .LVU252
 501:../../Middlewares/LVGL/GUI/lvgl/src/indev/lv_indev_scroll.c ****     if(indev->pointer.scroll_area.y1 == 0) indev->pointer.scroll_area.y1 = LV_COORD_MIN;
 836              		.loc 1 501 34 is_stmt 0 view .LVU253
 837 0046 D4F88430 		ldr	r3, [r4, #132]
 501:../../Middlewares/LVGL/GUI/lvgl/src/indev/lv_indev_scroll.c ****     if(indev->pointer.scroll_area.y1 == 0) indev->pointer.scroll_area.y1 = LV_COORD_MIN;
 838              		.loc 1 501 7 view .LVU254
 839 004a 1BB9     		cbnz	r3, .L58
 501:../../Middlewares/LVGL/GUI/lvgl/src/indev/lv_indev_scroll.c ****     if(indev->pointer.scroll_area.y1 == 0) indev->pointer.scroll_area.y1 = LV_COORD_MIN;
 840              		.loc 1 501 44 is_stmt 1 discriminator 1 view .LVU255
 501:../../Middlewares/LVGL/GUI/lvgl/src/indev/lv_indev_scroll.c ****     if(indev->pointer.scroll_area.y1 == 0) indev->pointer.scroll_area.y1 = LV_COORD_MIN;
 841              		.loc 1 501 74 is_stmt 0 discriminator 1 view .LVU256
 842 004c 6FF06043 		mvn	r3, #-536870912
 843 0050 C4F88430 		str	r3, [r4, #132]
 844              	.L58:
 502:../../Middlewares/LVGL/GUI/lvgl/src/indev/lv_indev_scroll.c ****     if(indev->pointer.scroll_area.y2 == 0) indev->pointer.scroll_area.y2 = LV_COORD_MAX;
 845              		.loc 1 502 5 is_stmt 1 view .LVU257
 502:../../Middlewares/LVGL/GUI/lvgl/src/indev/lv_indev_scroll.c ****     if(indev->pointer.scroll_area.y2 == 0) indev->pointer.scroll_area.y2 = LV_COORD_MAX;
 846              		.loc 1 502 34 is_stmt 0 view .LVU258
 847 0054 D4F88030 		ldr	r3, [r4, #128]
 502:../../Middlewares/LVGL/GUI/lvgl/src/indev/lv_indev_scroll.c ****     if(indev->pointer.scroll_area.y2 == 0) indev->pointer.scroll_area.y2 = LV_COORD_MAX;
 848              		.loc 1 502 7 view .LVU259
 849 0058 13B9     		cbnz	r3, .L59
 502:../../Middlewares/LVGL/GUI/lvgl/src/indev/lv_indev_scroll.c ****     if(indev->pointer.scroll_area.y2 == 0) indev->pointer.scroll_area.y2 = LV_COORD_MAX;
 850              		.loc 1 502 44 is_stmt 1 discriminator 1 view .LVU260
 502:../../Middlewares/LVGL/GUI/lvgl/src/indev/lv_indev_scroll.c ****     if(indev->pointer.scroll_area.y2 == 0) indev->pointer.scroll_area.y2 = LV_COORD_MAX;
 851              		.loc 1 502 74 is_stmt 0 discriminator 1 view .LVU261
 852 005a 5B4B     		ldr	r3, .L66
 853 005c C4F88030 		str	r3, [r4, #128]
 854              	.L59:
 503:../../Middlewares/LVGL/GUI/lvgl/src/indev/lv_indev_scroll.c **** }
 855              		.loc 1 503 5 is_stmt 1 view .LVU262
 503:../../Middlewares/LVGL/GUI/lvgl/src/indev/lv_indev_scroll.c **** }
 856              		.loc 1 503 34 is_stmt 0 view .LVU263
 857 0060 D4F88830 		ldr	r3, [r4, #136]
 503:../../Middlewares/LVGL/GUI/lvgl/src/indev/lv_indev_scroll.c **** }
 858              		.loc 1 503 7 view .LVU264
 859 0064 1BB9     		cbnz	r3, .L43
 503:../../Middlewares/LVGL/GUI/lvgl/src/indev/lv_indev_scroll.c **** }
 860              		.loc 1 503 44 is_stmt 1 discriminator 1 view .LVU265
 503:../../Middlewares/LVGL/GUI/lvgl/src/indev/lv_indev_scroll.c **** }
 861              		.loc 1 503 74 is_stmt 0 discriminator 1 view .LVU266
 862 0066 6FF06043 		mvn	r3, #-536870912
 863 006a C4F88830 		str	r3, [r4, #136]
 864              	.L43:
 504:../../Middlewares/LVGL/GUI/lvgl/src/indev/lv_indev_scroll.c **** 
 865              		.loc 1 504 1 view .LVU267
 866 006e 02B0     		add	sp, sp, #8
 867              	.LCFI11:
 868              		.cfi_remember_state
 869              		.cfi_def_cfa_offset 16
 870              		@ sp needed
 871 0070 70BD     		pop	{r4, r5, r6, pc}
 872              	.LVL86:
 873              	.L44:
ARM GAS  C:\Users\28576\AppData\Local\Temp\ccZznpky.s 			page 34


 874              	.LCFI12:
 875              		.cfi_restore_state
 451:../../Middlewares/LVGL/GUI/lvgl/src/indev/lv_indev_scroll.c ****             case LV_SCROLL_SNAP_START:
 876              		.loc 1 451 9 is_stmt 1 view .LVU268
 451:../../Middlewares/LVGL/GUI/lvgl/src/indev/lv_indev_scroll.c ****             case LV_SCROLL_SNAP_START:
 877              		.loc 1 451 16 is_stmt 0 view .LVU269
 878 0072 2846     		mov	r0, r5
 879 0074 FFF7FEFF 		bl	lv_obj_get_scroll_snap_y
 880              	.LVL87:
 451:../../Middlewares/LVGL/GUI/lvgl/src/indev/lv_indev_scroll.c ****             case LV_SCROLL_SNAP_START:
 881              		.loc 1 451 9 discriminator 1 view .LVU270
 882 0078 0228     		cmp	r0, #2
 883 007a 30D0     		beq	.L46
 884 007c 0328     		cmp	r0, #3
 885 007e 40D0     		beq	.L47
 886 0080 0128     		cmp	r0, #1
 887 0082 5CD1     		bne	.L48
 453:../../Middlewares/LVGL/GUI/lvgl/src/indev/lv_indev_scroll.c ****                 indev->pointer.scroll_area.y2 = find_snap_point_y(obj, LV_COORD_MIN, obj->coords.y1
 888              		.loc 1 453 17 is_stmt 1 view .LVU271
 453:../../Middlewares/LVGL/GUI/lvgl/src/indev/lv_indev_scroll.c ****                 indev->pointer.scroll_area.y2 = find_snap_point_y(obj, LV_COORD_MIN, obj->coords.y1
 889              		.loc 1 453 83 is_stmt 0 view .LVU272
 890 0084 A969     		ldr	r1, [r5, #24]
 453:../../Middlewares/LVGL/GUI/lvgl/src/indev/lv_indev_scroll.c ****                 indev->pointer.scroll_area.y2 = find_snap_point_y(obj, LV_COORD_MIN, obj->coords.y1
 891              		.loc 1 453 49 view .LVU273
 892 0086 0023     		movs	r3, #0
 893 0088 6FF06042 		mvn	r2, #-536870912
 894 008c 0131     		adds	r1, r1, #1
 895 008e 2846     		mov	r0, r5
 896 0090 FFF7FEFF 		bl	find_snap_point_y
 897              	.LVL88:
 453:../../Middlewares/LVGL/GUI/lvgl/src/indev/lv_indev_scroll.c ****                 indev->pointer.scroll_area.y2 = find_snap_point_y(obj, LV_COORD_MIN, obj->coords.y1
 898              		.loc 1 453 47 discriminator 1 view .LVU274
 899 0094 C4F88000 		str	r0, [r4, #128]
 454:../../Middlewares/LVGL/GUI/lvgl/src/indev/lv_indev_scroll.c ****                 break;
 900              		.loc 1 454 17 is_stmt 1 view .LVU275
 454:../../Middlewares/LVGL/GUI/lvgl/src/indev/lv_indev_scroll.c ****                 break;
 901              		.loc 1 454 97 is_stmt 0 view .LVU276
 902 0098 AA69     		ldr	r2, [r5, #24]
 454:../../Middlewares/LVGL/GUI/lvgl/src/indev/lv_indev_scroll.c ****                 break;
 903              		.loc 1 454 49 view .LVU277
 904 009a 0023     		movs	r3, #0
 905 009c 013A     		subs	r2, r2, #1
 906 009e 4A49     		ldr	r1, .L66
 907 00a0 2846     		mov	r0, r5
 908 00a2 FFF7FEFF 		bl	find_snap_point_y
 909              	.LVL89:
 454:../../Middlewares/LVGL/GUI/lvgl/src/indev/lv_indev_scroll.c ****                 break;
 910              		.loc 1 454 47 discriminator 1 view .LVU278
 911 00a6 C4F88800 		str	r0, [r4, #136]
 455:../../Middlewares/LVGL/GUI/lvgl/src/indev/lv_indev_scroll.c ****             case LV_SCROLL_SNAP_END:
 912              		.loc 1 455 17 is_stmt 1 view .LVU279
 913              	.L49:
 472:../../Middlewares/LVGL/GUI/lvgl/src/indev/lv_indev_scroll.c ****             case LV_SCROLL_SNAP_START:
 914              		.loc 1 472 9 view .LVU280
 472:../../Middlewares/LVGL/GUI/lvgl/src/indev/lv_indev_scroll.c ****             case LV_SCROLL_SNAP_START:
 915              		.loc 1 472 16 is_stmt 0 view .LVU281
 916 00aa 2846     		mov	r0, r5
ARM GAS  C:\Users\28576\AppData\Local\Temp\ccZznpky.s 			page 35


 917 00ac FFF7FEFF 		bl	lv_obj_get_scroll_snap_x
 918              	.LVL90:
 472:../../Middlewares/LVGL/GUI/lvgl/src/indev/lv_indev_scroll.c ****             case LV_SCROLL_SNAP_START:
 919              		.loc 1 472 9 discriminator 1 view .LVU282
 920 00b0 0228     		cmp	r0, #2
 921 00b2 4CD0     		beq	.L51
 922 00b4 0328     		cmp	r0, #3
 923 00b6 5BD0     		beq	.L52
 924 00b8 0128     		cmp	r0, #1
 925 00ba 76D1     		bne	.L53
 474:../../Middlewares/LVGL/GUI/lvgl/src/indev/lv_indev_scroll.c ****                 indev->pointer.scroll_area.x2 = find_snap_point_x(obj, LV_COORD_MIN, obj->coords.x1
 926              		.loc 1 474 17 is_stmt 1 view .LVU283
 474:../../Middlewares/LVGL/GUI/lvgl/src/indev/lv_indev_scroll.c ****                 indev->pointer.scroll_area.x2 = find_snap_point_x(obj, LV_COORD_MIN, obj->coords.x1
 927              		.loc 1 474 49 is_stmt 0 view .LVU284
 928 00bc 0023     		movs	r3, #0
 929 00be 6FF06042 		mvn	r2, #-536870912
 930 00c2 6969     		ldr	r1, [r5, #20]
 931 00c4 2846     		mov	r0, r5
 932 00c6 FFF7FEFF 		bl	find_snap_point_x
 933              	.LVL91:
 474:../../Middlewares/LVGL/GUI/lvgl/src/indev/lv_indev_scroll.c ****                 indev->pointer.scroll_area.x2 = find_snap_point_x(obj, LV_COORD_MIN, obj->coords.x1
 934              		.loc 1 474 47 discriminator 1 view .LVU285
 935 00ca E067     		str	r0, [r4, #124]
 475:../../Middlewares/LVGL/GUI/lvgl/src/indev/lv_indev_scroll.c ****                 break;
 936              		.loc 1 475 17 is_stmt 1 view .LVU286
 475:../../Middlewares/LVGL/GUI/lvgl/src/indev/lv_indev_scroll.c ****                 break;
 937              		.loc 1 475 49 is_stmt 0 view .LVU287
 938 00cc 0023     		movs	r3, #0
 939 00ce 6A69     		ldr	r2, [r5, #20]
 940 00d0 3D49     		ldr	r1, .L66
 941 00d2 2846     		mov	r0, r5
 942 00d4 FFF7FEFF 		bl	find_snap_point_x
 943              	.LVL92:
 475:../../Middlewares/LVGL/GUI/lvgl/src/indev/lv_indev_scroll.c ****                 break;
 944              		.loc 1 475 47 discriminator 1 view .LVU288
 945 00d8 C4F88400 		str	r0, [r4, #132]
 476:../../Middlewares/LVGL/GUI/lvgl/src/indev/lv_indev_scroll.c ****             case LV_SCROLL_SNAP_END:
 946              		.loc 1 476 17 is_stmt 1 view .LVU289
 947 00dc A2E7     		b	.L45
 948              	.L46:
 457:../../Middlewares/LVGL/GUI/lvgl/src/indev/lv_indev_scroll.c ****                 indev->pointer.scroll_area.y2 = find_snap_point_y(obj, LV_COORD_MIN, obj->coords.y2
 949              		.loc 1 457 17 view .LVU290
 457:../../Middlewares/LVGL/GUI/lvgl/src/indev/lv_indev_scroll.c ****                 indev->pointer.scroll_area.y2 = find_snap_point_y(obj, LV_COORD_MIN, obj->coords.y2
 950              		.loc 1 457 49 is_stmt 0 view .LVU291
 951 00de 0023     		movs	r3, #0
 952 00e0 6FF06042 		mvn	r2, #-536870912
 953 00e4 296A     		ldr	r1, [r5, #32]
 954 00e6 2846     		mov	r0, r5
 955 00e8 FFF7FEFF 		bl	find_snap_point_y
 956              	.LVL93:
 457:../../Middlewares/LVGL/GUI/lvgl/src/indev/lv_indev_scroll.c ****                 indev->pointer.scroll_area.y2 = find_snap_point_y(obj, LV_COORD_MIN, obj->coords.y2
 957              		.loc 1 457 47 discriminator 1 view .LVU292
 958 00ec C4F88000 		str	r0, [r4, #128]
 458:../../Middlewares/LVGL/GUI/lvgl/src/indev/lv_indev_scroll.c ****                 break;
 959              		.loc 1 458 17 is_stmt 1 view .LVU293
 458:../../Middlewares/LVGL/GUI/lvgl/src/indev/lv_indev_scroll.c ****                 break;
 960              		.loc 1 458 49 is_stmt 0 view .LVU294
ARM GAS  C:\Users\28576\AppData\Local\Temp\ccZznpky.s 			page 36


 961 00f0 0023     		movs	r3, #0
 962 00f2 2A6A     		ldr	r2, [r5, #32]
 963 00f4 3449     		ldr	r1, .L66
 964 00f6 2846     		mov	r0, r5
 965 00f8 FFF7FEFF 		bl	find_snap_point_y
 966              	.LVL94:
 458:../../Middlewares/LVGL/GUI/lvgl/src/indev/lv_indev_scroll.c ****                 break;
 967              		.loc 1 458 47 discriminator 1 view .LVU295
 968 00fc C4F88800 		str	r0, [r4, #136]
 459:../../Middlewares/LVGL/GUI/lvgl/src/indev/lv_indev_scroll.c ****             case LV_SCROLL_SNAP_CENTER: {
 969              		.loc 1 459 17 is_stmt 1 view .LVU296
 970 0100 D3E7     		b	.L49
 971              	.L47:
 972              	.LBB86:
 461:../../Middlewares/LVGL/GUI/lvgl/src/indev/lv_indev_scroll.c ****                     indev->pointer.scroll_area.y1 = find_snap_point_y(obj, y_mid + 1, LV_COORD_MAX,
 973              		.loc 1 461 21 view .LVU297
 461:../../Middlewares/LVGL/GUI/lvgl/src/indev/lv_indev_scroll.c ****                     indev->pointer.scroll_area.y1 = find_snap_point_y(obj, y_mid + 1, LV_COORD_MAX,
 974              		.loc 1 461 48 is_stmt 0 view .LVU298
 975 0102 AB69     		ldr	r3, [r5, #24]
 976 0104 1E46     		mov	r6, r3
 461:../../Middlewares/LVGL/GUI/lvgl/src/indev/lv_indev_scroll.c ****                     indev->pointer.scroll_area.y1 = find_snap_point_y(obj, y_mid + 1, LV_COORD_MAX,
 977              		.loc 1 461 54 view .LVU299
 978 0106 05F11400 		add	r0, r5, #20
 979 010a FFF7FEFF 		bl	lv_area_get_height
 980              	.LVL95:
 461:../../Middlewares/LVGL/GUI/lvgl/src/indev/lv_indev_scroll.c ****                     indev->pointer.scroll_area.y1 = find_snap_point_y(obj, y_mid + 1, LV_COORD_MAX,
 981              		.loc 1 461 87 discriminator 1 view .LVU300
 982 010e 0028     		cmp	r0, #0
 983 0110 13DB     		blt	.L64
 984              	.L50:
 461:../../Middlewares/LVGL/GUI/lvgl/src/indev/lv_indev_scroll.c ****                     indev->pointer.scroll_area.y1 = find_snap_point_y(obj, y_mid + 1, LV_COORD_MAX,
 985              		.loc 1 461 29 discriminator 1 view .LVU301
 986 0112 06EB6006 		add	r6, r6, r0, asr #1
 987              	.LVL96:
 462:../../Middlewares/LVGL/GUI/lvgl/src/indev/lv_indev_scroll.c ****                     indev->pointer.scroll_area.y2 = find_snap_point_y(obj, LV_COORD_MIN, y_mid - 1,
 988              		.loc 1 462 21 is_stmt 1 view .LVU302
 462:../../Middlewares/LVGL/GUI/lvgl/src/indev/lv_indev_scroll.c ****                     indev->pointer.scroll_area.y2 = find_snap_point_y(obj, LV_COORD_MIN, y_mid - 1,
 989              		.loc 1 462 53 is_stmt 0 view .LVU303
 990 0116 0023     		movs	r3, #0
 991 0118 6FF06042 		mvn	r2, #-536870912
 992 011c 711C     		adds	r1, r6, #1
 993 011e 2846     		mov	r0, r5
 994 0120 FFF7FEFF 		bl	find_snap_point_y
 995              	.LVL97:
 462:../../Middlewares/LVGL/GUI/lvgl/src/indev/lv_indev_scroll.c ****                     indev->pointer.scroll_area.y2 = find_snap_point_y(obj, LV_COORD_MIN, y_mid - 1,
 996              		.loc 1 462 51 discriminator 1 view .LVU304
 997 0124 C4F88000 		str	r0, [r4, #128]
 463:../../Middlewares/LVGL/GUI/lvgl/src/indev/lv_indev_scroll.c ****                     break;
 998              		.loc 1 463 21 is_stmt 1 view .LVU305
 463:../../Middlewares/LVGL/GUI/lvgl/src/indev/lv_indev_scroll.c ****                     break;
 999              		.loc 1 463 53 is_stmt 0 view .LVU306
 1000 0128 0023     		movs	r3, #0
 1001 012a 721E     		subs	r2, r6, #1
 1002 012c 2649     		ldr	r1, .L66
 1003 012e 2846     		mov	r0, r5
 1004 0130 FFF7FEFF 		bl	find_snap_point_y
 1005              	.LVL98:
ARM GAS  C:\Users\28576\AppData\Local\Temp\ccZznpky.s 			page 37


 463:../../Middlewares/LVGL/GUI/lvgl/src/indev/lv_indev_scroll.c ****                     break;
 1006              		.loc 1 463 51 discriminator 1 view .LVU307
 1007 0134 C4F88800 		str	r0, [r4, #136]
 464:../../Middlewares/LVGL/GUI/lvgl/src/indev/lv_indev_scroll.c ****                 }
 1008              		.loc 1 464 21 is_stmt 1 view .LVU308
 1009 0138 B7E7     		b	.L49
 1010              	.LVL99:
 1011              	.L64:
 461:../../Middlewares/LVGL/GUI/lvgl/src/indev/lv_indev_scroll.c ****                     indev->pointer.scroll_area.y1 = find_snap_point_y(obj, y_mid + 1, LV_COORD_MAX,
 1012              		.loc 1 461 87 is_stmt 0 discriminator 1 view .LVU309
 1013 013a 0130     		adds	r0, r0, #1
 1014 013c E9E7     		b	.L50
 1015              	.L48:
 461:../../Middlewares/LVGL/GUI/lvgl/src/indev/lv_indev_scroll.c ****                     indev->pointer.scroll_area.y1 = find_snap_point_y(obj, y_mid + 1, LV_COORD_MAX,
 1016              		.loc 1 461 87 discriminator 1 view .LVU310
 1017              	.LBE86:
 467:../../Middlewares/LVGL/GUI/lvgl/src/indev/lv_indev_scroll.c ****                 indev->pointer.scroll_area.y2 = LV_COORD_MAX;
 1018              		.loc 1 467 17 is_stmt 1 view .LVU311
 467:../../Middlewares/LVGL/GUI/lvgl/src/indev/lv_indev_scroll.c ****                 indev->pointer.scroll_area.y2 = LV_COORD_MAX;
 1019              		.loc 1 467 47 is_stmt 0 view .LVU312
 1020 013e 224B     		ldr	r3, .L66
 1021 0140 C4F88030 		str	r3, [r4, #128]
 468:../../Middlewares/LVGL/GUI/lvgl/src/indev/lv_indev_scroll.c ****                 break;
 1022              		.loc 1 468 17 is_stmt 1 view .LVU313
 468:../../Middlewares/LVGL/GUI/lvgl/src/indev/lv_indev_scroll.c ****                 break;
 1023              		.loc 1 468 47 is_stmt 0 view .LVU314
 1024 0144 6FF06043 		mvn	r3, #-536870912
 1025 0148 C4F88830 		str	r3, [r4, #136]
 469:../../Middlewares/LVGL/GUI/lvgl/src/indev/lv_indev_scroll.c ****         }
 1026              		.loc 1 469 17 is_stmt 1 view .LVU315
 1027 014c ADE7     		b	.L49
 1028              	.L51:
 478:../../Middlewares/LVGL/GUI/lvgl/src/indev/lv_indev_scroll.c ****                 indev->pointer.scroll_area.x2 = find_snap_point_x(obj, LV_COORD_MIN, obj->coords.x2
 1029              		.loc 1 478 17 view .LVU316
 478:../../Middlewares/LVGL/GUI/lvgl/src/indev/lv_indev_scroll.c ****                 indev->pointer.scroll_area.x2 = find_snap_point_x(obj, LV_COORD_MIN, obj->coords.x2
 1030              		.loc 1 478 49 is_stmt 0 view .LVU317
 1031 014e 0023     		movs	r3, #0
 1032 0150 6FF06042 		mvn	r2, #-536870912
 1033 0154 E969     		ldr	r1, [r5, #28]
 1034 0156 2846     		mov	r0, r5
 1035 0158 FFF7FEFF 		bl	find_snap_point_x
 1036              	.LVL100:
 478:../../Middlewares/LVGL/GUI/lvgl/src/indev/lv_indev_scroll.c ****                 indev->pointer.scroll_area.x2 = find_snap_point_x(obj, LV_COORD_MIN, obj->coords.x2
 1037              		.loc 1 478 47 discriminator 1 view .LVU318
 1038 015c E067     		str	r0, [r4, #124]
 479:../../Middlewares/LVGL/GUI/lvgl/src/indev/lv_indev_scroll.c ****                 break;
 1039              		.loc 1 479 17 is_stmt 1 view .LVU319
 479:../../Middlewares/LVGL/GUI/lvgl/src/indev/lv_indev_scroll.c ****                 break;
 1040              		.loc 1 479 49 is_stmt 0 view .LVU320
 1041 015e 0023     		movs	r3, #0
 1042 0160 EA69     		ldr	r2, [r5, #28]
 1043 0162 1949     		ldr	r1, .L66
 1044 0164 2846     		mov	r0, r5
 1045 0166 FFF7FEFF 		bl	find_snap_point_x
 1046              	.LVL101:
 479:../../Middlewares/LVGL/GUI/lvgl/src/indev/lv_indev_scroll.c ****                 break;
 1047              		.loc 1 479 47 discriminator 1 view .LVU321
ARM GAS  C:\Users\28576\AppData\Local\Temp\ccZznpky.s 			page 38


 1048 016a C4F88400 		str	r0, [r4, #132]
 480:../../Middlewares/LVGL/GUI/lvgl/src/indev/lv_indev_scroll.c ****             case LV_SCROLL_SNAP_CENTER: {
 1049              		.loc 1 480 17 is_stmt 1 view .LVU322
 1050 016e 59E7     		b	.L45
 1051              	.L52:
 1052              	.LBB87:
 482:../../Middlewares/LVGL/GUI/lvgl/src/indev/lv_indev_scroll.c ****                     indev->pointer.scroll_area.x1 = find_snap_point_x(obj, x_mid + 1, LV_COORD_MAX,
 1053              		.loc 1 482 21 view .LVU323
 482:../../Middlewares/LVGL/GUI/lvgl/src/indev/lv_indev_scroll.c ****                     indev->pointer.scroll_area.x1 = find_snap_point_x(obj, x_mid + 1, LV_COORD_MAX,
 1054              		.loc 1 482 48 is_stmt 0 view .LVU324
 1055 0170 2846     		mov	r0, r5
 1056 0172 50F8143F 		ldr	r3, [r0, #20]!
 1057 0176 1E46     		mov	r6, r3
 482:../../Middlewares/LVGL/GUI/lvgl/src/indev/lv_indev_scroll.c ****                     indev->pointer.scroll_area.x1 = find_snap_point_x(obj, x_mid + 1, LV_COORD_MAX,
 1058              		.loc 1 482 54 view .LVU325
 1059 0178 FFF7FEFF 		bl	lv_area_get_width
 1060              	.LVL102:
 482:../../Middlewares/LVGL/GUI/lvgl/src/indev/lv_indev_scroll.c ****                     indev->pointer.scroll_area.x1 = find_snap_point_x(obj, x_mid + 1, LV_COORD_MAX,
 1061              		.loc 1 482 86 discriminator 1 view .LVU326
 1062 017c 0028     		cmp	r0, #0
 1063 017e 12DB     		blt	.L65
 1064              	.L54:
 482:../../Middlewares/LVGL/GUI/lvgl/src/indev/lv_indev_scroll.c ****                     indev->pointer.scroll_area.x1 = find_snap_point_x(obj, x_mid + 1, LV_COORD_MAX,
 1065              		.loc 1 482 29 discriminator 1 view .LVU327
 1066 0180 06EB6006 		add	r6, r6, r0, asr #1
 1067              	.LVL103:
 483:../../Middlewares/LVGL/GUI/lvgl/src/indev/lv_indev_scroll.c ****                     indev->pointer.scroll_area.x2 = find_snap_point_x(obj, LV_COORD_MIN, x_mid - 1,
 1068              		.loc 1 483 21 is_stmt 1 view .LVU328
 483:../../Middlewares/LVGL/GUI/lvgl/src/indev/lv_indev_scroll.c ****                     indev->pointer.scroll_area.x2 = find_snap_point_x(obj, LV_COORD_MIN, x_mid - 1,
 1069              		.loc 1 483 53 is_stmt 0 view .LVU329
 1070 0184 0023     		movs	r3, #0
 1071 0186 6FF06042 		mvn	r2, #-536870912
 1072 018a 711C     		adds	r1, r6, #1
 1073 018c 2846     		mov	r0, r5
 1074 018e FFF7FEFF 		bl	find_snap_point_x
 1075              	.LVL104:
 483:../../Middlewares/LVGL/GUI/lvgl/src/indev/lv_indev_scroll.c ****                     indev->pointer.scroll_area.x2 = find_snap_point_x(obj, LV_COORD_MIN, x_mid - 1,
 1076              		.loc 1 483 51 discriminator 1 view .LVU330
 1077 0192 E067     		str	r0, [r4, #124]
 484:../../Middlewares/LVGL/GUI/lvgl/src/indev/lv_indev_scroll.c ****                     break;
 1078              		.loc 1 484 21 is_stmt 1 view .LVU331
 484:../../Middlewares/LVGL/GUI/lvgl/src/indev/lv_indev_scroll.c ****                     break;
 1079              		.loc 1 484 53 is_stmt 0 view .LVU332
 1080 0194 0023     		movs	r3, #0
 1081 0196 721E     		subs	r2, r6, #1
 1082 0198 0B49     		ldr	r1, .L66
 1083 019a 2846     		mov	r0, r5
 1084 019c FFF7FEFF 		bl	find_snap_point_x
 1085              	.LVL105:
 484:../../Middlewares/LVGL/GUI/lvgl/src/indev/lv_indev_scroll.c ****                     break;
 1086              		.loc 1 484 51 discriminator 1 view .LVU333
 1087 01a0 C4F88400 		str	r0, [r4, #132]
 485:../../Middlewares/LVGL/GUI/lvgl/src/indev/lv_indev_scroll.c ****                 }
 1088              		.loc 1 485 21 is_stmt 1 view .LVU334
 1089 01a4 3EE7     		b	.L45
 1090              	.LVL106:
 1091              	.L65:
ARM GAS  C:\Users\28576\AppData\Local\Temp\ccZznpky.s 			page 39


 482:../../Middlewares/LVGL/GUI/lvgl/src/indev/lv_indev_scroll.c ****                     indev->pointer.scroll_area.x1 = find_snap_point_x(obj, x_mid + 1, LV_COORD_MAX,
 1092              		.loc 1 482 86 is_stmt 0 discriminator 1 view .LVU335
 1093 01a6 0130     		adds	r0, r0, #1
 1094 01a8 EAE7     		b	.L54
 1095              	.L53:
 482:../../Middlewares/LVGL/GUI/lvgl/src/indev/lv_indev_scroll.c ****                     indev->pointer.scroll_area.x1 = find_snap_point_x(obj, x_mid + 1, LV_COORD_MAX,
 1096              		.loc 1 482 86 discriminator 1 view .LVU336
 1097              	.LBE87:
 488:../../Middlewares/LVGL/GUI/lvgl/src/indev/lv_indev_scroll.c ****                 indev->pointer.scroll_area.x2 = LV_COORD_MAX;
 1098              		.loc 1 488 17 is_stmt 1 view .LVU337
 488:../../Middlewares/LVGL/GUI/lvgl/src/indev/lv_indev_scroll.c ****                 indev->pointer.scroll_area.x2 = LV_COORD_MAX;
 1099              		.loc 1 488 47 is_stmt 0 view .LVU338
 1100 01aa 074B     		ldr	r3, .L66
 1101 01ac E367     		str	r3, [r4, #124]
 489:../../Middlewares/LVGL/GUI/lvgl/src/indev/lv_indev_scroll.c ****                 break;
 1102              		.loc 1 489 17 is_stmt 1 view .LVU339
 489:../../Middlewares/LVGL/GUI/lvgl/src/indev/lv_indev_scroll.c ****                 break;
 1103              		.loc 1 489 47 is_stmt 0 view .LVU340
 1104 01ae 6FF06043 		mvn	r3, #-536870912
 1105 01b2 C4F88430 		str	r3, [r4, #132]
 490:../../Middlewares/LVGL/GUI/lvgl/src/indev/lv_indev_scroll.c ****         }
 1106              		.loc 1 490 17 is_stmt 1 view .LVU341
 1107 01b6 35E7     		b	.L45
 1108              	.L62:
 496:../../Middlewares/LVGL/GUI/lvgl/src/indev/lv_indev_scroll.c ****     if(indev->pointer.scroll_area.y1 == LV_COORD_MAX) indev->pointer.scroll_area.y1 = LV_COORD_MIN;
 1109              		.loc 1 496 55 discriminator 1 view .LVU342
 496:../../Middlewares/LVGL/GUI/lvgl/src/indev/lv_indev_scroll.c ****     if(indev->pointer.scroll_area.y1 == LV_COORD_MAX) indev->pointer.scroll_area.y1 = LV_COORD_MIN;
 1110              		.loc 1 496 85 is_stmt 0 discriminator 1 view .LVU343
 1111 01b8 034B     		ldr	r3, .L66
 1112 01ba E367     		str	r3, [r4, #124]
 1113 01bc 38E7     		b	.L55
 1114              	.L63:
 497:../../Middlewares/LVGL/GUI/lvgl/src/indev/lv_indev_scroll.c **** 
 1115              		.loc 1 497 55 is_stmt 1 discriminator 1 view .LVU344
 497:../../Middlewares/LVGL/GUI/lvgl/src/indev/lv_indev_scroll.c **** 
 1116              		.loc 1 497 85 is_stmt 0 discriminator 1 view .LVU345
 1117 01be 024B     		ldr	r3, .L66
 1118 01c0 C4F88030 		str	r3, [r4, #128]
 1119 01c4 3BE7     		b	.L56
 1120              	.L67:
 1121 01c6 00BF     		.align	2
 1122              	.L66:
 1123 01c8 010000E0 		.word	-536870911
 1124              		.cfi_endproc
 1125              	.LFE177:
 1127              		.section	.text.has_more_snap_points,"ax",%progbits
 1128              		.align	1
 1129              		.syntax unified
 1130              		.thumb
 1131              		.thumb_func
 1133              	has_more_snap_points:
 1134              	.LVL107:
 1135              	.LFB182:
 640:../../Middlewares/LVGL/GUI/lvgl/src/indev/lv_indev_scroll.c **** 
 641:../../Middlewares/LVGL/GUI/lvgl/src/indev/lv_indev_scroll.c **** static int32_t elastic_diff(lv_obj_t * scroll_obj, int32_t diff, int32_t scroll_start, int32_t scro
 642:../../Middlewares/LVGL/GUI/lvgl/src/indev/lv_indev_scroll.c ****                             lv_dir_t dir)
 643:../../Middlewares/LVGL/GUI/lvgl/src/indev/lv_indev_scroll.c **** {
ARM GAS  C:\Users\28576\AppData\Local\Temp\ccZznpky.s 			page 40


 644:../../Middlewares/LVGL/GUI/lvgl/src/indev/lv_indev_scroll.c ****     if(diff == 0) return 0;
 645:../../Middlewares/LVGL/GUI/lvgl/src/indev/lv_indev_scroll.c **** 
 646:../../Middlewares/LVGL/GUI/lvgl/src/indev/lv_indev_scroll.c ****     /*Scroll back to the edge if required*/
 647:../../Middlewares/LVGL/GUI/lvgl/src/indev/lv_indev_scroll.c ****     if(!lv_obj_has_flag(scroll_obj, LV_OBJ_FLAG_SCROLL_ELASTIC)) {
 648:../../Middlewares/LVGL/GUI/lvgl/src/indev/lv_indev_scroll.c ****         /*
 649:../../Middlewares/LVGL/GUI/lvgl/src/indev/lv_indev_scroll.c ****          * If the scrolling object does not set the `LV_OBJ_FLAG_SCROLL_ELASTIC` flag,
 650:../../Middlewares/LVGL/GUI/lvgl/src/indev/lv_indev_scroll.c ****          * make sure that `diff` will not cause the scroll to exceed the `start` or `end` boundary 
 651:../../Middlewares/LVGL/GUI/lvgl/src/indev/lv_indev_scroll.c ****          * If the content has exceeded the boundary due to external factors like `LV_SCROLL_SNAP_CE
 652:../../Middlewares/LVGL/GUI/lvgl/src/indev/lv_indev_scroll.c ****          * then respect the current position instead of going straight back to 0.
 653:../../Middlewares/LVGL/GUI/lvgl/src/indev/lv_indev_scroll.c ****          */
 654:../../Middlewares/LVGL/GUI/lvgl/src/indev/lv_indev_scroll.c ****         const int32_t scroll_ended = diff > 0 ? scroll_start : scroll_end;
 655:../../Middlewares/LVGL/GUI/lvgl/src/indev/lv_indev_scroll.c ****         if(scroll_ended < 0) diff = 0;
 656:../../Middlewares/LVGL/GUI/lvgl/src/indev/lv_indev_scroll.c ****         else if(scroll_ended - diff < 0) diff = scroll_ended;
 657:../../Middlewares/LVGL/GUI/lvgl/src/indev/lv_indev_scroll.c ****     }
 658:../../Middlewares/LVGL/GUI/lvgl/src/indev/lv_indev_scroll.c ****     /*Handle elastic scrolling*/
 659:../../Middlewares/LVGL/GUI/lvgl/src/indev/lv_indev_scroll.c ****     else {
 660:../../Middlewares/LVGL/GUI/lvgl/src/indev/lv_indev_scroll.c **** 
 661:../../Middlewares/LVGL/GUI/lvgl/src/indev/lv_indev_scroll.c ****         lv_scroll_snap_t snap;
 662:../../Middlewares/LVGL/GUI/lvgl/src/indev/lv_indev_scroll.c ****         snap = dir == LV_DIR_HOR ? lv_obj_get_scroll_snap_x(scroll_obj) : lv_obj_get_scroll_snap_y(
 663:../../Middlewares/LVGL/GUI/lvgl/src/indev/lv_indev_scroll.c **** 
 664:../../Middlewares/LVGL/GUI/lvgl/src/indev/lv_indev_scroll.c ****         /*Without snapping just scale down the diff when scrolled out*/
 665:../../Middlewares/LVGL/GUI/lvgl/src/indev/lv_indev_scroll.c ****         if(snap == LV_SCROLL_SNAP_NONE) {
 666:../../Middlewares/LVGL/GUI/lvgl/src/indev/lv_indev_scroll.c ****             if(scroll_end < 0 || scroll_start < 0) {
 667:../../Middlewares/LVGL/GUI/lvgl/src/indev/lv_indev_scroll.c ****                 /*Rounding*/
 668:../../Middlewares/LVGL/GUI/lvgl/src/indev/lv_indev_scroll.c ****                 if(diff < 0) diff -= ELASTIC_SLOWNESS_FACTOR / 2;
 669:../../Middlewares/LVGL/GUI/lvgl/src/indev/lv_indev_scroll.c ****                 if(diff > 0) diff += ELASTIC_SLOWNESS_FACTOR / 2;
 670:../../Middlewares/LVGL/GUI/lvgl/src/indev/lv_indev_scroll.c ****                 return diff / ELASTIC_SLOWNESS_FACTOR;
 671:../../Middlewares/LVGL/GUI/lvgl/src/indev/lv_indev_scroll.c ****             }
 672:../../Middlewares/LVGL/GUI/lvgl/src/indev/lv_indev_scroll.c ****             else {
 673:../../Middlewares/LVGL/GUI/lvgl/src/indev/lv_indev_scroll.c ****                 return diff;
 674:../../Middlewares/LVGL/GUI/lvgl/src/indev/lv_indev_scroll.c ****             }
 675:../../Middlewares/LVGL/GUI/lvgl/src/indev/lv_indev_scroll.c ****         }
 676:../../Middlewares/LVGL/GUI/lvgl/src/indev/lv_indev_scroll.c **** 
 677:../../Middlewares/LVGL/GUI/lvgl/src/indev/lv_indev_scroll.c ****         /*With snapping the widget is scrolled out if there are no more snap points
 678:../../Middlewares/LVGL/GUI/lvgl/src/indev/lv_indev_scroll.c ****          *at least in one direction (start or end)*/
 679:../../Middlewares/LVGL/GUI/lvgl/src/indev/lv_indev_scroll.c ****         bool has_start_snap;
 680:../../Middlewares/LVGL/GUI/lvgl/src/indev/lv_indev_scroll.c ****         bool has_end_snap;
 681:../../Middlewares/LVGL/GUI/lvgl/src/indev/lv_indev_scroll.c ****         has_more_snap_points(scroll_obj, dir, &has_start_snap, &has_end_snap);
 682:../../Middlewares/LVGL/GUI/lvgl/src/indev/lv_indev_scroll.c **** 
 683:../../Middlewares/LVGL/GUI/lvgl/src/indev/lv_indev_scroll.c ****         if(!has_start_snap || !has_end_snap) {
 684:../../Middlewares/LVGL/GUI/lvgl/src/indev/lv_indev_scroll.c ****             /*Rounding*/
 685:../../Middlewares/LVGL/GUI/lvgl/src/indev/lv_indev_scroll.c ****             if(diff < 0) diff -= ELASTIC_SLOWNESS_FACTOR / 2;
 686:../../Middlewares/LVGL/GUI/lvgl/src/indev/lv_indev_scroll.c ****             if(diff > 0) diff += ELASTIC_SLOWNESS_FACTOR / 2;
 687:../../Middlewares/LVGL/GUI/lvgl/src/indev/lv_indev_scroll.c ****             return diff / ELASTIC_SLOWNESS_FACTOR;
 688:../../Middlewares/LVGL/GUI/lvgl/src/indev/lv_indev_scroll.c ****         }
 689:../../Middlewares/LVGL/GUI/lvgl/src/indev/lv_indev_scroll.c ****         else {
 690:../../Middlewares/LVGL/GUI/lvgl/src/indev/lv_indev_scroll.c ****             return diff;
 691:../../Middlewares/LVGL/GUI/lvgl/src/indev/lv_indev_scroll.c ****         }
 692:../../Middlewares/LVGL/GUI/lvgl/src/indev/lv_indev_scroll.c ****     }
 693:../../Middlewares/LVGL/GUI/lvgl/src/indev/lv_indev_scroll.c **** 
 694:../../Middlewares/LVGL/GUI/lvgl/src/indev/lv_indev_scroll.c ****     return diff;
 695:../../Middlewares/LVGL/GUI/lvgl/src/indev/lv_indev_scroll.c **** }
 696:../../Middlewares/LVGL/GUI/lvgl/src/indev/lv_indev_scroll.c **** 
 697:../../Middlewares/LVGL/GUI/lvgl/src/indev/lv_indev_scroll.c **** /**
 698:../../Middlewares/LVGL/GUI/lvgl/src/indev/lv_indev_scroll.c ****  * Tell is there are more snap point in a given direction considering snap position.
 699:../../Middlewares/LVGL/GUI/lvgl/src/indev/lv_indev_scroll.c ****  * There is a snap point if there is a snapanble object in the given direction
 700:../../Middlewares/LVGL/GUI/lvgl/src/indev/lv_indev_scroll.c ****  * @param scroll_obj        the object on which snap points should be found
ARM GAS  C:\Users\28576\AppData\Local\Temp\ccZznpky.s 			page 41


 701:../../Middlewares/LVGL/GUI/lvgl/src/indev/lv_indev_scroll.c ****  * @param dir               LV_DIR_HOR or LV_DIR_VER
 702:../../Middlewares/LVGL/GUI/lvgl/src/indev/lv_indev_scroll.c ****  * @param has_start_snap    true: there is snap point in the start direction (top or left depending
 703:../../Middlewares/LVGL/GUI/lvgl/src/indev/lv_indev_scroll.c ****  * @param has_end_snap      true: there is snap point in the end direction (bottom or right dependi
 704:../../Middlewares/LVGL/GUI/lvgl/src/indev/lv_indev_scroll.c ****  * @note snap points will be searched relative to the
 705:../../Middlewares/LVGL/GUI/lvgl/src/indev/lv_indev_scroll.c ****  *       center point in case of LV_SCROLL_SNAP_CENTER
 706:../../Middlewares/LVGL/GUI/lvgl/src/indev/lv_indev_scroll.c ****  *       start point (top or left) in case of LV_SCROLL_SNAP_START
 707:../../Middlewares/LVGL/GUI/lvgl/src/indev/lv_indev_scroll.c ****  *       end point (bottom or right) in case of LV_SCROLL_SNAP_END
 708:../../Middlewares/LVGL/GUI/lvgl/src/indev/lv_indev_scroll.c ****  */
 709:../../Middlewares/LVGL/GUI/lvgl/src/indev/lv_indev_scroll.c **** static void has_more_snap_points(lv_obj_t * scroll_obj, lv_dir_t dir, bool * has_start_snap, bool *
 710:../../Middlewares/LVGL/GUI/lvgl/src/indev/lv_indev_scroll.c **** {
 1136              		.loc 1 710 1 is_stmt 1 view -0
 1137              		.cfi_startproc
 1138              		@ args = 0, pretend = 0, frame = 8
 1139              		@ frame_needed = 0, uses_anonymous_args = 0
 1140              		.loc 1 710 1 is_stmt 0 view .LVU347
 1141 0000 2DE9F043 		push	{r4, r5, r6, r7, r8, r9, lr}
 1142              	.LCFI13:
 1143              		.cfi_def_cfa_offset 28
 1144              		.cfi_offset 4, -28
 1145              		.cfi_offset 5, -24
 1146              		.cfi_offset 6, -20
 1147              		.cfi_offset 7, -16
 1148              		.cfi_offset 8, -12
 1149              		.cfi_offset 9, -8
 1150              		.cfi_offset 14, -4
 1151 0004 83B0     		sub	sp, sp, #12
 1152              	.LCFI14:
 1153              		.cfi_def_cfa_offset 40
 1154 0006 0446     		mov	r4, r0
 1155 0008 0D46     		mov	r5, r1
 1156 000a 1746     		mov	r7, r2
 1157 000c 1946     		mov	r1, r3
 1158              	.LVL108:
 1159              		.loc 1 710 1 view .LVU348
 1160 000e 9846     		mov	r8, r3
 711:../../Middlewares/LVGL/GUI/lvgl/src/indev/lv_indev_scroll.c ****     *has_start_snap = true;
 1161              		.loc 1 711 5 is_stmt 1 view .LVU349
 1162              		.loc 1 711 21 is_stmt 0 view .LVU350
 1163 0010 0123     		movs	r3, #1
 1164              	.LVL109:
 1165              		.loc 1 711 21 view .LVU351
 1166 0012 1370     		strb	r3, [r2]
 712:../../Middlewares/LVGL/GUI/lvgl/src/indev/lv_indev_scroll.c ****     *has_end_snap = true;
 1167              		.loc 1 712 5 is_stmt 1 view .LVU352
 1168              		.loc 1 712 19 is_stmt 0 view .LVU353
 1169 0014 0B70     		strb	r3, [r1]
 713:../../Middlewares/LVGL/GUI/lvgl/src/indev/lv_indev_scroll.c ****     lv_scroll_snap_t snap;
 1170              		.loc 1 713 5 is_stmt 1 view .LVU354
 714:../../Middlewares/LVGL/GUI/lvgl/src/indev/lv_indev_scroll.c ****     snap = dir == LV_DIR_HOR ? lv_obj_get_scroll_snap_x(scroll_obj) : lv_obj_get_scroll_snap_y(scro
 1171              		.loc 1 714 5 view .LVU355
 1172              		.loc 1 714 69 is_stmt 0 view .LVU356
 1173 0016 032D     		cmp	r5, #3
 1174 0018 0DD0     		beq	.L86
 1175              		.loc 1 714 71 discriminator 2 view .LVU357
 1176 001a FFF7FEFF 		bl	lv_obj_get_scroll_snap_y
 1177              	.LVL110:
 1178              	.L70:
ARM GAS  C:\Users\28576\AppData\Local\Temp\ccZznpky.s 			page 42


 715:../../Middlewares/LVGL/GUI/lvgl/src/indev/lv_indev_scroll.c **** 
 716:../../Middlewares/LVGL/GUI/lvgl/src/indev/lv_indev_scroll.c ****     if(dir == LV_DIR_HOR) {
 1179              		.loc 1 716 5 is_stmt 1 view .LVU358
 1180              		.loc 1 716 7 is_stmt 0 view .LVU359
 1181 001e 032D     		cmp	r5, #3
 1182 0020 0CD0     		beq	.L87
 1183              	.LBB88:
 717:../../Middlewares/LVGL/GUI/lvgl/src/indev/lv_indev_scroll.c ****         int32_t x = 0;
 718:../../Middlewares/LVGL/GUI/lvgl/src/indev/lv_indev_scroll.c ****         switch(snap) {
 719:../../Middlewares/LVGL/GUI/lvgl/src/indev/lv_indev_scroll.c ****             case LV_SCROLL_SNAP_CENTER: {
 720:../../Middlewares/LVGL/GUI/lvgl/src/indev/lv_indev_scroll.c ****                     int32_t pad_left = lv_obj_get_style_pad_left(scroll_obj, 0);
 721:../../Middlewares/LVGL/GUI/lvgl/src/indev/lv_indev_scroll.c ****                     int32_t pad_right = lv_obj_get_style_pad_right(scroll_obj, 0);
 722:../../Middlewares/LVGL/GUI/lvgl/src/indev/lv_indev_scroll.c ****                     x = scroll_obj->coords.x1;
 723:../../Middlewares/LVGL/GUI/lvgl/src/indev/lv_indev_scroll.c ****                     x += (lv_area_get_width(&scroll_obj->coords) - pad_left - pad_right) / 2;
 724:../../Middlewares/LVGL/GUI/lvgl/src/indev/lv_indev_scroll.c ****                     x += pad_left;
 725:../../Middlewares/LVGL/GUI/lvgl/src/indev/lv_indev_scroll.c ****                 }
 726:../../Middlewares/LVGL/GUI/lvgl/src/indev/lv_indev_scroll.c ****                 break;
 727:../../Middlewares/LVGL/GUI/lvgl/src/indev/lv_indev_scroll.c ****             case LV_SCROLL_SNAP_START:
 728:../../Middlewares/LVGL/GUI/lvgl/src/indev/lv_indev_scroll.c ****                 x = scroll_obj->coords.x1 + lv_obj_get_style_pad_left(scroll_obj, 0);
 729:../../Middlewares/LVGL/GUI/lvgl/src/indev/lv_indev_scroll.c ****                 break;
 730:../../Middlewares/LVGL/GUI/lvgl/src/indev/lv_indev_scroll.c ****             case LV_SCROLL_SNAP_END:
 731:../../Middlewares/LVGL/GUI/lvgl/src/indev/lv_indev_scroll.c ****                 x = scroll_obj->coords.x2 - lv_obj_get_style_pad_right(scroll_obj, 0);
 732:../../Middlewares/LVGL/GUI/lvgl/src/indev/lv_indev_scroll.c ****                 break;
 733:../../Middlewares/LVGL/GUI/lvgl/src/indev/lv_indev_scroll.c ****             default:
 734:../../Middlewares/LVGL/GUI/lvgl/src/indev/lv_indev_scroll.c ****                 break;
 735:../../Middlewares/LVGL/GUI/lvgl/src/indev/lv_indev_scroll.c ****         }
 736:../../Middlewares/LVGL/GUI/lvgl/src/indev/lv_indev_scroll.c ****         int32_t d;
 737:../../Middlewares/LVGL/GUI/lvgl/src/indev/lv_indev_scroll.c ****         d = find_snap_point_x(scroll_obj, x + 1, LV_COORD_MAX, 0);
 738:../../Middlewares/LVGL/GUI/lvgl/src/indev/lv_indev_scroll.c ****         if(d == LV_COORD_MAX) *has_end_snap = false;
 739:../../Middlewares/LVGL/GUI/lvgl/src/indev/lv_indev_scroll.c ****         d = find_snap_point_x(scroll_obj, LV_COORD_MIN, x - 1, 0);
 740:../../Middlewares/LVGL/GUI/lvgl/src/indev/lv_indev_scroll.c ****         if(d == LV_COORD_MAX) *has_start_snap = false;
 741:../../Middlewares/LVGL/GUI/lvgl/src/indev/lv_indev_scroll.c ****     }
 742:../../Middlewares/LVGL/GUI/lvgl/src/indev/lv_indev_scroll.c ****     else {
 743:../../Middlewares/LVGL/GUI/lvgl/src/indev/lv_indev_scroll.c ****         int32_t y = 0;
 1184              		.loc 1 743 9 is_stmt 1 view .LVU360
 1185              	.LVL111:
 744:../../Middlewares/LVGL/GUI/lvgl/src/indev/lv_indev_scroll.c ****         switch(snap) {
 1186              		.loc 1 744 9 view .LVU361
 1187 0022 0228     		cmp	r0, #2
 1188 0024 00F09980 		beq	.L79
 1189 0028 0328     		cmp	r0, #3
 1190 002a 59D0     		beq	.L80
 1191 002c 0128     		cmp	r0, #1
 1192 002e 00F08B80 		beq	.L81
 1193 0032 0025     		movs	r5, #0
 1194              	.LVL112:
 1195              		.loc 1 744 9 is_stmt 0 view .LVU362
 1196 0034 6EE0     		b	.L82
 1197              	.LVL113:
 1198              	.L86:
 1199              		.loc 1 744 9 view .LVU363
 1200              	.LBE88:
 714:../../Middlewares/LVGL/GUI/lvgl/src/indev/lv_indev_scroll.c **** 
 1201              		.loc 1 714 32 discriminator 1 view .LVU364
 1202 0036 FFF7FEFF 		bl	lv_obj_get_scroll_snap_x
 1203              	.LVL114:
 714:../../Middlewares/LVGL/GUI/lvgl/src/indev/lv_indev_scroll.c **** 
ARM GAS  C:\Users\28576\AppData\Local\Temp\ccZznpky.s 			page 43


 1204              		.loc 1 714 32 discriminator 1 view .LVU365
 1205 003a F0E7     		b	.L70
 1206              	.L87:
 1207              	.LBB99:
 717:../../Middlewares/LVGL/GUI/lvgl/src/indev/lv_indev_scroll.c ****         int32_t x = 0;
 1208              		.loc 1 717 9 is_stmt 1 view .LVU366
 1209              	.LVL115:
 718:../../Middlewares/LVGL/GUI/lvgl/src/indev/lv_indev_scroll.c ****             case LV_SCROLL_SNAP_CENTER: {
 1210              		.loc 1 718 9 view .LVU367
 1211 003c 0228     		cmp	r0, #2
 1212 003e 42D0     		beq	.L72
 1213 0040 0328     		cmp	r0, #3
 1214 0042 1AD0     		beq	.L73
 1215 0044 0128     		cmp	r0, #1
 1216 0046 35D0     		beq	.L74
 1217 0048 0025     		movs	r5, #0
 1218              	.LVL116:
 1219              	.L75:
 736:../../Middlewares/LVGL/GUI/lvgl/src/indev/lv_indev_scroll.c ****         d = find_snap_point_x(scroll_obj, x + 1, LV_COORD_MAX, 0);
 1220              		.loc 1 736 9 view .LVU368
 737:../../Middlewares/LVGL/GUI/lvgl/src/indev/lv_indev_scroll.c ****         if(d == LV_COORD_MAX) *has_end_snap = false;
 1221              		.loc 1 737 9 view .LVU369
 737:../../Middlewares/LVGL/GUI/lvgl/src/indev/lv_indev_scroll.c ****         if(d == LV_COORD_MAX) *has_end_snap = false;
 1222              		.loc 1 737 13 is_stmt 0 view .LVU370
 1223 004a 0023     		movs	r3, #0
 1224 004c 6FF06042 		mvn	r2, #-536870912
 1225 0050 691C     		adds	r1, r5, #1
 1226 0052 2046     		mov	r0, r4
 1227 0054 FFF7FEFF 		bl	find_snap_point_x
 1228              	.LVL117:
 738:../../Middlewares/LVGL/GUI/lvgl/src/indev/lv_indev_scroll.c ****         d = find_snap_point_x(scroll_obj, LV_COORD_MIN, x - 1, 0);
 1229              		.loc 1 738 9 is_stmt 1 view .LVU371
 738:../../Middlewares/LVGL/GUI/lvgl/src/indev/lv_indev_scroll.c ****         d = find_snap_point_x(scroll_obj, LV_COORD_MIN, x - 1, 0);
 1230              		.loc 1 738 11 is_stmt 0 view .LVU372
 1231 0058 6FF06043 		mvn	r3, #-536870912
 1232 005c 9842     		cmp	r0, r3
 1233 005e 3BD0     		beq	.L88
 1234              	.L77:
 739:../../Middlewares/LVGL/GUI/lvgl/src/indev/lv_indev_scroll.c ****         if(d == LV_COORD_MAX) *has_start_snap = false;
 1235              		.loc 1 739 9 is_stmt 1 view .LVU373
 739:../../Middlewares/LVGL/GUI/lvgl/src/indev/lv_indev_scroll.c ****         if(d == LV_COORD_MAX) *has_start_snap = false;
 1236              		.loc 1 739 13 is_stmt 0 view .LVU374
 1237 0060 0023     		movs	r3, #0
 1238 0062 6A1E     		subs	r2, r5, #1
 1239 0064 4549     		ldr	r1, .L93
 1240 0066 2046     		mov	r0, r4
 1241              	.LVL118:
 739:../../Middlewares/LVGL/GUI/lvgl/src/indev/lv_indev_scroll.c ****         if(d == LV_COORD_MAX) *has_start_snap = false;
 1242              		.loc 1 739 13 view .LVU375
 1243 0068 FFF7FEFF 		bl	find_snap_point_x
 1244              	.LVL119:
 740:../../Middlewares/LVGL/GUI/lvgl/src/indev/lv_indev_scroll.c ****     }
 1245              		.loc 1 740 9 is_stmt 1 view .LVU376
 740:../../Middlewares/LVGL/GUI/lvgl/src/indev/lv_indev_scroll.c ****     }
 1246              		.loc 1 740 11 is_stmt 0 view .LVU377
 1247 006c 6FF06043 		mvn	r3, #-536870912
 1248 0070 9842     		cmp	r0, r3
ARM GAS  C:\Users\28576\AppData\Local\Temp\ccZznpky.s 			page 44


 1249 0072 64D1     		bne	.L68
 740:../../Middlewares/LVGL/GUI/lvgl/src/indev/lv_indev_scroll.c ****     }
 1250              		.loc 1 740 31 is_stmt 1 discriminator 1 view .LVU378
 740:../../Middlewares/LVGL/GUI/lvgl/src/indev/lv_indev_scroll.c ****     }
 1251              		.loc 1 740 47 is_stmt 0 discriminator 1 view .LVU379
 1252 0074 0023     		movs	r3, #0
 1253 0076 3B70     		strb	r3, [r7]
 1254 0078 61E0     		b	.L68
 1255              	.LVL120:
 1256              	.L73:
 1257              	.LBB100:
 720:../../Middlewares/LVGL/GUI/lvgl/src/indev/lv_indev_scroll.c ****                     int32_t pad_right = lv_obj_get_style_pad_right(scroll_obj, 0);
 1258              		.loc 1 720 21 is_stmt 1 view .LVU380
 1259              	.LBB101:
 1260              	.LBI101:
 166:../../Middlewares/LVGL/GUI/lvgl/src/indev/../core/lv_obj_style_gen.h **** {
 1261              		.loc 2 166 23 view .LVU381
 1262              	.LBB102:
 168:../../Middlewares/LVGL/GUI/lvgl/src/indev/../core/lv_obj_style_gen.h ****     return (int32_t)v.num;
 1263              		.loc 2 168 5 view .LVU382
 168:../../Middlewares/LVGL/GUI/lvgl/src/indev/../core/lv_obj_style_gen.h ****     return (int32_t)v.num;
 1264              		.loc 2 168 26 is_stmt 0 view .LVU383
 1265 007a 1222     		movs	r2, #18
 1266 007c 0021     		movs	r1, #0
 1267 007e 2046     		mov	r0, r4
 1268              	.LVL121:
 168:../../Middlewares/LVGL/GUI/lvgl/src/indev/../core/lv_obj_style_gen.h ****     return (int32_t)v.num;
 1269              		.loc 2 168 26 view .LVU384
 1270 0080 FFF7FEFF 		bl	lv_obj_get_style_prop
 1271              	.LVL122:
 1272 0084 0646     		mov	r6, r0
 1273 0086 0190     		str	r0, [sp, #4]
 169:../../Middlewares/LVGL/GUI/lvgl/src/indev/../core/lv_obj_style_gen.h **** }
 1274              		.loc 2 169 5 is_stmt 1 view .LVU385
 1275              	.LVL123:
 169:../../Middlewares/LVGL/GUI/lvgl/src/indev/../core/lv_obj_style_gen.h **** }
 1276              		.loc 2 169 5 is_stmt 0 view .LVU386
 1277              	.LBE102:
 1278              	.LBE101:
 721:../../Middlewares/LVGL/GUI/lvgl/src/indev/lv_indev_scroll.c ****                     x = scroll_obj->coords.x1;
 1279              		.loc 1 721 21 is_stmt 1 view .LVU387
 1280              	.LBB103:
 1281              	.LBI103:
 172:../../Middlewares/LVGL/GUI/lvgl/src/indev/../core/lv_obj_style_gen.h **** {
 1282              		.loc 2 172 23 view .LVU388
 1283              	.LBB104:
 174:../../Middlewares/LVGL/GUI/lvgl/src/indev/../core/lv_obj_style_gen.h ****     return (int32_t)v.num;
 1284              		.loc 2 174 5 view .LVU389
 174:../../Middlewares/LVGL/GUI/lvgl/src/indev/../core/lv_obj_style_gen.h ****     return (int32_t)v.num;
 1285              		.loc 2 174 26 is_stmt 0 view .LVU390
 1286 0088 1322     		movs	r2, #19
 1287 008a 0021     		movs	r1, #0
 1288 008c 2046     		mov	r0, r4
 1289              	.LVL124:
 174:../../Middlewares/LVGL/GUI/lvgl/src/indev/../core/lv_obj_style_gen.h ****     return (int32_t)v.num;
 1290              		.loc 2 174 26 view .LVU391
 1291 008e FFF7FEFF 		bl	lv_obj_get_style_prop
ARM GAS  C:\Users\28576\AppData\Local\Temp\ccZznpky.s 			page 45


 1292              	.LVL125:
 1293 0092 0546     		mov	r5, r0
 1294 0094 0190     		str	r0, [sp, #4]
 1295              		.loc 2 175 5 is_stmt 1 view .LVU392
 1296              	.LVL126:
 1297              		.loc 2 175 5 is_stmt 0 view .LVU393
 1298              	.LBE104:
 1299              	.LBE103:
 722:../../Middlewares/LVGL/GUI/lvgl/src/indev/lv_indev_scroll.c ****                     x += (lv_area_get_width(&scroll_obj->coords) - pad_left - pad_right) / 2;
 1300              		.loc 1 722 21 is_stmt 1 view .LVU394
 722:../../Middlewares/LVGL/GUI/lvgl/src/indev/lv_indev_scroll.c ****                     x += (lv_area_get_width(&scroll_obj->coords) - pad_left - pad_right) / 2;
 1301              		.loc 1 722 23 is_stmt 0 view .LVU395
 1302 0096 2046     		mov	r0, r4
 1303              	.LVL127:
 722:../../Middlewares/LVGL/GUI/lvgl/src/indev/lv_indev_scroll.c ****                     x += (lv_area_get_width(&scroll_obj->coords) - pad_left - pad_right) / 2;
 1304              		.loc 1 722 23 view .LVU396
 1305 0098 50F8143F 		ldr	r3, [r0, #20]!
 1306 009c 9946     		mov	r9, r3
 1307              	.LVL128:
 723:../../Middlewares/LVGL/GUI/lvgl/src/indev/lv_indev_scroll.c ****                     x += pad_left;
 1308              		.loc 1 723 21 is_stmt 1 view .LVU397
 723:../../Middlewares/LVGL/GUI/lvgl/src/indev/lv_indev_scroll.c ****                     x += pad_left;
 1309              		.loc 1 723 27 is_stmt 0 view .LVU398
 1310 009e FFF7FEFF 		bl	lv_area_get_width
 1311              	.LVL129:
 723:../../Middlewares/LVGL/GUI/lvgl/src/indev/lv_indev_scroll.c ****                     x += pad_left;
 1312              		.loc 1 723 66 discriminator 1 view .LVU399
 1313 00a2 831B     		subs	r3, r0, r6
 723:../../Middlewares/LVGL/GUI/lvgl/src/indev/lv_indev_scroll.c ****                     x += pad_left;
 1314              		.loc 1 723 90 discriminator 1 view .LVU400
 1315 00a4 5B1B     		subs	r3, r3, r5
 1316 00a6 03D4     		bmi	.L89
 1317              	.L76:
 723:../../Middlewares/LVGL/GUI/lvgl/src/indev/lv_indev_scroll.c ****                     x += pad_left;
 1318              		.loc 1 723 23 discriminator 1 view .LVU401
 1319 00a8 09EB6305 		add	r5, r9, r3, asr #1
 1320              	.LVL130:
 724:../../Middlewares/LVGL/GUI/lvgl/src/indev/lv_indev_scroll.c ****                 }
 1321              		.loc 1 724 21 is_stmt 1 view .LVU402
 724:../../Middlewares/LVGL/GUI/lvgl/src/indev/lv_indev_scroll.c ****                 }
 1322              		.loc 1 724 23 is_stmt 0 view .LVU403
 1323 00ac 3544     		add	r5, r5, r6
 1324              	.LVL131:
 724:../../Middlewares/LVGL/GUI/lvgl/src/indev/lv_indev_scroll.c ****                 }
 1325              		.loc 1 724 23 view .LVU404
 1326              	.LBE100:
 726:../../Middlewares/LVGL/GUI/lvgl/src/indev/lv_indev_scroll.c ****             case LV_SCROLL_SNAP_START:
 1327              		.loc 1 726 17 is_stmt 1 view .LVU405
 1328 00ae CCE7     		b	.L75
 1329              	.LVL132:
 1330              	.L89:
 1331              	.LBB105:
 723:../../Middlewares/LVGL/GUI/lvgl/src/indev/lv_indev_scroll.c ****                     x += pad_left;
 1332              		.loc 1 723 90 is_stmt 0 discriminator 1 view .LVU406
 1333 00b0 0133     		adds	r3, r3, #1
 1334 00b2 F9E7     		b	.L76
 1335              	.LVL133:
ARM GAS  C:\Users\28576\AppData\Local\Temp\ccZznpky.s 			page 46


 1336              	.L74:
 723:../../Middlewares/LVGL/GUI/lvgl/src/indev/lv_indev_scroll.c ****                     x += pad_left;
 1337              		.loc 1 723 90 discriminator 1 view .LVU407
 1338              	.LBE105:
 728:../../Middlewares/LVGL/GUI/lvgl/src/indev/lv_indev_scroll.c ****                 break;
 1339              		.loc 1 728 17 is_stmt 1 view .LVU408
 728:../../Middlewares/LVGL/GUI/lvgl/src/indev/lv_indev_scroll.c ****                 break;
 1340              		.loc 1 728 39 is_stmt 0 view .LVU409
 1341 00b4 6569     		ldr	r5, [r4, #20]
 1342              	.LVL134:
 1343              	.LBB106:
 1344              	.LBI106:
 166:../../Middlewares/LVGL/GUI/lvgl/src/indev/../core/lv_obj_style_gen.h **** {
 1345              		.loc 2 166 23 is_stmt 1 view .LVU410
 1346              	.LBB107:
 168:../../Middlewares/LVGL/GUI/lvgl/src/indev/../core/lv_obj_style_gen.h ****     return (int32_t)v.num;
 1347              		.loc 2 168 5 view .LVU411
 168:../../Middlewares/LVGL/GUI/lvgl/src/indev/../core/lv_obj_style_gen.h ****     return (int32_t)v.num;
 1348              		.loc 2 168 26 is_stmt 0 view .LVU412
 1349 00b6 1222     		movs	r2, #18
 1350 00b8 0021     		movs	r1, #0
 1351 00ba 2046     		mov	r0, r4
 1352              	.LVL135:
 168:../../Middlewares/LVGL/GUI/lvgl/src/indev/../core/lv_obj_style_gen.h ****     return (int32_t)v.num;
 1353              		.loc 2 168 26 view .LVU413
 1354 00bc FFF7FEFF 		bl	lv_obj_get_style_prop
 1355              	.LVL136:
 1356 00c0 0190     		str	r0, [sp, #4]
 169:../../Middlewares/LVGL/GUI/lvgl/src/indev/../core/lv_obj_style_gen.h **** }
 1357              		.loc 2 169 5 is_stmt 1 view .LVU414
 1358              	.LVL137:
 169:../../Middlewares/LVGL/GUI/lvgl/src/indev/../core/lv_obj_style_gen.h **** }
 1359              		.loc 2 169 5 is_stmt 0 view .LVU415
 1360              	.LBE107:
 1361              	.LBE106:
 728:../../Middlewares/LVGL/GUI/lvgl/src/indev/lv_indev_scroll.c ****                 break;
 1362              		.loc 1 728 19 discriminator 1 view .LVU416
 1363 00c2 0544     		add	r5, r5, r0
 1364              	.LVL138:
 729:../../Middlewares/LVGL/GUI/lvgl/src/indev/lv_indev_scroll.c ****             case LV_SCROLL_SNAP_END:
 1365              		.loc 1 729 17 is_stmt 1 view .LVU417
 1366 00c4 C1E7     		b	.L75
 1367              	.LVL139:
 1368              	.L72:
 731:../../Middlewares/LVGL/GUI/lvgl/src/indev/lv_indev_scroll.c ****                 break;
 1369              		.loc 1 731 17 view .LVU418
 731:../../Middlewares/LVGL/GUI/lvgl/src/indev/lv_indev_scroll.c ****                 break;
 1370              		.loc 1 731 39 is_stmt 0 view .LVU419
 1371 00c6 E569     		ldr	r5, [r4, #28]
 1372              	.LVL140:
 1373              	.LBB108:
 1374              	.LBI108:
 172:../../Middlewares/LVGL/GUI/lvgl/src/indev/../core/lv_obj_style_gen.h **** {
 1375              		.loc 2 172 23 is_stmt 1 view .LVU420
 1376              	.LBB109:
 174:../../Middlewares/LVGL/GUI/lvgl/src/indev/../core/lv_obj_style_gen.h ****     return (int32_t)v.num;
 1377              		.loc 2 174 5 view .LVU421
ARM GAS  C:\Users\28576\AppData\Local\Temp\ccZznpky.s 			page 47


 174:../../Middlewares/LVGL/GUI/lvgl/src/indev/../core/lv_obj_style_gen.h ****     return (int32_t)v.num;
 1378              		.loc 2 174 26 is_stmt 0 view .LVU422
 1379 00c8 1322     		movs	r2, #19
 1380 00ca 0021     		movs	r1, #0
 1381 00cc 2046     		mov	r0, r4
 1382              	.LVL141:
 174:../../Middlewares/LVGL/GUI/lvgl/src/indev/../core/lv_obj_style_gen.h ****     return (int32_t)v.num;
 1383              		.loc 2 174 26 view .LVU423
 1384 00ce FFF7FEFF 		bl	lv_obj_get_style_prop
 1385              	.LVL142:
 1386 00d2 0190     		str	r0, [sp, #4]
 1387              		.loc 2 175 5 is_stmt 1 view .LVU424
 1388              	.LVL143:
 1389              		.loc 2 175 5 is_stmt 0 view .LVU425
 1390              	.LBE109:
 1391              	.LBE108:
 731:../../Middlewares/LVGL/GUI/lvgl/src/indev/lv_indev_scroll.c ****                 break;
 1392              		.loc 1 731 19 discriminator 1 view .LVU426
 1393 00d4 2D1A     		subs	r5, r5, r0
 1394              	.LVL144:
 732:../../Middlewares/LVGL/GUI/lvgl/src/indev/lv_indev_scroll.c ****             default:
 1395              		.loc 1 732 17 is_stmt 1 view .LVU427
 1396 00d6 B8E7     		b	.L75
 1397              	.LVL145:
 1398              	.L88:
 738:../../Middlewares/LVGL/GUI/lvgl/src/indev/lv_indev_scroll.c ****         d = find_snap_point_x(scroll_obj, LV_COORD_MIN, x - 1, 0);
 1399              		.loc 1 738 31 discriminator 1 view .LVU428
 738:../../Middlewares/LVGL/GUI/lvgl/src/indev/lv_indev_scroll.c ****         d = find_snap_point_x(scroll_obj, LV_COORD_MIN, x - 1, 0);
 1400              		.loc 1 738 45 is_stmt 0 discriminator 1 view .LVU429
 1401 00d8 0023     		movs	r3, #0
 1402 00da 88F80030 		strb	r3, [r8]
 1403 00de BFE7     		b	.L77
 1404              	.LVL146:
 1405              	.L80:
 738:../../Middlewares/LVGL/GUI/lvgl/src/indev/lv_indev_scroll.c ****         d = find_snap_point_x(scroll_obj, LV_COORD_MIN, x - 1, 0);
 1406              		.loc 1 738 45 discriminator 1 view .LVU430
 1407              	.LBE99:
 1408              	.LBB110:
 1409              	.LBB89:
 745:../../Middlewares/LVGL/GUI/lvgl/src/indev/lv_indev_scroll.c ****             case LV_SCROLL_SNAP_CENTER: {
 746:../../Middlewares/LVGL/GUI/lvgl/src/indev/lv_indev_scroll.c ****                     int32_t pad_top = lv_obj_get_style_pad_top(scroll_obj, 0);
 1410              		.loc 1 746 21 is_stmt 1 view .LVU431
 1411              	.LBB90:
 1412              	.LBI90:
 154:../../Middlewares/LVGL/GUI/lvgl/src/indev/../core/lv_obj_style_gen.h **** {
 1413              		.loc 2 154 23 view .LVU432
 1414              	.LBB91:
 156:../../Middlewares/LVGL/GUI/lvgl/src/indev/../core/lv_obj_style_gen.h ****     return (int32_t)v.num;
 1415              		.loc 2 156 5 view .LVU433
 156:../../Middlewares/LVGL/GUI/lvgl/src/indev/../core/lv_obj_style_gen.h ****     return (int32_t)v.num;
 1416              		.loc 2 156 26 is_stmt 0 view .LVU434
 1417 00e0 1022     		movs	r2, #16
 1418 00e2 0021     		movs	r1, #0
 1419 00e4 2046     		mov	r0, r4
 1420              	.LVL147:
 156:../../Middlewares/LVGL/GUI/lvgl/src/indev/../core/lv_obj_style_gen.h ****     return (int32_t)v.num;
 1421              		.loc 2 156 26 view .LVU435
ARM GAS  C:\Users\28576\AppData\Local\Temp\ccZznpky.s 			page 48


 1422 00e6 FFF7FEFF 		bl	lv_obj_get_style_prop
 1423              	.LVL148:
 1424 00ea 0646     		mov	r6, r0
 1425 00ec 0190     		str	r0, [sp, #4]
 157:../../Middlewares/LVGL/GUI/lvgl/src/indev/../core/lv_obj_style_gen.h **** }
 1426              		.loc 2 157 5 is_stmt 1 view .LVU436
 1427              	.LVL149:
 157:../../Middlewares/LVGL/GUI/lvgl/src/indev/../core/lv_obj_style_gen.h **** }
 1428              		.loc 2 157 5 is_stmt 0 view .LVU437
 1429              	.LBE91:
 1430              	.LBE90:
 747:../../Middlewares/LVGL/GUI/lvgl/src/indev/lv_indev_scroll.c ****                     int32_t pad_bottom = lv_obj_get_style_pad_bottom(scroll_obj, 0);
 1431              		.loc 1 747 21 is_stmt 1 view .LVU438
 1432              	.LBB92:
 1433              	.LBI92:
 160:../../Middlewares/LVGL/GUI/lvgl/src/indev/../core/lv_obj_style_gen.h **** {
 1434              		.loc 2 160 23 view .LVU439
 1435              	.LBB93:
 162:../../Middlewares/LVGL/GUI/lvgl/src/indev/../core/lv_obj_style_gen.h ****     return (int32_t)v.num;
 1436              		.loc 2 162 5 view .LVU440
 162:../../Middlewares/LVGL/GUI/lvgl/src/indev/../core/lv_obj_style_gen.h ****     return (int32_t)v.num;
 1437              		.loc 2 162 26 is_stmt 0 view .LVU441
 1438 00ee 1122     		movs	r2, #17
 1439 00f0 0021     		movs	r1, #0
 1440 00f2 2046     		mov	r0, r4
 1441              	.LVL150:
 162:../../Middlewares/LVGL/GUI/lvgl/src/indev/../core/lv_obj_style_gen.h ****     return (int32_t)v.num;
 1442              		.loc 2 162 26 view .LVU442
 1443 00f4 FFF7FEFF 		bl	lv_obj_get_style_prop
 1444              	.LVL151:
 1445 00f8 0546     		mov	r5, r0
 1446 00fa 0190     		str	r0, [sp, #4]
 163:../../Middlewares/LVGL/GUI/lvgl/src/indev/../core/lv_obj_style_gen.h **** }
 1447              		.loc 2 163 5 is_stmt 1 view .LVU443
 1448              	.LVL152:
 163:../../Middlewares/LVGL/GUI/lvgl/src/indev/../core/lv_obj_style_gen.h **** }
 1449              		.loc 2 163 5 is_stmt 0 view .LVU444
 1450              	.LBE93:
 1451              	.LBE92:
 748:../../Middlewares/LVGL/GUI/lvgl/src/indev/lv_indev_scroll.c ****                     y = scroll_obj->coords.y1;
 1452              		.loc 1 748 21 is_stmt 1 view .LVU445
 1453              		.loc 1 748 23 is_stmt 0 view .LVU446
 1454 00fc A369     		ldr	r3, [r4, #24]
 1455 00fe 9946     		mov	r9, r3
 1456              	.LVL153:
 749:../../Middlewares/LVGL/GUI/lvgl/src/indev/lv_indev_scroll.c ****                     y += (lv_area_get_height(&scroll_obj->coords) - pad_top - pad_bottom) / 2;
 1457              		.loc 1 749 21 is_stmt 1 view .LVU447
 1458              		.loc 1 749 27 is_stmt 0 view .LVU448
 1459 0100 04F11400 		add	r0, r4, #20
 1460              	.LVL154:
 1461              		.loc 1 749 27 view .LVU449
 1462 0104 FFF7FEFF 		bl	lv_area_get_height
 1463              	.LVL155:
 1464              		.loc 1 749 67 discriminator 1 view .LVU450
 1465 0108 831B     		subs	r3, r0, r6
 1466              		.loc 1 749 91 discriminator 1 view .LVU451
 1467 010a 5B1B     		subs	r3, r3, r5
ARM GAS  C:\Users\28576\AppData\Local\Temp\ccZznpky.s 			page 49


 1468 010c 1AD4     		bmi	.L90
 1469              	.L83:
 1470              		.loc 1 749 23 discriminator 1 view .LVU452
 1471 010e 09EB6305 		add	r5, r9, r3, asr #1
 1472              	.LVL156:
 750:../../Middlewares/LVGL/GUI/lvgl/src/indev/lv_indev_scroll.c ****                     y += pad_top;
 1473              		.loc 1 750 21 is_stmt 1 view .LVU453
 1474              		.loc 1 750 23 is_stmt 0 view .LVU454
 1475 0112 3544     		add	r5, r5, r6
 1476              	.LVL157:
 1477              		.loc 1 750 23 view .LVU455
 1478              	.LBE89:
 751:../../Middlewares/LVGL/GUI/lvgl/src/indev/lv_indev_scroll.c ****                 }
 752:../../Middlewares/LVGL/GUI/lvgl/src/indev/lv_indev_scroll.c ****                 break;
 1479              		.loc 1 752 17 is_stmt 1 view .LVU456
 1480              	.L82:
 753:../../Middlewares/LVGL/GUI/lvgl/src/indev/lv_indev_scroll.c ****             case LV_SCROLL_SNAP_START:
 754:../../Middlewares/LVGL/GUI/lvgl/src/indev/lv_indev_scroll.c ****                 y = scroll_obj->coords.y1 + lv_obj_get_style_pad_top(scroll_obj, 0);
 755:../../Middlewares/LVGL/GUI/lvgl/src/indev/lv_indev_scroll.c ****                 break;
 756:../../Middlewares/LVGL/GUI/lvgl/src/indev/lv_indev_scroll.c ****             case LV_SCROLL_SNAP_END:
 757:../../Middlewares/LVGL/GUI/lvgl/src/indev/lv_indev_scroll.c ****                 y = scroll_obj->coords.y2 - lv_obj_get_style_pad_bottom(scroll_obj, 0);
 758:../../Middlewares/LVGL/GUI/lvgl/src/indev/lv_indev_scroll.c ****                 break;
 759:../../Middlewares/LVGL/GUI/lvgl/src/indev/lv_indev_scroll.c ****             default:
 760:../../Middlewares/LVGL/GUI/lvgl/src/indev/lv_indev_scroll.c ****                 break;
 761:../../Middlewares/LVGL/GUI/lvgl/src/indev/lv_indev_scroll.c ****         }
 762:../../Middlewares/LVGL/GUI/lvgl/src/indev/lv_indev_scroll.c ****         int32_t d;
 1481              		.loc 1 762 9 view .LVU457
 763:../../Middlewares/LVGL/GUI/lvgl/src/indev/lv_indev_scroll.c ****         d = find_snap_point_y(scroll_obj, y + 1, LV_COORD_MAX, 0);
 1482              		.loc 1 763 9 view .LVU458
 1483              		.loc 1 763 13 is_stmt 0 view .LVU459
 1484 0114 0023     		movs	r3, #0
 1485 0116 6FF06042 		mvn	r2, #-536870912
 1486 011a 691C     		adds	r1, r5, #1
 1487 011c 2046     		mov	r0, r4
 1488 011e FFF7FEFF 		bl	find_snap_point_y
 1489              	.LVL158:
 764:../../Middlewares/LVGL/GUI/lvgl/src/indev/lv_indev_scroll.c ****         if(d == LV_COORD_MAX) *has_end_snap = false;
 1490              		.loc 1 764 9 is_stmt 1 view .LVU460
 1491              		.loc 1 764 11 is_stmt 0 view .LVU461
 1492 0122 6FF06043 		mvn	r3, #-536870912
 1493 0126 9842     		cmp	r0, r3
 1494 0128 20D0     		beq	.L91
 1495              	.L84:
 765:../../Middlewares/LVGL/GUI/lvgl/src/indev/lv_indev_scroll.c ****         d = find_snap_point_y(scroll_obj, LV_COORD_MIN, y - 1, 0);
 1496              		.loc 1 765 9 is_stmt 1 view .LVU462
 1497              		.loc 1 765 13 is_stmt 0 view .LVU463
 1498 012a 0023     		movs	r3, #0
 1499 012c 6A1E     		subs	r2, r5, #1
 1500 012e 1349     		ldr	r1, .L93
 1501 0130 2046     		mov	r0, r4
 1502              	.LVL159:
 1503              		.loc 1 765 13 view .LVU464
 1504 0132 FFF7FEFF 		bl	find_snap_point_y
 1505              	.LVL160:
 766:../../Middlewares/LVGL/GUI/lvgl/src/indev/lv_indev_scroll.c ****         if(d == LV_COORD_MAX) *has_start_snap = false;
 1506              		.loc 1 766 9 is_stmt 1 view .LVU465
 1507              		.loc 1 766 11 is_stmt 0 view .LVU466
ARM GAS  C:\Users\28576\AppData\Local\Temp\ccZznpky.s 			page 50


 1508 0136 6FF06043 		mvn	r3, #-536870912
 1509 013a 9842     		cmp	r0, r3
 1510 013c 1AD0     		beq	.L92
 1511              	.LVL161:
 1512              	.L68:
 1513              		.loc 1 766 11 view .LVU467
 1514              	.LBE110:
 767:../../Middlewares/LVGL/GUI/lvgl/src/indev/lv_indev_scroll.c ****     }
 768:../../Middlewares/LVGL/GUI/lvgl/src/indev/lv_indev_scroll.c **** }
 1515              		.loc 1 768 1 view .LVU468
 1516 013e 03B0     		add	sp, sp, #12
 1517              	.LCFI15:
 1518              		.cfi_remember_state
 1519              		.cfi_def_cfa_offset 28
 1520              		@ sp needed
 1521 0140 BDE8F083 		pop	{r4, r5, r6, r7, r8, r9, pc}
 1522              	.LVL162:
 1523              	.L90:
 1524              	.LCFI16:
 1525              		.cfi_restore_state
 1526              	.LBB111:
 1527              	.LBB94:
 749:../../Middlewares/LVGL/GUI/lvgl/src/indev/lv_indev_scroll.c ****                     y += pad_top;
 1528              		.loc 1 749 91 discriminator 1 view .LVU469
 1529 0144 0133     		adds	r3, r3, #1
 1530 0146 E2E7     		b	.L83
 1531              	.LVL163:
 1532              	.L81:
 749:../../Middlewares/LVGL/GUI/lvgl/src/indev/lv_indev_scroll.c ****                     y += pad_top;
 1533              		.loc 1 749 91 discriminator 1 view .LVU470
 1534              	.LBE94:
 754:../../Middlewares/LVGL/GUI/lvgl/src/indev/lv_indev_scroll.c ****                 break;
 1535              		.loc 1 754 17 is_stmt 1 view .LVU471
 754:../../Middlewares/LVGL/GUI/lvgl/src/indev/lv_indev_scroll.c ****                 break;
 1536              		.loc 1 754 39 is_stmt 0 view .LVU472
 1537 0148 A569     		ldr	r5, [r4, #24]
 1538              	.LVL164:
 1539              	.LBB95:
 1540              	.LBI95:
 154:../../Middlewares/LVGL/GUI/lvgl/src/indev/../core/lv_obj_style_gen.h **** {
 1541              		.loc 2 154 23 is_stmt 1 view .LVU473
 1542              	.LBB96:
 156:../../Middlewares/LVGL/GUI/lvgl/src/indev/../core/lv_obj_style_gen.h ****     return (int32_t)v.num;
 1543              		.loc 2 156 5 view .LVU474
 156:../../Middlewares/LVGL/GUI/lvgl/src/indev/../core/lv_obj_style_gen.h ****     return (int32_t)v.num;
 1544              		.loc 2 156 26 is_stmt 0 view .LVU475
 1545 014a 1022     		movs	r2, #16
 1546 014c 0021     		movs	r1, #0
 1547 014e 2046     		mov	r0, r4
 1548              	.LVL165:
 156:../../Middlewares/LVGL/GUI/lvgl/src/indev/../core/lv_obj_style_gen.h ****     return (int32_t)v.num;
 1549              		.loc 2 156 26 view .LVU476
 1550 0150 FFF7FEFF 		bl	lv_obj_get_style_prop
 1551              	.LVL166:
 1552 0154 0190     		str	r0, [sp, #4]
 157:../../Middlewares/LVGL/GUI/lvgl/src/indev/../core/lv_obj_style_gen.h **** }
 1553              		.loc 2 157 5 is_stmt 1 view .LVU477
ARM GAS  C:\Users\28576\AppData\Local\Temp\ccZznpky.s 			page 51


 1554              	.LVL167:
 157:../../Middlewares/LVGL/GUI/lvgl/src/indev/../core/lv_obj_style_gen.h **** }
 1555              		.loc 2 157 5 is_stmt 0 view .LVU478
 1556              	.LBE96:
 1557              	.LBE95:
 754:../../Middlewares/LVGL/GUI/lvgl/src/indev/lv_indev_scroll.c ****                 break;
 1558              		.loc 1 754 19 discriminator 1 view .LVU479
 1559 0156 0544     		add	r5, r5, r0
 1560              	.LVL168:
 755:../../Middlewares/LVGL/GUI/lvgl/src/indev/lv_indev_scroll.c ****             case LV_SCROLL_SNAP_END:
 1561              		.loc 1 755 17 is_stmt 1 view .LVU480
 1562 0158 DCE7     		b	.L82
 1563              	.LVL169:
 1564              	.L79:
 757:../../Middlewares/LVGL/GUI/lvgl/src/indev/lv_indev_scroll.c ****                 break;
 1565              		.loc 1 757 17 view .LVU481
 757:../../Middlewares/LVGL/GUI/lvgl/src/indev/lv_indev_scroll.c ****                 break;
 1566              		.loc 1 757 39 is_stmt 0 view .LVU482
 1567 015a 256A     		ldr	r5, [r4, #32]
 1568              	.LVL170:
 1569              	.LBB97:
 1570              	.LBI97:
 160:../../Middlewares/LVGL/GUI/lvgl/src/indev/../core/lv_obj_style_gen.h **** {
 1571              		.loc 2 160 23 is_stmt 1 view .LVU483
 1572              	.LBB98:
 162:../../Middlewares/LVGL/GUI/lvgl/src/indev/../core/lv_obj_style_gen.h ****     return (int32_t)v.num;
 1573              		.loc 2 162 5 view .LVU484
 162:../../Middlewares/LVGL/GUI/lvgl/src/indev/../core/lv_obj_style_gen.h ****     return (int32_t)v.num;
 1574              		.loc 2 162 26 is_stmt 0 view .LVU485
 1575 015c 1122     		movs	r2, #17
 1576 015e 0021     		movs	r1, #0
 1577 0160 2046     		mov	r0, r4
 1578              	.LVL171:
 162:../../Middlewares/LVGL/GUI/lvgl/src/indev/../core/lv_obj_style_gen.h ****     return (int32_t)v.num;
 1579              		.loc 2 162 26 view .LVU486
 1580 0162 FFF7FEFF 		bl	lv_obj_get_style_prop
 1581              	.LVL172:
 1582 0166 0190     		str	r0, [sp, #4]
 163:../../Middlewares/LVGL/GUI/lvgl/src/indev/../core/lv_obj_style_gen.h **** }
 1583              		.loc 2 163 5 is_stmt 1 view .LVU487
 1584              	.LVL173:
 163:../../Middlewares/LVGL/GUI/lvgl/src/indev/../core/lv_obj_style_gen.h **** }
 1585              		.loc 2 163 5 is_stmt 0 view .LVU488
 1586              	.LBE98:
 1587              	.LBE97:
 757:../../Middlewares/LVGL/GUI/lvgl/src/indev/lv_indev_scroll.c ****                 break;
 1588              		.loc 1 757 19 discriminator 1 view .LVU489
 1589 0168 2D1A     		subs	r5, r5, r0
 1590              	.LVL174:
 758:../../Middlewares/LVGL/GUI/lvgl/src/indev/lv_indev_scroll.c ****             default:
 1591              		.loc 1 758 17 is_stmt 1 view .LVU490
 1592 016a D3E7     		b	.L82
 1593              	.LVL175:
 1594              	.L91:
 764:../../Middlewares/LVGL/GUI/lvgl/src/indev/lv_indev_scroll.c ****         d = find_snap_point_y(scroll_obj, LV_COORD_MIN, y - 1, 0);
 1595              		.loc 1 764 31 discriminator 1 view .LVU491
 764:../../Middlewares/LVGL/GUI/lvgl/src/indev/lv_indev_scroll.c ****         d = find_snap_point_y(scroll_obj, LV_COORD_MIN, y - 1, 0);
ARM GAS  C:\Users\28576\AppData\Local\Temp\ccZznpky.s 			page 52


 1596              		.loc 1 764 45 is_stmt 0 discriminator 1 view .LVU492
 1597 016c 0023     		movs	r3, #0
 1598 016e 88F80030 		strb	r3, [r8]
 1599 0172 DAE7     		b	.L84
 1600              	.L92:
 766:../../Middlewares/LVGL/GUI/lvgl/src/indev/lv_indev_scroll.c ****     }
 1601              		.loc 1 766 31 is_stmt 1 discriminator 1 view .LVU493
 766:../../Middlewares/LVGL/GUI/lvgl/src/indev/lv_indev_scroll.c ****     }
 1602              		.loc 1 766 47 is_stmt 0 discriminator 1 view .LVU494
 1603 0174 0023     		movs	r3, #0
 1604 0176 3B70     		strb	r3, [r7]
 1605              	.LBE111:
 1606              		.loc 1 768 1 view .LVU495
 1607 0178 E1E7     		b	.L68
 1608              	.L94:
 1609 017a 00BF     		.align	2
 1610              	.L93:
 1611 017c 010000E0 		.word	-536870911
 1612              		.cfi_endproc
 1613              	.LFE182:
 1615              		.section	.text.elastic_diff,"ax",%progbits
 1616              		.align	1
 1617              		.syntax unified
 1618              		.thumb
 1619              		.thumb_func
 1621              	elastic_diff:
 1622              	.LVL176:
 1623              	.LFB181:
 643:../../Middlewares/LVGL/GUI/lvgl/src/indev/lv_indev_scroll.c ****     if(diff == 0) return 0;
 1624              		.loc 1 643 1 is_stmt 1 view -0
 1625              		.cfi_startproc
 1626              		@ args = 4, pretend = 0, frame = 8
 1627              		@ frame_needed = 0, uses_anonymous_args = 0
 643:../../Middlewares/LVGL/GUI/lvgl/src/indev/lv_indev_scroll.c ****     if(diff == 0) return 0;
 1628              		.loc 1 643 1 is_stmt 0 view .LVU497
 1629 0000 2DE9F041 		push	{r4, r5, r6, r7, r8, lr}
 1630              	.LCFI17:
 1631              		.cfi_def_cfa_offset 24
 1632              		.cfi_offset 4, -24
 1633              		.cfi_offset 5, -20
 1634              		.cfi_offset 6, -16
 1635              		.cfi_offset 7, -12
 1636              		.cfi_offset 8, -8
 1637              		.cfi_offset 14, -4
 1638 0004 82B0     		sub	sp, sp, #8
 1639              	.LCFI18:
 1640              		.cfi_def_cfa_offset 32
 1641 0006 1E46     		mov	r6, r3
 1642 0008 9DF82030 		ldrb	r3, [sp, #32]	@ zero_extendqisi2
 1643              	.LVL177:
 644:../../Middlewares/LVGL/GUI/lvgl/src/indev/lv_indev_scroll.c **** 
 1644              		.loc 1 644 5 is_stmt 1 view .LVU498
 644:../../Middlewares/LVGL/GUI/lvgl/src/indev/lv_indev_scroll.c **** 
 1645              		.loc 1 644 7 is_stmt 0 view .LVU499
 1646 000c 0C46     		mov	r4, r1
 1647 000e 19B9     		cbnz	r1, .L113
 1648              	.LVL178:
ARM GAS  C:\Users\28576\AppData\Local\Temp\ccZznpky.s 			page 53


 1649              	.L96:
 695:../../Middlewares/LVGL/GUI/lvgl/src/indev/lv_indev_scroll.c **** 
 1650              		.loc 1 695 1 view .LVU500
 1651 0010 2046     		mov	r0, r4
 1652 0012 02B0     		add	sp, sp, #8
 1653              	.LCFI19:
 1654              		.cfi_remember_state
 1655              		.cfi_def_cfa_offset 24
 1656              		@ sp needed
 1657 0014 BDE8F081 		pop	{r4, r5, r6, r7, r8, pc}
 1658              	.LVL179:
 1659              	.L113:
 1660              	.LCFI20:
 1661              		.cfi_restore_state
 695:../../Middlewares/LVGL/GUI/lvgl/src/indev/lv_indev_scroll.c **** 
 1662              		.loc 1 695 1 view .LVU501
 1663 0018 0746     		mov	r7, r0
 1664 001a 1546     		mov	r5, r2
 1665 001c 9846     		mov	r8, r3
 647:../../Middlewares/LVGL/GUI/lvgl/src/indev/lv_indev_scroll.c ****         /*
 1666              		.loc 1 647 5 is_stmt 1 view .LVU502
 647:../../Middlewares/LVGL/GUI/lvgl/src/indev/lv_indev_scroll.c ****         /*
 1667              		.loc 1 647 9 is_stmt 0 view .LVU503
 1668 001e 2021     		movs	r1, #32
 1669              	.LVL180:
 647:../../Middlewares/LVGL/GUI/lvgl/src/indev/lv_indev_scroll.c ****         /*
 1670              		.loc 1 647 9 view .LVU504
 1671 0020 FFF7FEFF 		bl	lv_obj_has_flag
 1672              	.LVL181:
 647:../../Middlewares/LVGL/GUI/lvgl/src/indev/lv_indev_scroll.c ****         /*
 1673              		.loc 1 647 7 discriminator 1 view .LVU505
 1674 0024 48B9     		cbnz	r0, .L97
 1675              	.LBB112:
 654:../../Middlewares/LVGL/GUI/lvgl/src/indev/lv_indev_scroll.c ****         if(scroll_ended < 0) diff = 0;
 1676              		.loc 1 654 9 is_stmt 1 view .LVU506
 654:../../Middlewares/LVGL/GUI/lvgl/src/indev/lv_indev_scroll.c ****         if(scroll_ended < 0) diff = 0;
 1677              		.loc 1 654 62 is_stmt 0 view .LVU507
 1678 0026 8442     		cmp	r4, r0
 1679 0028 00DD     		ble	.L98
 654:../../Middlewares/LVGL/GUI/lvgl/src/indev/lv_indev_scroll.c ****         if(scroll_ended < 0) diff = 0;
 1680              		.loc 1 654 23 discriminator 1 view .LVU508
 1681 002a 2E46     		mov	r6, r5
 1682              	.LVL182:
 1683              	.L98:
 655:../../Middlewares/LVGL/GUI/lvgl/src/indev/lv_indev_scroll.c ****         else if(scroll_ended - diff < 0) diff = scroll_ended;
 1684              		.loc 1 655 9 is_stmt 1 view .LVU509
 655:../../Middlewares/LVGL/GUI/lvgl/src/indev/lv_indev_scroll.c ****         else if(scroll_ended - diff < 0) diff = scroll_ended;
 1685              		.loc 1 655 11 is_stmt 0 view .LVU510
 1686 002c 002E     		cmp	r6, #0
 1687 002e 3DDB     		blt	.L110
 656:../../Middlewares/LVGL/GUI/lvgl/src/indev/lv_indev_scroll.c ****     }
 1688              		.loc 1 656 14 is_stmt 1 view .LVU511
 656:../../Middlewares/LVGL/GUI/lvgl/src/indev/lv_indev_scroll.c ****     }
 1689              		.loc 1 656 30 is_stmt 0 view .LVU512
 1690 0030 331B     		subs	r3, r6, r4
 656:../../Middlewares/LVGL/GUI/lvgl/src/indev/lv_indev_scroll.c ****     }
 1691              		.loc 1 656 16 view .LVU513
ARM GAS  C:\Users\28576\AppData\Local\Temp\ccZznpky.s 			page 54


 1692 0032 002B     		cmp	r3, #0
 1693 0034 ECDA     		bge	.L96
 656:../../Middlewares/LVGL/GUI/lvgl/src/indev/lv_indev_scroll.c ****     }
 1694              		.loc 1 656 47 discriminator 1 view .LVU514
 1695 0036 3446     		mov	r4, r6
 1696              	.LVL183:
 656:../../Middlewares/LVGL/GUI/lvgl/src/indev/lv_indev_scroll.c ****     }
 1697              		.loc 1 656 47 discriminator 1 view .LVU515
 1698 0038 EAE7     		b	.L96
 1699              	.LVL184:
 1700              	.L97:
 656:../../Middlewares/LVGL/GUI/lvgl/src/indev/lv_indev_scroll.c ****     }
 1701              		.loc 1 656 47 discriminator 1 view .LVU516
 1702              	.LBE112:
 1703              	.LBB113:
 661:../../Middlewares/LVGL/GUI/lvgl/src/indev/lv_indev_scroll.c ****         snap = dir == LV_DIR_HOR ? lv_obj_get_scroll_snap_x(scroll_obj) : lv_obj_get_scroll_snap_y(
 1704              		.loc 1 661 9 is_stmt 1 view .LVU517
 662:../../Middlewares/LVGL/GUI/lvgl/src/indev/lv_indev_scroll.c **** 
 1705              		.loc 1 662 9 view .LVU518
 662:../../Middlewares/LVGL/GUI/lvgl/src/indev/lv_indev_scroll.c **** 
 1706              		.loc 1 662 73 is_stmt 0 view .LVU519
 1707 003a 4346     		mov	r3, r8
 1708 003c 032B     		cmp	r3, #3
 1709 003e 0CD0     		beq	.L114
 662:../../Middlewares/LVGL/GUI/lvgl/src/indev/lv_indev_scroll.c **** 
 1710              		.loc 1 662 75 discriminator 2 view .LVU520
 1711 0040 3846     		mov	r0, r7
 1712 0042 FFF7FEFF 		bl	lv_obj_get_scroll_snap_y
 1713              	.LVL185:
 1714              	.L100:
 665:../../Middlewares/LVGL/GUI/lvgl/src/indev/lv_indev_scroll.c ****             if(scroll_end < 0 || scroll_start < 0) {
 1715              		.loc 1 665 9 is_stmt 1 view .LVU521
 665:../../Middlewares/LVGL/GUI/lvgl/src/indev/lv_indev_scroll.c ****             if(scroll_end < 0 || scroll_start < 0) {
 1716              		.loc 1 665 11 is_stmt 0 view .LVU522
 1717 0046 A0B9     		cbnz	r0, .L101
 666:../../Middlewares/LVGL/GUI/lvgl/src/indev/lv_indev_scroll.c ****                 /*Rounding*/
 1718              		.loc 1 666 13 is_stmt 1 view .LVU523
 666:../../Middlewares/LVGL/GUI/lvgl/src/indev/lv_indev_scroll.c ****                 /*Rounding*/
 1719              		.loc 1 666 15 is_stmt 0 view .LVU524
 1720 0048 3346     		mov	r3, r6
 1721 004a 2B43     		orrs	r3, r3, r5
 1722              	.LVL186:
 666:../../Middlewares/LVGL/GUI/lvgl/src/indev/lv_indev_scroll.c ****                 /*Rounding*/
 1723              		.loc 1 666 15 view .LVU525
 1724 004c E0D5     		bpl	.L96
 668:../../Middlewares/LVGL/GUI/lvgl/src/indev/lv_indev_scroll.c ****                 if(diff > 0) diff += ELASTIC_SLOWNESS_FACTOR / 2;
 1725              		.loc 1 668 17 is_stmt 1 view .LVU526
 668:../../Middlewares/LVGL/GUI/lvgl/src/indev/lv_indev_scroll.c ****                 if(diff > 0) diff += ELASTIC_SLOWNESS_FACTOR / 2;
 1726              		.loc 1 668 19 is_stmt 0 view .LVU527
 1727 004e 8442     		cmp	r4, r0
 1728 0050 07DB     		blt	.L115
 669:../../Middlewares/LVGL/GUI/lvgl/src/indev/lv_indev_scroll.c ****                 return diff / ELASTIC_SLOWNESS_FACTOR;
 1729              		.loc 1 669 17 is_stmt 1 view .LVU528
 669:../../Middlewares/LVGL/GUI/lvgl/src/indev/lv_indev_scroll.c ****                 return diff / ELASTIC_SLOWNESS_FACTOR;
 1730              		.loc 1 669 19 is_stmt 0 view .LVU529
 1731 0052 002C     		cmp	r4, #0
 1732 0054 06DD     		ble	.L104
ARM GAS  C:\Users\28576\AppData\Local\Temp\ccZznpky.s 			page 55


 669:../../Middlewares/LVGL/GUI/lvgl/src/indev/lv_indev_scroll.c ****                 return diff / ELASTIC_SLOWNESS_FACTOR;
 1733              		.loc 1 669 30 is_stmt 1 discriminator 1 view .LVU530
 669:../../Middlewares/LVGL/GUI/lvgl/src/indev/lv_indev_scroll.c ****                 return diff / ELASTIC_SLOWNESS_FACTOR;
 1734              		.loc 1 669 35 is_stmt 0 discriminator 1 view .LVU531
 1735 0056 0234     		adds	r4, r4, #2
 1736              	.LVL187:
 669:../../Middlewares/LVGL/GUI/lvgl/src/indev/lv_indev_scroll.c ****                 return diff / ELASTIC_SLOWNESS_FACTOR;
 1737              		.loc 1 669 35 discriminator 1 view .LVU532
 1738 0058 04E0     		b	.L104
 1739              	.LVL188:
 1740              	.L114:
 662:../../Middlewares/LVGL/GUI/lvgl/src/indev/lv_indev_scroll.c **** 
 1741              		.loc 1 662 36 discriminator 1 view .LVU533
 1742 005a 3846     		mov	r0, r7
 1743 005c FFF7FEFF 		bl	lv_obj_get_scroll_snap_x
 1744              	.LVL189:
 662:../../Middlewares/LVGL/GUI/lvgl/src/indev/lv_indev_scroll.c **** 
 1745              		.loc 1 662 36 discriminator 1 view .LVU534
 1746 0060 F1E7     		b	.L100
 1747              	.LVL190:
 1748              	.L115:
 668:../../Middlewares/LVGL/GUI/lvgl/src/indev/lv_indev_scroll.c ****                 if(diff > 0) diff += ELASTIC_SLOWNESS_FACTOR / 2;
 1749              		.loc 1 668 30 is_stmt 1 discriminator 1 view .LVU535
 668:../../Middlewares/LVGL/GUI/lvgl/src/indev/lv_indev_scroll.c ****                 if(diff > 0) diff += ELASTIC_SLOWNESS_FACTOR / 2;
 1750              		.loc 1 668 35 is_stmt 0 discriminator 1 view .LVU536
 1751 0062 023C     		subs	r4, r4, #2
 1752              	.LVL191:
 669:../../Middlewares/LVGL/GUI/lvgl/src/indev/lv_indev_scroll.c ****                 return diff / ELASTIC_SLOWNESS_FACTOR;
 1753              		.loc 1 669 17 is_stmt 1 view .LVU537
 1754              	.L104:
 670:../../Middlewares/LVGL/GUI/lvgl/src/indev/lv_indev_scroll.c ****             }
 1755              		.loc 1 670 17 view .LVU538
 670:../../Middlewares/LVGL/GUI/lvgl/src/indev/lv_indev_scroll.c ****             }
 1756              		.loc 1 670 29 is_stmt 0 view .LVU539
 1757 0064 2346     		mov	r3, r4
 1758 0066 002C     		cmp	r4, #0
 1759 0068 01DB     		blt	.L116
 1760              	.L105:
 670:../../Middlewares/LVGL/GUI/lvgl/src/indev/lv_indev_scroll.c ****             }
 1761              		.loc 1 670 29 view .LVU540
 1762 006a 9C10     		asrs	r4, r3, #2
 1763              	.LVL192:
 670:../../Middlewares/LVGL/GUI/lvgl/src/indev/lv_indev_scroll.c ****             }
 1764              		.loc 1 670 29 view .LVU541
 1765 006c D0E7     		b	.L96
 1766              	.LVL193:
 1767              	.L116:
 670:../../Middlewares/LVGL/GUI/lvgl/src/indev/lv_indev_scroll.c ****             }
 1768              		.loc 1 670 29 view .LVU542
 1769 006e E31C     		adds	r3, r4, #3
 1770              	.LVL194:
 670:../../Middlewares/LVGL/GUI/lvgl/src/indev/lv_indev_scroll.c ****             }
 1771              		.loc 1 670 29 view .LVU543
 1772 0070 FBE7     		b	.L105
 1773              	.LVL195:
 1774              	.L101:
 679:../../Middlewares/LVGL/GUI/lvgl/src/indev/lv_indev_scroll.c ****         bool has_end_snap;
ARM GAS  C:\Users\28576\AppData\Local\Temp\ccZznpky.s 			page 56


 1775              		.loc 1 679 9 is_stmt 1 view .LVU544
 680:../../Middlewares/LVGL/GUI/lvgl/src/indev/lv_indev_scroll.c ****         has_more_snap_points(scroll_obj, dir, &has_start_snap, &has_end_snap);
 1776              		.loc 1 680 9 view .LVU545
 681:../../Middlewares/LVGL/GUI/lvgl/src/indev/lv_indev_scroll.c **** 
 1777              		.loc 1 681 9 view .LVU546
 1778 0072 0DF10703 		add	r3, sp, #7
 1779 0076 0DF10602 		add	r2, sp, #6
 1780 007a 4146     		mov	r1, r8
 1781 007c 3846     		mov	r0, r7
 1782              	.LVL196:
 681:../../Middlewares/LVGL/GUI/lvgl/src/indev/lv_indev_scroll.c **** 
 1783              		.loc 1 681 9 is_stmt 0 view .LVU547
 1784 007e FFF7FEFF 		bl	has_more_snap_points
 1785              	.LVL197:
 683:../../Middlewares/LVGL/GUI/lvgl/src/indev/lv_indev_scroll.c ****             /*Rounding*/
 1786              		.loc 1 683 9 is_stmt 1 view .LVU548
 683:../../Middlewares/LVGL/GUI/lvgl/src/indev/lv_indev_scroll.c ****             /*Rounding*/
 1787              		.loc 1 683 12 is_stmt 0 view .LVU549
 1788 0082 9DF80630 		ldrb	r3, [sp, #6]	@ zero_extendqisi2
 683:../../Middlewares/LVGL/GUI/lvgl/src/indev/lv_indev_scroll.c ****             /*Rounding*/
 1789              		.loc 1 683 11 view .LVU550
 1790 0086 1BB1     		cbz	r3, .L106
 683:../../Middlewares/LVGL/GUI/lvgl/src/indev/lv_indev_scroll.c ****             /*Rounding*/
 1791              		.loc 1 683 31 discriminator 1 view .LVU551
 1792 0088 9DF80730 		ldrb	r3, [sp, #7]	@ zero_extendqisi2
 683:../../Middlewares/LVGL/GUI/lvgl/src/indev/lv_indev_scroll.c ****             /*Rounding*/
 1793              		.loc 1 683 28 discriminator 1 view .LVU552
 1794 008c 002B     		cmp	r3, #0
 1795 008e BFD1     		bne	.L96
 1796              	.L106:
 685:../../Middlewares/LVGL/GUI/lvgl/src/indev/lv_indev_scroll.c ****             if(diff > 0) diff += ELASTIC_SLOWNESS_FACTOR / 2;
 1797              		.loc 1 685 13 is_stmt 1 view .LVU553
 685:../../Middlewares/LVGL/GUI/lvgl/src/indev/lv_indev_scroll.c ****             if(diff > 0) diff += ELASTIC_SLOWNESS_FACTOR / 2;
 1798              		.loc 1 685 15 is_stmt 0 view .LVU554
 1799 0090 9C42     		cmp	r4, r3
 1800 0092 03DB     		blt	.L117
 686:../../Middlewares/LVGL/GUI/lvgl/src/indev/lv_indev_scroll.c ****             return diff / ELASTIC_SLOWNESS_FACTOR;
 1801              		.loc 1 686 13 is_stmt 1 view .LVU555
 686:../../Middlewares/LVGL/GUI/lvgl/src/indev/lv_indev_scroll.c ****             return diff / ELASTIC_SLOWNESS_FACTOR;
 1802              		.loc 1 686 15 is_stmt 0 view .LVU556
 1803 0094 002C     		cmp	r4, #0
 1804 0096 02DD     		ble	.L108
 686:../../Middlewares/LVGL/GUI/lvgl/src/indev/lv_indev_scroll.c ****             return diff / ELASTIC_SLOWNESS_FACTOR;
 1805              		.loc 1 686 26 is_stmt 1 discriminator 1 view .LVU557
 686:../../Middlewares/LVGL/GUI/lvgl/src/indev/lv_indev_scroll.c ****             return diff / ELASTIC_SLOWNESS_FACTOR;
 1806              		.loc 1 686 31 is_stmt 0 discriminator 1 view .LVU558
 1807 0098 0234     		adds	r4, r4, #2
 1808              	.LVL198:
 686:../../Middlewares/LVGL/GUI/lvgl/src/indev/lv_indev_scroll.c ****             return diff / ELASTIC_SLOWNESS_FACTOR;
 1809              		.loc 1 686 31 discriminator 1 view .LVU559
 1810 009a 00E0     		b	.L108
 1811              	.LVL199:
 1812              	.L117:
 685:../../Middlewares/LVGL/GUI/lvgl/src/indev/lv_indev_scroll.c ****             if(diff > 0) diff += ELASTIC_SLOWNESS_FACTOR / 2;
 1813              		.loc 1 685 26 is_stmt 1 discriminator 1 view .LVU560
 685:../../Middlewares/LVGL/GUI/lvgl/src/indev/lv_indev_scroll.c ****             if(diff > 0) diff += ELASTIC_SLOWNESS_FACTOR / 2;
 1814              		.loc 1 685 31 is_stmt 0 discriminator 1 view .LVU561
ARM GAS  C:\Users\28576\AppData\Local\Temp\ccZznpky.s 			page 57


 1815 009c 023C     		subs	r4, r4, #2
 1816              	.LVL200:
 686:../../Middlewares/LVGL/GUI/lvgl/src/indev/lv_indev_scroll.c ****             return diff / ELASTIC_SLOWNESS_FACTOR;
 1817              		.loc 1 686 13 is_stmt 1 view .LVU562
 1818              	.L108:
 687:../../Middlewares/LVGL/GUI/lvgl/src/indev/lv_indev_scroll.c ****         }
 1819              		.loc 1 687 13 view .LVU563
 687:../../Middlewares/LVGL/GUI/lvgl/src/indev/lv_indev_scroll.c ****         }
 1820              		.loc 1 687 25 is_stmt 0 view .LVU564
 1821 009e 2346     		mov	r3, r4
 1822 00a0 002C     		cmp	r4, #0
 1823 00a2 01DB     		blt	.L118
 1824              	.L109:
 687:../../Middlewares/LVGL/GUI/lvgl/src/indev/lv_indev_scroll.c ****         }
 1825              		.loc 1 687 25 view .LVU565
 1826 00a4 9C10     		asrs	r4, r3, #2
 1827              	.LVL201:
 687:../../Middlewares/LVGL/GUI/lvgl/src/indev/lv_indev_scroll.c ****         }
 1828              		.loc 1 687 25 view .LVU566
 1829 00a6 B3E7     		b	.L96
 1830              	.LVL202:
 1831              	.L118:
 687:../../Middlewares/LVGL/GUI/lvgl/src/indev/lv_indev_scroll.c ****         }
 1832              		.loc 1 687 25 view .LVU567
 1833 00a8 E31C     		adds	r3, r4, #3
 1834              	.LVL203:
 687:../../Middlewares/LVGL/GUI/lvgl/src/indev/lv_indev_scroll.c ****         }
 1835              		.loc 1 687 25 view .LVU568
 1836 00aa FBE7     		b	.L109
 1837              	.LVL204:
 1838              	.L110:
 687:../../Middlewares/LVGL/GUI/lvgl/src/indev/lv_indev_scroll.c ****         }
 1839              		.loc 1 687 25 view .LVU569
 1840              	.LBE113:
 1841              	.LBB114:
 655:../../Middlewares/LVGL/GUI/lvgl/src/indev/lv_indev_scroll.c ****         else if(scroll_ended - diff < 0) diff = scroll_ended;
 1842              		.loc 1 655 35 discriminator 1 view .LVU570
 1843 00ac 0024     		movs	r4, #0
 1844              	.LVL205:
 655:../../Middlewares/LVGL/GUI/lvgl/src/indev/lv_indev_scroll.c ****         else if(scroll_ended - diff < 0) diff = scroll_ended;
 1845              		.loc 1 655 35 discriminator 1 view .LVU571
 1846 00ae AFE7     		b	.L96
 1847              	.LBE114:
 1848              		.cfi_endproc
 1849              	.LFE181:
 1851              		.section	.text.lv_indev_scroll_throw_predict,"ax",%progbits
 1852              		.align	1
 1853              		.global	lv_indev_scroll_throw_predict
 1854              		.syntax unified
 1855              		.thumb
 1856              		.thumb_func
 1858              	lv_indev_scroll_throw_predict:
 1859              	.LVL206:
 1860              	.LFB174:
 237:../../Middlewares/LVGL/GUI/lvgl/src/indev/lv_indev_scroll.c ****     if(indev == NULL) return 0;
 1861              		.loc 1 237 1 is_stmt 1 view -0
 1862              		.cfi_startproc
ARM GAS  C:\Users\28576\AppData\Local\Temp\ccZznpky.s 			page 58


 1863              		@ args = 0, pretend = 0, frame = 0
 1864              		@ frame_needed = 0, uses_anonymous_args = 0
 1865              		@ link register save eliminated.
 238:../../Middlewares/LVGL/GUI/lvgl/src/indev/lv_indev_scroll.c ****     int32_t v;
 1866              		.loc 1 238 5 view .LVU573
 238:../../Middlewares/LVGL/GUI/lvgl/src/indev/lv_indev_scroll.c ****     int32_t v;
 1867              		.loc 1 238 7 is_stmt 0 view .LVU574
 1868 0000 0246     		mov	r2, r0
 1869 0002 C8B1     		cbz	r0, .L119
 239:../../Middlewares/LVGL/GUI/lvgl/src/indev/lv_indev_scroll.c ****     switch(dir) {
 1870              		.loc 1 239 5 is_stmt 1 view .LVU575
 240:../../Middlewares/LVGL/GUI/lvgl/src/indev/lv_indev_scroll.c ****         case LV_DIR_VER:
 1871              		.loc 1 240 5 view .LVU576
 1872 0004 0329     		cmp	r1, #3
 1873 0006 06D0     		beq	.L121
 1874 0008 0C29     		cmp	r1, #12
 1875 000a 14D1     		bne	.L126
 242:../../Middlewares/LVGL/GUI/lvgl/src/indev/lv_indev_scroll.c ****             break;
 1876              		.loc 1 242 13 view .LVU577
 242:../../Middlewares/LVGL/GUI/lvgl/src/indev/lv_indev_scroll.c ****             break;
 1877              		.loc 1 242 15 is_stmt 0 view .LVU578
 1878 000c 436E     		ldr	r3, [r0, #100]
 1879              	.LVL207:
 243:../../Middlewares/LVGL/GUI/lvgl/src/indev/lv_indev_scroll.c ****         case LV_DIR_HOR:
 1880              		.loc 1 243 13 is_stmt 1 view .LVU579
 1881              	.L122:
 251:../../Middlewares/LVGL/GUI/lvgl/src/indev/lv_indev_scroll.c ****     int32_t sum = 0;
 1882              		.loc 1 251 5 view .LVU580
 251:../../Middlewares/LVGL/GUI/lvgl/src/indev/lv_indev_scroll.c ****     int32_t sum = 0;
 1883              		.loc 1 251 33 is_stmt 0 view .LVU581
 1884 000e 92F82510 		ldrb	r1, [r2, #37]	@ zero_extendqisi2
 1885              	.LVL208:
 252:../../Middlewares/LVGL/GUI/lvgl/src/indev/lv_indev_scroll.c ****     while(v) {
 1886              		.loc 1 252 5 is_stmt 1 view .LVU582
 253:../../Middlewares/LVGL/GUI/lvgl/src/indev/lv_indev_scroll.c ****         sum += v;
 1887              		.loc 1 253 5 view .LVU583
 252:../../Middlewares/LVGL/GUI/lvgl/src/indev/lv_indev_scroll.c ****     while(v) {
 1888              		.loc 1 252 13 is_stmt 0 view .LVU584
 1889 0012 0020     		movs	r0, #0
 1890              	.LVL209:
 253:../../Middlewares/LVGL/GUI/lvgl/src/indev/lv_indev_scroll.c ****         sum += v;
 1891              		.loc 1 253 10 view .LVU585
 1892 0014 0CE0     		b	.L123
 1893              	.LVL210:
 1894              	.L121:
 245:../../Middlewares/LVGL/GUI/lvgl/src/indev/lv_indev_scroll.c ****             break;
 1895              		.loc 1 245 13 is_stmt 1 view .LVU586
 245:../../Middlewares/LVGL/GUI/lvgl/src/indev/lv_indev_scroll.c ****             break;
 1896              		.loc 1 245 15 is_stmt 0 view .LVU587
 1897 0016 036E     		ldr	r3, [r0, #96]
 1898              	.LVL211:
 246:../../Middlewares/LVGL/GUI/lvgl/src/indev/lv_indev_scroll.c ****         default:
 1899              		.loc 1 246 13 is_stmt 1 view .LVU588
 1900 0018 F9E7     		b	.L122
 1901              	.LVL212:
 1902              	.L124:
 254:../../Middlewares/LVGL/GUI/lvgl/src/indev/lv_indev_scroll.c ****         v = v * (100 - scroll_throw) / 100;
ARM GAS  C:\Users\28576\AppData\Local\Temp\ccZznpky.s 			page 59


 1903              		.loc 1 254 9 view .LVU589
 254:../../Middlewares/LVGL/GUI/lvgl/src/indev/lv_indev_scroll.c ****         v = v * (100 - scroll_throw) / 100;
 1904              		.loc 1 254 13 is_stmt 0 view .LVU590
 1905 001a 1844     		add	r0, r0, r3
 1906              	.LVL213:
 255:../../Middlewares/LVGL/GUI/lvgl/src/indev/lv_indev_scroll.c ****     }
 1907              		.loc 1 255 9 is_stmt 1 view .LVU591
 255:../../Middlewares/LVGL/GUI/lvgl/src/indev/lv_indev_scroll.c ****     }
 1908              		.loc 1 255 22 is_stmt 0 view .LVU592
 1909 001c C1F16402 		rsb	r2, r1, #100
 255:../../Middlewares/LVGL/GUI/lvgl/src/indev/lv_indev_scroll.c ****     }
 1910              		.loc 1 255 15 view .LVU593
 1911 0020 03FB02F2 		mul	r2, r3, r2
 255:../../Middlewares/LVGL/GUI/lvgl/src/indev/lv_indev_scroll.c ****     }
 1912              		.loc 1 255 11 view .LVU594
 1913 0024 054B     		ldr	r3, .L127
 1914              	.LVL214:
 255:../../Middlewares/LVGL/GUI/lvgl/src/indev/lv_indev_scroll.c ****     }
 1915              		.loc 1 255 11 view .LVU595
 1916 0026 83FB02C3 		smull	ip, r3, r3, r2
 1917 002a D217     		asrs	r2, r2, #31
 1918 002c C2EB6313 		rsb	r3, r2, r3, asr #5
 1919              	.LVL215:
 1920              	.L123:
 253:../../Middlewares/LVGL/GUI/lvgl/src/indev/lv_indev_scroll.c ****         sum += v;
 1921              		.loc 1 253 11 is_stmt 1 view .LVU596
 1922 0030 002B     		cmp	r3, #0
 1923 0032 F2D1     		bne	.L124
 1924 0034 7047     		bx	lr
 1925              	.LVL216:
 1926              	.L126:
 240:../../Middlewares/LVGL/GUI/lvgl/src/indev/lv_indev_scroll.c ****         case LV_DIR_VER:
 1927              		.loc 1 240 5 is_stmt 0 view .LVU597
 1928 0036 0020     		movs	r0, #0
 1929              	.LVL217:
 1930              	.L119:
 259:../../Middlewares/LVGL/GUI/lvgl/src/indev/lv_indev_scroll.c **** 
 1931              		.loc 1 259 1 view .LVU598
 1932 0038 7047     		bx	lr
 1933              	.L128:
 1934 003a 00BF     		.align	2
 1935              	.L127:
 1936 003c 1F85EB51 		.word	1374389535
 1937              		.cfi_endproc
 1938              	.LFE174:
 1940              		.section	.text.lv_indev_scroll_throw_handler,"ax",%progbits
 1941              		.align	1
 1942              		.global	lv_indev_scroll_throw_handler
 1943              		.syntax unified
 1944              		.thumb
 1945              		.thumb_func
 1947              	lv_indev_scroll_throw_handler:
 1948              	.LVL218:
 1949              	.LFB173:
 125:../../Middlewares/LVGL/GUI/lvgl/src/indev/lv_indev_scroll.c ****     lv_obj_t * scroll_obj = indev->pointer.scroll_obj;
 1950              		.loc 1 125 1 is_stmt 1 view -0
 1951              		.cfi_startproc
ARM GAS  C:\Users\28576\AppData\Local\Temp\ccZznpky.s 			page 60


 1952              		@ args = 0, pretend = 0, frame = 8
 1953              		@ frame_needed = 0, uses_anonymous_args = 0
 125:../../Middlewares/LVGL/GUI/lvgl/src/indev/lv_indev_scroll.c ****     lv_obj_t * scroll_obj = indev->pointer.scroll_obj;
 1954              		.loc 1 125 1 is_stmt 0 view .LVU600
 1955 0000 2DE9F041 		push	{r4, r5, r6, r7, r8, lr}
 1956              	.LCFI21:
 1957              		.cfi_def_cfa_offset 24
 1958              		.cfi_offset 4, -24
 1959              		.cfi_offset 5, -20
 1960              		.cfi_offset 6, -16
 1961              		.cfi_offset 7, -12
 1962              		.cfi_offset 8, -8
 1963              		.cfi_offset 14, -4
 1964 0004 84B0     		sub	sp, sp, #16
 1965              	.LCFI22:
 1966              		.cfi_def_cfa_offset 40
 126:../../Middlewares/LVGL/GUI/lvgl/src/indev/lv_indev_scroll.c ****     if(scroll_obj == NULL) return;
 1967              		.loc 1 126 5 is_stmt 1 view .LVU601
 126:../../Middlewares/LVGL/GUI/lvgl/src/indev/lv_indev_scroll.c ****     if(scroll_obj == NULL) return;
 1968              		.loc 1 126 16 is_stmt 0 view .LVU602
 1969 0006 056F     		ldr	r5, [r0, #112]
 1970              	.LVL219:
 127:../../Middlewares/LVGL/GUI/lvgl/src/indev/lv_indev_scroll.c ****     if(indev->pointer.scroll_dir == LV_DIR_NONE) return;
 1971              		.loc 1 127 5 is_stmt 1 view .LVU603
 127:../../Middlewares/LVGL/GUI/lvgl/src/indev/lv_indev_scroll.c ****     if(indev->pointer.scroll_dir == LV_DIR_NONE) return;
 1972              		.loc 1 127 7 is_stmt 0 view .LVU604
 1973 0008 2DB1     		cbz	r5, .L129
 1974 000a 0446     		mov	r4, r0
 128:../../Middlewares/LVGL/GUI/lvgl/src/indev/lv_indev_scroll.c **** 
 1975              		.loc 1 128 5 is_stmt 1 view .LVU605
 128:../../Middlewares/LVGL/GUI/lvgl/src/indev/lv_indev_scroll.c **** 
 1976              		.loc 1 128 34 is_stmt 0 view .LVU606
 1977 000c 90F8A830 		ldrb	r3, [r0, #168]	@ zero_extendqisi2
 128:../../Middlewares/LVGL/GUI/lvgl/src/indev/lv_indev_scroll.c **** 
 1978              		.loc 1 128 7 view .LVU607
 1979 0010 13F00F0F 		tst	r3, #15
 1980 0014 02D1     		bne	.L143
 1981              	.LVL220:
 1982              	.L129:
 234:../../Middlewares/LVGL/GUI/lvgl/src/indev/lv_indev_scroll.c **** 
 1983              		.loc 1 234 1 view .LVU608
 1984 0016 04B0     		add	sp, sp, #16
 1985              	.LCFI23:
 1986              		.cfi_remember_state
 1987              		.cfi_def_cfa_offset 24
 1988              		@ sp needed
 1989 0018 BDE8F081 		pop	{r4, r5, r6, r7, r8, pc}
 1990              	.LVL221:
 1991              	.L143:
 1992              	.LCFI24:
 1993              		.cfi_restore_state
 130:../../Middlewares/LVGL/GUI/lvgl/src/indev/lv_indev_scroll.c **** 
 1994              		.loc 1 130 5 is_stmt 1 view .LVU609
 130:../../Middlewares/LVGL/GUI/lvgl/src/indev/lv_indev_scroll.c **** 
 1995              		.loc 1 130 33 is_stmt 0 view .LVU610
 1996 001c 90F82530 		ldrb	r3, [r0, #37]	@ zero_extendqisi2
 1997 0020 1E46     		mov	r6, r3
ARM GAS  C:\Users\28576\AppData\Local\Temp\ccZznpky.s 			page 61


 1998              	.LVL222:
 132:../../Middlewares/LVGL/GUI/lvgl/src/indev/lv_indev_scroll.c ****         indev->pointer.scroll_throw_vect.y = 0;
 1999              		.loc 1 132 5 is_stmt 1 view .LVU611
 132:../../Middlewares/LVGL/GUI/lvgl/src/indev/lv_indev_scroll.c ****         indev->pointer.scroll_throw_vect.y = 0;
 2000              		.loc 1 132 8 is_stmt 0 view .LVU612
 2001 0022 4021     		movs	r1, #64
 2002 0024 2846     		mov	r0, r5
 2003              	.LVL223:
 132:../../Middlewares/LVGL/GUI/lvgl/src/indev/lv_indev_scroll.c ****         indev->pointer.scroll_throw_vect.y = 0;
 2004              		.loc 1 132 8 view .LVU613
 2005 0026 FFF7FEFF 		bl	lv_obj_has_flag
 2006              	.LVL224:
 132:../../Middlewares/LVGL/GUI/lvgl/src/indev/lv_indev_scroll.c ****         indev->pointer.scroll_throw_vect.y = 0;
 2007              		.loc 1 132 7 discriminator 1 view .LVU614
 2008 002a 08B9     		cbnz	r0, .L131
 133:../../Middlewares/LVGL/GUI/lvgl/src/indev/lv_indev_scroll.c ****         indev->pointer.scroll_throw_vect.x = 0;
 2009              		.loc 1 133 9 is_stmt 1 view .LVU615
 133:../../Middlewares/LVGL/GUI/lvgl/src/indev/lv_indev_scroll.c ****         indev->pointer.scroll_throw_vect.x = 0;
 2010              		.loc 1 133 44 is_stmt 0 view .LVU616
 2011 002c E065     		str	r0, [r4, #92]
 134:../../Middlewares/LVGL/GUI/lvgl/src/indev/lv_indev_scroll.c ****     }
 2012              		.loc 1 134 9 is_stmt 1 view .LVU617
 134:../../Middlewares/LVGL/GUI/lvgl/src/indev/lv_indev_scroll.c ****     }
 2013              		.loc 1 134 44 is_stmt 0 view .LVU618
 2014 002e A065     		str	r0, [r4, #88]
 2015              	.L131:
 137:../../Middlewares/LVGL/GUI/lvgl/src/indev/lv_indev_scroll.c ****     lv_scroll_snap_t align_y = lv_obj_get_scroll_snap_y(scroll_obj);
 2016              		.loc 1 137 5 is_stmt 1 view .LVU619
 137:../../Middlewares/LVGL/GUI/lvgl/src/indev/lv_indev_scroll.c ****     lv_scroll_snap_t align_y = lv_obj_get_scroll_snap_y(scroll_obj);
 2017              		.loc 1 137 32 is_stmt 0 view .LVU620
 2018 0030 2846     		mov	r0, r5
 2019 0032 FFF7FEFF 		bl	lv_obj_get_scroll_snap_x
 2020              	.LVL225:
 2021 0036 8046     		mov	r8, r0
 2022              	.LVL226:
 138:../../Middlewares/LVGL/GUI/lvgl/src/indev/lv_indev_scroll.c **** 
 2023              		.loc 1 138 5 is_stmt 1 view .LVU621
 138:../../Middlewares/LVGL/GUI/lvgl/src/indev/lv_indev_scroll.c **** 
 2024              		.loc 1 138 32 is_stmt 0 view .LVU622
 2025 0038 2846     		mov	r0, r5
 2026 003a FFF7FEFF 		bl	lv_obj_get_scroll_snap_y
 2027              	.LVL227:
 2028 003e 0746     		mov	r7, r0
 2029              	.LVL228:
 140:../../Middlewares/LVGL/GUI/lvgl/src/indev/lv_indev_scroll.c ****         indev->pointer.scroll_throw_vect.x = 0;
 2030              		.loc 1 140 5 is_stmt 1 view .LVU623
 140:../../Middlewares/LVGL/GUI/lvgl/src/indev/lv_indev_scroll.c ****         indev->pointer.scroll_throw_vect.x = 0;
 2031              		.loc 1 140 34 is_stmt 0 view .LVU624
 2032 0040 94F8A830 		ldrb	r3, [r4, #168]	@ zero_extendqisi2
 2033 0044 03F00F03 		and	r3, r3, #15
 140:../../Middlewares/LVGL/GUI/lvgl/src/indev/lv_indev_scroll.c ****         indev->pointer.scroll_throw_vect.x = 0;
 2034              		.loc 1 140 7 view .LVU625
 2035 0048 0C2B     		cmp	r3, #12
 2036 004a 2FD0     		beq	.L144
 166:../../Middlewares/LVGL/GUI/lvgl/src/indev/lv_indev_scroll.c ****         indev->pointer.scroll_throw_vect.y = 0;
 2037              		.loc 1 166 10 is_stmt 1 view .LVU626
 166:../../Middlewares/LVGL/GUI/lvgl/src/indev/lv_indev_scroll.c ****         indev->pointer.scroll_throw_vect.y = 0;
ARM GAS  C:\Users\28576\AppData\Local\Temp\ccZznpky.s 			page 62


 2038              		.loc 1 166 12 is_stmt 0 view .LVU627
 2039 004c 032B     		cmp	r3, #3
 2040 004e 75D0     		beq	.L145
 2041              	.LVL229:
 2042              	.L134:
 194:../../Middlewares/LVGL/GUI/lvgl/src/indev/lv_indev_scroll.c ****         /*Revert if scrolled in*/
 2043              		.loc 1 194 5 is_stmt 1 view .LVU628
 194:../../Middlewares/LVGL/GUI/lvgl/src/indev/lv_indev_scroll.c ****         /*Revert if scrolled in*/
 2044              		.loc 1 194 40 is_stmt 0 view .LVU629
 2045 0050 A36D     		ldr	r3, [r4, #88]
 194:../../Middlewares/LVGL/GUI/lvgl/src/indev/lv_indev_scroll.c ****         /*Revert if scrolled in*/
 2046              		.loc 1 194 7 view .LVU630
 2047 0052 002B     		cmp	r3, #0
 2048 0054 DFD1     		bne	.L129
 194:../../Middlewares/LVGL/GUI/lvgl/src/indev/lv_indev_scroll.c ****         /*Revert if scrolled in*/
 2049              		.loc 1 194 83 discriminator 1 view .LVU631
 2050 0056 E36D     		ldr	r3, [r4, #92]
 194:../../Middlewares/LVGL/GUI/lvgl/src/indev/lv_indev_scroll.c ****         /*Revert if scrolled in*/
 2051              		.loc 1 194 48 discriminator 1 view .LVU632
 2052 0058 002B     		cmp	r3, #0
 2053 005a DCD1     		bne	.L129
 197:../../Middlewares/LVGL/GUI/lvgl/src/indev/lv_indev_scroll.c ****             int32_t st = lv_obj_get_scroll_top(scroll_obj);
 2054              		.loc 1 197 9 is_stmt 1 view .LVU633
 197:../../Middlewares/LVGL/GUI/lvgl/src/indev/lv_indev_scroll.c ****             int32_t st = lv_obj_get_scroll_top(scroll_obj);
 2055              		.loc 1 197 11 is_stmt 0 view .LVU634
 2056 005c 002F     		cmp	r7, #0
 2057 005e 00F0B880 		beq	.L146
 2058              	.L138:
 213:../../Middlewares/LVGL/GUI/lvgl/src/indev/lv_indev_scroll.c ****             int32_t sl = lv_obj_get_scroll_left(scroll_obj);
 2059              		.loc 1 213 9 is_stmt 1 view .LVU635
 213:../../Middlewares/LVGL/GUI/lvgl/src/indev/lv_indev_scroll.c ****             int32_t sl = lv_obj_get_scroll_left(scroll_obj);
 2060              		.loc 1 213 11 is_stmt 0 view .LVU636
 2061 0062 4346     		mov	r3, r8
 2062 0064 83B9     		cbnz	r3, .L140
 2063              	.LBB115:
 214:../../Middlewares/LVGL/GUI/lvgl/src/indev/lv_indev_scroll.c ****             int32_t sr = lv_obj_get_scroll_right(scroll_obj);
 2064              		.loc 1 214 13 is_stmt 1 view .LVU637
 214:../../Middlewares/LVGL/GUI/lvgl/src/indev/lv_indev_scroll.c ****             int32_t sr = lv_obj_get_scroll_right(scroll_obj);
 2065              		.loc 1 214 26 is_stmt 0 view .LVU638
 2066 0066 2846     		mov	r0, r5
 2067 0068 FFF7FEFF 		bl	lv_obj_get_scroll_left
 2068              	.LVL230:
 2069 006c 0646     		mov	r6, r0
 2070              	.LVL231:
 215:../../Middlewares/LVGL/GUI/lvgl/src/indev/lv_indev_scroll.c ****             if(sl > 0 || sr > 0) {
 2071              		.loc 1 215 13 is_stmt 1 view .LVU639
