ARM GAS  C:\Users\28576\AppData\Local\Temp\ccvpiibb.s 			page 1


   1              		.cpu cortex-m7
   2              		.arch armv7e-m
   3              		.fpu fpv5-d16
   4              		.eabi_attribute 28, 1
   5              		.eabi_attribute 20, 1
   6              		.eabi_attribute 21, 1
   7              		.eabi_attribute 23, 3
   8              		.eabi_attribute 24, 1
   9              		.eabi_attribute 25, 1
  10              		.eabi_attribute 26, 1
  11              		.eabi_attribute 30, 1
  12              		.eabi_attribute 34, 1
  13              		.eabi_attribute 18, 4
  14              		.file	"lv_keyboard.c"
  15              		.text
  16              	.Ltext0:
  17              		.cfi_sections	.debug_frame
  18              		.file 1 "../../Middlewares/LVGL/GUI/lvgl/src/widgets/keyboard/lv_keyboard.c"
  19              		.section	.text.lv_keyboard_update_ctrl_map,"ax",%progbits
  20              		.align	1
  21              		.syntax unified
  22              		.thumb
  23              		.thumb_func
  25              	lv_keyboard_update_ctrl_map:
  26              	.LVL0:
  27              	.LFB186:
   1:../../Middlewares/LVGL/GUI/lvgl/src/widgets/keyboard/lv_keyboard.c **** 
   2:../../Middlewares/LVGL/GUI/lvgl/src/widgets/keyboard/lv_keyboard.c **** /**
   3:../../Middlewares/LVGL/GUI/lvgl/src/widgets/keyboard/lv_keyboard.c ****  * @file lv_keyboard.c
   4:../../Middlewares/LVGL/GUI/lvgl/src/widgets/keyboard/lv_keyboard.c ****  *
   5:../../Middlewares/LVGL/GUI/lvgl/src/widgets/keyboard/lv_keyboard.c ****  */
   6:../../Middlewares/LVGL/GUI/lvgl/src/widgets/keyboard/lv_keyboard.c **** 
   7:../../Middlewares/LVGL/GUI/lvgl/src/widgets/keyboard/lv_keyboard.c **** /*********************
   8:../../Middlewares/LVGL/GUI/lvgl/src/widgets/keyboard/lv_keyboard.c ****  *      INCLUDES
   9:../../Middlewares/LVGL/GUI/lvgl/src/widgets/keyboard/lv_keyboard.c ****  *********************/
  10:../../Middlewares/LVGL/GUI/lvgl/src/widgets/keyboard/lv_keyboard.c **** #include "lv_keyboard_private.h"
  11:../../Middlewares/LVGL/GUI/lvgl/src/widgets/keyboard/lv_keyboard.c **** #include "../../core/lv_obj_class_private.h"
  12:../../Middlewares/LVGL/GUI/lvgl/src/widgets/keyboard/lv_keyboard.c **** #if LV_USE_KEYBOARD
  13:../../Middlewares/LVGL/GUI/lvgl/src/widgets/keyboard/lv_keyboard.c **** 
  14:../../Middlewares/LVGL/GUI/lvgl/src/widgets/keyboard/lv_keyboard.c **** #include "../textarea/lv_textarea.h"
  15:../../Middlewares/LVGL/GUI/lvgl/src/widgets/keyboard/lv_keyboard.c **** #include "../../misc/lv_assert.h"
  16:../../Middlewares/LVGL/GUI/lvgl/src/widgets/keyboard/lv_keyboard.c **** #include "../../stdlib/lv_string.h"
  17:../../Middlewares/LVGL/GUI/lvgl/src/widgets/keyboard/lv_keyboard.c **** 
  18:../../Middlewares/LVGL/GUI/lvgl/src/widgets/keyboard/lv_keyboard.c **** /*********************
  19:../../Middlewares/LVGL/GUI/lvgl/src/widgets/keyboard/lv_keyboard.c ****  *      DEFINES
  20:../../Middlewares/LVGL/GUI/lvgl/src/widgets/keyboard/lv_keyboard.c ****  *********************/
  21:../../Middlewares/LVGL/GUI/lvgl/src/widgets/keyboard/lv_keyboard.c **** #define MY_CLASS (&lv_keyboard_class)
  22:../../Middlewares/LVGL/GUI/lvgl/src/widgets/keyboard/lv_keyboard.c **** #define LV_KB_BTN(width) LV_BUTTONMATRIX_CTRL_POPOVER | width
  23:../../Middlewares/LVGL/GUI/lvgl/src/widgets/keyboard/lv_keyboard.c **** 
  24:../../Middlewares/LVGL/GUI/lvgl/src/widgets/keyboard/lv_keyboard.c **** /**********************
  25:../../Middlewares/LVGL/GUI/lvgl/src/widgets/keyboard/lv_keyboard.c ****  *      TYPEDEFS
  26:../../Middlewares/LVGL/GUI/lvgl/src/widgets/keyboard/lv_keyboard.c ****  **********************/
  27:../../Middlewares/LVGL/GUI/lvgl/src/widgets/keyboard/lv_keyboard.c **** 
  28:../../Middlewares/LVGL/GUI/lvgl/src/widgets/keyboard/lv_keyboard.c **** /**********************
  29:../../Middlewares/LVGL/GUI/lvgl/src/widgets/keyboard/lv_keyboard.c ****  *  STATIC PROTOTYPES
  30:../../Middlewares/LVGL/GUI/lvgl/src/widgets/keyboard/lv_keyboard.c ****  **********************/
  31:../../Middlewares/LVGL/GUI/lvgl/src/widgets/keyboard/lv_keyboard.c **** static void lv_keyboard_constructor(const lv_obj_class_t * class_p, lv_obj_t * obj);
ARM GAS  C:\Users\28576\AppData\Local\Temp\ccvpiibb.s 			page 2


  32:../../Middlewares/LVGL/GUI/lvgl/src/widgets/keyboard/lv_keyboard.c **** 
  33:../../Middlewares/LVGL/GUI/lvgl/src/widgets/keyboard/lv_keyboard.c **** static void lv_keyboard_update_map(lv_obj_t * obj);
  34:../../Middlewares/LVGL/GUI/lvgl/src/widgets/keyboard/lv_keyboard.c **** 
  35:../../Middlewares/LVGL/GUI/lvgl/src/widgets/keyboard/lv_keyboard.c **** static void lv_keyboard_update_ctrl_map(lv_obj_t * obj);
  36:../../Middlewares/LVGL/GUI/lvgl/src/widgets/keyboard/lv_keyboard.c **** 
  37:../../Middlewares/LVGL/GUI/lvgl/src/widgets/keyboard/lv_keyboard.c **** /**********************
  38:../../Middlewares/LVGL/GUI/lvgl/src/widgets/keyboard/lv_keyboard.c ****  *  STATIC VARIABLES
  39:../../Middlewares/LVGL/GUI/lvgl/src/widgets/keyboard/lv_keyboard.c ****  **********************/
  40:../../Middlewares/LVGL/GUI/lvgl/src/widgets/keyboard/lv_keyboard.c **** #if LV_USE_OBJ_PROPERTY
  41:../../Middlewares/LVGL/GUI/lvgl/src/widgets/keyboard/lv_keyboard.c **** static const lv_property_ops_t properties[] = {
  42:../../Middlewares/LVGL/GUI/lvgl/src/widgets/keyboard/lv_keyboard.c ****     {
  43:../../Middlewares/LVGL/GUI/lvgl/src/widgets/keyboard/lv_keyboard.c ****         .id = LV_PROPERTY_KEYBOARD_TEXTAREA,
  44:../../Middlewares/LVGL/GUI/lvgl/src/widgets/keyboard/lv_keyboard.c ****         .setter = lv_keyboard_set_textarea,
  45:../../Middlewares/LVGL/GUI/lvgl/src/widgets/keyboard/lv_keyboard.c ****         .getter = lv_keyboard_get_textarea,
  46:../../Middlewares/LVGL/GUI/lvgl/src/widgets/keyboard/lv_keyboard.c ****     },
  47:../../Middlewares/LVGL/GUI/lvgl/src/widgets/keyboard/lv_keyboard.c ****     {
  48:../../Middlewares/LVGL/GUI/lvgl/src/widgets/keyboard/lv_keyboard.c ****         .id = LV_PROPERTY_KEYBOARD_MODE,
  49:../../Middlewares/LVGL/GUI/lvgl/src/widgets/keyboard/lv_keyboard.c ****         .setter = lv_keyboard_set_mode,
  50:../../Middlewares/LVGL/GUI/lvgl/src/widgets/keyboard/lv_keyboard.c ****         .getter = lv_keyboard_get_mode,
  51:../../Middlewares/LVGL/GUI/lvgl/src/widgets/keyboard/lv_keyboard.c ****     },
  52:../../Middlewares/LVGL/GUI/lvgl/src/widgets/keyboard/lv_keyboard.c ****     {
  53:../../Middlewares/LVGL/GUI/lvgl/src/widgets/keyboard/lv_keyboard.c ****         .id = LV_PROPERTY_KEYBOARD_POPOVERS,
  54:../../Middlewares/LVGL/GUI/lvgl/src/widgets/keyboard/lv_keyboard.c ****         .setter = lv_keyboard_set_popovers,
  55:../../Middlewares/LVGL/GUI/lvgl/src/widgets/keyboard/lv_keyboard.c ****         .getter = lv_keyboard_get_popovers,
  56:../../Middlewares/LVGL/GUI/lvgl/src/widgets/keyboard/lv_keyboard.c ****     },
  57:../../Middlewares/LVGL/GUI/lvgl/src/widgets/keyboard/lv_keyboard.c ****     {
  58:../../Middlewares/LVGL/GUI/lvgl/src/widgets/keyboard/lv_keyboard.c ****         .id = LV_PROPERTY_KEYBOARD_SELECTED_BUTTON,
  59:../../Middlewares/LVGL/GUI/lvgl/src/widgets/keyboard/lv_keyboard.c ****         .setter = lv_buttonmatrix_set_selected_button,
  60:../../Middlewares/LVGL/GUI/lvgl/src/widgets/keyboard/lv_keyboard.c ****         .getter = lv_keyboard_get_selected_button,
  61:../../Middlewares/LVGL/GUI/lvgl/src/widgets/keyboard/lv_keyboard.c ****     },
  62:../../Middlewares/LVGL/GUI/lvgl/src/widgets/keyboard/lv_keyboard.c **** };
  63:../../Middlewares/LVGL/GUI/lvgl/src/widgets/keyboard/lv_keyboard.c **** #endif
  64:../../Middlewares/LVGL/GUI/lvgl/src/widgets/keyboard/lv_keyboard.c **** 
  65:../../Middlewares/LVGL/GUI/lvgl/src/widgets/keyboard/lv_keyboard.c **** const lv_obj_class_t lv_keyboard_class = {
  66:../../Middlewares/LVGL/GUI/lvgl/src/widgets/keyboard/lv_keyboard.c ****     .constructor_cb = lv_keyboard_constructor,
  67:../../Middlewares/LVGL/GUI/lvgl/src/widgets/keyboard/lv_keyboard.c ****     .width_def = LV_PCT(100),
  68:../../Middlewares/LVGL/GUI/lvgl/src/widgets/keyboard/lv_keyboard.c ****     .height_def = LV_PCT(50),
  69:../../Middlewares/LVGL/GUI/lvgl/src/widgets/keyboard/lv_keyboard.c ****     .instance_size = sizeof(lv_keyboard_t),
  70:../../Middlewares/LVGL/GUI/lvgl/src/widgets/keyboard/lv_keyboard.c ****     .editable = 1,
  71:../../Middlewares/LVGL/GUI/lvgl/src/widgets/keyboard/lv_keyboard.c ****     .base_class = &lv_buttonmatrix_class,
  72:../../Middlewares/LVGL/GUI/lvgl/src/widgets/keyboard/lv_keyboard.c ****     .name = "lv_keyboard",
  73:../../Middlewares/LVGL/GUI/lvgl/src/widgets/keyboard/lv_keyboard.c **** #if LV_USE_OBJ_PROPERTY
  74:../../Middlewares/LVGL/GUI/lvgl/src/widgets/keyboard/lv_keyboard.c ****     .prop_index_start = LV_PROPERTY_KEYBOARD_START,
  75:../../Middlewares/LVGL/GUI/lvgl/src/widgets/keyboard/lv_keyboard.c ****     .prop_index_end = LV_PROPERTY_KEYBOARD_END,
  76:../../Middlewares/LVGL/GUI/lvgl/src/widgets/keyboard/lv_keyboard.c ****     .properties = properties,
  77:../../Middlewares/LVGL/GUI/lvgl/src/widgets/keyboard/lv_keyboard.c ****     .properties_count = sizeof(properties) / sizeof(properties[0]),
  78:../../Middlewares/LVGL/GUI/lvgl/src/widgets/keyboard/lv_keyboard.c **** 
  79:../../Middlewares/LVGL/GUI/lvgl/src/widgets/keyboard/lv_keyboard.c **** #if LV_USE_OBJ_PROPERTY_NAME
  80:../../Middlewares/LVGL/GUI/lvgl/src/widgets/keyboard/lv_keyboard.c ****     .property_names = lv_keyboard_property_names,
  81:../../Middlewares/LVGL/GUI/lvgl/src/widgets/keyboard/lv_keyboard.c ****     .names_count = sizeof(lv_keyboard_property_names) / sizeof(lv_property_name_t),
  82:../../Middlewares/LVGL/GUI/lvgl/src/widgets/keyboard/lv_keyboard.c **** #endif
  83:../../Middlewares/LVGL/GUI/lvgl/src/widgets/keyboard/lv_keyboard.c **** 
  84:../../Middlewares/LVGL/GUI/lvgl/src/widgets/keyboard/lv_keyboard.c **** #endif
  85:../../Middlewares/LVGL/GUI/lvgl/src/widgets/keyboard/lv_keyboard.c **** };
  86:../../Middlewares/LVGL/GUI/lvgl/src/widgets/keyboard/lv_keyboard.c **** 
  87:../../Middlewares/LVGL/GUI/lvgl/src/widgets/keyboard/lv_keyboard.c **** static const char * const default_kb_map_lc[] = {"1#", "q", "w", "e", "r", "t", "y", "u", "i", "o",
  88:../../Middlewares/LVGL/GUI/lvgl/src/widgets/keyboard/lv_keyboard.c ****                                                  "ABC", "a", "s", "d", "f", "g", "h", "j", "k", "l"
ARM GAS  C:\Users\28576\AppData\Local\Temp\ccvpiibb.s 			page 3


  89:../../Middlewares/LVGL/GUI/lvgl/src/widgets/keyboard/lv_keyboard.c ****                                                  "_", "-", "z", "x", "c", "v", "b", "n", "m", ".", 
  90:../../Middlewares/LVGL/GUI/lvgl/src/widgets/keyboard/lv_keyboard.c ****                                                  LV_SYMBOL_KEYBOARD,
  91:../../Middlewares/LVGL/GUI/lvgl/src/widgets/keyboard/lv_keyboard.c **** #if LV_USE_ARABIC_PERSIAN_CHARS == 1
  92:../../Middlewares/LVGL/GUI/lvgl/src/widgets/keyboard/lv_keyboard.c ****                                                  "أب",
  93:../../Middlewares/LVGL/GUI/lvgl/src/widgets/keyboard/lv_keyboard.c **** #endif
  94:../../Middlewares/LVGL/GUI/lvgl/src/widgets/keyboard/lv_keyboard.c ****                                                  LV_SYMBOL_LEFT, " ", LV_SYMBOL_RIGHT, LV_SYMBOL_OK
  95:../../Middlewares/LVGL/GUI/lvgl/src/widgets/keyboard/lv_keyboard.c ****                                                 };
  96:../../Middlewares/LVGL/GUI/lvgl/src/widgets/keyboard/lv_keyboard.c **** 
  97:../../Middlewares/LVGL/GUI/lvgl/src/widgets/keyboard/lv_keyboard.c **** static const lv_buttonmatrix_ctrl_t default_kb_ctrl_lc_map[] = {
  98:../../Middlewares/LVGL/GUI/lvgl/src/widgets/keyboard/lv_keyboard.c ****     LV_KEYBOARD_CTRL_BUTTON_FLAGS | 5, LV_KB_BTN(4), LV_KB_BTN(4), LV_KB_BTN(4), LV_KB_BTN(4), LV_K
  99:../../Middlewares/LVGL/GUI/lvgl/src/widgets/keyboard/lv_keyboard.c ****     LV_KEYBOARD_CTRL_BUTTON_FLAGS | 6, LV_KB_BTN(3), LV_KB_BTN(3), LV_KB_BTN(3), LV_KB_BTN(3), LV_K
 100:../../Middlewares/LVGL/GUI/lvgl/src/widgets/keyboard/lv_keyboard.c ****     LV_BUTTONMATRIX_CTRL_CHECKED | LV_KB_BTN(1), LV_BUTTONMATRIX_CTRL_CHECKED | LV_KB_BTN(1), LV_KB
 101:../../Middlewares/LVGL/GUI/lvgl/src/widgets/keyboard/lv_keyboard.c ****     LV_KEYBOARD_CTRL_BUTTON_FLAGS | 2,
 102:../../Middlewares/LVGL/GUI/lvgl/src/widgets/keyboard/lv_keyboard.c **** #if LV_USE_ARABIC_PERSIAN_CHARS == 1
 103:../../Middlewares/LVGL/GUI/lvgl/src/widgets/keyboard/lv_keyboard.c ****     LV_KEYBOARD_CTRL_BUTTON_FLAGS | 2,
 104:../../Middlewares/LVGL/GUI/lvgl/src/widgets/keyboard/lv_keyboard.c **** #endif
 105:../../Middlewares/LVGL/GUI/lvgl/src/widgets/keyboard/lv_keyboard.c ****     LV_BUTTONMATRIX_CTRL_CHECKED | 2, 6, LV_BUTTONMATRIX_CTRL_CHECKED | 2, LV_KEYBOARD_CTRL_BUTTON_
 106:../../Middlewares/LVGL/GUI/lvgl/src/widgets/keyboard/lv_keyboard.c **** };
 107:../../Middlewares/LVGL/GUI/lvgl/src/widgets/keyboard/lv_keyboard.c **** 
 108:../../Middlewares/LVGL/GUI/lvgl/src/widgets/keyboard/lv_keyboard.c **** static const char * const default_kb_map_uc[] = {"1#", "Q", "W", "E", "R", "T", "Y", "U", "I", "O",
 109:../../Middlewares/LVGL/GUI/lvgl/src/widgets/keyboard/lv_keyboard.c ****                                                  "abc", "A", "S", "D", "F", "G", "H", "J", "K", "L"
 110:../../Middlewares/LVGL/GUI/lvgl/src/widgets/keyboard/lv_keyboard.c ****                                                  "_", "-", "Z", "X", "C", "V", "B", "N", "M", ".", 
 111:../../Middlewares/LVGL/GUI/lvgl/src/widgets/keyboard/lv_keyboard.c ****                                                  LV_SYMBOL_CLOSE,
 112:../../Middlewares/LVGL/GUI/lvgl/src/widgets/keyboard/lv_keyboard.c **** #if LV_USE_ARABIC_PERSIAN_CHARS == 1
 113:../../Middlewares/LVGL/GUI/lvgl/src/widgets/keyboard/lv_keyboard.c ****                                                  "أب",
 114:../../Middlewares/LVGL/GUI/lvgl/src/widgets/keyboard/lv_keyboard.c **** #endif
 115:../../Middlewares/LVGL/GUI/lvgl/src/widgets/keyboard/lv_keyboard.c ****                                                  LV_SYMBOL_LEFT, " ", LV_SYMBOL_RIGHT, LV_SYMBOL_OK
 116:../../Middlewares/LVGL/GUI/lvgl/src/widgets/keyboard/lv_keyboard.c ****                                                 };
 117:../../Middlewares/LVGL/GUI/lvgl/src/widgets/keyboard/lv_keyboard.c **** 
 118:../../Middlewares/LVGL/GUI/lvgl/src/widgets/keyboard/lv_keyboard.c **** static const lv_buttonmatrix_ctrl_t default_kb_ctrl_uc_map[] = {
 119:../../Middlewares/LVGL/GUI/lvgl/src/widgets/keyboard/lv_keyboard.c ****     LV_KEYBOARD_CTRL_BUTTON_FLAGS | 5, LV_KB_BTN(4), LV_KB_BTN(4), LV_KB_BTN(4), LV_KB_BTN(4), LV_K
 120:../../Middlewares/LVGL/GUI/lvgl/src/widgets/keyboard/lv_keyboard.c ****     LV_KEYBOARD_CTRL_BUTTON_FLAGS | 6, LV_KB_BTN(3), LV_KB_BTN(3), LV_KB_BTN(3), LV_KB_BTN(3), LV_K
 121:../../Middlewares/LVGL/GUI/lvgl/src/widgets/keyboard/lv_keyboard.c ****     LV_BUTTONMATRIX_CTRL_CHECKED | LV_KB_BTN(1), LV_BUTTONMATRIX_CTRL_CHECKED | LV_KB_BTN(1), LV_KB
 122:../../Middlewares/LVGL/GUI/lvgl/src/widgets/keyboard/lv_keyboard.c ****     LV_KEYBOARD_CTRL_BUTTON_FLAGS | 2,
 123:../../Middlewares/LVGL/GUI/lvgl/src/widgets/keyboard/lv_keyboard.c **** #if LV_USE_ARABIC_PERSIAN_CHARS == 1
 124:../../Middlewares/LVGL/GUI/lvgl/src/widgets/keyboard/lv_keyboard.c ****     LV_KEYBOARD_CTRL_BUTTON_FLAGS | 2,
 125:../../Middlewares/LVGL/GUI/lvgl/src/widgets/keyboard/lv_keyboard.c **** #endif
 126:../../Middlewares/LVGL/GUI/lvgl/src/widgets/keyboard/lv_keyboard.c ****     LV_BUTTONMATRIX_CTRL_CHECKED | 2, 6, LV_BUTTONMATRIX_CTRL_CHECKED | 2, LV_KEYBOARD_CTRL_BUTTON_
 127:../../Middlewares/LVGL/GUI/lvgl/src/widgets/keyboard/lv_keyboard.c **** };
 128:../../Middlewares/LVGL/GUI/lvgl/src/widgets/keyboard/lv_keyboard.c **** 
 129:../../Middlewares/LVGL/GUI/lvgl/src/widgets/keyboard/lv_keyboard.c **** #if LV_USE_ARABIC_PERSIAN_CHARS == 1
 130:../../Middlewares/LVGL/GUI/lvgl/src/widgets/keyboard/lv_keyboard.c **** static const char * const default_kb_map_ar[] = {
 131:../../Middlewares/LVGL/GUI/lvgl/src/widgets/keyboard/lv_keyboard.c ****     "1#", "ض", "ص", "ث", "ق", "ف", "غ", "ع", "ه", "خ", "ح", "ج", "\n",
 132:../../Middlewares/LVGL/GUI/lvgl/src/widgets/keyboard/lv_keyboard.c ****     "ش", "س", "ي", "ب", "ل", "ا", "ت", "ن", "م", "ك", "ط", LV_SYMBOL_BACKSPACE, "\n",
 133:../../Middlewares/LVGL/GUI/lvgl/src/widgets/keyboard/lv_keyboard.c ****     "ذ", "ء", "ؤ", "ر", "ى", "ة", "و", "ز", "ظ", "د", "ز", "ظ", "د", "\n",
 134:../../Middlewares/LVGL/GUI/lvgl/src/widgets/keyboard/lv_keyboard.c ****     LV_SYMBOL_CLOSE, "abc", LV_SYMBOL_LEFT, " ", LV_SYMBOL_RIGHT, LV_SYMBOL_NEW_LINE, LV_SYMBOL_OK,
 135:../../Middlewares/LVGL/GUI/lvgl/src/widgets/keyboard/lv_keyboard.c **** };
 136:../../Middlewares/LVGL/GUI/lvgl/src/widgets/keyboard/lv_keyboard.c **** 
 137:../../Middlewares/LVGL/GUI/lvgl/src/widgets/keyboard/lv_keyboard.c **** static const lv_buttonmatrix_ctrl_t default_kb_ctrl_ar_map[] = {
 138:../../Middlewares/LVGL/GUI/lvgl/src/widgets/keyboard/lv_keyboard.c ****     LV_KEYBOARD_CTRL_BUTTON_FLAGS | 5, 4, 4, 4, 4, 4, 4, 4, 4, 4, 4, 4,
 139:../../Middlewares/LVGL/GUI/lvgl/src/widgets/keyboard/lv_keyboard.c ****     4, 4, 4, 4, 4, 4, 4, 4, 4, 4, 4, 7,
 140:../../Middlewares/LVGL/GUI/lvgl/src/widgets/keyboard/lv_keyboard.c ****     1, 1, 1, 1, 1, 1, 1, 1, 1, 1, 1, 1, 1,
 141:../../Middlewares/LVGL/GUI/lvgl/src/widgets/keyboard/lv_keyboard.c ****     LV_KEYBOARD_CTRL_BUTTON_FLAGS | 2, LV_KEYBOARD_CTRL_BUTTON_FLAGS | 2, 2, 6, 2, 3, LV_KEYBOARD_C
 142:../../Middlewares/LVGL/GUI/lvgl/src/widgets/keyboard/lv_keyboard.c **** };
 143:../../Middlewares/LVGL/GUI/lvgl/src/widgets/keyboard/lv_keyboard.c **** #endif
 144:../../Middlewares/LVGL/GUI/lvgl/src/widgets/keyboard/lv_keyboard.c **** 
 145:../../Middlewares/LVGL/GUI/lvgl/src/widgets/keyboard/lv_keyboard.c **** static const char * const default_kb_map_spec[] = {"1", "2", "3", "4", "5", "6", "7", "8", "9", "0"
ARM GAS  C:\Users\28576\AppData\Local\Temp\ccvpiibb.s 			page 4


 146:../../Middlewares/LVGL/GUI/lvgl/src/widgets/keyboard/lv_keyboard.c ****                                                    "abc", "+", "&", "/", "*", "=", "%", "!", "?", "
 147:../../Middlewares/LVGL/GUI/lvgl/src/widgets/keyboard/lv_keyboard.c ****                                                    "\\",  "@", "$", "(", ")", "{", "}", "[", "]", "
 148:../../Middlewares/LVGL/GUI/lvgl/src/widgets/keyboard/lv_keyboard.c ****                                                    LV_SYMBOL_KEYBOARD,
 149:../../Middlewares/LVGL/GUI/lvgl/src/widgets/keyboard/lv_keyboard.c **** #if LV_USE_ARABIC_PERSIAN_CHARS == 1
 150:../../Middlewares/LVGL/GUI/lvgl/src/widgets/keyboard/lv_keyboard.c ****                                                    "أب",
 151:../../Middlewares/LVGL/GUI/lvgl/src/widgets/keyboard/lv_keyboard.c **** #endif
 152:../../Middlewares/LVGL/GUI/lvgl/src/widgets/keyboard/lv_keyboard.c ****                                                    LV_SYMBOL_LEFT, " ", LV_SYMBOL_RIGHT, LV_SYMBOL_
 153:../../Middlewares/LVGL/GUI/lvgl/src/widgets/keyboard/lv_keyboard.c ****                                                   };
 154:../../Middlewares/LVGL/GUI/lvgl/src/widgets/keyboard/lv_keyboard.c **** 
 155:../../Middlewares/LVGL/GUI/lvgl/src/widgets/keyboard/lv_keyboard.c **** static const lv_buttonmatrix_ctrl_t default_kb_ctrl_spec_map[] = {
 156:../../Middlewares/LVGL/GUI/lvgl/src/widgets/keyboard/lv_keyboard.c ****     LV_KB_BTN(1), LV_KB_BTN(1), LV_KB_BTN(1), LV_KB_BTN(1), LV_KB_BTN(1), LV_KB_BTN(1), LV_KB_BTN(1
 157:../../Middlewares/LVGL/GUI/lvgl/src/widgets/keyboard/lv_keyboard.c ****     LV_KEYBOARD_CTRL_BUTTON_FLAGS | 2, LV_KB_BTN(1), LV_KB_BTN(1), LV_KB_BTN(1), LV_KB_BTN(1), LV_K
 158:../../Middlewares/LVGL/GUI/lvgl/src/widgets/keyboard/lv_keyboard.c ****     LV_KB_BTN(1), LV_KB_BTN(1), LV_KB_BTN(1), LV_KB_BTN(1), LV_KB_BTN(1), LV_KB_BTN(1), LV_KB_BTN(1
 159:../../Middlewares/LVGL/GUI/lvgl/src/widgets/keyboard/lv_keyboard.c ****     LV_KEYBOARD_CTRL_BUTTON_FLAGS | 2,
 160:../../Middlewares/LVGL/GUI/lvgl/src/widgets/keyboard/lv_keyboard.c **** #if LV_USE_ARABIC_PERSIAN_CHARS == 1
 161:../../Middlewares/LVGL/GUI/lvgl/src/widgets/keyboard/lv_keyboard.c ****     LV_KEYBOARD_CTRL_BUTTON_FLAGS | 2,
 162:../../Middlewares/LVGL/GUI/lvgl/src/widgets/keyboard/lv_keyboard.c **** #endif
 163:../../Middlewares/LVGL/GUI/lvgl/src/widgets/keyboard/lv_keyboard.c ****     LV_BUTTONMATRIX_CTRL_CHECKED | 2, 6, LV_BUTTONMATRIX_CTRL_CHECKED | 2, LV_KEYBOARD_CTRL_BUTTON_
 164:../../Middlewares/LVGL/GUI/lvgl/src/widgets/keyboard/lv_keyboard.c **** };
 165:../../Middlewares/LVGL/GUI/lvgl/src/widgets/keyboard/lv_keyboard.c **** 
 166:../../Middlewares/LVGL/GUI/lvgl/src/widgets/keyboard/lv_keyboard.c **** static const char * const default_kb_map_num[] = {"1", "2", "3", LV_SYMBOL_KEYBOARD, "\n",
 167:../../Middlewares/LVGL/GUI/lvgl/src/widgets/keyboard/lv_keyboard.c ****                                                   "4", "5", "6", LV_SYMBOL_OK, "\n",
 168:../../Middlewares/LVGL/GUI/lvgl/src/widgets/keyboard/lv_keyboard.c ****                                                   "7", "8", "9", LV_SYMBOL_BACKSPACE, "\n",
 169:../../Middlewares/LVGL/GUI/lvgl/src/widgets/keyboard/lv_keyboard.c ****                                                   "+/-", "0", ".", LV_SYMBOL_LEFT, LV_SYMBOL_RIGHT,
 170:../../Middlewares/LVGL/GUI/lvgl/src/widgets/keyboard/lv_keyboard.c ****                                                  };
 171:../../Middlewares/LVGL/GUI/lvgl/src/widgets/keyboard/lv_keyboard.c **** 
 172:../../Middlewares/LVGL/GUI/lvgl/src/widgets/keyboard/lv_keyboard.c **** static const lv_buttonmatrix_ctrl_t default_kb_ctrl_num_map[] = {
 173:../../Middlewares/LVGL/GUI/lvgl/src/widgets/keyboard/lv_keyboard.c ****     1, 1, 1, LV_KEYBOARD_CTRL_BUTTON_FLAGS | 2,
 174:../../Middlewares/LVGL/GUI/lvgl/src/widgets/keyboard/lv_keyboard.c ****     1, 1, 1, LV_KEYBOARD_CTRL_BUTTON_FLAGS | 2,
 175:../../Middlewares/LVGL/GUI/lvgl/src/widgets/keyboard/lv_keyboard.c ****     1, 1, 1, 2,
 176:../../Middlewares/LVGL/GUI/lvgl/src/widgets/keyboard/lv_keyboard.c ****     1, 1, 1, 1, 1
 177:../../Middlewares/LVGL/GUI/lvgl/src/widgets/keyboard/lv_keyboard.c **** };
 178:../../Middlewares/LVGL/GUI/lvgl/src/widgets/keyboard/lv_keyboard.c **** 
 179:../../Middlewares/LVGL/GUI/lvgl/src/widgets/keyboard/lv_keyboard.c **** static const char * const * kb_map[10] = {
 180:../../Middlewares/LVGL/GUI/lvgl/src/widgets/keyboard/lv_keyboard.c ****     default_kb_map_lc,
 181:../../Middlewares/LVGL/GUI/lvgl/src/widgets/keyboard/lv_keyboard.c ****     default_kb_map_uc,
 182:../../Middlewares/LVGL/GUI/lvgl/src/widgets/keyboard/lv_keyboard.c ****     default_kb_map_spec,
 183:../../Middlewares/LVGL/GUI/lvgl/src/widgets/keyboard/lv_keyboard.c ****     default_kb_map_num,
 184:../../Middlewares/LVGL/GUI/lvgl/src/widgets/keyboard/lv_keyboard.c ****     default_kb_map_lc,
 185:../../Middlewares/LVGL/GUI/lvgl/src/widgets/keyboard/lv_keyboard.c ****     default_kb_map_lc,
 186:../../Middlewares/LVGL/GUI/lvgl/src/widgets/keyboard/lv_keyboard.c ****     default_kb_map_lc,
 187:../../Middlewares/LVGL/GUI/lvgl/src/widgets/keyboard/lv_keyboard.c ****     default_kb_map_lc,
 188:../../Middlewares/LVGL/GUI/lvgl/src/widgets/keyboard/lv_keyboard.c **** #if LV_USE_ARABIC_PERSIAN_CHARS == 1
 189:../../Middlewares/LVGL/GUI/lvgl/src/widgets/keyboard/lv_keyboard.c ****     default_kb_map_ar,
 190:../../Middlewares/LVGL/GUI/lvgl/src/widgets/keyboard/lv_keyboard.c **** #endif
 191:../../Middlewares/LVGL/GUI/lvgl/src/widgets/keyboard/lv_keyboard.c ****     NULL
 192:../../Middlewares/LVGL/GUI/lvgl/src/widgets/keyboard/lv_keyboard.c **** };
 193:../../Middlewares/LVGL/GUI/lvgl/src/widgets/keyboard/lv_keyboard.c **** static const lv_buttonmatrix_ctrl_t * kb_ctrl[10] = {
 194:../../Middlewares/LVGL/GUI/lvgl/src/widgets/keyboard/lv_keyboard.c ****     default_kb_ctrl_lc_map,
 195:../../Middlewares/LVGL/GUI/lvgl/src/widgets/keyboard/lv_keyboard.c ****     default_kb_ctrl_uc_map,
 196:../../Middlewares/LVGL/GUI/lvgl/src/widgets/keyboard/lv_keyboard.c ****     default_kb_ctrl_spec_map,
 197:../../Middlewares/LVGL/GUI/lvgl/src/widgets/keyboard/lv_keyboard.c ****     default_kb_ctrl_num_map,
 198:../../Middlewares/LVGL/GUI/lvgl/src/widgets/keyboard/lv_keyboard.c ****     default_kb_ctrl_lc_map,
 199:../../Middlewares/LVGL/GUI/lvgl/src/widgets/keyboard/lv_keyboard.c ****     default_kb_ctrl_lc_map,
 200:../../Middlewares/LVGL/GUI/lvgl/src/widgets/keyboard/lv_keyboard.c ****     default_kb_ctrl_lc_map,
 201:../../Middlewares/LVGL/GUI/lvgl/src/widgets/keyboard/lv_keyboard.c ****     default_kb_ctrl_lc_map,
 202:../../Middlewares/LVGL/GUI/lvgl/src/widgets/keyboard/lv_keyboard.c **** #if LV_USE_ARABIC_PERSIAN_CHARS == 1
ARM GAS  C:\Users\28576\AppData\Local\Temp\ccvpiibb.s 			page 5


 203:../../Middlewares/LVGL/GUI/lvgl/src/widgets/keyboard/lv_keyboard.c ****     default_kb_ctrl_ar_map,
 204:../../Middlewares/LVGL/GUI/lvgl/src/widgets/keyboard/lv_keyboard.c **** #endif
 205:../../Middlewares/LVGL/GUI/lvgl/src/widgets/keyboard/lv_keyboard.c ****     NULL
 206:../../Middlewares/LVGL/GUI/lvgl/src/widgets/keyboard/lv_keyboard.c **** };
 207:../../Middlewares/LVGL/GUI/lvgl/src/widgets/keyboard/lv_keyboard.c **** 
 208:../../Middlewares/LVGL/GUI/lvgl/src/widgets/keyboard/lv_keyboard.c **** /**********************
 209:../../Middlewares/LVGL/GUI/lvgl/src/widgets/keyboard/lv_keyboard.c ****  *      MACROS
 210:../../Middlewares/LVGL/GUI/lvgl/src/widgets/keyboard/lv_keyboard.c ****  **********************/
 211:../../Middlewares/LVGL/GUI/lvgl/src/widgets/keyboard/lv_keyboard.c **** 
 212:../../Middlewares/LVGL/GUI/lvgl/src/widgets/keyboard/lv_keyboard.c **** /**********************
 213:../../Middlewares/LVGL/GUI/lvgl/src/widgets/keyboard/lv_keyboard.c ****  *   GLOBAL FUNCTIONS
 214:../../Middlewares/LVGL/GUI/lvgl/src/widgets/keyboard/lv_keyboard.c ****  **********************/
 215:../../Middlewares/LVGL/GUI/lvgl/src/widgets/keyboard/lv_keyboard.c **** 
 216:../../Middlewares/LVGL/GUI/lvgl/src/widgets/keyboard/lv_keyboard.c **** lv_obj_t * lv_keyboard_create(lv_obj_t * parent)
 217:../../Middlewares/LVGL/GUI/lvgl/src/widgets/keyboard/lv_keyboard.c **** {
 218:../../Middlewares/LVGL/GUI/lvgl/src/widgets/keyboard/lv_keyboard.c ****     LV_LOG_INFO("begin");
 219:../../Middlewares/LVGL/GUI/lvgl/src/widgets/keyboard/lv_keyboard.c ****     lv_obj_t * obj = lv_obj_class_create_obj(&lv_keyboard_class, parent);
 220:../../Middlewares/LVGL/GUI/lvgl/src/widgets/keyboard/lv_keyboard.c ****     lv_obj_class_init_obj(obj);
 221:../../Middlewares/LVGL/GUI/lvgl/src/widgets/keyboard/lv_keyboard.c ****     return obj;
 222:../../Middlewares/LVGL/GUI/lvgl/src/widgets/keyboard/lv_keyboard.c **** }
 223:../../Middlewares/LVGL/GUI/lvgl/src/widgets/keyboard/lv_keyboard.c **** 
 224:../../Middlewares/LVGL/GUI/lvgl/src/widgets/keyboard/lv_keyboard.c **** /*=====================
 225:../../Middlewares/LVGL/GUI/lvgl/src/widgets/keyboard/lv_keyboard.c ****  * Setter functions
 226:../../Middlewares/LVGL/GUI/lvgl/src/widgets/keyboard/lv_keyboard.c ****  *====================*/
 227:../../Middlewares/LVGL/GUI/lvgl/src/widgets/keyboard/lv_keyboard.c **** 
 228:../../Middlewares/LVGL/GUI/lvgl/src/widgets/keyboard/lv_keyboard.c **** void lv_keyboard_set_textarea(lv_obj_t * obj, lv_obj_t * ta)
 229:../../Middlewares/LVGL/GUI/lvgl/src/widgets/keyboard/lv_keyboard.c **** {
 230:../../Middlewares/LVGL/GUI/lvgl/src/widgets/keyboard/lv_keyboard.c ****     if(ta) {
 231:../../Middlewares/LVGL/GUI/lvgl/src/widgets/keyboard/lv_keyboard.c ****         LV_ASSERT_OBJ(ta, &lv_textarea_class);
 232:../../Middlewares/LVGL/GUI/lvgl/src/widgets/keyboard/lv_keyboard.c ****     }
 233:../../Middlewares/LVGL/GUI/lvgl/src/widgets/keyboard/lv_keyboard.c **** 
 234:../../Middlewares/LVGL/GUI/lvgl/src/widgets/keyboard/lv_keyboard.c ****     LV_ASSERT_OBJ(obj, MY_CLASS);
 235:../../Middlewares/LVGL/GUI/lvgl/src/widgets/keyboard/lv_keyboard.c ****     lv_keyboard_t * keyboard = (lv_keyboard_t *)obj;
 236:../../Middlewares/LVGL/GUI/lvgl/src/widgets/keyboard/lv_keyboard.c **** 
 237:../../Middlewares/LVGL/GUI/lvgl/src/widgets/keyboard/lv_keyboard.c ****     /*Hide the cursor of the old Text area if cursor management is enabled*/
 238:../../Middlewares/LVGL/GUI/lvgl/src/widgets/keyboard/lv_keyboard.c ****     if(keyboard->ta) {
 239:../../Middlewares/LVGL/GUI/lvgl/src/widgets/keyboard/lv_keyboard.c ****         lv_obj_remove_state(obj, LV_STATE_FOCUSED);
 240:../../Middlewares/LVGL/GUI/lvgl/src/widgets/keyboard/lv_keyboard.c ****     }
 241:../../Middlewares/LVGL/GUI/lvgl/src/widgets/keyboard/lv_keyboard.c **** 
 242:../../Middlewares/LVGL/GUI/lvgl/src/widgets/keyboard/lv_keyboard.c ****     keyboard->ta = ta;
 243:../../Middlewares/LVGL/GUI/lvgl/src/widgets/keyboard/lv_keyboard.c **** 
 244:../../Middlewares/LVGL/GUI/lvgl/src/widgets/keyboard/lv_keyboard.c ****     /*Show the cursor of the new Text area if cursor management is enabled*/
 245:../../Middlewares/LVGL/GUI/lvgl/src/widgets/keyboard/lv_keyboard.c ****     if(keyboard->ta) {
 246:../../Middlewares/LVGL/GUI/lvgl/src/widgets/keyboard/lv_keyboard.c ****         lv_obj_add_state(obj, LV_STATE_FOCUSED);
 247:../../Middlewares/LVGL/GUI/lvgl/src/widgets/keyboard/lv_keyboard.c ****     }
 248:../../Middlewares/LVGL/GUI/lvgl/src/widgets/keyboard/lv_keyboard.c **** }
 249:../../Middlewares/LVGL/GUI/lvgl/src/widgets/keyboard/lv_keyboard.c **** 
 250:../../Middlewares/LVGL/GUI/lvgl/src/widgets/keyboard/lv_keyboard.c **** void lv_keyboard_set_mode(lv_obj_t * obj, lv_keyboard_mode_t mode)
 251:../../Middlewares/LVGL/GUI/lvgl/src/widgets/keyboard/lv_keyboard.c **** {
 252:../../Middlewares/LVGL/GUI/lvgl/src/widgets/keyboard/lv_keyboard.c ****     LV_ASSERT_OBJ(obj, MY_CLASS);
 253:../../Middlewares/LVGL/GUI/lvgl/src/widgets/keyboard/lv_keyboard.c ****     lv_keyboard_t * keyboard = (lv_keyboard_t *)obj;
 254:../../Middlewares/LVGL/GUI/lvgl/src/widgets/keyboard/lv_keyboard.c ****     if(keyboard->mode == mode) return;
 255:../../Middlewares/LVGL/GUI/lvgl/src/widgets/keyboard/lv_keyboard.c **** 
 256:../../Middlewares/LVGL/GUI/lvgl/src/widgets/keyboard/lv_keyboard.c ****     keyboard->mode = mode;
 257:../../Middlewares/LVGL/GUI/lvgl/src/widgets/keyboard/lv_keyboard.c ****     lv_keyboard_update_map(obj);
 258:../../Middlewares/LVGL/GUI/lvgl/src/widgets/keyboard/lv_keyboard.c **** }
 259:../../Middlewares/LVGL/GUI/lvgl/src/widgets/keyboard/lv_keyboard.c **** 
ARM GAS  C:\Users\28576\AppData\Local\Temp\ccvpiibb.s 			page 6


 260:../../Middlewares/LVGL/GUI/lvgl/src/widgets/keyboard/lv_keyboard.c **** void lv_keyboard_set_popovers(lv_obj_t * obj, bool en)
 261:../../Middlewares/LVGL/GUI/lvgl/src/widgets/keyboard/lv_keyboard.c **** {
 262:../../Middlewares/LVGL/GUI/lvgl/src/widgets/keyboard/lv_keyboard.c ****     lv_keyboard_t * keyboard = (lv_keyboard_t *)obj;
 263:../../Middlewares/LVGL/GUI/lvgl/src/widgets/keyboard/lv_keyboard.c **** 
 264:../../Middlewares/LVGL/GUI/lvgl/src/widgets/keyboard/lv_keyboard.c ****     if(keyboard->popovers == en) {
 265:../../Middlewares/LVGL/GUI/lvgl/src/widgets/keyboard/lv_keyboard.c ****         return;
 266:../../Middlewares/LVGL/GUI/lvgl/src/widgets/keyboard/lv_keyboard.c ****     }
 267:../../Middlewares/LVGL/GUI/lvgl/src/widgets/keyboard/lv_keyboard.c **** 
 268:../../Middlewares/LVGL/GUI/lvgl/src/widgets/keyboard/lv_keyboard.c ****     keyboard->popovers = en;
 269:../../Middlewares/LVGL/GUI/lvgl/src/widgets/keyboard/lv_keyboard.c ****     lv_keyboard_update_ctrl_map(obj);
 270:../../Middlewares/LVGL/GUI/lvgl/src/widgets/keyboard/lv_keyboard.c **** }
 271:../../Middlewares/LVGL/GUI/lvgl/src/widgets/keyboard/lv_keyboard.c **** 
 272:../../Middlewares/LVGL/GUI/lvgl/src/widgets/keyboard/lv_keyboard.c **** void lv_keyboard_set_map(lv_obj_t * obj, lv_keyboard_mode_t mode, const char * const map[],
 273:../../Middlewares/LVGL/GUI/lvgl/src/widgets/keyboard/lv_keyboard.c ****                          const lv_buttonmatrix_ctrl_t ctrl_map[])
 274:../../Middlewares/LVGL/GUI/lvgl/src/widgets/keyboard/lv_keyboard.c **** {
 275:../../Middlewares/LVGL/GUI/lvgl/src/widgets/keyboard/lv_keyboard.c ****     LV_ASSERT_OBJ(obj, MY_CLASS);
 276:../../Middlewares/LVGL/GUI/lvgl/src/widgets/keyboard/lv_keyboard.c ****     kb_map[mode] = map;
 277:../../Middlewares/LVGL/GUI/lvgl/src/widgets/keyboard/lv_keyboard.c ****     kb_ctrl[mode] = ctrl_map;
 278:../../Middlewares/LVGL/GUI/lvgl/src/widgets/keyboard/lv_keyboard.c ****     lv_keyboard_update_map(obj);
 279:../../Middlewares/LVGL/GUI/lvgl/src/widgets/keyboard/lv_keyboard.c **** }
 280:../../Middlewares/LVGL/GUI/lvgl/src/widgets/keyboard/lv_keyboard.c **** 
 281:../../Middlewares/LVGL/GUI/lvgl/src/widgets/keyboard/lv_keyboard.c **** /*=====================
 282:../../Middlewares/LVGL/GUI/lvgl/src/widgets/keyboard/lv_keyboard.c ****  * Getter functions
 283:../../Middlewares/LVGL/GUI/lvgl/src/widgets/keyboard/lv_keyboard.c ****  *====================*/
 284:../../Middlewares/LVGL/GUI/lvgl/src/widgets/keyboard/lv_keyboard.c **** 
 285:../../Middlewares/LVGL/GUI/lvgl/src/widgets/keyboard/lv_keyboard.c **** lv_obj_t * lv_keyboard_get_textarea(const lv_obj_t * obj)
 286:../../Middlewares/LVGL/GUI/lvgl/src/widgets/keyboard/lv_keyboard.c **** {
 287:../../Middlewares/LVGL/GUI/lvgl/src/widgets/keyboard/lv_keyboard.c ****     LV_ASSERT_OBJ(obj, MY_CLASS);
 288:../../Middlewares/LVGL/GUI/lvgl/src/widgets/keyboard/lv_keyboard.c ****     lv_keyboard_t * keyboard = (lv_keyboard_t *)obj;
 289:../../Middlewares/LVGL/GUI/lvgl/src/widgets/keyboard/lv_keyboard.c ****     return keyboard->ta;
 290:../../Middlewares/LVGL/GUI/lvgl/src/widgets/keyboard/lv_keyboard.c **** }
 291:../../Middlewares/LVGL/GUI/lvgl/src/widgets/keyboard/lv_keyboard.c **** 
 292:../../Middlewares/LVGL/GUI/lvgl/src/widgets/keyboard/lv_keyboard.c **** lv_keyboard_mode_t lv_keyboard_get_mode(const lv_obj_t * obj)
 293:../../Middlewares/LVGL/GUI/lvgl/src/widgets/keyboard/lv_keyboard.c **** {
 294:../../Middlewares/LVGL/GUI/lvgl/src/widgets/keyboard/lv_keyboard.c ****     LV_ASSERT_OBJ(obj, MY_CLASS);
 295:../../Middlewares/LVGL/GUI/lvgl/src/widgets/keyboard/lv_keyboard.c ****     lv_keyboard_t * keyboard = (lv_keyboard_t *)obj;
 296:../../Middlewares/LVGL/GUI/lvgl/src/widgets/keyboard/lv_keyboard.c ****     return keyboard->mode;
 297:../../Middlewares/LVGL/GUI/lvgl/src/widgets/keyboard/lv_keyboard.c **** }
 298:../../Middlewares/LVGL/GUI/lvgl/src/widgets/keyboard/lv_keyboard.c **** 
 299:../../Middlewares/LVGL/GUI/lvgl/src/widgets/keyboard/lv_keyboard.c **** bool lv_keyboard_get_popovers(const lv_obj_t * obj)
 300:../../Middlewares/LVGL/GUI/lvgl/src/widgets/keyboard/lv_keyboard.c **** {
 301:../../Middlewares/LVGL/GUI/lvgl/src/widgets/keyboard/lv_keyboard.c ****     lv_keyboard_t * keyboard = (lv_keyboard_t *)obj;
 302:../../Middlewares/LVGL/GUI/lvgl/src/widgets/keyboard/lv_keyboard.c ****     return keyboard->popovers;
 303:../../Middlewares/LVGL/GUI/lvgl/src/widgets/keyboard/lv_keyboard.c **** }
 304:../../Middlewares/LVGL/GUI/lvgl/src/widgets/keyboard/lv_keyboard.c **** 
 305:../../Middlewares/LVGL/GUI/lvgl/src/widgets/keyboard/lv_keyboard.c **** /*=====================
 306:../../Middlewares/LVGL/GUI/lvgl/src/widgets/keyboard/lv_keyboard.c ****  * Other functions
 307:../../Middlewares/LVGL/GUI/lvgl/src/widgets/keyboard/lv_keyboard.c ****  *====================*/
 308:../../Middlewares/LVGL/GUI/lvgl/src/widgets/keyboard/lv_keyboard.c **** 
 309:../../Middlewares/LVGL/GUI/lvgl/src/widgets/keyboard/lv_keyboard.c **** void lv_keyboard_def_event_cb(lv_event_t * e)
 310:../../Middlewares/LVGL/GUI/lvgl/src/widgets/keyboard/lv_keyboard.c **** {
 311:../../Middlewares/LVGL/GUI/lvgl/src/widgets/keyboard/lv_keyboard.c ****     lv_obj_t * obj = lv_event_get_current_target(e);
 312:../../Middlewares/LVGL/GUI/lvgl/src/widgets/keyboard/lv_keyboard.c **** 
 313:../../Middlewares/LVGL/GUI/lvgl/src/widgets/keyboard/lv_keyboard.c ****     LV_ASSERT_OBJ(obj, MY_CLASS);
 314:../../Middlewares/LVGL/GUI/lvgl/src/widgets/keyboard/lv_keyboard.c ****     lv_keyboard_t * keyboard = (lv_keyboard_t *)obj;
 315:../../Middlewares/LVGL/GUI/lvgl/src/widgets/keyboard/lv_keyboard.c ****     uint32_t btn_id = lv_buttonmatrix_get_selected_button(obj);
 316:../../Middlewares/LVGL/GUI/lvgl/src/widgets/keyboard/lv_keyboard.c ****     if(btn_id == LV_BUTTONMATRIX_BUTTON_NONE) return;
ARM GAS  C:\Users\28576\AppData\Local\Temp\ccvpiibb.s 			page 7


 317:../../Middlewares/LVGL/GUI/lvgl/src/widgets/keyboard/lv_keyboard.c **** 
 318:../../Middlewares/LVGL/GUI/lvgl/src/widgets/keyboard/lv_keyboard.c ****     const char * txt = lv_buttonmatrix_get_button_text(obj, btn_id);
 319:../../Middlewares/LVGL/GUI/lvgl/src/widgets/keyboard/lv_keyboard.c ****     if(txt == NULL) return;
 320:../../Middlewares/LVGL/GUI/lvgl/src/widgets/keyboard/lv_keyboard.c **** 
 321:../../Middlewares/LVGL/GUI/lvgl/src/widgets/keyboard/lv_keyboard.c ****     if(lv_strcmp(txt, "abc") == 0) {
 322:../../Middlewares/LVGL/GUI/lvgl/src/widgets/keyboard/lv_keyboard.c ****         keyboard->mode = LV_KEYBOARD_MODE_TEXT_LOWER;
 323:../../Middlewares/LVGL/GUI/lvgl/src/widgets/keyboard/lv_keyboard.c ****         lv_buttonmatrix_set_map(obj, kb_map[LV_KEYBOARD_MODE_TEXT_LOWER]);
 324:../../Middlewares/LVGL/GUI/lvgl/src/widgets/keyboard/lv_keyboard.c ****         lv_keyboard_update_ctrl_map(obj);
 325:../../Middlewares/LVGL/GUI/lvgl/src/widgets/keyboard/lv_keyboard.c ****         return;
 326:../../Middlewares/LVGL/GUI/lvgl/src/widgets/keyboard/lv_keyboard.c ****     }
 327:../../Middlewares/LVGL/GUI/lvgl/src/widgets/keyboard/lv_keyboard.c **** #if LV_USE_ARABIC_PERSIAN_CHARS == 1
 328:../../Middlewares/LVGL/GUI/lvgl/src/widgets/keyboard/lv_keyboard.c ****     else if(lv_strcmp(txt, "أب") == 0) {
 329:../../Middlewares/LVGL/GUI/lvgl/src/widgets/keyboard/lv_keyboard.c ****         keyboard->mode = LV_KEYBOARD_MODE_TEXT_ARABIC;
 330:../../Middlewares/LVGL/GUI/lvgl/src/widgets/keyboard/lv_keyboard.c ****         lv_buttonmatrix_set_map(obj, kb_map[LV_KEYBOARD_MODE_TEXT_ARABIC]);
 331:../../Middlewares/LVGL/GUI/lvgl/src/widgets/keyboard/lv_keyboard.c ****         lv_keyboard_update_ctrl_map(obj);
 332:../../Middlewares/LVGL/GUI/lvgl/src/widgets/keyboard/lv_keyboard.c ****         return;
 333:../../Middlewares/LVGL/GUI/lvgl/src/widgets/keyboard/lv_keyboard.c ****     }
 334:../../Middlewares/LVGL/GUI/lvgl/src/widgets/keyboard/lv_keyboard.c **** #endif
 335:../../Middlewares/LVGL/GUI/lvgl/src/widgets/keyboard/lv_keyboard.c ****     else if(lv_strcmp(txt, "ABC") == 0) {
 336:../../Middlewares/LVGL/GUI/lvgl/src/widgets/keyboard/lv_keyboard.c ****         keyboard->mode = LV_KEYBOARD_MODE_TEXT_UPPER;
 337:../../Middlewares/LVGL/GUI/lvgl/src/widgets/keyboard/lv_keyboard.c ****         lv_buttonmatrix_set_map(obj, kb_map[LV_KEYBOARD_MODE_TEXT_UPPER]);
 338:../../Middlewares/LVGL/GUI/lvgl/src/widgets/keyboard/lv_keyboard.c ****         lv_keyboard_update_ctrl_map(obj);
 339:../../Middlewares/LVGL/GUI/lvgl/src/widgets/keyboard/lv_keyboard.c ****         return;
 340:../../Middlewares/LVGL/GUI/lvgl/src/widgets/keyboard/lv_keyboard.c ****     }
 341:../../Middlewares/LVGL/GUI/lvgl/src/widgets/keyboard/lv_keyboard.c ****     else if(lv_strcmp(txt, "1#") == 0) {
 342:../../Middlewares/LVGL/GUI/lvgl/src/widgets/keyboard/lv_keyboard.c ****         keyboard->mode = LV_KEYBOARD_MODE_SPECIAL;
 343:../../Middlewares/LVGL/GUI/lvgl/src/widgets/keyboard/lv_keyboard.c ****         lv_buttonmatrix_set_map(obj, kb_map[LV_KEYBOARD_MODE_SPECIAL]);
 344:../../Middlewares/LVGL/GUI/lvgl/src/widgets/keyboard/lv_keyboard.c ****         lv_keyboard_update_ctrl_map(obj);
 345:../../Middlewares/LVGL/GUI/lvgl/src/widgets/keyboard/lv_keyboard.c ****         return;
 346:../../Middlewares/LVGL/GUI/lvgl/src/widgets/keyboard/lv_keyboard.c ****     }
 347:../../Middlewares/LVGL/GUI/lvgl/src/widgets/keyboard/lv_keyboard.c ****     else if(lv_strcmp(txt, LV_SYMBOL_CLOSE) == 0 || lv_strcmp(txt, LV_SYMBOL_KEYBOARD) == 0) {
 348:../../Middlewares/LVGL/GUI/lvgl/src/widgets/keyboard/lv_keyboard.c ****         lv_result_t res = lv_obj_send_event(obj, LV_EVENT_CANCEL, NULL);
 349:../../Middlewares/LVGL/GUI/lvgl/src/widgets/keyboard/lv_keyboard.c ****         if(res != LV_RESULT_OK) return;
 350:../../Middlewares/LVGL/GUI/lvgl/src/widgets/keyboard/lv_keyboard.c **** 
 351:../../Middlewares/LVGL/GUI/lvgl/src/widgets/keyboard/lv_keyboard.c ****         if(keyboard->ta) {
 352:../../Middlewares/LVGL/GUI/lvgl/src/widgets/keyboard/lv_keyboard.c ****             res = lv_obj_send_event(keyboard->ta, LV_EVENT_CANCEL, NULL);
 353:../../Middlewares/LVGL/GUI/lvgl/src/widgets/keyboard/lv_keyboard.c ****             if(res != LV_RESULT_OK) return;
 354:../../Middlewares/LVGL/GUI/lvgl/src/widgets/keyboard/lv_keyboard.c ****         }
 355:../../Middlewares/LVGL/GUI/lvgl/src/widgets/keyboard/lv_keyboard.c ****         return;
 356:../../Middlewares/LVGL/GUI/lvgl/src/widgets/keyboard/lv_keyboard.c ****     }
 357:../../Middlewares/LVGL/GUI/lvgl/src/widgets/keyboard/lv_keyboard.c ****     else if(lv_strcmp(txt, LV_SYMBOL_OK) == 0) {
 358:../../Middlewares/LVGL/GUI/lvgl/src/widgets/keyboard/lv_keyboard.c ****         lv_result_t res = lv_obj_send_event(obj, LV_EVENT_READY, NULL);
 359:../../Middlewares/LVGL/GUI/lvgl/src/widgets/keyboard/lv_keyboard.c ****         if(res != LV_RESULT_OK) return;
 360:../../Middlewares/LVGL/GUI/lvgl/src/widgets/keyboard/lv_keyboard.c **** 
 361:../../Middlewares/LVGL/GUI/lvgl/src/widgets/keyboard/lv_keyboard.c ****         if(keyboard->ta) {
 362:../../Middlewares/LVGL/GUI/lvgl/src/widgets/keyboard/lv_keyboard.c ****             res = lv_obj_send_event(keyboard->ta, LV_EVENT_READY, NULL);
 363:../../Middlewares/LVGL/GUI/lvgl/src/widgets/keyboard/lv_keyboard.c ****             if(res != LV_RESULT_OK) return;
 364:../../Middlewares/LVGL/GUI/lvgl/src/widgets/keyboard/lv_keyboard.c ****         }
 365:../../Middlewares/LVGL/GUI/lvgl/src/widgets/keyboard/lv_keyboard.c ****         return;
 366:../../Middlewares/LVGL/GUI/lvgl/src/widgets/keyboard/lv_keyboard.c ****     }
 367:../../Middlewares/LVGL/GUI/lvgl/src/widgets/keyboard/lv_keyboard.c **** 
 368:../../Middlewares/LVGL/GUI/lvgl/src/widgets/keyboard/lv_keyboard.c ****     /*Add the characters to the text area if set*/
 369:../../Middlewares/LVGL/GUI/lvgl/src/widgets/keyboard/lv_keyboard.c ****     if(keyboard->ta == NULL) return;
 370:../../Middlewares/LVGL/GUI/lvgl/src/widgets/keyboard/lv_keyboard.c **** 
 371:../../Middlewares/LVGL/GUI/lvgl/src/widgets/keyboard/lv_keyboard.c ****     if(lv_strcmp(txt, "Enter") == 0 || lv_strcmp(txt, LV_SYMBOL_NEW_LINE) == 0) {
 372:../../Middlewares/LVGL/GUI/lvgl/src/widgets/keyboard/lv_keyboard.c ****         lv_textarea_add_char(keyboard->ta, '\n');
 373:../../Middlewares/LVGL/GUI/lvgl/src/widgets/keyboard/lv_keyboard.c ****         if(lv_textarea_get_one_line(keyboard->ta)) {
ARM GAS  C:\Users\28576\AppData\Local\Temp\ccvpiibb.s 			page 8


 374:../../Middlewares/LVGL/GUI/lvgl/src/widgets/keyboard/lv_keyboard.c ****             lv_result_t res = lv_obj_send_event(keyboard->ta, LV_EVENT_READY, NULL);
 375:../../Middlewares/LVGL/GUI/lvgl/src/widgets/keyboard/lv_keyboard.c ****             if(res != LV_RESULT_OK) return;
 376:../../Middlewares/LVGL/GUI/lvgl/src/widgets/keyboard/lv_keyboard.c ****         }
 377:../../Middlewares/LVGL/GUI/lvgl/src/widgets/keyboard/lv_keyboard.c ****     }
 378:../../Middlewares/LVGL/GUI/lvgl/src/widgets/keyboard/lv_keyboard.c ****     else if(lv_strcmp(txt, LV_SYMBOL_LEFT) == 0) {
 379:../../Middlewares/LVGL/GUI/lvgl/src/widgets/keyboard/lv_keyboard.c ****         lv_textarea_cursor_left(keyboard->ta);
 380:../../Middlewares/LVGL/GUI/lvgl/src/widgets/keyboard/lv_keyboard.c ****     }
 381:../../Middlewares/LVGL/GUI/lvgl/src/widgets/keyboard/lv_keyboard.c ****     else if(lv_strcmp(txt, LV_SYMBOL_RIGHT) == 0) {
 382:../../Middlewares/LVGL/GUI/lvgl/src/widgets/keyboard/lv_keyboard.c ****         lv_textarea_cursor_right(keyboard->ta);
 383:../../Middlewares/LVGL/GUI/lvgl/src/widgets/keyboard/lv_keyboard.c ****     }
 384:../../Middlewares/LVGL/GUI/lvgl/src/widgets/keyboard/lv_keyboard.c ****     else if(lv_strcmp(txt, LV_SYMBOL_BACKSPACE) == 0) {
 385:../../Middlewares/LVGL/GUI/lvgl/src/widgets/keyboard/lv_keyboard.c ****         lv_textarea_delete_char(keyboard->ta);
 386:../../Middlewares/LVGL/GUI/lvgl/src/widgets/keyboard/lv_keyboard.c ****     }
 387:../../Middlewares/LVGL/GUI/lvgl/src/widgets/keyboard/lv_keyboard.c ****     else if(lv_strcmp(txt, "+/-") == 0) {
 388:../../Middlewares/LVGL/GUI/lvgl/src/widgets/keyboard/lv_keyboard.c ****         uint32_t cur        = lv_textarea_get_cursor_pos(keyboard->ta);
 389:../../Middlewares/LVGL/GUI/lvgl/src/widgets/keyboard/lv_keyboard.c ****         const char * ta_txt = lv_textarea_get_text(keyboard->ta);
 390:../../Middlewares/LVGL/GUI/lvgl/src/widgets/keyboard/lv_keyboard.c ****         if(ta_txt[0] == '-') {
 391:../../Middlewares/LVGL/GUI/lvgl/src/widgets/keyboard/lv_keyboard.c ****             lv_textarea_set_cursor_pos(keyboard->ta, 1);
 392:../../Middlewares/LVGL/GUI/lvgl/src/widgets/keyboard/lv_keyboard.c ****             lv_textarea_delete_char(keyboard->ta);
 393:../../Middlewares/LVGL/GUI/lvgl/src/widgets/keyboard/lv_keyboard.c ****             lv_textarea_add_char(keyboard->ta, '+');
 394:../../Middlewares/LVGL/GUI/lvgl/src/widgets/keyboard/lv_keyboard.c ****             lv_textarea_set_cursor_pos(keyboard->ta, cur);
 395:../../Middlewares/LVGL/GUI/lvgl/src/widgets/keyboard/lv_keyboard.c ****         }
 396:../../Middlewares/LVGL/GUI/lvgl/src/widgets/keyboard/lv_keyboard.c ****         else if(ta_txt[0] == '+') {
 397:../../Middlewares/LVGL/GUI/lvgl/src/widgets/keyboard/lv_keyboard.c ****             lv_textarea_set_cursor_pos(keyboard->ta, 1);
 398:../../Middlewares/LVGL/GUI/lvgl/src/widgets/keyboard/lv_keyboard.c ****             lv_textarea_delete_char(keyboard->ta);
 399:../../Middlewares/LVGL/GUI/lvgl/src/widgets/keyboard/lv_keyboard.c ****             lv_textarea_add_char(keyboard->ta, '-');
 400:../../Middlewares/LVGL/GUI/lvgl/src/widgets/keyboard/lv_keyboard.c ****             lv_textarea_set_cursor_pos(keyboard->ta, cur);
 401:../../Middlewares/LVGL/GUI/lvgl/src/widgets/keyboard/lv_keyboard.c ****         }
 402:../../Middlewares/LVGL/GUI/lvgl/src/widgets/keyboard/lv_keyboard.c ****         else {
 403:../../Middlewares/LVGL/GUI/lvgl/src/widgets/keyboard/lv_keyboard.c ****             lv_textarea_set_cursor_pos(keyboard->ta, 0);
 404:../../Middlewares/LVGL/GUI/lvgl/src/widgets/keyboard/lv_keyboard.c ****             lv_textarea_add_char(keyboard->ta, '-');
 405:../../Middlewares/LVGL/GUI/lvgl/src/widgets/keyboard/lv_keyboard.c ****             lv_textarea_set_cursor_pos(keyboard->ta, cur + 1);
 406:../../Middlewares/LVGL/GUI/lvgl/src/widgets/keyboard/lv_keyboard.c ****         }
 407:../../Middlewares/LVGL/GUI/lvgl/src/widgets/keyboard/lv_keyboard.c ****     }
 408:../../Middlewares/LVGL/GUI/lvgl/src/widgets/keyboard/lv_keyboard.c ****     else {
 409:../../Middlewares/LVGL/GUI/lvgl/src/widgets/keyboard/lv_keyboard.c ****         lv_textarea_add_text(keyboard->ta, txt);
 410:../../Middlewares/LVGL/GUI/lvgl/src/widgets/keyboard/lv_keyboard.c ****     }
 411:../../Middlewares/LVGL/GUI/lvgl/src/widgets/keyboard/lv_keyboard.c **** }
 412:../../Middlewares/LVGL/GUI/lvgl/src/widgets/keyboard/lv_keyboard.c **** 
 413:../../Middlewares/LVGL/GUI/lvgl/src/widgets/keyboard/lv_keyboard.c **** const char * const * lv_keyboard_get_map_array(const lv_obj_t * kb)
 414:../../Middlewares/LVGL/GUI/lvgl/src/widgets/keyboard/lv_keyboard.c **** {
 415:../../Middlewares/LVGL/GUI/lvgl/src/widgets/keyboard/lv_keyboard.c ****     return lv_buttonmatrix_get_map(kb);
 416:../../Middlewares/LVGL/GUI/lvgl/src/widgets/keyboard/lv_keyboard.c **** }
 417:../../Middlewares/LVGL/GUI/lvgl/src/widgets/keyboard/lv_keyboard.c **** 
 418:../../Middlewares/LVGL/GUI/lvgl/src/widgets/keyboard/lv_keyboard.c **** uint32_t lv_keyboard_get_selected_button(const lv_obj_t * obj)
 419:../../Middlewares/LVGL/GUI/lvgl/src/widgets/keyboard/lv_keyboard.c **** {
 420:../../Middlewares/LVGL/GUI/lvgl/src/widgets/keyboard/lv_keyboard.c ****     return lv_buttonmatrix_get_selected_button(obj);
 421:../../Middlewares/LVGL/GUI/lvgl/src/widgets/keyboard/lv_keyboard.c **** }
 422:../../Middlewares/LVGL/GUI/lvgl/src/widgets/keyboard/lv_keyboard.c **** 
 423:../../Middlewares/LVGL/GUI/lvgl/src/widgets/keyboard/lv_keyboard.c **** const char * lv_keyboard_get_button_text(const lv_obj_t * obj, uint32_t btn_id)
 424:../../Middlewares/LVGL/GUI/lvgl/src/widgets/keyboard/lv_keyboard.c **** {
 425:../../Middlewares/LVGL/GUI/lvgl/src/widgets/keyboard/lv_keyboard.c ****     return lv_buttonmatrix_get_button_text(obj, btn_id);
 426:../../Middlewares/LVGL/GUI/lvgl/src/widgets/keyboard/lv_keyboard.c **** }
 427:../../Middlewares/LVGL/GUI/lvgl/src/widgets/keyboard/lv_keyboard.c **** 
 428:../../Middlewares/LVGL/GUI/lvgl/src/widgets/keyboard/lv_keyboard.c **** /**********************
 429:../../Middlewares/LVGL/GUI/lvgl/src/widgets/keyboard/lv_keyboard.c ****  *   STATIC FUNCTIONS
 430:../../Middlewares/LVGL/GUI/lvgl/src/widgets/keyboard/lv_keyboard.c ****  **********************/
ARM GAS  C:\Users\28576\AppData\Local\Temp\ccvpiibb.s 			page 9


 431:../../Middlewares/LVGL/GUI/lvgl/src/widgets/keyboard/lv_keyboard.c **** 
 432:../../Middlewares/LVGL/GUI/lvgl/src/widgets/keyboard/lv_keyboard.c **** static void lv_keyboard_constructor(const lv_obj_class_t * class_p, lv_obj_t * obj)
 433:../../Middlewares/LVGL/GUI/lvgl/src/widgets/keyboard/lv_keyboard.c **** {
 434:../../Middlewares/LVGL/GUI/lvgl/src/widgets/keyboard/lv_keyboard.c ****     LV_UNUSED(class_p);
 435:../../Middlewares/LVGL/GUI/lvgl/src/widgets/keyboard/lv_keyboard.c ****     lv_obj_remove_flag(obj, LV_OBJ_FLAG_CLICK_FOCUSABLE);
 436:../../Middlewares/LVGL/GUI/lvgl/src/widgets/keyboard/lv_keyboard.c **** 
 437:../../Middlewares/LVGL/GUI/lvgl/src/widgets/keyboard/lv_keyboard.c ****     lv_keyboard_t * keyboard = (lv_keyboard_t *)obj;
 438:../../Middlewares/LVGL/GUI/lvgl/src/widgets/keyboard/lv_keyboard.c ****     keyboard->ta         = NULL;
 439:../../Middlewares/LVGL/GUI/lvgl/src/widgets/keyboard/lv_keyboard.c ****     keyboard->mode       = LV_KEYBOARD_MODE_TEXT_LOWER;
 440:../../Middlewares/LVGL/GUI/lvgl/src/widgets/keyboard/lv_keyboard.c ****     keyboard->popovers   = 0;
 441:../../Middlewares/LVGL/GUI/lvgl/src/widgets/keyboard/lv_keyboard.c **** 
 442:../../Middlewares/LVGL/GUI/lvgl/src/widgets/keyboard/lv_keyboard.c ****     lv_obj_align(obj, LV_ALIGN_BOTTOM_MID, 0, 0);
 443:../../Middlewares/LVGL/GUI/lvgl/src/widgets/keyboard/lv_keyboard.c ****     lv_obj_add_event_cb(obj, lv_keyboard_def_event_cb, LV_EVENT_VALUE_CHANGED, NULL);
 444:../../Middlewares/LVGL/GUI/lvgl/src/widgets/keyboard/lv_keyboard.c ****     lv_obj_set_style_base_dir(obj, LV_BASE_DIR_LTR, 0);
 445:../../Middlewares/LVGL/GUI/lvgl/src/widgets/keyboard/lv_keyboard.c **** 
 446:../../Middlewares/LVGL/GUI/lvgl/src/widgets/keyboard/lv_keyboard.c ****     lv_keyboard_update_map(obj);
 447:../../Middlewares/LVGL/GUI/lvgl/src/widgets/keyboard/lv_keyboard.c **** }
 448:../../Middlewares/LVGL/GUI/lvgl/src/widgets/keyboard/lv_keyboard.c **** 
 449:../../Middlewares/LVGL/GUI/lvgl/src/widgets/keyboard/lv_keyboard.c **** /**
 450:../../Middlewares/LVGL/GUI/lvgl/src/widgets/keyboard/lv_keyboard.c ****  * Update the key and control map for the current mode
 451:../../Middlewares/LVGL/GUI/lvgl/src/widgets/keyboard/lv_keyboard.c ****  * @param obj pointer to a keyboard object
 452:../../Middlewares/LVGL/GUI/lvgl/src/widgets/keyboard/lv_keyboard.c ****  */
 453:../../Middlewares/LVGL/GUI/lvgl/src/widgets/keyboard/lv_keyboard.c **** static void lv_keyboard_update_map(lv_obj_t * obj)
 454:../../Middlewares/LVGL/GUI/lvgl/src/widgets/keyboard/lv_keyboard.c **** {
 455:../../Middlewares/LVGL/GUI/lvgl/src/widgets/keyboard/lv_keyboard.c ****     lv_keyboard_t * keyboard = (lv_keyboard_t *)obj;
 456:../../Middlewares/LVGL/GUI/lvgl/src/widgets/keyboard/lv_keyboard.c ****     lv_buttonmatrix_set_map(obj, kb_map[keyboard->mode]);
 457:../../Middlewares/LVGL/GUI/lvgl/src/widgets/keyboard/lv_keyboard.c ****     lv_keyboard_update_ctrl_map(obj);
 458:../../Middlewares/LVGL/GUI/lvgl/src/widgets/keyboard/lv_keyboard.c **** }
 459:../../Middlewares/LVGL/GUI/lvgl/src/widgets/keyboard/lv_keyboard.c **** 
 460:../../Middlewares/LVGL/GUI/lvgl/src/widgets/keyboard/lv_keyboard.c **** /**
 461:../../Middlewares/LVGL/GUI/lvgl/src/widgets/keyboard/lv_keyboard.c ****  * Update the control map for the current mode
 462:../../Middlewares/LVGL/GUI/lvgl/src/widgets/keyboard/lv_keyboard.c ****  * @param obj pointer to a keyboard object
 463:../../Middlewares/LVGL/GUI/lvgl/src/widgets/keyboard/lv_keyboard.c ****  */
 464:../../Middlewares/LVGL/GUI/lvgl/src/widgets/keyboard/lv_keyboard.c **** static void lv_keyboard_update_ctrl_map(lv_obj_t * obj)
 465:../../Middlewares/LVGL/GUI/lvgl/src/widgets/keyboard/lv_keyboard.c **** {
  28              		.loc 1 465 1 view -0
  29              		.cfi_startproc
  30              		@ args = 0, pretend = 0, frame = 0
  31              		@ frame_needed = 0, uses_anonymous_args = 0
  32              		.loc 1 465 1 is_stmt 0 view .LVU1
  33 0000 38B5     		push	{r3, r4, r5, lr}
  34              	.LCFI0:
  35              		.cfi_def_cfa_offset 16
  36              		.cfi_offset 3, -16
  37              		.cfi_offset 4, -12
  38              		.cfi_offset 5, -8
  39              		.cfi_offset 14, -4
  40 0002 0446     		mov	r4, r0
 466:../../Middlewares/LVGL/GUI/lvgl/src/widgets/keyboard/lv_keyboard.c ****     lv_keyboard_t * keyboard = (lv_keyboard_t *)obj;
  41              		.loc 1 466 5 is_stmt 1 view .LVU2
  42              	.LVL1:
 467:../../Middlewares/LVGL/GUI/lvgl/src/widgets/keyboard/lv_keyboard.c **** 
 468:../../Middlewares/LVGL/GUI/lvgl/src/widgets/keyboard/lv_keyboard.c ****     if(keyboard->popovers) {
  43              		.loc 1 468 5 view .LVU3
  44              		.loc 1 468 8 is_stmt 0 view .LVU4
  45 0004 90F84D30 		ldrb	r3, [r0, #77]	@ zero_extendqisi2
  46              		.loc 1 468 7 view .LVU5
ARM GAS  C:\Users\28576\AppData\Local\Temp\ccvpiibb.s 			page 10


  47 0008 13F0010F 		tst	r3, #1
  48 000c 07D0     		beq	.L2
 469:../../Middlewares/LVGL/GUI/lvgl/src/widgets/keyboard/lv_keyboard.c ****         /*Apply the current control map (already includes LV_BUTTONMATRIX_CTRL_POPOVER flags)*/
 470:../../Middlewares/LVGL/GUI/lvgl/src/widgets/keyboard/lv_keyboard.c ****         lv_buttonmatrix_set_ctrl_map(obj, kb_ctrl[keyboard->mode]);
  49              		.loc 1 470 9 is_stmt 1 view .LVU6
  50              		.loc 1 470 59 is_stmt 0 view .LVU7
  51 000e 90F84C20 		ldrb	r2, [r0, #76]	@ zero_extendqisi2
  52              		.loc 1 470 9 view .LVU8
  53 0012 144B     		ldr	r3, .L7
  54 0014 53F82210 		ldr	r1, [r3, r2, lsl #2]
  55 0018 FFF7FEFF 		bl	lv_buttonmatrix_set_ctrl_map
  56              	.LVL2:
  57              	.L1:
 471:../../Middlewares/LVGL/GUI/lvgl/src/widgets/keyboard/lv_keyboard.c ****     }
 472:../../Middlewares/LVGL/GUI/lvgl/src/widgets/keyboard/lv_keyboard.c ****     else {
 473:../../Middlewares/LVGL/GUI/lvgl/src/widgets/keyboard/lv_keyboard.c ****         /*Make a copy of the current control map*/
 474:../../Middlewares/LVGL/GUI/lvgl/src/widgets/keyboard/lv_keyboard.c ****         lv_buttonmatrix_t * btnm = (lv_buttonmatrix_t *)obj;
 475:../../Middlewares/LVGL/GUI/lvgl/src/widgets/keyboard/lv_keyboard.c ****         lv_buttonmatrix_ctrl_t * ctrl_map = lv_malloc(btnm->btn_cnt * sizeof(lv_buttonmatrix_ctrl_t
 476:../../Middlewares/LVGL/GUI/lvgl/src/widgets/keyboard/lv_keyboard.c ****         lv_memcpy(ctrl_map, kb_ctrl[keyboard->mode], sizeof(lv_buttonmatrix_ctrl_t) * btnm->btn_cnt
 477:../../Middlewares/LVGL/GUI/lvgl/src/widgets/keyboard/lv_keyboard.c **** 
 478:../../Middlewares/LVGL/GUI/lvgl/src/widgets/keyboard/lv_keyboard.c ****         /*Remove all LV_BUTTONMATRIX_CTRL_POPOVER flags*/
 479:../../Middlewares/LVGL/GUI/lvgl/src/widgets/keyboard/lv_keyboard.c ****         uint32_t i;
 480:../../Middlewares/LVGL/GUI/lvgl/src/widgets/keyboard/lv_keyboard.c ****         for(i = 0; i < btnm->btn_cnt; i++) {
 481:../../Middlewares/LVGL/GUI/lvgl/src/widgets/keyboard/lv_keyboard.c ****             ctrl_map[i] &= (~LV_BUTTONMATRIX_CTRL_POPOVER);
 482:../../Middlewares/LVGL/GUI/lvgl/src/widgets/keyboard/lv_keyboard.c ****         }
 483:../../Middlewares/LVGL/GUI/lvgl/src/widgets/keyboard/lv_keyboard.c **** 
 484:../../Middlewares/LVGL/GUI/lvgl/src/widgets/keyboard/lv_keyboard.c ****         /*Apply new control map and clean up*/
 485:../../Middlewares/LVGL/GUI/lvgl/src/widgets/keyboard/lv_keyboard.c ****         lv_buttonmatrix_set_ctrl_map(obj, ctrl_map);
 486:../../Middlewares/LVGL/GUI/lvgl/src/widgets/keyboard/lv_keyboard.c ****         lv_free(ctrl_map);
 487:../../Middlewares/LVGL/GUI/lvgl/src/widgets/keyboard/lv_keyboard.c ****     }
 488:../../Middlewares/LVGL/GUI/lvgl/src/widgets/keyboard/lv_keyboard.c **** }
  58              		.loc 1 488 1 view .LVU9
  59 001c 38BD     		pop	{r3, r4, r5, pc}
  60              	.LVL3:
  61              	.L2:
  62              	.LBB2:
 474:../../Middlewares/LVGL/GUI/lvgl/src/widgets/keyboard/lv_keyboard.c ****         lv_buttonmatrix_ctrl_t * ctrl_map = lv_malloc(btnm->btn_cnt * sizeof(lv_buttonmatrix_ctrl_t
  63              		.loc 1 474 9 is_stmt 1 view .LVU10
 475:../../Middlewares/LVGL/GUI/lvgl/src/widgets/keyboard/lv_keyboard.c ****         lv_memcpy(ctrl_map, kb_ctrl[keyboard->mode], sizeof(lv_buttonmatrix_ctrl_t) * btnm->btn_cnt
  64              		.loc 1 475 9 view .LVU11
 475:../../Middlewares/LVGL/GUI/lvgl/src/widgets/keyboard/lv_keyboard.c ****         lv_memcpy(ctrl_map, kb_ctrl[keyboard->mode], sizeof(lv_buttonmatrix_ctrl_t) * btnm->btn_cnt
  65              		.loc 1 475 59 is_stmt 0 view .LVU12
  66 001e 806B     		ldr	r0, [r0, #56]
  67              	.LVL4:
 475:../../Middlewares/LVGL/GUI/lvgl/src/widgets/keyboard/lv_keyboard.c ****         lv_memcpy(ctrl_map, kb_ctrl[keyboard->mode], sizeof(lv_buttonmatrix_ctrl_t) * btnm->btn_cnt
  68              		.loc 1 475 45 view .LVU13
  69 0020 4000     		lsls	r0, r0, #1
  70 0022 FFF7FEFF 		bl	lv_malloc
  71              	.LVL5:
  72 0026 0546     		mov	r5, r0
  73              	.LVL6:
 476:../../Middlewares/LVGL/GUI/lvgl/src/widgets/keyboard/lv_keyboard.c **** 
  74              		.loc 1 476 9 is_stmt 1 view .LVU14
 476:../../Middlewares/LVGL/GUI/lvgl/src/widgets/keyboard/lv_keyboard.c **** 
  75              		.loc 1 476 45 is_stmt 0 view .LVU15
  76 0028 94F84C10 		ldrb	r1, [r4, #76]	@ zero_extendqisi2
 476:../../Middlewares/LVGL/GUI/lvgl/src/widgets/keyboard/lv_keyboard.c **** 
ARM GAS  C:\Users\28576\AppData\Local\Temp\ccvpiibb.s 			page 11


  77              		.loc 1 476 91 view .LVU16
  78 002c A26B     		ldr	r2, [r4, #56]
 476:../../Middlewares/LVGL/GUI/lvgl/src/widgets/keyboard/lv_keyboard.c **** 
  79              		.loc 1 476 9 view .LVU17
  80 002e 5200     		lsls	r2, r2, #1
  81 0030 0C4B     		ldr	r3, .L7
  82 0032 53F82110 		ldr	r1, [r3, r1, lsl #2]
  83 0036 FFF7FEFF 		bl	lv_memcpy
  84              	.LVL7:
 479:../../Middlewares/LVGL/GUI/lvgl/src/widgets/keyboard/lv_keyboard.c ****         for(i = 0; i < btnm->btn_cnt; i++) {
  85              		.loc 1 479 9 is_stmt 1 view .LVU18
 480:../../Middlewares/LVGL/GUI/lvgl/src/widgets/keyboard/lv_keyboard.c ****             ctrl_map[i] &= (~LV_BUTTONMATRIX_CTRL_POPOVER);
  86              		.loc 1 480 9 view .LVU19
 480:../../Middlewares/LVGL/GUI/lvgl/src/widgets/keyboard/lv_keyboard.c ****             ctrl_map[i] &= (~LV_BUTTONMATRIX_CTRL_POPOVER);
  87              		.loc 1 480 15 is_stmt 0 view .LVU20
  88 003a 0023     		movs	r3, #0
 480:../../Middlewares/LVGL/GUI/lvgl/src/widgets/keyboard/lv_keyboard.c ****             ctrl_map[i] &= (~LV_BUTTONMATRIX_CTRL_POPOVER);
  89              		.loc 1 480 9 view .LVU21
  90 003c 06E0     		b	.L4
  91              	.LVL8:
  92              	.L5:
 481:../../Middlewares/LVGL/GUI/lvgl/src/widgets/keyboard/lv_keyboard.c ****         }
  93              		.loc 1 481 13 is_stmt 1 view .LVU22
 481:../../Middlewares/LVGL/GUI/lvgl/src/widgets/keyboard/lv_keyboard.c ****         }
  94              		.loc 1 481 25 is_stmt 0 view .LVU23
  95 003e 35F81320 		ldrh	r2, [r5, r3, lsl #1]
  96 0042 22F48062 		bic	r2, r2, #1024
  97 0046 25F81320 		strh	r2, [r5, r3, lsl #1]	@ movhi
 480:../../Middlewares/LVGL/GUI/lvgl/src/widgets/keyboard/lv_keyboard.c ****             ctrl_map[i] &= (~LV_BUTTONMATRIX_CTRL_POPOVER);
  98              		.loc 1 480 40 is_stmt 1 discriminator 3 view .LVU24
  99 004a 0133     		adds	r3, r3, #1
 100              	.LVL9:
 101              	.L4:
 480:../../Middlewares/LVGL/GUI/lvgl/src/widgets/keyboard/lv_keyboard.c ****             ctrl_map[i] &= (~LV_BUTTONMATRIX_CTRL_POPOVER);
 102              		.loc 1 480 22 discriminator 1 view .LVU25
 480:../../Middlewares/LVGL/GUI/lvgl/src/widgets/keyboard/lv_keyboard.c ****             ctrl_map[i] &= (~LV_BUTTONMATRIX_CTRL_POPOVER);
 103              		.loc 1 480 28 is_stmt 0 discriminator 1 view .LVU26
 104 004c A26B     		ldr	r2, [r4, #56]
 480:../../Middlewares/LVGL/GUI/lvgl/src/widgets/keyboard/lv_keyboard.c ****             ctrl_map[i] &= (~LV_BUTTONMATRIX_CTRL_POPOVER);
 105              		.loc 1 480 22 discriminator 1 view .LVU27
 106 004e 9A42     		cmp	r2, r3
 107 0050 F5D8     		bhi	.L5
 485:../../Middlewares/LVGL/GUI/lvgl/src/widgets/keyboard/lv_keyboard.c ****         lv_free(ctrl_map);
 108              		.loc 1 485 9 is_stmt 1 view .LVU28
 109 0052 2946     		mov	r1, r5
 110 0054 2046     		mov	r0, r4
 111 0056 FFF7FEFF 		bl	lv_buttonmatrix_set_ctrl_map
 112              	.LVL10:
 486:../../Middlewares/LVGL/GUI/lvgl/src/widgets/keyboard/lv_keyboard.c ****     }
 113              		.loc 1 486 9 view .LVU29
 114 005a 2846     		mov	r0, r5
 115 005c FFF7FEFF 		bl	lv_free
 116              	.LVL11:
 117              	.LBE2:
 118              		.loc 1 488 1 is_stmt 0 view .LVU30
 119 0060 DCE7     		b	.L1
 120              	.L8:
ARM GAS  C:\Users\28576\AppData\Local\Temp\ccvpiibb.s 			page 12


 121 0062 00BF     		.align	2
 122              	.L7:
 123 0064 00000000 		.word	kb_ctrl
 124              		.cfi_endproc
 125              	.LFE186:
 127              		.section	.text.lv_keyboard_update_map,"ax",%progbits
 128              		.align	1
 129              		.syntax unified
 130              		.thumb
 131              		.thumb_func
 133              	lv_keyboard_update_map:
 134              	.LVL12:
 135              	.LFB185:
 454:../../Middlewares/LVGL/GUI/lvgl/src/widgets/keyboard/lv_keyboard.c ****     lv_keyboard_t * keyboard = (lv_keyboard_t *)obj;
 136              		.loc 1 454 1 is_stmt 1 view -0
 137              		.cfi_startproc
 138              		@ args = 0, pretend = 0, frame = 0
 139              		@ frame_needed = 0, uses_anonymous_args = 0
 454:../../Middlewares/LVGL/GUI/lvgl/src/widgets/keyboard/lv_keyboard.c ****     lv_keyboard_t * keyboard = (lv_keyboard_t *)obj;
 140              		.loc 1 454 1 is_stmt 0 view .LVU32
 141 0000 10B5     		push	{r4, lr}
 142              	.LCFI1:
 143              		.cfi_def_cfa_offset 8
 144              		.cfi_offset 4, -8
 145              		.cfi_offset 14, -4
 146 0002 0446     		mov	r4, r0
 455:../../Middlewares/LVGL/GUI/lvgl/src/widgets/keyboard/lv_keyboard.c ****     lv_buttonmatrix_set_map(obj, kb_map[keyboard->mode]);
 147              		.loc 1 455 5 is_stmt 1 view .LVU33
 148              	.LVL13:
 456:../../Middlewares/LVGL/GUI/lvgl/src/widgets/keyboard/lv_keyboard.c ****     lv_keyboard_update_ctrl_map(obj);
 149              		.loc 1 456 5 view .LVU34
 456:../../Middlewares/LVGL/GUI/lvgl/src/widgets/keyboard/lv_keyboard.c ****     lv_keyboard_update_ctrl_map(obj);
 150              		.loc 1 456 49 is_stmt 0 view .LVU35
 151 0004 90F84C20 		ldrb	r2, [r0, #76]	@ zero_extendqisi2
 456:../../Middlewares/LVGL/GUI/lvgl/src/widgets/keyboard/lv_keyboard.c ****     lv_keyboard_update_ctrl_map(obj);
 152              		.loc 1 456 5 view .LVU36
 153 0008 044B     		ldr	r3, .L11
 154 000a 53F82210 		ldr	r1, [r3, r2, lsl #2]
 155 000e FFF7FEFF 		bl	lv_buttonmatrix_set_map
 156              	.LVL14:
 457:../../Middlewares/LVGL/GUI/lvgl/src/widgets/keyboard/lv_keyboard.c **** }
 157              		.loc 1 457 5 is_stmt 1 view .LVU37
 158 0012 2046     		mov	r0, r4
 159 0014 FFF7FEFF 		bl	lv_keyboard_update_ctrl_map
 160              	.LVL15:
 458:../../Middlewares/LVGL/GUI/lvgl/src/widgets/keyboard/lv_keyboard.c **** 
 161              		.loc 1 458 1 is_stmt 0 view .LVU38
 162 0018 10BD     		pop	{r4, pc}
 163              	.LVL16:
 164              	.L12:
 458:../../Middlewares/LVGL/GUI/lvgl/src/widgets/keyboard/lv_keyboard.c **** 
 165              		.loc 1 458 1 view .LVU39
 166 001a 00BF     		.align	2
 167              	.L11:
 168 001c 00000000 		.word	kb_map
 169              		.cfi_endproc
 170              	.LFE185:
ARM GAS  C:\Users\28576\AppData\Local\Temp\ccvpiibb.s 			page 13


 172              		.section	.text.lv_keyboard_constructor,"ax",%progbits
 173              		.align	1
 174              		.syntax unified
 175              		.thumb
 176              		.thumb_func
 178              	lv_keyboard_constructor:
 179              	.LVL17:
 180              	.LFB184:
 433:../../Middlewares/LVGL/GUI/lvgl/src/widgets/keyboard/lv_keyboard.c ****     LV_UNUSED(class_p);
 181              		.loc 1 433 1 is_stmt 1 view -0
 182              		.cfi_startproc
 183              		@ args = 0, pretend = 0, frame = 0
 184              		@ frame_needed = 0, uses_anonymous_args = 0
 433:../../Middlewares/LVGL/GUI/lvgl/src/widgets/keyboard/lv_keyboard.c ****     LV_UNUSED(class_p);
 185              		.loc 1 433 1 is_stmt 0 view .LVU41
 186 0000 38B5     		push	{r3, r4, r5, lr}
 187              	.LCFI2:
 188              		.cfi_def_cfa_offset 16
 189              		.cfi_offset 3, -16
 190              		.cfi_offset 4, -12
 191              		.cfi_offset 5, -8
 192              		.cfi_offset 14, -4
 193 0002 0C46     		mov	r4, r1
 434:../../Middlewares/LVGL/GUI/lvgl/src/widgets/keyboard/lv_keyboard.c ****     lv_obj_remove_flag(obj, LV_OBJ_FLAG_CLICK_FOCUSABLE);
 194              		.loc 1 434 5 is_stmt 1 view .LVU42
 435:../../Middlewares/LVGL/GUI/lvgl/src/widgets/keyboard/lv_keyboard.c **** 
 195              		.loc 1 435 5 view .LVU43
 196 0004 0421     		movs	r1, #4
 197              	.LVL18:
 435:../../Middlewares/LVGL/GUI/lvgl/src/widgets/keyboard/lv_keyboard.c **** 
 198              		.loc 1 435 5 is_stmt 0 view .LVU44
 199 0006 2046     		mov	r0, r4
 200              	.LVL19:
 435:../../Middlewares/LVGL/GUI/lvgl/src/widgets/keyboard/lv_keyboard.c **** 
 201              		.loc 1 435 5 view .LVU45
 202 0008 FFF7FEFF 		bl	lv_obj_remove_flag
 203              	.LVL20:
 437:../../Middlewares/LVGL/GUI/lvgl/src/widgets/keyboard/lv_keyboard.c ****     keyboard->ta         = NULL;
 204              		.loc 1 437 5 is_stmt 1 view .LVU46
 438:../../Middlewares/LVGL/GUI/lvgl/src/widgets/keyboard/lv_keyboard.c ****     keyboard->mode       = LV_KEYBOARD_MODE_TEXT_LOWER;
 205              		.loc 1 438 5 view .LVU47
 438:../../Middlewares/LVGL/GUI/lvgl/src/widgets/keyboard/lv_keyboard.c ****     keyboard->mode       = LV_KEYBOARD_MODE_TEXT_LOWER;
 206              		.loc 1 438 26 is_stmt 0 view .LVU48
 207 000c 0025     		movs	r5, #0
 208 000e A564     		str	r5, [r4, #72]
 439:../../Middlewares/LVGL/GUI/lvgl/src/widgets/keyboard/lv_keyboard.c ****     keyboard->popovers   = 0;
 209              		.loc 1 439 5 is_stmt 1 view .LVU49
 439:../../Middlewares/LVGL/GUI/lvgl/src/widgets/keyboard/lv_keyboard.c ****     keyboard->popovers   = 0;
 210              		.loc 1 439 26 is_stmt 0 view .LVU50
 211 0010 84F84C50 		strb	r5, [r4, #76]
 440:../../Middlewares/LVGL/GUI/lvgl/src/widgets/keyboard/lv_keyboard.c **** 
 212              		.loc 1 440 5 is_stmt 1 view .LVU51
 440:../../Middlewares/LVGL/GUI/lvgl/src/widgets/keyboard/lv_keyboard.c **** 
 213              		.loc 1 440 26 is_stmt 0 view .LVU52
 214 0014 94F84D30 		ldrb	r3, [r4, #77]	@ zero_extendqisi2
 215 0018 23F00103 		bic	r3, r3, #1
 216 001c 84F84D30 		strb	r3, [r4, #77]
ARM GAS  C:\Users\28576\AppData\Local\Temp\ccvpiibb.s 			page 14


 442:../../Middlewares/LVGL/GUI/lvgl/src/widgets/keyboard/lv_keyboard.c ****     lv_obj_add_event_cb(obj, lv_keyboard_def_event_cb, LV_EVENT_VALUE_CHANGED, NULL);
 217              		.loc 1 442 5 is_stmt 1 view .LVU53
 218 0020 2B46     		mov	r3, r5
 219 0022 2A46     		mov	r2, r5
 220 0024 0521     		movs	r1, #5
 221 0026 2046     		mov	r0, r4
 222 0028 FFF7FEFF 		bl	lv_obj_align
 223              	.LVL21:
 443:../../Middlewares/LVGL/GUI/lvgl/src/widgets/keyboard/lv_keyboard.c ****     lv_obj_set_style_base_dir(obj, LV_BASE_DIR_LTR, 0);
 224              		.loc 1 443 5 view .LVU54
 225 002c 2B46     		mov	r3, r5
 226 002e 2322     		movs	r2, #35
 227 0030 0649     		ldr	r1, .L15
 228 0032 2046     		mov	r0, r4
 229 0034 FFF7FEFF 		bl	lv_obj_add_event_cb
 230              	.LVL22:
 444:../../Middlewares/LVGL/GUI/lvgl/src/widgets/keyboard/lv_keyboard.c **** 
 231              		.loc 1 444 5 view .LVU55
 232 0038 2A46     		mov	r2, r5
 233 003a 2946     		mov	r1, r5
 234 003c 2046     		mov	r0, r4
 235 003e FFF7FEFF 		bl	lv_obj_set_style_base_dir
 236              	.LVL23:
 446:../../Middlewares/LVGL/GUI/lvgl/src/widgets/keyboard/lv_keyboard.c **** }
 237              		.loc 1 446 5 view .LVU56
 238 0042 2046     		mov	r0, r4
 239 0044 FFF7FEFF 		bl	lv_keyboard_update_map
 240              	.LVL24:
 447:../../Middlewares/LVGL/GUI/lvgl/src/widgets/keyboard/lv_keyboard.c **** 
 241              		.loc 1 447 1 is_stmt 0 view .LVU57
 242 0048 38BD     		pop	{r3, r4, r5, pc}
 243              	.LVL25:
 244              	.L16:
 447:../../Middlewares/LVGL/GUI/lvgl/src/widgets/keyboard/lv_keyboard.c **** 
 245              		.loc 1 447 1 view .LVU58
 246 004a 00BF     		.align	2
 247              	.L15:
 248 004c 00000000 		.word	lv_keyboard_def_event_cb
 249              		.cfi_endproc
 250              	.LFE184:
 252              		.section	.rodata.lv_keyboard_def_event_cb.str1.4,"aMS",%progbits,1
 253              		.align	2
 254              	.LC0:
 255 0000 61626300 		.ascii	"abc\000"
 256              		.align	2
 257              	.LC1:
 258 0004 41424300 		.ascii	"ABC\000"
 259              		.align	2
 260              	.LC2:
 261 0008 312300   		.ascii	"1#\000"
 262 000b 00       		.align	2
 263              	.LC3:
 264 000c EF808D00 		.ascii	"\357\200\215\000"
 265              		.align	2
 266              	.LC4:
 267 0010 EF849C00 		.ascii	"\357\204\234\000"
 268              		.align	2
ARM GAS  C:\Users\28576\AppData\Local\Temp\ccvpiibb.s 			page 15


 269              	.LC5:
 270 0014 EF808C00 		.ascii	"\357\200\214\000"
 271              		.align	2
 272              	.LC6:
 273 0018 456E7465 		.ascii	"Enter\000"
 273      7200
 274 001e 0000     		.align	2
 275              	.LC7:
 276 0020 EFA2A200 		.ascii	"\357\242\242\000"
 277              		.align	2
 278              	.LC8:
 279 0024 EF819300 		.ascii	"\357\201\223\000"
 280              		.align	2
 281              	.LC9:
 282 0028 EF819400 		.ascii	"\357\201\224\000"
 283              		.align	2
 284              	.LC10:
 285 002c EF959A00 		.ascii	"\357\225\232\000"
 286              		.align	2
 287              	.LC11:
 288 0030 2B2F2D00 		.ascii	"+/-\000"
 289              		.section	.text.lv_keyboard_def_event_cb,"ax",%progbits
 290              		.align	1
 291              		.global	lv_keyboard_def_event_cb
 292              		.syntax unified
 293              		.thumb
 294              		.thumb_func
 296              	lv_keyboard_def_event_cb:
 297              	.LVL26:
 298              	.LFB180:
 310:../../Middlewares/LVGL/GUI/lvgl/src/widgets/keyboard/lv_keyboard.c ****     lv_obj_t * obj = lv_event_get_current_target(e);
 299              		.loc 1 310 1 is_stmt 1 view -0
 300              		.cfi_startproc
 301              		@ args = 0, pretend = 0, frame = 0
 302              		@ frame_needed = 0, uses_anonymous_args = 0
 310:../../Middlewares/LVGL/GUI/lvgl/src/widgets/keyboard/lv_keyboard.c ****     lv_obj_t * obj = lv_event_get_current_target(e);
 303              		.loc 1 310 1 is_stmt 0 view .LVU60
 304 0000 38B5     		push	{r3, r4, r5, lr}
 305              	.LCFI3:
 306              		.cfi_def_cfa_offset 16
 307              		.cfi_offset 3, -16
 308              		.cfi_offset 4, -12
 309              		.cfi_offset 5, -8
 310              		.cfi_offset 14, -4
 311:../../Middlewares/LVGL/GUI/lvgl/src/widgets/keyboard/lv_keyboard.c **** 
 311              		.loc 1 311 5 is_stmt 1 view .LVU61
 311:../../Middlewares/LVGL/GUI/lvgl/src/widgets/keyboard/lv_keyboard.c **** 
 312              		.loc 1 311 22 is_stmt 0 view .LVU62
 313 0002 FFF7FEFF 		bl	lv_event_get_current_target
 314              	.LVL27:
 313:../../Middlewares/LVGL/GUI/lvgl/src/widgets/keyboard/lv_keyboard.c ****     lv_keyboard_t * keyboard = (lv_keyboard_t *)obj;
 315              		.loc 1 313 5 is_stmt 1 view .LVU63
 313:../../Middlewares/LVGL/GUI/lvgl/src/widgets/keyboard/lv_keyboard.c ****     lv_keyboard_t * keyboard = (lv_keyboard_t *)obj;
 316              		.loc 1 313 5 view .LVU64
 317 0006 90B3     		cbz	r0, .L19
 318 0008 0446     		mov	r4, r0
 313:../../Middlewares/LVGL/GUI/lvgl/src/widgets/keyboard/lv_keyboard.c ****     lv_keyboard_t * keyboard = (lv_keyboard_t *)obj;
ARM GAS  C:\Users\28576\AppData\Local\Temp\ccvpiibb.s 			page 16


 319              		.loc 1 313 5 view .LVU65
 313:../../Middlewares/LVGL/GUI/lvgl/src/widgets/keyboard/lv_keyboard.c ****     lv_keyboard_t * keyboard = (lv_keyboard_t *)obj;
 320              		.loc 1 313 33 view .LVU66
 314:../../Middlewares/LVGL/GUI/lvgl/src/widgets/keyboard/lv_keyboard.c ****     uint32_t btn_id = lv_buttonmatrix_get_selected_button(obj);
 321              		.loc 1 314 5 view .LVU67
 322              	.LVL28:
 315:../../Middlewares/LVGL/GUI/lvgl/src/widgets/keyboard/lv_keyboard.c ****     if(btn_id == LV_BUTTONMATRIX_BUTTON_NONE) return;
 323              		.loc 1 315 5 view .LVU68
 315:../../Middlewares/LVGL/GUI/lvgl/src/widgets/keyboard/lv_keyboard.c ****     if(btn_id == LV_BUTTONMATRIX_BUTTON_NONE) return;
 324              		.loc 1 315 23 is_stmt 0 view .LVU69
 325 000a FFF7FEFF 		bl	lv_buttonmatrix_get_selected_button
 326              	.LVL29:
 315:../../Middlewares/LVGL/GUI/lvgl/src/widgets/keyboard/lv_keyboard.c ****     if(btn_id == LV_BUTTONMATRIX_BUTTON_NONE) return;
 327              		.loc 1 315 23 view .LVU70
 328 000e 0146     		mov	r1, r0
 329              	.LVL30:
 316:../../Middlewares/LVGL/GUI/lvgl/src/widgets/keyboard/lv_keyboard.c **** 
 330              		.loc 1 316 5 is_stmt 1 view .LVU71
 316:../../Middlewares/LVGL/GUI/lvgl/src/widgets/keyboard/lv_keyboard.c **** 
 331              		.loc 1 316 7 is_stmt 0 view .LVU72
 332 0010 4FF6FF73 		movw	r3, #65535
 333 0014 9842     		cmp	r0, r3
 334 0016 35D0     		beq	.L17
 318:../../Middlewares/LVGL/GUI/lvgl/src/widgets/keyboard/lv_keyboard.c ****     if(txt == NULL) return;
 335              		.loc 1 318 5 is_stmt 1 view .LVU73
 318:../../Middlewares/LVGL/GUI/lvgl/src/widgets/keyboard/lv_keyboard.c ****     if(txt == NULL) return;
 336              		.loc 1 318 24 is_stmt 0 view .LVU74
 337 0018 2046     		mov	r0, r4
 338              	.LVL31:
 318:../../Middlewares/LVGL/GUI/lvgl/src/widgets/keyboard/lv_keyboard.c ****     if(txt == NULL) return;
 339              		.loc 1 318 24 view .LVU75
 340 001a FFF7FEFF 		bl	lv_buttonmatrix_get_button_text
 341              	.LVL32:
 319:../../Middlewares/LVGL/GUI/lvgl/src/widgets/keyboard/lv_keyboard.c **** 
 342              		.loc 1 319 5 is_stmt 1 view .LVU76
 319:../../Middlewares/LVGL/GUI/lvgl/src/widgets/keyboard/lv_keyboard.c **** 
 343              		.loc 1 319 7 is_stmt 0 view .LVU77
 344 001e 0546     		mov	r5, r0
 345 0020 80B3     		cbz	r0, .L17
 321:../../Middlewares/LVGL/GUI/lvgl/src/widgets/keyboard/lv_keyboard.c ****         keyboard->mode = LV_KEYBOARD_MODE_TEXT_LOWER;
 346              		.loc 1 321 5 is_stmt 1 view .LVU78
 321:../../Middlewares/LVGL/GUI/lvgl/src/widgets/keyboard/lv_keyboard.c ****         keyboard->mode = LV_KEYBOARD_MODE_TEXT_LOWER;
 347              		.loc 1 321 8 is_stmt 0 view .LVU79
 348 0022 6D49     		ldr	r1, .L44
 349 0024 FFF7FEFF 		bl	lv_strcmp
 350              	.LVL33:
 321:../../Middlewares/LVGL/GUI/lvgl/src/widgets/keyboard/lv_keyboard.c ****         keyboard->mode = LV_KEYBOARD_MODE_TEXT_LOWER;
 351              		.loc 1 321 7 discriminator 1 view .LVU80
 352 0028 10B3     		cbz	r0, .L38
 335:../../Middlewares/LVGL/GUI/lvgl/src/widgets/keyboard/lv_keyboard.c ****         keyboard->mode = LV_KEYBOARD_MODE_TEXT_UPPER;
 353              		.loc 1 335 10 is_stmt 1 view .LVU81
 335:../../Middlewares/LVGL/GUI/lvgl/src/widgets/keyboard/lv_keyboard.c ****         keyboard->mode = LV_KEYBOARD_MODE_TEXT_UPPER;
 354              		.loc 1 335 13 is_stmt 0 view .LVU82
 355 002a 6C49     		ldr	r1, .L44+4
 356 002c 2846     		mov	r0, r5
 357 002e FFF7FEFF 		bl	lv_strcmp
 358              	.LVL34:
ARM GAS  C:\Users\28576\AppData\Local\Temp\ccvpiibb.s 			page 17


 335:../../Middlewares/LVGL/GUI/lvgl/src/widgets/keyboard/lv_keyboard.c ****         keyboard->mode = LV_KEYBOARD_MODE_TEXT_UPPER;
 359              		.loc 1 335 12 discriminator 1 view .LVU83
 360 0032 40B3     		cbz	r0, .L39
 341:../../Middlewares/LVGL/GUI/lvgl/src/widgets/keyboard/lv_keyboard.c ****         keyboard->mode = LV_KEYBOARD_MODE_SPECIAL;
 361              		.loc 1 341 10 is_stmt 1 view .LVU84
 341:../../Middlewares/LVGL/GUI/lvgl/src/widgets/keyboard/lv_keyboard.c ****         keyboard->mode = LV_KEYBOARD_MODE_SPECIAL;
 362              		.loc 1 341 13 is_stmt 0 view .LVU85
 363 0034 6A49     		ldr	r1, .L44+8
 364 0036 2846     		mov	r0, r5
 365 0038 FFF7FEFF 		bl	lv_strcmp
 366              	.LVL35:
 341:../../Middlewares/LVGL/GUI/lvgl/src/widgets/keyboard/lv_keyboard.c ****         keyboard->mode = LV_KEYBOARD_MODE_SPECIAL;
 367              		.loc 1 341 12 discriminator 1 view .LVU86
 368 003c 78B3     		cbz	r0, .L40
 347:../../Middlewares/LVGL/GUI/lvgl/src/widgets/keyboard/lv_keyboard.c ****         lv_result_t res = lv_obj_send_event(obj, LV_EVENT_CANCEL, NULL);
 369              		.loc 1 347 10 is_stmt 1 view .LVU87
 347:../../Middlewares/LVGL/GUI/lvgl/src/widgets/keyboard/lv_keyboard.c ****         lv_result_t res = lv_obj_send_event(obj, LV_EVENT_CANCEL, NULL);
 370              		.loc 1 347 13 is_stmt 0 view .LVU88
 371 003e 6949     		ldr	r1, .L44+12
 372 0040 2846     		mov	r0, r5
 373 0042 FFF7FEFF 		bl	lv_strcmp
 374              	.LVL36:
 347:../../Middlewares/LVGL/GUI/lvgl/src/widgets/keyboard/lv_keyboard.c ****         lv_result_t res = lv_obj_send_event(obj, LV_EVENT_CANCEL, NULL);
 375              		.loc 1 347 12 discriminator 1 view .LVU89
 376 0046 20B1     		cbz	r0, .L24
 347:../../Middlewares/LVGL/GUI/lvgl/src/widgets/keyboard/lv_keyboard.c ****         lv_result_t res = lv_obj_send_event(obj, LV_EVENT_CANCEL, NULL);
 377              		.loc 1 347 53 discriminator 2 view .LVU90
 378 0048 6749     		ldr	r1, .L44+16
 379 004a 2846     		mov	r0, r5
 380 004c FFF7FEFF 		bl	lv_strcmp
 381              	.LVL37:
 347:../../Middlewares/LVGL/GUI/lvgl/src/widgets/keyboard/lv_keyboard.c ****         lv_result_t res = lv_obj_send_event(obj, LV_EVENT_CANCEL, NULL);
 382              		.loc 1 347 50 discriminator 3 view .LVU91
 383 0050 88BB     		cbnz	r0, .L25
 384              	.L24:
 385              	.LBB3:
 348:../../Middlewares/LVGL/GUI/lvgl/src/widgets/keyboard/lv_keyboard.c ****         if(res != LV_RESULT_OK) return;
 386              		.loc 1 348 9 is_stmt 1 view .LVU92
 348:../../Middlewares/LVGL/GUI/lvgl/src/widgets/keyboard/lv_keyboard.c ****         if(res != LV_RESULT_OK) return;
 387              		.loc 1 348 27 is_stmt 0 view .LVU93
 388 0052 0246     		mov	r2, r0
 389 0054 2721     		movs	r1, #39
 390 0056 2046     		mov	r0, r4
 391 0058 FFF7FEFF 		bl	lv_obj_send_event
 392              	.LVL38:
 349:../../Middlewares/LVGL/GUI/lvgl/src/widgets/keyboard/lv_keyboard.c **** 
 393              		.loc 1 349 9 is_stmt 1 view .LVU94
 349:../../Middlewares/LVGL/GUI/lvgl/src/widgets/keyboard/lv_keyboard.c **** 
 394              		.loc 1 349 11 is_stmt 0 view .LVU95
 395 005c 0128     		cmp	r0, #1
 396 005e 11D1     		bne	.L17
 351:../../Middlewares/LVGL/GUI/lvgl/src/widgets/keyboard/lv_keyboard.c ****             res = lv_obj_send_event(keyboard->ta, LV_EVENT_CANCEL, NULL);
 397              		.loc 1 351 9 is_stmt 1 view .LVU96
 351:../../Middlewares/LVGL/GUI/lvgl/src/widgets/keyboard/lv_keyboard.c ****             res = lv_obj_send_event(keyboard->ta, LV_EVENT_CANCEL, NULL);
 398              		.loc 1 351 20 is_stmt 0 view .LVU97
 399 0060 A06C     		ldr	r0, [r4, #72]
 400              	.LVL39:
ARM GAS  C:\Users\28576\AppData\Local\Temp\ccvpiibb.s 			page 18


 351:../../Middlewares/LVGL/GUI/lvgl/src/widgets/keyboard/lv_keyboard.c ****             res = lv_obj_send_event(keyboard->ta, LV_EVENT_CANCEL, NULL);
 401              		.loc 1 351 11 view .LVU98
 402 0062 78B1     		cbz	r0, .L17
 352:../../Middlewares/LVGL/GUI/lvgl/src/widgets/keyboard/lv_keyboard.c ****             if(res != LV_RESULT_OK) return;
 403              		.loc 1 352 13 is_stmt 1 view .LVU99
 352:../../Middlewares/LVGL/GUI/lvgl/src/widgets/keyboard/lv_keyboard.c ****             if(res != LV_RESULT_OK) return;
 404              		.loc 1 352 19 is_stmt 0 view .LVU100
 405 0064 0022     		movs	r2, #0
 406 0066 2721     		movs	r1, #39
 407 0068 FFF7FEFF 		bl	lv_obj_send_event
 408              	.LVL40:
 353:../../Middlewares/LVGL/GUI/lvgl/src/widgets/keyboard/lv_keyboard.c ****         }
 409              		.loc 1 353 13 is_stmt 1 view .LVU101
 410 006c 0AE0     		b	.L17
 411              	.LVL41:
 412              	.L19:
 353:../../Middlewares/LVGL/GUI/lvgl/src/widgets/keyboard/lv_keyboard.c ****         }
 413              		.loc 1 353 13 is_stmt 0 view .LVU102
 414              	.LBE3:
 313:../../Middlewares/LVGL/GUI/lvgl/src/widgets/keyboard/lv_keyboard.c ****     lv_keyboard_t * keyboard = (lv_keyboard_t *)obj;
 415              		.loc 1 313 5 is_stmt 1 view .LVU103
 313:../../Middlewares/LVGL/GUI/lvgl/src/widgets/keyboard/lv_keyboard.c ****     lv_keyboard_t * keyboard = (lv_keyboard_t *)obj;
 416              		.loc 1 313 5 view .LVU104
 313:../../Middlewares/LVGL/GUI/lvgl/src/widgets/keyboard/lv_keyboard.c ****     lv_keyboard_t * keyboard = (lv_keyboard_t *)obj;
 417              		.loc 1 313 5 view .LVU105
 313:../../Middlewares/LVGL/GUI/lvgl/src/widgets/keyboard/lv_keyboard.c ****     lv_keyboard_t * keyboard = (lv_keyboard_t *)obj;
 418              		.loc 1 313 5 view .LVU106
 313:../../Middlewares/LVGL/GUI/lvgl/src/widgets/keyboard/lv_keyboard.c ****     lv_keyboard_t * keyboard = (lv_keyboard_t *)obj;
 419              		.loc 1 313 5 view .LVU107
 420 006e FEE7     		b	.L19
 421              	.LVL42:
 422              	.L38:
 322:../../Middlewares/LVGL/GUI/lvgl/src/widgets/keyboard/lv_keyboard.c ****         lv_buttonmatrix_set_map(obj, kb_map[LV_KEYBOARD_MODE_TEXT_LOWER]);
 423              		.loc 1 322 9 view .LVU108
 322:../../Middlewares/LVGL/GUI/lvgl/src/widgets/keyboard/lv_keyboard.c ****         lv_buttonmatrix_set_map(obj, kb_map[LV_KEYBOARD_MODE_TEXT_LOWER]);
 424              		.loc 1 322 24 is_stmt 0 view .LVU109
 425 0070 84F84C00 		strb	r0, [r4, #76]
 323:../../Middlewares/LVGL/GUI/lvgl/src/widgets/keyboard/lv_keyboard.c ****         lv_keyboard_update_ctrl_map(obj);
 426              		.loc 1 323 9 is_stmt 1 view .LVU110
 427 0074 5D4B     		ldr	r3, .L44+20
 428 0076 1968     		ldr	r1, [r3]
 429 0078 2046     		mov	r0, r4
 430 007a FFF7FEFF 		bl	lv_buttonmatrix_set_map
 431              	.LVL43:
 324:../../Middlewares/LVGL/GUI/lvgl/src/widgets/keyboard/lv_keyboard.c ****         return;
 432              		.loc 1 324 9 view .LVU111
 433 007e 2046     		mov	r0, r4
 434 0080 FFF7FEFF 		bl	lv_keyboard_update_ctrl_map
 435              	.LVL44:
 325:../../Middlewares/LVGL/GUI/lvgl/src/widgets/keyboard/lv_keyboard.c ****     }
 436              		.loc 1 325 9 view .LVU112
 437              	.L17:
 411:../../Middlewares/LVGL/GUI/lvgl/src/widgets/keyboard/lv_keyboard.c **** 
 438              		.loc 1 411 1 is_stmt 0 view .LVU113
 439 0084 38BD     		pop	{r3, r4, r5, pc}
 440              	.LVL45:
 441              	.L39:
ARM GAS  C:\Users\28576\AppData\Local\Temp\ccvpiibb.s 			page 19


 336:../../Middlewares/LVGL/GUI/lvgl/src/widgets/keyboard/lv_keyboard.c ****         lv_buttonmatrix_set_map(obj, kb_map[LV_KEYBOARD_MODE_TEXT_UPPER]);
 442              		.loc 1 336 9 is_stmt 1 view .LVU114
 336:../../Middlewares/LVGL/GUI/lvgl/src/widgets/keyboard/lv_keyboard.c ****         lv_buttonmatrix_set_map(obj, kb_map[LV_KEYBOARD_MODE_TEXT_UPPER]);
 443              		.loc 1 336 24 is_stmt 0 view .LVU115
 444 0086 0123     		movs	r3, #1
 445 0088 84F84C30 		strb	r3, [r4, #76]
 337:../../Middlewares/LVGL/GUI/lvgl/src/widgets/keyboard/lv_keyboard.c ****         lv_keyboard_update_ctrl_map(obj);
 446              		.loc 1 337 9 is_stmt 1 view .LVU116
 447 008c 574B     		ldr	r3, .L44+20
 448 008e 5968     		ldr	r1, [r3, #4]
 449 0090 2046     		mov	r0, r4
 450 0092 FFF7FEFF 		bl	lv_buttonmatrix_set_map
 451              	.LVL46:
 338:../../Middlewares/LVGL/GUI/lvgl/src/widgets/keyboard/lv_keyboard.c ****         return;
 452              		.loc 1 338 9 view .LVU117
 453 0096 2046     		mov	r0, r4
 454 0098 FFF7FEFF 		bl	lv_keyboard_update_ctrl_map
 455              	.LVL47:
 339:../../Middlewares/LVGL/GUI/lvgl/src/widgets/keyboard/lv_keyboard.c ****     }
 456              		.loc 1 339 9 view .LVU118
 457 009c F2E7     		b	.L17
 458              	.L40:
 342:../../Middlewares/LVGL/GUI/lvgl/src/widgets/keyboard/lv_keyboard.c ****         lv_buttonmatrix_set_map(obj, kb_map[LV_KEYBOARD_MODE_SPECIAL]);
 459              		.loc 1 342 9 view .LVU119
 342:../../Middlewares/LVGL/GUI/lvgl/src/widgets/keyboard/lv_keyboard.c ****         lv_buttonmatrix_set_map(obj, kb_map[LV_KEYBOARD_MODE_SPECIAL]);
 460              		.loc 1 342 24 is_stmt 0 view .LVU120
 461 009e 0223     		movs	r3, #2
 462 00a0 84F84C30 		strb	r3, [r4, #76]
 343:../../Middlewares/LVGL/GUI/lvgl/src/widgets/keyboard/lv_keyboard.c ****         lv_keyboard_update_ctrl_map(obj);
 463              		.loc 1 343 9 is_stmt 1 view .LVU121
 464 00a4 514B     		ldr	r3, .L44+20
 465 00a6 9968     		ldr	r1, [r3, #8]
 466 00a8 2046     		mov	r0, r4
 467 00aa FFF7FEFF 		bl	lv_buttonmatrix_set_map
 468              	.LVL48:
 344:../../Middlewares/LVGL/GUI/lvgl/src/widgets/keyboard/lv_keyboard.c ****         return;
 469              		.loc 1 344 9 view .LVU122
 470 00ae 2046     		mov	r0, r4
 471 00b0 FFF7FEFF 		bl	lv_keyboard_update_ctrl_map
 472              	.LVL49:
 345:../../Middlewares/LVGL/GUI/lvgl/src/widgets/keyboard/lv_keyboard.c ****     }
 473              		.loc 1 345 9 view .LVU123
 474 00b4 E6E7     		b	.L17
 475              	.L25:
 357:../../Middlewares/LVGL/GUI/lvgl/src/widgets/keyboard/lv_keyboard.c ****         lv_result_t res = lv_obj_send_event(obj, LV_EVENT_READY, NULL);
 476              		.loc 1 357 10 view .LVU124
 357:../../Middlewares/LVGL/GUI/lvgl/src/widgets/keyboard/lv_keyboard.c ****         lv_result_t res = lv_obj_send_event(obj, LV_EVENT_READY, NULL);
 477              		.loc 1 357 13 is_stmt 0 view .LVU125
 478 00b6 4E49     		ldr	r1, .L44+24
 479 00b8 2846     		mov	r0, r5
 480 00ba FFF7FEFF 		bl	lv_strcmp
 481              	.LVL50:
 357:../../Middlewares/LVGL/GUI/lvgl/src/widgets/keyboard/lv_keyboard.c ****         lv_result_t res = lv_obj_send_event(obj, LV_EVENT_READY, NULL);
 482              		.loc 1 357 12 discriminator 1 view .LVU126
 483 00be D8B1     		cbz	r0, .L41
 369:../../Middlewares/LVGL/GUI/lvgl/src/widgets/keyboard/lv_keyboard.c **** 
 484              		.loc 1 369 5 is_stmt 1 view .LVU127
ARM GAS  C:\Users\28576\AppData\Local\Temp\ccvpiibb.s 			page 20


 369:../../Middlewares/LVGL/GUI/lvgl/src/widgets/keyboard/lv_keyboard.c **** 
 485              		.loc 1 369 16 is_stmt 0 view .LVU128
 486 00c0 A36C     		ldr	r3, [r4, #72]
 369:../../Middlewares/LVGL/GUI/lvgl/src/widgets/keyboard/lv_keyboard.c **** 
 487              		.loc 1 369 7 view .LVU129
 488 00c2 002B     		cmp	r3, #0
 489 00c4 DED0     		beq	.L17
 371:../../Middlewares/LVGL/GUI/lvgl/src/widgets/keyboard/lv_keyboard.c ****         lv_textarea_add_char(keyboard->ta, '\n');
 490              		.loc 1 371 5 is_stmt 1 view .LVU130
 371:../../Middlewares/LVGL/GUI/lvgl/src/widgets/keyboard/lv_keyboard.c ****         lv_textarea_add_char(keyboard->ta, '\n');
 491              		.loc 1 371 8 is_stmt 0 view .LVU131
 492 00c6 4B49     		ldr	r1, .L44+28
 493 00c8 2846     		mov	r0, r5
 494 00ca FFF7FEFF 		bl	lv_strcmp
 495              	.LVL51:
 371:../../Middlewares/LVGL/GUI/lvgl/src/widgets/keyboard/lv_keyboard.c ****         lv_textarea_add_char(keyboard->ta, '\n');
 496              		.loc 1 371 7 discriminator 1 view .LVU132
 497 00ce 20B1     		cbz	r0, .L29
 371:../../Middlewares/LVGL/GUI/lvgl/src/widgets/keyboard/lv_keyboard.c ****         lv_textarea_add_char(keyboard->ta, '\n');
 498              		.loc 1 371 40 discriminator 2 view .LVU133
 499 00d0 4949     		ldr	r1, .L44+32
 500 00d2 2846     		mov	r0, r5
 501 00d4 FFF7FEFF 		bl	lv_strcmp
 502              	.LVL52:
 371:../../Middlewares/LVGL/GUI/lvgl/src/widgets/keyboard/lv_keyboard.c ****         lv_textarea_add_char(keyboard->ta, '\n');
 503              		.loc 1 371 37 discriminator 3 view .LVU134
 504 00d8 E8B9     		cbnz	r0, .L30
 505              	.L29:
 372:../../Middlewares/LVGL/GUI/lvgl/src/widgets/keyboard/lv_keyboard.c ****         if(lv_textarea_get_one_line(keyboard->ta)) {
 506              		.loc 1 372 9 is_stmt 1 view .LVU135
 507 00da 0A21     		movs	r1, #10
 508 00dc A06C     		ldr	r0, [r4, #72]
 509 00de FFF7FEFF 		bl	lv_textarea_add_char
 510              	.LVL53:
 373:../../Middlewares/LVGL/GUI/lvgl/src/widgets/keyboard/lv_keyboard.c ****             lv_result_t res = lv_obj_send_event(keyboard->ta, LV_EVENT_READY, NULL);
 511              		.loc 1 373 9 view .LVU136
 373:../../Middlewares/LVGL/GUI/lvgl/src/widgets/keyboard/lv_keyboard.c ****             lv_result_t res = lv_obj_send_event(keyboard->ta, LV_EVENT_READY, NULL);
 512              		.loc 1 373 12 is_stmt 0 view .LVU137
 513 00e2 A06C     		ldr	r0, [r4, #72]
 514 00e4 FFF7FEFF 		bl	lv_textarea_get_one_line
 515              	.LVL54:
 373:../../Middlewares/LVGL/GUI/lvgl/src/widgets/keyboard/lv_keyboard.c ****             lv_result_t res = lv_obj_send_event(keyboard->ta, LV_EVENT_READY, NULL);
 516              		.loc 1 373 11 discriminator 1 view .LVU138
 517 00e8 0028     		cmp	r0, #0
 518 00ea CBD0     		beq	.L17
 519              	.LBB4:
 374:../../Middlewares/LVGL/GUI/lvgl/src/widgets/keyboard/lv_keyboard.c ****             if(res != LV_RESULT_OK) return;
 520              		.loc 1 374 13 is_stmt 1 view .LVU139
 374:../../Middlewares/LVGL/GUI/lvgl/src/widgets/keyboard/lv_keyboard.c ****             if(res != LV_RESULT_OK) return;
 521              		.loc 1 374 31 is_stmt 0 view .LVU140
 522 00ec 0022     		movs	r2, #0
 523 00ee 2621     		movs	r1, #38
 524 00f0 A06C     		ldr	r0, [r4, #72]
 525 00f2 FFF7FEFF 		bl	lv_obj_send_event
 526              	.LVL55:
 375:../../Middlewares/LVGL/GUI/lvgl/src/widgets/keyboard/lv_keyboard.c ****         }
 527              		.loc 1 375 13 is_stmt 1 view .LVU141
ARM GAS  C:\Users\28576\AppData\Local\Temp\ccvpiibb.s 			page 21


 375:../../Middlewares/LVGL/GUI/lvgl/src/widgets/keyboard/lv_keyboard.c ****         }
 528              		.loc 1 375 37 discriminator 1 view .LVU142
 529 00f6 C5E7     		b	.L17
 530              	.L41:
 375:../../Middlewares/LVGL/GUI/lvgl/src/widgets/keyboard/lv_keyboard.c ****         }
 531              		.loc 1 375 37 is_stmt 0 discriminator 1 view .LVU143
 532              	.LBE4:
 533              	.LBB5:
 358:../../Middlewares/LVGL/GUI/lvgl/src/widgets/keyboard/lv_keyboard.c ****         if(res != LV_RESULT_OK) return;
 534              		.loc 1 358 9 is_stmt 1 view .LVU144
 358:../../Middlewares/LVGL/GUI/lvgl/src/widgets/keyboard/lv_keyboard.c ****         if(res != LV_RESULT_OK) return;
 535              		.loc 1 358 27 is_stmt 0 view .LVU145
 536 00f8 0246     		mov	r2, r0
 537 00fa 2621     		movs	r1, #38
 538 00fc 2046     		mov	r0, r4
 539 00fe FFF7FEFF 		bl	lv_obj_send_event
 540              	.LVL56:
 359:../../Middlewares/LVGL/GUI/lvgl/src/widgets/keyboard/lv_keyboard.c **** 
 541              		.loc 1 359 9 is_stmt 1 view .LVU146
 359:../../Middlewares/LVGL/GUI/lvgl/src/widgets/keyboard/lv_keyboard.c **** 
 542              		.loc 1 359 11 is_stmt 0 view .LVU147
 543 0102 0128     		cmp	r0, #1
 544 0104 BED1     		bne	.L17
 361:../../Middlewares/LVGL/GUI/lvgl/src/widgets/keyboard/lv_keyboard.c ****             res = lv_obj_send_event(keyboard->ta, LV_EVENT_READY, NULL);
 545              		.loc 1 361 9 is_stmt 1 view .LVU148
 361:../../Middlewares/LVGL/GUI/lvgl/src/widgets/keyboard/lv_keyboard.c ****             res = lv_obj_send_event(keyboard->ta, LV_EVENT_READY, NULL);
 546              		.loc 1 361 20 is_stmt 0 view .LVU149
 547 0106 A06C     		ldr	r0, [r4, #72]
 548              	.LVL57:
 361:../../Middlewares/LVGL/GUI/lvgl/src/widgets/keyboard/lv_keyboard.c ****             res = lv_obj_send_event(keyboard->ta, LV_EVENT_READY, NULL);
 549              		.loc 1 361 11 view .LVU150
 550 0108 0028     		cmp	r0, #0
 551 010a BBD0     		beq	.L17
 362:../../Middlewares/LVGL/GUI/lvgl/src/widgets/keyboard/lv_keyboard.c ****             if(res != LV_RESULT_OK) return;
 552              		.loc 1 362 13 is_stmt 1 view .LVU151
 362:../../Middlewares/LVGL/GUI/lvgl/src/widgets/keyboard/lv_keyboard.c ****             if(res != LV_RESULT_OK) return;
 553              		.loc 1 362 19 is_stmt 0 view .LVU152
 554 010c 0022     		movs	r2, #0
 555 010e 2621     		movs	r1, #38
 556 0110 FFF7FEFF 		bl	lv_obj_send_event
 557              	.LVL58:
 363:../../Middlewares/LVGL/GUI/lvgl/src/widgets/keyboard/lv_keyboard.c ****         }
 558              		.loc 1 363 13 is_stmt 1 view .LVU153
 559 0114 B6E7     		b	.L17
 560              	.LVL59:
 561              	.L30:
 363:../../Middlewares/LVGL/GUI/lvgl/src/widgets/keyboard/lv_keyboard.c ****         }
 562              		.loc 1 363 13 is_stmt 0 view .LVU154
 563              	.LBE5:
 378:../../Middlewares/LVGL/GUI/lvgl/src/widgets/keyboard/lv_keyboard.c ****         lv_textarea_cursor_left(keyboard->ta);
 564              		.loc 1 378 10 is_stmt 1 view .LVU155
 378:../../Middlewares/LVGL/GUI/lvgl/src/widgets/keyboard/lv_keyboard.c ****         lv_textarea_cursor_left(keyboard->ta);
 565              		.loc 1 378 13 is_stmt 0 view .LVU156
 566 0116 3949     		ldr	r1, .L44+36
 567 0118 2846     		mov	r0, r5
 568 011a FFF7FEFF 		bl	lv_strcmp
 569              	.LVL60:
ARM GAS  C:\Users\28576\AppData\Local\Temp\ccvpiibb.s 			page 22


 378:../../Middlewares/LVGL/GUI/lvgl/src/widgets/keyboard/lv_keyboard.c ****         lv_textarea_cursor_left(keyboard->ta);
 570              		.loc 1 378 12 discriminator 1 view .LVU157
 571 011e 18B9     		cbnz	r0, .L31
 379:../../Middlewares/LVGL/GUI/lvgl/src/widgets/keyboard/lv_keyboard.c ****     }
 572              		.loc 1 379 9 is_stmt 1 view .LVU158
 573 0120 A06C     		ldr	r0, [r4, #72]
 574 0122 FFF7FEFF 		bl	lv_textarea_cursor_left
 575              	.LVL61:
 576 0126 ADE7     		b	.L17
 577              	.L31:
 381:../../Middlewares/LVGL/GUI/lvgl/src/widgets/keyboard/lv_keyboard.c ****         lv_textarea_cursor_right(keyboard->ta);
 578              		.loc 1 381 10 view .LVU159
 381:../../Middlewares/LVGL/GUI/lvgl/src/widgets/keyboard/lv_keyboard.c ****         lv_textarea_cursor_right(keyboard->ta);
 579              		.loc 1 381 13 is_stmt 0 view .LVU160
 580 0128 3549     		ldr	r1, .L44+40
 581 012a 2846     		mov	r0, r5
 582 012c FFF7FEFF 		bl	lv_strcmp
 583              	.LVL62:
 381:../../Middlewares/LVGL/GUI/lvgl/src/widgets/keyboard/lv_keyboard.c ****         lv_textarea_cursor_right(keyboard->ta);
 584              		.loc 1 381 12 discriminator 1 view .LVU161
 585 0130 18B9     		cbnz	r0, .L32
 382:../../Middlewares/LVGL/GUI/lvgl/src/widgets/keyboard/lv_keyboard.c ****     }
 586              		.loc 1 382 9 is_stmt 1 view .LVU162
 587 0132 A06C     		ldr	r0, [r4, #72]
 588 0134 FFF7FEFF 		bl	lv_textarea_cursor_right
 589              	.LVL63:
 590 0138 A4E7     		b	.L17
 591              	.L32:
 384:../../Middlewares/LVGL/GUI/lvgl/src/widgets/keyboard/lv_keyboard.c ****         lv_textarea_delete_char(keyboard->ta);
 592              		.loc 1 384 10 view .LVU163
 384:../../Middlewares/LVGL/GUI/lvgl/src/widgets/keyboard/lv_keyboard.c ****         lv_textarea_delete_char(keyboard->ta);
 593              		.loc 1 384 13 is_stmt 0 view .LVU164
 594 013a 3249     		ldr	r1, .L44+44
 595 013c 2846     		mov	r0, r5
 596 013e FFF7FEFF 		bl	lv_strcmp
 597              	.LVL64:
 384:../../Middlewares/LVGL/GUI/lvgl/src/widgets/keyboard/lv_keyboard.c ****         lv_textarea_delete_char(keyboard->ta);
 598              		.loc 1 384 12 discriminator 1 view .LVU165
 599 0142 18B9     		cbnz	r0, .L33
 385:../../Middlewares/LVGL/GUI/lvgl/src/widgets/keyboard/lv_keyboard.c ****     }
 600              		.loc 1 385 9 is_stmt 1 view .LVU166
 601 0144 A06C     		ldr	r0, [r4, #72]
 602 0146 FFF7FEFF 		bl	lv_textarea_delete_char
 603              	.LVL65:
 604 014a 9BE7     		b	.L17
 605              	.L33:
 387:../../Middlewares/LVGL/GUI/lvgl/src/widgets/keyboard/lv_keyboard.c ****         uint32_t cur        = lv_textarea_get_cursor_pos(keyboard->ta);
 606              		.loc 1 387 10 view .LVU167
 387:../../Middlewares/LVGL/GUI/lvgl/src/widgets/keyboard/lv_keyboard.c ****         uint32_t cur        = lv_textarea_get_cursor_pos(keyboard->ta);
 607              		.loc 1 387 13 is_stmt 0 view .LVU168
 608 014c 2E49     		ldr	r1, .L44+48
 609 014e 2846     		mov	r0, r5
 610 0150 FFF7FEFF 		bl	lv_strcmp
 611              	.LVL66:
 387:../../Middlewares/LVGL/GUI/lvgl/src/widgets/keyboard/lv_keyboard.c ****         uint32_t cur        = lv_textarea_get_cursor_pos(keyboard->ta);
 612              		.loc 1 387 12 discriminator 1 view .LVU169
 613 0154 0028     		cmp	r0, #0
ARM GAS  C:\Users\28576\AppData\Local\Temp\ccvpiibb.s 			page 23


 614 0156 39D1     		bne	.L34
 615              	.LBB6:
 388:../../Middlewares/LVGL/GUI/lvgl/src/widgets/keyboard/lv_keyboard.c ****         const char * ta_txt = lv_textarea_get_text(keyboard->ta);
 616              		.loc 1 388 9 is_stmt 1 view .LVU170
 388:../../Middlewares/LVGL/GUI/lvgl/src/widgets/keyboard/lv_keyboard.c ****         const char * ta_txt = lv_textarea_get_text(keyboard->ta);
 617              		.loc 1 388 31 is_stmt 0 view .LVU171
 618 0158 A06C     		ldr	r0, [r4, #72]
 619 015a FFF7FEFF 		bl	lv_textarea_get_cursor_pos
 620              	.LVL67:
 621 015e 0546     		mov	r5, r0
 622              	.LVL68:
 389:../../Middlewares/LVGL/GUI/lvgl/src/widgets/keyboard/lv_keyboard.c ****         if(ta_txt[0] == '-') {
 623              		.loc 1 389 9 is_stmt 1 view .LVU172
 389:../../Middlewares/LVGL/GUI/lvgl/src/widgets/keyboard/lv_keyboard.c ****         if(ta_txt[0] == '-') {
 624              		.loc 1 389 31 is_stmt 0 view .LVU173
 625 0160 A06C     		ldr	r0, [r4, #72]
 626              	.LVL69:
 389:../../Middlewares/LVGL/GUI/lvgl/src/widgets/keyboard/lv_keyboard.c ****         if(ta_txt[0] == '-') {
 627              		.loc 1 389 31 view .LVU174
 628 0162 FFF7FEFF 		bl	lv_textarea_get_text
 629              	.LVL70:
 390:../../Middlewares/LVGL/GUI/lvgl/src/widgets/keyboard/lv_keyboard.c ****             lv_textarea_set_cursor_pos(keyboard->ta, 1);
 630              		.loc 1 390 9 is_stmt 1 view .LVU175
 390:../../Middlewares/LVGL/GUI/lvgl/src/widgets/keyboard/lv_keyboard.c ****             lv_textarea_set_cursor_pos(keyboard->ta, 1);
 631              		.loc 1 390 18 is_stmt 0 view .LVU176
 632 0166 0378     		ldrb	r3, [r0]	@ zero_extendqisi2
 390:../../Middlewares/LVGL/GUI/lvgl/src/widgets/keyboard/lv_keyboard.c ****             lv_textarea_set_cursor_pos(keyboard->ta, 1);
 633              		.loc 1 390 11 view .LVU177
 634 0168 2D2B     		cmp	r3, #45
 635 016a 0FD0     		beq	.L42
 396:../../Middlewares/LVGL/GUI/lvgl/src/widgets/keyboard/lv_keyboard.c ****             lv_textarea_set_cursor_pos(keyboard->ta, 1);
 636              		.loc 1 396 14 is_stmt 1 view .LVU178
 396:../../Middlewares/LVGL/GUI/lvgl/src/widgets/keyboard/lv_keyboard.c ****             lv_textarea_set_cursor_pos(keyboard->ta, 1);
 637              		.loc 1 396 16 is_stmt 0 view .LVU179
 638 016c 2B2B     		cmp	r3, #43
 639 016e 1DD0     		beq	.L43
 403:../../Middlewares/LVGL/GUI/lvgl/src/widgets/keyboard/lv_keyboard.c ****             lv_textarea_add_char(keyboard->ta, '-');
 640              		.loc 1 403 13 is_stmt 1 view .LVU180
 641 0170 0021     		movs	r1, #0
 642 0172 A06C     		ldr	r0, [r4, #72]
 643              	.LVL71:
 403:../../Middlewares/LVGL/GUI/lvgl/src/widgets/keyboard/lv_keyboard.c ****             lv_textarea_add_char(keyboard->ta, '-');
 644              		.loc 1 403 13 is_stmt 0 view .LVU181
 645 0174 FFF7FEFF 		bl	lv_textarea_set_cursor_pos
 646              	.LVL72:
 404:../../Middlewares/LVGL/GUI/lvgl/src/widgets/keyboard/lv_keyboard.c ****             lv_textarea_set_cursor_pos(keyboard->ta, cur + 1);
 647              		.loc 1 404 13 is_stmt 1 view .LVU182
 648 0178 2D21     		movs	r1, #45
 649 017a A06C     		ldr	r0, [r4, #72]
 650 017c FFF7FEFF 		bl	lv_textarea_add_char
 651              	.LVL73:
 405:../../Middlewares/LVGL/GUI/lvgl/src/widgets/keyboard/lv_keyboard.c ****         }
 652              		.loc 1 405 13 view .LVU183
 653 0180 2946     		mov	r1, r5
 654 0182 0131     		adds	r1, r1, #1
 655 0184 A06C     		ldr	r0, [r4, #72]
 656 0186 FFF7FEFF 		bl	lv_textarea_set_cursor_pos
ARM GAS  C:\Users\28576\AppData\Local\Temp\ccvpiibb.s 			page 24


 657              	.LVL74:
 658 018a 7BE7     		b	.L17
 659              	.LVL75:
 660              	.L42:
 391:../../Middlewares/LVGL/GUI/lvgl/src/widgets/keyboard/lv_keyboard.c ****             lv_textarea_delete_char(keyboard->ta);
 661              		.loc 1 391 13 view .LVU184
 662 018c 0121     		movs	r1, #1
 663 018e A06C     		ldr	r0, [r4, #72]
 664              	.LVL76:
 391:../../Middlewares/LVGL/GUI/lvgl/src/widgets/keyboard/lv_keyboard.c ****             lv_textarea_delete_char(keyboard->ta);
 665              		.loc 1 391 13 is_stmt 0 view .LVU185
 666 0190 FFF7FEFF 		bl	lv_textarea_set_cursor_pos
 667              	.LVL77:
 392:../../Middlewares/LVGL/GUI/lvgl/src/widgets/keyboard/lv_keyboard.c ****             lv_textarea_add_char(keyboard->ta, '+');
 668              		.loc 1 392 13 is_stmt 1 view .LVU186
 669 0194 A06C     		ldr	r0, [r4, #72]
 670 0196 FFF7FEFF 		bl	lv_textarea_delete_char
 671              	.LVL78:
 393:../../Middlewares/LVGL/GUI/lvgl/src/widgets/keyboard/lv_keyboard.c ****             lv_textarea_set_cursor_pos(keyboard->ta, cur);
 672              		.loc 1 393 13 view .LVU187
 673 019a 2B21     		movs	r1, #43
 674 019c A06C     		ldr	r0, [r4, #72]
 675 019e FFF7FEFF 		bl	lv_textarea_add_char
 676              	.LVL79:
 394:../../Middlewares/LVGL/GUI/lvgl/src/widgets/keyboard/lv_keyboard.c ****         }
 677              		.loc 1 394 13 view .LVU188
 678 01a2 2946     		mov	r1, r5
 679 01a4 A06C     		ldr	r0, [r4, #72]
 680 01a6 FFF7FEFF 		bl	lv_textarea_set_cursor_pos
 681              	.LVL80:
 682 01aa 6BE7     		b	.L17
 683              	.LVL81:
 684              	.L43:
 397:../../Middlewares/LVGL/GUI/lvgl/src/widgets/keyboard/lv_keyboard.c ****             lv_textarea_delete_char(keyboard->ta);
 685              		.loc 1 397 13 view .LVU189
 686 01ac 0121     		movs	r1, #1
 687 01ae A06C     		ldr	r0, [r4, #72]
 688              	.LVL82:
 397:../../Middlewares/LVGL/GUI/lvgl/src/widgets/keyboard/lv_keyboard.c ****             lv_textarea_delete_char(keyboard->ta);
 689              		.loc 1 397 13 is_stmt 0 view .LVU190
 690 01b0 FFF7FEFF 		bl	lv_textarea_set_cursor_pos
 691              	.LVL83:
 398:../../Middlewares/LVGL/GUI/lvgl/src/widgets/keyboard/lv_keyboard.c ****             lv_textarea_add_char(keyboard->ta, '-');
 692              		.loc 1 398 13 is_stmt 1 view .LVU191
 693 01b4 A06C     		ldr	r0, [r4, #72]
 694 01b6 FFF7FEFF 		bl	lv_textarea_delete_char
 695              	.LVL84:
 399:../../Middlewares/LVGL/GUI/lvgl/src/widgets/keyboard/lv_keyboard.c ****             lv_textarea_set_cursor_pos(keyboard->ta, cur);
 696              		.loc 1 399 13 view .LVU192
 697 01ba 2D21     		movs	r1, #45
 698 01bc A06C     		ldr	r0, [r4, #72]
 699 01be FFF7FEFF 		bl	lv_textarea_add_char
 700              	.LVL85:
 400:../../Middlewares/LVGL/GUI/lvgl/src/widgets/keyboard/lv_keyboard.c ****         }
 701              		.loc 1 400 13 view .LVU193
 702 01c2 2946     		mov	r1, r5
 703 01c4 A06C     		ldr	r0, [r4, #72]
ARM GAS  C:\Users\28576\AppData\Local\Temp\ccvpiibb.s 			page 25


 704 01c6 FFF7FEFF 		bl	lv_textarea_set_cursor_pos
 705              	.LVL86:
 706 01ca 5BE7     		b	.L17
 707              	.LVL87:
 708              	.L34:
 400:../../Middlewares/LVGL/GUI/lvgl/src/widgets/keyboard/lv_keyboard.c ****         }
 709              		.loc 1 400 13 is_stmt 0 view .LVU194
 710              	.LBE6:
 409:../../Middlewares/LVGL/GUI/lvgl/src/widgets/keyboard/lv_keyboard.c ****     }
 711              		.loc 1 409 9 is_stmt 1 view .LVU195
 712 01cc 2946     		mov	r1, r5
 713 01ce A06C     		ldr	r0, [r4, #72]
 714 01d0 FFF7FEFF 		bl	lv_textarea_add_text
 715              	.LVL88:
 716 01d4 56E7     		b	.L17
 717              	.L45:
 718 01d6 00BF     		.align	2
 719              	.L44:
 720 01d8 00000000 		.word	.LC0
 721 01dc 04000000 		.word	.LC1
 722 01e0 08000000 		.word	.LC2
 723 01e4 0C000000 		.word	.LC3
 724 01e8 10000000 		.word	.LC4
 725 01ec 00000000 		.word	kb_map
 726 01f0 14000000 		.word	.LC5
 727 01f4 18000000 		.word	.LC6
 728 01f8 20000000 		.word	.LC7
 729 01fc 24000000 		.word	.LC8
 730 0200 28000000 		.word	.LC9
 731 0204 2C000000 		.word	.LC10
 732 0208 30000000 		.word	.LC11
 733              		.cfi_endproc
 734              	.LFE180:
 736              		.section	.text.lv_keyboard_create,"ax",%progbits
 737              		.align	1
 738              		.global	lv_keyboard_create
 739              		.syntax unified
 740              		.thumb
 741              		.thumb_func
 743              	lv_keyboard_create:
 744              	.LVL89:
 745              	.LFB172:
 217:../../Middlewares/LVGL/GUI/lvgl/src/widgets/keyboard/lv_keyboard.c ****     LV_LOG_INFO("begin");
 746              		.loc 1 217 1 view -0
 747              		.cfi_startproc
 748              		@ args = 0, pretend = 0, frame = 0
 749              		@ frame_needed = 0, uses_anonymous_args = 0
 217:../../Middlewares/LVGL/GUI/lvgl/src/widgets/keyboard/lv_keyboard.c ****     LV_LOG_INFO("begin");
 750              		.loc 1 217 1 is_stmt 0 view .LVU197
 751 0000 10B5     		push	{r4, lr}
 752              	.LCFI4:
 753              		.cfi_def_cfa_offset 8
 754              		.cfi_offset 4, -8
 755              		.cfi_offset 14, -4
 756 0002 0146     		mov	r1, r0
 218:../../Middlewares/LVGL/GUI/lvgl/src/widgets/keyboard/lv_keyboard.c ****     lv_obj_t * obj = lv_obj_class_create_obj(&lv_keyboard_class, parent);
 757              		.loc 1 218 5 is_stmt 1 view .LVU198
ARM GAS  C:\Users\28576\AppData\Local\Temp\ccvpiibb.s 			page 26


 218:../../Middlewares/LVGL/GUI/lvgl/src/widgets/keyboard/lv_keyboard.c ****     lv_obj_t * obj = lv_obj_class_create_obj(&lv_keyboard_class, parent);
 758              		.loc 1 218 5 view .LVU199
 218:../../Middlewares/LVGL/GUI/lvgl/src/widgets/keyboard/lv_keyboard.c ****     lv_obj_t * obj = lv_obj_class_create_obj(&lv_keyboard_class, parent);
 759              		.loc 1 218 5 view .LVU200
 219:../../Middlewares/LVGL/GUI/lvgl/src/widgets/keyboard/lv_keyboard.c ****     lv_obj_class_init_obj(obj);
 760              		.loc 1 219 5 view .LVU201
 219:../../Middlewares/LVGL/GUI/lvgl/src/widgets/keyboard/lv_keyboard.c ****     lv_obj_class_init_obj(obj);
 761              		.loc 1 219 22 is_stmt 0 view .LVU202
 762 0004 0348     		ldr	r0, .L48
 763              	.LVL90:
 219:../../Middlewares/LVGL/GUI/lvgl/src/widgets/keyboard/lv_keyboard.c ****     lv_obj_class_init_obj(obj);
 764              		.loc 1 219 22 view .LVU203
 765 0006 FFF7FEFF 		bl	lv_obj_class_create_obj
 766              	.LVL91:
 219:../../Middlewares/LVGL/GUI/lvgl/src/widgets/keyboard/lv_keyboard.c ****     lv_obj_class_init_obj(obj);
 767              		.loc 1 219 22 view .LVU204
 768 000a 0446     		mov	r4, r0
 769              	.LVL92:
 220:../../Middlewares/LVGL/GUI/lvgl/src/widgets/keyboard/lv_keyboard.c ****     return obj;
 770              		.loc 1 220 5 is_stmt 1 view .LVU205
 771 000c FFF7FEFF 		bl	lv_obj_class_init_obj
 772              	.LVL93:
 221:../../Middlewares/LVGL/GUI/lvgl/src/widgets/keyboard/lv_keyboard.c **** }
 773              		.loc 1 221 5 view .LVU206
 222:../../Middlewares/LVGL/GUI/lvgl/src/widgets/keyboard/lv_keyboard.c **** 
 774              		.loc 1 222 1 is_stmt 0 view .LVU207
 775 0010 2046     		mov	r0, r4
 776 0012 10BD     		pop	{r4, pc}
 777              	.LVL94:
 778              	.L49:
 222:../../Middlewares/LVGL/GUI/lvgl/src/widgets/keyboard/lv_keyboard.c **** 
 779              		.loc 1 222 1 view .LVU208
 780              		.align	2
 781              	.L48:
 782 0014 00000000 		.word	lv_keyboard_class
 783              		.cfi_endproc
 784              	.LFE172:
 786              		.section	.text.lv_keyboard_set_textarea,"ax",%progbits
 787              		.align	1
 788              		.global	lv_keyboard_set_textarea
 789              		.syntax unified
 790              		.thumb
 791              		.thumb_func
 793              	lv_keyboard_set_textarea:
 794              	.LVL95:
 795              	.LFB173:
 229:../../Middlewares/LVGL/GUI/lvgl/src/widgets/keyboard/lv_keyboard.c ****     if(ta) {
 796              		.loc 1 229 1 is_stmt 1 view -0
 797              		.cfi_startproc
 798              		@ args = 0, pretend = 0, frame = 0
 799              		@ frame_needed = 0, uses_anonymous_args = 0
 230:../../Middlewares/LVGL/GUI/lvgl/src/widgets/keyboard/lv_keyboard.c ****         LV_ASSERT_OBJ(ta, &lv_textarea_class);
 800              		.loc 1 230 5 view .LVU210
 231:../../Middlewares/LVGL/GUI/lvgl/src/widgets/keyboard/lv_keyboard.c ****     }
 801              		.loc 1 231 9 view .LVU211
 231:../../Middlewares/LVGL/GUI/lvgl/src/widgets/keyboard/lv_keyboard.c ****     }
 802              		.loc 1 231 9 view .LVU212
ARM GAS  C:\Users\28576\AppData\Local\Temp\ccvpiibb.s 			page 27


 231:../../Middlewares/LVGL/GUI/lvgl/src/widgets/keyboard/lv_keyboard.c ****     }
 803              		.loc 1 231 9 view .LVU213
 231:../../Middlewares/LVGL/GUI/lvgl/src/widgets/keyboard/lv_keyboard.c ****     }
 804              		.loc 1 231 46 view .LVU214
 234:../../Middlewares/LVGL/GUI/lvgl/src/widgets/keyboard/lv_keyboard.c ****     lv_keyboard_t * keyboard = (lv_keyboard_t *)obj;
 805              		.loc 1 234 5 view .LVU215
 234:../../Middlewares/LVGL/GUI/lvgl/src/widgets/keyboard/lv_keyboard.c ****     lv_keyboard_t * keyboard = (lv_keyboard_t *)obj;
 806              		.loc 1 234 5 view .LVU216
 807 0000 70B1     		cbz	r0, .L52
 229:../../Middlewares/LVGL/GUI/lvgl/src/widgets/keyboard/lv_keyboard.c ****     if(ta) {
 808              		.loc 1 229 1 is_stmt 0 view .LVU217
 809 0002 38B5     		push	{r3, r4, r5, lr}
 810              	.LCFI5:
 811              		.cfi_def_cfa_offset 16
 812              		.cfi_offset 3, -16
 813              		.cfi_offset 4, -12
 814              		.cfi_offset 5, -8
 815              		.cfi_offset 14, -4
 816 0004 0D46     		mov	r5, r1
 817 0006 0446     		mov	r4, r0
 234:../../Middlewares/LVGL/GUI/lvgl/src/widgets/keyboard/lv_keyboard.c ****     lv_keyboard_t * keyboard = (lv_keyboard_t *)obj;
 818              		.loc 1 234 5 is_stmt 1 view .LVU218
 234:../../Middlewares/LVGL/GUI/lvgl/src/widgets/keyboard/lv_keyboard.c ****     lv_keyboard_t * keyboard = (lv_keyboard_t *)obj;
 819              		.loc 1 234 33 view .LVU219
 235:../../Middlewares/LVGL/GUI/lvgl/src/widgets/keyboard/lv_keyboard.c **** 
 820              		.loc 1 235 5 view .LVU220
 821              	.LVL96:
 238:../../Middlewares/LVGL/GUI/lvgl/src/widgets/keyboard/lv_keyboard.c ****         lv_obj_remove_state(obj, LV_STATE_FOCUSED);
 822              		.loc 1 238 5 view .LVU221
 238:../../Middlewares/LVGL/GUI/lvgl/src/widgets/keyboard/lv_keyboard.c ****         lv_obj_remove_state(obj, LV_STATE_FOCUSED);
 823              		.loc 1 238 16 is_stmt 0 view .LVU222
 824 0008 836C     		ldr	r3, [r0, #72]
 238:../../Middlewares/LVGL/GUI/lvgl/src/widgets/keyboard/lv_keyboard.c ****         lv_obj_remove_state(obj, LV_STATE_FOCUSED);
 825              		.loc 1 238 7 view .LVU223
 826 000a 13B1     		cbz	r3, .L53
 239:../../Middlewares/LVGL/GUI/lvgl/src/widgets/keyboard/lv_keyboard.c ****     }
 827              		.loc 1 239 9 is_stmt 1 view .LVU224
 828 000c 0221     		movs	r1, #2
 829              	.LVL97:
 239:../../Middlewares/LVGL/GUI/lvgl/src/widgets/keyboard/lv_keyboard.c ****     }
 830              		.loc 1 239 9 is_stmt 0 view .LVU225
 831 000e FFF7FEFF 		bl	lv_obj_remove_state
 832              	.LVL98:
 833              	.L53:
 242:../../Middlewares/LVGL/GUI/lvgl/src/widgets/keyboard/lv_keyboard.c **** 
 834              		.loc 1 242 5 is_stmt 1 view .LVU226
 242:../../Middlewares/LVGL/GUI/lvgl/src/widgets/keyboard/lv_keyboard.c **** 
 835              		.loc 1 242 18 is_stmt 0 view .LVU227
 836 0012 A564     		str	r5, [r4, #72]
 245:../../Middlewares/LVGL/GUI/lvgl/src/widgets/keyboard/lv_keyboard.c ****         lv_obj_add_state(obj, LV_STATE_FOCUSED);
 837              		.loc 1 245 5 is_stmt 1 view .LVU228
 245:../../Middlewares/LVGL/GUI/lvgl/src/widgets/keyboard/lv_keyboard.c ****         lv_obj_add_state(obj, LV_STATE_FOCUSED);
 838              		.loc 1 245 7 is_stmt 0 view .LVU229
 839 0014 1DB1     		cbz	r5, .L50
 246:../../Middlewares/LVGL/GUI/lvgl/src/widgets/keyboard/lv_keyboard.c ****     }
 840              		.loc 1 246 9 is_stmt 1 view .LVU230
 841 0016 0221     		movs	r1, #2
ARM GAS  C:\Users\28576\AppData\Local\Temp\ccvpiibb.s 			page 28


 842 0018 2046     		mov	r0, r4
 843 001a FFF7FEFF 		bl	lv_obj_add_state
 844              	.LVL99:
 845              	.L50:
 248:../../Middlewares/LVGL/GUI/lvgl/src/widgets/keyboard/lv_keyboard.c **** 
 846              		.loc 1 248 1 is_stmt 0 view .LVU231
 847 001e 38BD     		pop	{r3, r4, r5, pc}
 848              	.LVL100:
 849              	.L52:
 850              	.LCFI6:
 851              		.cfi_def_cfa_offset 0
 852              		.cfi_restore 3
 853              		.cfi_restore 4
 854              		.cfi_restore 5
 855              		.cfi_restore 14
 234:../../Middlewares/LVGL/GUI/lvgl/src/widgets/keyboard/lv_keyboard.c ****     lv_keyboard_t * keyboard = (lv_keyboard_t *)obj;
 856              		.loc 1 234 5 is_stmt 1 view .LVU232
 234:../../Middlewares/LVGL/GUI/lvgl/src/widgets/keyboard/lv_keyboard.c ****     lv_keyboard_t * keyboard = (lv_keyboard_t *)obj;
 857              		.loc 1 234 5 view .LVU233
 234:../../Middlewares/LVGL/GUI/lvgl/src/widgets/keyboard/lv_keyboard.c ****     lv_keyboard_t * keyboard = (lv_keyboard_t *)obj;
 858              		.loc 1 234 5 view .LVU234
 234:../../Middlewares/LVGL/GUI/lvgl/src/widgets/keyboard/lv_keyboard.c ****     lv_keyboard_t * keyboard = (lv_keyboard_t *)obj;
 859              		.loc 1 234 5 view .LVU235
 234:../../Middlewares/LVGL/GUI/lvgl/src/widgets/keyboard/lv_keyboard.c ****     lv_keyboard_t * keyboard = (lv_keyboard_t *)obj;
 860              		.loc 1 234 5 view .LVU236
 861 0020 FEE7     		b	.L52
 862              		.cfi_endproc
 863              	.LFE173:
 865              		.section	.text.lv_keyboard_set_mode,"ax",%progbits
 866              		.align	1
 867              		.global	lv_keyboard_set_mode
 868              		.syntax unified
 869              		.thumb
 870              		.thumb_func
 872              	lv_keyboard_set_mode:
 873              	.LVL101:
 874              	.LFB174:
 251:../../Middlewares/LVGL/GUI/lvgl/src/widgets/keyboard/lv_keyboard.c ****     LV_ASSERT_OBJ(obj, MY_CLASS);
 875              		.loc 1 251 1 view -0
 876              		.cfi_startproc
 877              		@ args = 0, pretend = 0, frame = 0
 878              		@ frame_needed = 0, uses_anonymous_args = 0
 252:../../Middlewares/LVGL/GUI/lvgl/src/widgets/keyboard/lv_keyboard.c ****     lv_keyboard_t * keyboard = (lv_keyboard_t *)obj;
 879              		.loc 1 252 5 view .LVU238
 252:../../Middlewares/LVGL/GUI/lvgl/src/widgets/keyboard/lv_keyboard.c ****     lv_keyboard_t * keyboard = (lv_keyboard_t *)obj;
 880              		.loc 1 252 5 view .LVU239
 881 0000 48B1     		cbz	r0, .L59
 251:../../Middlewares/LVGL/GUI/lvgl/src/widgets/keyboard/lv_keyboard.c ****     LV_ASSERT_OBJ(obj, MY_CLASS);
 882              		.loc 1 251 1 is_stmt 0 view .LVU240
 883 0002 08B5     		push	{r3, lr}
 884              	.LCFI7:
 885              		.cfi_def_cfa_offset 8
 886              		.cfi_offset 3, -8
 887              		.cfi_offset 14, -4
 252:../../Middlewares/LVGL/GUI/lvgl/src/widgets/keyboard/lv_keyboard.c ****     lv_keyboard_t * keyboard = (lv_keyboard_t *)obj;
 888              		.loc 1 252 5 is_stmt 1 view .LVU241
 252:../../Middlewares/LVGL/GUI/lvgl/src/widgets/keyboard/lv_keyboard.c ****     lv_keyboard_t * keyboard = (lv_keyboard_t *)obj;
ARM GAS  C:\Users\28576\AppData\Local\Temp\ccvpiibb.s 			page 29


 889              		.loc 1 252 33 view .LVU242
 253:../../Middlewares/LVGL/GUI/lvgl/src/widgets/keyboard/lv_keyboard.c ****     if(keyboard->mode == mode) return;
 890              		.loc 1 253 5 view .LVU243
 891              	.LVL102:
 254:../../Middlewares/LVGL/GUI/lvgl/src/widgets/keyboard/lv_keyboard.c **** 
 892              		.loc 1 254 5 view .LVU244
 254:../../Middlewares/LVGL/GUI/lvgl/src/widgets/keyboard/lv_keyboard.c **** 
 893              		.loc 1 254 16 is_stmt 0 view .LVU245
 894 0004 90F84C20 		ldrb	r2, [r0, #76]	@ zero_extendqisi2
 254:../../Middlewares/LVGL/GUI/lvgl/src/widgets/keyboard/lv_keyboard.c **** 
 895              		.loc 1 254 7 view .LVU246
 896 0008 8A42     		cmp	r2, r1
 897 000a 03D0     		beq	.L57
 256:../../Middlewares/LVGL/GUI/lvgl/src/widgets/keyboard/lv_keyboard.c ****     lv_keyboard_update_map(obj);
 898              		.loc 1 256 5 is_stmt 1 view .LVU247
 256:../../Middlewares/LVGL/GUI/lvgl/src/widgets/keyboard/lv_keyboard.c ****     lv_keyboard_update_map(obj);
 899              		.loc 1 256 20 is_stmt 0 view .LVU248
 900 000c 80F84C10 		strb	r1, [r0, #76]
 257:../../Middlewares/LVGL/GUI/lvgl/src/widgets/keyboard/lv_keyboard.c **** }
 901              		.loc 1 257 5 is_stmt 1 view .LVU249
 902 0010 FFF7FEFF 		bl	lv_keyboard_update_map
 903              	.LVL103:
 904              	.L57:
 258:../../Middlewares/LVGL/GUI/lvgl/src/widgets/keyboard/lv_keyboard.c **** 
 905              		.loc 1 258 1 is_stmt 0 view .LVU250
 906 0014 08BD     		pop	{r3, pc}
 907              	.LVL104:
 908              	.L59:
 909              	.LCFI8:
 910              		.cfi_def_cfa_offset 0
 911              		.cfi_restore 3
 912              		.cfi_restore 14
 252:../../Middlewares/LVGL/GUI/lvgl/src/widgets/keyboard/lv_keyboard.c ****     lv_keyboard_t * keyboard = (lv_keyboard_t *)obj;
 913              		.loc 1 252 5 is_stmt 1 view .LVU251
 252:../../Middlewares/LVGL/GUI/lvgl/src/widgets/keyboard/lv_keyboard.c ****     lv_keyboard_t * keyboard = (lv_keyboard_t *)obj;
 914              		.loc 1 252 5 view .LVU252
 252:../../Middlewares/LVGL/GUI/lvgl/src/widgets/keyboard/lv_keyboard.c ****     lv_keyboard_t * keyboard = (lv_keyboard_t *)obj;
 915              		.loc 1 252 5 view .LVU253
 252:../../Middlewares/LVGL/GUI/lvgl/src/widgets/keyboard/lv_keyboard.c ****     lv_keyboard_t * keyboard = (lv_keyboard_t *)obj;
 916              		.loc 1 252 5 view .LVU254
 252:../../Middlewares/LVGL/GUI/lvgl/src/widgets/keyboard/lv_keyboard.c ****     lv_keyboard_t * keyboard = (lv_keyboard_t *)obj;
 917              		.loc 1 252 5 view .LVU255
 918 0016 FEE7     		b	.L59
 919              		.cfi_endproc
 920              	.LFE174:
 922              		.section	.text.lv_keyboard_set_popovers,"ax",%progbits
 923              		.align	1
 924              		.global	lv_keyboard_set_popovers
 925              		.syntax unified
 926              		.thumb
 927              		.thumb_func
 929              	lv_keyboard_set_popovers:
 930              	.LVL105:
 931              	.LFB175:
 261:../../Middlewares/LVGL/GUI/lvgl/src/widgets/keyboard/lv_keyboard.c ****     lv_keyboard_t * keyboard = (lv_keyboard_t *)obj;
 932              		.loc 1 261 1 view -0
 933              		.cfi_startproc
ARM GAS  C:\Users\28576\AppData\Local\Temp\ccvpiibb.s 			page 30


 934              		@ args = 0, pretend = 0, frame = 0
 935              		@ frame_needed = 0, uses_anonymous_args = 0
 261:../../Middlewares/LVGL/GUI/lvgl/src/widgets/keyboard/lv_keyboard.c ****     lv_keyboard_t * keyboard = (lv_keyboard_t *)obj;
 936              		.loc 1 261 1 is_stmt 0 view .LVU257
 937 0000 08B5     		push	{r3, lr}
 938              	.LCFI9:
 939              		.cfi_def_cfa_offset 8
 940              		.cfi_offset 3, -8
 941              		.cfi_offset 14, -4
 262:../../Middlewares/LVGL/GUI/lvgl/src/widgets/keyboard/lv_keyboard.c **** 
 942              		.loc 1 262 5 is_stmt 1 view .LVU258
 943              	.LVL106:
 264:../../Middlewares/LVGL/GUI/lvgl/src/widgets/keyboard/lv_keyboard.c ****         return;
 944              		.loc 1 264 5 view .LVU259
 264:../../Middlewares/LVGL/GUI/lvgl/src/widgets/keyboard/lv_keyboard.c ****         return;
 945              		.loc 1 264 16 is_stmt 0 view .LVU260
 946 0002 90F84D30 		ldrb	r3, [r0, #77]	@ zero_extendqisi2
 947 0006 03F00103 		and	r3, r3, #1
 264:../../Middlewares/LVGL/GUI/lvgl/src/widgets/keyboard/lv_keyboard.c ****         return;
 948              		.loc 1 264 7 view .LVU261
 949 000a 8B42     		cmp	r3, r1
 950 000c 07D0     		beq	.L63
 268:../../Middlewares/LVGL/GUI/lvgl/src/widgets/keyboard/lv_keyboard.c ****     lv_keyboard_update_ctrl_map(obj);
 951              		.loc 1 268 5 is_stmt 1 view .LVU262
 268:../../Middlewares/LVGL/GUI/lvgl/src/widgets/keyboard/lv_keyboard.c ****     lv_keyboard_update_ctrl_map(obj);
 952              		.loc 1 268 24 is_stmt 0 view .LVU263
 953 000e 90F84D30 		ldrb	r3, [r0, #77]	@ zero_extendqisi2
 954 0012 61F30003 		bfi	r3, r1, #0, #1
 955 0016 80F84D30 		strb	r3, [r0, #77]
 269:../../Middlewares/LVGL/GUI/lvgl/src/widgets/keyboard/lv_keyboard.c **** }
 956              		.loc 1 269 5 is_stmt 1 view .LVU264
 957 001a FFF7FEFF 		bl	lv_keyboard_update_ctrl_map
 958              	.LVL107:
 959              	.L63:
 270:../../Middlewares/LVGL/GUI/lvgl/src/widgets/keyboard/lv_keyboard.c **** 
 960              		.loc 1 270 1 is_stmt 0 view .LVU265
 961 001e 08BD     		pop	{r3, pc}
 962              		.cfi_endproc
 963              	.LFE175:
 965              		.section	.text.lv_keyboard_set_map,"ax",%progbits
 966              		.align	1
 967              		.global	lv_keyboard_set_map
 968              		.syntax unified
 969              		.thumb
 970              		.thumb_func
 972              	lv_keyboard_set_map:
 973              	.LVL108:
 974              	.LFB176:
 274:../../Middlewares/LVGL/GUI/lvgl/src/widgets/keyboard/lv_keyboard.c ****     LV_ASSERT_OBJ(obj, MY_CLASS);
 975              		.loc 1 274 1 is_stmt 1 view -0
 976              		.cfi_startproc
 977              		@ args = 0, pretend = 0, frame = 0
 978              		@ frame_needed = 0, uses_anonymous_args = 0
 275:../../Middlewares/LVGL/GUI/lvgl/src/widgets/keyboard/lv_keyboard.c ****     kb_map[mode] = map;
 979              		.loc 1 275 5 view .LVU267
 275:../../Middlewares/LVGL/GUI/lvgl/src/widgets/keyboard/lv_keyboard.c ****     kb_map[mode] = map;
 980              		.loc 1 275 5 view .LVU268
ARM GAS  C:\Users\28576\AppData\Local\Temp\ccvpiibb.s 			page 31


 981 0000 58B1     		cbz	r0, .L68
 274:../../Middlewares/LVGL/GUI/lvgl/src/widgets/keyboard/lv_keyboard.c ****     LV_ASSERT_OBJ(obj, MY_CLASS);
 982              		.loc 1 274 1 is_stmt 0 view .LVU269
 983 0002 08B5     		push	{r3, lr}
 984              	.LCFI10:
 985              		.cfi_def_cfa_offset 8
 986              		.cfi_offset 3, -8
 987              		.cfi_offset 14, -4
 988 0004 8446     		mov	ip, r0
 275:../../Middlewares/LVGL/GUI/lvgl/src/widgets/keyboard/lv_keyboard.c ****     kb_map[mode] = map;
 989              		.loc 1 275 5 is_stmt 1 view .LVU270
 275:../../Middlewares/LVGL/GUI/lvgl/src/widgets/keyboard/lv_keyboard.c ****     kb_map[mode] = map;
 990              		.loc 1 275 33 view .LVU271
 276:../../Middlewares/LVGL/GUI/lvgl/src/widgets/keyboard/lv_keyboard.c ****     kb_ctrl[mode] = ctrl_map;
 991              		.loc 1 276 5 view .LVU272
 276:../../Middlewares/LVGL/GUI/lvgl/src/widgets/keyboard/lv_keyboard.c ****     kb_ctrl[mode] = ctrl_map;
 992              		.loc 1 276 18 is_stmt 0 view .LVU273
 993 0006 0548     		ldr	r0, .L71
 994              	.LVL109:
 276:../../Middlewares/LVGL/GUI/lvgl/src/widgets/keyboard/lv_keyboard.c ****     kb_ctrl[mode] = ctrl_map;
 995              		.loc 1 276 18 view .LVU274
 996 0008 40F82120 		str	r2, [r0, r1, lsl #2]
 277:../../Middlewares/LVGL/GUI/lvgl/src/widgets/keyboard/lv_keyboard.c ****     lv_keyboard_update_map(obj);
 997              		.loc 1 277 5 is_stmt 1 view .LVU275
 277:../../Middlewares/LVGL/GUI/lvgl/src/widgets/keyboard/lv_keyboard.c ****     lv_keyboard_update_map(obj);
 998              		.loc 1 277 19 is_stmt 0 view .LVU276
 999 000c 044A     		ldr	r2, .L71+4
 1000              	.LVL110:
 277:../../Middlewares/LVGL/GUI/lvgl/src/widgets/keyboard/lv_keyboard.c ****     lv_keyboard_update_map(obj);
 1001              		.loc 1 277 19 view .LVU277
 1002 000e 42F82130 		str	r3, [r2, r1, lsl #2]
 278:../../Middlewares/LVGL/GUI/lvgl/src/widgets/keyboard/lv_keyboard.c **** }
 1003              		.loc 1 278 5 is_stmt 1 view .LVU278
 1004 0012 6046     		mov	r0, ip
 1005              	.LVL111:
 278:../../Middlewares/LVGL/GUI/lvgl/src/widgets/keyboard/lv_keyboard.c **** }
 1006              		.loc 1 278 5 is_stmt 0 view .LVU279
 1007 0014 FFF7FEFF 		bl	lv_keyboard_update_map
 1008              	.LVL112:
 279:../../Middlewares/LVGL/GUI/lvgl/src/widgets/keyboard/lv_keyboard.c **** 
 1009              		.loc 1 279 1 view .LVU280
 1010 0018 08BD     		pop	{r3, pc}
 1011              	.LVL113:
 1012              	.L68:
 1013              	.LCFI11:
 1014              		.cfi_def_cfa_offset 0
 1015              		.cfi_restore 3
 1016              		.cfi_restore 14
 275:../../Middlewares/LVGL/GUI/lvgl/src/widgets/keyboard/lv_keyboard.c ****     kb_map[mode] = map;
 1017              		.loc 1 275 5 is_stmt 1 view .LVU281
 275:../../Middlewares/LVGL/GUI/lvgl/src/widgets/keyboard/lv_keyboard.c ****     kb_map[mode] = map;
 1018              		.loc 1 275 5 view .LVU282
 275:../../Middlewares/LVGL/GUI/lvgl/src/widgets/keyboard/lv_keyboard.c ****     kb_map[mode] = map;
 1019              		.loc 1 275 5 view .LVU283
 275:../../Middlewares/LVGL/GUI/lvgl/src/widgets/keyboard/lv_keyboard.c ****     kb_map[mode] = map;
 1020              		.loc 1 275 5 view .LVU284
 275:../../Middlewares/LVGL/GUI/lvgl/src/widgets/keyboard/lv_keyboard.c ****     kb_map[mode] = map;
ARM GAS  C:\Users\28576\AppData\Local\Temp\ccvpiibb.s 			page 32


 1021              		.loc 1 275 5 view .LVU285
 1022 001a FEE7     		b	.L68
 1023              	.L72:
 1024              		.align	2
 1025              	.L71:
 1026 001c 00000000 		.word	kb_map
 1027 0020 00000000 		.word	kb_ctrl
 1028              		.cfi_endproc
 1029              	.LFE176:
 1031              		.section	.text.lv_keyboard_get_textarea,"ax",%progbits
 1032              		.align	1
 1033              		.global	lv_keyboard_get_textarea
 1034              		.syntax unified
 1035              		.thumb
 1036              		.thumb_func
 1038              	lv_keyboard_get_textarea:
 1039              	.LVL114:
 1040              	.LFB177:
 286:../../Middlewares/LVGL/GUI/lvgl/src/widgets/keyboard/lv_keyboard.c ****     LV_ASSERT_OBJ(obj, MY_CLASS);
 1041              		.loc 1 286 1 view -0
 1042              		.cfi_startproc
 1043              		@ args = 0, pretend = 0, frame = 0
 1044              		@ frame_needed = 0, uses_anonymous_args = 0
 1045              		@ link register save eliminated.
 287:../../Middlewares/LVGL/GUI/lvgl/src/widgets/keyboard/lv_keyboard.c ****     lv_keyboard_t * keyboard = (lv_keyboard_t *)obj;
 1046              		.loc 1 287 5 view .LVU287
 287:../../Middlewares/LVGL/GUI/lvgl/src/widgets/keyboard/lv_keyboard.c ****     lv_keyboard_t * keyboard = (lv_keyboard_t *)obj;
 1047              		.loc 1 287 5 view .LVU288
 1048 0000 08B1     		cbz	r0, .L75
 287:../../Middlewares/LVGL/GUI/lvgl/src/widgets/keyboard/lv_keyboard.c ****     lv_keyboard_t * keyboard = (lv_keyboard_t *)obj;
 1049              		.loc 1 287 5 view .LVU289
 287:../../Middlewares/LVGL/GUI/lvgl/src/widgets/keyboard/lv_keyboard.c ****     lv_keyboard_t * keyboard = (lv_keyboard_t *)obj;
 1050              		.loc 1 287 33 view .LVU290
 288:../../Middlewares/LVGL/GUI/lvgl/src/widgets/keyboard/lv_keyboard.c ****     return keyboard->ta;
 1051              		.loc 1 288 5 view .LVU291
 1052              	.LVL115:
 289:../../Middlewares/LVGL/GUI/lvgl/src/widgets/keyboard/lv_keyboard.c **** }
 1053              		.loc 1 289 5 view .LVU292
 290:../../Middlewares/LVGL/GUI/lvgl/src/widgets/keyboard/lv_keyboard.c **** 
 1054              		.loc 1 290 1 is_stmt 0 view .LVU293
 1055 0002 806C     		ldr	r0, [r0, #72]
 1056              	.LVL116:
 290:../../Middlewares/LVGL/GUI/lvgl/src/widgets/keyboard/lv_keyboard.c **** 
 1057              		.loc 1 290 1 view .LVU294
 1058 0004 7047     		bx	lr
 1059              	.LVL117:
 1060              	.L75:
 287:../../Middlewares/LVGL/GUI/lvgl/src/widgets/keyboard/lv_keyboard.c ****     lv_keyboard_t * keyboard = (lv_keyboard_t *)obj;
 1061              		.loc 1 287 5 is_stmt 1 view .LVU295
 287:../../Middlewares/LVGL/GUI/lvgl/src/widgets/keyboard/lv_keyboard.c ****     lv_keyboard_t * keyboard = (lv_keyboard_t *)obj;
 1062              		.loc 1 287 5 view .LVU296
 287:../../Middlewares/LVGL/GUI/lvgl/src/widgets/keyboard/lv_keyboard.c ****     lv_keyboard_t * keyboard = (lv_keyboard_t *)obj;
 1063              		.loc 1 287 5 view .LVU297
 287:../../Middlewares/LVGL/GUI/lvgl/src/widgets/keyboard/lv_keyboard.c ****     lv_keyboard_t * keyboard = (lv_keyboard_t *)obj;
 1064              		.loc 1 287 5 view .LVU298
 287:../../Middlewares/LVGL/GUI/lvgl/src/widgets/keyboard/lv_keyboard.c ****     lv_keyboard_t * keyboard = (lv_keyboard_t *)obj;
 1065              		.loc 1 287 5 view .LVU299
ARM GAS  C:\Users\28576\AppData\Local\Temp\ccvpiibb.s 			page 33


 1066 0006 FEE7     		b	.L75
 1067              		.cfi_endproc
 1068              	.LFE177:
 1070              		.section	.text.lv_keyboard_get_mode,"ax",%progbits
 1071              		.align	1
 1072              		.global	lv_keyboard_get_mode
 1073              		.syntax unified
 1074              		.thumb
 1075              		.thumb_func
 1077              	lv_keyboard_get_mode:
 1078              	.LVL118:
 1079              	.LFB178:
 293:../../Middlewares/LVGL/GUI/lvgl/src/widgets/keyboard/lv_keyboard.c ****     LV_ASSERT_OBJ(obj, MY_CLASS);
 1080              		.loc 1 293 1 view -0
 1081              		.cfi_startproc
 1082              		@ args = 0, pretend = 0, frame = 0
 1083              		@ frame_needed = 0, uses_anonymous_args = 0
 1084              		@ link register save eliminated.
 294:../../Middlewares/LVGL/GUI/lvgl/src/widgets/keyboard/lv_keyboard.c ****     lv_keyboard_t * keyboard = (lv_keyboard_t *)obj;
 1085              		.loc 1 294 5 view .LVU301
 294:../../Middlewares/LVGL/GUI/lvgl/src/widgets/keyboard/lv_keyboard.c ****     lv_keyboard_t * keyboard = (lv_keyboard_t *)obj;
 1086              		.loc 1 294 5 view .LVU302
 1087 0000 10B1     		cbz	r0, .L78
 294:../../Middlewares/LVGL/GUI/lvgl/src/widgets/keyboard/lv_keyboard.c ****     lv_keyboard_t * keyboard = (lv_keyboard_t *)obj;
 1088              		.loc 1 294 5 view .LVU303
 294:../../Middlewares/LVGL/GUI/lvgl/src/widgets/keyboard/lv_keyboard.c ****     lv_keyboard_t * keyboard = (lv_keyboard_t *)obj;
 1089              		.loc 1 294 33 view .LVU304
 295:../../Middlewares/LVGL/GUI/lvgl/src/widgets/keyboard/lv_keyboard.c ****     return keyboard->mode;
 1090              		.loc 1 295 5 view .LVU305
 1091              	.LVL119:
 296:../../Middlewares/LVGL/GUI/lvgl/src/widgets/keyboard/lv_keyboard.c **** }
 1092              		.loc 1 296 5 view .LVU306
 297:../../Middlewares/LVGL/GUI/lvgl/src/widgets/keyboard/lv_keyboard.c **** 
 1093              		.loc 1 297 1 is_stmt 0 view .LVU307
 1094 0002 90F84C00 		ldrb	r0, [r0, #76]	@ zero_extendqisi2
 1095              	.LVL120:
 297:../../Middlewares/LVGL/GUI/lvgl/src/widgets/keyboard/lv_keyboard.c **** 
 1096              		.loc 1 297 1 view .LVU308
 1097 0006 7047     		bx	lr
 1098              	.LVL121:
 1099              	.L78:
 294:../../Middlewares/LVGL/GUI/lvgl/src/widgets/keyboard/lv_keyboard.c ****     lv_keyboard_t * keyboard = (lv_keyboard_t *)obj;
 1100              		.loc 1 294 5 is_stmt 1 view .LVU309
 294:../../Middlewares/LVGL/GUI/lvgl/src/widgets/keyboard/lv_keyboard.c ****     lv_keyboard_t * keyboard = (lv_keyboard_t *)obj;
 1101              		.loc 1 294 5 view .LVU310
 294:../../Middlewares/LVGL/GUI/lvgl/src/widgets/keyboard/lv_keyboard.c ****     lv_keyboard_t * keyboard = (lv_keyboard_t *)obj;
 1102              		.loc 1 294 5 view .LVU311
 294:../../Middlewares/LVGL/GUI/lvgl/src/widgets/keyboard/lv_keyboard.c ****     lv_keyboard_t * keyboard = (lv_keyboard_t *)obj;
 1103              		.loc 1 294 5 view .LVU312
 294:../../Middlewares/LVGL/GUI/lvgl/src/widgets/keyboard/lv_keyboard.c ****     lv_keyboard_t * keyboard = (lv_keyboard_t *)obj;
 1104              		.loc 1 294 5 view .LVU313
 1105 0008 FEE7     		b	.L78
 1106              		.cfi_endproc
 1107              	.LFE178:
 1109              		.section	.text.lv_keyboard_get_popovers,"ax",%progbits
 1110              		.align	1
 1111              		.global	lv_keyboard_get_popovers
ARM GAS  C:\Users\28576\AppData\Local\Temp\ccvpiibb.s 			page 34


 1112              		.syntax unified
 1113              		.thumb
 1114              		.thumb_func
 1116              	lv_keyboard_get_popovers:
 1117              	.LVL122:
 1118              	.LFB179:
 300:../../Middlewares/LVGL/GUI/lvgl/src/widgets/keyboard/lv_keyboard.c ****     lv_keyboard_t * keyboard = (lv_keyboard_t *)obj;
 1119              		.loc 1 300 1 view -0
 1120              		.cfi_startproc
 1121              		@ args = 0, pretend = 0, frame = 0
 1122              		@ frame_needed = 0, uses_anonymous_args = 0
 1123              		@ link register save eliminated.
 301:../../Middlewares/LVGL/GUI/lvgl/src/widgets/keyboard/lv_keyboard.c ****     return keyboard->popovers;
 1124              		.loc 1 301 5 view .LVU315
 302:../../Middlewares/LVGL/GUI/lvgl/src/widgets/keyboard/lv_keyboard.c **** }
 1125              		.loc 1 302 5 view .LVU316
 302:../../Middlewares/LVGL/GUI/lvgl/src/widgets/keyboard/lv_keyboard.c **** }
 1126              		.loc 1 302 20 is_stmt 0 view .LVU317
 1127 0000 90F84D00 		ldrb	r0, [r0, #77]	@ zero_extendqisi2
 1128              	.LVL123:
 303:../../Middlewares/LVGL/GUI/lvgl/src/widgets/keyboard/lv_keyboard.c **** 
 1129              		.loc 1 303 1 view .LVU318
 1130 0004 00F00100 		and	r0, r0, #1
 1131 0008 7047     		bx	lr
 1132              		.cfi_endproc
 1133              	.LFE179:
 1135              		.section	.text.lv_keyboard_get_map_array,"ax",%progbits
 1136              		.align	1
 1137              		.global	lv_keyboard_get_map_array
 1138              		.syntax unified
 1139              		.thumb
 1140              		.thumb_func
 1142              	lv_keyboard_get_map_array:
 1143              	.LVL124:
 1144              	.LFB181:
 414:../../Middlewares/LVGL/GUI/lvgl/src/widgets/keyboard/lv_keyboard.c ****     return lv_buttonmatrix_get_map(kb);
 1145              		.loc 1 414 1 is_stmt 1 view -0
 1146              		.cfi_startproc
 1147              		@ args = 0, pretend = 0, frame = 0
 1148              		@ frame_needed = 0, uses_anonymous_args = 0
 414:../../Middlewares/LVGL/GUI/lvgl/src/widgets/keyboard/lv_keyboard.c ****     return lv_buttonmatrix_get_map(kb);
 1149              		.loc 1 414 1 is_stmt 0 view .LVU320
 1150 0000 08B5     		push	{r3, lr}
 1151              	.LCFI12:
 1152              		.cfi_def_cfa_offset 8
 1153              		.cfi_offset 3, -8
 1154              		.cfi_offset 14, -4
 415:../../Middlewares/LVGL/GUI/lvgl/src/widgets/keyboard/lv_keyboard.c **** }
 1155              		.loc 1 415 5 is_stmt 1 view .LVU321
 415:../../Middlewares/LVGL/GUI/lvgl/src/widgets/keyboard/lv_keyboard.c **** }
 1156              		.loc 1 415 12 is_stmt 0 view .LVU322
 1157 0002 FFF7FEFF 		bl	lv_buttonmatrix_get_map
 1158              	.LVL125:
 416:../../Middlewares/LVGL/GUI/lvgl/src/widgets/keyboard/lv_keyboard.c **** 
 1159              		.loc 1 416 1 view .LVU323
 1160 0006 08BD     		pop	{r3, pc}
 1161              		.cfi_endproc
ARM GAS  C:\Users\28576\AppData\Local\Temp\ccvpiibb.s 			page 35


 1162              	.LFE181:
 1164              		.section	.text.lv_keyboard_get_selected_button,"ax",%progbits
 1165              		.align	1
 1166              		.global	lv_keyboard_get_selected_button
 1167              		.syntax unified
 1168              		.thumb
 1169              		.thumb_func
 1171              	lv_keyboard_get_selected_button:
 1172              	.LVL126:
 1173              	.LFB182:
 419:../../Middlewares/LVGL/GUI/lvgl/src/widgets/keyboard/lv_keyboard.c ****     return lv_buttonmatrix_get_selected_button(obj);
 1174              		.loc 1 419 1 is_stmt 1 view -0
 1175              		.cfi_startproc
 1176              		@ args = 0, pretend = 0, frame = 0
 1177              		@ frame_needed = 0, uses_anonymous_args = 0
 419:../../Middlewares/LVGL/GUI/lvgl/src/widgets/keyboard/lv_keyboard.c ****     return lv_buttonmatrix_get_selected_button(obj);
 1178              		.loc 1 419 1 is_stmt 0 view .LVU325
 1179 0000 08B5     		push	{r3, lr}
 1180              	.LCFI13:
 1181              		.cfi_def_cfa_offset 8
 1182              		.cfi_offset 3, -8
 1183              		.cfi_offset 14, -4
 420:../../Middlewares/LVGL/GUI/lvgl/src/widgets/keyboard/lv_keyboard.c **** }
 1184              		.loc 1 420 5 is_stmt 1 view .LVU326
 420:../../Middlewares/LVGL/GUI/lvgl/src/widgets/keyboard/lv_keyboard.c **** }
 1185              		.loc 1 420 12 is_stmt 0 view .LVU327
 1186 0002 FFF7FEFF 		bl	lv_buttonmatrix_get_selected_button
 1187              	.LVL127:
 421:../../Middlewares/LVGL/GUI/lvgl/src/widgets/keyboard/lv_keyboard.c **** 
 1188              		.loc 1 421 1 view .LVU328
 1189 0006 08BD     		pop	{r3, pc}
 1190              		.cfi_endproc
 1191              	.LFE182:
 1193              		.section	.text.lv_keyboard_get_button_text,"ax",%progbits
 1194              		.align	1
 1195              		.global	lv_keyboard_get_button_text
 1196              		.syntax unified
 1197              		.thumb
 1198              		.thumb_func
 1200              	lv_keyboard_get_button_text:
 1201              	.LVL128:
 1202              	.LFB183:
 424:../../Middlewares/LVGL/GUI/lvgl/src/widgets/keyboard/lv_keyboard.c ****     return lv_buttonmatrix_get_button_text(obj, btn_id);
 1203              		.loc 1 424 1 is_stmt 1 view -0
 1204              		.cfi_startproc
 1205              		@ args = 0, pretend = 0, frame = 0
 1206              		@ frame_needed = 0, uses_anonymous_args = 0
 424:../../Middlewares/LVGL/GUI/lvgl/src/widgets/keyboard/lv_keyboard.c ****     return lv_buttonmatrix_get_button_text(obj, btn_id);
 1207              		.loc 1 424 1 is_stmt 0 view .LVU330
 1208 0000 08B5     		push	{r3, lr}
 1209              	.LCFI14:
 1210              		.cfi_def_cfa_offset 8
 1211              		.cfi_offset 3, -8
 1212              		.cfi_offset 14, -4
 425:../../Middlewares/LVGL/GUI/lvgl/src/widgets/keyboard/lv_keyboard.c **** }
 1213              		.loc 1 425 5 is_stmt 1 view .LVU331
 425:../../Middlewares/LVGL/GUI/lvgl/src/widgets/keyboard/lv_keyboard.c **** }
ARM GAS  C:\Users\28576\AppData\Local\Temp\ccvpiibb.s 			page 36


 1214              		.loc 1 425 12 is_stmt 0 view .LVU332
 1215 0002 FFF7FEFF 		bl	lv_buttonmatrix_get_button_text
 1216              	.LVL129:
 426:../../Middlewares/LVGL/GUI/lvgl/src/widgets/keyboard/lv_keyboard.c **** 
 1217              		.loc 1 426 1 view .LVU333
 1218 0006 08BD     		pop	{r3, pc}
 1219              		.cfi_endproc
 1220              	.LFE183:
 1222              		.section	.data.kb_ctrl,"aw"
 1223              		.align	2
 1226              	kb_ctrl:
 1227 0000 00000000 		.word	default_kb_ctrl_lc_map
 1228 0004 00000000 		.word	default_kb_ctrl_uc_map
 1229 0008 00000000 		.word	default_kb_ctrl_spec_map
 1230 000c 00000000 		.word	default_kb_ctrl_num_map
 1231 0010 00000000 		.word	default_kb_ctrl_lc_map
 1232 0014 00000000 		.word	default_kb_ctrl_lc_map
 1233 0018 00000000 		.word	default_kb_ctrl_lc_map
 1234 001c 00000000 		.word	default_kb_ctrl_lc_map
 1235 0020 00000000 		.word	0
 1236 0024 00000000 		.space	4
 1237              		.section	.data.kb_map,"aw"
 1238              		.align	2
 1241              	kb_map:
 1242 0000 00000000 		.word	default_kb_map_lc
 1243 0004 00000000 		.word	default_kb_map_uc
 1244 0008 00000000 		.word	default_kb_map_spec
 1245 000c 00000000 		.word	default_kb_map_num
 1246 0010 00000000 		.word	default_kb_map_lc
 1247 0014 00000000 		.word	default_kb_map_lc
 1248 0018 00000000 		.word	default_kb_map_lc
 1249 001c 00000000 		.word	default_kb_map_lc
 1250 0020 00000000 		.word	0
 1251 0024 00000000 		.space	4
 1252              		.section	.rodata.default_kb_ctrl_num_map,"a"
 1253              		.align	2
 1256              	default_kb_ctrl_num_map:
 1257 0000 0100     		.short	1
 1258 0002 0100     		.short	1
 1259 0004 0100     		.short	1
 1260 0006 2203     		.short	802
 1261 0008 0100     		.short	1
 1262 000a 0100     		.short	1
 1263 000c 0100     		.short	1
 1264 000e 2203     		.short	802
 1265 0010 0100     		.short	1
 1266 0012 0100     		.short	1
 1267 0014 0100     		.short	1
 1268 0016 0200     		.short	2
 1269 0018 0100     		.short	1
 1270 001a 0100     		.short	1
 1271 001c 0100     		.short	1
 1272 001e 0100     		.short	1
 1273 0020 0100     		.short	1
 1274              		.section	.rodata.str1.4,"aMS",%progbits,1
 1275              		.align	2
 1276              	.LC12:
ARM GAS  C:\Users\28576\AppData\Local\Temp\ccvpiibb.s 			page 37


 1277 0000 3100     		.ascii	"1\000"
 1278 0002 0000     		.align	2
 1279              	.LC13:
 1280 0004 3200     		.ascii	"2\000"
 1281 0006 0000     		.align	2
 1282              	.LC14:
 1283 0008 3300     		.ascii	"3\000"
 1284 000a 0000     		.align	2
 1285              	.LC15:
 1286 000c 0A00     		.ascii	"\012\000"
 1287 000e 0000     		.align	2
 1288              	.LC16:
 1289 0010 3400     		.ascii	"4\000"
 1290 0012 0000     		.align	2
 1291              	.LC17:
 1292 0014 3500     		.ascii	"5\000"
 1293 0016 0000     		.align	2
 1294              	.LC18:
 1295 0018 3600     		.ascii	"6\000"
 1296 001a 0000     		.align	2
 1297              	.LC19:
 1298 001c 3700     		.ascii	"7\000"
 1299 001e 0000     		.align	2
 1300              	.LC20:
 1301 0020 3800     		.ascii	"8\000"
 1302 0022 0000     		.align	2
 1303              	.LC21:
 1304 0024 3900     		.ascii	"9\000"
 1305 0026 0000     		.align	2
 1306              	.LC22:
 1307 0028 3000     		.ascii	"0\000"
 1308 002a 0000     		.align	2
 1309              	.LC23:
 1310 002c 2E00     		.ascii	".\000"
 1311 002e 0000     		.align	2
 1312              	.LC24:
 1313 0030 00       		.ascii	"\000"
 1314              		.section	.rodata.default_kb_map_num,"a"
 1315              		.align	2
 1318              	default_kb_map_num:
 1319 0000 00000000 		.word	.LC12
 1320 0004 04000000 		.word	.LC13
 1321 0008 08000000 		.word	.LC14
 1322 000c 10000000 		.word	.LC4
 1323 0010 0C000000 		.word	.LC15
 1324 0014 10000000 		.word	.LC16
 1325 0018 14000000 		.word	.LC17
 1326 001c 18000000 		.word	.LC18
 1327 0020 14000000 		.word	.LC5
 1328 0024 0C000000 		.word	.LC15
 1329 0028 1C000000 		.word	.LC19
 1330 002c 20000000 		.word	.LC20
 1331 0030 24000000 		.word	.LC21
 1332 0034 2C000000 		.word	.LC10
 1333 0038 0C000000 		.word	.LC15
 1334 003c 30000000 		.word	.LC11
 1335 0040 28000000 		.word	.LC22
ARM GAS  C:\Users\28576\AppData\Local\Temp\ccvpiibb.s 			page 38


 1336 0044 2C000000 		.word	.LC23
 1337 0048 24000000 		.word	.LC8
 1338 004c 28000000 		.word	.LC9
 1339 0050 30000000 		.word	.LC24
 1340              		.section	.rodata.default_kb_ctrl_spec_map,"a"
 1341              		.align	2
 1344              	default_kb_ctrl_spec_map:
 1345 0000 0104     		.short	1025
 1346 0002 0104     		.short	1025
 1347 0004 0104     		.short	1025
 1348 0006 0104     		.short	1025
 1349 0008 0104     		.short	1025
 1350 000a 0104     		.short	1025
 1351 000c 0104     		.short	1025
 1352 000e 0104     		.short	1025
 1353 0010 0104     		.short	1025
 1354 0012 0104     		.short	1025
 1355 0014 0201     		.short	258
 1356 0016 2203     		.short	802
 1357 0018 0104     		.short	1025
 1358 001a 0104     		.short	1025
 1359 001c 0104     		.short	1025
 1360 001e 0104     		.short	1025
 1361 0020 0104     		.short	1025
 1362 0022 0104     		.short	1025
 1363 0024 0104     		.short	1025
 1364 0026 0104     		.short	1025
 1365 0028 0104     		.short	1025
 1366 002a 0104     		.short	1025
 1367 002c 0104     		.short	1025
 1368 002e 0104     		.short	1025
 1369 0030 0104     		.short	1025
 1370 0032 0104     		.short	1025
 1371 0034 0104     		.short	1025
 1372 0036 0104     		.short	1025
 1373 0038 0104     		.short	1025
 1374 003a 0104     		.short	1025
 1375 003c 0104     		.short	1025
 1376 003e 0104     		.short	1025
 1377 0040 0104     		.short	1025
 1378 0042 0104     		.short	1025
 1379 0044 0104     		.short	1025
 1380 0046 2203     		.short	802
 1381 0048 0201     		.short	258
 1382 004a 0600     		.short	6
 1383 004c 0201     		.short	258
 1384 004e 2203     		.short	802
 1385              		.section	.rodata.str1.4
 1386 0031 000000   		.align	2
 1387              	.LC25:
 1388 0034 2B00     		.ascii	"+\000"
 1389 0036 0000     		.align	2
 1390              	.LC26:
 1391 0038 2600     		.ascii	"&\000"
 1392 003a 0000     		.align	2
 1393              	.LC27:
 1394 003c 2F00     		.ascii	"/\000"
ARM GAS  C:\Users\28576\AppData\Local\Temp\ccvpiibb.s 			page 39


 1395 003e 0000     		.align	2
 1396              	.LC28:
 1397 0040 2A00     		.ascii	"*\000"
 1398 0042 0000     		.align	2
 1399              	.LC29:
 1400 0044 3D00     		.ascii	"=\000"
 1401 0046 0000     		.align	2
 1402              	.LC30:
 1403 0048 2500     		.ascii	"%\000"
 1404 004a 0000     		.align	2
 1405              	.LC31:
 1406 004c 2100     		.ascii	"!\000"
 1407 004e 0000     		.align	2
 1408              	.LC32:
 1409 0050 3F00     		.ascii	"?\000"
 1410 0052 0000     		.align	2
 1411              	.LC33:
 1412 0054 2300     		.ascii	"#\000"
 1413 0056 0000     		.align	2
 1414              	.LC34:
 1415 0058 3C00     		.ascii	"<\000"
 1416 005a 0000     		.align	2
 1417              	.LC35:
 1418 005c 3E00     		.ascii	">\000"
 1419 005e 0000     		.align	2
 1420              	.LC36:
 1421 0060 5C00     		.ascii	"\\\000"
 1422 0062 0000     		.align	2
 1423              	.LC37:
 1424 0064 4000     		.ascii	"@\000"
 1425 0066 0000     		.align	2
 1426              	.LC38:
 1427 0068 2400     		.ascii	"$\000"
 1428 006a 0000     		.align	2
 1429              	.LC39:
 1430 006c 2800     		.ascii	"(\000"
 1431 006e 0000     		.align	2
 1432              	.LC40:
 1433 0070 2900     		.ascii	")\000"
 1434 0072 0000     		.align	2
 1435              	.LC41:
 1436 0074 7B00     		.ascii	"{\000"
 1437 0076 0000     		.align	2
 1438              	.LC42:
 1439 0078 7D00     		.ascii	"}\000"
 1440 007a 0000     		.align	2
 1441              	.LC43:
 1442 007c 5B00     		.ascii	"[\000"
 1443 007e 0000     		.align	2
 1444              	.LC44:
 1445 0080 5D00     		.ascii	"]\000"
 1446 0082 0000     		.align	2
 1447              	.LC45:
 1448 0084 3B00     		.ascii	";\000"
 1449 0086 0000     		.align	2
 1450              	.LC46:
 1451 0088 2200     		.ascii	"\"\000"
ARM GAS  C:\Users\28576\AppData\Local\Temp\ccvpiibb.s 			page 40


 1452 008a 0000     		.align	2
 1453              	.LC47:
 1454 008c 2700     		.ascii	"'\000"
 1455 008e 0000     		.align	2
 1456              	.LC48:
 1457 0090 2000     		.ascii	" \000"
 1458              		.section	.rodata.default_kb_map_spec,"a"
 1459              		.align	2
 1462              	default_kb_map_spec:
 1463 0000 00000000 		.word	.LC12
 1464 0004 04000000 		.word	.LC13
 1465 0008 08000000 		.word	.LC14
 1466 000c 10000000 		.word	.LC16
 1467 0010 14000000 		.word	.LC17
 1468 0014 18000000 		.word	.LC18
 1469 0018 1C000000 		.word	.LC19
 1470 001c 20000000 		.word	.LC20
 1471 0020 24000000 		.word	.LC21
 1472 0024 28000000 		.word	.LC22
 1473 0028 2C000000 		.word	.LC10
 1474 002c 0C000000 		.word	.LC15
 1475 0030 00000000 		.word	.LC0
 1476 0034 34000000 		.word	.LC25
 1477 0038 38000000 		.word	.LC26
 1478 003c 3C000000 		.word	.LC27
 1479 0040 40000000 		.word	.LC28
 1480 0044 44000000 		.word	.LC29
 1481 0048 48000000 		.word	.LC30
 1482 004c 4C000000 		.word	.LC31
 1483 0050 50000000 		.word	.LC32
 1484 0054 54000000 		.word	.LC33
 1485 0058 58000000 		.word	.LC34
 1486 005c 5C000000 		.word	.LC35
 1487 0060 0C000000 		.word	.LC15
 1488 0064 60000000 		.word	.LC36
 1489 0068 64000000 		.word	.LC37
 1490 006c 68000000 		.word	.LC38
 1491 0070 6C000000 		.word	.LC39
 1492 0074 70000000 		.word	.LC40
 1493 0078 74000000 		.word	.LC41
 1494 007c 78000000 		.word	.LC42
 1495 0080 7C000000 		.word	.LC43
 1496 0084 80000000 		.word	.LC44
 1497 0088 84000000 		.word	.LC45
 1498 008c 88000000 		.word	.LC46
 1499 0090 8C000000 		.word	.LC47
 1500 0094 0C000000 		.word	.LC15
 1501 0098 10000000 		.word	.LC4
 1502 009c 24000000 		.word	.LC8
 1503 00a0 90000000 		.word	.LC48
 1504 00a4 28000000 		.word	.LC9
 1505 00a8 14000000 		.word	.LC5
 1506 00ac 30000000 		.word	.LC24
 1507              		.section	.rodata.default_kb_ctrl_uc_map,"a"
 1508              		.align	2
 1511              	default_kb_ctrl_uc_map:
 1512 0000 2503     		.short	805
ARM GAS  C:\Users\28576\AppData\Local\Temp\ccvpiibb.s 			page 41


 1513 0002 0404     		.short	1028
 1514 0004 0404     		.short	1028
 1515 0006 0404     		.short	1028
 1516 0008 0404     		.short	1028
 1517 000a 0404     		.short	1028
 1518 000c 0404     		.short	1028
 1519 000e 0404     		.short	1028
 1520 0010 0404     		.short	1028
 1521 0012 0404     		.short	1028
 1522 0014 0404     		.short	1028
 1523 0016 0701     		.short	263
 1524 0018 2603     		.short	806
 1525 001a 0304     		.short	1027
 1526 001c 0304     		.short	1027
 1527 001e 0304     		.short	1027
 1528 0020 0304     		.short	1027
 1529 0022 0304     		.short	1027
 1530 0024 0304     		.short	1027
 1531 0026 0304     		.short	1027
 1532 0028 0304     		.short	1027
 1533 002a 0304     		.short	1027
 1534 002c 0701     		.short	263
 1535 002e 0105     		.short	1281
 1536 0030 0105     		.short	1281
 1537 0032 0104     		.short	1025
 1538 0034 0104     		.short	1025
 1539 0036 0104     		.short	1025
 1540 0038 0104     		.short	1025
 1541 003a 0104     		.short	1025
 1542 003c 0104     		.short	1025
 1543 003e 0104     		.short	1025
 1544 0040 0105     		.short	1281
 1545 0042 0105     		.short	1281
 1546 0044 0105     		.short	1281
 1547 0046 2203     		.short	802
 1548 0048 0201     		.short	258
 1549 004a 0600     		.short	6
 1550 004c 0201     		.short	258
 1551 004e 2203     		.short	802
 1552              		.section	.rodata.str1.4
 1553 0092 0000     		.align	2
 1554              	.LC49:
 1555 0094 5100     		.ascii	"Q\000"
 1556 0096 0000     		.align	2
 1557              	.LC50:
 1558 0098 5700     		.ascii	"W\000"
 1559 009a 0000     		.align	2
 1560              	.LC51:
 1561 009c 4500     		.ascii	"E\000"
 1562 009e 0000     		.align	2
 1563              	.LC52:
 1564 00a0 5200     		.ascii	"R\000"
 1565 00a2 0000     		.align	2
 1566              	.LC53:
 1567 00a4 5400     		.ascii	"T\000"
 1568 00a6 0000     		.align	2
 1569              	.LC54:
ARM GAS  C:\Users\28576\AppData\Local\Temp\ccvpiibb.s 			page 42


 1570 00a8 5900     		.ascii	"Y\000"
 1571 00aa 0000     		.align	2
 1572              	.LC55:
 1573 00ac 5500     		.ascii	"U\000"
 1574 00ae 0000     		.align	2
 1575              	.LC56:
 1576 00b0 4900     		.ascii	"I\000"
 1577 00b2 0000     		.align	2
 1578              	.LC57:
 1579 00b4 4F00     		.ascii	"O\000"
 1580 00b6 0000     		.align	2
 1581              	.LC58:
 1582 00b8 5000     		.ascii	"P\000"
 1583 00ba 0000     		.align	2
 1584              	.LC59:
 1585 00bc 4100     		.ascii	"A\000"
 1586 00be 0000     		.align	2
 1587              	.LC60:
 1588 00c0 5300     		.ascii	"S\000"
 1589 00c2 0000     		.align	2
 1590              	.LC61:
 1591 00c4 4400     		.ascii	"D\000"
 1592 00c6 0000     		.align	2
 1593              	.LC62:
 1594 00c8 4600     		.ascii	"F\000"
 1595 00ca 0000     		.align	2
 1596              	.LC63:
 1597 00cc 4700     		.ascii	"G\000"
 1598 00ce 0000     		.align	2
 1599              	.LC64:
 1600 00d0 4800     		.ascii	"H\000"
 1601 00d2 0000     		.align	2
 1602              	.LC65:
 1603 00d4 4A00     		.ascii	"J\000"
 1604 00d6 0000     		.align	2
 1605              	.LC66:
 1606 00d8 4B00     		.ascii	"K\000"
 1607 00da 0000     		.align	2
 1608              	.LC67:
 1609 00dc 4C00     		.ascii	"L\000"
 1610 00de 0000     		.align	2
 1611              	.LC68:
 1612 00e0 5F00     		.ascii	"_\000"
 1613 00e2 0000     		.align	2
 1614              	.LC69:
 1615 00e4 2D00     		.ascii	"-\000"
 1616 00e6 0000     		.align	2
 1617              	.LC70:
 1618 00e8 5A00     		.ascii	"Z\000"
 1619 00ea 0000     		.align	2
 1620              	.LC71:
 1621 00ec 5800     		.ascii	"X\000"
 1622 00ee 0000     		.align	2
 1623              	.LC72:
 1624 00f0 4300     		.ascii	"C\000"
 1625 00f2 0000     		.align	2
 1626              	.LC73:
ARM GAS  C:\Users\28576\AppData\Local\Temp\ccvpiibb.s 			page 43


 1627 00f4 5600     		.ascii	"V\000"
 1628 00f6 0000     		.align	2
 1629              	.LC74:
 1630 00f8 4200     		.ascii	"B\000"
 1631 00fa 0000     		.align	2
 1632              	.LC75:
 1633 00fc 4E00     		.ascii	"N\000"
 1634 00fe 0000     		.align	2
 1635              	.LC76:
 1636 0100 4D00     		.ascii	"M\000"
 1637 0102 0000     		.align	2
 1638              	.LC77:
 1639 0104 2C00     		.ascii	",\000"
 1640 0106 0000     		.align	2
 1641              	.LC78:
 1642 0108 3A00     		.ascii	":\000"
 1643              		.section	.rodata.default_kb_map_uc,"a"
 1644              		.align	2
 1647              	default_kb_map_uc:
 1648 0000 08000000 		.word	.LC2
 1649 0004 94000000 		.word	.LC49
 1650 0008 98000000 		.word	.LC50
 1651 000c 9C000000 		.word	.LC51
 1652 0010 A0000000 		.word	.LC52
 1653 0014 A4000000 		.word	.LC53
 1654 0018 A8000000 		.word	.LC54
 1655 001c AC000000 		.word	.LC55
 1656 0020 B0000000 		.word	.LC56
 1657 0024 B4000000 		.word	.LC57
 1658 0028 B8000000 		.word	.LC58
 1659 002c 2C000000 		.word	.LC10
 1660 0030 0C000000 		.word	.LC15
 1661 0034 00000000 		.word	.LC0
 1662 0038 BC000000 		.word	.LC59
 1663 003c C0000000 		.word	.LC60
 1664 0040 C4000000 		.word	.LC61
 1665 0044 C8000000 		.word	.LC62
 1666 0048 CC000000 		.word	.LC63
 1667 004c D0000000 		.word	.LC64
 1668 0050 D4000000 		.word	.LC65
 1669 0054 D8000000 		.word	.LC66
 1670 0058 DC000000 		.word	.LC67
 1671 005c 20000000 		.word	.LC7
 1672 0060 0C000000 		.word	.LC15
 1673 0064 E0000000 		.word	.LC68
 1674 0068 E4000000 		.word	.LC69
 1675 006c E8000000 		.word	.LC70
 1676 0070 EC000000 		.word	.LC71
 1677 0074 F0000000 		.word	.LC72
 1678 0078 F4000000 		.word	.LC73
 1679 007c F8000000 		.word	.LC74
 1680 0080 FC000000 		.word	.LC75
 1681 0084 00010000 		.word	.LC76
 1682 0088 2C000000 		.word	.LC23
 1683 008c 04010000 		.word	.LC77
 1684 0090 08010000 		.word	.LC78
 1685 0094 0C000000 		.word	.LC15
ARM GAS  C:\Users\28576\AppData\Local\Temp\ccvpiibb.s 			page 44


 1686 0098 0C000000 		.word	.LC3
 1687 009c 24000000 		.word	.LC8
 1688 00a0 90000000 		.word	.LC48
 1689 00a4 28000000 		.word	.LC9
 1690 00a8 14000000 		.word	.LC5
 1691 00ac 30000000 		.word	.LC24
 1692              		.section	.rodata.default_kb_ctrl_lc_map,"a"
 1693              		.align	2
 1696              	default_kb_ctrl_lc_map:
 1697 0000 2503     		.short	805
 1698 0002 0404     		.short	1028
 1699 0004 0404     		.short	1028
 1700 0006 0404     		.short	1028
 1701 0008 0404     		.short	1028
 1702 000a 0404     		.short	1028
 1703 000c 0404     		.short	1028
 1704 000e 0404     		.short	1028
 1705 0010 0404     		.short	1028
 1706 0012 0404     		.short	1028
 1707 0014 0404     		.short	1028
 1708 0016 0701     		.short	263
 1709 0018 2603     		.short	806
 1710 001a 0304     		.short	1027
 1711 001c 0304     		.short	1027
 1712 001e 0304     		.short	1027
 1713 0020 0304     		.short	1027
 1714 0022 0304     		.short	1027
 1715 0024 0304     		.short	1027
 1716 0026 0304     		.short	1027
 1717 0028 0304     		.short	1027
 1718 002a 0304     		.short	1027
 1719 002c 0701     		.short	263
 1720 002e 0105     		.short	1281
 1721 0030 0105     		.short	1281
 1722 0032 0104     		.short	1025
 1723 0034 0104     		.short	1025
 1724 0036 0104     		.short	1025
 1725 0038 0104     		.short	1025
 1726 003a 0104     		.short	1025
 1727 003c 0104     		.short	1025
 1728 003e 0104     		.short	1025
 1729 0040 0105     		.short	1281
 1730 0042 0105     		.short	1281
 1731 0044 0105     		.short	1281
 1732 0046 2203     		.short	802
 1733 0048 0201     		.short	258
 1734 004a 0600     		.short	6
 1735 004c 0201     		.short	258
 1736 004e 2203     		.short	802
 1737              		.section	.rodata.str1.4
 1738 010a 0000     		.align	2
 1739              	.LC79:
 1740 010c 7100     		.ascii	"q\000"
 1741 010e 0000     		.align	2
 1742              	.LC80:
 1743 0110 7700     		.ascii	"w\000"
 1744 0112 0000     		.align	2
ARM GAS  C:\Users\28576\AppData\Local\Temp\ccvpiibb.s 			page 45


 1745              	.LC81:
 1746 0114 6500     		.ascii	"e\000"
 1747 0116 0000     		.align	2
 1748              	.LC82:
 1749 0118 7200     		.ascii	"r\000"
 1750 011a 0000     		.align	2
 1751              	.LC83:
 1752 011c 7400     		.ascii	"t\000"
 1753 011e 0000     		.align	2
 1754              	.LC84:
 1755 0120 7900     		.ascii	"y\000"
 1756 0122 0000     		.align	2
 1757              	.LC85:
 1758 0124 7500     		.ascii	"u\000"
 1759 0126 0000     		.align	2
 1760              	.LC86:
 1761 0128 6900     		.ascii	"i\000"
 1762 012a 0000     		.align	2
 1763              	.LC87:
 1764 012c 6F00     		.ascii	"o\000"
 1765 012e 0000     		.align	2
 1766              	.LC88:
 1767 0130 7000     		.ascii	"p\000"
 1768 0132 0000     		.align	2
 1769              	.LC89:
 1770 0134 6100     		.ascii	"a\000"
 1771 0136 0000     		.align	2
 1772              	.LC90:
 1773 0138 7300     		.ascii	"s\000"
 1774 013a 0000     		.align	2
 1775              	.LC91:
 1776 013c 6400     		.ascii	"d\000"
 1777 013e 0000     		.align	2
 1778              	.LC92:
 1779 0140 6600     		.ascii	"f\000"
 1780 0142 0000     		.align	2
 1781              	.LC93:
 1782 0144 6700     		.ascii	"g\000"
 1783 0146 0000     		.align	2
 1784              	.LC94:
 1785 0148 6800     		.ascii	"h\000"
 1786 014a 0000     		.align	2
 1787              	.LC95:
 1788 014c 6A00     		.ascii	"j\000"
 1789 014e 0000     		.align	2
 1790              	.LC96:
 1791 0150 6B00     		.ascii	"k\000"
 1792 0152 0000     		.align	2
 1793              	.LC97:
 1794 0154 6C00     		.ascii	"l\000"
 1795 0156 0000     		.align	2
 1796              	.LC98:
 1797 0158 7A00     		.ascii	"z\000"
 1798 015a 0000     		.align	2
 1799              	.LC99:
 1800 015c 7800     		.ascii	"x\000"
 1801 015e 0000     		.align	2
ARM GAS  C:\Users\28576\AppData\Local\Temp\ccvpiibb.s 			page 46


 1802              	.LC100:
 1803 0160 6300     		.ascii	"c\000"
 1804 0162 0000     		.align	2
 1805              	.LC101:
 1806 0164 7600     		.ascii	"v\000"
 1807 0166 0000     		.align	2
 1808              	.LC102:
 1809 0168 6200     		.ascii	"b\000"
 1810 016a 0000     		.align	2
 1811              	.LC103:
 1812 016c 6E00     		.ascii	"n\000"
 1813 016e 0000     		.align	2
 1814              	.LC104:
 1815 0170 6D00     		.ascii	"m\000"
 1816              		.section	.rodata.default_kb_map_lc,"a"
 1817              		.align	2
 1820              	default_kb_map_lc:
 1821 0000 08000000 		.word	.LC2
 1822 0004 0C010000 		.word	.LC79
 1823 0008 10010000 		.word	.LC80
 1824 000c 14010000 		.word	.LC81
 1825 0010 18010000 		.word	.LC82
 1826 0014 1C010000 		.word	.LC83
 1827 0018 20010000 		.word	.LC84
 1828 001c 24010000 		.word	.LC85
 1829 0020 28010000 		.word	.LC86
 1830 0024 2C010000 		.word	.LC87
 1831 0028 30010000 		.word	.LC88
 1832 002c 2C000000 		.word	.LC10
 1833 0030 0C000000 		.word	.LC15
 1834 0034 04000000 		.word	.LC1
 1835 0038 34010000 		.word	.LC89
 1836 003c 38010000 		.word	.LC90
 1837 0040 3C010000 		.word	.LC91
 1838 0044 40010000 		.word	.LC92
 1839 0048 44010000 		.word	.LC93
 1840 004c 48010000 		.word	.LC94
 1841 0050 4C010000 		.word	.LC95
 1842 0054 50010000 		.word	.LC96
 1843 0058 54010000 		.word	.LC97
 1844 005c 20000000 		.word	.LC7
 1845 0060 0C000000 		.word	.LC15
 1846 0064 E0000000 		.word	.LC68
 1847 0068 E4000000 		.word	.LC69
 1848 006c 58010000 		.word	.LC98
 1849 0070 5C010000 		.word	.LC99
 1850 0074 60010000 		.word	.LC100
 1851 0078 64010000 		.word	.LC101
 1852 007c 68010000 		.word	.LC102
 1853 0080 6C010000 		.word	.LC103
 1854 0084 70010000 		.word	.LC104
 1855 0088 2C000000 		.word	.LC23
 1856 008c 04010000 		.word	.LC77
 1857 0090 08010000 		.word	.LC78
 1858 0094 0C000000 		.word	.LC15
 1859 0098 10000000 		.word	.LC4
 1860 009c 24000000 		.word	.LC8
ARM GAS  C:\Users\28576\AppData\Local\Temp\ccvpiibb.s 			page 47


 1861 00a0 90000000 		.word	.LC48
 1862 00a4 28000000 		.word	.LC9
 1863 00a8 14000000 		.word	.LC5
 1864 00ac 30000000 		.word	.LC24
 1865              		.global	lv_keyboard_class
 1866              		.section	.rodata.str1.4
 1867 0172 0000     		.align	2
 1868              	.LC105:
 1869 0174 6C765F6B 		.ascii	"lv_keyboard\000"
 1869      6579626F 
 1869      61726400 
 1870              		.section	.rodata.lv_keyboard_class,"a"
 1871              		.align	2
 1874              	lv_keyboard_class:
 1875 0000 00000000 		.word	lv_buttonmatrix_class
 1876 0004 00000000 		.word	lv_keyboard_constructor
 1877 0008 00000000 		.space	12
 1877      00000000 
 1877      00000000 
 1878 0014 74010000 		.word	.LC105
 1879 0018 64000020 		.word	536871012
 1880 001c 32000020 		.word	536870962
 1881 0020 01       		.byte	1
 1882 0021 05       		.byte	5
 1883 0022 00       		.byte	0
 1884 0023 00       		.space	1
 1885              		.text
 1886              	.Letext0:
 1887              		.file 2 "C:/Users/28576/AppData/Roaming/xPacks/@xpack-dev-tools/arm-none-eabi-gcc/15.2.1-1.1.1/.co
 1888              		.file 3 "C:/Users/28576/AppData/Roaming/xPacks/@xpack-dev-tools/arm-none-eabi-gcc/15.2.1-1.1.1/.co
 1889              		.file 4 "C:/Users/28576/AppData/Roaming/xPacks/@xpack-dev-tools/arm-none-eabi-gcc/15.2.1-1.1.1/.co
 1890              		.file 5 "H:/STM32H7/RGB_LVGL/Middlewares/LVGL/GUI/lvgl/src/misc/lv_types.h"
 1891              		.file 6 "H:/STM32H7/RGB_LVGL/Middlewares/LVGL/GUI/lvgl/src/core/lv_obj_private.h"
 1892              		.file 7 "H:/STM32H7/RGB_LVGL/Middlewares/LVGL/GUI/lvgl/src/core/lv_obj_class_private.h"
 1893              		.file 8 "../../Middlewares/LVGL/GUI/lvgl/src/widgets/keyboard/../buttonmatrix/lv_buttonmatrix_priv
 1894              		.file 9 "../../Middlewares/LVGL/GUI/lvgl/src/widgets/keyboard/lv_keyboard_private.h"
 1895              		.file 10 "H:/STM32H7/RGB_LVGL/Middlewares/LVGL/GUI/lvgl/src/misc/lv_array.h"
 1896              		.file 11 "H:/STM32H7/RGB_LVGL/Middlewares/LVGL/GUI/lvgl/src/misc/lv_area.h"
 1897              		.file 12 "H:/STM32H7/RGB_LVGL/Middlewares/LVGL/GUI/lvgl/src/misc/lv_bidi.h"
 1898              		.file 13 "H:/STM32H7/RGB_LVGL/Middlewares/LVGL/GUI/lvgl/src/misc/lv_event.h"
 1899              		.file 14 "H:/STM32H7/RGB_LVGL/Middlewares/LVGL/GUI/lvgl/src/core/lv_obj_style.h"
 1900              		.file 15 "H:/STM32H7/RGB_LVGL/Middlewares/LVGL/GUI/lvgl/src/indev/lv_indev.h"
 1901              		.file 16 "H:/STM32H7/RGB_LVGL/Middlewares/LVGL/GUI/lvgl/src/core/lv_obj.h"
 1902              		.file 17 "../../Middlewares/LVGL/GUI/lvgl/src/widgets/keyboard/../buttonmatrix/lv_buttonmatrix.h"
 1903              		.file 18 "../../Middlewares/LVGL/GUI/lvgl/src/widgets/keyboard/lv_keyboard.h"
 1904              		.file 19 "../../Middlewares/LVGL/GUI/lvgl/src/widgets/keyboard/../textarea/lv_textarea.h"
 1905              		.file 20 "H:/STM32H7/RGB_LVGL/Middlewares/LVGL/GUI/lvgl/src/core/lv_obj_event.h"
 1906              		.file 21 "H:/STM32H7/RGB_LVGL/Middlewares/LVGL/GUI/lvgl/src/stdlib/lv_string.h"
 1907              		.file 22 "H:/STM32H7/RGB_LVGL/Middlewares/LVGL/GUI/lvgl/src/core/lv_obj_class.h"
 1908              		.file 23 "H:/STM32H7/RGB_LVGL/Middlewares/LVGL/GUI/lvgl/src/stdlib/lv_mem.h"
 1909              		.file 24 "H:/STM32H7/RGB_LVGL/Middlewares/LVGL/GUI/lvgl/src/core/lv_obj_style_gen.h"
 1910              		.file 25 "H:/STM32H7/RGB_LVGL/Middlewares/LVGL/GUI/lvgl/src/core/lv_obj_pos.h"
ARM GAS  C:\Users\28576\AppData\Local\Temp\ccvpiibb.s 			page 48

