ARM GAS  C:\Users\28576\AppData\Local\Temp\ccBC7uBe.s 			page 1


   1              		.cpu cortex-m7
   2              		.arch armv7e-m
   3              		.fpu fpv5-d16
   4              		.eabi_attribute 28, 1
   5              		.eabi_attribute 20, 1
   6              		.eabi_attribute 21, 1
   7              		.eabi_attribute 23, 3
   8              		.eabi_attribute 24, 1
   9              		.eabi_attribute 25, 1
  10              		.eabi_attribute 26, 1
  11              		.eabi_attribute 30, 1
  12              		.eabi_attribute 34, 1
  13              		.eabi_attribute 18, 4
  14              		.file	"lv_line.c"
  15              		.text
  16              	.Ltext0:
  17              		.cfi_sections	.debug_frame
  18              		.file 1 "../../Middlewares/LVGL/GUI/lvgl/src/widgets/line/lv_line.c"
  19              		.section	.text.resolve_point_coord,"ax",%progbits
  20              		.align	1
  21              		.syntax unified
  22              		.thumb
  23              		.thumb_func
  25              	resolve_point_coord:
  26              	.LVL0:
  27              	.LFB183:
   1:../../Middlewares/LVGL/GUI/lvgl/src/widgets/line/lv_line.c **** /**
   2:../../Middlewares/LVGL/GUI/lvgl/src/widgets/line/lv_line.c ****  * @file lv_line.c
   3:../../Middlewares/LVGL/GUI/lvgl/src/widgets/line/lv_line.c ****  *
   4:../../Middlewares/LVGL/GUI/lvgl/src/widgets/line/lv_line.c ****  */
   5:../../Middlewares/LVGL/GUI/lvgl/src/widgets/line/lv_line.c **** 
   6:../../Middlewares/LVGL/GUI/lvgl/src/widgets/line/lv_line.c **** /*********************
   7:../../Middlewares/LVGL/GUI/lvgl/src/widgets/line/lv_line.c ****  *      INCLUDES
   8:../../Middlewares/LVGL/GUI/lvgl/src/widgets/line/lv_line.c ****  *********************/
   9:../../Middlewares/LVGL/GUI/lvgl/src/widgets/line/lv_line.c **** #include "lv_line_private.h"
  10:../../Middlewares/LVGL/GUI/lvgl/src/widgets/line/lv_line.c **** #include "../../core/lv_obj_class_private.h"
  11:../../Middlewares/LVGL/GUI/lvgl/src/widgets/line/lv_line.c **** 
  12:../../Middlewares/LVGL/GUI/lvgl/src/widgets/line/lv_line.c **** 
  13:../../Middlewares/LVGL/GUI/lvgl/src/widgets/line/lv_line.c **** #if LV_USE_LINE != 0
  14:../../Middlewares/LVGL/GUI/lvgl/src/widgets/line/lv_line.c **** #include "../../misc/lv_assert.h"
  15:../../Middlewares/LVGL/GUI/lvgl/src/widgets/line/lv_line.c **** #include "../../misc/lv_math.h"
  16:../../Middlewares/LVGL/GUI/lvgl/src/widgets/line/lv_line.c **** #include "../../misc/lv_types.h"
  17:../../Middlewares/LVGL/GUI/lvgl/src/widgets/line/lv_line.c **** #include "../../draw/lv_draw.h"
  18:../../Middlewares/LVGL/GUI/lvgl/src/widgets/line/lv_line.c **** 
  19:../../Middlewares/LVGL/GUI/lvgl/src/widgets/line/lv_line.c **** /*********************
  20:../../Middlewares/LVGL/GUI/lvgl/src/widgets/line/lv_line.c ****  *      DEFINES
  21:../../Middlewares/LVGL/GUI/lvgl/src/widgets/line/lv_line.c ****  *********************/
  22:../../Middlewares/LVGL/GUI/lvgl/src/widgets/line/lv_line.c **** #define MY_CLASS (&lv_line_class)
  23:../../Middlewares/LVGL/GUI/lvgl/src/widgets/line/lv_line.c **** 
  24:../../Middlewares/LVGL/GUI/lvgl/src/widgets/line/lv_line.c **** /**********************
  25:../../Middlewares/LVGL/GUI/lvgl/src/widgets/line/lv_line.c ****  *      TYPEDEFS
  26:../../Middlewares/LVGL/GUI/lvgl/src/widgets/line/lv_line.c ****  **********************/
  27:../../Middlewares/LVGL/GUI/lvgl/src/widgets/line/lv_line.c **** 
  28:../../Middlewares/LVGL/GUI/lvgl/src/widgets/line/lv_line.c **** /**********************
  29:../../Middlewares/LVGL/GUI/lvgl/src/widgets/line/lv_line.c ****  *  STATIC PROTOTYPES
  30:../../Middlewares/LVGL/GUI/lvgl/src/widgets/line/lv_line.c ****  **********************/
  31:../../Middlewares/LVGL/GUI/lvgl/src/widgets/line/lv_line.c **** static void lv_line_constructor(const lv_obj_class_t * class_p, lv_obj_t * obj);
ARM GAS  C:\Users\28576\AppData\Local\Temp\ccBC7uBe.s 			page 2


  32:../../Middlewares/LVGL/GUI/lvgl/src/widgets/line/lv_line.c **** static void line_set_points(lv_obj_t * obj, const lv_point_precise_t points[], uint32_t point_num, 
  33:../../Middlewares/LVGL/GUI/lvgl/src/widgets/line/lv_line.c **** static void lv_line_event(const lv_obj_class_t * class_p, lv_event_t * e);
  34:../../Middlewares/LVGL/GUI/lvgl/src/widgets/line/lv_line.c **** 
  35:../../Middlewares/LVGL/GUI/lvgl/src/widgets/line/lv_line.c **** /**********************
  36:../../Middlewares/LVGL/GUI/lvgl/src/widgets/line/lv_line.c ****  *  STATIC VARIABLES
  37:../../Middlewares/LVGL/GUI/lvgl/src/widgets/line/lv_line.c ****  **********************/
  38:../../Middlewares/LVGL/GUI/lvgl/src/widgets/line/lv_line.c **** const lv_obj_class_t lv_line_class = {
  39:../../Middlewares/LVGL/GUI/lvgl/src/widgets/line/lv_line.c ****     .constructor_cb = lv_line_constructor,
  40:../../Middlewares/LVGL/GUI/lvgl/src/widgets/line/lv_line.c ****     .event_cb = lv_line_event,
  41:../../Middlewares/LVGL/GUI/lvgl/src/widgets/line/lv_line.c ****     .width_def = LV_SIZE_CONTENT,
  42:../../Middlewares/LVGL/GUI/lvgl/src/widgets/line/lv_line.c ****     .height_def = LV_SIZE_CONTENT,
  43:../../Middlewares/LVGL/GUI/lvgl/src/widgets/line/lv_line.c ****     .instance_size = sizeof(lv_line_t),
  44:../../Middlewares/LVGL/GUI/lvgl/src/widgets/line/lv_line.c ****     .base_class = &lv_obj_class,
  45:../../Middlewares/LVGL/GUI/lvgl/src/widgets/line/lv_line.c ****     .name = "lv_line",
  46:../../Middlewares/LVGL/GUI/lvgl/src/widgets/line/lv_line.c **** };
  47:../../Middlewares/LVGL/GUI/lvgl/src/widgets/line/lv_line.c **** 
  48:../../Middlewares/LVGL/GUI/lvgl/src/widgets/line/lv_line.c **** /**********************
  49:../../Middlewares/LVGL/GUI/lvgl/src/widgets/line/lv_line.c ****  *      MACROS
  50:../../Middlewares/LVGL/GUI/lvgl/src/widgets/line/lv_line.c ****  **********************/
  51:../../Middlewares/LVGL/GUI/lvgl/src/widgets/line/lv_line.c **** 
  52:../../Middlewares/LVGL/GUI/lvgl/src/widgets/line/lv_line.c **** /**********************
  53:../../Middlewares/LVGL/GUI/lvgl/src/widgets/line/lv_line.c ****  *   GLOBAL FUNCTIONS
  54:../../Middlewares/LVGL/GUI/lvgl/src/widgets/line/lv_line.c ****  **********************/
  55:../../Middlewares/LVGL/GUI/lvgl/src/widgets/line/lv_line.c **** 
  56:../../Middlewares/LVGL/GUI/lvgl/src/widgets/line/lv_line.c **** lv_obj_t * lv_line_create(lv_obj_t * parent)
  57:../../Middlewares/LVGL/GUI/lvgl/src/widgets/line/lv_line.c **** {
  58:../../Middlewares/LVGL/GUI/lvgl/src/widgets/line/lv_line.c ****     LV_LOG_INFO("begin");
  59:../../Middlewares/LVGL/GUI/lvgl/src/widgets/line/lv_line.c ****     lv_obj_t * obj = lv_obj_class_create_obj(MY_CLASS, parent);
  60:../../Middlewares/LVGL/GUI/lvgl/src/widgets/line/lv_line.c ****     lv_obj_class_init_obj(obj);
  61:../../Middlewares/LVGL/GUI/lvgl/src/widgets/line/lv_line.c ****     return obj;
  62:../../Middlewares/LVGL/GUI/lvgl/src/widgets/line/lv_line.c **** }
  63:../../Middlewares/LVGL/GUI/lvgl/src/widgets/line/lv_line.c **** 
  64:../../Middlewares/LVGL/GUI/lvgl/src/widgets/line/lv_line.c **** /*=====================
  65:../../Middlewares/LVGL/GUI/lvgl/src/widgets/line/lv_line.c ****  * Setter functions
  66:../../Middlewares/LVGL/GUI/lvgl/src/widgets/line/lv_line.c ****  *====================*/
  67:../../Middlewares/LVGL/GUI/lvgl/src/widgets/line/lv_line.c **** 
  68:../../Middlewares/LVGL/GUI/lvgl/src/widgets/line/lv_line.c **** void lv_line_set_points(lv_obj_t * obj, const lv_point_precise_t points[], uint32_t point_num)
  69:../../Middlewares/LVGL/GUI/lvgl/src/widgets/line/lv_line.c **** {
  70:../../Middlewares/LVGL/GUI/lvgl/src/widgets/line/lv_line.c ****     line_set_points(obj, points, point_num, false);
  71:../../Middlewares/LVGL/GUI/lvgl/src/widgets/line/lv_line.c **** }
  72:../../Middlewares/LVGL/GUI/lvgl/src/widgets/line/lv_line.c **** 
  73:../../Middlewares/LVGL/GUI/lvgl/src/widgets/line/lv_line.c **** void lv_line_set_points_mutable(lv_obj_t * obj, lv_point_precise_t points[], uint32_t point_num)
  74:../../Middlewares/LVGL/GUI/lvgl/src/widgets/line/lv_line.c **** {
  75:../../Middlewares/LVGL/GUI/lvgl/src/widgets/line/lv_line.c ****     line_set_points(obj, points, point_num, true);
  76:../../Middlewares/LVGL/GUI/lvgl/src/widgets/line/lv_line.c **** }
  77:../../Middlewares/LVGL/GUI/lvgl/src/widgets/line/lv_line.c **** 
  78:../../Middlewares/LVGL/GUI/lvgl/src/widgets/line/lv_line.c **** void lv_line_set_y_invert(lv_obj_t * obj, bool en)
  79:../../Middlewares/LVGL/GUI/lvgl/src/widgets/line/lv_line.c **** {
  80:../../Middlewares/LVGL/GUI/lvgl/src/widgets/line/lv_line.c ****     LV_ASSERT_OBJ(obj, MY_CLASS);
  81:../../Middlewares/LVGL/GUI/lvgl/src/widgets/line/lv_line.c **** 
  82:../../Middlewares/LVGL/GUI/lvgl/src/widgets/line/lv_line.c ****     lv_line_t * line = (lv_line_t *)obj;
  83:../../Middlewares/LVGL/GUI/lvgl/src/widgets/line/lv_line.c ****     if(line->y_inv == en) return;
  84:../../Middlewares/LVGL/GUI/lvgl/src/widgets/line/lv_line.c **** 
  85:../../Middlewares/LVGL/GUI/lvgl/src/widgets/line/lv_line.c ****     line->y_inv = en ? 1U : 0U;
  86:../../Middlewares/LVGL/GUI/lvgl/src/widgets/line/lv_line.c **** 
  87:../../Middlewares/LVGL/GUI/lvgl/src/widgets/line/lv_line.c ****     lv_obj_invalidate(obj);
  88:../../Middlewares/LVGL/GUI/lvgl/src/widgets/line/lv_line.c **** }
ARM GAS  C:\Users\28576\AppData\Local\Temp\ccBC7uBe.s 			page 3


  89:../../Middlewares/LVGL/GUI/lvgl/src/widgets/line/lv_line.c **** 
  90:../../Middlewares/LVGL/GUI/lvgl/src/widgets/line/lv_line.c **** /*=====================
  91:../../Middlewares/LVGL/GUI/lvgl/src/widgets/line/lv_line.c ****  * Getter functions
  92:../../Middlewares/LVGL/GUI/lvgl/src/widgets/line/lv_line.c ****  *====================*/
  93:../../Middlewares/LVGL/GUI/lvgl/src/widgets/line/lv_line.c **** 
  94:../../Middlewares/LVGL/GUI/lvgl/src/widgets/line/lv_line.c **** const lv_point_precise_t * lv_line_get_points(lv_obj_t * obj)
  95:../../Middlewares/LVGL/GUI/lvgl/src/widgets/line/lv_line.c **** {
  96:../../Middlewares/LVGL/GUI/lvgl/src/widgets/line/lv_line.c ****     LV_ASSERT_OBJ(obj, MY_CLASS);
  97:../../Middlewares/LVGL/GUI/lvgl/src/widgets/line/lv_line.c **** 
  98:../../Middlewares/LVGL/GUI/lvgl/src/widgets/line/lv_line.c ****     lv_line_t * line = (lv_line_t *)obj;
  99:../../Middlewares/LVGL/GUI/lvgl/src/widgets/line/lv_line.c ****     return line->point_array.constant;
 100:../../Middlewares/LVGL/GUI/lvgl/src/widgets/line/lv_line.c **** }
 101:../../Middlewares/LVGL/GUI/lvgl/src/widgets/line/lv_line.c **** 
 102:../../Middlewares/LVGL/GUI/lvgl/src/widgets/line/lv_line.c **** uint32_t lv_line_get_point_count(lv_obj_t * obj)
 103:../../Middlewares/LVGL/GUI/lvgl/src/widgets/line/lv_line.c **** {
 104:../../Middlewares/LVGL/GUI/lvgl/src/widgets/line/lv_line.c ****     LV_ASSERT_OBJ(obj, MY_CLASS);
 105:../../Middlewares/LVGL/GUI/lvgl/src/widgets/line/lv_line.c **** 
 106:../../Middlewares/LVGL/GUI/lvgl/src/widgets/line/lv_line.c ****     lv_line_t * line = (lv_line_t *)obj;
 107:../../Middlewares/LVGL/GUI/lvgl/src/widgets/line/lv_line.c ****     return line->point_num;
 108:../../Middlewares/LVGL/GUI/lvgl/src/widgets/line/lv_line.c **** }
 109:../../Middlewares/LVGL/GUI/lvgl/src/widgets/line/lv_line.c **** 
 110:../../Middlewares/LVGL/GUI/lvgl/src/widgets/line/lv_line.c **** bool lv_line_is_point_array_mutable(lv_obj_t * obj)
 111:../../Middlewares/LVGL/GUI/lvgl/src/widgets/line/lv_line.c **** {
 112:../../Middlewares/LVGL/GUI/lvgl/src/widgets/line/lv_line.c ****     LV_ASSERT_OBJ(obj, MY_CLASS);
 113:../../Middlewares/LVGL/GUI/lvgl/src/widgets/line/lv_line.c **** 
 114:../../Middlewares/LVGL/GUI/lvgl/src/widgets/line/lv_line.c ****     lv_line_t * line = (lv_line_t *)obj;
 115:../../Middlewares/LVGL/GUI/lvgl/src/widgets/line/lv_line.c ****     return line->point_array_is_mutable;
 116:../../Middlewares/LVGL/GUI/lvgl/src/widgets/line/lv_line.c **** }
 117:../../Middlewares/LVGL/GUI/lvgl/src/widgets/line/lv_line.c **** 
 118:../../Middlewares/LVGL/GUI/lvgl/src/widgets/line/lv_line.c **** lv_point_precise_t * lv_line_get_points_mutable(lv_obj_t * obj)
 119:../../Middlewares/LVGL/GUI/lvgl/src/widgets/line/lv_line.c **** {
 120:../../Middlewares/LVGL/GUI/lvgl/src/widgets/line/lv_line.c ****     LV_ASSERT_OBJ(obj, MY_CLASS);
 121:../../Middlewares/LVGL/GUI/lvgl/src/widgets/line/lv_line.c **** 
 122:../../Middlewares/LVGL/GUI/lvgl/src/widgets/line/lv_line.c ****     lv_line_t * line = (lv_line_t *)obj;
 123:../../Middlewares/LVGL/GUI/lvgl/src/widgets/line/lv_line.c ****     if(!line->point_array_is_mutable) {
 124:../../Middlewares/LVGL/GUI/lvgl/src/widgets/line/lv_line.c ****         LV_LOG_WARN("the line point array is not mutable");
 125:../../Middlewares/LVGL/GUI/lvgl/src/widgets/line/lv_line.c ****         return NULL;
 126:../../Middlewares/LVGL/GUI/lvgl/src/widgets/line/lv_line.c ****     }
 127:../../Middlewares/LVGL/GUI/lvgl/src/widgets/line/lv_line.c ****     return line->point_array.mut;
 128:../../Middlewares/LVGL/GUI/lvgl/src/widgets/line/lv_line.c **** }
 129:../../Middlewares/LVGL/GUI/lvgl/src/widgets/line/lv_line.c **** 
 130:../../Middlewares/LVGL/GUI/lvgl/src/widgets/line/lv_line.c **** bool lv_line_get_y_invert(const lv_obj_t * obj)
 131:../../Middlewares/LVGL/GUI/lvgl/src/widgets/line/lv_line.c **** {
 132:../../Middlewares/LVGL/GUI/lvgl/src/widgets/line/lv_line.c ****     LV_ASSERT_OBJ(obj, MY_CLASS);
 133:../../Middlewares/LVGL/GUI/lvgl/src/widgets/line/lv_line.c **** 
 134:../../Middlewares/LVGL/GUI/lvgl/src/widgets/line/lv_line.c ****     lv_line_t * line = (lv_line_t *)obj;
 135:../../Middlewares/LVGL/GUI/lvgl/src/widgets/line/lv_line.c **** 
 136:../../Middlewares/LVGL/GUI/lvgl/src/widgets/line/lv_line.c ****     return line->y_inv == 1U;
 137:../../Middlewares/LVGL/GUI/lvgl/src/widgets/line/lv_line.c **** }
 138:../../Middlewares/LVGL/GUI/lvgl/src/widgets/line/lv_line.c **** 
 139:../../Middlewares/LVGL/GUI/lvgl/src/widgets/line/lv_line.c **** /**********************
 140:../../Middlewares/LVGL/GUI/lvgl/src/widgets/line/lv_line.c ****  *   STATIC FUNCTIONS
 141:../../Middlewares/LVGL/GUI/lvgl/src/widgets/line/lv_line.c ****  **********************/
 142:../../Middlewares/LVGL/GUI/lvgl/src/widgets/line/lv_line.c **** 
 143:../../Middlewares/LVGL/GUI/lvgl/src/widgets/line/lv_line.c **** static void lv_line_constructor(const lv_obj_class_t * class_p, lv_obj_t * obj)
 144:../../Middlewares/LVGL/GUI/lvgl/src/widgets/line/lv_line.c **** {
 145:../../Middlewares/LVGL/GUI/lvgl/src/widgets/line/lv_line.c ****     LV_UNUSED(class_p);
ARM GAS  C:\Users\28576\AppData\Local\Temp\ccBC7uBe.s 			page 4


 146:../../Middlewares/LVGL/GUI/lvgl/src/widgets/line/lv_line.c ****     LV_TRACE_OBJ_CREATE("begin");
 147:../../Middlewares/LVGL/GUI/lvgl/src/widgets/line/lv_line.c **** 
 148:../../Middlewares/LVGL/GUI/lvgl/src/widgets/line/lv_line.c ****     lv_line_t * line = (lv_line_t *)obj;
 149:../../Middlewares/LVGL/GUI/lvgl/src/widgets/line/lv_line.c **** 
 150:../../Middlewares/LVGL/GUI/lvgl/src/widgets/line/lv_line.c ****     line->point_num   = 0;
 151:../../Middlewares/LVGL/GUI/lvgl/src/widgets/line/lv_line.c ****     line->point_array.constant = NULL;
 152:../../Middlewares/LVGL/GUI/lvgl/src/widgets/line/lv_line.c ****     line->y_inv       = 0;
 153:../../Middlewares/LVGL/GUI/lvgl/src/widgets/line/lv_line.c ****     line->point_array_is_mutable = 0;
 154:../../Middlewares/LVGL/GUI/lvgl/src/widgets/line/lv_line.c **** 
 155:../../Middlewares/LVGL/GUI/lvgl/src/widgets/line/lv_line.c ****     lv_obj_remove_flag(obj, LV_OBJ_FLAG_CLICKABLE);
 156:../../Middlewares/LVGL/GUI/lvgl/src/widgets/line/lv_line.c **** 
 157:../../Middlewares/LVGL/GUI/lvgl/src/widgets/line/lv_line.c ****     LV_TRACE_OBJ_CREATE("finished");
 158:../../Middlewares/LVGL/GUI/lvgl/src/widgets/line/lv_line.c **** }
 159:../../Middlewares/LVGL/GUI/lvgl/src/widgets/line/lv_line.c **** 
 160:../../Middlewares/LVGL/GUI/lvgl/src/widgets/line/lv_line.c **** static void line_set_points(lv_obj_t * obj, const lv_point_precise_t points[], uint32_t point_num, 
 161:../../Middlewares/LVGL/GUI/lvgl/src/widgets/line/lv_line.c **** {
 162:../../Middlewares/LVGL/GUI/lvgl/src/widgets/line/lv_line.c ****     LV_ASSERT_OBJ(obj, MY_CLASS);
 163:../../Middlewares/LVGL/GUI/lvgl/src/widgets/line/lv_line.c **** 
 164:../../Middlewares/LVGL/GUI/lvgl/src/widgets/line/lv_line.c ****     lv_line_t * line = (lv_line_t *)obj;
 165:../../Middlewares/LVGL/GUI/lvgl/src/widgets/line/lv_line.c ****     line->point_array.constant = points;
 166:../../Middlewares/LVGL/GUI/lvgl/src/widgets/line/lv_line.c ****     line->point_num      = point_num;
 167:../../Middlewares/LVGL/GUI/lvgl/src/widgets/line/lv_line.c ****     line->point_array_is_mutable = mut;
 168:../../Middlewares/LVGL/GUI/lvgl/src/widgets/line/lv_line.c **** 
 169:../../Middlewares/LVGL/GUI/lvgl/src/widgets/line/lv_line.c ****     lv_obj_refresh_self_size(obj);
 170:../../Middlewares/LVGL/GUI/lvgl/src/widgets/line/lv_line.c **** 
 171:../../Middlewares/LVGL/GUI/lvgl/src/widgets/line/lv_line.c ****     lv_obj_invalidate(obj);
 172:../../Middlewares/LVGL/GUI/lvgl/src/widgets/line/lv_line.c **** }
 173:../../Middlewares/LVGL/GUI/lvgl/src/widgets/line/lv_line.c **** 
 174:../../Middlewares/LVGL/GUI/lvgl/src/widgets/line/lv_line.c **** static inline lv_value_precise_t resolve_point_coord(lv_value_precise_t coord, int32_t max)
 175:../../Middlewares/LVGL/GUI/lvgl/src/widgets/line/lv_line.c **** {
  28              		.loc 1 175 1 view -0
  29              		.cfi_startproc
  30              		@ args = 0, pretend = 0, frame = 0
  31              		@ frame_needed = 0, uses_anonymous_args = 0
  32              		@ link register save eliminated.
 176:../../Middlewares/LVGL/GUI/lvgl/src/widgets/line/lv_line.c ****     if(LV_COORD_IS_PCT((int32_t)coord)) {
  33              		.loc 1 176 5 view .LVU1
  34              		.loc 1 176 8 is_stmt 0 view .LVU2
  35 0000 00F0C043 		and	r3, r0, #1610612736
  36              		.loc 1 176 7 view .LVU3
  37 0004 B3F1005F 		cmp	r3, #536870912
  38 0008 1BD1     		bne	.L2
  39              		.loc 1 176 8 discriminator 1 view .LVU4
  40 000a 20F0C043 		bic	r3, r0, #1610612736
  41 000e 6FF06042 		mvn	r2, #-536870912
  42 0012 9342     		cmp	r3, r2
  43 0014 15DA     		bge	.L2
 177:../../Middlewares/LVGL/GUI/lvgl/src/widgets/line/lv_line.c ****         return LV_CLAMP(0, max * LV_COORD_GET_PCT((int32_t)coord) / 100, max);
  44              		.loc 1 177 9 is_stmt 1 view .LVU5
  45              		.loc 1 177 16 is_stmt 0 view .LVU6
  46 0016 B3F1805F 		cmp	r3, #268435456
  47 001a 05DB     		blt	.L3
  48              		.loc 1 177 16 discriminator 1 view .LVU7
  49 001c C3F17F63 		rsb	r3, r3, #267386880
  50 0020 03F57F23 		add	r3, r3, #1044480
  51 0024 03F6FF73 		addw	r3, r3, #4095
  52              	.L3:
ARM GAS  C:\Users\28576\AppData\Local\Temp\ccBC7uBe.s 			page 5


  53              		.loc 1 177 16 discriminator 4 view .LVU8
  54 0028 01FB03F3 		mul	r3, r1, r3
  55 002c 054A     		ldr	r2, .L4
  56 002e 82FB0302 		smull	r0, r2, r2, r3
  57              	.LVL1:
  58              		.loc 1 177 16 discriminator 4 view .LVU9
  59 0032 DB17     		asrs	r3, r3, #31
  60 0034 C3EB6213 		rsb	r3, r3, r2, asr #5
  61 0038 9942     		cmp	r1, r3
  62 003a A8BF     		it	ge
  63 003c 1946     		movge	r1, r3
  64              	.LVL2:
  65              		.loc 1 177 16 discriminator 4 view .LVU10
  66 003e 21EAE170 		bic	r0, r1, r1, asr #31
  67              	.L2:
 178:../../Middlewares/LVGL/GUI/lvgl/src/widgets/line/lv_line.c ****     }
 179:../../Middlewares/LVGL/GUI/lvgl/src/widgets/line/lv_line.c ****     else {
 180:../../Middlewares/LVGL/GUI/lvgl/src/widgets/line/lv_line.c ****         return coord;
 181:../../Middlewares/LVGL/GUI/lvgl/src/widgets/line/lv_line.c ****     }
 182:../../Middlewares/LVGL/GUI/lvgl/src/widgets/line/lv_line.c **** }
  68              		.loc 1 182 1 view .LVU11
  69 0042 7047     		bx	lr
  70              	.L5:
  71              		.align	2
  72              	.L4:
  73 0044 1F85EB51 		.word	1374389535
  74              		.cfi_endproc
  75              	.LFE183:
  77              		.section	.text.lv_line_event,"ax",%progbits
  78              		.align	1
  79              		.syntax unified
  80              		.thumb
  81              		.thumb_func
  83              	lv_line_event:
  84              	.LVL3:
  85              	.LFB184:
 183:../../Middlewares/LVGL/GUI/lvgl/src/widgets/line/lv_line.c **** 
 184:../../Middlewares/LVGL/GUI/lvgl/src/widgets/line/lv_line.c **** static void lv_line_event(const lv_obj_class_t * class_p, lv_event_t * e)
 185:../../Middlewares/LVGL/GUI/lvgl/src/widgets/line/lv_line.c **** {
  86              		.loc 1 185 1 is_stmt 1 view -0
  87              		.cfi_startproc
  88              		@ args = 0, pretend = 0, frame = 88
  89              		@ frame_needed = 0, uses_anonymous_args = 0
  90              		.loc 1 185 1 is_stmt 0 view .LVU13
  91 0000 2DE9F04F 		push	{r4, r5, r6, r7, r8, r9, r10, fp, lr}
  92              	.LCFI0:
  93              		.cfi_def_cfa_offset 36
  94              		.cfi_offset 4, -36
  95              		.cfi_offset 5, -32
  96              		.cfi_offset 6, -28
  97              		.cfi_offset 7, -24
  98              		.cfi_offset 8, -20
  99              		.cfi_offset 9, -16
 100              		.cfi_offset 10, -12
 101              		.cfi_offset 11, -8
 102              		.cfi_offset 14, -4
 103 0004 97B0     		sub	sp, sp, #92
ARM GAS  C:\Users\28576\AppData\Local\Temp\ccBC7uBe.s 			page 6


 104              	.LCFI1:
 105              		.cfi_def_cfa_offset 128
 106 0006 0E46     		mov	r6, r1
 186:../../Middlewares/LVGL/GUI/lvgl/src/widgets/line/lv_line.c ****     LV_UNUSED(class_p);
 107              		.loc 1 186 5 is_stmt 1 view .LVU14
 187:../../Middlewares/LVGL/GUI/lvgl/src/widgets/line/lv_line.c **** 
 188:../../Middlewares/LVGL/GUI/lvgl/src/widgets/line/lv_line.c ****     lv_result_t res;
 108              		.loc 1 188 5 view .LVU15
 189:../../Middlewares/LVGL/GUI/lvgl/src/widgets/line/lv_line.c **** 
 190:../../Middlewares/LVGL/GUI/lvgl/src/widgets/line/lv_line.c ****     /*Call the ancestor's event handler*/
 191:../../Middlewares/LVGL/GUI/lvgl/src/widgets/line/lv_line.c ****     res = lv_obj_event_base(MY_CLASS, e);
 109              		.loc 1 191 5 view .LVU16
 110              		.loc 1 191 11 is_stmt 0 view .LVU17
 111 0008 6A48     		ldr	r0, .L28
 112              	.LVL4:
 113              		.loc 1 191 11 view .LVU18
 114 000a FFF7FEFF 		bl	lv_obj_event_base
 115              	.LVL5:
 192:../../Middlewares/LVGL/GUI/lvgl/src/widgets/line/lv_line.c ****     if(res != LV_RESULT_OK) return;
 116              		.loc 1 192 5 is_stmt 1 view .LVU19
 117              		.loc 1 192 7 is_stmt 0 view .LVU20
 118 000e 0128     		cmp	r0, #1
 119 0010 02D0     		beq	.L23
 120              	.LVL6:
 121              	.L6:
 193:../../Middlewares/LVGL/GUI/lvgl/src/widgets/line/lv_line.c **** 
 194:../../Middlewares/LVGL/GUI/lvgl/src/widgets/line/lv_line.c ****     lv_event_code_t code = lv_event_get_code(e);
 195:../../Middlewares/LVGL/GUI/lvgl/src/widgets/line/lv_line.c ****     lv_obj_t * obj = lv_event_get_current_target(e);
 196:../../Middlewares/LVGL/GUI/lvgl/src/widgets/line/lv_line.c **** 
 197:../../Middlewares/LVGL/GUI/lvgl/src/widgets/line/lv_line.c ****     if(code == LV_EVENT_REFR_EXT_DRAW_SIZE) {
 198:../../Middlewares/LVGL/GUI/lvgl/src/widgets/line/lv_line.c ****         /*The corner of the skew lines is out of the intended area*/
 199:../../Middlewares/LVGL/GUI/lvgl/src/widgets/line/lv_line.c ****         int32_t line_width = lv_obj_get_style_line_width(obj, LV_PART_MAIN);
 200:../../Middlewares/LVGL/GUI/lvgl/src/widgets/line/lv_line.c ****         int32_t * s = lv_event_get_param(e);
 201:../../Middlewares/LVGL/GUI/lvgl/src/widgets/line/lv_line.c ****         if(*s < line_width) *s = line_width;
 202:../../Middlewares/LVGL/GUI/lvgl/src/widgets/line/lv_line.c ****     }
 203:../../Middlewares/LVGL/GUI/lvgl/src/widgets/line/lv_line.c ****     else if(code == LV_EVENT_GET_SELF_SIZE) {
 204:../../Middlewares/LVGL/GUI/lvgl/src/widgets/line/lv_line.c ****         lv_line_t * line = (lv_line_t *)obj;
 205:../../Middlewares/LVGL/GUI/lvgl/src/widgets/line/lv_line.c **** 
 206:../../Middlewares/LVGL/GUI/lvgl/src/widgets/line/lv_line.c ****         if(line->point_num == 0 || line->point_array.constant == NULL) return;
 207:../../Middlewares/LVGL/GUI/lvgl/src/widgets/line/lv_line.c **** 
 208:../../Middlewares/LVGL/GUI/lvgl/src/widgets/line/lv_line.c ****         lv_point_t * p = lv_event_get_param(e);
 209:../../Middlewares/LVGL/GUI/lvgl/src/widgets/line/lv_line.c ****         int32_t w = 0;
 210:../../Middlewares/LVGL/GUI/lvgl/src/widgets/line/lv_line.c ****         int32_t h = 0;
 211:../../Middlewares/LVGL/GUI/lvgl/src/widgets/line/lv_line.c **** 
 212:../../Middlewares/LVGL/GUI/lvgl/src/widgets/line/lv_line.c ****         uint32_t i;
 213:../../Middlewares/LVGL/GUI/lvgl/src/widgets/line/lv_line.c ****         for(i = 0; i < line->point_num; i++) {
 214:../../Middlewares/LVGL/GUI/lvgl/src/widgets/line/lv_line.c ****             if(!LV_COORD_IS_PCT((int32_t)line->point_array.constant[i].x)) {
 215:../../Middlewares/LVGL/GUI/lvgl/src/widgets/line/lv_line.c ****                 w = (int32_t)LV_MAX(line->point_array.constant[i].x, w);
 216:../../Middlewares/LVGL/GUI/lvgl/src/widgets/line/lv_line.c ****             }
 217:../../Middlewares/LVGL/GUI/lvgl/src/widgets/line/lv_line.c **** 
 218:../../Middlewares/LVGL/GUI/lvgl/src/widgets/line/lv_line.c ****             if(!LV_COORD_IS_PCT((int32_t)line->point_array.constant[i].y)) {
 219:../../Middlewares/LVGL/GUI/lvgl/src/widgets/line/lv_line.c ****                 h = (int32_t)LV_MAX(line->point_array.constant[i].y, h);
 220:../../Middlewares/LVGL/GUI/lvgl/src/widgets/line/lv_line.c ****             }
 221:../../Middlewares/LVGL/GUI/lvgl/src/widgets/line/lv_line.c ****         }
 222:../../Middlewares/LVGL/GUI/lvgl/src/widgets/line/lv_line.c **** 
 223:../../Middlewares/LVGL/GUI/lvgl/src/widgets/line/lv_line.c ****         p->x = w;
 224:../../Middlewares/LVGL/GUI/lvgl/src/widgets/line/lv_line.c ****         p->y = h;
ARM GAS  C:\Users\28576\AppData\Local\Temp\ccBC7uBe.s 			page 7


 225:../../Middlewares/LVGL/GUI/lvgl/src/widgets/line/lv_line.c ****     }
 226:../../Middlewares/LVGL/GUI/lvgl/src/widgets/line/lv_line.c ****     else if(code == LV_EVENT_DRAW_MAIN) {
 227:../../Middlewares/LVGL/GUI/lvgl/src/widgets/line/lv_line.c ****         lv_line_t * line = (lv_line_t *)obj;
 228:../../Middlewares/LVGL/GUI/lvgl/src/widgets/line/lv_line.c ****         lv_layer_t * layer = lv_event_get_layer(e);
 229:../../Middlewares/LVGL/GUI/lvgl/src/widgets/line/lv_line.c **** 
 230:../../Middlewares/LVGL/GUI/lvgl/src/widgets/line/lv_line.c ****         if(line->point_num == 0 || line->point_array.constant == NULL) return;
 231:../../Middlewares/LVGL/GUI/lvgl/src/widgets/line/lv_line.c **** 
 232:../../Middlewares/LVGL/GUI/lvgl/src/widgets/line/lv_line.c ****         lv_area_t area;
 233:../../Middlewares/LVGL/GUI/lvgl/src/widgets/line/lv_line.c ****         lv_obj_get_coords(obj, &area);
 234:../../Middlewares/LVGL/GUI/lvgl/src/widgets/line/lv_line.c ****         int32_t x_ofs = area.x1 - lv_obj_get_scroll_x(obj);
 235:../../Middlewares/LVGL/GUI/lvgl/src/widgets/line/lv_line.c ****         int32_t y_ofs = area.y1 - lv_obj_get_scroll_y(obj);
 236:../../Middlewares/LVGL/GUI/lvgl/src/widgets/line/lv_line.c **** 
 237:../../Middlewares/LVGL/GUI/lvgl/src/widgets/line/lv_line.c ****         lv_draw_line_dsc_t line_dsc;
 238:../../Middlewares/LVGL/GUI/lvgl/src/widgets/line/lv_line.c ****         lv_draw_line_dsc_init(&line_dsc);
 239:../../Middlewares/LVGL/GUI/lvgl/src/widgets/line/lv_line.c ****         line_dsc.base.layer = layer;
 240:../../Middlewares/LVGL/GUI/lvgl/src/widgets/line/lv_line.c ****         lv_obj_init_draw_line_dsc(obj, LV_PART_MAIN, &line_dsc);
 241:../../Middlewares/LVGL/GUI/lvgl/src/widgets/line/lv_line.c **** 
 242:../../Middlewares/LVGL/GUI/lvgl/src/widgets/line/lv_line.c ****         /*Read all points and draw the lines*/
 243:../../Middlewares/LVGL/GUI/lvgl/src/widgets/line/lv_line.c ****         uint32_t i;
 244:../../Middlewares/LVGL/GUI/lvgl/src/widgets/line/lv_line.c ****         for(i = 0; i < line->point_num - 1; i++) {
 245:../../Middlewares/LVGL/GUI/lvgl/src/widgets/line/lv_line.c ****             int32_t w = lv_obj_get_width(obj);
 246:../../Middlewares/LVGL/GUI/lvgl/src/widgets/line/lv_line.c ****             int32_t h = lv_obj_get_height(obj);
 247:../../Middlewares/LVGL/GUI/lvgl/src/widgets/line/lv_line.c **** 
 248:../../Middlewares/LVGL/GUI/lvgl/src/widgets/line/lv_line.c ****             line_dsc.p1.x = resolve_point_coord(line->point_array.constant[i].x, w) + x_ofs;
 249:../../Middlewares/LVGL/GUI/lvgl/src/widgets/line/lv_line.c ****             line_dsc.p1.y = resolve_point_coord(line->point_array.constant[i].y, h);
 250:../../Middlewares/LVGL/GUI/lvgl/src/widgets/line/lv_line.c **** 
 251:../../Middlewares/LVGL/GUI/lvgl/src/widgets/line/lv_line.c ****             line_dsc.p2.x = resolve_point_coord(line->point_array.constant[i + 1].x, w) + x_ofs;
 252:../../Middlewares/LVGL/GUI/lvgl/src/widgets/line/lv_line.c ****             line_dsc.p2.y = resolve_point_coord(line->point_array.constant[i + 1].y, h);
 253:../../Middlewares/LVGL/GUI/lvgl/src/widgets/line/lv_line.c **** 
 254:../../Middlewares/LVGL/GUI/lvgl/src/widgets/line/lv_line.c ****             if(line->y_inv == 0) {
 255:../../Middlewares/LVGL/GUI/lvgl/src/widgets/line/lv_line.c ****                 line_dsc.p1.y = line_dsc.p1.y + y_ofs;
 256:../../Middlewares/LVGL/GUI/lvgl/src/widgets/line/lv_line.c ****                 line_dsc.p2.y = line_dsc.p2.y + y_ofs;
 257:../../Middlewares/LVGL/GUI/lvgl/src/widgets/line/lv_line.c ****             }
 258:../../Middlewares/LVGL/GUI/lvgl/src/widgets/line/lv_line.c ****             else {
 259:../../Middlewares/LVGL/GUI/lvgl/src/widgets/line/lv_line.c ****                 line_dsc.p1.y = h - line_dsc.p1.y + y_ofs;
 260:../../Middlewares/LVGL/GUI/lvgl/src/widgets/line/lv_line.c ****                 line_dsc.p2.y = h - line_dsc.p2.y + y_ofs;
 261:../../Middlewares/LVGL/GUI/lvgl/src/widgets/line/lv_line.c ****             }
 262:../../Middlewares/LVGL/GUI/lvgl/src/widgets/line/lv_line.c **** 
 263:../../Middlewares/LVGL/GUI/lvgl/src/widgets/line/lv_line.c ****             lv_draw_line(layer, &line_dsc);
 264:../../Middlewares/LVGL/GUI/lvgl/src/widgets/line/lv_line.c ****             line_dsc.round_start = 0;   /*Draw the rounding only on the end points after the first 
 265:../../Middlewares/LVGL/GUI/lvgl/src/widgets/line/lv_line.c ****         }
 266:../../Middlewares/LVGL/GUI/lvgl/src/widgets/line/lv_line.c ****     }
 267:../../Middlewares/LVGL/GUI/lvgl/src/widgets/line/lv_line.c **** }
 122              		.loc 1 267 1 view .LVU21
 123 0012 17B0     		add	sp, sp, #92
 124              	.LCFI2:
 125              		.cfi_remember_state
 126              		.cfi_def_cfa_offset 36
 127              		@ sp needed
 128 0014 BDE8F08F 		pop	{r4, r5, r6, r7, r8, r9, r10, fp, pc}
 129              	.LVL7:
 130              	.L23:
 131              	.LCFI3:
 132              		.cfi_restore_state
 194:../../Middlewares/LVGL/GUI/lvgl/src/widgets/line/lv_line.c ****     lv_obj_t * obj = lv_event_get_current_target(e);
 133              		.loc 1 194 5 is_stmt 1 view .LVU22
 194:../../Middlewares/LVGL/GUI/lvgl/src/widgets/line/lv_line.c ****     lv_obj_t * obj = lv_event_get_current_target(e);
ARM GAS  C:\Users\28576\AppData\Local\Temp\ccBC7uBe.s 			page 8


 134              		.loc 1 194 28 is_stmt 0 view .LVU23
 135 0018 3046     		mov	r0, r6
 136              	.LVL8:
 194:../../Middlewares/LVGL/GUI/lvgl/src/widgets/line/lv_line.c ****     lv_obj_t * obj = lv_event_get_current_target(e);
 137              		.loc 1 194 28 view .LVU24
 138 001a FFF7FEFF 		bl	lv_event_get_code
 139              	.LVL9:
 140 001e 0546     		mov	r5, r0
 141              	.LVL10:
 195:../../Middlewares/LVGL/GUI/lvgl/src/widgets/line/lv_line.c **** 
 142              		.loc 1 195 5 is_stmt 1 view .LVU25
 195:../../Middlewares/LVGL/GUI/lvgl/src/widgets/line/lv_line.c **** 
 143              		.loc 1 195 22 is_stmt 0 view .LVU26
 144 0020 3046     		mov	r0, r6
 145              	.LVL11:
 195:../../Middlewares/LVGL/GUI/lvgl/src/widgets/line/lv_line.c **** 
 146              		.loc 1 195 22 view .LVU27
 147 0022 FFF7FEFF 		bl	lv_event_get_current_target
 148              	.LVL12:
 149 0026 0446     		mov	r4, r0
 150              	.LVL13:
 197:../../Middlewares/LVGL/GUI/lvgl/src/widgets/line/lv_line.c ****         /*The corner of the skew lines is out of the intended area*/
 151              		.loc 1 197 5 is_stmt 1 view .LVU28
 197:../../Middlewares/LVGL/GUI/lvgl/src/widgets/line/lv_line.c ****         /*The corner of the skew lines is out of the intended area*/
 152              		.loc 1 197 7 is_stmt 0 view .LVU29
 153 0028 1B2D     		cmp	r5, #27
 154 002a 2CD0     		beq	.L24
 203:../../Middlewares/LVGL/GUI/lvgl/src/widgets/line/lv_line.c ****         lv_line_t * line = (lv_line_t *)obj;
 155              		.loc 1 203 10 is_stmt 1 view .LVU30
 203:../../Middlewares/LVGL/GUI/lvgl/src/widgets/line/lv_line.c ****         lv_line_t * line = (lv_line_t *)obj;
 156              		.loc 1 203 12 is_stmt 0 view .LVU31
 157 002c 342D     		cmp	r5, #52
 158 002e 38D0     		beq	.L25
 226:../../Middlewares/LVGL/GUI/lvgl/src/widgets/line/lv_line.c ****         lv_line_t * line = (lv_line_t *)obj;
 159              		.loc 1 226 10 is_stmt 1 view .LVU32
 226:../../Middlewares/LVGL/GUI/lvgl/src/widgets/line/lv_line.c ****         lv_line_t * line = (lv_line_t *)obj;
 160              		.loc 1 226 12 is_stmt 0 view .LVU33
 161 0030 1D2D     		cmp	r5, #29
 162 0032 EED1     		bne	.L6
 163              	.LBB8:
 227:../../Middlewares/LVGL/GUI/lvgl/src/widgets/line/lv_line.c ****         lv_layer_t * layer = lv_event_get_layer(e);
 164              		.loc 1 227 9 is_stmt 1 view .LVU34
 165              	.LVL14:
 228:../../Middlewares/LVGL/GUI/lvgl/src/widgets/line/lv_line.c **** 
 166              		.loc 1 228 9 view .LVU35
 228:../../Middlewares/LVGL/GUI/lvgl/src/widgets/line/lv_line.c **** 
 167              		.loc 1 228 30 is_stmt 0 view .LVU36
 168 0034 3046     		mov	r0, r6
 169              	.LVL15:
 228:../../Middlewares/LVGL/GUI/lvgl/src/widgets/line/lv_line.c **** 
 170              		.loc 1 228 30 view .LVU37
 171 0036 FFF7FEFF 		bl	lv_event_get_layer
 172              	.LVL16:
 173 003a 0646     		mov	r6, r0
 174              	.LVL17:
 228:../../Middlewares/LVGL/GUI/lvgl/src/widgets/line/lv_line.c **** 
 175              		.loc 1 228 30 view .LVU38
ARM GAS  C:\Users\28576\AppData\Local\Temp\ccBC7uBe.s 			page 9


 176 003c 8346     		mov	fp, r0
 177              	.LVL18:
 230:../../Middlewares/LVGL/GUI/lvgl/src/widgets/line/lv_line.c **** 
 178              		.loc 1 230 9 is_stmt 1 view .LVU39
 230:../../Middlewares/LVGL/GUI/lvgl/src/widgets/line/lv_line.c **** 
 179              		.loc 1 230 16 is_stmt 0 view .LVU40
 180 003e 236B     		ldr	r3, [r4, #48]
 230:../../Middlewares/LVGL/GUI/lvgl/src/widgets/line/lv_line.c **** 
 181              		.loc 1 230 11 view .LVU41
 182 0040 002B     		cmp	r3, #0
 183 0042 E6D0     		beq	.L6
 230:../../Middlewares/LVGL/GUI/lvgl/src/widgets/line/lv_line.c **** 
 184              		.loc 1 230 53 discriminator 2 view .LVU42
 185 0044 E36A     		ldr	r3, [r4, #44]
 230:../../Middlewares/LVGL/GUI/lvgl/src/widgets/line/lv_line.c **** 
 186              		.loc 1 230 33 discriminator 2 view .LVU43
 187 0046 002B     		cmp	r3, #0
 188 0048 E3D0     		beq	.L6
 232:../../Middlewares/LVGL/GUI/lvgl/src/widgets/line/lv_line.c ****         lv_obj_get_coords(obj, &area);
 189              		.loc 1 232 9 is_stmt 1 view .LVU44
 233:../../Middlewares/LVGL/GUI/lvgl/src/widgets/line/lv_line.c ****         int32_t x_ofs = area.x1 - lv_obj_get_scroll_x(obj);
 190              		.loc 1 233 9 view .LVU45
 191 004a 02A9     		add	r1, sp, #8
 192 004c 2046     		mov	r0, r4
 193              	.LVL19:
 233:../../Middlewares/LVGL/GUI/lvgl/src/widgets/line/lv_line.c ****         int32_t x_ofs = area.x1 - lv_obj_get_scroll_x(obj);
 194              		.loc 1 233 9 is_stmt 0 view .LVU46
 195 004e FFF7FEFF 		bl	lv_obj_get_coords
 196              	.LVL20:
 234:../../Middlewares/LVGL/GUI/lvgl/src/widgets/line/lv_line.c ****         int32_t y_ofs = area.y1 - lv_obj_get_scroll_y(obj);
 197              		.loc 1 234 9 is_stmt 1 view .LVU47
 234:../../Middlewares/LVGL/GUI/lvgl/src/widgets/line/lv_line.c ****         int32_t y_ofs = area.y1 - lv_obj_get_scroll_y(obj);
 198              		.loc 1 234 29 is_stmt 0 view .LVU48
 199 0052 029B     		ldr	r3, [sp, #8]
 200 0054 1D46     		mov	r5, r3
 201              	.LVL21:
 234:../../Middlewares/LVGL/GUI/lvgl/src/widgets/line/lv_line.c ****         int32_t y_ofs = area.y1 - lv_obj_get_scroll_y(obj);
 202              		.loc 1 234 35 view .LVU49
 203 0056 2046     		mov	r0, r4
 204 0058 FFF7FEFF 		bl	lv_obj_get_scroll_x
 205              	.LVL22:
 234:../../Middlewares/LVGL/GUI/lvgl/src/widgets/line/lv_line.c ****         int32_t y_ofs = area.y1 - lv_obj_get_scroll_y(obj);
 206              		.loc 1 234 17 discriminator 1 view .LVU50
 207 005c 2B1A     		subs	r3, r5, r0
 208 005e 1F46     		mov	r7, r3
 209              	.LVL23:
 235:../../Middlewares/LVGL/GUI/lvgl/src/widgets/line/lv_line.c **** 
 210              		.loc 1 235 9 is_stmt 1 view .LVU51
 235:../../Middlewares/LVGL/GUI/lvgl/src/widgets/line/lv_line.c **** 
 211              		.loc 1 235 29 is_stmt 0 view .LVU52
 212 0060 039B     		ldr	r3, [sp, #12]
 213              	.LVL24:
 235:../../Middlewares/LVGL/GUI/lvgl/src/widgets/line/lv_line.c **** 
 214              		.loc 1 235 29 view .LVU53
 215 0062 1D46     		mov	r5, r3
 235:../../Middlewares/LVGL/GUI/lvgl/src/widgets/line/lv_line.c **** 
 216              		.loc 1 235 35 view .LVU54
ARM GAS  C:\Users\28576\AppData\Local\Temp\ccBC7uBe.s 			page 10


 217 0064 2046     		mov	r0, r4
 218 0066 FFF7FEFF 		bl	lv_obj_get_scroll_y
 219              	.LVL25:
 235:../../Middlewares/LVGL/GUI/lvgl/src/widgets/line/lv_line.c **** 
 220              		.loc 1 235 17 discriminator 1 view .LVU55
 221 006a 2B1A     		subs	r3, r5, r0
 222 006c 0193     		str	r3, [sp, #4]
 223              	.LVL26:
 237:../../Middlewares/LVGL/GUI/lvgl/src/widgets/line/lv_line.c ****         lv_draw_line_dsc_init(&line_dsc);
 224              		.loc 1 237 9 is_stmt 1 view .LVU56
 238:../../Middlewares/LVGL/GUI/lvgl/src/widgets/line/lv_line.c ****         line_dsc.base.layer = layer;
 225              		.loc 1 238 9 view .LVU57
 226 006e 06A8     		add	r0, sp, #24
 227 0070 FFF7FEFF 		bl	lv_draw_line_dsc_init
 228              	.LVL27:
 239:../../Middlewares/LVGL/GUI/lvgl/src/widgets/line/lv_line.c ****         lv_obj_init_draw_line_dsc(obj, LV_PART_MAIN, &line_dsc);
 229              		.loc 1 239 9 view .LVU58
 239:../../Middlewares/LVGL/GUI/lvgl/src/widgets/line/lv_line.c ****         lv_obj_init_draw_line_dsc(obj, LV_PART_MAIN, &line_dsc);
 230              		.loc 1 239 29 is_stmt 0 view .LVU59
 231 0074 0A96     		str	r6, [sp, #40]
 240:../../Middlewares/LVGL/GUI/lvgl/src/widgets/line/lv_line.c **** 
 232              		.loc 1 240 9 is_stmt 1 view .LVU60
 233 0076 06AA     		add	r2, sp, #24
 234 0078 0021     		movs	r1, #0
 235 007a 2046     		mov	r0, r4
 236 007c FFF7FEFF 		bl	lv_obj_init_draw_line_dsc
 237              	.LVL28:
 243:../../Middlewares/LVGL/GUI/lvgl/src/widgets/line/lv_line.c ****         for(i = 0; i < line->point_num - 1; i++) {
 238              		.loc 1 243 9 view .LVU61
 244:../../Middlewares/LVGL/GUI/lvgl/src/widgets/line/lv_line.c ****             int32_t w = lv_obj_get_width(obj);
 239              		.loc 1 244 9 view .LVU62
 244:../../Middlewares/LVGL/GUI/lvgl/src/widgets/line/lv_line.c ****             int32_t w = lv_obj_get_width(obj);
 240              		.loc 1 244 15 is_stmt 0 view .LVU63
 241 0080 0023     		movs	r3, #0
 242 0082 9A46     		mov	r10, r3
 244:../../Middlewares/LVGL/GUI/lvgl/src/widgets/line/lv_line.c ****             int32_t w = lv_obj_get_width(obj);
 243              		.loc 1 244 9 view .LVU64
 244 0084 5AE0     		b	.L18
 245              	.LVL29:
 246              	.L24:
 244:../../Middlewares/LVGL/GUI/lvgl/src/widgets/line/lv_line.c ****             int32_t w = lv_obj_get_width(obj);
 247              		.loc 1 244 9 view .LVU65
 248              	.LBE8:
 249              	.LBB11:
 199:../../Middlewares/LVGL/GUI/lvgl/src/widgets/line/lv_line.c ****         int32_t * s = lv_event_get_param(e);
 250              		.loc 1 199 9 is_stmt 1 view .LVU66
 251              	.LBB12:
 252              	.LBI12:
 253              		.file 2 "H:/STM32H7/RGB_LVGL/Middlewares/LVGL/GUI/lvgl/src/core/lv_obj_style_gen.h"
   1:H:/STM32H7/RGB_LVGL/Middlewares/LVGL/GUI/lvgl/src/core\lv_obj_style_gen.h **** 
   2:H:/STM32H7/RGB_LVGL/Middlewares/LVGL/GUI/lvgl/src/core\lv_obj_style_gen.h **** /*
   3:H:/STM32H7/RGB_LVGL/Middlewares/LVGL/GUI/lvgl/src/core\lv_obj_style_gen.h ****  **********************************************************************
   4:H:/STM32H7/RGB_LVGL/Middlewares/LVGL/GUI/lvgl/src/core\lv_obj_style_gen.h ****  *                            DO NOT EDIT
   5:H:/STM32H7/RGB_LVGL/Middlewares/LVGL/GUI/lvgl/src/core\lv_obj_style_gen.h ****  * This file is automatically generated by "style_api_gen.py"
   6:H:/STM32H7/RGB_LVGL/Middlewares/LVGL/GUI/lvgl/src/core\lv_obj_style_gen.h ****  **********************************************************************
   7:H:/STM32H7/RGB_LVGL/Middlewares/LVGL/GUI/lvgl/src/core\lv_obj_style_gen.h ****  */
   8:H:/STM32H7/RGB_LVGL/Middlewares/LVGL/GUI/lvgl/src/core\lv_obj_style_gen.h **** 
ARM GAS  C:\Users\28576\AppData\Local\Temp\ccBC7uBe.s 			page 11


   9:H:/STM32H7/RGB_LVGL/Middlewares/LVGL/GUI/lvgl/src/core\lv_obj_style_gen.h **** 
  10:H:/STM32H7/RGB_LVGL/Middlewares/LVGL/GUI/lvgl/src/core\lv_obj_style_gen.h **** #ifndef LV_OBJ_STYLE_GEN_H
  11:H:/STM32H7/RGB_LVGL/Middlewares/LVGL/GUI/lvgl/src/core\lv_obj_style_gen.h **** #define LV_OBJ_STYLE_GEN_H
  12:H:/STM32H7/RGB_LVGL/Middlewares/LVGL/GUI/lvgl/src/core\lv_obj_style_gen.h **** 
  13:H:/STM32H7/RGB_LVGL/Middlewares/LVGL/GUI/lvgl/src/core\lv_obj_style_gen.h **** #ifdef __cplusplus
  14:H:/STM32H7/RGB_LVGL/Middlewares/LVGL/GUI/lvgl/src/core\lv_obj_style_gen.h **** extern "C" {
  15:H:/STM32H7/RGB_LVGL/Middlewares/LVGL/GUI/lvgl/src/core\lv_obj_style_gen.h **** #endif
  16:H:/STM32H7/RGB_LVGL/Middlewares/LVGL/GUI/lvgl/src/core\lv_obj_style_gen.h **** 
  17:H:/STM32H7/RGB_LVGL/Middlewares/LVGL/GUI/lvgl/src/core\lv_obj_style_gen.h **** #include "../misc/lv_area.h"
  18:H:/STM32H7/RGB_LVGL/Middlewares/LVGL/GUI/lvgl/src/core\lv_obj_style_gen.h **** #include "../misc/lv_style.h"
  19:H:/STM32H7/RGB_LVGL/Middlewares/LVGL/GUI/lvgl/src/core\lv_obj_style_gen.h **** #include "../core/lv_obj_style.h"
  20:H:/STM32H7/RGB_LVGL/Middlewares/LVGL/GUI/lvgl/src/core\lv_obj_style_gen.h **** #include "../misc/lv_types.h"
  21:H:/STM32H7/RGB_LVGL/Middlewares/LVGL/GUI/lvgl/src/core\lv_obj_style_gen.h **** 
  22:H:/STM32H7/RGB_LVGL/Middlewares/LVGL/GUI/lvgl/src/core\lv_obj_style_gen.h **** static inline int32_t lv_obj_get_style_width(const lv_obj_t * obj, lv_part_t part)
  23:H:/STM32H7/RGB_LVGL/Middlewares/LVGL/GUI/lvgl/src/core\lv_obj_style_gen.h **** {
  24:H:/STM32H7/RGB_LVGL/Middlewares/LVGL/GUI/lvgl/src/core\lv_obj_style_gen.h ****     lv_style_value_t v = lv_obj_get_style_prop(obj, part, LV_STYLE_WIDTH);
  25:H:/STM32H7/RGB_LVGL/Middlewares/LVGL/GUI/lvgl/src/core\lv_obj_style_gen.h ****     return (int32_t)v.num;
  26:H:/STM32H7/RGB_LVGL/Middlewares/LVGL/GUI/lvgl/src/core\lv_obj_style_gen.h **** }
  27:H:/STM32H7/RGB_LVGL/Middlewares/LVGL/GUI/lvgl/src/core\lv_obj_style_gen.h **** 
  28:H:/STM32H7/RGB_LVGL/Middlewares/LVGL/GUI/lvgl/src/core\lv_obj_style_gen.h **** static inline int32_t lv_obj_get_style_min_width(const lv_obj_t * obj, lv_part_t part)
  29:H:/STM32H7/RGB_LVGL/Middlewares/LVGL/GUI/lvgl/src/core\lv_obj_style_gen.h **** {
  30:H:/STM32H7/RGB_LVGL/Middlewares/LVGL/GUI/lvgl/src/core\lv_obj_style_gen.h ****     lv_style_value_t v = lv_obj_get_style_prop(obj, part, LV_STYLE_MIN_WIDTH);
  31:H:/STM32H7/RGB_LVGL/Middlewares/LVGL/GUI/lvgl/src/core\lv_obj_style_gen.h ****     return (int32_t)v.num;
  32:H:/STM32H7/RGB_LVGL/Middlewares/LVGL/GUI/lvgl/src/core\lv_obj_style_gen.h **** }
  33:H:/STM32H7/RGB_LVGL/Middlewares/LVGL/GUI/lvgl/src/core\lv_obj_style_gen.h **** 
  34:H:/STM32H7/RGB_LVGL/Middlewares/LVGL/GUI/lvgl/src/core\lv_obj_style_gen.h **** static inline int32_t lv_obj_get_style_max_width(const lv_obj_t * obj, lv_part_t part)
  35:H:/STM32H7/RGB_LVGL/Middlewares/LVGL/GUI/lvgl/src/core\lv_obj_style_gen.h **** {
  36:H:/STM32H7/RGB_LVGL/Middlewares/LVGL/GUI/lvgl/src/core\lv_obj_style_gen.h ****     lv_style_value_t v = lv_obj_get_style_prop(obj, part, LV_STYLE_MAX_WIDTH);
  37:H:/STM32H7/RGB_LVGL/Middlewares/LVGL/GUI/lvgl/src/core\lv_obj_style_gen.h ****     return (int32_t)v.num;
  38:H:/STM32H7/RGB_LVGL/Middlewares/LVGL/GUI/lvgl/src/core\lv_obj_style_gen.h **** }
  39:H:/STM32H7/RGB_LVGL/Middlewares/LVGL/GUI/lvgl/src/core\lv_obj_style_gen.h **** 
  40:H:/STM32H7/RGB_LVGL/Middlewares/LVGL/GUI/lvgl/src/core\lv_obj_style_gen.h **** static inline int32_t lv_obj_get_style_height(const lv_obj_t * obj, lv_part_t part)
  41:H:/STM32H7/RGB_LVGL/Middlewares/LVGL/GUI/lvgl/src/core\lv_obj_style_gen.h **** {
  42:H:/STM32H7/RGB_LVGL/Middlewares/LVGL/GUI/lvgl/src/core\lv_obj_style_gen.h ****     lv_style_value_t v = lv_obj_get_style_prop(obj, part, LV_STYLE_HEIGHT);
  43:H:/STM32H7/RGB_LVGL/Middlewares/LVGL/GUI/lvgl/src/core\lv_obj_style_gen.h ****     return (int32_t)v.num;
  44:H:/STM32H7/RGB_LVGL/Middlewares/LVGL/GUI/lvgl/src/core\lv_obj_style_gen.h **** }
  45:H:/STM32H7/RGB_LVGL/Middlewares/LVGL/GUI/lvgl/src/core\lv_obj_style_gen.h **** 
  46:H:/STM32H7/RGB_LVGL/Middlewares/LVGL/GUI/lvgl/src/core\lv_obj_style_gen.h **** static inline int32_t lv_obj_get_style_min_height(const lv_obj_t * obj, lv_part_t part)
  47:H:/STM32H7/RGB_LVGL/Middlewares/LVGL/GUI/lvgl/src/core\lv_obj_style_gen.h **** {
  48:H:/STM32H7/RGB_LVGL/Middlewares/LVGL/GUI/lvgl/src/core\lv_obj_style_gen.h ****     lv_style_value_t v = lv_obj_get_style_prop(obj, part, LV_STYLE_MIN_HEIGHT);
  49:H:/STM32H7/RGB_LVGL/Middlewares/LVGL/GUI/lvgl/src/core\lv_obj_style_gen.h ****     return (int32_t)v.num;
  50:H:/STM32H7/RGB_LVGL/Middlewares/LVGL/GUI/lvgl/src/core\lv_obj_style_gen.h **** }
  51:H:/STM32H7/RGB_LVGL/Middlewares/LVGL/GUI/lvgl/src/core\lv_obj_style_gen.h **** 
  52:H:/STM32H7/RGB_LVGL/Middlewares/LVGL/GUI/lvgl/src/core\lv_obj_style_gen.h **** static inline int32_t lv_obj_get_style_max_height(const lv_obj_t * obj, lv_part_t part)
  53:H:/STM32H7/RGB_LVGL/Middlewares/LVGL/GUI/lvgl/src/core\lv_obj_style_gen.h **** {
  54:H:/STM32H7/RGB_LVGL/Middlewares/LVGL/GUI/lvgl/src/core\lv_obj_style_gen.h ****     lv_style_value_t v = lv_obj_get_style_prop(obj, part, LV_STYLE_MAX_HEIGHT);
  55:H:/STM32H7/RGB_LVGL/Middlewares/LVGL/GUI/lvgl/src/core\lv_obj_style_gen.h ****     return (int32_t)v.num;
  56:H:/STM32H7/RGB_LVGL/Middlewares/LVGL/GUI/lvgl/src/core\lv_obj_style_gen.h **** }
  57:H:/STM32H7/RGB_LVGL/Middlewares/LVGL/GUI/lvgl/src/core\lv_obj_style_gen.h **** 
  58:H:/STM32H7/RGB_LVGL/Middlewares/LVGL/GUI/lvgl/src/core\lv_obj_style_gen.h **** static inline int32_t lv_obj_get_style_length(const lv_obj_t * obj, lv_part_t part)
  59:H:/STM32H7/RGB_LVGL/Middlewares/LVGL/GUI/lvgl/src/core\lv_obj_style_gen.h **** {
  60:H:/STM32H7/RGB_LVGL/Middlewares/LVGL/GUI/lvgl/src/core\lv_obj_style_gen.h ****     lv_style_value_t v = lv_obj_get_style_prop(obj, part, LV_STYLE_LENGTH);
  61:H:/STM32H7/RGB_LVGL/Middlewares/LVGL/GUI/lvgl/src/core\lv_obj_style_gen.h ****     return (int32_t)v.num;
  62:H:/STM32H7/RGB_LVGL/Middlewares/LVGL/GUI/lvgl/src/core\lv_obj_style_gen.h **** }
  63:H:/STM32H7/RGB_LVGL/Middlewares/LVGL/GUI/lvgl/src/core\lv_obj_style_gen.h **** 
  64:H:/STM32H7/RGB_LVGL/Middlewares/LVGL/GUI/lvgl/src/core\lv_obj_style_gen.h **** static inline int32_t lv_obj_get_style_x(const lv_obj_t * obj, lv_part_t part)
  65:H:/STM32H7/RGB_LVGL/Middlewares/LVGL/GUI/lvgl/src/core\lv_obj_style_gen.h **** {
ARM GAS  C:\Users\28576\AppData\Local\Temp\ccBC7uBe.s 			page 12


  66:H:/STM32H7/RGB_LVGL/Middlewares/LVGL/GUI/lvgl/src/core\lv_obj_style_gen.h ****     lv_style_value_t v = lv_obj_get_style_prop(obj, part, LV_STYLE_X);
  67:H:/STM32H7/RGB_LVGL/Middlewares/LVGL/GUI/lvgl/src/core\lv_obj_style_gen.h ****     return (int32_t)v.num;
  68:H:/STM32H7/RGB_LVGL/Middlewares/LVGL/GUI/lvgl/src/core\lv_obj_style_gen.h **** }
  69:H:/STM32H7/RGB_LVGL/Middlewares/LVGL/GUI/lvgl/src/core\lv_obj_style_gen.h **** 
  70:H:/STM32H7/RGB_LVGL/Middlewares/LVGL/GUI/lvgl/src/core\lv_obj_style_gen.h **** static inline int32_t lv_obj_get_style_y(const lv_obj_t * obj, lv_part_t part)
  71:H:/STM32H7/RGB_LVGL/Middlewares/LVGL/GUI/lvgl/src/core\lv_obj_style_gen.h **** {
  72:H:/STM32H7/RGB_LVGL/Middlewares/LVGL/GUI/lvgl/src/core\lv_obj_style_gen.h ****     lv_style_value_t v = lv_obj_get_style_prop(obj, part, LV_STYLE_Y);
  73:H:/STM32H7/RGB_LVGL/Middlewares/LVGL/GUI/lvgl/src/core\lv_obj_style_gen.h ****     return (int32_t)v.num;
  74:H:/STM32H7/RGB_LVGL/Middlewares/LVGL/GUI/lvgl/src/core\lv_obj_style_gen.h **** }
  75:H:/STM32H7/RGB_LVGL/Middlewares/LVGL/GUI/lvgl/src/core\lv_obj_style_gen.h **** 
  76:H:/STM32H7/RGB_LVGL/Middlewares/LVGL/GUI/lvgl/src/core\lv_obj_style_gen.h **** static inline lv_align_t lv_obj_get_style_align(const lv_obj_t * obj, lv_part_t part)
  77:H:/STM32H7/RGB_LVGL/Middlewares/LVGL/GUI/lvgl/src/core\lv_obj_style_gen.h **** {
  78:H:/STM32H7/RGB_LVGL/Middlewares/LVGL/GUI/lvgl/src/core\lv_obj_style_gen.h ****     lv_style_value_t v = lv_obj_get_style_prop(obj, part, LV_STYLE_ALIGN);
  79:H:/STM32H7/RGB_LVGL/Middlewares/LVGL/GUI/lvgl/src/core\lv_obj_style_gen.h ****     return (lv_align_t)v.num;
  80:H:/STM32H7/RGB_LVGL/Middlewares/LVGL/GUI/lvgl/src/core\lv_obj_style_gen.h **** }
  81:H:/STM32H7/RGB_LVGL/Middlewares/LVGL/GUI/lvgl/src/core\lv_obj_style_gen.h **** 
  82:H:/STM32H7/RGB_LVGL/Middlewares/LVGL/GUI/lvgl/src/core\lv_obj_style_gen.h **** static inline int32_t lv_obj_get_style_transform_width(const lv_obj_t * obj, lv_part_t part)
  83:H:/STM32H7/RGB_LVGL/Middlewares/LVGL/GUI/lvgl/src/core\lv_obj_style_gen.h **** {
  84:H:/STM32H7/RGB_LVGL/Middlewares/LVGL/GUI/lvgl/src/core\lv_obj_style_gen.h ****     lv_style_value_t v = lv_obj_get_style_prop(obj, part, LV_STYLE_TRANSFORM_WIDTH);
  85:H:/STM32H7/RGB_LVGL/Middlewares/LVGL/GUI/lvgl/src/core\lv_obj_style_gen.h ****     return (int32_t)v.num;
  86:H:/STM32H7/RGB_LVGL/Middlewares/LVGL/GUI/lvgl/src/core\lv_obj_style_gen.h **** }
  87:H:/STM32H7/RGB_LVGL/Middlewares/LVGL/GUI/lvgl/src/core\lv_obj_style_gen.h **** 
  88:H:/STM32H7/RGB_LVGL/Middlewares/LVGL/GUI/lvgl/src/core\lv_obj_style_gen.h **** static inline int32_t lv_obj_get_style_transform_height(const lv_obj_t * obj, lv_part_t part)
  89:H:/STM32H7/RGB_LVGL/Middlewares/LVGL/GUI/lvgl/src/core\lv_obj_style_gen.h **** {
  90:H:/STM32H7/RGB_LVGL/Middlewares/LVGL/GUI/lvgl/src/core\lv_obj_style_gen.h ****     lv_style_value_t v = lv_obj_get_style_prop(obj, part, LV_STYLE_TRANSFORM_HEIGHT);
  91:H:/STM32H7/RGB_LVGL/Middlewares/LVGL/GUI/lvgl/src/core\lv_obj_style_gen.h ****     return (int32_t)v.num;
  92:H:/STM32H7/RGB_LVGL/Middlewares/LVGL/GUI/lvgl/src/core\lv_obj_style_gen.h **** }
  93:H:/STM32H7/RGB_LVGL/Middlewares/LVGL/GUI/lvgl/src/core\lv_obj_style_gen.h **** 
  94:H:/STM32H7/RGB_LVGL/Middlewares/LVGL/GUI/lvgl/src/core\lv_obj_style_gen.h **** static inline int32_t lv_obj_get_style_translate_x(const lv_obj_t * obj, lv_part_t part)
  95:H:/STM32H7/RGB_LVGL/Middlewares/LVGL/GUI/lvgl/src/core\lv_obj_style_gen.h **** {
  96:H:/STM32H7/RGB_LVGL/Middlewares/LVGL/GUI/lvgl/src/core\lv_obj_style_gen.h ****     lv_style_value_t v = lv_obj_get_style_prop(obj, part, LV_STYLE_TRANSLATE_X);
  97:H:/STM32H7/RGB_LVGL/Middlewares/LVGL/GUI/lvgl/src/core\lv_obj_style_gen.h ****     return (int32_t)v.num;
  98:H:/STM32H7/RGB_LVGL/Middlewares/LVGL/GUI/lvgl/src/core\lv_obj_style_gen.h **** }
  99:H:/STM32H7/RGB_LVGL/Middlewares/LVGL/GUI/lvgl/src/core\lv_obj_style_gen.h **** 
 100:H:/STM32H7/RGB_LVGL/Middlewares/LVGL/GUI/lvgl/src/core\lv_obj_style_gen.h **** static inline int32_t lv_obj_get_style_translate_y(const lv_obj_t * obj, lv_part_t part)
 101:H:/STM32H7/RGB_LVGL/Middlewares/LVGL/GUI/lvgl/src/core\lv_obj_style_gen.h **** {
 102:H:/STM32H7/RGB_LVGL/Middlewares/LVGL/GUI/lvgl/src/core\lv_obj_style_gen.h ****     lv_style_value_t v = lv_obj_get_style_prop(obj, part, LV_STYLE_TRANSLATE_Y);
 103:H:/STM32H7/RGB_LVGL/Middlewares/LVGL/GUI/lvgl/src/core\lv_obj_style_gen.h ****     return (int32_t)v.num;
 104:H:/STM32H7/RGB_LVGL/Middlewares/LVGL/GUI/lvgl/src/core\lv_obj_style_gen.h **** }
 105:H:/STM32H7/RGB_LVGL/Middlewares/LVGL/GUI/lvgl/src/core\lv_obj_style_gen.h **** 
 106:H:/STM32H7/RGB_LVGL/Middlewares/LVGL/GUI/lvgl/src/core\lv_obj_style_gen.h **** static inline int32_t lv_obj_get_style_translate_radial(const lv_obj_t * obj, lv_part_t part)
 107:H:/STM32H7/RGB_LVGL/Middlewares/LVGL/GUI/lvgl/src/core\lv_obj_style_gen.h **** {
 108:H:/STM32H7/RGB_LVGL/Middlewares/LVGL/GUI/lvgl/src/core\lv_obj_style_gen.h ****     lv_style_value_t v = lv_obj_get_style_prop(obj, part, LV_STYLE_TRANSLATE_RADIAL);
 109:H:/STM32H7/RGB_LVGL/Middlewares/LVGL/GUI/lvgl/src/core\lv_obj_style_gen.h ****     return (int32_t)v.num;
 110:H:/STM32H7/RGB_LVGL/Middlewares/LVGL/GUI/lvgl/src/core\lv_obj_style_gen.h **** }
 111:H:/STM32H7/RGB_LVGL/Middlewares/LVGL/GUI/lvgl/src/core\lv_obj_style_gen.h **** 
 112:H:/STM32H7/RGB_LVGL/Middlewares/LVGL/GUI/lvgl/src/core\lv_obj_style_gen.h **** static inline int32_t lv_obj_get_style_transform_scale_x(const lv_obj_t * obj, lv_part_t part)
 113:H:/STM32H7/RGB_LVGL/Middlewares/LVGL/GUI/lvgl/src/core\lv_obj_style_gen.h **** {
 114:H:/STM32H7/RGB_LVGL/Middlewares/LVGL/GUI/lvgl/src/core\lv_obj_style_gen.h ****     lv_style_value_t v = lv_obj_get_style_prop(obj, part, LV_STYLE_TRANSFORM_SCALE_X);
 115:H:/STM32H7/RGB_LVGL/Middlewares/LVGL/GUI/lvgl/src/core\lv_obj_style_gen.h ****     return (int32_t)v.num;
 116:H:/STM32H7/RGB_LVGL/Middlewares/LVGL/GUI/lvgl/src/core\lv_obj_style_gen.h **** }
 117:H:/STM32H7/RGB_LVGL/Middlewares/LVGL/GUI/lvgl/src/core\lv_obj_style_gen.h **** 
 118:H:/STM32H7/RGB_LVGL/Middlewares/LVGL/GUI/lvgl/src/core\lv_obj_style_gen.h **** static inline int32_t lv_obj_get_style_transform_scale_y(const lv_obj_t * obj, lv_part_t part)
 119:H:/STM32H7/RGB_LVGL/Middlewares/LVGL/GUI/lvgl/src/core\lv_obj_style_gen.h **** {
 120:H:/STM32H7/RGB_LVGL/Middlewares/LVGL/GUI/lvgl/src/core\lv_obj_style_gen.h ****     lv_style_value_t v = lv_obj_get_style_prop(obj, part, LV_STYLE_TRANSFORM_SCALE_Y);
 121:H:/STM32H7/RGB_LVGL/Middlewares/LVGL/GUI/lvgl/src/core\lv_obj_style_gen.h ****     return (int32_t)v.num;
 122:H:/STM32H7/RGB_LVGL/Middlewares/LVGL/GUI/lvgl/src/core\lv_obj_style_gen.h **** }
ARM GAS  C:\Users\28576\AppData\Local\Temp\ccBC7uBe.s 			page 13


 123:H:/STM32H7/RGB_LVGL/Middlewares/LVGL/GUI/lvgl/src/core\lv_obj_style_gen.h **** 
 124:H:/STM32H7/RGB_LVGL/Middlewares/LVGL/GUI/lvgl/src/core\lv_obj_style_gen.h **** static inline int32_t lv_obj_get_style_transform_rotation(const lv_obj_t * obj, lv_part_t part)
 125:H:/STM32H7/RGB_LVGL/Middlewares/LVGL/GUI/lvgl/src/core\lv_obj_style_gen.h **** {
 126:H:/STM32H7/RGB_LVGL/Middlewares/LVGL/GUI/lvgl/src/core\lv_obj_style_gen.h ****     lv_style_value_t v = lv_obj_get_style_prop(obj, part, LV_STYLE_TRANSFORM_ROTATION);
 127:H:/STM32H7/RGB_LVGL/Middlewares/LVGL/GUI/lvgl/src/core\lv_obj_style_gen.h ****     return (int32_t)v.num;
 128:H:/STM32H7/RGB_LVGL/Middlewares/LVGL/GUI/lvgl/src/core\lv_obj_style_gen.h **** }
 129:H:/STM32H7/RGB_LVGL/Middlewares/LVGL/GUI/lvgl/src/core\lv_obj_style_gen.h **** 
 130:H:/STM32H7/RGB_LVGL/Middlewares/LVGL/GUI/lvgl/src/core\lv_obj_style_gen.h **** static inline int32_t lv_obj_get_style_transform_pivot_x(const lv_obj_t * obj, lv_part_t part)
 131:H:/STM32H7/RGB_LVGL/Middlewares/LVGL/GUI/lvgl/src/core\lv_obj_style_gen.h **** {
 132:H:/STM32H7/RGB_LVGL/Middlewares/LVGL/GUI/lvgl/src/core\lv_obj_style_gen.h ****     lv_style_value_t v = lv_obj_get_style_prop(obj, part, LV_STYLE_TRANSFORM_PIVOT_X);
 133:H:/STM32H7/RGB_LVGL/Middlewares/LVGL/GUI/lvgl/src/core\lv_obj_style_gen.h ****     return (int32_t)v.num;
 134:H:/STM32H7/RGB_LVGL/Middlewares/LVGL/GUI/lvgl/src/core\lv_obj_style_gen.h **** }
 135:H:/STM32H7/RGB_LVGL/Middlewares/LVGL/GUI/lvgl/src/core\lv_obj_style_gen.h **** 
 136:H:/STM32H7/RGB_LVGL/Middlewares/LVGL/GUI/lvgl/src/core\lv_obj_style_gen.h **** static inline int32_t lv_obj_get_style_transform_pivot_y(const lv_obj_t * obj, lv_part_t part)
 137:H:/STM32H7/RGB_LVGL/Middlewares/LVGL/GUI/lvgl/src/core\lv_obj_style_gen.h **** {
 138:H:/STM32H7/RGB_LVGL/Middlewares/LVGL/GUI/lvgl/src/core\lv_obj_style_gen.h ****     lv_style_value_t v = lv_obj_get_style_prop(obj, part, LV_STYLE_TRANSFORM_PIVOT_Y);
 139:H:/STM32H7/RGB_LVGL/Middlewares/LVGL/GUI/lvgl/src/core\lv_obj_style_gen.h ****     return (int32_t)v.num;
 140:H:/STM32H7/RGB_LVGL/Middlewares/LVGL/GUI/lvgl/src/core\lv_obj_style_gen.h **** }
 141:H:/STM32H7/RGB_LVGL/Middlewares/LVGL/GUI/lvgl/src/core\lv_obj_style_gen.h **** 
 142:H:/STM32H7/RGB_LVGL/Middlewares/LVGL/GUI/lvgl/src/core\lv_obj_style_gen.h **** static inline int32_t lv_obj_get_style_transform_skew_x(const lv_obj_t * obj, lv_part_t part)
 143:H:/STM32H7/RGB_LVGL/Middlewares/LVGL/GUI/lvgl/src/core\lv_obj_style_gen.h **** {
 144:H:/STM32H7/RGB_LVGL/Middlewares/LVGL/GUI/lvgl/src/core\lv_obj_style_gen.h ****     lv_style_value_t v = lv_obj_get_style_prop(obj, part, LV_STYLE_TRANSFORM_SKEW_X);
 145:H:/STM32H7/RGB_LVGL/Middlewares/LVGL/GUI/lvgl/src/core\lv_obj_style_gen.h ****     return (int32_t)v.num;
 146:H:/STM32H7/RGB_LVGL/Middlewares/LVGL/GUI/lvgl/src/core\lv_obj_style_gen.h **** }
 147:H:/STM32H7/RGB_LVGL/Middlewares/LVGL/GUI/lvgl/src/core\lv_obj_style_gen.h **** 
 148:H:/STM32H7/RGB_LVGL/Middlewares/LVGL/GUI/lvgl/src/core\lv_obj_style_gen.h **** static inline int32_t lv_obj_get_style_transform_skew_y(const lv_obj_t * obj, lv_part_t part)
 149:H:/STM32H7/RGB_LVGL/Middlewares/LVGL/GUI/lvgl/src/core\lv_obj_style_gen.h **** {
 150:H:/STM32H7/RGB_LVGL/Middlewares/LVGL/GUI/lvgl/src/core\lv_obj_style_gen.h ****     lv_style_value_t v = lv_obj_get_style_prop(obj, part, LV_STYLE_TRANSFORM_SKEW_Y);
 151:H:/STM32H7/RGB_LVGL/Middlewares/LVGL/GUI/lvgl/src/core\lv_obj_style_gen.h ****     return (int32_t)v.num;
 152:H:/STM32H7/RGB_LVGL/Middlewares/LVGL/GUI/lvgl/src/core\lv_obj_style_gen.h **** }
 153:H:/STM32H7/RGB_LVGL/Middlewares/LVGL/GUI/lvgl/src/core\lv_obj_style_gen.h **** 
 154:H:/STM32H7/RGB_LVGL/Middlewares/LVGL/GUI/lvgl/src/core\lv_obj_style_gen.h **** static inline int32_t lv_obj_get_style_pad_top(const lv_obj_t * obj, lv_part_t part)
 155:H:/STM32H7/RGB_LVGL/Middlewares/LVGL/GUI/lvgl/src/core\lv_obj_style_gen.h **** {
 156:H:/STM32H7/RGB_LVGL/Middlewares/LVGL/GUI/lvgl/src/core\lv_obj_style_gen.h ****     lv_style_value_t v = lv_obj_get_style_prop(obj, part, LV_STYLE_PAD_TOP);
 157:H:/STM32H7/RGB_LVGL/Middlewares/LVGL/GUI/lvgl/src/core\lv_obj_style_gen.h ****     return (int32_t)v.num;
 158:H:/STM32H7/RGB_LVGL/Middlewares/LVGL/GUI/lvgl/src/core\lv_obj_style_gen.h **** }
 159:H:/STM32H7/RGB_LVGL/Middlewares/LVGL/GUI/lvgl/src/core\lv_obj_style_gen.h **** 
 160:H:/STM32H7/RGB_LVGL/Middlewares/LVGL/GUI/lvgl/src/core\lv_obj_style_gen.h **** static inline int32_t lv_obj_get_style_pad_bottom(const lv_obj_t * obj, lv_part_t part)
 161:H:/STM32H7/RGB_LVGL/Middlewares/LVGL/GUI/lvgl/src/core\lv_obj_style_gen.h **** {
 162:H:/STM32H7/RGB_LVGL/Middlewares/LVGL/GUI/lvgl/src/core\lv_obj_style_gen.h ****     lv_style_value_t v = lv_obj_get_style_prop(obj, part, LV_STYLE_PAD_BOTTOM);
 163:H:/STM32H7/RGB_LVGL/Middlewares/LVGL/GUI/lvgl/src/core\lv_obj_style_gen.h ****     return (int32_t)v.num;
 164:H:/STM32H7/RGB_LVGL/Middlewares/LVGL/GUI/lvgl/src/core\lv_obj_style_gen.h **** }
 165:H:/STM32H7/RGB_LVGL/Middlewares/LVGL/GUI/lvgl/src/core\lv_obj_style_gen.h **** 
 166:H:/STM32H7/RGB_LVGL/Middlewares/LVGL/GUI/lvgl/src/core\lv_obj_style_gen.h **** static inline int32_t lv_obj_get_style_pad_left(const lv_obj_t * obj, lv_part_t part)
 167:H:/STM32H7/RGB_LVGL/Middlewares/LVGL/GUI/lvgl/src/core\lv_obj_style_gen.h **** {
 168:H:/STM32H7/RGB_LVGL/Middlewares/LVGL/GUI/lvgl/src/core\lv_obj_style_gen.h ****     lv_style_value_t v = lv_obj_get_style_prop(obj, part, LV_STYLE_PAD_LEFT);
 169:H:/STM32H7/RGB_LVGL/Middlewares/LVGL/GUI/lvgl/src/core\lv_obj_style_gen.h ****     return (int32_t)v.num;
 170:H:/STM32H7/RGB_LVGL/Middlewares/LVGL/GUI/lvgl/src/core\lv_obj_style_gen.h **** }
 171:H:/STM32H7/RGB_LVGL/Middlewares/LVGL/GUI/lvgl/src/core\lv_obj_style_gen.h **** 
 172:H:/STM32H7/RGB_LVGL/Middlewares/LVGL/GUI/lvgl/src/core\lv_obj_style_gen.h **** static inline int32_t lv_obj_get_style_pad_right(const lv_obj_t * obj, lv_part_t part)
 173:H:/STM32H7/RGB_LVGL/Middlewares/LVGL/GUI/lvgl/src/core\lv_obj_style_gen.h **** {
 174:H:/STM32H7/RGB_LVGL/Middlewares/LVGL/GUI/lvgl/src/core\lv_obj_style_gen.h ****     lv_style_value_t v = lv_obj_get_style_prop(obj, part, LV_STYLE_PAD_RIGHT);
 175:H:/STM32H7/RGB_LVGL/Middlewares/LVGL/GUI/lvgl/src/core\lv_obj_style_gen.h ****     return (int32_t)v.num;
 176:H:/STM32H7/RGB_LVGL/Middlewares/LVGL/GUI/lvgl/src/core\lv_obj_style_gen.h **** }
 177:H:/STM32H7/RGB_LVGL/Middlewares/LVGL/GUI/lvgl/src/core\lv_obj_style_gen.h **** 
 178:H:/STM32H7/RGB_LVGL/Middlewares/LVGL/GUI/lvgl/src/core\lv_obj_style_gen.h **** static inline int32_t lv_obj_get_style_pad_row(const lv_obj_t * obj, lv_part_t part)
 179:H:/STM32H7/RGB_LVGL/Middlewares/LVGL/GUI/lvgl/src/core\lv_obj_style_gen.h **** {
ARM GAS  C:\Users\28576\AppData\Local\Temp\ccBC7uBe.s 			page 14


 180:H:/STM32H7/RGB_LVGL/Middlewares/LVGL/GUI/lvgl/src/core\lv_obj_style_gen.h ****     lv_style_value_t v = lv_obj_get_style_prop(obj, part, LV_STYLE_PAD_ROW);
 181:H:/STM32H7/RGB_LVGL/Middlewares/LVGL/GUI/lvgl/src/core\lv_obj_style_gen.h ****     return (int32_t)v.num;
 182:H:/STM32H7/RGB_LVGL/Middlewares/LVGL/GUI/lvgl/src/core\lv_obj_style_gen.h **** }
 183:H:/STM32H7/RGB_LVGL/Middlewares/LVGL/GUI/lvgl/src/core\lv_obj_style_gen.h **** 
 184:H:/STM32H7/RGB_LVGL/Middlewares/LVGL/GUI/lvgl/src/core\lv_obj_style_gen.h **** static inline int32_t lv_obj_get_style_pad_column(const lv_obj_t * obj, lv_part_t part)
 185:H:/STM32H7/RGB_LVGL/Middlewares/LVGL/GUI/lvgl/src/core\lv_obj_style_gen.h **** {
 186:H:/STM32H7/RGB_LVGL/Middlewares/LVGL/GUI/lvgl/src/core\lv_obj_style_gen.h ****     lv_style_value_t v = lv_obj_get_style_prop(obj, part, LV_STYLE_PAD_COLUMN);
 187:H:/STM32H7/RGB_LVGL/Middlewares/LVGL/GUI/lvgl/src/core\lv_obj_style_gen.h ****     return (int32_t)v.num;
 188:H:/STM32H7/RGB_LVGL/Middlewares/LVGL/GUI/lvgl/src/core\lv_obj_style_gen.h **** }
 189:H:/STM32H7/RGB_LVGL/Middlewares/LVGL/GUI/lvgl/src/core\lv_obj_style_gen.h **** 
 190:H:/STM32H7/RGB_LVGL/Middlewares/LVGL/GUI/lvgl/src/core\lv_obj_style_gen.h **** static inline int32_t lv_obj_get_style_pad_radial(const lv_obj_t * obj, lv_part_t part)
 191:H:/STM32H7/RGB_LVGL/Middlewares/LVGL/GUI/lvgl/src/core\lv_obj_style_gen.h **** {
 192:H:/STM32H7/RGB_LVGL/Middlewares/LVGL/GUI/lvgl/src/core\lv_obj_style_gen.h ****     lv_style_value_t v = lv_obj_get_style_prop(obj, part, LV_STYLE_PAD_RADIAL);
 193:H:/STM32H7/RGB_LVGL/Middlewares/LVGL/GUI/lvgl/src/core\lv_obj_style_gen.h ****     return (int32_t)v.num;
 194:H:/STM32H7/RGB_LVGL/Middlewares/LVGL/GUI/lvgl/src/core\lv_obj_style_gen.h **** }
 195:H:/STM32H7/RGB_LVGL/Middlewares/LVGL/GUI/lvgl/src/core\lv_obj_style_gen.h **** 
 196:H:/STM32H7/RGB_LVGL/Middlewares/LVGL/GUI/lvgl/src/core\lv_obj_style_gen.h **** static inline int32_t lv_obj_get_style_margin_top(const lv_obj_t * obj, lv_part_t part)
 197:H:/STM32H7/RGB_LVGL/Middlewares/LVGL/GUI/lvgl/src/core\lv_obj_style_gen.h **** {
 198:H:/STM32H7/RGB_LVGL/Middlewares/LVGL/GUI/lvgl/src/core\lv_obj_style_gen.h ****     lv_style_value_t v = lv_obj_get_style_prop(obj, part, LV_STYLE_MARGIN_TOP);
 199:H:/STM32H7/RGB_LVGL/Middlewares/LVGL/GUI/lvgl/src/core\lv_obj_style_gen.h ****     return (int32_t)v.num;
 200:H:/STM32H7/RGB_LVGL/Middlewares/LVGL/GUI/lvgl/src/core\lv_obj_style_gen.h **** }
 201:H:/STM32H7/RGB_LVGL/Middlewares/LVGL/GUI/lvgl/src/core\lv_obj_style_gen.h **** 
 202:H:/STM32H7/RGB_LVGL/Middlewares/LVGL/GUI/lvgl/src/core\lv_obj_style_gen.h **** static inline int32_t lv_obj_get_style_margin_bottom(const lv_obj_t * obj, lv_part_t part)
 203:H:/STM32H7/RGB_LVGL/Middlewares/LVGL/GUI/lvgl/src/core\lv_obj_style_gen.h **** {
 204:H:/STM32H7/RGB_LVGL/Middlewares/LVGL/GUI/lvgl/src/core\lv_obj_style_gen.h ****     lv_style_value_t v = lv_obj_get_style_prop(obj, part, LV_STYLE_MARGIN_BOTTOM);
 205:H:/STM32H7/RGB_LVGL/Middlewares/LVGL/GUI/lvgl/src/core\lv_obj_style_gen.h ****     return (int32_t)v.num;
 206:H:/STM32H7/RGB_LVGL/Middlewares/LVGL/GUI/lvgl/src/core\lv_obj_style_gen.h **** }
 207:H:/STM32H7/RGB_LVGL/Middlewares/LVGL/GUI/lvgl/src/core\lv_obj_style_gen.h **** 
 208:H:/STM32H7/RGB_LVGL/Middlewares/LVGL/GUI/lvgl/src/core\lv_obj_style_gen.h **** static inline int32_t lv_obj_get_style_margin_left(const lv_obj_t * obj, lv_part_t part)
 209:H:/STM32H7/RGB_LVGL/Middlewares/LVGL/GUI/lvgl/src/core\lv_obj_style_gen.h **** {
 210:H:/STM32H7/RGB_LVGL/Middlewares/LVGL/GUI/lvgl/src/core\lv_obj_style_gen.h ****     lv_style_value_t v = lv_obj_get_style_prop(obj, part, LV_STYLE_MARGIN_LEFT);
 211:H:/STM32H7/RGB_LVGL/Middlewares/LVGL/GUI/lvgl/src/core\lv_obj_style_gen.h ****     return (int32_t)v.num;
 212:H:/STM32H7/RGB_LVGL/Middlewares/LVGL/GUI/lvgl/src/core\lv_obj_style_gen.h **** }
 213:H:/STM32H7/RGB_LVGL/Middlewares/LVGL/GUI/lvgl/src/core\lv_obj_style_gen.h **** 
 214:H:/STM32H7/RGB_LVGL/Middlewares/LVGL/GUI/lvgl/src/core\lv_obj_style_gen.h **** static inline int32_t lv_obj_get_style_margin_right(const lv_obj_t * obj, lv_part_t part)
 215:H:/STM32H7/RGB_LVGL/Middlewares/LVGL/GUI/lvgl/src/core\lv_obj_style_gen.h **** {
 216:H:/STM32H7/RGB_LVGL/Middlewares/LVGL/GUI/lvgl/src/core\lv_obj_style_gen.h ****     lv_style_value_t v = lv_obj_get_style_prop(obj, part, LV_STYLE_MARGIN_RIGHT);
 217:H:/STM32H7/RGB_LVGL/Middlewares/LVGL/GUI/lvgl/src/core\lv_obj_style_gen.h ****     return (int32_t)v.num;
 218:H:/STM32H7/RGB_LVGL/Middlewares/LVGL/GUI/lvgl/src/core\lv_obj_style_gen.h **** }
 219:H:/STM32H7/RGB_LVGL/Middlewares/LVGL/GUI/lvgl/src/core\lv_obj_style_gen.h **** 
 220:H:/STM32H7/RGB_LVGL/Middlewares/LVGL/GUI/lvgl/src/core\lv_obj_style_gen.h **** static inline lv_color_t lv_obj_get_style_bg_color(const lv_obj_t * obj, lv_part_t part)
 221:H:/STM32H7/RGB_LVGL/Middlewares/LVGL/GUI/lvgl/src/core\lv_obj_style_gen.h **** {
 222:H:/STM32H7/RGB_LVGL/Middlewares/LVGL/GUI/lvgl/src/core\lv_obj_style_gen.h ****     lv_style_value_t v = lv_obj_get_style_prop(obj, part, LV_STYLE_BG_COLOR);
 223:H:/STM32H7/RGB_LVGL/Middlewares/LVGL/GUI/lvgl/src/core\lv_obj_style_gen.h ****     return v.color;
 224:H:/STM32H7/RGB_LVGL/Middlewares/LVGL/GUI/lvgl/src/core\lv_obj_style_gen.h **** }
 225:H:/STM32H7/RGB_LVGL/Middlewares/LVGL/GUI/lvgl/src/core\lv_obj_style_gen.h **** 
 226:H:/STM32H7/RGB_LVGL/Middlewares/LVGL/GUI/lvgl/src/core\lv_obj_style_gen.h **** static inline lv_color_t lv_obj_get_style_bg_color_filtered(const lv_obj_t * obj, lv_part_t part)
 227:H:/STM32H7/RGB_LVGL/Middlewares/LVGL/GUI/lvgl/src/core\lv_obj_style_gen.h **** {
 228:H:/STM32H7/RGB_LVGL/Middlewares/LVGL/GUI/lvgl/src/core\lv_obj_style_gen.h ****     lv_style_value_t v = lv_obj_style_apply_color_filter(obj, part, lv_obj_get_style_prop(obj, part
 229:H:/STM32H7/RGB_LVGL/Middlewares/LVGL/GUI/lvgl/src/core\lv_obj_style_gen.h ****     return v.color;
 230:H:/STM32H7/RGB_LVGL/Middlewares/LVGL/GUI/lvgl/src/core\lv_obj_style_gen.h **** }
 231:H:/STM32H7/RGB_LVGL/Middlewares/LVGL/GUI/lvgl/src/core\lv_obj_style_gen.h **** 
 232:H:/STM32H7/RGB_LVGL/Middlewares/LVGL/GUI/lvgl/src/core\lv_obj_style_gen.h **** static inline lv_opa_t lv_obj_get_style_bg_opa(const lv_obj_t * obj, lv_part_t part)
 233:H:/STM32H7/RGB_LVGL/Middlewares/LVGL/GUI/lvgl/src/core\lv_obj_style_gen.h **** {
 234:H:/STM32H7/RGB_LVGL/Middlewares/LVGL/GUI/lvgl/src/core\lv_obj_style_gen.h ****     lv_style_value_t v = lv_obj_get_style_prop(obj, part, LV_STYLE_BG_OPA);
 235:H:/STM32H7/RGB_LVGL/Middlewares/LVGL/GUI/lvgl/src/core\lv_obj_style_gen.h ****     return (lv_opa_t)v.num;
 236:H:/STM32H7/RGB_LVGL/Middlewares/LVGL/GUI/lvgl/src/core\lv_obj_style_gen.h **** }
ARM GAS  C:\Users\28576\AppData\Local\Temp\ccBC7uBe.s 			page 15


 237:H:/STM32H7/RGB_LVGL/Middlewares/LVGL/GUI/lvgl/src/core\lv_obj_style_gen.h **** 
 238:H:/STM32H7/RGB_LVGL/Middlewares/LVGL/GUI/lvgl/src/core\lv_obj_style_gen.h **** static inline lv_color_t lv_obj_get_style_bg_grad_color(const lv_obj_t * obj, lv_part_t part)
 239:H:/STM32H7/RGB_LVGL/Middlewares/LVGL/GUI/lvgl/src/core\lv_obj_style_gen.h **** {
 240:H:/STM32H7/RGB_LVGL/Middlewares/LVGL/GUI/lvgl/src/core\lv_obj_style_gen.h ****     lv_style_value_t v = lv_obj_get_style_prop(obj, part, LV_STYLE_BG_GRAD_COLOR);
 241:H:/STM32H7/RGB_LVGL/Middlewares/LVGL/GUI/lvgl/src/core\lv_obj_style_gen.h ****     return v.color;
 242:H:/STM32H7/RGB_LVGL/Middlewares/LVGL/GUI/lvgl/src/core\lv_obj_style_gen.h **** }
 243:H:/STM32H7/RGB_LVGL/Middlewares/LVGL/GUI/lvgl/src/core\lv_obj_style_gen.h **** 
 244:H:/STM32H7/RGB_LVGL/Middlewares/LVGL/GUI/lvgl/src/core\lv_obj_style_gen.h **** static inline lv_color_t lv_obj_get_style_bg_grad_color_filtered(const lv_obj_t * obj, lv_part_t pa
 245:H:/STM32H7/RGB_LVGL/Middlewares/LVGL/GUI/lvgl/src/core\lv_obj_style_gen.h **** {
 246:H:/STM32H7/RGB_LVGL/Middlewares/LVGL/GUI/lvgl/src/core\lv_obj_style_gen.h ****     lv_style_value_t v = lv_obj_style_apply_color_filter(obj, part, lv_obj_get_style_prop(obj, part
 247:H:/STM32H7/RGB_LVGL/Middlewares/LVGL/GUI/lvgl/src/core\lv_obj_style_gen.h ****     return v.color;
 248:H:/STM32H7/RGB_LVGL/Middlewares/LVGL/GUI/lvgl/src/core\lv_obj_style_gen.h **** }
 249:H:/STM32H7/RGB_LVGL/Middlewares/LVGL/GUI/lvgl/src/core\lv_obj_style_gen.h **** 
 250:H:/STM32H7/RGB_LVGL/Middlewares/LVGL/GUI/lvgl/src/core\lv_obj_style_gen.h **** static inline lv_grad_dir_t lv_obj_get_style_bg_grad_dir(const lv_obj_t * obj, lv_part_t part)
 251:H:/STM32H7/RGB_LVGL/Middlewares/LVGL/GUI/lvgl/src/core\lv_obj_style_gen.h **** {
 252:H:/STM32H7/RGB_LVGL/Middlewares/LVGL/GUI/lvgl/src/core\lv_obj_style_gen.h ****     lv_style_value_t v = lv_obj_get_style_prop(obj, part, LV_STYLE_BG_GRAD_DIR);
 253:H:/STM32H7/RGB_LVGL/Middlewares/LVGL/GUI/lvgl/src/core\lv_obj_style_gen.h ****     return (lv_grad_dir_t)v.num;
 254:H:/STM32H7/RGB_LVGL/Middlewares/LVGL/GUI/lvgl/src/core\lv_obj_style_gen.h **** }
 255:H:/STM32H7/RGB_LVGL/Middlewares/LVGL/GUI/lvgl/src/core\lv_obj_style_gen.h **** 
 256:H:/STM32H7/RGB_LVGL/Middlewares/LVGL/GUI/lvgl/src/core\lv_obj_style_gen.h **** static inline int32_t lv_obj_get_style_bg_main_stop(const lv_obj_t * obj, lv_part_t part)
 257:H:/STM32H7/RGB_LVGL/Middlewares/LVGL/GUI/lvgl/src/core\lv_obj_style_gen.h **** {
 258:H:/STM32H7/RGB_LVGL/Middlewares/LVGL/GUI/lvgl/src/core\lv_obj_style_gen.h ****     lv_style_value_t v = lv_obj_get_style_prop(obj, part, LV_STYLE_BG_MAIN_STOP);
 259:H:/STM32H7/RGB_LVGL/Middlewares/LVGL/GUI/lvgl/src/core\lv_obj_style_gen.h ****     return (int32_t)v.num;
 260:H:/STM32H7/RGB_LVGL/Middlewares/LVGL/GUI/lvgl/src/core\lv_obj_style_gen.h **** }
 261:H:/STM32H7/RGB_LVGL/Middlewares/LVGL/GUI/lvgl/src/core\lv_obj_style_gen.h **** 
 262:H:/STM32H7/RGB_LVGL/Middlewares/LVGL/GUI/lvgl/src/core\lv_obj_style_gen.h **** static inline int32_t lv_obj_get_style_bg_grad_stop(const lv_obj_t * obj, lv_part_t part)
 263:H:/STM32H7/RGB_LVGL/Middlewares/LVGL/GUI/lvgl/src/core\lv_obj_style_gen.h **** {
 264:H:/STM32H7/RGB_LVGL/Middlewares/LVGL/GUI/lvgl/src/core\lv_obj_style_gen.h ****     lv_style_value_t v = lv_obj_get_style_prop(obj, part, LV_STYLE_BG_GRAD_STOP);
 265:H:/STM32H7/RGB_LVGL/Middlewares/LVGL/GUI/lvgl/src/core\lv_obj_style_gen.h ****     return (int32_t)v.num;
 266:H:/STM32H7/RGB_LVGL/Middlewares/LVGL/GUI/lvgl/src/core\lv_obj_style_gen.h **** }
 267:H:/STM32H7/RGB_LVGL/Middlewares/LVGL/GUI/lvgl/src/core\lv_obj_style_gen.h **** 
 268:H:/STM32H7/RGB_LVGL/Middlewares/LVGL/GUI/lvgl/src/core\lv_obj_style_gen.h **** static inline lv_opa_t lv_obj_get_style_bg_main_opa(const lv_obj_t * obj, lv_part_t part)
 269:H:/STM32H7/RGB_LVGL/Middlewares/LVGL/GUI/lvgl/src/core\lv_obj_style_gen.h **** {
 270:H:/STM32H7/RGB_LVGL/Middlewares/LVGL/GUI/lvgl/src/core\lv_obj_style_gen.h ****     lv_style_value_t v = lv_obj_get_style_prop(obj, part, LV_STYLE_BG_MAIN_OPA);
 271:H:/STM32H7/RGB_LVGL/Middlewares/LVGL/GUI/lvgl/src/core\lv_obj_style_gen.h ****     return (lv_opa_t)v.num;
 272:H:/STM32H7/RGB_LVGL/Middlewares/LVGL/GUI/lvgl/src/core\lv_obj_style_gen.h **** }
 273:H:/STM32H7/RGB_LVGL/Middlewares/LVGL/GUI/lvgl/src/core\lv_obj_style_gen.h **** 
 274:H:/STM32H7/RGB_LVGL/Middlewares/LVGL/GUI/lvgl/src/core\lv_obj_style_gen.h **** static inline lv_opa_t lv_obj_get_style_bg_grad_opa(const lv_obj_t * obj, lv_part_t part)
 275:H:/STM32H7/RGB_LVGL/Middlewares/LVGL/GUI/lvgl/src/core\lv_obj_style_gen.h **** {
 276:H:/STM32H7/RGB_LVGL/Middlewares/LVGL/GUI/lvgl/src/core\lv_obj_style_gen.h ****     lv_style_value_t v = lv_obj_get_style_prop(obj, part, LV_STYLE_BG_GRAD_OPA);
 277:H:/STM32H7/RGB_LVGL/Middlewares/LVGL/GUI/lvgl/src/core\lv_obj_style_gen.h ****     return (lv_opa_t)v.num;
 278:H:/STM32H7/RGB_LVGL/Middlewares/LVGL/GUI/lvgl/src/core\lv_obj_style_gen.h **** }
 279:H:/STM32H7/RGB_LVGL/Middlewares/LVGL/GUI/lvgl/src/core\lv_obj_style_gen.h **** 
 280:H:/STM32H7/RGB_LVGL/Middlewares/LVGL/GUI/lvgl/src/core\lv_obj_style_gen.h **** static inline const lv_grad_dsc_t * lv_obj_get_style_bg_grad(const lv_obj_t * obj, lv_part_t part)
 281:H:/STM32H7/RGB_LVGL/Middlewares/LVGL/GUI/lvgl/src/core\lv_obj_style_gen.h **** {
 282:H:/STM32H7/RGB_LVGL/Middlewares/LVGL/GUI/lvgl/src/core\lv_obj_style_gen.h ****     lv_style_value_t v = lv_obj_get_style_prop(obj, part, LV_STYLE_BG_GRAD);
 283:H:/STM32H7/RGB_LVGL/Middlewares/LVGL/GUI/lvgl/src/core\lv_obj_style_gen.h ****     return (const lv_grad_dsc_t *)v.ptr;
 284:H:/STM32H7/RGB_LVGL/Middlewares/LVGL/GUI/lvgl/src/core\lv_obj_style_gen.h **** }
 285:H:/STM32H7/RGB_LVGL/Middlewares/LVGL/GUI/lvgl/src/core\lv_obj_style_gen.h **** 
 286:H:/STM32H7/RGB_LVGL/Middlewares/LVGL/GUI/lvgl/src/core\lv_obj_style_gen.h **** static inline const void * lv_obj_get_style_bg_image_src(const lv_obj_t * obj, lv_part_t part)
 287:H:/STM32H7/RGB_LVGL/Middlewares/LVGL/GUI/lvgl/src/core\lv_obj_style_gen.h **** {
 288:H:/STM32H7/RGB_LVGL/Middlewares/LVGL/GUI/lvgl/src/core\lv_obj_style_gen.h ****     lv_style_value_t v = lv_obj_get_style_prop(obj, part, LV_STYLE_BG_IMAGE_SRC);
 289:H:/STM32H7/RGB_LVGL/Middlewares/LVGL/GUI/lvgl/src/core\lv_obj_style_gen.h ****     return (const void *)v.ptr;
 290:H:/STM32H7/RGB_LVGL/Middlewares/LVGL/GUI/lvgl/src/core\lv_obj_style_gen.h **** }
 291:H:/STM32H7/RGB_LVGL/Middlewares/LVGL/GUI/lvgl/src/core\lv_obj_style_gen.h **** 
 292:H:/STM32H7/RGB_LVGL/Middlewares/LVGL/GUI/lvgl/src/core\lv_obj_style_gen.h **** static inline lv_opa_t lv_obj_get_style_bg_image_opa(const lv_obj_t * obj, lv_part_t part)
 293:H:/STM32H7/RGB_LVGL/Middlewares/LVGL/GUI/lvgl/src/core\lv_obj_style_gen.h **** {
ARM GAS  C:\Users\28576\AppData\Local\Temp\ccBC7uBe.s 			page 16


 294:H:/STM32H7/RGB_LVGL/Middlewares/LVGL/GUI/lvgl/src/core\lv_obj_style_gen.h ****     lv_style_value_t v = lv_obj_get_style_prop(obj, part, LV_STYLE_BG_IMAGE_OPA);
 295:H:/STM32H7/RGB_LVGL/Middlewares/LVGL/GUI/lvgl/src/core\lv_obj_style_gen.h ****     return (lv_opa_t)v.num;
 296:H:/STM32H7/RGB_LVGL/Middlewares/LVGL/GUI/lvgl/src/core\lv_obj_style_gen.h **** }
 297:H:/STM32H7/RGB_LVGL/Middlewares/LVGL/GUI/lvgl/src/core\lv_obj_style_gen.h **** 
 298:H:/STM32H7/RGB_LVGL/Middlewares/LVGL/GUI/lvgl/src/core\lv_obj_style_gen.h **** static inline lv_color_t lv_obj_get_style_bg_image_recolor(const lv_obj_t * obj, lv_part_t part)
 299:H:/STM32H7/RGB_LVGL/Middlewares/LVGL/GUI/lvgl/src/core\lv_obj_style_gen.h **** {
 300:H:/STM32H7/RGB_LVGL/Middlewares/LVGL/GUI/lvgl/src/core\lv_obj_style_gen.h ****     lv_style_value_t v = lv_obj_get_style_prop(obj, part, LV_STYLE_BG_IMAGE_RECOLOR);
 301:H:/STM32H7/RGB_LVGL/Middlewares/LVGL/GUI/lvgl/src/core\lv_obj_style_gen.h ****     return v.color;
 302:H:/STM32H7/RGB_LVGL/Middlewares/LVGL/GUI/lvgl/src/core\lv_obj_style_gen.h **** }
 303:H:/STM32H7/RGB_LVGL/Middlewares/LVGL/GUI/lvgl/src/core\lv_obj_style_gen.h **** 
 304:H:/STM32H7/RGB_LVGL/Middlewares/LVGL/GUI/lvgl/src/core\lv_obj_style_gen.h **** static inline lv_color_t lv_obj_get_style_bg_image_recolor_filtered(const lv_obj_t * obj, lv_part_t
 305:H:/STM32H7/RGB_LVGL/Middlewares/LVGL/GUI/lvgl/src/core\lv_obj_style_gen.h **** {
 306:H:/STM32H7/RGB_LVGL/Middlewares/LVGL/GUI/lvgl/src/core\lv_obj_style_gen.h ****     lv_style_value_t v = lv_obj_style_apply_color_filter(obj, part, lv_obj_get_style_prop(obj, part
 307:H:/STM32H7/RGB_LVGL/Middlewares/LVGL/GUI/lvgl/src/core\lv_obj_style_gen.h ****     return v.color;
 308:H:/STM32H7/RGB_LVGL/Middlewares/LVGL/GUI/lvgl/src/core\lv_obj_style_gen.h **** }
 309:H:/STM32H7/RGB_LVGL/Middlewares/LVGL/GUI/lvgl/src/core\lv_obj_style_gen.h **** 
 310:H:/STM32H7/RGB_LVGL/Middlewares/LVGL/GUI/lvgl/src/core\lv_obj_style_gen.h **** static inline lv_opa_t lv_obj_get_style_bg_image_recolor_opa(const lv_obj_t * obj, lv_part_t part)
 311:H:/STM32H7/RGB_LVGL/Middlewares/LVGL/GUI/lvgl/src/core\lv_obj_style_gen.h **** {
 312:H:/STM32H7/RGB_LVGL/Middlewares/LVGL/GUI/lvgl/src/core\lv_obj_style_gen.h ****     lv_style_value_t v = lv_obj_get_style_prop(obj, part, LV_STYLE_BG_IMAGE_RECOLOR_OPA);
 313:H:/STM32H7/RGB_LVGL/Middlewares/LVGL/GUI/lvgl/src/core\lv_obj_style_gen.h ****     return (lv_opa_t)v.num;
 314:H:/STM32H7/RGB_LVGL/Middlewares/LVGL/GUI/lvgl/src/core\lv_obj_style_gen.h **** }
 315:H:/STM32H7/RGB_LVGL/Middlewares/LVGL/GUI/lvgl/src/core\lv_obj_style_gen.h **** 
 316:H:/STM32H7/RGB_LVGL/Middlewares/LVGL/GUI/lvgl/src/core\lv_obj_style_gen.h **** static inline bool lv_obj_get_style_bg_image_tiled(const lv_obj_t * obj, lv_part_t part)
 317:H:/STM32H7/RGB_LVGL/Middlewares/LVGL/GUI/lvgl/src/core\lv_obj_style_gen.h **** {
 318:H:/STM32H7/RGB_LVGL/Middlewares/LVGL/GUI/lvgl/src/core\lv_obj_style_gen.h ****     lv_style_value_t v = lv_obj_get_style_prop(obj, part, LV_STYLE_BG_IMAGE_TILED);
 319:H:/STM32H7/RGB_LVGL/Middlewares/LVGL/GUI/lvgl/src/core\lv_obj_style_gen.h ****     return (bool)v.num;
 320:H:/STM32H7/RGB_LVGL/Middlewares/LVGL/GUI/lvgl/src/core\lv_obj_style_gen.h **** }
 321:H:/STM32H7/RGB_LVGL/Middlewares/LVGL/GUI/lvgl/src/core\lv_obj_style_gen.h **** 
 322:H:/STM32H7/RGB_LVGL/Middlewares/LVGL/GUI/lvgl/src/core\lv_obj_style_gen.h **** static inline lv_color_t lv_obj_get_style_border_color(const lv_obj_t * obj, lv_part_t part)
 323:H:/STM32H7/RGB_LVGL/Middlewares/LVGL/GUI/lvgl/src/core\lv_obj_style_gen.h **** {
 324:H:/STM32H7/RGB_LVGL/Middlewares/LVGL/GUI/lvgl/src/core\lv_obj_style_gen.h ****     lv_style_value_t v = lv_obj_get_style_prop(obj, part, LV_STYLE_BORDER_COLOR);
 325:H:/STM32H7/RGB_LVGL/Middlewares/LVGL/GUI/lvgl/src/core\lv_obj_style_gen.h ****     return v.color;
 326:H:/STM32H7/RGB_LVGL/Middlewares/LVGL/GUI/lvgl/src/core\lv_obj_style_gen.h **** }
 327:H:/STM32H7/RGB_LVGL/Middlewares/LVGL/GUI/lvgl/src/core\lv_obj_style_gen.h **** 
 328:H:/STM32H7/RGB_LVGL/Middlewares/LVGL/GUI/lvgl/src/core\lv_obj_style_gen.h **** static inline lv_color_t lv_obj_get_style_border_color_filtered(const lv_obj_t * obj, lv_part_t par
 329:H:/STM32H7/RGB_LVGL/Middlewares/LVGL/GUI/lvgl/src/core\lv_obj_style_gen.h **** {
 330:H:/STM32H7/RGB_LVGL/Middlewares/LVGL/GUI/lvgl/src/core\lv_obj_style_gen.h ****     lv_style_value_t v = lv_obj_style_apply_color_filter(obj, part, lv_obj_get_style_prop(obj, part
 331:H:/STM32H7/RGB_LVGL/Middlewares/LVGL/GUI/lvgl/src/core\lv_obj_style_gen.h ****     return v.color;
 332:H:/STM32H7/RGB_LVGL/Middlewares/LVGL/GUI/lvgl/src/core\lv_obj_style_gen.h **** }
 333:H:/STM32H7/RGB_LVGL/Middlewares/LVGL/GUI/lvgl/src/core\lv_obj_style_gen.h **** 
 334:H:/STM32H7/RGB_LVGL/Middlewares/LVGL/GUI/lvgl/src/core\lv_obj_style_gen.h **** static inline lv_opa_t lv_obj_get_style_border_opa(const lv_obj_t * obj, lv_part_t part)
 335:H:/STM32H7/RGB_LVGL/Middlewares/LVGL/GUI/lvgl/src/core\lv_obj_style_gen.h **** {
 336:H:/STM32H7/RGB_LVGL/Middlewares/LVGL/GUI/lvgl/src/core\lv_obj_style_gen.h ****     lv_style_value_t v = lv_obj_get_style_prop(obj, part, LV_STYLE_BORDER_OPA);
 337:H:/STM32H7/RGB_LVGL/Middlewares/LVGL/GUI/lvgl/src/core\lv_obj_style_gen.h ****     return (lv_opa_t)v.num;
 338:H:/STM32H7/RGB_LVGL/Middlewares/LVGL/GUI/lvgl/src/core\lv_obj_style_gen.h **** }
 339:H:/STM32H7/RGB_LVGL/Middlewares/LVGL/GUI/lvgl/src/core\lv_obj_style_gen.h **** 
 340:H:/STM32H7/RGB_LVGL/Middlewares/LVGL/GUI/lvgl/src/core\lv_obj_style_gen.h **** static inline int32_t lv_obj_get_style_border_width(const lv_obj_t * obj, lv_part_t part)
 341:H:/STM32H7/RGB_LVGL/Middlewares/LVGL/GUI/lvgl/src/core\lv_obj_style_gen.h **** {
 342:H:/STM32H7/RGB_LVGL/Middlewares/LVGL/GUI/lvgl/src/core\lv_obj_style_gen.h ****     lv_style_value_t v = lv_obj_get_style_prop(obj, part, LV_STYLE_BORDER_WIDTH);
 343:H:/STM32H7/RGB_LVGL/Middlewares/LVGL/GUI/lvgl/src/core\lv_obj_style_gen.h ****     return (int32_t)v.num;
 344:H:/STM32H7/RGB_LVGL/Middlewares/LVGL/GUI/lvgl/src/core\lv_obj_style_gen.h **** }
 345:H:/STM32H7/RGB_LVGL/Middlewares/LVGL/GUI/lvgl/src/core\lv_obj_style_gen.h **** 
 346:H:/STM32H7/RGB_LVGL/Middlewares/LVGL/GUI/lvgl/src/core\lv_obj_style_gen.h **** static inline lv_border_side_t lv_obj_get_style_border_side(const lv_obj_t * obj, lv_part_t part)
 347:H:/STM32H7/RGB_LVGL/Middlewares/LVGL/GUI/lvgl/src/core\lv_obj_style_gen.h **** {
 348:H:/STM32H7/RGB_LVGL/Middlewares/LVGL/GUI/lvgl/src/core\lv_obj_style_gen.h ****     lv_style_value_t v = lv_obj_get_style_prop(obj, part, LV_STYLE_BORDER_SIDE);
 349:H:/STM32H7/RGB_LVGL/Middlewares/LVGL/GUI/lvgl/src/core\lv_obj_style_gen.h ****     return (lv_border_side_t)v.num;
 350:H:/STM32H7/RGB_LVGL/Middlewares/LVGL/GUI/lvgl/src/core\lv_obj_style_gen.h **** }
ARM GAS  C:\Users\28576\AppData\Local\Temp\ccBC7uBe.s 			page 17


 351:H:/STM32H7/RGB_LVGL/Middlewares/LVGL/GUI/lvgl/src/core\lv_obj_style_gen.h **** 
 352:H:/STM32H7/RGB_LVGL/Middlewares/LVGL/GUI/lvgl/src/core\lv_obj_style_gen.h **** static inline bool lv_obj_get_style_border_post(const lv_obj_t * obj, lv_part_t part)
 353:H:/STM32H7/RGB_LVGL/Middlewares/LVGL/GUI/lvgl/src/core\lv_obj_style_gen.h **** {
 354:H:/STM32H7/RGB_LVGL/Middlewares/LVGL/GUI/lvgl/src/core\lv_obj_style_gen.h ****     lv_style_value_t v = lv_obj_get_style_prop(obj, part, LV_STYLE_BORDER_POST);
 355:H:/STM32H7/RGB_LVGL/Middlewares/LVGL/GUI/lvgl/src/core\lv_obj_style_gen.h ****     return (bool)v.num;
 356:H:/STM32H7/RGB_LVGL/Middlewares/LVGL/GUI/lvgl/src/core\lv_obj_style_gen.h **** }
 357:H:/STM32H7/RGB_LVGL/Middlewares/LVGL/GUI/lvgl/src/core\lv_obj_style_gen.h **** 
 358:H:/STM32H7/RGB_LVGL/Middlewares/LVGL/GUI/lvgl/src/core\lv_obj_style_gen.h **** static inline int32_t lv_obj_get_style_outline_width(const lv_obj_t * obj, lv_part_t part)
 359:H:/STM32H7/RGB_LVGL/Middlewares/LVGL/GUI/lvgl/src/core\lv_obj_style_gen.h **** {
 360:H:/STM32H7/RGB_LVGL/Middlewares/LVGL/GUI/lvgl/src/core\lv_obj_style_gen.h ****     lv_style_value_t v = lv_obj_get_style_prop(obj, part, LV_STYLE_OUTLINE_WIDTH);
 361:H:/STM32H7/RGB_LVGL/Middlewares/LVGL/GUI/lvgl/src/core\lv_obj_style_gen.h ****     return (int32_t)v.num;
 362:H:/STM32H7/RGB_LVGL/Middlewares/LVGL/GUI/lvgl/src/core\lv_obj_style_gen.h **** }
 363:H:/STM32H7/RGB_LVGL/Middlewares/LVGL/GUI/lvgl/src/core\lv_obj_style_gen.h **** 
 364:H:/STM32H7/RGB_LVGL/Middlewares/LVGL/GUI/lvgl/src/core\lv_obj_style_gen.h **** static inline lv_color_t lv_obj_get_style_outline_color(const lv_obj_t * obj, lv_part_t part)
 365:H:/STM32H7/RGB_LVGL/Middlewares/LVGL/GUI/lvgl/src/core\lv_obj_style_gen.h **** {
 366:H:/STM32H7/RGB_LVGL/Middlewares/LVGL/GUI/lvgl/src/core\lv_obj_style_gen.h ****     lv_style_value_t v = lv_obj_get_style_prop(obj, part, LV_STYLE_OUTLINE_COLOR);
 367:H:/STM32H7/RGB_LVGL/Middlewares/LVGL/GUI/lvgl/src/core\lv_obj_style_gen.h ****     return v.color;
 368:H:/STM32H7/RGB_LVGL/Middlewares/LVGL/GUI/lvgl/src/core\lv_obj_style_gen.h **** }
 369:H:/STM32H7/RGB_LVGL/Middlewares/LVGL/GUI/lvgl/src/core\lv_obj_style_gen.h **** 
 370:H:/STM32H7/RGB_LVGL/Middlewares/LVGL/GUI/lvgl/src/core\lv_obj_style_gen.h **** static inline lv_color_t lv_obj_get_style_outline_color_filtered(const lv_obj_t * obj, lv_part_t pa
 371:H:/STM32H7/RGB_LVGL/Middlewares/LVGL/GUI/lvgl/src/core\lv_obj_style_gen.h **** {
 372:H:/STM32H7/RGB_LVGL/Middlewares/LVGL/GUI/lvgl/src/core\lv_obj_style_gen.h ****     lv_style_value_t v = lv_obj_style_apply_color_filter(obj, part, lv_obj_get_style_prop(obj, part
 373:H:/STM32H7/RGB_LVGL/Middlewares/LVGL/GUI/lvgl/src/core\lv_obj_style_gen.h ****     return v.color;
 374:H:/STM32H7/RGB_LVGL/Middlewares/LVGL/GUI/lvgl/src/core\lv_obj_style_gen.h **** }
 375:H:/STM32H7/RGB_LVGL/Middlewares/LVGL/GUI/lvgl/src/core\lv_obj_style_gen.h **** 
 376:H:/STM32H7/RGB_LVGL/Middlewares/LVGL/GUI/lvgl/src/core\lv_obj_style_gen.h **** static inline lv_opa_t lv_obj_get_style_outline_opa(const lv_obj_t * obj, lv_part_t part)
 377:H:/STM32H7/RGB_LVGL/Middlewares/LVGL/GUI/lvgl/src/core\lv_obj_style_gen.h **** {
 378:H:/STM32H7/RGB_LVGL/Middlewares/LVGL/GUI/lvgl/src/core\lv_obj_style_gen.h ****     lv_style_value_t v = lv_obj_get_style_prop(obj, part, LV_STYLE_OUTLINE_OPA);
 379:H:/STM32H7/RGB_LVGL/Middlewares/LVGL/GUI/lvgl/src/core\lv_obj_style_gen.h ****     return (lv_opa_t)v.num;
 380:H:/STM32H7/RGB_LVGL/Middlewares/LVGL/GUI/lvgl/src/core\lv_obj_style_gen.h **** }
 381:H:/STM32H7/RGB_LVGL/Middlewares/LVGL/GUI/lvgl/src/core\lv_obj_style_gen.h **** 
 382:H:/STM32H7/RGB_LVGL/Middlewares/LVGL/GUI/lvgl/src/core\lv_obj_style_gen.h **** static inline int32_t lv_obj_get_style_outline_pad(const lv_obj_t * obj, lv_part_t part)
 383:H:/STM32H7/RGB_LVGL/Middlewares/LVGL/GUI/lvgl/src/core\lv_obj_style_gen.h **** {
 384:H:/STM32H7/RGB_LVGL/Middlewares/LVGL/GUI/lvgl/src/core\lv_obj_style_gen.h ****     lv_style_value_t v = lv_obj_get_style_prop(obj, part, LV_STYLE_OUTLINE_PAD);
 385:H:/STM32H7/RGB_LVGL/Middlewares/LVGL/GUI/lvgl/src/core\lv_obj_style_gen.h ****     return (int32_t)v.num;
 386:H:/STM32H7/RGB_LVGL/Middlewares/LVGL/GUI/lvgl/src/core\lv_obj_style_gen.h **** }
 387:H:/STM32H7/RGB_LVGL/Middlewares/LVGL/GUI/lvgl/src/core\lv_obj_style_gen.h **** 
 388:H:/STM32H7/RGB_LVGL/Middlewares/LVGL/GUI/lvgl/src/core\lv_obj_style_gen.h **** static inline int32_t lv_obj_get_style_shadow_width(const lv_obj_t * obj, lv_part_t part)
 389:H:/STM32H7/RGB_LVGL/Middlewares/LVGL/GUI/lvgl/src/core\lv_obj_style_gen.h **** {
 390:H:/STM32H7/RGB_LVGL/Middlewares/LVGL/GUI/lvgl/src/core\lv_obj_style_gen.h ****     lv_style_value_t v = lv_obj_get_style_prop(obj, part, LV_STYLE_SHADOW_WIDTH);
 391:H:/STM32H7/RGB_LVGL/Middlewares/LVGL/GUI/lvgl/src/core\lv_obj_style_gen.h ****     return (int32_t)v.num;
 392:H:/STM32H7/RGB_LVGL/Middlewares/LVGL/GUI/lvgl/src/core\lv_obj_style_gen.h **** }
 393:H:/STM32H7/RGB_LVGL/Middlewares/LVGL/GUI/lvgl/src/core\lv_obj_style_gen.h **** 
 394:H:/STM32H7/RGB_LVGL/Middlewares/LVGL/GUI/lvgl/src/core\lv_obj_style_gen.h **** static inline int32_t lv_obj_get_style_shadow_offset_x(const lv_obj_t * obj, lv_part_t part)
 395:H:/STM32H7/RGB_LVGL/Middlewares/LVGL/GUI/lvgl/src/core\lv_obj_style_gen.h **** {
 396:H:/STM32H7/RGB_LVGL/Middlewares/LVGL/GUI/lvgl/src/core\lv_obj_style_gen.h ****     lv_style_value_t v = lv_obj_get_style_prop(obj, part, LV_STYLE_SHADOW_OFFSET_X);
 397:H:/STM32H7/RGB_LVGL/Middlewares/LVGL/GUI/lvgl/src/core\lv_obj_style_gen.h ****     return (int32_t)v.num;
 398:H:/STM32H7/RGB_LVGL/Middlewares/LVGL/GUI/lvgl/src/core\lv_obj_style_gen.h **** }
 399:H:/STM32H7/RGB_LVGL/Middlewares/LVGL/GUI/lvgl/src/core\lv_obj_style_gen.h **** 
 400:H:/STM32H7/RGB_LVGL/Middlewares/LVGL/GUI/lvgl/src/core\lv_obj_style_gen.h **** static inline int32_t lv_obj_get_style_shadow_offset_y(const lv_obj_t * obj, lv_part_t part)
 401:H:/STM32H7/RGB_LVGL/Middlewares/LVGL/GUI/lvgl/src/core\lv_obj_style_gen.h **** {
 402:H:/STM32H7/RGB_LVGL/Middlewares/LVGL/GUI/lvgl/src/core\lv_obj_style_gen.h ****     lv_style_value_t v = lv_obj_get_style_prop(obj, part, LV_STYLE_SHADOW_OFFSET_Y);
 403:H:/STM32H7/RGB_LVGL/Middlewares/LVGL/GUI/lvgl/src/core\lv_obj_style_gen.h ****     return (int32_t)v.num;
 404:H:/STM32H7/RGB_LVGL/Middlewares/LVGL/GUI/lvgl/src/core\lv_obj_style_gen.h **** }
 405:H:/STM32H7/RGB_LVGL/Middlewares/LVGL/GUI/lvgl/src/core\lv_obj_style_gen.h **** 
 406:H:/STM32H7/RGB_LVGL/Middlewares/LVGL/GUI/lvgl/src/core\lv_obj_style_gen.h **** static inline int32_t lv_obj_get_style_shadow_spread(const lv_obj_t * obj, lv_part_t part)
 407:H:/STM32H7/RGB_LVGL/Middlewares/LVGL/GUI/lvgl/src/core\lv_obj_style_gen.h **** {
ARM GAS  C:\Users\28576\AppData\Local\Temp\ccBC7uBe.s 			page 18


 408:H:/STM32H7/RGB_LVGL/Middlewares/LVGL/GUI/lvgl/src/core\lv_obj_style_gen.h ****     lv_style_value_t v = lv_obj_get_style_prop(obj, part, LV_STYLE_SHADOW_SPREAD);
 409:H:/STM32H7/RGB_LVGL/Middlewares/LVGL/GUI/lvgl/src/core\lv_obj_style_gen.h ****     return (int32_t)v.num;
 410:H:/STM32H7/RGB_LVGL/Middlewares/LVGL/GUI/lvgl/src/core\lv_obj_style_gen.h **** }
 411:H:/STM32H7/RGB_LVGL/Middlewares/LVGL/GUI/lvgl/src/core\lv_obj_style_gen.h **** 
 412:H:/STM32H7/RGB_LVGL/Middlewares/LVGL/GUI/lvgl/src/core\lv_obj_style_gen.h **** static inline lv_color_t lv_obj_get_style_shadow_color(const lv_obj_t * obj, lv_part_t part)
 413:H:/STM32H7/RGB_LVGL/Middlewares/LVGL/GUI/lvgl/src/core\lv_obj_style_gen.h **** {
 414:H:/STM32H7/RGB_LVGL/Middlewares/LVGL/GUI/lvgl/src/core\lv_obj_style_gen.h ****     lv_style_value_t v = lv_obj_get_style_prop(obj, part, LV_STYLE_SHADOW_COLOR);
 415:H:/STM32H7/RGB_LVGL/Middlewares/LVGL/GUI/lvgl/src/core\lv_obj_style_gen.h ****     return v.color;
 416:H:/STM32H7/RGB_LVGL/Middlewares/LVGL/GUI/lvgl/src/core\lv_obj_style_gen.h **** }
 417:H:/STM32H7/RGB_LVGL/Middlewares/LVGL/GUI/lvgl/src/core\lv_obj_style_gen.h **** 
 418:H:/STM32H7/RGB_LVGL/Middlewares/LVGL/GUI/lvgl/src/core\lv_obj_style_gen.h **** static inline lv_color_t lv_obj_get_style_shadow_color_filtered(const lv_obj_t * obj, lv_part_t par
 419:H:/STM32H7/RGB_LVGL/Middlewares/LVGL/GUI/lvgl/src/core\lv_obj_style_gen.h **** {
 420:H:/STM32H7/RGB_LVGL/Middlewares/LVGL/GUI/lvgl/src/core\lv_obj_style_gen.h ****     lv_style_value_t v = lv_obj_style_apply_color_filter(obj, part, lv_obj_get_style_prop(obj, part
 421:H:/STM32H7/RGB_LVGL/Middlewares/LVGL/GUI/lvgl/src/core\lv_obj_style_gen.h ****     return v.color;
 422:H:/STM32H7/RGB_LVGL/Middlewares/LVGL/GUI/lvgl/src/core\lv_obj_style_gen.h **** }
 423:H:/STM32H7/RGB_LVGL/Middlewares/LVGL/GUI/lvgl/src/core\lv_obj_style_gen.h **** 
 424:H:/STM32H7/RGB_LVGL/Middlewares/LVGL/GUI/lvgl/src/core\lv_obj_style_gen.h **** static inline lv_opa_t lv_obj_get_style_shadow_opa(const lv_obj_t * obj, lv_part_t part)
 425:H:/STM32H7/RGB_LVGL/Middlewares/LVGL/GUI/lvgl/src/core\lv_obj_style_gen.h **** {
 426:H:/STM32H7/RGB_LVGL/Middlewares/LVGL/GUI/lvgl/src/core\lv_obj_style_gen.h ****     lv_style_value_t v = lv_obj_get_style_prop(obj, part, LV_STYLE_SHADOW_OPA);
 427:H:/STM32H7/RGB_LVGL/Middlewares/LVGL/GUI/lvgl/src/core\lv_obj_style_gen.h ****     return (lv_opa_t)v.num;
 428:H:/STM32H7/RGB_LVGL/Middlewares/LVGL/GUI/lvgl/src/core\lv_obj_style_gen.h **** }
 429:H:/STM32H7/RGB_LVGL/Middlewares/LVGL/GUI/lvgl/src/core\lv_obj_style_gen.h **** 
 430:H:/STM32H7/RGB_LVGL/Middlewares/LVGL/GUI/lvgl/src/core\lv_obj_style_gen.h **** static inline lv_opa_t lv_obj_get_style_image_opa(const lv_obj_t * obj, lv_part_t part)
 431:H:/STM32H7/RGB_LVGL/Middlewares/LVGL/GUI/lvgl/src/core\lv_obj_style_gen.h **** {
 432:H:/STM32H7/RGB_LVGL/Middlewares/LVGL/GUI/lvgl/src/core\lv_obj_style_gen.h ****     lv_style_value_t v = lv_obj_get_style_prop(obj, part, LV_STYLE_IMAGE_OPA);
 433:H:/STM32H7/RGB_LVGL/Middlewares/LVGL/GUI/lvgl/src/core\lv_obj_style_gen.h ****     return (lv_opa_t)v.num;
 434:H:/STM32H7/RGB_LVGL/Middlewares/LVGL/GUI/lvgl/src/core\lv_obj_style_gen.h **** }
 435:H:/STM32H7/RGB_LVGL/Middlewares/LVGL/GUI/lvgl/src/core\lv_obj_style_gen.h **** 
 436:H:/STM32H7/RGB_LVGL/Middlewares/LVGL/GUI/lvgl/src/core\lv_obj_style_gen.h **** static inline lv_color_t lv_obj_get_style_image_recolor(const lv_obj_t * obj, lv_part_t part)
 437:H:/STM32H7/RGB_LVGL/Middlewares/LVGL/GUI/lvgl/src/core\lv_obj_style_gen.h **** {
 438:H:/STM32H7/RGB_LVGL/Middlewares/LVGL/GUI/lvgl/src/core\lv_obj_style_gen.h ****     lv_style_value_t v = lv_obj_get_style_prop(obj, part, LV_STYLE_IMAGE_RECOLOR);
 439:H:/STM32H7/RGB_LVGL/Middlewares/LVGL/GUI/lvgl/src/core\lv_obj_style_gen.h ****     return v.color;
 440:H:/STM32H7/RGB_LVGL/Middlewares/LVGL/GUI/lvgl/src/core\lv_obj_style_gen.h **** }
 441:H:/STM32H7/RGB_LVGL/Middlewares/LVGL/GUI/lvgl/src/core\lv_obj_style_gen.h **** 
 442:H:/STM32H7/RGB_LVGL/Middlewares/LVGL/GUI/lvgl/src/core\lv_obj_style_gen.h **** static inline lv_color_t lv_obj_get_style_image_recolor_filtered(const lv_obj_t * obj, lv_part_t pa
 443:H:/STM32H7/RGB_LVGL/Middlewares/LVGL/GUI/lvgl/src/core\lv_obj_style_gen.h **** {
 444:H:/STM32H7/RGB_LVGL/Middlewares/LVGL/GUI/lvgl/src/core\lv_obj_style_gen.h ****     lv_style_value_t v = lv_obj_style_apply_color_filter(obj, part, lv_obj_get_style_prop(obj, part
 445:H:/STM32H7/RGB_LVGL/Middlewares/LVGL/GUI/lvgl/src/core\lv_obj_style_gen.h ****     return v.color;
 446:H:/STM32H7/RGB_LVGL/Middlewares/LVGL/GUI/lvgl/src/core\lv_obj_style_gen.h **** }
 447:H:/STM32H7/RGB_LVGL/Middlewares/LVGL/GUI/lvgl/src/core\lv_obj_style_gen.h **** 
 448:H:/STM32H7/RGB_LVGL/Middlewares/LVGL/GUI/lvgl/src/core\lv_obj_style_gen.h **** static inline lv_opa_t lv_obj_get_style_image_recolor_opa(const lv_obj_t * obj, lv_part_t part)
 449:H:/STM32H7/RGB_LVGL/Middlewares/LVGL/GUI/lvgl/src/core\lv_obj_style_gen.h **** {
 450:H:/STM32H7/RGB_LVGL/Middlewares/LVGL/GUI/lvgl/src/core\lv_obj_style_gen.h ****     lv_style_value_t v = lv_obj_get_style_prop(obj, part, LV_STYLE_IMAGE_RECOLOR_OPA);
 451:H:/STM32H7/RGB_LVGL/Middlewares/LVGL/GUI/lvgl/src/core\lv_obj_style_gen.h ****     return (lv_opa_t)v.num;
 452:H:/STM32H7/RGB_LVGL/Middlewares/LVGL/GUI/lvgl/src/core\lv_obj_style_gen.h **** }
 453:H:/STM32H7/RGB_LVGL/Middlewares/LVGL/GUI/lvgl/src/core\lv_obj_style_gen.h **** 
 454:H:/STM32H7/RGB_LVGL/Middlewares/LVGL/GUI/lvgl/src/core\lv_obj_style_gen.h **** static inline int32_t lv_obj_get_style_line_width(const lv_obj_t * obj, lv_part_t part)
 254              		.loc 2 454 23 view .LVU67
 255              	.LBB13:
 455:H:/STM32H7/RGB_LVGL/Middlewares/LVGL/GUI/lvgl/src/core\lv_obj_style_gen.h **** {
 456:H:/STM32H7/RGB_LVGL/Middlewares/LVGL/GUI/lvgl/src/core\lv_obj_style_gen.h ****     lv_style_value_t v = lv_obj_get_style_prop(obj, part, LV_STYLE_LINE_WIDTH);
 256              		.loc 2 456 5 view .LVU68
 257              		.loc 2 456 26 is_stmt 0 view .LVU69
 258 0086 4822     		movs	r2, #72
 259 0088 0021     		movs	r1, #0
 260 008a FFF7FEFF 		bl	lv_obj_get_style_prop
 261              	.LVL30:
ARM GAS  C:\Users\28576\AppData\Local\Temp\ccBC7uBe.s 			page 19


 262              		.loc 2 456 26 view .LVU70
 263 008e 0446     		mov	r4, r0
 264              	.LVL31:
 265              		.loc 2 456 26 view .LVU71
 266 0090 0690     		str	r0, [sp, #24]
 457:H:/STM32H7/RGB_LVGL/Middlewares/LVGL/GUI/lvgl/src/core\lv_obj_style_gen.h ****     return (int32_t)v.num;
 267              		.loc 2 457 5 is_stmt 1 view .LVU72
 268              	.LVL32:
 269              		.loc 2 457 5 is_stmt 0 view .LVU73
 270              	.LBE13:
 271              	.LBE12:
 200:../../Middlewares/LVGL/GUI/lvgl/src/widgets/line/lv_line.c ****         if(*s < line_width) *s = line_width;
 272              		.loc 1 200 9 is_stmt 1 view .LVU74
 200:../../Middlewares/LVGL/GUI/lvgl/src/widgets/line/lv_line.c ****         if(*s < line_width) *s = line_width;
 273              		.loc 1 200 23 is_stmt 0 view .LVU75
 274 0092 3046     		mov	r0, r6
 275              	.LVL33:
 200:../../Middlewares/LVGL/GUI/lvgl/src/widgets/line/lv_line.c ****         if(*s < line_width) *s = line_width;
 276              		.loc 1 200 23 view .LVU76
 277 0094 FFF7FEFF 		bl	lv_event_get_param
 278              	.LVL34:
 201:../../Middlewares/LVGL/GUI/lvgl/src/widgets/line/lv_line.c ****     }
 279              		.loc 1 201 9 is_stmt 1 view .LVU77
 201:../../Middlewares/LVGL/GUI/lvgl/src/widgets/line/lv_line.c ****     }
 280              		.loc 1 201 12 is_stmt 0 view .LVU78
 281 0098 0368     		ldr	r3, [r0]
 201:../../Middlewares/LVGL/GUI/lvgl/src/widgets/line/lv_line.c ****     }
 282              		.loc 1 201 11 view .LVU79
 283 009a A342     		cmp	r3, r4
 284 009c B9DA     		bge	.L6
 201:../../Middlewares/LVGL/GUI/lvgl/src/widgets/line/lv_line.c ****     }
 285              		.loc 1 201 29 is_stmt 1 discriminator 1 view .LVU80
 201:../../Middlewares/LVGL/GUI/lvgl/src/widgets/line/lv_line.c ****     }
 286              		.loc 1 201 32 is_stmt 0 discriminator 1 view .LVU81
 287 009e 0460     		str	r4, [r0]
 288 00a0 B7E7     		b	.L6
 289              	.LVL35:
 290              	.L25:
 201:../../Middlewares/LVGL/GUI/lvgl/src/widgets/line/lv_line.c ****     }
 291              		.loc 1 201 32 discriminator 1 view .LVU82
 292              	.LBE11:
 293              	.LBB14:
 204:../../Middlewares/LVGL/GUI/lvgl/src/widgets/line/lv_line.c **** 
 294              		.loc 1 204 9 is_stmt 1 view .LVU83
 206:../../Middlewares/LVGL/GUI/lvgl/src/widgets/line/lv_line.c **** 
 295              		.loc 1 206 9 view .LVU84
 206:../../Middlewares/LVGL/GUI/lvgl/src/widgets/line/lv_line.c **** 
 296              		.loc 1 206 16 is_stmt 0 view .LVU85
 297 00a2 036B     		ldr	r3, [r0, #48]
 206:../../Middlewares/LVGL/GUI/lvgl/src/widgets/line/lv_line.c **** 
 298              		.loc 1 206 11 view .LVU86
 299 00a4 002B     		cmp	r3, #0
 300 00a6 B4D0     		beq	.L6
 206:../../Middlewares/LVGL/GUI/lvgl/src/widgets/line/lv_line.c **** 
 301              		.loc 1 206 53 discriminator 2 view .LVU87
 302 00a8 C36A     		ldr	r3, [r0, #44]
 206:../../Middlewares/LVGL/GUI/lvgl/src/widgets/line/lv_line.c **** 
ARM GAS  C:\Users\28576\AppData\Local\Temp\ccBC7uBe.s 			page 20


 303              		.loc 1 206 33 discriminator 2 view .LVU88
 304 00aa 002B     		cmp	r3, #0
 305 00ac B1D0     		beq	.L6
 208:../../Middlewares/LVGL/GUI/lvgl/src/widgets/line/lv_line.c ****         int32_t w = 0;
 306              		.loc 1 208 9 is_stmt 1 view .LVU89
 208:../../Middlewares/LVGL/GUI/lvgl/src/widgets/line/lv_line.c ****         int32_t w = 0;
 307              		.loc 1 208 26 is_stmt 0 view .LVU90
 308 00ae 3046     		mov	r0, r6
 309              	.LVL36:
 208:../../Middlewares/LVGL/GUI/lvgl/src/widgets/line/lv_line.c ****         int32_t w = 0;
 310              		.loc 1 208 26 view .LVU91
 311 00b0 FFF7FEFF 		bl	lv_event_get_param
 312              	.LVL37:
 313 00b4 0646     		mov	r6, r0
 314              	.LVL38:
 209:../../Middlewares/LVGL/GUI/lvgl/src/widgets/line/lv_line.c ****         int32_t h = 0;
 315              		.loc 1 209 9 is_stmt 1 view .LVU92
 210:../../Middlewares/LVGL/GUI/lvgl/src/widgets/line/lv_line.c **** 
 316              		.loc 1 210 9 view .LVU93
 212:../../Middlewares/LVGL/GUI/lvgl/src/widgets/line/lv_line.c ****         for(i = 0; i < line->point_num; i++) {
 317              		.loc 1 212 9 view .LVU94
 213:../../Middlewares/LVGL/GUI/lvgl/src/widgets/line/lv_line.c ****             if(!LV_COORD_IS_PCT((int32_t)line->point_array.constant[i].x)) {
 318              		.loc 1 213 9 view .LVU95
 213:../../Middlewares/LVGL/GUI/lvgl/src/widgets/line/lv_line.c ****             if(!LV_COORD_IS_PCT((int32_t)line->point_array.constant[i].x)) {
 319              		.loc 1 213 15 is_stmt 0 view .LVU96
 320 00b6 0023     		movs	r3, #0
 210:../../Middlewares/LVGL/GUI/lvgl/src/widgets/line/lv_line.c **** 
 321              		.loc 1 210 17 view .LVU97
 322 00b8 1846     		mov	r0, r3
 323              	.LVL39:
 209:../../Middlewares/LVGL/GUI/lvgl/src/widgets/line/lv_line.c ****         int32_t h = 0;
 324              		.loc 1 209 17 view .LVU98
 325 00ba 9E46     		mov	lr, r3
 213:../../Middlewares/LVGL/GUI/lvgl/src/widgets/line/lv_line.c ****             if(!LV_COORD_IS_PCT((int32_t)line->point_array.constant[i].x)) {
 326              		.loc 1 213 9 view .LVU99
 327 00bc 0AE0     		b	.L10
 328              	.LVL40:
 329              	.L27:
 214:../../Middlewares/LVGL/GUI/lvgl/src/widgets/line/lv_line.c ****                 w = (int32_t)LV_MAX(line->point_array.constant[i].x, w);
 330              		.loc 1 214 17 discriminator 1 view .LVU100
 331 00be 22F0C04C 		bic	ip, r2, #1610612736
 214:../../Middlewares/LVGL/GUI/lvgl/src/widgets/line/lv_line.c ****                 w = (int32_t)LV_MAX(line->point_array.constant[i].x, w);
 332              		.loc 1 214 16 discriminator 1 view .LVU101
 333 00c2 6FF06045 		mvn	r5, #-536870912
 334 00c6 AC45     		cmp	ip, r5
 335 00c8 14DB     		blt	.L12
 336 00ca 10E0     		b	.L11
 337              	.L13:
 219:../../Middlewares/LVGL/GUI/lvgl/src/widgets/line/lv_line.c ****             }
 338              		.loc 1 219 17 is_stmt 1 view .LVU102
 219:../../Middlewares/LVGL/GUI/lvgl/src/widgets/line/lv_line.c ****             }
 339              		.loc 1 219 19 is_stmt 0 view .LVU103
 340 00cc 9042     		cmp	r0, r2
 341 00ce B8BF     		it	lt
 342 00d0 1046     		movlt	r0, r2
 343              	.LVL41:
 344              	.L14:
ARM GAS  C:\Users\28576\AppData\Local\Temp\ccBC7uBe.s 			page 21


 213:../../Middlewares/LVGL/GUI/lvgl/src/widgets/line/lv_line.c ****             if(!LV_COORD_IS_PCT((int32_t)line->point_array.constant[i].x)) {
 345              		.loc 1 213 42 is_stmt 1 discriminator 2 view .LVU104
 346 00d2 0133     		adds	r3, r3, #1
 347              	.LVL42:
 348              	.L10:
 213:../../Middlewares/LVGL/GUI/lvgl/src/widgets/line/lv_line.c ****             if(!LV_COORD_IS_PCT((int32_t)line->point_array.constant[i].x)) {
 349              		.loc 1 213 22 discriminator 1 view .LVU105
 213:../../Middlewares/LVGL/GUI/lvgl/src/widgets/line/lv_line.c ****             if(!LV_COORD_IS_PCT((int32_t)line->point_array.constant[i].x)) {
 350              		.loc 1 213 28 is_stmt 0 discriminator 1 view .LVU106
 351 00d4 226B     		ldr	r2, [r4, #48]
 213:../../Middlewares/LVGL/GUI/lvgl/src/widgets/line/lv_line.c ****             if(!LV_COORD_IS_PCT((int32_t)line->point_array.constant[i].x)) {
 352              		.loc 1 213 22 discriminator 1 view .LVU107
 353 00d6 9A42     		cmp	r2, r3
 354 00d8 19D9     		bls	.L26
 214:../../Middlewares/LVGL/GUI/lvgl/src/widgets/line/lv_line.c ****                 w = (int32_t)LV_MAX(line->point_array.constant[i].x, w);
 355              		.loc 1 214 13 is_stmt 1 view .LVU108
 214:../../Middlewares/LVGL/GUI/lvgl/src/widgets/line/lv_line.c ****                 w = (int32_t)LV_MAX(line->point_array.constant[i].x, w);
 356              		.loc 1 214 17 is_stmt 0 view .LVU109
 357 00da E26A     		ldr	r2, [r4, #44]
 358 00dc 02EBC301 		add	r1, r2, r3, lsl #3
 359 00e0 52F83320 		ldr	r2, [r2, r3, lsl #3]
 360 00e4 02F0C04C 		and	ip, r2, #1610612736
 214:../../Middlewares/LVGL/GUI/lvgl/src/widgets/line/lv_line.c ****                 w = (int32_t)LV_MAX(line->point_array.constant[i].x, w);
 361              		.loc 1 214 15 view .LVU110
 362 00e8 BCF1005F 		cmp	ip, #536870912
 363 00ec E7D0     		beq	.L27
 364              	.L11:
 215:../../Middlewares/LVGL/GUI/lvgl/src/widgets/line/lv_line.c ****             }
 365              		.loc 1 215 17 is_stmt 1 view .LVU111
 215:../../Middlewares/LVGL/GUI/lvgl/src/widgets/line/lv_line.c ****             }
 366              		.loc 1 215 19 is_stmt 0 view .LVU112
 367 00ee 9645     		cmp	lr, r2
 368 00f0 B8BF     		it	lt
 369 00f2 9646     		movlt	lr, r2
 370              	.LVL43:
 371              	.L12:
 218:../../Middlewares/LVGL/GUI/lvgl/src/widgets/line/lv_line.c ****                 h = (int32_t)LV_MAX(line->point_array.constant[i].y, h);
 372              		.loc 1 218 13 is_stmt 1 view .LVU113
 218:../../Middlewares/LVGL/GUI/lvgl/src/widgets/line/lv_line.c ****                 h = (int32_t)LV_MAX(line->point_array.constant[i].y, h);
 373              		.loc 1 218 17 is_stmt 0 view .LVU114
 374 00f4 4A68     		ldr	r2, [r1, #4]
 375 00f6 02F0C041 		and	r1, r2, #1610612736
 218:../../Middlewares/LVGL/GUI/lvgl/src/widgets/line/lv_line.c ****                 h = (int32_t)LV_MAX(line->point_array.constant[i].y, h);
 376              		.loc 1 218 15 view .LVU115
 377 00fa B1F1005F 		cmp	r1, #536870912
 378 00fe E5D1     		bne	.L13
 218:../../Middlewares/LVGL/GUI/lvgl/src/widgets/line/lv_line.c ****                 h = (int32_t)LV_MAX(line->point_array.constant[i].y, h);
 379              		.loc 1 218 17 discriminator 1 view .LVU116
 380 0100 22F0C04C 		bic	ip, r2, #1610612736
 218:../../Middlewares/LVGL/GUI/lvgl/src/widgets/line/lv_line.c ****                 h = (int32_t)LV_MAX(line->point_array.constant[i].y, h);
 381              		.loc 1 218 16 discriminator 1 view .LVU117
 382 0104 6FF06041 		mvn	r1, #-536870912
 383 0108 8C45     		cmp	ip, r1
 384 010a E2DB     		blt	.L14
 385 010c DEE7     		b	.L13
 386              	.L26:
 223:../../Middlewares/LVGL/GUI/lvgl/src/widgets/line/lv_line.c ****         p->y = h;
ARM GAS  C:\Users\28576\AppData\Local\Temp\ccBC7uBe.s 			page 22


 387              		.loc 1 223 9 is_stmt 1 view .LVU118
 223:../../Middlewares/LVGL/GUI/lvgl/src/widgets/line/lv_line.c ****         p->y = h;
 388              		.loc 1 223 14 is_stmt 0 view .LVU119
 389 010e C6F800E0 		str	lr, [r6]
 224:../../Middlewares/LVGL/GUI/lvgl/src/widgets/line/lv_line.c ****     }
 390              		.loc 1 224 9 is_stmt 1 view .LVU120
 224:../../Middlewares/LVGL/GUI/lvgl/src/widgets/line/lv_line.c ****     }
 391              		.loc 1 224 14 is_stmt 0 view .LVU121
 392 0112 7060     		str	r0, [r6, #4]
 393              	.LBE14:
 394 0114 7DE7     		b	.L6
 395              	.LVL44:
 396              	.L19:
 397              	.LBB15:
 398              	.LBB9:
 259:../../Middlewares/LVGL/GUI/lvgl/src/widgets/line/lv_line.c ****                 line_dsc.p2.y = h - line_dsc.p2.y + y_ofs;
 399              		.loc 1 259 17 is_stmt 1 view .LVU122
 259:../../Middlewares/LVGL/GUI/lvgl/src/widgets/line/lv_line.c ****                 line_dsc.p2.y = h - line_dsc.p2.y + y_ofs;
 400              		.loc 1 259 35 is_stmt 0 view .LVU123
 401 0116 4246     		mov	r2, r8
 402 0118 009B     		ldr	r3, [sp]
 403 011a D31A     		subs	r3, r2, r3
 259:../../Middlewares/LVGL/GUI/lvgl/src/widgets/line/lv_line.c ****                 line_dsc.p2.y = h - line_dsc.p2.y + y_ofs;
 404              		.loc 1 259 51 view .LVU124
 405 011c 0199     		ldr	r1, [sp, #4]
 406 011e 0B44     		add	r3, r3, r1
 259:../../Middlewares/LVGL/GUI/lvgl/src/widgets/line/lv_line.c ****                 line_dsc.p2.y = h - line_dsc.p2.y + y_ofs;
 407              		.loc 1 259 31 view .LVU125
 408 0120 0E93     		str	r3, [sp, #56]
 260:../../Middlewares/LVGL/GUI/lvgl/src/widgets/line/lv_line.c ****             }
 409              		.loc 1 260 17 is_stmt 1 view .LVU126
 260:../../Middlewares/LVGL/GUI/lvgl/src/widgets/line/lv_line.c ****             }
 410              		.loc 1 260 35 is_stmt 0 view .LVU127
 411 0122 131A     		subs	r3, r2, r0
 260:../../Middlewares/LVGL/GUI/lvgl/src/widgets/line/lv_line.c ****             }
 412              		.loc 1 260 51 view .LVU128
 413 0124 0B44     		add	r3, r3, r1
 260:../../Middlewares/LVGL/GUI/lvgl/src/widgets/line/lv_line.c ****             }
 414              		.loc 1 260 31 view .LVU129
 415 0126 1093     		str	r3, [sp, #64]
 416              	.L20:
 263:../../Middlewares/LVGL/GUI/lvgl/src/widgets/line/lv_line.c ****             line_dsc.round_start = 0;   /*Draw the rounding only on the end points after the first 
 417              		.loc 1 263 13 is_stmt 1 view .LVU130
 418 0128 06A9     		add	r1, sp, #24
 419 012a 5846     		mov	r0, fp
 420 012c FFF7FEFF 		bl	lv_draw_line
 421              	.LVL45:
 264:../../Middlewares/LVGL/GUI/lvgl/src/widgets/line/lv_line.c ****         }
 422              		.loc 1 264 13 view .LVU131
 264:../../Middlewares/LVGL/GUI/lvgl/src/widgets/line/lv_line.c ****         }
 423              		.loc 1 264 34 is_stmt 0 view .LVU132
 424 0130 9DF85530 		ldrb	r3, [sp, #85]	@ zero_extendqisi2
 425 0134 23F00103 		bic	r3, r3, #1
 426 0138 8DF85530 		strb	r3, [sp, #85]
 427              	.LBE9:
 244:../../Middlewares/LVGL/GUI/lvgl/src/widgets/line/lv_line.c ****             int32_t w = lv_obj_get_width(obj);
 428              		.loc 1 244 46 is_stmt 1 discriminator 2 view .LVU133
ARM GAS  C:\Users\28576\AppData\Local\Temp\ccBC7uBe.s 			page 23


 429              	.LVL46:
 430              	.L18:
 244:../../Middlewares/LVGL/GUI/lvgl/src/widgets/line/lv_line.c ****             int32_t w = lv_obj_get_width(obj);
 431              		.loc 1 244 22 discriminator 1 view .LVU134
 244:../../Middlewares/LVGL/GUI/lvgl/src/widgets/line/lv_line.c ****             int32_t w = lv_obj_get_width(obj);
 432              		.loc 1 244 28 is_stmt 0 discriminator 1 view .LVU135
 433 013c 236B     		ldr	r3, [r4, #48]
 244:../../Middlewares/LVGL/GUI/lvgl/src/widgets/line/lv_line.c ****             int32_t w = lv_obj_get_width(obj);
 434              		.loc 1 244 40 discriminator 1 view .LVU136
 435 013e 013B     		subs	r3, r3, #1
 244:../../Middlewares/LVGL/GUI/lvgl/src/widgets/line/lv_line.c ****             int32_t w = lv_obj_get_width(obj);
 436              		.loc 1 244 22 discriminator 1 view .LVU137
 437 0140 5345     		cmp	r3, r10
 438 0142 7FF666AF 		bls	.L6
 439              	.LBB10:
 245:../../Middlewares/LVGL/GUI/lvgl/src/widgets/line/lv_line.c ****             int32_t h = lv_obj_get_height(obj);
 440              		.loc 1 245 13 is_stmt 1 view .LVU138
 245:../../Middlewares/LVGL/GUI/lvgl/src/widgets/line/lv_line.c ****             int32_t h = lv_obj_get_height(obj);
 441              		.loc 1 245 25 is_stmt 0 view .LVU139
 442 0146 2046     		mov	r0, r4
 443 0148 FFF7FEFF 		bl	lv_obj_get_width
 444              	.LVL47:
 445 014c 8146     		mov	r9, r0
 446              	.LVL48:
 246:../../Middlewares/LVGL/GUI/lvgl/src/widgets/line/lv_line.c **** 
 447              		.loc 1 246 13 is_stmt 1 view .LVU140
 246:../../Middlewares/LVGL/GUI/lvgl/src/widgets/line/lv_line.c **** 
 448              		.loc 1 246 25 is_stmt 0 view .LVU141
 449 014e 2046     		mov	r0, r4
 450              	.LVL49:
 246:../../Middlewares/LVGL/GUI/lvgl/src/widgets/line/lv_line.c **** 
 451              		.loc 1 246 25 view .LVU142
 452 0150 FFF7FEFF 		bl	lv_obj_get_height
 453              	.LVL50:
 454 0154 8046     		mov	r8, r0
 455              	.LVL51:
 248:../../Middlewares/LVGL/GUI/lvgl/src/widgets/line/lv_line.c ****             line_dsc.p1.y = resolve_point_coord(line->point_array.constant[i].y, h);
 456              		.loc 1 248 13 is_stmt 1 view .LVU143
 248:../../Middlewares/LVGL/GUI/lvgl/src/widgets/line/lv_line.c ****             line_dsc.p1.y = resolve_point_coord(line->point_array.constant[i].y, h);
 457              		.loc 1 248 66 is_stmt 0 view .LVU144
 458 0156 E56A     		ldr	r5, [r4, #44]
 248:../../Middlewares/LVGL/GUI/lvgl/src/widgets/line/lv_line.c ****             line_dsc.p1.y = resolve_point_coord(line->point_array.constant[i].y, h);
 459              		.loc 1 248 75 view .LVU145
 460 0158 5646     		mov	r6, r10
 461 015a 05EBCA03 		add	r3, r5, r10, lsl #3
 462 015e 0093     		str	r3, [sp]
 248:../../Middlewares/LVGL/GUI/lvgl/src/widgets/line/lv_line.c ****             line_dsc.p1.y = resolve_point_coord(line->point_array.constant[i].y, h);
 463              		.loc 1 248 29 view .LVU146
 464 0160 4946     		mov	r1, r9
 465 0162 55F83A00 		ldr	r0, [r5, r10, lsl #3]
 466              	.LVL52:
 248:../../Middlewares/LVGL/GUI/lvgl/src/widgets/line/lv_line.c ****             line_dsc.p1.y = resolve_point_coord(line->point_array.constant[i].y, h);
 467              		.loc 1 248 29 view .LVU147
 468 0166 FFF7FEFF 		bl	resolve_point_coord
 469              	.LVL53:
 248:../../Middlewares/LVGL/GUI/lvgl/src/widgets/line/lv_line.c ****             line_dsc.p1.y = resolve_point_coord(line->point_array.constant[i].y, h);
 470              		.loc 1 248 85 discriminator 1 view .LVU148
ARM GAS  C:\Users\28576\AppData\Local\Temp\ccBC7uBe.s 			page 24


 471 016a 3844     		add	r0, r0, r7
 248:../../Middlewares/LVGL/GUI/lvgl/src/widgets/line/lv_line.c ****             line_dsc.p1.y = resolve_point_coord(line->point_array.constant[i].y, h);
 472              		.loc 1 248 27 discriminator 1 view .LVU149
 473 016c 0D90     		str	r0, [sp, #52]
 249:../../Middlewares/LVGL/GUI/lvgl/src/widgets/line/lv_line.c **** 
 474              		.loc 1 249 13 is_stmt 1 view .LVU150
 249:../../Middlewares/LVGL/GUI/lvgl/src/widgets/line/lv_line.c **** 
 475              		.loc 1 249 29 is_stmt 0 view .LVU151
 476 016e 4146     		mov	r1, r8
 477 0170 009B     		ldr	r3, [sp]
 478 0172 5868     		ldr	r0, [r3, #4]
 479 0174 FFF7FEFF 		bl	resolve_point_coord
 480              	.LVL54:
 249:../../Middlewares/LVGL/GUI/lvgl/src/widgets/line/lv_line.c **** 
 481              		.loc 1 249 27 discriminator 1 view .LVU152
 482 0178 0090     		str	r0, [sp]
 483 017a 0E90     		str	r0, [sp, #56]
 251:../../Middlewares/LVGL/GUI/lvgl/src/widgets/line/lv_line.c ****             line_dsc.p2.y = resolve_point_coord(line->point_array.constant[i + 1].y, h);
 484              		.loc 1 251 13 is_stmt 1 view .LVU153
 251:../../Middlewares/LVGL/GUI/lvgl/src/widgets/line/lv_line.c ****             line_dsc.p2.y = resolve_point_coord(line->point_array.constant[i + 1].y, h);
 485              		.loc 1 251 78 is_stmt 0 view .LVU154
 486 017c 731C     		adds	r3, r6, #1
 487 017e 9A46     		mov	r10, r3
 488              	.LVL55:
 251:../../Middlewares/LVGL/GUI/lvgl/src/widgets/line/lv_line.c ****             line_dsc.p2.y = resolve_point_coord(line->point_array.constant[i + 1].y, h);
 489              		.loc 1 251 75 view .LVU155
 490 0180 05EBC306 		add	r6, r5, r3, lsl #3
 491              	.LVL56:
 251:../../Middlewares/LVGL/GUI/lvgl/src/widgets/line/lv_line.c ****             line_dsc.p2.y = resolve_point_coord(line->point_array.constant[i + 1].y, h);
 492              		.loc 1 251 29 view .LVU156
 493 0184 4946     		mov	r1, r9
 494 0186 55F83300 		ldr	r0, [r5, r3, lsl #3]
 495 018a FFF7FEFF 		bl	resolve_point_coord
 496              	.LVL57:
 251:../../Middlewares/LVGL/GUI/lvgl/src/widgets/line/lv_line.c ****             line_dsc.p2.y = resolve_point_coord(line->point_array.constant[i + 1].y, h);
 497              		.loc 1 251 89 discriminator 1 view .LVU157
 498 018e 3844     		add	r0, r0, r7
 251:../../Middlewares/LVGL/GUI/lvgl/src/widgets/line/lv_line.c ****             line_dsc.p2.y = resolve_point_coord(line->point_array.constant[i + 1].y, h);
 499              		.loc 1 251 27 discriminator 1 view .LVU158
 500 0190 0F90     		str	r0, [sp, #60]
 252:../../Middlewares/LVGL/GUI/lvgl/src/widgets/line/lv_line.c **** 
 501              		.loc 1 252 13 is_stmt 1 view .LVU159
 252:../../Middlewares/LVGL/GUI/lvgl/src/widgets/line/lv_line.c **** 
 502              		.loc 1 252 29 is_stmt 0 view .LVU160
 503 0192 4146     		mov	r1, r8
 504 0194 7068     		ldr	r0, [r6, #4]
 505 0196 FFF7FEFF 		bl	resolve_point_coord
 506              	.LVL58:
 252:../../Middlewares/LVGL/GUI/lvgl/src/widgets/line/lv_line.c **** 
 507              		.loc 1 252 27 discriminator 1 view .LVU161
 508 019a 1090     		str	r0, [sp, #64]
 254:../../Middlewares/LVGL/GUI/lvgl/src/widgets/line/lv_line.c ****                 line_dsc.p1.y = line_dsc.p1.y + y_ofs;
 509              		.loc 1 254 13 is_stmt 1 view .LVU162
 254:../../Middlewares/LVGL/GUI/lvgl/src/widgets/line/lv_line.c ****                 line_dsc.p1.y = line_dsc.p1.y + y_ofs;
 510              		.loc 1 254 28 is_stmt 0 view .LVU163
 511 019c 94F83430 		ldrb	r3, [r4, #52]	@ zero_extendqisi2
 254:../../Middlewares/LVGL/GUI/lvgl/src/widgets/line/lv_line.c ****                 line_dsc.p1.y = line_dsc.p1.y + y_ofs;
ARM GAS  C:\Users\28576\AppData\Local\Temp\ccBC7uBe.s 			page 25


 512              		.loc 1 254 15 view .LVU164
 513 01a0 13F0010F 		tst	r3, #1
 514 01a4 B7D1     		bne	.L19
 255:../../Middlewares/LVGL/GUI/lvgl/src/widgets/line/lv_line.c ****                 line_dsc.p2.y = line_dsc.p2.y + y_ofs;
 515              		.loc 1 255 17 is_stmt 1 view .LVU165
 255:../../Middlewares/LVGL/GUI/lvgl/src/widgets/line/lv_line.c ****                 line_dsc.p2.y = line_dsc.p2.y + y_ofs;
 516              		.loc 1 255 47 is_stmt 0 view .LVU166
 517 01a6 009B     		ldr	r3, [sp]
 518 01a8 019A     		ldr	r2, [sp, #4]
 519 01aa 1344     		add	r3, r3, r2
 255:../../Middlewares/LVGL/GUI/lvgl/src/widgets/line/lv_line.c ****                 line_dsc.p2.y = line_dsc.p2.y + y_ofs;
 520              		.loc 1 255 31 view .LVU167
 521 01ac 0E93     		str	r3, [sp, #56]
 256:../../Middlewares/LVGL/GUI/lvgl/src/widgets/line/lv_line.c ****             }
 522              		.loc 1 256 17 is_stmt 1 view .LVU168
 256:../../Middlewares/LVGL/GUI/lvgl/src/widgets/line/lv_line.c ****             }
 523              		.loc 1 256 47 is_stmt 0 view .LVU169
 524 01ae 1044     		add	r0, r0, r2
 256:../../Middlewares/LVGL/GUI/lvgl/src/widgets/line/lv_line.c ****             }
 525              		.loc 1 256 31 view .LVU170
 526 01b0 1090     		str	r0, [sp, #64]
 527 01b2 B9E7     		b	.L20
 528              	.L29:
 529              		.align	2
 530              	.L28:
 531 01b4 00000000 		.word	lv_line_class
 532              	.LBE10:
 533              	.LBE15:
 534              		.cfi_endproc
 535              	.LFE184:
 537              		.section	.text.lv_line_constructor,"ax",%progbits
 538              		.align	1
 539              		.syntax unified
 540              		.thumb
 541              		.thumb_func
 543              	lv_line_constructor:
 544              	.LVL59:
 545              	.LFB181:
 144:../../Middlewares/LVGL/GUI/lvgl/src/widgets/line/lv_line.c ****     LV_UNUSED(class_p);
 546              		.loc 1 144 1 is_stmt 1 view -0
 547              		.cfi_startproc
 548              		@ args = 0, pretend = 0, frame = 0
 549              		@ frame_needed = 0, uses_anonymous_args = 0
 144:../../Middlewares/LVGL/GUI/lvgl/src/widgets/line/lv_line.c ****     LV_UNUSED(class_p);
 550              		.loc 1 144 1 is_stmt 0 view .LVU172
 551 0000 08B5     		push	{r3, lr}
 552              	.LCFI4:
 553              		.cfi_def_cfa_offset 8
 554              		.cfi_offset 3, -8
 555              		.cfi_offset 14, -4
 556 0002 0846     		mov	r0, r1
 557              	.LVL60:
 145:../../Middlewares/LVGL/GUI/lvgl/src/widgets/line/lv_line.c ****     LV_TRACE_OBJ_CREATE("begin");
 558              		.loc 1 145 5 is_stmt 1 view .LVU173
 146:../../Middlewares/LVGL/GUI/lvgl/src/widgets/line/lv_line.c **** 
 559              		.loc 1 146 33 view .LVU174
 148:../../Middlewares/LVGL/GUI/lvgl/src/widgets/line/lv_line.c **** 
ARM GAS  C:\Users\28576\AppData\Local\Temp\ccBC7uBe.s 			page 26


 560              		.loc 1 148 5 view .LVU175
 150:../../Middlewares/LVGL/GUI/lvgl/src/widgets/line/lv_line.c ****     line->point_array.constant = NULL;
 561              		.loc 1 150 5 view .LVU176
 150:../../Middlewares/LVGL/GUI/lvgl/src/widgets/line/lv_line.c ****     line->point_array.constant = NULL;
 562              		.loc 1 150 23 is_stmt 0 view .LVU177
 563 0004 0023     		movs	r3, #0
 564 0006 0B63     		str	r3, [r1, #48]
 151:../../Middlewares/LVGL/GUI/lvgl/src/widgets/line/lv_line.c ****     line->y_inv       = 0;
 565              		.loc 1 151 5 is_stmt 1 view .LVU178
 151:../../Middlewares/LVGL/GUI/lvgl/src/widgets/line/lv_line.c ****     line->y_inv       = 0;
 566              		.loc 1 151 32 is_stmt 0 view .LVU179
 567 0008 CB62     		str	r3, [r1, #44]
 152:../../Middlewares/LVGL/GUI/lvgl/src/widgets/line/lv_line.c ****     line->point_array_is_mutable = 0;
 568              		.loc 1 152 5 is_stmt 1 view .LVU180
 152:../../Middlewares/LVGL/GUI/lvgl/src/widgets/line/lv_line.c ****     line->point_array_is_mutable = 0;
 569              		.loc 1 152 23 is_stmt 0 view .LVU181
 570 000a 91F83430 		ldrb	r3, [r1, #52]	@ zero_extendqisi2
 571 000e 23F00103 		bic	r3, r3, #1
 572 0012 81F83430 		strb	r3, [r1, #52]
 153:../../Middlewares/LVGL/GUI/lvgl/src/widgets/line/lv_line.c **** 
 573              		.loc 1 153 5 is_stmt 1 view .LVU182
 153:../../Middlewares/LVGL/GUI/lvgl/src/widgets/line/lv_line.c **** 
 574              		.loc 1 153 34 is_stmt 0 view .LVU183
 575 0016 DBB2     		uxtb	r3, r3
 576 0018 23F00203 		bic	r3, r3, #2
 577 001c 81F83430 		strb	r3, [r1, #52]
 155:../../Middlewares/LVGL/GUI/lvgl/src/widgets/line/lv_line.c **** 
 578              		.loc 1 155 5 is_stmt 1 view .LVU184
 579 0020 0221     		movs	r1, #2
 580              	.LVL61:
 155:../../Middlewares/LVGL/GUI/lvgl/src/widgets/line/lv_line.c **** 
 581              		.loc 1 155 5 is_stmt 0 view .LVU185
 582 0022 FFF7FEFF 		bl	lv_obj_remove_flag
 583              	.LVL62:
 157:../../Middlewares/LVGL/GUI/lvgl/src/widgets/line/lv_line.c **** }
 584              		.loc 1 157 36 is_stmt 1 view .LVU186
 158:../../Middlewares/LVGL/GUI/lvgl/src/widgets/line/lv_line.c **** 
 585              		.loc 1 158 1 is_stmt 0 view .LVU187
 586 0026 08BD     		pop	{r3, pc}
 587              		.cfi_endproc
 588              	.LFE181:
 590              		.section	.text.line_set_points,"ax",%progbits
 591              		.align	1
 592              		.syntax unified
 593              		.thumb
 594              		.thumb_func
 596              	line_set_points:
 597              	.LVL63:
 598              	.LFB182:
 161:../../Middlewares/LVGL/GUI/lvgl/src/widgets/line/lv_line.c ****     LV_ASSERT_OBJ(obj, MY_CLASS);
 599              		.loc 1 161 1 is_stmt 1 view -0
 600              		.cfi_startproc
 601              		@ args = 0, pretend = 0, frame = 0
 602              		@ frame_needed = 0, uses_anonymous_args = 0
 162:../../Middlewares/LVGL/GUI/lvgl/src/widgets/line/lv_line.c **** 
 603              		.loc 1 162 5 view .LVU189
 162:../../Middlewares/LVGL/GUI/lvgl/src/widgets/line/lv_line.c **** 
ARM GAS  C:\Users\28576\AppData\Local\Temp\ccBC7uBe.s 			page 27


 604              		.loc 1 162 5 view .LVU190
 605 0000 78B1     		cbz	r0, .L34
 161:../../Middlewares/LVGL/GUI/lvgl/src/widgets/line/lv_line.c ****     LV_ASSERT_OBJ(obj, MY_CLASS);
 606              		.loc 1 161 1 is_stmt 0 view .LVU191
 607 0002 10B5     		push	{r4, lr}
 608              	.LCFI5:
 609              		.cfi_def_cfa_offset 8
 610              		.cfi_offset 4, -8
 611              		.cfi_offset 14, -4
 612 0004 0446     		mov	r4, r0
 162:../../Middlewares/LVGL/GUI/lvgl/src/widgets/line/lv_line.c **** 
 613              		.loc 1 162 5 is_stmt 1 view .LVU192
 162:../../Middlewares/LVGL/GUI/lvgl/src/widgets/line/lv_line.c **** 
 614              		.loc 1 162 33 view .LVU193
 164:../../Middlewares/LVGL/GUI/lvgl/src/widgets/line/lv_line.c ****     line->point_array.constant = points;
 615              		.loc 1 164 5 view .LVU194
 616              	.LVL64:
 165:../../Middlewares/LVGL/GUI/lvgl/src/widgets/line/lv_line.c ****     line->point_num      = point_num;
 617              		.loc 1 165 5 view .LVU195
 165:../../Middlewares/LVGL/GUI/lvgl/src/widgets/line/lv_line.c ****     line->point_num      = point_num;
 618              		.loc 1 165 32 is_stmt 0 view .LVU196
 619 0006 C162     		str	r1, [r0, #44]
 166:../../Middlewares/LVGL/GUI/lvgl/src/widgets/line/lv_line.c ****     line->point_array_is_mutable = mut;
 620              		.loc 1 166 5 is_stmt 1 view .LVU197
 166:../../Middlewares/LVGL/GUI/lvgl/src/widgets/line/lv_line.c ****     line->point_array_is_mutable = mut;
 621              		.loc 1 166 26 is_stmt 0 view .LVU198
 622 0008 0263     		str	r2, [r0, #48]
 167:../../Middlewares/LVGL/GUI/lvgl/src/widgets/line/lv_line.c **** 
 623              		.loc 1 167 5 is_stmt 1 view .LVU199
 167:../../Middlewares/LVGL/GUI/lvgl/src/widgets/line/lv_line.c **** 
 624              		.loc 1 167 34 is_stmt 0 view .LVU200
 625 000a 90F83420 		ldrb	r2, [r0, #52]	@ zero_extendqisi2
 626              	.LVL65:
 167:../../Middlewares/LVGL/GUI/lvgl/src/widgets/line/lv_line.c **** 
 627              		.loc 1 167 34 view .LVU201
 628 000e 63F34102 		bfi	r2, r3, #1, #1
 629 0012 80F83420 		strb	r2, [r0, #52]
 169:../../Middlewares/LVGL/GUI/lvgl/src/widgets/line/lv_line.c **** 
 630              		.loc 1 169 5 is_stmt 1 view .LVU202
 631 0016 FFF7FEFF 		bl	lv_obj_refresh_self_size
 632              	.LVL66:
 171:../../Middlewares/LVGL/GUI/lvgl/src/widgets/line/lv_line.c **** }
 633              		.loc 1 171 5 view .LVU203
 634 001a 2046     		mov	r0, r4
 635 001c FFF7FEFF 		bl	lv_obj_invalidate
 636              	.LVL67:
 172:../../Middlewares/LVGL/GUI/lvgl/src/widgets/line/lv_line.c **** 
 637              		.loc 1 172 1 is_stmt 0 view .LVU204
 638 0020 10BD     		pop	{r4, pc}
 639              	.LVL68:
 640              	.L34:
 641              	.LCFI6:
 642              		.cfi_def_cfa_offset 0
 643              		.cfi_restore 4
 644              		.cfi_restore 14
 162:../../Middlewares/LVGL/GUI/lvgl/src/widgets/line/lv_line.c **** 
 645              		.loc 1 162 5 is_stmt 1 view .LVU205
ARM GAS  C:\Users\28576\AppData\Local\Temp\ccBC7uBe.s 			page 28


 162:../../Middlewares/LVGL/GUI/lvgl/src/widgets/line/lv_line.c **** 
 646              		.loc 1 162 5 view .LVU206
 162:../../Middlewares/LVGL/GUI/lvgl/src/widgets/line/lv_line.c **** 
 647              		.loc 1 162 5 view .LVU207
 162:../../Middlewares/LVGL/GUI/lvgl/src/widgets/line/lv_line.c **** 
 648              		.loc 1 162 5 view .LVU208
 162:../../Middlewares/LVGL/GUI/lvgl/src/widgets/line/lv_line.c **** 
 649              		.loc 1 162 5 view .LVU209
 650 0022 FEE7     		b	.L34
 651              		.cfi_endproc
 652              	.LFE182:
 654              		.section	.text.lv_line_create,"ax",%progbits
 655              		.align	1
 656              		.global	lv_line_create
 657              		.syntax unified
 658              		.thumb
 659              		.thumb_func
 661              	lv_line_create:
 662              	.LVL69:
 663              	.LFB172:
  57:../../Middlewares/LVGL/GUI/lvgl/src/widgets/line/lv_line.c ****     LV_LOG_INFO("begin");
 664              		.loc 1 57 1 view -0
 665              		.cfi_startproc
 666              		@ args = 0, pretend = 0, frame = 0
 667              		@ frame_needed = 0, uses_anonymous_args = 0
  57:../../Middlewares/LVGL/GUI/lvgl/src/widgets/line/lv_line.c ****     LV_LOG_INFO("begin");
 668              		.loc 1 57 1 is_stmt 0 view .LVU211
 669 0000 10B5     		push	{r4, lr}
 670              	.LCFI7:
 671              		.cfi_def_cfa_offset 8
 672              		.cfi_offset 4, -8
 673              		.cfi_offset 14, -4
 674 0002 0146     		mov	r1, r0
  58:../../Middlewares/LVGL/GUI/lvgl/src/widgets/line/lv_line.c ****     lv_obj_t * obj = lv_obj_class_create_obj(MY_CLASS, parent);
 675              		.loc 1 58 5 is_stmt 1 view .LVU212
  58:../../Middlewares/LVGL/GUI/lvgl/src/widgets/line/lv_line.c ****     lv_obj_t * obj = lv_obj_class_create_obj(MY_CLASS, parent);
 676              		.loc 1 58 5 view .LVU213
  58:../../Middlewares/LVGL/GUI/lvgl/src/widgets/line/lv_line.c ****     lv_obj_t * obj = lv_obj_class_create_obj(MY_CLASS, parent);
 677              		.loc 1 58 5 view .LVU214
  59:../../Middlewares/LVGL/GUI/lvgl/src/widgets/line/lv_line.c ****     lv_obj_class_init_obj(obj);
 678              		.loc 1 59 5 view .LVU215
  59:../../Middlewares/LVGL/GUI/lvgl/src/widgets/line/lv_line.c ****     lv_obj_class_init_obj(obj);
 679              		.loc 1 59 22 is_stmt 0 view .LVU216
 680 0004 0348     		ldr	r0, .L39
 681              	.LVL70:
  59:../../Middlewares/LVGL/GUI/lvgl/src/widgets/line/lv_line.c ****     lv_obj_class_init_obj(obj);
 682              		.loc 1 59 22 view .LVU217
 683 0006 FFF7FEFF 		bl	lv_obj_class_create_obj
 684              	.LVL71:
  59:../../Middlewares/LVGL/GUI/lvgl/src/widgets/line/lv_line.c ****     lv_obj_class_init_obj(obj);
 685              		.loc 1 59 22 view .LVU218
 686 000a 0446     		mov	r4, r0
 687              	.LVL72:
  60:../../Middlewares/LVGL/GUI/lvgl/src/widgets/line/lv_line.c ****     return obj;
 688              		.loc 1 60 5 is_stmt 1 view .LVU219
 689 000c FFF7FEFF 		bl	lv_obj_class_init_obj
 690              	.LVL73:
ARM GAS  C:\Users\28576\AppData\Local\Temp\ccBC7uBe.s 			page 29


  61:../../Middlewares/LVGL/GUI/lvgl/src/widgets/line/lv_line.c **** }
 691              		.loc 1 61 5 view .LVU220
  62:../../Middlewares/LVGL/GUI/lvgl/src/widgets/line/lv_line.c **** 
 692              		.loc 1 62 1 is_stmt 0 view .LVU221
 693 0010 2046     		mov	r0, r4
 694 0012 10BD     		pop	{r4, pc}
 695              	.LVL74:
 696              	.L40:
  62:../../Middlewares/LVGL/GUI/lvgl/src/widgets/line/lv_line.c **** 
 697              		.loc 1 62 1 view .LVU222
 698              		.align	2
 699              	.L39:
 700 0014 00000000 		.word	lv_line_class
 701              		.cfi_endproc
 702              	.LFE172:
 704              		.section	.text.lv_line_set_points,"ax",%progbits
 705              		.align	1
 706              		.global	lv_line_set_points
 707              		.syntax unified
 708              		.thumb
 709              		.thumb_func
 711              	lv_line_set_points:
 712              	.LVL75:
 713              	.LFB173:
  69:../../Middlewares/LVGL/GUI/lvgl/src/widgets/line/lv_line.c ****     line_set_points(obj, points, point_num, false);
 714              		.loc 1 69 1 is_stmt 1 view -0
 715              		.cfi_startproc
 716              		@ args = 0, pretend = 0, frame = 0
 717              		@ frame_needed = 0, uses_anonymous_args = 0
  69:../../Middlewares/LVGL/GUI/lvgl/src/widgets/line/lv_line.c ****     line_set_points(obj, points, point_num, false);
 718              		.loc 1 69 1 is_stmt 0 view .LVU224
 719 0000 08B5     		push	{r3, lr}
 720              	.LCFI8:
 721              		.cfi_def_cfa_offset 8
 722              		.cfi_offset 3, -8
 723              		.cfi_offset 14, -4
  70:../../Middlewares/LVGL/GUI/lvgl/src/widgets/line/lv_line.c **** }
 724              		.loc 1 70 5 is_stmt 1 view .LVU225
 725 0002 0023     		movs	r3, #0
 726 0004 FFF7FEFF 		bl	line_set_points
 727              	.LVL76:
  71:../../Middlewares/LVGL/GUI/lvgl/src/widgets/line/lv_line.c **** 
 728              		.loc 1 71 1 is_stmt 0 view .LVU226
 729 0008 08BD     		pop	{r3, pc}
 730              		.cfi_endproc
 731              	.LFE173:
 733              		.section	.text.lv_line_set_points_mutable,"ax",%progbits
 734              		.align	1
 735              		.global	lv_line_set_points_mutable
 736              		.syntax unified
 737              		.thumb
 738              		.thumb_func
 740              	lv_line_set_points_mutable:
 741              	.LVL77:
 742              	.LFB174:
  74:../../Middlewares/LVGL/GUI/lvgl/src/widgets/line/lv_line.c ****     line_set_points(obj, points, point_num, true);
 743              		.loc 1 74 1 is_stmt 1 view -0
ARM GAS  C:\Users\28576\AppData\Local\Temp\ccBC7uBe.s 			page 30


 744              		.cfi_startproc
 745              		@ args = 0, pretend = 0, frame = 0
 746              		@ frame_needed = 0, uses_anonymous_args = 0
  74:../../Middlewares/LVGL/GUI/lvgl/src/widgets/line/lv_line.c ****     line_set_points(obj, points, point_num, true);
 747              		.loc 1 74 1 is_stmt 0 view .LVU228
 748 0000 08B5     		push	{r3, lr}
 749              	.LCFI9:
 750              		.cfi_def_cfa_offset 8
 751              		.cfi_offset 3, -8
 752              		.cfi_offset 14, -4
  75:../../Middlewares/LVGL/GUI/lvgl/src/widgets/line/lv_line.c **** }
 753              		.loc 1 75 5 is_stmt 1 view .LVU229
 754 0002 0123     		movs	r3, #1
 755 0004 FFF7FEFF 		bl	line_set_points
 756              	.LVL78:
  76:../../Middlewares/LVGL/GUI/lvgl/src/widgets/line/lv_line.c **** 
 757              		.loc 1 76 1 is_stmt 0 view .LVU230
 758 0008 08BD     		pop	{r3, pc}
 759              		.cfi_endproc
 760              	.LFE174:
 762              		.section	.text.lv_line_set_y_invert,"ax",%progbits
 763              		.align	1
 764              		.global	lv_line_set_y_invert
 765              		.syntax unified
 766              		.thumb
 767              		.thumb_func
 769              	lv_line_set_y_invert:
 770              	.LVL79:
 771              	.LFB175:
  79:../../Middlewares/LVGL/GUI/lvgl/src/widgets/line/lv_line.c ****     LV_ASSERT_OBJ(obj, MY_CLASS);
 772              		.loc 1 79 1 is_stmt 1 view -0
 773              		.cfi_startproc
 774              		@ args = 0, pretend = 0, frame = 0
 775              		@ frame_needed = 0, uses_anonymous_args = 0
  80:../../Middlewares/LVGL/GUI/lvgl/src/widgets/line/lv_line.c **** 
 776              		.loc 1 80 5 view .LVU232
  80:../../Middlewares/LVGL/GUI/lvgl/src/widgets/line/lv_line.c **** 
 777              		.loc 1 80 5 view .LVU233
 778 0000 78B1     		cbz	r0, .L47
  79:../../Middlewares/LVGL/GUI/lvgl/src/widgets/line/lv_line.c ****     LV_ASSERT_OBJ(obj, MY_CLASS);
 779              		.loc 1 79 1 is_stmt 0 view .LVU234
 780 0002 08B5     		push	{r3, lr}
 781              	.LCFI10:
 782              		.cfi_def_cfa_offset 8
 783              		.cfi_offset 3, -8
 784              		.cfi_offset 14, -4
  80:../../Middlewares/LVGL/GUI/lvgl/src/widgets/line/lv_line.c **** 
 785              		.loc 1 80 5 is_stmt 1 view .LVU235
  80:../../Middlewares/LVGL/GUI/lvgl/src/widgets/line/lv_line.c **** 
 786              		.loc 1 80 33 view .LVU236
  82:../../Middlewares/LVGL/GUI/lvgl/src/widgets/line/lv_line.c ****     if(line->y_inv == en) return;
 787              		.loc 1 82 5 view .LVU237
 788              	.LVL80:
  83:../../Middlewares/LVGL/GUI/lvgl/src/widgets/line/lv_line.c **** 
 789              		.loc 1 83 5 view .LVU238
  83:../../Middlewares/LVGL/GUI/lvgl/src/widgets/line/lv_line.c **** 
 790              		.loc 1 83 12 is_stmt 0 view .LVU239
ARM GAS  C:\Users\28576\AppData\Local\Temp\ccBC7uBe.s 			page 31


 791 0004 90F83420 		ldrb	r2, [r0, #52]	@ zero_extendqisi2
 792 0008 02F00102 		and	r2, r2, #1
  83:../../Middlewares/LVGL/GUI/lvgl/src/widgets/line/lv_line.c **** 
 793              		.loc 1 83 7 view .LVU240
 794 000c 8A42     		cmp	r2, r1
 795 000e 07D0     		beq	.L45
  85:../../Middlewares/LVGL/GUI/lvgl/src/widgets/line/lv_line.c **** 
 796              		.loc 1 85 5 is_stmt 1 view .LVU241
  85:../../Middlewares/LVGL/GUI/lvgl/src/widgets/line/lv_line.c **** 
 797              		.loc 1 85 17 is_stmt 0 discriminator 4 view .LVU242
 798 0010 90F83420 		ldrb	r2, [r0, #52]	@ zero_extendqisi2
 799 0014 61F30002 		bfi	r2, r1, #0, #1
 800 0018 80F83420 		strb	r2, [r0, #52]
  87:../../Middlewares/LVGL/GUI/lvgl/src/widgets/line/lv_line.c **** }
 801              		.loc 1 87 5 is_stmt 1 view .LVU243
 802 001c FFF7FEFF 		bl	lv_obj_invalidate
 803              	.LVL81:
 804              	.L45:
  88:../../Middlewares/LVGL/GUI/lvgl/src/widgets/line/lv_line.c **** 
 805              		.loc 1 88 1 is_stmt 0 view .LVU244
 806 0020 08BD     		pop	{r3, pc}
 807              	.LVL82:
 808              	.L47:
 809              	.LCFI11:
 810              		.cfi_def_cfa_offset 0
 811              		.cfi_restore 3
 812              		.cfi_restore 14
  80:../../Middlewares/LVGL/GUI/lvgl/src/widgets/line/lv_line.c **** 
 813              		.loc 1 80 5 is_stmt 1 view .LVU245
  80:../../Middlewares/LVGL/GUI/lvgl/src/widgets/line/lv_line.c **** 
 814              		.loc 1 80 5 view .LVU246
  80:../../Middlewares/LVGL/GUI/lvgl/src/widgets/line/lv_line.c **** 
 815              		.loc 1 80 5 view .LVU247
  80:../../Middlewares/LVGL/GUI/lvgl/src/widgets/line/lv_line.c **** 
 816              		.loc 1 80 5 view .LVU248
  80:../../Middlewares/LVGL/GUI/lvgl/src/widgets/line/lv_line.c **** 
 817              		.loc 1 80 5 view .LVU249
 818 0022 FEE7     		b	.L47
 819              		.cfi_endproc
 820              	.LFE175:
 822              		.section	.text.lv_line_get_points,"ax",%progbits
 823              		.align	1
 824              		.global	lv_line_get_points
 825              		.syntax unified
 826              		.thumb
 827              		.thumb_func
 829              	lv_line_get_points:
 830              	.LVL83:
 831              	.LFB176:
  95:../../Middlewares/LVGL/GUI/lvgl/src/widgets/line/lv_line.c ****     LV_ASSERT_OBJ(obj, MY_CLASS);
 832              		.loc 1 95 1 view -0
 833              		.cfi_startproc
 834              		@ args = 0, pretend = 0, frame = 0
 835              		@ frame_needed = 0, uses_anonymous_args = 0
 836              		@ link register save eliminated.
  96:../../Middlewares/LVGL/GUI/lvgl/src/widgets/line/lv_line.c **** 
 837              		.loc 1 96 5 view .LVU251
ARM GAS  C:\Users\28576\AppData\Local\Temp\ccBC7uBe.s 			page 32


  96:../../Middlewares/LVGL/GUI/lvgl/src/widgets/line/lv_line.c **** 
 838              		.loc 1 96 5 view .LVU252
 839 0000 08B1     		cbz	r0, .L53
  96:../../Middlewares/LVGL/GUI/lvgl/src/widgets/line/lv_line.c **** 
 840              		.loc 1 96 5 view .LVU253
  96:../../Middlewares/LVGL/GUI/lvgl/src/widgets/line/lv_line.c **** 
 841              		.loc 1 96 33 view .LVU254
  98:../../Middlewares/LVGL/GUI/lvgl/src/widgets/line/lv_line.c ****     return line->point_array.constant;
 842              		.loc 1 98 5 view .LVU255
 843              	.LVL84:
  99:../../Middlewares/LVGL/GUI/lvgl/src/widgets/line/lv_line.c **** }
 844              		.loc 1 99 5 view .LVU256
 100:../../Middlewares/LVGL/GUI/lvgl/src/widgets/line/lv_line.c **** 
 845              		.loc 1 100 1 is_stmt 0 view .LVU257
 846 0002 C06A     		ldr	r0, [r0, #44]
 847              	.LVL85:
 100:../../Middlewares/LVGL/GUI/lvgl/src/widgets/line/lv_line.c **** 
 848              		.loc 1 100 1 view .LVU258
 849 0004 7047     		bx	lr
 850              	.LVL86:
 851              	.L53:
  96:../../Middlewares/LVGL/GUI/lvgl/src/widgets/line/lv_line.c **** 
 852              		.loc 1 96 5 is_stmt 1 view .LVU259
  96:../../Middlewares/LVGL/GUI/lvgl/src/widgets/line/lv_line.c **** 
 853              		.loc 1 96 5 view .LVU260
  96:../../Middlewares/LVGL/GUI/lvgl/src/widgets/line/lv_line.c **** 
 854              		.loc 1 96 5 view .LVU261
  96:../../Middlewares/LVGL/GUI/lvgl/src/widgets/line/lv_line.c **** 
 855              		.loc 1 96 5 view .LVU262
  96:../../Middlewares/LVGL/GUI/lvgl/src/widgets/line/lv_line.c **** 
 856              		.loc 1 96 5 view .LVU263
 857 0006 FEE7     		b	.L53
 858              		.cfi_endproc
 859              	.LFE176:
 861              		.section	.text.lv_line_get_point_count,"ax",%progbits
 862              		.align	1
 863              		.global	lv_line_get_point_count
 864              		.syntax unified
 865              		.thumb
 866              		.thumb_func
 868              	lv_line_get_point_count:
 869              	.LVL87:
 870              	.LFB177:
 103:../../Middlewares/LVGL/GUI/lvgl/src/widgets/line/lv_line.c ****     LV_ASSERT_OBJ(obj, MY_CLASS);
 871              		.loc 1 103 1 view -0
 872              		.cfi_startproc
 873              		@ args = 0, pretend = 0, frame = 0
 874              		@ frame_needed = 0, uses_anonymous_args = 0
 875              		@ link register save eliminated.
 104:../../Middlewares/LVGL/GUI/lvgl/src/widgets/line/lv_line.c **** 
 876              		.loc 1 104 5 view .LVU265
 104:../../Middlewares/LVGL/GUI/lvgl/src/widgets/line/lv_line.c **** 
 877              		.loc 1 104 5 view .LVU266
 878 0000 08B1     		cbz	r0, .L56
 104:../../Middlewares/LVGL/GUI/lvgl/src/widgets/line/lv_line.c **** 
 879              		.loc 1 104 5 view .LVU267
 104:../../Middlewares/LVGL/GUI/lvgl/src/widgets/line/lv_line.c **** 
ARM GAS  C:\Users\28576\AppData\Local\Temp\ccBC7uBe.s 			page 33


 880              		.loc 1 104 33 view .LVU268
 106:../../Middlewares/LVGL/GUI/lvgl/src/widgets/line/lv_line.c ****     return line->point_num;
 881              		.loc 1 106 5 view .LVU269
 882              	.LVL88:
 107:../../Middlewares/LVGL/GUI/lvgl/src/widgets/line/lv_line.c **** }
 883              		.loc 1 107 5 view .LVU270
 108:../../Middlewares/LVGL/GUI/lvgl/src/widgets/line/lv_line.c **** 
 884              		.loc 1 108 1 is_stmt 0 view .LVU271
 885 0002 006B     		ldr	r0, [r0, #48]
 886              	.LVL89:
 108:../../Middlewares/LVGL/GUI/lvgl/src/widgets/line/lv_line.c **** 
 887              		.loc 1 108 1 view .LVU272
 888 0004 7047     		bx	lr
 889              	.LVL90:
 890              	.L56:
 104:../../Middlewares/LVGL/GUI/lvgl/src/widgets/line/lv_line.c **** 
 891              		.loc 1 104 5 is_stmt 1 view .LVU273
 104:../../Middlewares/LVGL/GUI/lvgl/src/widgets/line/lv_line.c **** 
 892              		.loc 1 104 5 view .LVU274
 104:../../Middlewares/LVGL/GUI/lvgl/src/widgets/line/lv_line.c **** 
 893              		.loc 1 104 5 view .LVU275
 104:../../Middlewares/LVGL/GUI/lvgl/src/widgets/line/lv_line.c **** 
 894              		.loc 1 104 5 view .LVU276
 104:../../Middlewares/LVGL/GUI/lvgl/src/widgets/line/lv_line.c **** 
 895              		.loc 1 104 5 view .LVU277
 896 0006 FEE7     		b	.L56
 897              		.cfi_endproc
 898              	.LFE177:
 900              		.section	.text.lv_line_is_point_array_mutable,"ax",%progbits
 901              		.align	1
 902              		.global	lv_line_is_point_array_mutable
 903              		.syntax unified
 904              		.thumb
 905              		.thumb_func
 907              	lv_line_is_point_array_mutable:
 908              	.LVL91:
 909              	.LFB178:
 111:../../Middlewares/LVGL/GUI/lvgl/src/widgets/line/lv_line.c ****     LV_ASSERT_OBJ(obj, MY_CLASS);
 910              		.loc 1 111 1 view -0
 911              		.cfi_startproc
 912              		@ args = 0, pretend = 0, frame = 0
 913              		@ frame_needed = 0, uses_anonymous_args = 0
 914              		@ link register save eliminated.
 112:../../Middlewares/LVGL/GUI/lvgl/src/widgets/line/lv_line.c **** 
 915              		.loc 1 112 5 view .LVU279
 112:../../Middlewares/LVGL/GUI/lvgl/src/widgets/line/lv_line.c **** 
 916              		.loc 1 112 5 view .LVU280
 917 0000 20B1     		cbz	r0, .L59
 112:../../Middlewares/LVGL/GUI/lvgl/src/widgets/line/lv_line.c **** 
 918              		.loc 1 112 5 view .LVU281
 112:../../Middlewares/LVGL/GUI/lvgl/src/widgets/line/lv_line.c **** 
 919              		.loc 1 112 33 view .LVU282
 114:../../Middlewares/LVGL/GUI/lvgl/src/widgets/line/lv_line.c ****     return line->point_array_is_mutable;
 920              		.loc 1 114 5 view .LVU283
 921              	.LVL92:
 115:../../Middlewares/LVGL/GUI/lvgl/src/widgets/line/lv_line.c **** }
 922              		.loc 1 115 5 view .LVU284
ARM GAS  C:\Users\28576\AppData\Local\Temp\ccBC7uBe.s 			page 34


 115:../../Middlewares/LVGL/GUI/lvgl/src/widgets/line/lv_line.c **** }
 923              		.loc 1 115 16 is_stmt 0 view .LVU285
 924 0002 90F83400 		ldrb	r0, [r0, #52]	@ zero_extendqisi2
 925              	.LVL93:
 116:../../Middlewares/LVGL/GUI/lvgl/src/widgets/line/lv_line.c **** 
 926              		.loc 1 116 1 view .LVU286
 927 0006 C0F34000 		ubfx	r0, r0, #1, #1
 928 000a 7047     		bx	lr
 929              	.LVL94:
 930              	.L59:
 112:../../Middlewares/LVGL/GUI/lvgl/src/widgets/line/lv_line.c **** 
 931              		.loc 1 112 5 is_stmt 1 view .LVU287
 112:../../Middlewares/LVGL/GUI/lvgl/src/widgets/line/lv_line.c **** 
 932              		.loc 1 112 5 view .LVU288
 112:../../Middlewares/LVGL/GUI/lvgl/src/widgets/line/lv_line.c **** 
 933              		.loc 1 112 5 view .LVU289
 112:../../Middlewares/LVGL/GUI/lvgl/src/widgets/line/lv_line.c **** 
 934              		.loc 1 112 5 view .LVU290
 112:../../Middlewares/LVGL/GUI/lvgl/src/widgets/line/lv_line.c **** 
 935              		.loc 1 112 5 view .LVU291
 936 000c FEE7     		b	.L59
 937              		.cfi_endproc
 938              	.LFE178:
 940              		.section	.text.lv_line_get_points_mutable,"ax",%progbits
 941              		.align	1
 942              		.global	lv_line_get_points_mutable
 943              		.syntax unified
 944              		.thumb
 945              		.thumb_func
 947              	lv_line_get_points_mutable:
 948              	.LVL95:
 949              	.LFB179:
 119:../../Middlewares/LVGL/GUI/lvgl/src/widgets/line/lv_line.c ****     LV_ASSERT_OBJ(obj, MY_CLASS);
 950              		.loc 1 119 1 view -0
 951              		.cfi_startproc
 952              		@ args = 0, pretend = 0, frame = 0
 953              		@ frame_needed = 0, uses_anonymous_args = 0
 954              		@ link register save eliminated.
 120:../../Middlewares/LVGL/GUI/lvgl/src/widgets/line/lv_line.c **** 
 955              		.loc 1 120 5 view .LVU293
 120:../../Middlewares/LVGL/GUI/lvgl/src/widgets/line/lv_line.c **** 
 956              		.loc 1 120 5 view .LVU294
 957 0000 30B1     		cbz	r0, .L62
 120:../../Middlewares/LVGL/GUI/lvgl/src/widgets/line/lv_line.c **** 
 958              		.loc 1 120 5 view .LVU295
 120:../../Middlewares/LVGL/GUI/lvgl/src/widgets/line/lv_line.c **** 
 959              		.loc 1 120 33 view .LVU296
 122:../../Middlewares/LVGL/GUI/lvgl/src/widgets/line/lv_line.c ****     if(!line->point_array_is_mutable) {
 960              		.loc 1 122 5 view .LVU297
 961              	.LVL96:
 123:../../Middlewares/LVGL/GUI/lvgl/src/widgets/line/lv_line.c ****         LV_LOG_WARN("the line point array is not mutable");
 962              		.loc 1 123 5 view .LVU298
 123:../../Middlewares/LVGL/GUI/lvgl/src/widgets/line/lv_line.c ****         LV_LOG_WARN("the line point array is not mutable");
 963              		.loc 1 123 8 is_stmt 0 view .LVU299
 964 0002 90F83420 		ldrb	r2, [r0, #52]	@ zero_extendqisi2
 123:../../Middlewares/LVGL/GUI/lvgl/src/widgets/line/lv_line.c ****         LV_LOG_WARN("the line point array is not mutable");
 965              		.loc 1 123 7 view .LVU300
ARM GAS  C:\Users\28576\AppData\Local\Temp\ccBC7uBe.s 			page 35


 966 0006 12F0020F 		tst	r2, #2
 967 000a 02D0     		beq	.L64
 127:../../Middlewares/LVGL/GUI/lvgl/src/widgets/line/lv_line.c **** }
 968              		.loc 1 127 5 is_stmt 1 view .LVU301
 127:../../Middlewares/LVGL/GUI/lvgl/src/widgets/line/lv_line.c **** }
 969              		.loc 1 127 29 is_stmt 0 view .LVU302
 970 000c C06A     		ldr	r0, [r0, #44]
 971              	.LVL97:
 127:../../Middlewares/LVGL/GUI/lvgl/src/widgets/line/lv_line.c **** }
 972              		.loc 1 127 29 view .LVU303
 973 000e 7047     		bx	lr
 974              	.LVL98:
 975              	.L62:
 120:../../Middlewares/LVGL/GUI/lvgl/src/widgets/line/lv_line.c **** 
 976              		.loc 1 120 5 is_stmt 1 view .LVU304
 120:../../Middlewares/LVGL/GUI/lvgl/src/widgets/line/lv_line.c **** 
 977              		.loc 1 120 5 view .LVU305
 120:../../Middlewares/LVGL/GUI/lvgl/src/widgets/line/lv_line.c **** 
 978              		.loc 1 120 5 view .LVU306
 120:../../Middlewares/LVGL/GUI/lvgl/src/widgets/line/lv_line.c **** 
 979              		.loc 1 120 5 view .LVU307
 120:../../Middlewares/LVGL/GUI/lvgl/src/widgets/line/lv_line.c **** 
 980              		.loc 1 120 5 view .LVU308
 981 0010 FEE7     		b	.L62
 982              	.LVL99:
 983              	.L64:
 125:../../Middlewares/LVGL/GUI/lvgl/src/widgets/line/lv_line.c ****     }
 984              		.loc 1 125 16 is_stmt 0 view .LVU309
 985 0012 0020     		movs	r0, #0
 986              	.LVL100:
 128:../../Middlewares/LVGL/GUI/lvgl/src/widgets/line/lv_line.c **** 
 987              		.loc 1 128 1 view .LVU310
 988 0014 7047     		bx	lr
 989              		.cfi_endproc
 990              	.LFE179:
 992              		.section	.text.lv_line_get_y_invert,"ax",%progbits
 993              		.align	1
 994              		.global	lv_line_get_y_invert
 995              		.syntax unified
 996              		.thumb
 997              		.thumb_func
 999              	lv_line_get_y_invert:
 1000              	.LVL101:
 1001              	.LFB180:
 131:../../Middlewares/LVGL/GUI/lvgl/src/widgets/line/lv_line.c ****     LV_ASSERT_OBJ(obj, MY_CLASS);
 1002              		.loc 1 131 1 is_stmt 1 view -0
 1003              		.cfi_startproc
 1004              		@ args = 0, pretend = 0, frame = 0
 1005              		@ frame_needed = 0, uses_anonymous_args = 0
 1006              		@ link register save eliminated.
 132:../../Middlewares/LVGL/GUI/lvgl/src/widgets/line/lv_line.c **** 
 1007              		.loc 1 132 5 view .LVU312
 132:../../Middlewares/LVGL/GUI/lvgl/src/widgets/line/lv_line.c **** 
 1008              		.loc 1 132 5 view .LVU313
 1009 0000 20B1     		cbz	r0, .L67
 132:../../Middlewares/LVGL/GUI/lvgl/src/widgets/line/lv_line.c **** 
 1010              		.loc 1 132 5 view .LVU314
ARM GAS  C:\Users\28576\AppData\Local\Temp\ccBC7uBe.s 			page 36


 132:../../Middlewares/LVGL/GUI/lvgl/src/widgets/line/lv_line.c **** 
 1011              		.loc 1 132 33 view .LVU315
 134:../../Middlewares/LVGL/GUI/lvgl/src/widgets/line/lv_line.c **** 
 1012              		.loc 1 134 5 view .LVU316
 1013              	.LVL102:
 136:../../Middlewares/LVGL/GUI/lvgl/src/widgets/line/lv_line.c **** }
 1014              		.loc 1 136 5 view .LVU317
 136:../../Middlewares/LVGL/GUI/lvgl/src/widgets/line/lv_line.c **** }
 1015              		.loc 1 136 24 is_stmt 0 view .LVU318
 1016 0002 90F83400 		ldrb	r0, [r0, #52]	@ zero_extendqisi2
 1017              	.LVL103:
 137:../../Middlewares/LVGL/GUI/lvgl/src/widgets/line/lv_line.c **** 
 1018              		.loc 1 137 1 view .LVU319
 1019 0006 00F00100 		and	r0, r0, #1
 1020 000a 7047     		bx	lr
 1021              	.LVL104:
 1022              	.L67:
 132:../../Middlewares/LVGL/GUI/lvgl/src/widgets/line/lv_line.c **** 
 1023              		.loc 1 132 5 is_stmt 1 view .LVU320
 132:../../Middlewares/LVGL/GUI/lvgl/src/widgets/line/lv_line.c **** 
 1024              		.loc 1 132 5 view .LVU321
 132:../../Middlewares/LVGL/GUI/lvgl/src/widgets/line/lv_line.c **** 
 1025              		.loc 1 132 5 view .LVU322
 132:../../Middlewares/LVGL/GUI/lvgl/src/widgets/line/lv_line.c **** 
 1026              		.loc 1 132 5 view .LVU323
 132:../../Middlewares/LVGL/GUI/lvgl/src/widgets/line/lv_line.c **** 
 1027              		.loc 1 132 5 view .LVU324
 1028 000c FEE7     		b	.L67
 1029              		.cfi_endproc
 1030              	.LFE180:
 1032              		.global	lv_line_class
 1033              		.section	.rodata.str1.4,"aMS",%progbits,1
 1034              		.align	2
 1035              	.LC0:
 1036 0000 6C765F6C 		.ascii	"lv_line\000"
 1036      696E6500 
 1037              		.section	.rodata.lv_line_class,"a"
 1038              		.align	2
 1041              	lv_line_class:
 1042 0000 00000000 		.word	lv_obj_class
 1043 0004 00000000 		.word	lv_line_constructor
 1044 0008 00000000 		.space	4
 1045 000c 00000000 		.word	lv_line_event
 1046 0010 00000000 		.space	4
 1047 0014 00000000 		.word	.LC0
 1048 0018 FFFFFF3F 		.word	1073741823
 1049 001c FFFFFF3F 		.word	1073741823
 1050 0020 80       		.byte	128
 1051 0021 03       		.byte	3
 1052 0022 00       		.byte	0
 1053 0023 00       		.space	1
 1054              		.text
 1055              	.Letext0:
 1056              		.file 3 "C:/Users/28576/AppData/Roaming/xPacks/@xpack-dev-tools/arm-none-eabi-gcc/15.2.1-1.1.1/.co
 1057              		.file 4 "C:/Users/28576/AppData/Roaming/xPacks/@xpack-dev-tools/arm-none-eabi-gcc/15.2.1-1.1.1/.co
 1058              		.file 5 "C:/Users/28576/AppData/Roaming/xPacks/@xpack-dev-tools/arm-none-eabi-gcc/15.2.1-1.1.1/.co
 1059              		.file 6 "H:/STM32H7/RGB_LVGL/Middlewares/LVGL/GUI/lvgl/src/misc/lv_types.h"
ARM GAS  C:\Users\28576\AppData\Local\Temp\ccBC7uBe.s 			page 37


 1060              		.file 7 "H:/STM32H7/RGB_LVGL/Middlewares/LVGL/GUI/lvgl/src/core/lv_obj_private.h"
 1061              		.file 8 "H:/STM32H7/RGB_LVGL/Middlewares/LVGL/GUI/lvgl/src/core/lv_obj_class_private.h"
 1062              		.file 9 "H:/STM32H7/RGB_LVGL/Middlewares/LVGL/GUI/lvgl/src/draw/lv_draw.h"
 1063              		.file 10 "../../Middlewares/LVGL/GUI/lvgl/src/widgets/line/lv_line_private.h"
 1064              		.file 11 "H:/STM32H7/RGB_LVGL/Middlewares/LVGL/GUI/lvgl/src/misc/lv_array.h"
 1065              		.file 12 "H:/STM32H7/RGB_LVGL/Middlewares/LVGL/GUI/lvgl/src/draw/lv_draw_buf.h"
 1066              		.file 13 "H:/STM32H7/RGB_LVGL/Middlewares/LVGL/GUI/lvgl/src/misc/lv_area.h"
 1067              		.file 14 "H:/STM32H7/RGB_LVGL/Middlewares/LVGL/GUI/lvgl/src/misc/lv_color.h"
 1068              		.file 15 "H:/STM32H7/RGB_LVGL/Middlewares/LVGL/GUI/lvgl/src/draw/lv_image_dsc.h"
 1069              		.file 16 "H:/STM32H7/RGB_LVGL/Middlewares/LVGL/GUI/lvgl/src/misc/lv_style.h"
 1070              		.file 17 "H:/STM32H7/RGB_LVGL/Middlewares/LVGL/GUI/lvgl/src/misc/lv_event.h"
 1071              		.file 18 "H:/STM32H7/RGB_LVGL/Middlewares/LVGL/GUI/lvgl/src/draw/lv_draw_line.h"
 1072              		.file 19 "H:/STM32H7/RGB_LVGL/Middlewares/LVGL/GUI/lvgl/src/indev/lv_indev.h"
 1073              		.file 20 "H:/STM32H7/RGB_LVGL/Middlewares/LVGL/GUI/lvgl/src/core/lv_obj.h"
 1074              		.file 21 "../../Middlewares/LVGL/GUI/lvgl/src/widgets/line/lv_line.h"
 1075              		.file 22 "H:/STM32H7/RGB_LVGL/Middlewares/LVGL/GUI/lvgl/src/core/lv_obj_pos.h"
 1076              		.file 23 "H:/STM32H7/RGB_LVGL/Middlewares/LVGL/GUI/lvgl/src/core/lv_obj_class.h"
 1077              		.file 24 "H:/STM32H7/RGB_LVGL/Middlewares/LVGL/GUI/lvgl/src/core/lv_obj_style.h"
 1078              		.file 25 "H:/STM32H7/RGB_LVGL/Middlewares/LVGL/GUI/lvgl/src/core/lv_obj_draw.h"
 1079              		.file 26 "H:/STM32H7/RGB_LVGL/Middlewares/LVGL/GUI/lvgl/src/core/lv_obj_scroll.h"
 1080              		.file 27 "H:/STM32H7/RGB_LVGL/Middlewares/LVGL/GUI/lvgl/src/core/lv_obj_event.h"
ARM GAS  C:\Users\28576\AppData\Local\Temp\ccBC7uBe.s 			page 38

