ARM GAS  C:\Users\28576\AppData\Local\Temp\ccT102hz.s 			page 1


   1              		.cpu cortex-m7
   2              		.arch armv7e-m
   3              		.fpu fpv5-d16
   4              		.eabi_attribute 28, 1
   5              		.eabi_attribute 20, 1
   6              		.eabi_attribute 21, 1
   7              		.eabi_attribute 23, 3
   8              		.eabi_attribute 24, 1
   9              		.eabi_attribute 25, 1
  10              		.eabi_attribute 26, 1
  11              		.eabi_attribute 30, 1
  12              		.eabi_attribute 34, 1
  13              		.eabi_attribute 18, 4
  14              		.file	"lv_mem.c"
  15              		.text
  16              	.Ltext0:
  17              		.cfi_sections	.debug_frame
  18              		.file 1 "../../Middlewares/LVGL/GUI/lvgl/src/stdlib/lv_mem.c"
  19              		.section	.text.lv_malloc,"ax",%progbits
  20              		.align	1
  21              		.global	lv_malloc
  22              		.syntax unified
  23              		.thumb
  24              		.thumb_func
  26              	lv_malloc:
  27              	.LVL0:
  28              	.LFB187:
   1:../../Middlewares/LVGL/GUI/lvgl/src/stdlib/lv_mem.c **** /**
   2:../../Middlewares/LVGL/GUI/lvgl/src/stdlib/lv_mem.c ****  * @file lv_mem.c
   3:../../Middlewares/LVGL/GUI/lvgl/src/stdlib/lv_mem.c ****  */
   4:../../Middlewares/LVGL/GUI/lvgl/src/stdlib/lv_mem.c **** 
   5:../../Middlewares/LVGL/GUI/lvgl/src/stdlib/lv_mem.c **** /*********************
   6:../../Middlewares/LVGL/GUI/lvgl/src/stdlib/lv_mem.c ****  *      INCLUDES
   7:../../Middlewares/LVGL/GUI/lvgl/src/stdlib/lv_mem.c ****  *********************/
   8:../../Middlewares/LVGL/GUI/lvgl/src/stdlib/lv_mem.c **** #include "lv_mem_private.h"
   9:../../Middlewares/LVGL/GUI/lvgl/src/stdlib/lv_mem.c **** #include "lv_string.h"
  10:../../Middlewares/LVGL/GUI/lvgl/src/stdlib/lv_mem.c **** #include "../misc/lv_assert.h"
  11:../../Middlewares/LVGL/GUI/lvgl/src/stdlib/lv_mem.c **** #include "../misc/lv_log.h"
  12:../../Middlewares/LVGL/GUI/lvgl/src/stdlib/lv_mem.c **** #include "../core/lv_global.h"
  13:../../Middlewares/LVGL/GUI/lvgl/src/stdlib/lv_mem.c **** 
  14:../../Middlewares/LVGL/GUI/lvgl/src/stdlib/lv_mem.c **** #if LV_USE_OS == LV_OS_PTHREAD
  15:../../Middlewares/LVGL/GUI/lvgl/src/stdlib/lv_mem.c ****     #include <pthread.h>
  16:../../Middlewares/LVGL/GUI/lvgl/src/stdlib/lv_mem.c **** #endif
  17:../../Middlewares/LVGL/GUI/lvgl/src/stdlib/lv_mem.c **** 
  18:../../Middlewares/LVGL/GUI/lvgl/src/stdlib/lv_mem.c **** /*********************
  19:../../Middlewares/LVGL/GUI/lvgl/src/stdlib/lv_mem.c ****  *      DEFINES
  20:../../Middlewares/LVGL/GUI/lvgl/src/stdlib/lv_mem.c ****  *********************/
  21:../../Middlewares/LVGL/GUI/lvgl/src/stdlib/lv_mem.c **** /*memset the allocated memories to 0xaa and freed memories to 0xbb (just for testing purposes)*/
  22:../../Middlewares/LVGL/GUI/lvgl/src/stdlib/lv_mem.c **** #ifndef LV_MEM_ADD_JUNK
  23:../../Middlewares/LVGL/GUI/lvgl/src/stdlib/lv_mem.c ****     #define LV_MEM_ADD_JUNK  0
  24:../../Middlewares/LVGL/GUI/lvgl/src/stdlib/lv_mem.c **** #endif
  25:../../Middlewares/LVGL/GUI/lvgl/src/stdlib/lv_mem.c **** 
  26:../../Middlewares/LVGL/GUI/lvgl/src/stdlib/lv_mem.c **** #define zero_mem LV_GLOBAL_DEFAULT()->memory_zero
  27:../../Middlewares/LVGL/GUI/lvgl/src/stdlib/lv_mem.c **** 
  28:../../Middlewares/LVGL/GUI/lvgl/src/stdlib/lv_mem.c **** /**********************
  29:../../Middlewares/LVGL/GUI/lvgl/src/stdlib/lv_mem.c ****  *      TYPEDEFS
  30:../../Middlewares/LVGL/GUI/lvgl/src/stdlib/lv_mem.c ****  **********************/
ARM GAS  C:\Users\28576\AppData\Local\Temp\ccT102hz.s 			page 2


  31:../../Middlewares/LVGL/GUI/lvgl/src/stdlib/lv_mem.c **** 
  32:../../Middlewares/LVGL/GUI/lvgl/src/stdlib/lv_mem.c **** /**********************
  33:../../Middlewares/LVGL/GUI/lvgl/src/stdlib/lv_mem.c ****  *  STATIC PROTOTYPES
  34:../../Middlewares/LVGL/GUI/lvgl/src/stdlib/lv_mem.c ****  **********************/
  35:../../Middlewares/LVGL/GUI/lvgl/src/stdlib/lv_mem.c **** 
  36:../../Middlewares/LVGL/GUI/lvgl/src/stdlib/lv_mem.c **** /**********************
  37:../../Middlewares/LVGL/GUI/lvgl/src/stdlib/lv_mem.c ****  *  GLOBAL PROTOTYPES
  38:../../Middlewares/LVGL/GUI/lvgl/src/stdlib/lv_mem.c ****  **********************/
  39:../../Middlewares/LVGL/GUI/lvgl/src/stdlib/lv_mem.c **** void * lv_malloc_core(size_t size);
  40:../../Middlewares/LVGL/GUI/lvgl/src/stdlib/lv_mem.c **** void * lv_realloc_core(void * p, size_t new_size);
  41:../../Middlewares/LVGL/GUI/lvgl/src/stdlib/lv_mem.c **** void lv_free_core(void * p);
  42:../../Middlewares/LVGL/GUI/lvgl/src/stdlib/lv_mem.c **** void lv_mem_monitor_core(lv_mem_monitor_t * mon_p);
  43:../../Middlewares/LVGL/GUI/lvgl/src/stdlib/lv_mem.c **** lv_result_t lv_mem_test_core(void);
  44:../../Middlewares/LVGL/GUI/lvgl/src/stdlib/lv_mem.c **** 
  45:../../Middlewares/LVGL/GUI/lvgl/src/stdlib/lv_mem.c **** /**********************
  46:../../Middlewares/LVGL/GUI/lvgl/src/stdlib/lv_mem.c ****  *  STATIC VARIABLES
  47:../../Middlewares/LVGL/GUI/lvgl/src/stdlib/lv_mem.c ****  **********************/
  48:../../Middlewares/LVGL/GUI/lvgl/src/stdlib/lv_mem.c **** 
  49:../../Middlewares/LVGL/GUI/lvgl/src/stdlib/lv_mem.c **** /**********************
  50:../../Middlewares/LVGL/GUI/lvgl/src/stdlib/lv_mem.c ****  *      MACROS
  51:../../Middlewares/LVGL/GUI/lvgl/src/stdlib/lv_mem.c ****  **********************/
  52:../../Middlewares/LVGL/GUI/lvgl/src/stdlib/lv_mem.c **** #if LV_USE_LOG && LV_LOG_TRACE_MEM
  53:../../Middlewares/LVGL/GUI/lvgl/src/stdlib/lv_mem.c ****     #define LV_TRACE_MEM(...) LV_LOG_TRACE(__VA_ARGS__)
  54:../../Middlewares/LVGL/GUI/lvgl/src/stdlib/lv_mem.c **** #else
  55:../../Middlewares/LVGL/GUI/lvgl/src/stdlib/lv_mem.c ****     #define LV_TRACE_MEM(...)
  56:../../Middlewares/LVGL/GUI/lvgl/src/stdlib/lv_mem.c **** #endif
  57:../../Middlewares/LVGL/GUI/lvgl/src/stdlib/lv_mem.c **** 
  58:../../Middlewares/LVGL/GUI/lvgl/src/stdlib/lv_mem.c **** /**********************
  59:../../Middlewares/LVGL/GUI/lvgl/src/stdlib/lv_mem.c ****  *   GLOBAL FUNCTIONS
  60:../../Middlewares/LVGL/GUI/lvgl/src/stdlib/lv_mem.c ****  **********************/
  61:../../Middlewares/LVGL/GUI/lvgl/src/stdlib/lv_mem.c **** 
  62:../../Middlewares/LVGL/GUI/lvgl/src/stdlib/lv_mem.c **** void * lv_malloc(size_t size)
  63:../../Middlewares/LVGL/GUI/lvgl/src/stdlib/lv_mem.c **** {
  29              		.loc 1 63 1 view -0
  30              		.cfi_startproc
  31              		@ args = 0, pretend = 0, frame = 0
  32              		@ frame_needed = 0, uses_anonymous_args = 0
  64:../../Middlewares/LVGL/GUI/lvgl/src/stdlib/lv_mem.c ****     LV_TRACE_MEM("allocating %lu bytes", (unsigned long)size);
  33              		.loc 1 64 62 view .LVU1
  65:../../Middlewares/LVGL/GUI/lvgl/src/stdlib/lv_mem.c ****     if(size == 0) {
  34              		.loc 1 65 5 view .LVU2
  35              		.loc 1 65 7 is_stmt 0 view .LVU3
  36 0000 08B9     		cbnz	r0, .L8
  66:../../Middlewares/LVGL/GUI/lvgl/src/stdlib/lv_mem.c ****         LV_TRACE_MEM("using zero_mem");
  67:../../Middlewares/LVGL/GUI/lvgl/src/stdlib/lv_mem.c ****         return &zero_mem;
  37              		.loc 1 67 16 view .LVU4
  38 0002 0348     		ldr	r0, .L9
  39              	.LVL1:
  68:../../Middlewares/LVGL/GUI/lvgl/src/stdlib/lv_mem.c ****     }
  69:../../Middlewares/LVGL/GUI/lvgl/src/stdlib/lv_mem.c **** 
  70:../../Middlewares/LVGL/GUI/lvgl/src/stdlib/lv_mem.c ****     void * alloc = lv_malloc_core(size);
  71:../../Middlewares/LVGL/GUI/lvgl/src/stdlib/lv_mem.c **** 
  72:../../Middlewares/LVGL/GUI/lvgl/src/stdlib/lv_mem.c ****     if(alloc == NULL) {
  73:../../Middlewares/LVGL/GUI/lvgl/src/stdlib/lv_mem.c ****         LV_LOG_INFO("couldn't allocate memory (%lu bytes)", (unsigned long)size);
  74:../../Middlewares/LVGL/GUI/lvgl/src/stdlib/lv_mem.c **** #if LV_LOG_LEVEL <= LV_LOG_LEVEL_INFO
  75:../../Middlewares/LVGL/GUI/lvgl/src/stdlib/lv_mem.c ****         lv_mem_monitor_t mon;
  76:../../Middlewares/LVGL/GUI/lvgl/src/stdlib/lv_mem.c ****         lv_mem_monitor(&mon);
ARM GAS  C:\Users\28576\AppData\Local\Temp\ccT102hz.s 			page 3


  77:../../Middlewares/LVGL/GUI/lvgl/src/stdlib/lv_mem.c ****         LV_LOG_INFO("used: %zu (%3d %%), frag: %3d %%, biggest free: %zu",
  78:../../Middlewares/LVGL/GUI/lvgl/src/stdlib/lv_mem.c ****                     mon.total_size - mon.free_size, mon.used_pct, mon.frag_pct,
  79:../../Middlewares/LVGL/GUI/lvgl/src/stdlib/lv_mem.c ****                     mon.free_biggest_size);
  80:../../Middlewares/LVGL/GUI/lvgl/src/stdlib/lv_mem.c **** #endif
  81:../../Middlewares/LVGL/GUI/lvgl/src/stdlib/lv_mem.c ****         return NULL;
  82:../../Middlewares/LVGL/GUI/lvgl/src/stdlib/lv_mem.c ****     }
  83:../../Middlewares/LVGL/GUI/lvgl/src/stdlib/lv_mem.c **** 
  84:../../Middlewares/LVGL/GUI/lvgl/src/stdlib/lv_mem.c **** #if LV_MEM_ADD_JUNK
  85:../../Middlewares/LVGL/GUI/lvgl/src/stdlib/lv_mem.c ****     lv_memset(alloc, 0xaa, size);
  86:../../Middlewares/LVGL/GUI/lvgl/src/stdlib/lv_mem.c **** #endif
  87:../../Middlewares/LVGL/GUI/lvgl/src/stdlib/lv_mem.c **** 
  88:../../Middlewares/LVGL/GUI/lvgl/src/stdlib/lv_mem.c ****     LV_TRACE_MEM("allocated at %p", alloc);
  89:../../Middlewares/LVGL/GUI/lvgl/src/stdlib/lv_mem.c ****     return alloc;
  90:../../Middlewares/LVGL/GUI/lvgl/src/stdlib/lv_mem.c **** }
  40              		.loc 1 90 1 view .LVU5
  41 0004 7047     		bx	lr
  42              	.LVL2:
  43              	.L8:
  63:../../Middlewares/LVGL/GUI/lvgl/src/stdlib/lv_mem.c ****     LV_TRACE_MEM("allocating %lu bytes", (unsigned long)size);
  44              		.loc 1 63 1 view .LVU6
  45 0006 08B5     		push	{r3, lr}
  46              	.LCFI0:
  47              		.cfi_def_cfa_offset 8
  48              		.cfi_offset 3, -8
  49              		.cfi_offset 14, -4
  70:../../Middlewares/LVGL/GUI/lvgl/src/stdlib/lv_mem.c **** 
  50              		.loc 1 70 5 is_stmt 1 view .LVU7
  70:../../Middlewares/LVGL/GUI/lvgl/src/stdlib/lv_mem.c **** 
  51              		.loc 1 70 20 is_stmt 0 view .LVU8
  52 0008 FFF7FEFF 		bl	lv_malloc_core
  53              	.LVL3:
  72:../../Middlewares/LVGL/GUI/lvgl/src/stdlib/lv_mem.c ****         LV_LOG_INFO("couldn't allocate memory (%lu bytes)", (unsigned long)size);
  54              		.loc 1 72 5 is_stmt 1 view .LVU9
  55              		.loc 1 90 1 is_stmt 0 view .LVU10
  56 000c 08BD     		pop	{r3, pc}
  57              	.L10:
  58 000e 00BF     		.align	2
  59              	.L9:
  60 0010 64000000 		.word	lv_global+100
  61              		.cfi_endproc
  62              	.LFE187:
  64              		.section	.text.lv_malloc_zeroed,"ax",%progbits
  65              		.align	1
  66              		.global	lv_malloc_zeroed
  67              		.syntax unified
  68              		.thumb
  69              		.thumb_func
  71              	lv_malloc_zeroed:
  72              	.LVL4:
  73              	.LFB188:
  91:../../Middlewares/LVGL/GUI/lvgl/src/stdlib/lv_mem.c **** 
  92:../../Middlewares/LVGL/GUI/lvgl/src/stdlib/lv_mem.c **** void * lv_malloc_zeroed(size_t size)
  93:../../Middlewares/LVGL/GUI/lvgl/src/stdlib/lv_mem.c **** {
  74              		.loc 1 93 1 is_stmt 1 view -0
  75              		.cfi_startproc
  76              		@ args = 0, pretend = 0, frame = 0
  77              		@ frame_needed = 0, uses_anonymous_args = 0
ARM GAS  C:\Users\28576\AppData\Local\Temp\ccT102hz.s 			page 4


  78              		.loc 1 93 1 is_stmt 0 view .LVU12
  79 0000 38B5     		push	{r3, r4, r5, lr}
  80              	.LCFI1:
  81              		.cfi_def_cfa_offset 16
  82              		.cfi_offset 3, -16
  83              		.cfi_offset 4, -12
  84              		.cfi_offset 5, -8
  85              		.cfi_offset 14, -4
  94:../../Middlewares/LVGL/GUI/lvgl/src/stdlib/lv_mem.c ****     LV_TRACE_MEM("allocating %lu bytes", (unsigned long)size);
  86              		.loc 1 94 62 is_stmt 1 view .LVU13
  95:../../Middlewares/LVGL/GUI/lvgl/src/stdlib/lv_mem.c ****     if(size == 0) {
  87              		.loc 1 95 5 view .LVU14
  88              		.loc 1 95 7 is_stmt 0 view .LVU15
  89 0002 18B9     		cbnz	r0, .L15
  96:../../Middlewares/LVGL/GUI/lvgl/src/stdlib/lv_mem.c ****         LV_TRACE_MEM("using zero_mem");
  97:../../Middlewares/LVGL/GUI/lvgl/src/stdlib/lv_mem.c ****         return &zero_mem;
  90              		.loc 1 97 16 view .LVU16
  91 0004 074B     		ldr	r3, .L16
  92 0006 1D46     		mov	r5, r3
  93              	.LVL5:
  94              	.L11:
  98:../../Middlewares/LVGL/GUI/lvgl/src/stdlib/lv_mem.c ****     }
  99:../../Middlewares/LVGL/GUI/lvgl/src/stdlib/lv_mem.c **** 
 100:../../Middlewares/LVGL/GUI/lvgl/src/stdlib/lv_mem.c ****     void * alloc = lv_malloc_core(size);
 101:../../Middlewares/LVGL/GUI/lvgl/src/stdlib/lv_mem.c ****     if(alloc == NULL) {
 102:../../Middlewares/LVGL/GUI/lvgl/src/stdlib/lv_mem.c ****         LV_LOG_INFO("couldn't allocate memory (%lu bytes)", (unsigned long)size);
 103:../../Middlewares/LVGL/GUI/lvgl/src/stdlib/lv_mem.c **** #if LV_LOG_LEVEL <= LV_LOG_LEVEL_INFO
 104:../../Middlewares/LVGL/GUI/lvgl/src/stdlib/lv_mem.c ****         lv_mem_monitor_t mon;
 105:../../Middlewares/LVGL/GUI/lvgl/src/stdlib/lv_mem.c ****         lv_mem_monitor(&mon);
 106:../../Middlewares/LVGL/GUI/lvgl/src/stdlib/lv_mem.c ****         LV_LOG_INFO("used: %zu (%3d %%), frag: %3d %%, biggest free: %zu",
 107:../../Middlewares/LVGL/GUI/lvgl/src/stdlib/lv_mem.c ****                     mon.total_size - mon.free_size, mon.used_pct, mon.frag_pct,
 108:../../Middlewares/LVGL/GUI/lvgl/src/stdlib/lv_mem.c ****                     mon.free_biggest_size);
 109:../../Middlewares/LVGL/GUI/lvgl/src/stdlib/lv_mem.c **** #endif
 110:../../Middlewares/LVGL/GUI/lvgl/src/stdlib/lv_mem.c ****         return NULL;
 111:../../Middlewares/LVGL/GUI/lvgl/src/stdlib/lv_mem.c ****     }
 112:../../Middlewares/LVGL/GUI/lvgl/src/stdlib/lv_mem.c **** 
 113:../../Middlewares/LVGL/GUI/lvgl/src/stdlib/lv_mem.c ****     lv_memzero(alloc, size);
 114:../../Middlewares/LVGL/GUI/lvgl/src/stdlib/lv_mem.c **** 
 115:../../Middlewares/LVGL/GUI/lvgl/src/stdlib/lv_mem.c ****     LV_TRACE_MEM("allocated at %p", alloc);
 116:../../Middlewares/LVGL/GUI/lvgl/src/stdlib/lv_mem.c ****     return alloc;
 117:../../Middlewares/LVGL/GUI/lvgl/src/stdlib/lv_mem.c **** }
  95              		.loc 1 117 1 view .LVU17
  96 0008 2846     		mov	r0, r5
  97 000a 38BD     		pop	{r3, r4, r5, pc}
  98              	.LVL6:
  99              	.L15:
 100              		.loc 1 117 1 view .LVU18
 101 000c 0446     		mov	r4, r0
 100:../../Middlewares/LVGL/GUI/lvgl/src/stdlib/lv_mem.c ****     if(alloc == NULL) {
 102              		.loc 1 100 5 is_stmt 1 view .LVU19
 100:../../Middlewares/LVGL/GUI/lvgl/src/stdlib/lv_mem.c ****     if(alloc == NULL) {
 103              		.loc 1 100 20 is_stmt 0 view .LVU20
 104 000e FFF7FEFF 		bl	lv_malloc_core
 105              	.LVL7:
 101:../../Middlewares/LVGL/GUI/lvgl/src/stdlib/lv_mem.c ****         LV_LOG_INFO("couldn't allocate memory (%lu bytes)", (unsigned long)size);
 106              		.loc 1 101 5 is_stmt 1 view .LVU21
 101:../../Middlewares/LVGL/GUI/lvgl/src/stdlib/lv_mem.c ****         LV_LOG_INFO("couldn't allocate memory (%lu bytes)", (unsigned long)size);
ARM GAS  C:\Users\28576\AppData\Local\Temp\ccT102hz.s 			page 5


 107              		.loc 1 101 7 is_stmt 0 view .LVU22
 108 0012 0546     		mov	r5, r0
 109 0014 0028     		cmp	r0, #0
 110 0016 F7D0     		beq	.L11
 113:../../Middlewares/LVGL/GUI/lvgl/src/stdlib/lv_mem.c **** 
 111              		.loc 1 113 5 is_stmt 1 view .LVU23
 112              	.LVL8:
 113              	.LBB6:
 114              	.LBI6:
 115              		.file 2 "../../Middlewares/LVGL/GUI/lvgl/src/stdlib/lv_string.h"
   1:../../Middlewares/LVGL/GUI/lvgl/src/stdlib/lv_string.h **** /**
   2:../../Middlewares/LVGL/GUI/lvgl/src/stdlib/lv_string.h ****  * @file lv_string.h
   3:../../Middlewares/LVGL/GUI/lvgl/src/stdlib/lv_string.h ****  *
   4:../../Middlewares/LVGL/GUI/lvgl/src/stdlib/lv_string.h ****  */
   5:../../Middlewares/LVGL/GUI/lvgl/src/stdlib/lv_string.h **** 
   6:../../Middlewares/LVGL/GUI/lvgl/src/stdlib/lv_string.h **** #ifndef LV_STRING_H
   7:../../Middlewares/LVGL/GUI/lvgl/src/stdlib/lv_string.h **** #define LV_STRING_H
   8:../../Middlewares/LVGL/GUI/lvgl/src/stdlib/lv_string.h **** 
   9:../../Middlewares/LVGL/GUI/lvgl/src/stdlib/lv_string.h **** #ifdef __cplusplus
  10:../../Middlewares/LVGL/GUI/lvgl/src/stdlib/lv_string.h **** extern "C" {
  11:../../Middlewares/LVGL/GUI/lvgl/src/stdlib/lv_string.h **** #endif
  12:../../Middlewares/LVGL/GUI/lvgl/src/stdlib/lv_string.h **** 
  13:../../Middlewares/LVGL/GUI/lvgl/src/stdlib/lv_string.h **** /*********************
  14:../../Middlewares/LVGL/GUI/lvgl/src/stdlib/lv_string.h ****  *      INCLUDES
  15:../../Middlewares/LVGL/GUI/lvgl/src/stdlib/lv_string.h ****  *********************/
  16:../../Middlewares/LVGL/GUI/lvgl/src/stdlib/lv_string.h **** #include "../lv_conf_internal.h"
  17:../../Middlewares/LVGL/GUI/lvgl/src/stdlib/lv_string.h **** #include "../misc/lv_types.h"
  18:../../Middlewares/LVGL/GUI/lvgl/src/stdlib/lv_string.h **** 
  19:../../Middlewares/LVGL/GUI/lvgl/src/stdlib/lv_string.h **** /*********************
  20:../../Middlewares/LVGL/GUI/lvgl/src/stdlib/lv_string.h ****  *      DEFINES
  21:../../Middlewares/LVGL/GUI/lvgl/src/stdlib/lv_string.h ****  *********************/
  22:../../Middlewares/LVGL/GUI/lvgl/src/stdlib/lv_string.h **** 
  23:../../Middlewares/LVGL/GUI/lvgl/src/stdlib/lv_string.h **** /**********************
  24:../../Middlewares/LVGL/GUI/lvgl/src/stdlib/lv_string.h ****  *      TYPEDEFS
  25:../../Middlewares/LVGL/GUI/lvgl/src/stdlib/lv_string.h ****  **********************/
  26:../../Middlewares/LVGL/GUI/lvgl/src/stdlib/lv_string.h **** 
  27:../../Middlewares/LVGL/GUI/lvgl/src/stdlib/lv_string.h **** /**********************
  28:../../Middlewares/LVGL/GUI/lvgl/src/stdlib/lv_string.h ****  * GLOBAL PROTOTYPES
  29:../../Middlewares/LVGL/GUI/lvgl/src/stdlib/lv_string.h ****  **********************/
  30:../../Middlewares/LVGL/GUI/lvgl/src/stdlib/lv_string.h **** 
  31:../../Middlewares/LVGL/GUI/lvgl/src/stdlib/lv_string.h **** /**
  32:../../Middlewares/LVGL/GUI/lvgl/src/stdlib/lv_string.h ****  * @brief Copies a block of memory from a source address to a destination address.
  33:../../Middlewares/LVGL/GUI/lvgl/src/stdlib/lv_string.h ****  * @param dst Pointer to the destination array where the content is to be copied.
  34:../../Middlewares/LVGL/GUI/lvgl/src/stdlib/lv_string.h ****  * @param src Pointer to the source of data to be copied.
  35:../../Middlewares/LVGL/GUI/lvgl/src/stdlib/lv_string.h ****  * @param len Number of bytes to copy.
  36:../../Middlewares/LVGL/GUI/lvgl/src/stdlib/lv_string.h ****  * @return Pointer to the destination array.
  37:../../Middlewares/LVGL/GUI/lvgl/src/stdlib/lv_string.h ****  * @note The function does not check for any overlapping of the source and destination memory block
  38:../../Middlewares/LVGL/GUI/lvgl/src/stdlib/lv_string.h ****  */
  39:../../Middlewares/LVGL/GUI/lvgl/src/stdlib/lv_string.h **** void * lv_memcpy(void * dst, const void * src, size_t len);
  40:../../Middlewares/LVGL/GUI/lvgl/src/stdlib/lv_string.h **** 
  41:../../Middlewares/LVGL/GUI/lvgl/src/stdlib/lv_string.h **** /**
  42:../../Middlewares/LVGL/GUI/lvgl/src/stdlib/lv_string.h ****  * @brief Fills a block of memory with a specified value.
  43:../../Middlewares/LVGL/GUI/lvgl/src/stdlib/lv_string.h ****  * @param dst Pointer to the destination array to fill with the specified value.
  44:../../Middlewares/LVGL/GUI/lvgl/src/stdlib/lv_string.h ****  * @param v Value to be set. The value is passed as an int, but the function fills
  45:../../Middlewares/LVGL/GUI/lvgl/src/stdlib/lv_string.h ****  *          the block of memory using the unsigned char conversion of this value.
  46:../../Middlewares/LVGL/GUI/lvgl/src/stdlib/lv_string.h ****  * @param len Number of bytes to be set to the value.
  47:../../Middlewares/LVGL/GUI/lvgl/src/stdlib/lv_string.h ****  */
ARM GAS  C:\Users\28576\AppData\Local\Temp\ccT102hz.s 			page 6


  48:../../Middlewares/LVGL/GUI/lvgl/src/stdlib/lv_string.h **** void lv_memset(void * dst, uint8_t v, size_t len);
  49:../../Middlewares/LVGL/GUI/lvgl/src/stdlib/lv_string.h **** 
  50:../../Middlewares/LVGL/GUI/lvgl/src/stdlib/lv_string.h **** /**
  51:../../Middlewares/LVGL/GUI/lvgl/src/stdlib/lv_string.h ****  * @brief Move a block of memory from source to destination
  52:../../Middlewares/LVGL/GUI/lvgl/src/stdlib/lv_string.h ****  * @param dst Pointer to the destination array where the content is to be copied.
  53:../../Middlewares/LVGL/GUI/lvgl/src/stdlib/lv_string.h ****  * @param src Pointer to the source of data to be copied.
  54:../../Middlewares/LVGL/GUI/lvgl/src/stdlib/lv_string.h ****  * @param len Number of bytes to copy
  55:../../Middlewares/LVGL/GUI/lvgl/src/stdlib/lv_string.h ****  * @return Pointer to the destination array.
  56:../../Middlewares/LVGL/GUI/lvgl/src/stdlib/lv_string.h ****  */
  57:../../Middlewares/LVGL/GUI/lvgl/src/stdlib/lv_string.h **** void * lv_memmove(void * dst, const void * src, size_t len);
  58:../../Middlewares/LVGL/GUI/lvgl/src/stdlib/lv_string.h **** 
  59:../../Middlewares/LVGL/GUI/lvgl/src/stdlib/lv_string.h **** /**
  60:../../Middlewares/LVGL/GUI/lvgl/src/stdlib/lv_string.h ****  * @brief This function will compare two memory blocks
  61:../../Middlewares/LVGL/GUI/lvgl/src/stdlib/lv_string.h ****  * @param p1 Pointer to the first memory block
  62:../../Middlewares/LVGL/GUI/lvgl/src/stdlib/lv_string.h ****  * @param p2 Pointer to the second memory block
  63:../../Middlewares/LVGL/GUI/lvgl/src/stdlib/lv_string.h ****  * @param len Number of bytes to compare
  64:../../Middlewares/LVGL/GUI/lvgl/src/stdlib/lv_string.h ****  * @return The difference between the value of the first unmatching byte.
  65:../../Middlewares/LVGL/GUI/lvgl/src/stdlib/lv_string.h ****  */
  66:../../Middlewares/LVGL/GUI/lvgl/src/stdlib/lv_string.h **** int lv_memcmp(const void * p1, const void * p2, size_t len);
  67:../../Middlewares/LVGL/GUI/lvgl/src/stdlib/lv_string.h **** 
  68:../../Middlewares/LVGL/GUI/lvgl/src/stdlib/lv_string.h **** /**
  69:../../Middlewares/LVGL/GUI/lvgl/src/stdlib/lv_string.h ****  * Same as `memset(dst, 0x00, len)`.
  70:../../Middlewares/LVGL/GUI/lvgl/src/stdlib/lv_string.h ****  * @param dst pointer to the destination buffer
  71:../../Middlewares/LVGL/GUI/lvgl/src/stdlib/lv_string.h ****  * @param len number of byte to set
  72:../../Middlewares/LVGL/GUI/lvgl/src/stdlib/lv_string.h ****  */
  73:../../Middlewares/LVGL/GUI/lvgl/src/stdlib/lv_string.h **** static inline void lv_memzero(void * dst, size_t len)
 116              		.loc 2 73 20 view .LVU24
 117              	.LBB7:
  74:../../Middlewares/LVGL/GUI/lvgl/src/stdlib/lv_string.h **** {
  75:../../Middlewares/LVGL/GUI/lvgl/src/stdlib/lv_string.h ****     lv_memset(dst, 0x00, len);
 118              		.loc 2 75 5 view .LVU25
 119 0018 2246     		mov	r2, r4
 120 001a 0021     		movs	r1, #0
 121 001c FFF7FEFF 		bl	lv_memset
 122              	.LVL9:
 123              		.loc 2 75 5 is_stmt 0 view .LVU26
 124              	.LBE7:
 125              	.LBE6:
 115:../../Middlewares/LVGL/GUI/lvgl/src/stdlib/lv_mem.c ****     return alloc;
 126              		.loc 1 115 43 is_stmt 1 view .LVU27
 116:../../Middlewares/LVGL/GUI/lvgl/src/stdlib/lv_mem.c **** }
 127              		.loc 1 116 5 view .LVU28
 116:../../Middlewares/LVGL/GUI/lvgl/src/stdlib/lv_mem.c **** }
 128              		.loc 1 116 12 is_stmt 0 view .LVU29
 129 0020 F2E7     		b	.L11
 130              	.L17:
 131 0022 00BF     		.align	2
 132              	.L16:
 133 0024 64000000 		.word	lv_global+100
 134              		.cfi_endproc
 135              	.LFE188:
 137              		.section	.text.lv_calloc,"ax",%progbits
 138              		.align	1
 139              		.global	lv_calloc
 140              		.syntax unified
 141              		.thumb
 142              		.thumb_func
ARM GAS  C:\Users\28576\AppData\Local\Temp\ccT102hz.s 			page 7


 144              	lv_calloc:
 145              	.LVL10:
 146              	.LFB189:
 118:../../Middlewares/LVGL/GUI/lvgl/src/stdlib/lv_mem.c **** 
 119:../../Middlewares/LVGL/GUI/lvgl/src/stdlib/lv_mem.c **** void * lv_calloc(size_t num, size_t size)
 120:../../Middlewares/LVGL/GUI/lvgl/src/stdlib/lv_mem.c **** {
 147              		.loc 1 120 1 is_stmt 1 view -0
 148              		.cfi_startproc
 149              		@ args = 0, pretend = 0, frame = 0
 150              		@ frame_needed = 0, uses_anonymous_args = 0
 151              		.loc 1 120 1 is_stmt 0 view .LVU31
 152 0000 08B5     		push	{r3, lr}
 153              	.LCFI2:
 154              		.cfi_def_cfa_offset 8
 155              		.cfi_offset 3, -8
 156              		.cfi_offset 14, -4
 121:../../Middlewares/LVGL/GUI/lvgl/src/stdlib/lv_mem.c ****     LV_TRACE_MEM("allocating number of %zu each %zu bytes", num, size);
 157              		.loc 1 121 71 is_stmt 1 view .LVU32
 122:../../Middlewares/LVGL/GUI/lvgl/src/stdlib/lv_mem.c ****     return lv_malloc_zeroed(num * size);
 158              		.loc 1 122 5 view .LVU33
 159              		.loc 1 122 12 is_stmt 0 view .LVU34
 160 0002 01FB00F0 		mul	r0, r1, r0
 161              	.LVL11:
 162              		.loc 1 122 12 view .LVU35
 163 0006 FFF7FEFF 		bl	lv_malloc_zeroed
 164              	.LVL12:
 123:../../Middlewares/LVGL/GUI/lvgl/src/stdlib/lv_mem.c **** }
 165              		.loc 1 123 1 view .LVU36
 166 000a 08BD     		pop	{r3, pc}
 167              		.cfi_endproc
 168              	.LFE189:
 170              		.section	.text.lv_zalloc,"ax",%progbits
 171              		.align	1
 172              		.global	lv_zalloc
 173              		.syntax unified
 174              		.thumb
 175              		.thumb_func
 177              	lv_zalloc:
 178              	.LVL13:
 179              	.LFB190:
 124:../../Middlewares/LVGL/GUI/lvgl/src/stdlib/lv_mem.c **** 
 125:../../Middlewares/LVGL/GUI/lvgl/src/stdlib/lv_mem.c **** void * lv_zalloc(size_t size)
 126:../../Middlewares/LVGL/GUI/lvgl/src/stdlib/lv_mem.c **** {
 180              		.loc 1 126 1 is_stmt 1 view -0
 181              		.cfi_startproc
 182              		@ args = 0, pretend = 0, frame = 0
 183              		@ frame_needed = 0, uses_anonymous_args = 0
 184              		.loc 1 126 1 is_stmt 0 view .LVU38
 185 0000 08B5     		push	{r3, lr}
 186              	.LCFI3:
 187              		.cfi_def_cfa_offset 8
 188              		.cfi_offset 3, -8
 189              		.cfi_offset 14, -4
 127:../../Middlewares/LVGL/GUI/lvgl/src/stdlib/lv_mem.c ****     return lv_malloc_zeroed(size);
 190              		.loc 1 127 5 is_stmt 1 view .LVU39
 191              		.loc 1 127 12 is_stmt 0 view .LVU40
 192 0002 FFF7FEFF 		bl	lv_malloc_zeroed
ARM GAS  C:\Users\28576\AppData\Local\Temp\ccT102hz.s 			page 8


 193              	.LVL14:
 128:../../Middlewares/LVGL/GUI/lvgl/src/stdlib/lv_mem.c **** }
 194              		.loc 1 128 1 view .LVU41
 195 0006 08BD     		pop	{r3, pc}
 196              		.cfi_endproc
 197              	.LFE190:
 199              		.section	.text.lv_free,"ax",%progbits
 200              		.align	1
 201              		.global	lv_free
 202              		.syntax unified
 203              		.thumb
 204              		.thumb_func
 206              	lv_free:
 207              	.LVL15:
 208              	.LFB191:
 129:../../Middlewares/LVGL/GUI/lvgl/src/stdlib/lv_mem.c **** 
 130:../../Middlewares/LVGL/GUI/lvgl/src/stdlib/lv_mem.c **** void lv_free(void * data)
 131:../../Middlewares/LVGL/GUI/lvgl/src/stdlib/lv_mem.c **** {
 209              		.loc 1 131 1 is_stmt 1 view -0
 210              		.cfi_startproc
 211              		@ args = 0, pretend = 0, frame = 0
 212              		@ frame_needed = 0, uses_anonymous_args = 0
 213              		.loc 1 131 1 is_stmt 0 view .LVU43
 214 0000 08B5     		push	{r3, lr}
 215              	.LCFI4:
 216              		.cfi_def_cfa_offset 8
 217              		.cfi_offset 3, -8
 218              		.cfi_offset 14, -4
 132:../../Middlewares/LVGL/GUI/lvgl/src/stdlib/lv_mem.c ****     LV_TRACE_MEM("freeing %p", data);
 219              		.loc 1 132 37 is_stmt 1 view .LVU44
 133:../../Middlewares/LVGL/GUI/lvgl/src/stdlib/lv_mem.c ****     if(data == &zero_mem) return;
 220              		.loc 1 133 5 view .LVU45
 221              		.loc 1 133 7 is_stmt 0 view .LVU46
 222 0002 034B     		ldr	r3, .L25
 223 0004 9842     		cmp	r0, r3
 224 0006 02D0     		beq	.L22
 134:../../Middlewares/LVGL/GUI/lvgl/src/stdlib/lv_mem.c ****     if(data == NULL) return;
 225              		.loc 1 134 5 is_stmt 1 view .LVU47
 226              		.loc 1 134 7 is_stmt 0 view .LVU48
 227 0008 08B1     		cbz	r0, .L22
 135:../../Middlewares/LVGL/GUI/lvgl/src/stdlib/lv_mem.c **** 
 136:../../Middlewares/LVGL/GUI/lvgl/src/stdlib/lv_mem.c ****     lv_free_core(data);
 228              		.loc 1 136 5 is_stmt 1 view .LVU49
 229 000a FFF7FEFF 		bl	lv_free_core
 230              	.LVL16:
 231              	.L22:
 137:../../Middlewares/LVGL/GUI/lvgl/src/stdlib/lv_mem.c **** }
 232              		.loc 1 137 1 is_stmt 0 view .LVU50
 233 000e 08BD     		pop	{r3, pc}
 234              	.L26:
 235              		.align	2
 236              	.L25:
 237 0010 64000000 		.word	lv_global+100
 238              		.cfi_endproc
 239              	.LFE191:
 241              		.section	.text.lv_realloc,"ax",%progbits
 242              		.align	1
ARM GAS  C:\Users\28576\AppData\Local\Temp\ccT102hz.s 			page 9


 243              		.global	lv_realloc
 244              		.syntax unified
 245              		.thumb
 246              		.thumb_func
 248              	lv_realloc:
 249              	.LVL17:
 250              	.LFB193:
 138:../../Middlewares/LVGL/GUI/lvgl/src/stdlib/lv_mem.c **** 
 139:../../Middlewares/LVGL/GUI/lvgl/src/stdlib/lv_mem.c **** void * lv_reallocf(void * data_p, size_t new_size)
 140:../../Middlewares/LVGL/GUI/lvgl/src/stdlib/lv_mem.c **** {
 141:../../Middlewares/LVGL/GUI/lvgl/src/stdlib/lv_mem.c ****     void * new = lv_realloc(data_p, new_size);
 142:../../Middlewares/LVGL/GUI/lvgl/src/stdlib/lv_mem.c ****     if(!new) {
 143:../../Middlewares/LVGL/GUI/lvgl/src/stdlib/lv_mem.c ****         lv_free(data_p);
 144:../../Middlewares/LVGL/GUI/lvgl/src/stdlib/lv_mem.c ****     }
 145:../../Middlewares/LVGL/GUI/lvgl/src/stdlib/lv_mem.c ****     return new;
 146:../../Middlewares/LVGL/GUI/lvgl/src/stdlib/lv_mem.c **** }
 147:../../Middlewares/LVGL/GUI/lvgl/src/stdlib/lv_mem.c **** 
 148:../../Middlewares/LVGL/GUI/lvgl/src/stdlib/lv_mem.c **** void * lv_realloc(void * data_p, size_t new_size)
 149:../../Middlewares/LVGL/GUI/lvgl/src/stdlib/lv_mem.c **** {
 251              		.loc 1 149 1 is_stmt 1 view -0
 252              		.cfi_startproc
 253              		@ args = 0, pretend = 0, frame = 0
 254              		@ frame_needed = 0, uses_anonymous_args = 0
 255              		.loc 1 149 1 is_stmt 0 view .LVU52
 256 0000 08B5     		push	{r3, lr}
 257              	.LCFI5:
 258              		.cfi_def_cfa_offset 8
 259              		.cfi_offset 3, -8
 260              		.cfi_offset 14, -4
 150:../../Middlewares/LVGL/GUI/lvgl/src/stdlib/lv_mem.c ****     LV_TRACE_MEM("reallocating %p with %lu size", data_p, (unsigned long)new_size);
 261              		.loc 1 150 83 is_stmt 1 view .LVU53
 151:../../Middlewares/LVGL/GUI/lvgl/src/stdlib/lv_mem.c ****     if(new_size == 0) {
 262              		.loc 1 151 5 view .LVU54
 263              		.loc 1 151 7 is_stmt 0 view .LVU55
 264 0002 29B1     		cbz	r1, .L32
 152:../../Middlewares/LVGL/GUI/lvgl/src/stdlib/lv_mem.c ****         LV_TRACE_MEM("using zero_mem");
 153:../../Middlewares/LVGL/GUI/lvgl/src/stdlib/lv_mem.c ****         lv_free(data_p);
 154:../../Middlewares/LVGL/GUI/lvgl/src/stdlib/lv_mem.c ****         return &zero_mem;
 155:../../Middlewares/LVGL/GUI/lvgl/src/stdlib/lv_mem.c ****     }
 156:../../Middlewares/LVGL/GUI/lvgl/src/stdlib/lv_mem.c **** 
 157:../../Middlewares/LVGL/GUI/lvgl/src/stdlib/lv_mem.c ****     if(data_p == &zero_mem) return lv_malloc(new_size);
 265              		.loc 1 157 5 is_stmt 1 view .LVU56
 266              		.loc 1 157 7 is_stmt 0 view .LVU57
 267 0004 064A     		ldr	r2, .L34
 268 0006 9042     		cmp	r0, r2
 269 0008 06D0     		beq	.L33
 158:../../Middlewares/LVGL/GUI/lvgl/src/stdlib/lv_mem.c **** 
 159:../../Middlewares/LVGL/GUI/lvgl/src/stdlib/lv_mem.c ****     void * new_p = lv_realloc_core(data_p, new_size);
 270              		.loc 1 159 5 is_stmt 1 view .LVU58
 271              		.loc 1 159 20 is_stmt 0 view .LVU59
 272 000a FFF7FEFF 		bl	lv_realloc_core
 273              	.LVL18:
 160:../../Middlewares/LVGL/GUI/lvgl/src/stdlib/lv_mem.c **** 
 161:../../Middlewares/LVGL/GUI/lvgl/src/stdlib/lv_mem.c ****     if(new_p == NULL) {
 274              		.loc 1 161 5 is_stmt 1 view .LVU60
 275              	.L27:
 162:../../Middlewares/LVGL/GUI/lvgl/src/stdlib/lv_mem.c ****         LV_LOG_ERROR("couldn't reallocate memory");
ARM GAS  C:\Users\28576\AppData\Local\Temp\ccT102hz.s 			page 10


 163:../../Middlewares/LVGL/GUI/lvgl/src/stdlib/lv_mem.c ****         return NULL;
 164:../../Middlewares/LVGL/GUI/lvgl/src/stdlib/lv_mem.c ****     }
 165:../../Middlewares/LVGL/GUI/lvgl/src/stdlib/lv_mem.c **** 
 166:../../Middlewares/LVGL/GUI/lvgl/src/stdlib/lv_mem.c ****     LV_TRACE_MEM("reallocated at %p", new_p);
 167:../../Middlewares/LVGL/GUI/lvgl/src/stdlib/lv_mem.c ****     return new_p;
 168:../../Middlewares/LVGL/GUI/lvgl/src/stdlib/lv_mem.c **** }
 276              		.loc 1 168 1 is_stmt 0 view .LVU61
 277 000e 08BD     		pop	{r3, pc}
 278              	.LVL19:
 279              	.L32:
 152:../../Middlewares/LVGL/GUI/lvgl/src/stdlib/lv_mem.c ****         lv_free(data_p);
 280              		.loc 1 152 39 is_stmt 1 view .LVU62
 153:../../Middlewares/LVGL/GUI/lvgl/src/stdlib/lv_mem.c ****         return &zero_mem;
 281              		.loc 1 153 9 view .LVU63
 282 0010 FFF7FEFF 		bl	lv_free
 283              	.LVL20:
 154:../../Middlewares/LVGL/GUI/lvgl/src/stdlib/lv_mem.c ****     }
 284              		.loc 1 154 9 view .LVU64
 154:../../Middlewares/LVGL/GUI/lvgl/src/stdlib/lv_mem.c ****     }
 285              		.loc 1 154 16 is_stmt 0 view .LVU65
 286 0014 0248     		ldr	r0, .L34
 287 0016 FAE7     		b	.L27
 288              	.LVL21:
 289              	.L33:
 157:../../Middlewares/LVGL/GUI/lvgl/src/stdlib/lv_mem.c **** 
 290              		.loc 1 157 29 is_stmt 1 discriminator 1 view .LVU66
 157:../../Middlewares/LVGL/GUI/lvgl/src/stdlib/lv_mem.c **** 
 291              		.loc 1 157 36 is_stmt 0 discriminator 1 view .LVU67
 292 0018 0846     		mov	r0, r1
 293              	.LVL22:
 157:../../Middlewares/LVGL/GUI/lvgl/src/stdlib/lv_mem.c **** 
 294              		.loc 1 157 36 discriminator 1 view .LVU68
 295 001a FFF7FEFF 		bl	lv_malloc
 296              	.LVL23:
 157:../../Middlewares/LVGL/GUI/lvgl/src/stdlib/lv_mem.c **** 
 297              		.loc 1 157 36 view .LVU69
 298 001e F6E7     		b	.L27
 299              	.L35:
 300              		.align	2
 301              	.L34:
 302 0020 64000000 		.word	lv_global+100
 303              		.cfi_endproc
 304              	.LFE193:
 306              		.section	.text.lv_reallocf,"ax",%progbits
 307              		.align	1
 308              		.global	lv_reallocf
 309              		.syntax unified
 310              		.thumb
 311              		.thumb_func
 313              	lv_reallocf:
 314              	.LVL24:
 315              	.LFB192:
 140:../../Middlewares/LVGL/GUI/lvgl/src/stdlib/lv_mem.c ****     void * new = lv_realloc(data_p, new_size);
 316              		.loc 1 140 1 is_stmt 1 view -0
 317              		.cfi_startproc
 318              		@ args = 0, pretend = 0, frame = 0
 319              		@ frame_needed = 0, uses_anonymous_args = 0
ARM GAS  C:\Users\28576\AppData\Local\Temp\ccT102hz.s 			page 11


 140:../../Middlewares/LVGL/GUI/lvgl/src/stdlib/lv_mem.c ****     void * new = lv_realloc(data_p, new_size);
 320              		.loc 1 140 1 is_stmt 0 view .LVU71
 321 0000 38B5     		push	{r3, r4, r5, lr}
 322              	.LCFI6:
 323              		.cfi_def_cfa_offset 16
 324              		.cfi_offset 3, -16
 325              		.cfi_offset 4, -12
 326              		.cfi_offset 5, -8
 327              		.cfi_offset 14, -4
 328 0002 0546     		mov	r5, r0
 141:../../Middlewares/LVGL/GUI/lvgl/src/stdlib/lv_mem.c ****     if(!new) {
 329              		.loc 1 141 5 is_stmt 1 view .LVU72
 141:../../Middlewares/LVGL/GUI/lvgl/src/stdlib/lv_mem.c ****     if(!new) {
 330              		.loc 1 141 18 is_stmt 0 view .LVU73
 331 0004 FFF7FEFF 		bl	lv_realloc
 332              	.LVL25:
 142:../../Middlewares/LVGL/GUI/lvgl/src/stdlib/lv_mem.c ****         lv_free(data_p);
 333              		.loc 1 142 5 is_stmt 1 view .LVU74
 142:../../Middlewares/LVGL/GUI/lvgl/src/stdlib/lv_mem.c ****         lv_free(data_p);
 334              		.loc 1 142 7 is_stmt 0 view .LVU75
 335 0008 0446     		mov	r4, r0
 336 000a 08B1     		cbz	r0, .L39
 337              	.LVL26:
 338              	.L36:
 146:../../Middlewares/LVGL/GUI/lvgl/src/stdlib/lv_mem.c **** 
 339              		.loc 1 146 1 view .LVU76
 340 000c 2046     		mov	r0, r4
 341 000e 38BD     		pop	{r3, r4, r5, pc}
 342              	.LVL27:
 343              	.L39:
 143:../../Middlewares/LVGL/GUI/lvgl/src/stdlib/lv_mem.c ****     }
 344              		.loc 1 143 9 is_stmt 1 view .LVU77
 345 0010 2846     		mov	r0, r5
 346              	.LVL28:
 143:../../Middlewares/LVGL/GUI/lvgl/src/stdlib/lv_mem.c ****     }
 347              		.loc 1 143 9 is_stmt 0 view .LVU78
 348 0012 FFF7FEFF 		bl	lv_free
 349              	.LVL29:
 145:../../Middlewares/LVGL/GUI/lvgl/src/stdlib/lv_mem.c **** }
 350              		.loc 1 145 5 is_stmt 1 view .LVU79
 145:../../Middlewares/LVGL/GUI/lvgl/src/stdlib/lv_mem.c **** }
 351              		.loc 1 145 12 is_stmt 0 view .LVU80
 352 0016 F9E7     		b	.L36
 353              		.cfi_endproc
 354              	.LFE192:
 356              		.section	.text.lv_mem_test,"ax",%progbits
 357              		.align	1
 358              		.global	lv_mem_test
 359              		.syntax unified
 360              		.thumb
 361              		.thumb_func
 363              	lv_mem_test:
 364              	.LFB194:
 169:../../Middlewares/LVGL/GUI/lvgl/src/stdlib/lv_mem.c **** 
 170:../../Middlewares/LVGL/GUI/lvgl/src/stdlib/lv_mem.c **** lv_result_t lv_mem_test(void)
 171:../../Middlewares/LVGL/GUI/lvgl/src/stdlib/lv_mem.c **** {
 365              		.loc 1 171 1 is_stmt 1 view -0
ARM GAS  C:\Users\28576\AppData\Local\Temp\ccT102hz.s 			page 12


 366              		.cfi_startproc
 367              		@ args = 0, pretend = 0, frame = 0
 368              		@ frame_needed = 0, uses_anonymous_args = 0
 369 0000 08B5     		push	{r3, lr}
 370              	.LCFI7:
 371              		.cfi_def_cfa_offset 8
 372              		.cfi_offset 3, -8
 373              		.cfi_offset 14, -4
 172:../../Middlewares/LVGL/GUI/lvgl/src/stdlib/lv_mem.c ****     if(zero_mem != ZERO_MEM_SENTINEL) {
 374              		.loc 1 172 5 view .LVU82
 375              		.loc 1 172 8 is_stmt 0 view .LVU83
 376 0002 054B     		ldr	r3, .L45
 377 0004 5A6E     		ldr	r2, [r3, #100]
 378              		.loc 1 172 7 view .LVU84
 379 0006 054B     		ldr	r3, .L45+4
 380 0008 9A42     		cmp	r2, r3
 381 000a 01D0     		beq	.L44
 173:../../Middlewares/LVGL/GUI/lvgl/src/stdlib/lv_mem.c ****         LV_LOG_WARN("zero_mem is written");
 174:../../Middlewares/LVGL/GUI/lvgl/src/stdlib/lv_mem.c ****         return LV_RESULT_INVALID;
 382              		.loc 1 174 16 view .LVU85
 383 000c 0020     		movs	r0, #0
 384              	.L41:
 175:../../Middlewares/LVGL/GUI/lvgl/src/stdlib/lv_mem.c ****     }
 176:../../Middlewares/LVGL/GUI/lvgl/src/stdlib/lv_mem.c **** 
 177:../../Middlewares/LVGL/GUI/lvgl/src/stdlib/lv_mem.c ****     return lv_mem_test_core();
 178:../../Middlewares/LVGL/GUI/lvgl/src/stdlib/lv_mem.c **** }
 385              		.loc 1 178 1 view .LVU86
 386 000e 08BD     		pop	{r3, pc}
 387              	.L44:
 177:../../Middlewares/LVGL/GUI/lvgl/src/stdlib/lv_mem.c **** }
 388              		.loc 1 177 5 is_stmt 1 view .LVU87
 177:../../Middlewares/LVGL/GUI/lvgl/src/stdlib/lv_mem.c **** }
 389              		.loc 1 177 12 is_stmt 0 view .LVU88
 390 0010 FFF7FEFF 		bl	lv_mem_test_core
 391              	.LVL30:
 392 0014 FBE7     		b	.L41
 393              	.L46:
 394 0016 00BF     		.align	2
 395              	.L45:
 396 0018 00000000 		.word	lv_global
 397 001c D4C3B2A1 		.word	-1582119980
 398              		.cfi_endproc
 399              	.LFE194:
 401              		.section	.text.lv_mem_monitor,"ax",%progbits
 402              		.align	1
 403              		.global	lv_mem_monitor
 404              		.syntax unified
 405              		.thumb
 406              		.thumb_func
 408              	lv_mem_monitor:
 409              	.LVL31:
 410              	.LFB195:
 179:../../Middlewares/LVGL/GUI/lvgl/src/stdlib/lv_mem.c **** 
 180:../../Middlewares/LVGL/GUI/lvgl/src/stdlib/lv_mem.c **** void lv_mem_monitor(lv_mem_monitor_t * mon_p)
 181:../../Middlewares/LVGL/GUI/lvgl/src/stdlib/lv_mem.c **** {
 411              		.loc 1 181 1 is_stmt 1 view -0
 412              		.cfi_startproc
ARM GAS  C:\Users\28576\AppData\Local\Temp\ccT102hz.s 			page 13


 413              		@ args = 0, pretend = 0, frame = 0
 414              		@ frame_needed = 0, uses_anonymous_args = 0
 415              		.loc 1 181 1 is_stmt 0 view .LVU90
 416 0000 10B5     		push	{r4, lr}
 417              	.LCFI8:
 418              		.cfi_def_cfa_offset 8
 419              		.cfi_offset 4, -8
 420              		.cfi_offset 14, -4
 421 0002 0446     		mov	r4, r0
 182:../../Middlewares/LVGL/GUI/lvgl/src/stdlib/lv_mem.c ****     lv_memzero(mon_p, sizeof(lv_mem_monitor_t));
 422              		.loc 1 182 5 is_stmt 1 view .LVU91
 423              	.LVL32:
 424              	.LBB8:
 425              	.LBI8:
  73:../../Middlewares/LVGL/GUI/lvgl/src/stdlib/lv_string.h **** {
 426              		.loc 2 73 20 view .LVU92
 427              	.LBB9:
 428              		.loc 2 75 5 view .LVU93
 429 0004 1C22     		movs	r2, #28
 430 0006 0021     		movs	r1, #0
 431 0008 FFF7FEFF 		bl	lv_memset
 432              	.LVL33:
 433              		.loc 2 75 5 is_stmt 0 view .LVU94
 434              	.LBE9:
 435              	.LBE8:
 183:../../Middlewares/LVGL/GUI/lvgl/src/stdlib/lv_mem.c ****     lv_mem_monitor_core(mon_p);
 436              		.loc 1 183 5 is_stmt 1 view .LVU95
 437 000c 2046     		mov	r0, r4
 438 000e FFF7FEFF 		bl	lv_mem_monitor_core
 439              	.LVL34:
 184:../../Middlewares/LVGL/GUI/lvgl/src/stdlib/lv_mem.c **** }
 440              		.loc 1 184 1 is_stmt 0 view .LVU96
 441 0012 10BD     		pop	{r4, pc}
 442              		.loc 1 184 1 view .LVU97
 443              		.cfi_endproc
 444              	.LFE195:
 446              		.text
 447              	.Letext0:
 448              		.file 3 "C:/Users/28576/AppData/Roaming/xPacks/@xpack-dev-tools/arm-none-eabi-gcc/15.2.1-1.1.1/.co
 449              		.file 4 "C:/Users/28576/AppData/Roaming/xPacks/@xpack-dev-tools/arm-none-eabi-gcc/15.2.1-1.1.1/.co
 450              		.file 5 "C:/Users/28576/AppData/Roaming/xPacks/@xpack-dev-tools/arm-none-eabi-gcc/15.2.1-1.1.1/.co
 451              		.file 6 "../../Middlewares/LVGL/GUI/lvgl/src/stdlib/../misc/lv_types.h"
 452              		.file 7 "H:/STM32H7/RGB_LVGL/Middlewares/LVGL/GUI/lvgl/src/draw/lv_draw.h"
 453              		.file 8 "H:/STM32H7/RGB_LVGL/Middlewares/LVGL/GUI/lvgl/src/draw/lv_draw_private.h"
 454              		.file 9 "H:/STM32H7/RGB_LVGL/Middlewares/LVGL/GUI/lvgl/src/misc/lv_timer_private.h"
 455              		.file 10 "H:/STM32H7/RGB_LVGL/Middlewares/LVGL/GUI/lvgl/src/misc/cache/lv_cache_private.h"
 456              		.file 11 "H:/STM32H7/RGB_LVGL/Middlewares/LVGL/GUI/lvgl/src/draw/lv_draw_buf_private.h"
 457              		.file 12 "H:/STM32H7/RGB_LVGL/Middlewares/LVGL/GUI/lvgl/src/draw/lv_draw_buf.h"
 458              		.file 13 "../../Middlewares/LVGL/GUI/lvgl/src/stdlib/lv_mem.h"
 459              		.file 14 "H:/STM32H7/RGB_LVGL/Middlewares/LVGL/GUI/lvgl/src/misc/lv_area.h"
 460              		.file 15 "H:/STM32H7/RGB_LVGL/Middlewares/LVGL/GUI/lvgl/src/misc/lv_color.h"
 461              		.file 16 "H:/STM32H7/RGB_LVGL/Middlewares/LVGL/GUI/lvgl/src/draw/lv_image_dsc.h"
 462              		.file 17 "H:/STM32H7/RGB_LVGL/Middlewares/LVGL/GUI/lvgl/src/tick/lv_tick.h"
 463              		.file 18 "H:/STM32H7/RGB_LVGL/Middlewares/LVGL/GUI/lvgl/src/misc/lv_ll.h"
 464              		.file 19 "H:/STM32H7/RGB_LVGL/Middlewares/LVGL/GUI/lvgl/src/misc/lv_timer.h"
 465              		.file 20 "H:/STM32H7/RGB_LVGL/Middlewares/LVGL/GUI/lvgl/src/layouts/lv_layout.h"
 466              		.file 21 "H:/STM32H7/RGB_LVGL/Middlewares/LVGL/GUI/lvgl/src/osal/lv_os_none.h"
ARM GAS  C:\Users\28576\AppData\Local\Temp\ccT102hz.s 			page 14


 467              		.file 22 "H:/STM32H7/RGB_LVGL/Middlewares/LVGL/GUI/lvgl/src/stdlib/builtin/lv_tlsf.h"
 468              		.file 23 "H:/STM32H7/RGB_LVGL/Middlewares/LVGL/GUI/lvgl/src/misc/lv_anim_private.h"
 469              		.file 24 "H:/STM32H7/RGB_LVGL/Middlewares/LVGL/GUI/lvgl/src/tick/lv_tick_private.h"
 470              		.file 25 "H:/STM32H7/RGB_LVGL/Middlewares/LVGL/GUI/lvgl/src/draw/sw/lv_draw_sw_mask_private.h"
 471              		.file 26 "H:/STM32H7/RGB_LVGL/Middlewares/LVGL/GUI/lvgl/src/stdlib/builtin/lv_tlsf_private.h"
 472              		.file 27 "H:/STM32H7/RGB_LVGL/Middlewares/LVGL/GUI/lvgl/src/layouts/lv_layout_private.h"
 473              		.file 28 "../../Middlewares/LVGL/GUI/lvgl/src/stdlib/../core/lv_global.h"
ARM GAS  C:\Users\28576\AppData\Local\Temp\ccT102hz.s 			page 15

