ARM GAS  C:\Users\28576\AppData\Local\Temp\ccPz32yn.s 			page 1


   1              		.cpu cortex-m7
   2              		.arch armv7e-m
   3              		.fpu fpv5-d16
   4              		.eabi_attribute 28, 1
   5              		.eabi_attribute 20, 1
   6              		.eabi_attribute 21, 1
   7              		.eabi_attribute 23, 3
   8              		.eabi_attribute 24, 1
   9              		.eabi_attribute 25, 1
  10              		.eabi_attribute 26, 1
  11              		.eabi_attribute 30, 1
  12              		.eabi_attribute 34, 1
  13              		.eabi_attribute 18, 4
  14              		.file	"lv_obj_class.c"
  15              		.text
  16              	.Ltext0:
  17              		.cfi_sections	.debug_frame
  18              		.file 1 "../../Middlewares/LVGL/GUI/lvgl/src/core/lv_obj_class.c"
  19              		.section	.text.lv_obj_construct,"ax",%progbits
  20              		.align	1
  21              		.syntax unified
  22              		.thumb
  23              		.thumb_func
  25              	lv_obj_construct:
  26              	.LVL0:
  27              	.LFB177:
   1:../../Middlewares/LVGL/GUI/lvgl/src/core/lv_obj_class.c **** /**
   2:../../Middlewares/LVGL/GUI/lvgl/src/core/lv_obj_class.c ****  * @file lv_obj_class.c
   3:../../Middlewares/LVGL/GUI/lvgl/src/core/lv_obj_class.c ****  *
   4:../../Middlewares/LVGL/GUI/lvgl/src/core/lv_obj_class.c ****  */
   5:../../Middlewares/LVGL/GUI/lvgl/src/core/lv_obj_class.c **** 
   6:../../Middlewares/LVGL/GUI/lvgl/src/core/lv_obj_class.c **** /*********************
   7:../../Middlewares/LVGL/GUI/lvgl/src/core/lv_obj_class.c ****  *      INCLUDES
   8:../../Middlewares/LVGL/GUI/lvgl/src/core/lv_obj_class.c ****  *********************/
   9:../../Middlewares/LVGL/GUI/lvgl/src/core/lv_obj_class.c **** #include "lv_obj_class_private.h"
  10:../../Middlewares/LVGL/GUI/lvgl/src/core/lv_obj_class.c **** #include "lv_obj_private.h"
  11:../../Middlewares/LVGL/GUI/lvgl/src/core/lv_obj_class.c **** #include "../themes/lv_theme.h"
  12:../../Middlewares/LVGL/GUI/lvgl/src/core/lv_obj_class.c **** #include "../display/lv_display.h"
  13:../../Middlewares/LVGL/GUI/lvgl/src/core/lv_obj_class.c **** #include "../display/lv_display_private.h"
  14:../../Middlewares/LVGL/GUI/lvgl/src/core/lv_obj_class.c **** #include "../stdlib/lv_string.h"
  15:../../Middlewares/LVGL/GUI/lvgl/src/core/lv_obj_class.c **** 
  16:../../Middlewares/LVGL/GUI/lvgl/src/core/lv_obj_class.c **** /*********************
  17:../../Middlewares/LVGL/GUI/lvgl/src/core/lv_obj_class.c ****  *      DEFINES
  18:../../Middlewares/LVGL/GUI/lvgl/src/core/lv_obj_class.c ****  *********************/
  19:../../Middlewares/LVGL/GUI/lvgl/src/core/lv_obj_class.c **** #define MY_CLASS (&lv_obj_class)
  20:../../Middlewares/LVGL/GUI/lvgl/src/core/lv_obj_class.c **** 
  21:../../Middlewares/LVGL/GUI/lvgl/src/core/lv_obj_class.c **** /**********************
  22:../../Middlewares/LVGL/GUI/lvgl/src/core/lv_obj_class.c ****  *      TYPEDEFS
  23:../../Middlewares/LVGL/GUI/lvgl/src/core/lv_obj_class.c ****  **********************/
  24:../../Middlewares/LVGL/GUI/lvgl/src/core/lv_obj_class.c **** 
  25:../../Middlewares/LVGL/GUI/lvgl/src/core/lv_obj_class.c **** /**********************
  26:../../Middlewares/LVGL/GUI/lvgl/src/core/lv_obj_class.c ****  *  GLOBAL PROTOTYPES
  27:../../Middlewares/LVGL/GUI/lvgl/src/core/lv_obj_class.c ****  **********************/
  28:../../Middlewares/LVGL/GUI/lvgl/src/core/lv_obj_class.c **** 
  29:../../Middlewares/LVGL/GUI/lvgl/src/core/lv_obj_class.c **** /**********************
  30:../../Middlewares/LVGL/GUI/lvgl/src/core/lv_obj_class.c ****  *  STATIC PROTOTYPES
  31:../../Middlewares/LVGL/GUI/lvgl/src/core/lv_obj_class.c ****  **********************/
ARM GAS  C:\Users\28576\AppData\Local\Temp\ccPz32yn.s 			page 2


  32:../../Middlewares/LVGL/GUI/lvgl/src/core/lv_obj_class.c **** static void lv_obj_construct(const lv_obj_class_t * class_p, lv_obj_t * obj);
  33:../../Middlewares/LVGL/GUI/lvgl/src/core/lv_obj_class.c **** static uint32_t get_instance_size(const lv_obj_class_t * class_p);
  34:../../Middlewares/LVGL/GUI/lvgl/src/core/lv_obj_class.c **** 
  35:../../Middlewares/LVGL/GUI/lvgl/src/core/lv_obj_class.c **** /**********************
  36:../../Middlewares/LVGL/GUI/lvgl/src/core/lv_obj_class.c ****  *  STATIC VARIABLES
  37:../../Middlewares/LVGL/GUI/lvgl/src/core/lv_obj_class.c ****  **********************/
  38:../../Middlewares/LVGL/GUI/lvgl/src/core/lv_obj_class.c **** 
  39:../../Middlewares/LVGL/GUI/lvgl/src/core/lv_obj_class.c **** /**********************
  40:../../Middlewares/LVGL/GUI/lvgl/src/core/lv_obj_class.c ****  *      MACROS
  41:../../Middlewares/LVGL/GUI/lvgl/src/core/lv_obj_class.c ****  **********************/
  42:../../Middlewares/LVGL/GUI/lvgl/src/core/lv_obj_class.c **** 
  43:../../Middlewares/LVGL/GUI/lvgl/src/core/lv_obj_class.c **** /**********************
  44:../../Middlewares/LVGL/GUI/lvgl/src/core/lv_obj_class.c ****  *   GLOBAL FUNCTIONS
  45:../../Middlewares/LVGL/GUI/lvgl/src/core/lv_obj_class.c ****  **********************/
  46:../../Middlewares/LVGL/GUI/lvgl/src/core/lv_obj_class.c **** 
  47:../../Middlewares/LVGL/GUI/lvgl/src/core/lv_obj_class.c **** lv_obj_t * lv_obj_class_create_obj(const lv_obj_class_t * class_p, lv_obj_t * parent)
  48:../../Middlewares/LVGL/GUI/lvgl/src/core/lv_obj_class.c **** {
  49:../../Middlewares/LVGL/GUI/lvgl/src/core/lv_obj_class.c ****     LV_TRACE_OBJ_CREATE("Creating object with %p class on %p parent", (void *)class_p, (void *)pare
  50:../../Middlewares/LVGL/GUI/lvgl/src/core/lv_obj_class.c ****     uint32_t s = get_instance_size(class_p);
  51:../../Middlewares/LVGL/GUI/lvgl/src/core/lv_obj_class.c ****     lv_obj_t * obj = lv_malloc_zeroed(s);
  52:../../Middlewares/LVGL/GUI/lvgl/src/core/lv_obj_class.c ****     if(obj == NULL) return NULL;
  53:../../Middlewares/LVGL/GUI/lvgl/src/core/lv_obj_class.c ****     obj->class_p = class_p;
  54:../../Middlewares/LVGL/GUI/lvgl/src/core/lv_obj_class.c ****     obj->parent = parent;
  55:../../Middlewares/LVGL/GUI/lvgl/src/core/lv_obj_class.c **** 
  56:../../Middlewares/LVGL/GUI/lvgl/src/core/lv_obj_class.c ****     /*Create a screen*/
  57:../../Middlewares/LVGL/GUI/lvgl/src/core/lv_obj_class.c ****     if(parent == NULL) {
  58:../../Middlewares/LVGL/GUI/lvgl/src/core/lv_obj_class.c ****         LV_TRACE_OBJ_CREATE("creating a screen");
  59:../../Middlewares/LVGL/GUI/lvgl/src/core/lv_obj_class.c ****         lv_display_t * disp = lv_display_get_default();
  60:../../Middlewares/LVGL/GUI/lvgl/src/core/lv_obj_class.c ****         if(!disp) {
  61:../../Middlewares/LVGL/GUI/lvgl/src/core/lv_obj_class.c ****             LV_LOG_WARN("No display created yet. No place to assign the new screen");
  62:../../Middlewares/LVGL/GUI/lvgl/src/core/lv_obj_class.c ****             lv_free(obj);
  63:../../Middlewares/LVGL/GUI/lvgl/src/core/lv_obj_class.c ****             return NULL;
  64:../../Middlewares/LVGL/GUI/lvgl/src/core/lv_obj_class.c ****         }
  65:../../Middlewares/LVGL/GUI/lvgl/src/core/lv_obj_class.c **** 
  66:../../Middlewares/LVGL/GUI/lvgl/src/core/lv_obj_class.c ****         if(disp->screens == NULL) {
  67:../../Middlewares/LVGL/GUI/lvgl/src/core/lv_obj_class.c ****             disp->screen_cnt = 0;
  68:../../Middlewares/LVGL/GUI/lvgl/src/core/lv_obj_class.c ****         }
  69:../../Middlewares/LVGL/GUI/lvgl/src/core/lv_obj_class.c **** 
  70:../../Middlewares/LVGL/GUI/lvgl/src/core/lv_obj_class.c ****         lv_obj_t ** screens = lv_realloc(disp->screens, sizeof(lv_obj_t *) * (disp->screen_cnt + 1)
  71:../../Middlewares/LVGL/GUI/lvgl/src/core/lv_obj_class.c ****         LV_ASSERT_MALLOC(screens);
  72:../../Middlewares/LVGL/GUI/lvgl/src/core/lv_obj_class.c ****         if(screens == NULL) {
  73:../../Middlewares/LVGL/GUI/lvgl/src/core/lv_obj_class.c ****             lv_free(obj);
  74:../../Middlewares/LVGL/GUI/lvgl/src/core/lv_obj_class.c ****             return NULL;
  75:../../Middlewares/LVGL/GUI/lvgl/src/core/lv_obj_class.c ****         }
  76:../../Middlewares/LVGL/GUI/lvgl/src/core/lv_obj_class.c **** 
  77:../../Middlewares/LVGL/GUI/lvgl/src/core/lv_obj_class.c ****         disp->screen_cnt++;
  78:../../Middlewares/LVGL/GUI/lvgl/src/core/lv_obj_class.c ****         disp->screens = screens;
  79:../../Middlewares/LVGL/GUI/lvgl/src/core/lv_obj_class.c ****         disp->screens[disp->screen_cnt - 1] = obj;
  80:../../Middlewares/LVGL/GUI/lvgl/src/core/lv_obj_class.c **** 
  81:../../Middlewares/LVGL/GUI/lvgl/src/core/lv_obj_class.c ****         /*Set coordinates to full screen size*/
  82:../../Middlewares/LVGL/GUI/lvgl/src/core/lv_obj_class.c ****         obj->coords.x1 = 0;
  83:../../Middlewares/LVGL/GUI/lvgl/src/core/lv_obj_class.c ****         obj->coords.y1 = 0;
  84:../../Middlewares/LVGL/GUI/lvgl/src/core/lv_obj_class.c ****         obj->coords.x2 = lv_display_get_horizontal_resolution(NULL) - 1;
  85:../../Middlewares/LVGL/GUI/lvgl/src/core/lv_obj_class.c ****         obj->coords.y2 = lv_display_get_vertical_resolution(NULL) - 1;
  86:../../Middlewares/LVGL/GUI/lvgl/src/core/lv_obj_class.c ****     }
  87:../../Middlewares/LVGL/GUI/lvgl/src/core/lv_obj_class.c ****     /*Create a normal object*/
  88:../../Middlewares/LVGL/GUI/lvgl/src/core/lv_obj_class.c ****     else {
ARM GAS  C:\Users\28576\AppData\Local\Temp\ccPz32yn.s 			page 3


  89:../../Middlewares/LVGL/GUI/lvgl/src/core/lv_obj_class.c ****         LV_TRACE_OBJ_CREATE("creating normal object");
  90:../../Middlewares/LVGL/GUI/lvgl/src/core/lv_obj_class.c ****         LV_ASSERT_OBJ(parent, MY_CLASS);
  91:../../Middlewares/LVGL/GUI/lvgl/src/core/lv_obj_class.c ****         if(parent->spec_attr == NULL) {
  92:../../Middlewares/LVGL/GUI/lvgl/src/core/lv_obj_class.c ****             lv_obj_allocate_spec_attr(parent);
  93:../../Middlewares/LVGL/GUI/lvgl/src/core/lv_obj_class.c ****         }
  94:../../Middlewares/LVGL/GUI/lvgl/src/core/lv_obj_class.c **** 
  95:../../Middlewares/LVGL/GUI/lvgl/src/core/lv_obj_class.c ****         parent->spec_attr->child_cnt++;
  96:../../Middlewares/LVGL/GUI/lvgl/src/core/lv_obj_class.c ****         parent->spec_attr->children = lv_realloc(parent->spec_attr->children,
  97:../../Middlewares/LVGL/GUI/lvgl/src/core/lv_obj_class.c ****                                                  sizeof(lv_obj_t *) * parent->spec_attr->child_cnt)
  98:../../Middlewares/LVGL/GUI/lvgl/src/core/lv_obj_class.c ****         parent->spec_attr->children[parent->spec_attr->child_cnt - 1] = obj;
  99:../../Middlewares/LVGL/GUI/lvgl/src/core/lv_obj_class.c ****     }
 100:../../Middlewares/LVGL/GUI/lvgl/src/core/lv_obj_class.c **** 
 101:../../Middlewares/LVGL/GUI/lvgl/src/core/lv_obj_class.c ****     return obj;
 102:../../Middlewares/LVGL/GUI/lvgl/src/core/lv_obj_class.c **** }
 103:../../Middlewares/LVGL/GUI/lvgl/src/core/lv_obj_class.c **** 
 104:../../Middlewares/LVGL/GUI/lvgl/src/core/lv_obj_class.c **** void lv_obj_class_init_obj(lv_obj_t * obj)
 105:../../Middlewares/LVGL/GUI/lvgl/src/core/lv_obj_class.c **** {
 106:../../Middlewares/LVGL/GUI/lvgl/src/core/lv_obj_class.c ****     if(obj == NULL) return;
 107:../../Middlewares/LVGL/GUI/lvgl/src/core/lv_obj_class.c **** 
 108:../../Middlewares/LVGL/GUI/lvgl/src/core/lv_obj_class.c ****     lv_obj_mark_layout_as_dirty(obj);
 109:../../Middlewares/LVGL/GUI/lvgl/src/core/lv_obj_class.c ****     lv_obj_enable_style_refresh(false);
 110:../../Middlewares/LVGL/GUI/lvgl/src/core/lv_obj_class.c **** 
 111:../../Middlewares/LVGL/GUI/lvgl/src/core/lv_obj_class.c ****     lv_theme_apply(obj);
 112:../../Middlewares/LVGL/GUI/lvgl/src/core/lv_obj_class.c ****     lv_obj_construct(obj->class_p, obj);
 113:../../Middlewares/LVGL/GUI/lvgl/src/core/lv_obj_class.c **** 
 114:../../Middlewares/LVGL/GUI/lvgl/src/core/lv_obj_class.c ****     lv_obj_enable_style_refresh(true);
 115:../../Middlewares/LVGL/GUI/lvgl/src/core/lv_obj_class.c ****     lv_obj_refresh_style(obj, LV_PART_ANY, LV_STYLE_PROP_ANY);
 116:../../Middlewares/LVGL/GUI/lvgl/src/core/lv_obj_class.c **** 
 117:../../Middlewares/LVGL/GUI/lvgl/src/core/lv_obj_class.c ****     lv_obj_refresh_self_size(obj);
 118:../../Middlewares/LVGL/GUI/lvgl/src/core/lv_obj_class.c **** 
 119:../../Middlewares/LVGL/GUI/lvgl/src/core/lv_obj_class.c ****     lv_group_t * def_group = lv_group_get_default();
 120:../../Middlewares/LVGL/GUI/lvgl/src/core/lv_obj_class.c ****     if(def_group && lv_obj_is_group_def(obj)) {
 121:../../Middlewares/LVGL/GUI/lvgl/src/core/lv_obj_class.c ****         lv_group_add_obj(def_group, obj);
 122:../../Middlewares/LVGL/GUI/lvgl/src/core/lv_obj_class.c ****     }
 123:../../Middlewares/LVGL/GUI/lvgl/src/core/lv_obj_class.c **** 
 124:../../Middlewares/LVGL/GUI/lvgl/src/core/lv_obj_class.c ****     lv_obj_t * parent = lv_obj_get_parent(obj);
 125:../../Middlewares/LVGL/GUI/lvgl/src/core/lv_obj_class.c ****     if(parent) {
 126:../../Middlewares/LVGL/GUI/lvgl/src/core/lv_obj_class.c ****         /*Call the ancestor's event handler to the parent to notify it about the new child.
 127:../../Middlewares/LVGL/GUI/lvgl/src/core/lv_obj_class.c ****          *Also triggers layout update*/
 128:../../Middlewares/LVGL/GUI/lvgl/src/core/lv_obj_class.c ****         lv_obj_send_event(parent, LV_EVENT_CHILD_CHANGED, obj);
 129:../../Middlewares/LVGL/GUI/lvgl/src/core/lv_obj_class.c ****         lv_obj_send_event(parent, LV_EVENT_CHILD_CREATED, obj);
 130:../../Middlewares/LVGL/GUI/lvgl/src/core/lv_obj_class.c **** 
 131:../../Middlewares/LVGL/GUI/lvgl/src/core/lv_obj_class.c ****         /*Invalidate the area if not screen created*/
 132:../../Middlewares/LVGL/GUI/lvgl/src/core/lv_obj_class.c ****         lv_obj_invalidate(obj);
 133:../../Middlewares/LVGL/GUI/lvgl/src/core/lv_obj_class.c ****     }
 134:../../Middlewares/LVGL/GUI/lvgl/src/core/lv_obj_class.c **** }
 135:../../Middlewares/LVGL/GUI/lvgl/src/core/lv_obj_class.c **** 
 136:../../Middlewares/LVGL/GUI/lvgl/src/core/lv_obj_class.c **** void lv_obj_destruct(lv_obj_t * obj)
 137:../../Middlewares/LVGL/GUI/lvgl/src/core/lv_obj_class.c **** {
 138:../../Middlewares/LVGL/GUI/lvgl/src/core/lv_obj_class.c ****     if(obj->class_p->destructor_cb) obj->class_p->destructor_cb(obj->class_p, obj);
 139:../../Middlewares/LVGL/GUI/lvgl/src/core/lv_obj_class.c **** 
 140:../../Middlewares/LVGL/GUI/lvgl/src/core/lv_obj_class.c ****     if(obj->class_p->base_class) {
 141:../../Middlewares/LVGL/GUI/lvgl/src/core/lv_obj_class.c ****         /*Don't let the descendant methods run during destructing the ancestor type*/
 142:../../Middlewares/LVGL/GUI/lvgl/src/core/lv_obj_class.c ****         obj->class_p = obj->class_p->base_class;
 143:../../Middlewares/LVGL/GUI/lvgl/src/core/lv_obj_class.c **** 
 144:../../Middlewares/LVGL/GUI/lvgl/src/core/lv_obj_class.c ****         /*Call the base class's destructor too*/
 145:../../Middlewares/LVGL/GUI/lvgl/src/core/lv_obj_class.c ****         lv_obj_destruct(obj);
ARM GAS  C:\Users\28576\AppData\Local\Temp\ccPz32yn.s 			page 4


 146:../../Middlewares/LVGL/GUI/lvgl/src/core/lv_obj_class.c ****     }
 147:../../Middlewares/LVGL/GUI/lvgl/src/core/lv_obj_class.c **** }
 148:../../Middlewares/LVGL/GUI/lvgl/src/core/lv_obj_class.c **** 
 149:../../Middlewares/LVGL/GUI/lvgl/src/core/lv_obj_class.c **** bool lv_obj_is_editable(lv_obj_t * obj)
 150:../../Middlewares/LVGL/GUI/lvgl/src/core/lv_obj_class.c **** {
 151:../../Middlewares/LVGL/GUI/lvgl/src/core/lv_obj_class.c ****     const lv_obj_class_t * class_p = obj->class_p;
 152:../../Middlewares/LVGL/GUI/lvgl/src/core/lv_obj_class.c **** 
 153:../../Middlewares/LVGL/GUI/lvgl/src/core/lv_obj_class.c ****     /*Find a base in which editable is set*/
 154:../../Middlewares/LVGL/GUI/lvgl/src/core/lv_obj_class.c ****     while(class_p && class_p->editable == LV_OBJ_CLASS_EDITABLE_INHERIT) class_p = class_p->base_cl
 155:../../Middlewares/LVGL/GUI/lvgl/src/core/lv_obj_class.c **** 
 156:../../Middlewares/LVGL/GUI/lvgl/src/core/lv_obj_class.c ****     if(class_p == NULL) return false;
 157:../../Middlewares/LVGL/GUI/lvgl/src/core/lv_obj_class.c **** 
 158:../../Middlewares/LVGL/GUI/lvgl/src/core/lv_obj_class.c ****     return class_p->editable == LV_OBJ_CLASS_EDITABLE_TRUE;
 159:../../Middlewares/LVGL/GUI/lvgl/src/core/lv_obj_class.c **** }
 160:../../Middlewares/LVGL/GUI/lvgl/src/core/lv_obj_class.c **** 
 161:../../Middlewares/LVGL/GUI/lvgl/src/core/lv_obj_class.c **** bool lv_obj_is_group_def(lv_obj_t * obj)
 162:../../Middlewares/LVGL/GUI/lvgl/src/core/lv_obj_class.c **** {
 163:../../Middlewares/LVGL/GUI/lvgl/src/core/lv_obj_class.c ****     const lv_obj_class_t * class_p = obj->class_p;
 164:../../Middlewares/LVGL/GUI/lvgl/src/core/lv_obj_class.c **** 
 165:../../Middlewares/LVGL/GUI/lvgl/src/core/lv_obj_class.c ****     /*Find a base in which group_def is set*/
 166:../../Middlewares/LVGL/GUI/lvgl/src/core/lv_obj_class.c ****     while(class_p && class_p->group_def == LV_OBJ_CLASS_GROUP_DEF_INHERIT) class_p = class_p->base_
 167:../../Middlewares/LVGL/GUI/lvgl/src/core/lv_obj_class.c **** 
 168:../../Middlewares/LVGL/GUI/lvgl/src/core/lv_obj_class.c ****     if(class_p == NULL) return false;
 169:../../Middlewares/LVGL/GUI/lvgl/src/core/lv_obj_class.c **** 
 170:../../Middlewares/LVGL/GUI/lvgl/src/core/lv_obj_class.c ****     return class_p->group_def == LV_OBJ_CLASS_GROUP_DEF_TRUE;
 171:../../Middlewares/LVGL/GUI/lvgl/src/core/lv_obj_class.c **** }
 172:../../Middlewares/LVGL/GUI/lvgl/src/core/lv_obj_class.c **** 
 173:../../Middlewares/LVGL/GUI/lvgl/src/core/lv_obj_class.c **** /**********************
 174:../../Middlewares/LVGL/GUI/lvgl/src/core/lv_obj_class.c ****  *   STATIC FUNCTIONS
 175:../../Middlewares/LVGL/GUI/lvgl/src/core/lv_obj_class.c ****  **********************/
 176:../../Middlewares/LVGL/GUI/lvgl/src/core/lv_obj_class.c **** 
 177:../../Middlewares/LVGL/GUI/lvgl/src/core/lv_obj_class.c **** static void lv_obj_construct(const lv_obj_class_t * class_p, lv_obj_t * obj)
 178:../../Middlewares/LVGL/GUI/lvgl/src/core/lv_obj_class.c **** {
  28              		.loc 1 178 1 view -0
  29              		.cfi_startproc
  30              		@ args = 0, pretend = 0, frame = 0
  31              		@ frame_needed = 0, uses_anonymous_args = 0
  32              		.loc 1 178 1 is_stmt 0 view .LVU1
  33 0000 70B5     		push	{r4, r5, r6, lr}
  34              	.LCFI0:
  35              		.cfi_def_cfa_offset 16
  36              		.cfi_offset 4, -16
  37              		.cfi_offset 5, -12
  38              		.cfi_offset 6, -8
  39              		.cfi_offset 14, -4
  40 0002 0646     		mov	r6, r0
  41 0004 0C46     		mov	r4, r1
 179:../../Middlewares/LVGL/GUI/lvgl/src/core/lv_obj_class.c ****     if(obj->class_p->base_class) {
  42              		.loc 1 179 5 is_stmt 1 view .LVU2
  43              		.loc 1 179 11 is_stmt 0 view .LVU3
  44 0006 0D68     		ldr	r5, [r1]
  45              		.loc 1 179 20 view .LVU4
  46 0008 2B68     		ldr	r3, [r5]
  47              		.loc 1 179 7 view .LVU5
  48 000a 1BB1     		cbz	r3, .L2
  49              	.LBB2:
 180:../../Middlewares/LVGL/GUI/lvgl/src/core/lv_obj_class.c ****         const lv_obj_class_t * original_class_p = obj->class_p;
ARM GAS  C:\Users\28576\AppData\Local\Temp\ccPz32yn.s 			page 5


  50              		.loc 1 180 9 is_stmt 1 view .LVU6
  51              	.LVL1:
 181:../../Middlewares/LVGL/GUI/lvgl/src/core/lv_obj_class.c **** 
 182:../../Middlewares/LVGL/GUI/lvgl/src/core/lv_obj_class.c ****         /*Don't let the descendant methods run during constructing the ancestor type*/
 183:../../Middlewares/LVGL/GUI/lvgl/src/core/lv_obj_class.c ****         obj->class_p = obj->class_p->base_class;
  52              		.loc 1 183 9 view .LVU7
  53              		.loc 1 183 22 is_stmt 0 view .LVU8
  54 000c 0B60     		str	r3, [r1]
 184:../../Middlewares/LVGL/GUI/lvgl/src/core/lv_obj_class.c **** 
 185:../../Middlewares/LVGL/GUI/lvgl/src/core/lv_obj_class.c ****         /*Construct the base first*/
 186:../../Middlewares/LVGL/GUI/lvgl/src/core/lv_obj_class.c ****         lv_obj_construct(class_p, obj);
  55              		.loc 1 186 9 is_stmt 1 view .LVU9
  56 000e FFF7F7FF 		bl	lv_obj_construct
  57              	.LVL2:
 187:../../Middlewares/LVGL/GUI/lvgl/src/core/lv_obj_class.c **** 
 188:../../Middlewares/LVGL/GUI/lvgl/src/core/lv_obj_class.c ****         /*Restore the original class*/
 189:../../Middlewares/LVGL/GUI/lvgl/src/core/lv_obj_class.c ****         obj->class_p = original_class_p;
  58              		.loc 1 189 9 view .LVU10
  59              		.loc 1 189 22 is_stmt 0 view .LVU11
  60 0012 2560     		str	r5, [r4]
  61              	.LVL3:
  62              	.L2:
  63              		.loc 1 189 22 view .LVU12
  64              	.LBE2:
 190:../../Middlewares/LVGL/GUI/lvgl/src/core/lv_obj_class.c ****     }
 191:../../Middlewares/LVGL/GUI/lvgl/src/core/lv_obj_class.c **** 
 192:../../Middlewares/LVGL/GUI/lvgl/src/core/lv_obj_class.c ****     if(obj->class_p->constructor_cb) obj->class_p->constructor_cb(class_p, obj);
  65              		.loc 1 192 5 is_stmt 1 view .LVU13
  66              		.loc 1 192 11 is_stmt 0 view .LVU14
  67 0014 2368     		ldr	r3, [r4]
  68              		.loc 1 192 20 view .LVU15
  69 0016 5B68     		ldr	r3, [r3, #4]
  70              		.loc 1 192 7 view .LVU16
  71 0018 13B1     		cbz	r3, .L1
  72              		.loc 1 192 38 is_stmt 1 discriminator 1 view .LVU17
  73 001a 2146     		mov	r1, r4
  74 001c 3046     		mov	r0, r6
  75 001e 9847     		blx	r3
  76              	.LVL4:
  77              	.L1:
 193:../../Middlewares/LVGL/GUI/lvgl/src/core/lv_obj_class.c **** }
  78              		.loc 1 193 1 is_stmt 0 view .LVU18
  79 0020 70BD     		pop	{r4, r5, r6, pc}
  80              		.loc 1 193 1 view .LVU19
  81              		.cfi_endproc
  82              	.LFE177:
  84              		.section	.text.get_instance_size,"ax",%progbits
  85              		.align	1
  86              		.syntax unified
  87              		.thumb
  88              		.thumb_func
  90              	get_instance_size:
  91              	.LVL5:
  92              	.LFB178:
 194:../../Middlewares/LVGL/GUI/lvgl/src/core/lv_obj_class.c **** 
 195:../../Middlewares/LVGL/GUI/lvgl/src/core/lv_obj_class.c **** static uint32_t get_instance_size(const lv_obj_class_t * class_p)
 196:../../Middlewares/LVGL/GUI/lvgl/src/core/lv_obj_class.c **** {
ARM GAS  C:\Users\28576\AppData\Local\Temp\ccPz32yn.s 			page 6


  93              		.loc 1 196 1 is_stmt 1 view -0
  94              		.cfi_startproc
  95              		@ args = 0, pretend = 0, frame = 0
  96              		@ frame_needed = 0, uses_anonymous_args = 0
  97              		@ link register save eliminated.
 197:../../Middlewares/LVGL/GUI/lvgl/src/core/lv_obj_class.c ****     /*Find a base in which instance size is set*/
 198:../../Middlewares/LVGL/GUI/lvgl/src/core/lv_obj_class.c ****     const lv_obj_class_t * base = class_p;
  98              		.loc 1 198 5 view .LVU21
 199:../../Middlewares/LVGL/GUI/lvgl/src/core/lv_obj_class.c ****     while(base && base->instance_size == 0) base = base->base_class;
  99              		.loc 1 199 5 view .LVU22
 100              		.loc 1 199 10 is_stmt 0 view .LVU23
 101 0000 00E0     		b	.L6
 102              	.LVL6:
 103              	.L8:
 104              		.loc 1 199 45 is_stmt 1 discriminator 3 view .LVU24
 105              		.loc 1 199 50 is_stmt 0 discriminator 3 view .LVU25
 106 0002 0068     		ldr	r0, [r0]
 107              	.LVL7:
 108              	.L6:
 109              		.loc 1 199 16 is_stmt 1 discriminator 1 view .LVU26
 110 0004 20B1     		cbz	r0, .L7
 111              		.loc 1 199 39 is_stmt 0 discriminator 2 view .LVU27
 112 0006 026A     		ldr	r2, [r0, #32]
 113 0008 044B     		ldr	r3, .L11
 114 000a 1340     		ands	r3, r3, r2
 115              		.loc 1 199 16 discriminator 2 view .LVU28
 116 000c 002B     		cmp	r3, #0
 117 000e F8D0     		beq	.L8
 118              	.L7:
 200:../../Middlewares/LVGL/GUI/lvgl/src/core/lv_obj_class.c **** 
 201:../../Middlewares/LVGL/GUI/lvgl/src/core/lv_obj_class.c ****     if(base == NULL) return 0;  /*Never happens: set at least in `lv_obj` class*/
 119              		.loc 1 201 5 is_stmt 1 view .LVU29
 120              		.loc 1 201 7 is_stmt 0 view .LVU30
 121 0010 10B1     		cbz	r0, .L5
 202:../../Middlewares/LVGL/GUI/lvgl/src/core/lv_obj_class.c **** 
 203:../../Middlewares/LVGL/GUI/lvgl/src/core/lv_obj_class.c ****     return base->instance_size;
 122              		.loc 1 203 5 is_stmt 1 view .LVU31
 123              		.loc 1 203 16 is_stmt 0 view .LVU32
 124 0012 006A     		ldr	r0, [r0, #32]
 125              	.LVL8:
 126              		.loc 1 203 16 view .LVU33
 127 0014 C0F30F10 		ubfx	r0, r0, #4, #16
 128              	.L5:
 204:../../Middlewares/LVGL/GUI/lvgl/src/core/lv_obj_class.c **** }
 129              		.loc 1 204 1 view .LVU34
 130 0018 7047     		bx	lr
 131              	.L12:
 132 001a 00BF     		.align	2
 133              	.L11:
 134 001c F0FF0F00 		.word	1048560
 135              		.cfi_endproc
 136              	.LFE178:
 138              		.section	.text.lv_obj_class_create_obj,"ax",%progbits
 139              		.align	1
 140              		.global	lv_obj_class_create_obj
 141              		.syntax unified
 142              		.thumb
ARM GAS  C:\Users\28576\AppData\Local\Temp\ccPz32yn.s 			page 7


 143              		.thumb_func
 145              	lv_obj_class_create_obj:
 146              	.LVL9:
 147              	.LFB172:
  48:../../Middlewares/LVGL/GUI/lvgl/src/core/lv_obj_class.c ****     LV_TRACE_OBJ_CREATE("Creating object with %p class on %p parent", (void *)class_p, (void *)pare
 148              		.loc 1 48 1 is_stmt 1 view -0
 149              		.cfi_startproc
 150              		@ args = 0, pretend = 0, frame = 0
 151              		@ frame_needed = 0, uses_anonymous_args = 0
  48:../../Middlewares/LVGL/GUI/lvgl/src/core/lv_obj_class.c ****     LV_TRACE_OBJ_CREATE("Creating object with %p class on %p parent", (void *)class_p, (void *)pare
 152              		.loc 1 48 1 is_stmt 0 view .LVU36
 153 0000 70B5     		push	{r4, r5, r6, lr}
 154              	.LCFI1:
 155              		.cfi_def_cfa_offset 16
 156              		.cfi_offset 4, -16
 157              		.cfi_offset 5, -12
 158              		.cfi_offset 6, -8
 159              		.cfi_offset 14, -4
 160 0002 0646     		mov	r6, r0
 161 0004 0C46     		mov	r4, r1
  49:../../Middlewares/LVGL/GUI/lvgl/src/core/lv_obj_class.c ****     uint32_t s = get_instance_size(class_p);
 162              		.loc 1 49 103 is_stmt 1 view .LVU37
  50:../../Middlewares/LVGL/GUI/lvgl/src/core/lv_obj_class.c ****     lv_obj_t * obj = lv_malloc_zeroed(s);
 163              		.loc 1 50 5 view .LVU38
  50:../../Middlewares/LVGL/GUI/lvgl/src/core/lv_obj_class.c ****     lv_obj_t * obj = lv_malloc_zeroed(s);
 164              		.loc 1 50 18 is_stmt 0 view .LVU39
 165 0006 FFF7FEFF 		bl	get_instance_size
 166              	.LVL10:
  51:../../Middlewares/LVGL/GUI/lvgl/src/core/lv_obj_class.c ****     if(obj == NULL) return NULL;
 167              		.loc 1 51 5 is_stmt 1 view .LVU40
  51:../../Middlewares/LVGL/GUI/lvgl/src/core/lv_obj_class.c ****     if(obj == NULL) return NULL;
 168              		.loc 1 51 22 is_stmt 0 view .LVU41
 169 000a FFF7FEFF 		bl	lv_malloc_zeroed
 170              	.LVL11:
  52:../../Middlewares/LVGL/GUI/lvgl/src/core/lv_obj_class.c ****     obj->class_p = class_p;
 171              		.loc 1 52 5 is_stmt 1 view .LVU42
  52:../../Middlewares/LVGL/GUI/lvgl/src/core/lv_obj_class.c ****     obj->class_p = class_p;
 172              		.loc 1 52 7 is_stmt 0 view .LVU43
 173 000e 0546     		mov	r5, r0
 174 0010 C0B1     		cbz	r0, .L13
  53:../../Middlewares/LVGL/GUI/lvgl/src/core/lv_obj_class.c ****     obj->parent = parent;
 175              		.loc 1 53 5 is_stmt 1 view .LVU44
  53:../../Middlewares/LVGL/GUI/lvgl/src/core/lv_obj_class.c ****     obj->parent = parent;
 176              		.loc 1 53 18 is_stmt 0 view .LVU45
 177 0012 0660     		str	r6, [r0]
  54:../../Middlewares/LVGL/GUI/lvgl/src/core/lv_obj_class.c **** 
 178              		.loc 1 54 5 is_stmt 1 view .LVU46
  54:../../Middlewares/LVGL/GUI/lvgl/src/core/lv_obj_class.c **** 
 179              		.loc 1 54 17 is_stmt 0 view .LVU47
 180 0014 4460     		str	r4, [r0, #4]
  57:../../Middlewares/LVGL/GUI/lvgl/src/core/lv_obj_class.c ****         LV_TRACE_OBJ_CREATE("creating a screen");
 181              		.loc 1 57 5 is_stmt 1 view .LVU48
  57:../../Middlewares/LVGL/GUI/lvgl/src/core/lv_obj_class.c ****         LV_TRACE_OBJ_CREATE("creating a screen");
 182              		.loc 1 57 7 is_stmt 0 view .LVU49
 183 0016 BCB1     		cbz	r4, .L22
  89:../../Middlewares/LVGL/GUI/lvgl/src/core/lv_obj_class.c ****         LV_ASSERT_OBJ(parent, MY_CLASS);
 184              		.loc 1 89 54 is_stmt 1 view .LVU50
ARM GAS  C:\Users\28576\AppData\Local\Temp\ccPz32yn.s 			page 8


  90:../../Middlewares/LVGL/GUI/lvgl/src/core/lv_obj_class.c ****         if(parent->spec_attr == NULL) {
 185              		.loc 1 90 9 view .LVU51
  90:../../Middlewares/LVGL/GUI/lvgl/src/core/lv_obj_class.c ****         if(parent->spec_attr == NULL) {
 186              		.loc 1 90 9 view .LVU52
  90:../../Middlewares/LVGL/GUI/lvgl/src/core/lv_obj_class.c ****         if(parent->spec_attr == NULL) {
 187              		.loc 1 90 9 view .LVU53
  90:../../Middlewares/LVGL/GUI/lvgl/src/core/lv_obj_class.c ****         if(parent->spec_attr == NULL) {
 188              		.loc 1 90 40 view .LVU54
  91:../../Middlewares/LVGL/GUI/lvgl/src/core/lv_obj_class.c ****             lv_obj_allocate_spec_attr(parent);
 189              		.loc 1 91 9 view .LVU55
  91:../../Middlewares/LVGL/GUI/lvgl/src/core/lv_obj_class.c ****             lv_obj_allocate_spec_attr(parent);
 190              		.loc 1 91 18 is_stmt 0 view .LVU56
 191 0018 A368     		ldr	r3, [r4, #8]
  91:../../Middlewares/LVGL/GUI/lvgl/src/core/lv_obj_class.c ****             lv_obj_allocate_spec_attr(parent);
 192              		.loc 1 91 11 view .LVU57
 193 001a 002B     		cmp	r3, #0
 194 001c 42D0     		beq	.L23
 195              	.LVL12:
 196              	.L20:
  95:../../Middlewares/LVGL/GUI/lvgl/src/core/lv_obj_class.c ****         parent->spec_attr->children = lv_realloc(parent->spec_attr->children,
 197              		.loc 1 95 9 is_stmt 1 view .LVU58
  95:../../Middlewares/LVGL/GUI/lvgl/src/core/lv_obj_class.c ****         parent->spec_attr->children = lv_realloc(parent->spec_attr->children,
 198              		.loc 1 95 15 is_stmt 0 view .LVU59
 199 001e A268     		ldr	r2, [r4, #8]
  95:../../Middlewares/LVGL/GUI/lvgl/src/core/lv_obj_class.c ****         parent->spec_attr->children = lv_realloc(parent->spec_attr->children,
 200              		.loc 1 95 26 view .LVU60
 201 0020 138E     		ldrh	r3, [r2, #48]
  95:../../Middlewares/LVGL/GUI/lvgl/src/core/lv_obj_class.c ****         parent->spec_attr->children = lv_realloc(parent->spec_attr->children,
 202              		.loc 1 95 37 view .LVU61
 203 0022 0133     		adds	r3, r3, #1
 204 0024 1386     		strh	r3, [r2, #48]	@ movhi
  96:../../Middlewares/LVGL/GUI/lvgl/src/core/lv_obj_class.c ****                                                  sizeof(lv_obj_t *) * parent->spec_attr->child_cnt)
 205              		.loc 1 96 9 is_stmt 1 view .LVU62
  96:../../Middlewares/LVGL/GUI/lvgl/src/core/lv_obj_class.c ****                                                  sizeof(lv_obj_t *) * parent->spec_attr->child_cnt)
 206              		.loc 1 96 56 is_stmt 0 view .LVU63
 207 0026 A668     		ldr	r6, [r4, #8]
 208              	.LVL13:
  97:../../Middlewares/LVGL/GUI/lvgl/src/core/lv_obj_class.c ****         parent->spec_attr->children[parent->spec_attr->child_cnt - 1] = obj;
 209              		.loc 1 97 88 view .LVU64
 210 0028 318E     		ldrh	r1, [r6, #48]
  96:../../Middlewares/LVGL/GUI/lvgl/src/core/lv_obj_class.c ****                                                  sizeof(lv_obj_t *) * parent->spec_attr->child_cnt)
 211              		.loc 1 96 39 view .LVU65
 212 002a 8900     		lsls	r1, r1, #2
 213 002c 3068     		ldr	r0, [r6]
 214 002e FFF7FEFF 		bl	lv_realloc
 215              	.LVL14:
  96:../../Middlewares/LVGL/GUI/lvgl/src/core/lv_obj_class.c ****                                                  sizeof(lv_obj_t *) * parent->spec_attr->child_cnt)
 216              		.loc 1 96 37 discriminator 1 view .LVU66
 217 0032 3060     		str	r0, [r6]
  98:../../Middlewares/LVGL/GUI/lvgl/src/core/lv_obj_class.c ****     }
 218              		.loc 1 98 9 is_stmt 1 view .LVU67
  98:../../Middlewares/LVGL/GUI/lvgl/src/core/lv_obj_class.c ****     }
 219              		.loc 1 98 15 is_stmt 0 view .LVU68
 220 0034 A368     		ldr	r3, [r4, #8]
  98:../../Middlewares/LVGL/GUI/lvgl/src/core/lv_obj_class.c ****     }
 221              		.loc 1 98 26 view .LVU69
 222 0036 1A68     		ldr	r2, [r3]
ARM GAS  C:\Users\28576\AppData\Local\Temp\ccPz32yn.s 			page 9


  98:../../Middlewares/LVGL/GUI/lvgl/src/core/lv_obj_class.c ****     }
 223              		.loc 1 98 54 view .LVU70
 224 0038 198E     		ldrh	r1, [r3, #48]
  98:../../Middlewares/LVGL/GUI/lvgl/src/core/lv_obj_class.c ****     }
 225              		.loc 1 98 66 view .LVU71
 226 003a 6FF04043 		mvn	r3, #-1073741824
 227 003e 0B44     		add	r3, r3, r1
  98:../../Middlewares/LVGL/GUI/lvgl/src/core/lv_obj_class.c ****     }
 228              		.loc 1 98 71 view .LVU72
 229 0040 42F82350 		str	r5, [r2, r3, lsl #2]
 230              	.LVL15:
 231              	.L13:
 102:../../Middlewares/LVGL/GUI/lvgl/src/core/lv_obj_class.c **** 
 232              		.loc 1 102 1 view .LVU73
 233 0044 2846     		mov	r0, r5
 234 0046 70BD     		pop	{r4, r5, r6, pc}
 235              	.LVL16:
 236              	.L22:
 237              	.LBB3:
  58:../../Middlewares/LVGL/GUI/lvgl/src/core/lv_obj_class.c ****         lv_display_t * disp = lv_display_get_default();
 238              		.loc 1 58 49 is_stmt 1 view .LVU74
  59:../../Middlewares/LVGL/GUI/lvgl/src/core/lv_obj_class.c ****         if(!disp) {
 239              		.loc 1 59 9 view .LVU75
  59:../../Middlewares/LVGL/GUI/lvgl/src/core/lv_obj_class.c ****         if(!disp) {
 240              		.loc 1 59 31 is_stmt 0 view .LVU76
 241 0048 FFF7FEFF 		bl	lv_display_get_default
 242              	.LVL17:
  60:../../Middlewares/LVGL/GUI/lvgl/src/core/lv_obj_class.c ****             LV_LOG_WARN("No display created yet. No place to assign the new screen");
 243              		.loc 1 60 9 is_stmt 1 view .LVU77
  60:../../Middlewares/LVGL/GUI/lvgl/src/core/lv_obj_class.c ****             LV_LOG_WARN("No display created yet. No place to assign the new screen");
 244              		.loc 1 60 11 is_stmt 0 view .LVU78
 245 004c 0446     		mov	r4, r0
 246              	.LVL18:
  60:../../Middlewares/LVGL/GUI/lvgl/src/core/lv_obj_class.c ****             LV_LOG_WARN("No display created yet. No place to assign the new screen");
 247              		.loc 1 60 11 view .LVU79
 248 004e 00B3     		cbz	r0, .L24
  66:../../Middlewares/LVGL/GUI/lvgl/src/core/lv_obj_class.c ****             disp->screen_cnt = 0;
 249              		.loc 1 66 9 is_stmt 1 view .LVU80
  66:../../Middlewares/LVGL/GUI/lvgl/src/core/lv_obj_class.c ****             disp->screen_cnt = 0;
 250              		.loc 1 66 16 is_stmt 0 view .LVU81
 251 0050 D0F8BC02 		ldr	r0, [r0, #700]
 252              	.LVL19:
  66:../../Middlewares/LVGL/GUI/lvgl/src/core/lv_obj_class.c ****             disp->screen_cnt = 0;
 253              		.loc 1 66 11 view .LVU82
 254 0054 10B3     		cbz	r0, .L25
 255              	.L17:
  70:../../Middlewares/LVGL/GUI/lvgl/src/core/lv_obj_class.c ****         LV_ASSERT_MALLOC(screens);
 256              		.loc 1 70 9 is_stmt 1 view .LVU83
  70:../../Middlewares/LVGL/GUI/lvgl/src/core/lv_obj_class.c ****         LV_ASSERT_MALLOC(screens);
 257              		.loc 1 70 83 is_stmt 0 view .LVU84
 258 0056 D4F8D812 		ldr	r1, [r4, #728]
  70:../../Middlewares/LVGL/GUI/lvgl/src/core/lv_obj_class.c ****         LV_ASSERT_MALLOC(screens);
 259              		.loc 1 70 96 view .LVU85
 260 005a 0131     		adds	r1, r1, #1
  70:../../Middlewares/LVGL/GUI/lvgl/src/core/lv_obj_class.c ****         LV_ASSERT_MALLOC(screens);
 261              		.loc 1 70 31 view .LVU86
 262 005c 8900     		lsls	r1, r1, #2
ARM GAS  C:\Users\28576\AppData\Local\Temp\ccPz32yn.s 			page 10


 263 005e FFF7FEFF 		bl	lv_realloc
 264              	.LVL20:
  71:../../Middlewares/LVGL/GUI/lvgl/src/core/lv_obj_class.c ****         if(screens == NULL) {
 265              		.loc 1 71 9 is_stmt 1 view .LVU87
  71:../../Middlewares/LVGL/GUI/lvgl/src/core/lv_obj_class.c ****         if(screens == NULL) {
 266              		.loc 1 71 9 view .LVU88
 267 0062 F0B1     		cbz	r0, .L19
  71:../../Middlewares/LVGL/GUI/lvgl/src/core/lv_obj_class.c ****         if(screens == NULL) {
 268              		.loc 1 71 9 view .LVU89
  71:../../Middlewares/LVGL/GUI/lvgl/src/core/lv_obj_class.c ****         if(screens == NULL) {
 269              		.loc 1 71 34 view .LVU90
  72:../../Middlewares/LVGL/GUI/lvgl/src/core/lv_obj_class.c ****             lv_free(obj);
 270              		.loc 1 72 9 view .LVU91
  77:../../Middlewares/LVGL/GUI/lvgl/src/core/lv_obj_class.c ****         disp->screens = screens;
 271              		.loc 1 77 9 view .LVU92
  77:../../Middlewares/LVGL/GUI/lvgl/src/core/lv_obj_class.c ****         disp->screens = screens;
 272              		.loc 1 77 13 is_stmt 0 view .LVU93
 273 0064 D4F8D822 		ldr	r2, [r4, #728]
  77:../../Middlewares/LVGL/GUI/lvgl/src/core/lv_obj_class.c ****         disp->screens = screens;
 274              		.loc 1 77 25 view .LVU94
 275 0068 511C     		adds	r1, r2, #1
 276 006a C4F8D812 		str	r1, [r4, #728]
  78:../../Middlewares/LVGL/GUI/lvgl/src/core/lv_obj_class.c ****         disp->screens[disp->screen_cnt - 1] = obj;
 277              		.loc 1 78 9 is_stmt 1 view .LVU95
  78:../../Middlewares/LVGL/GUI/lvgl/src/core/lv_obj_class.c ****         disp->screens[disp->screen_cnt - 1] = obj;
 278              		.loc 1 78 23 is_stmt 0 view .LVU96
 279 006e C4F8BC02 		str	r0, [r4, #700]
  79:../../Middlewares/LVGL/GUI/lvgl/src/core/lv_obj_class.c **** 
 280              		.loc 1 79 9 is_stmt 1 view .LVU97
  79:../../Middlewares/LVGL/GUI/lvgl/src/core/lv_obj_class.c **** 
 281              		.loc 1 79 45 is_stmt 0 view .LVU98
 282 0072 40F82250 		str	r5, [r0, r2, lsl #2]
  82:../../Middlewares/LVGL/GUI/lvgl/src/core/lv_obj_class.c ****         obj->coords.y1 = 0;
 283              		.loc 1 82 9 is_stmt 1 view .LVU99
  82:../../Middlewares/LVGL/GUI/lvgl/src/core/lv_obj_class.c ****         obj->coords.y1 = 0;
 284              		.loc 1 82 24 is_stmt 0 view .LVU100
 285 0076 0024     		movs	r4, #0
 286              	.LVL21:
  82:../../Middlewares/LVGL/GUI/lvgl/src/core/lv_obj_class.c ****         obj->coords.y1 = 0;
 287              		.loc 1 82 24 view .LVU101
 288 0078 6C61     		str	r4, [r5, #20]
  83:../../Middlewares/LVGL/GUI/lvgl/src/core/lv_obj_class.c ****         obj->coords.x2 = lv_display_get_horizontal_resolution(NULL) - 1;
 289              		.loc 1 83 9 is_stmt 1 view .LVU102
  83:../../Middlewares/LVGL/GUI/lvgl/src/core/lv_obj_class.c ****         obj->coords.x2 = lv_display_get_horizontal_resolution(NULL) - 1;
 290              		.loc 1 83 24 is_stmt 0 view .LVU103
 291 007a AC61     		str	r4, [r5, #24]
  84:../../Middlewares/LVGL/GUI/lvgl/src/core/lv_obj_class.c ****         obj->coords.y2 = lv_display_get_vertical_resolution(NULL) - 1;
 292              		.loc 1 84 9 is_stmt 1 view .LVU104
  84:../../Middlewares/LVGL/GUI/lvgl/src/core/lv_obj_class.c ****         obj->coords.y2 = lv_display_get_vertical_resolution(NULL) - 1;
 293              		.loc 1 84 26 is_stmt 0 view .LVU105
 294 007c 2046     		mov	r0, r4
 295              	.LVL22:
  84:../../Middlewares/LVGL/GUI/lvgl/src/core/lv_obj_class.c ****         obj->coords.y2 = lv_display_get_vertical_resolution(NULL) - 1;
 296              		.loc 1 84 26 view .LVU106
 297 007e FFF7FEFF 		bl	lv_display_get_horizontal_resolution
 298              	.LVL23:
  84:../../Middlewares/LVGL/GUI/lvgl/src/core/lv_obj_class.c ****         obj->coords.y2 = lv_display_get_vertical_resolution(NULL) - 1;
ARM GAS  C:\Users\28576\AppData\Local\Temp\ccPz32yn.s 			page 11


 299              		.loc 1 84 69 discriminator 1 view .LVU107
 300 0082 0138     		subs	r0, r0, #1
  84:../../Middlewares/LVGL/GUI/lvgl/src/core/lv_obj_class.c ****         obj->coords.y2 = lv_display_get_vertical_resolution(NULL) - 1;
 301              		.loc 1 84 24 discriminator 1 view .LVU108
 302 0084 E861     		str	r0, [r5, #28]
  85:../../Middlewares/LVGL/GUI/lvgl/src/core/lv_obj_class.c ****     }
 303              		.loc 1 85 9 is_stmt 1 view .LVU109
  85:../../Middlewares/LVGL/GUI/lvgl/src/core/lv_obj_class.c ****     }
 304              		.loc 1 85 26 is_stmt 0 view .LVU110
 305 0086 2046     		mov	r0, r4
 306 0088 FFF7FEFF 		bl	lv_display_get_vertical_resolution
 307              	.LVL24:
  85:../../Middlewares/LVGL/GUI/lvgl/src/core/lv_obj_class.c ****     }
 308              		.loc 1 85 67 discriminator 1 view .LVU111
 309 008c 0138     		subs	r0, r0, #1
  85:../../Middlewares/LVGL/GUI/lvgl/src/core/lv_obj_class.c ****     }
 310              		.loc 1 85 24 discriminator 1 view .LVU112
 311 008e 2862     		str	r0, [r5, #32]
 312              	.LBE3:
 313 0090 D8E7     		b	.L13
 314              	.LVL25:
 315              	.L24:
 316              	.LBB4:
  61:../../Middlewares/LVGL/GUI/lvgl/src/core/lv_obj_class.c ****             lv_free(obj);
 317              		.loc 1 61 13 is_stmt 1 view .LVU113
  61:../../Middlewares/LVGL/GUI/lvgl/src/core/lv_obj_class.c ****             lv_free(obj);
 318              		.loc 1 61 13 view .LVU114
  61:../../Middlewares/LVGL/GUI/lvgl/src/core/lv_obj_class.c ****             lv_free(obj);
 319              		.loc 1 61 13 view .LVU115
  62:../../Middlewares/LVGL/GUI/lvgl/src/core/lv_obj_class.c ****             return NULL;
 320              		.loc 1 62 13 view .LVU116
 321 0092 2846     		mov	r0, r5
 322              	.LVL26:
  62:../../Middlewares/LVGL/GUI/lvgl/src/core/lv_obj_class.c ****             return NULL;
 323              		.loc 1 62 13 is_stmt 0 view .LVU117
 324 0094 FFF7FEFF 		bl	lv_free
 325              	.LVL27:
  63:../../Middlewares/LVGL/GUI/lvgl/src/core/lv_obj_class.c ****         }
 326              		.loc 1 63 13 is_stmt 1 view .LVU118
  63:../../Middlewares/LVGL/GUI/lvgl/src/core/lv_obj_class.c ****         }
 327              		.loc 1 63 20 is_stmt 0 view .LVU119
 328 0098 2546     		mov	r5, r4
 329              	.LVL28:
  63:../../Middlewares/LVGL/GUI/lvgl/src/core/lv_obj_class.c ****         }
 330              		.loc 1 63 20 view .LVU120
 331 009a D3E7     		b	.L13
 332              	.LVL29:
 333              	.L25:
  67:../../Middlewares/LVGL/GUI/lvgl/src/core/lv_obj_class.c ****         }
 334              		.loc 1 67 13 is_stmt 1 view .LVU121
  67:../../Middlewares/LVGL/GUI/lvgl/src/core/lv_obj_class.c ****         }
 335              		.loc 1 67 30 is_stmt 0 view .LVU122
 336 009c C4F8D802 		str	r0, [r4, #728]
 337 00a0 D9E7     		b	.L17
 338              	.LVL30:
 339              	.L19:
  71:../../Middlewares/LVGL/GUI/lvgl/src/core/lv_obj_class.c ****         if(screens == NULL) {
ARM GAS  C:\Users\28576\AppData\Local\Temp\ccPz32yn.s 			page 12


 340              		.loc 1 71 9 is_stmt 1 view .LVU123
  71:../../Middlewares/LVGL/GUI/lvgl/src/core/lv_obj_class.c ****         if(screens == NULL) {
 341              		.loc 1 71 9 view .LVU124
  71:../../Middlewares/LVGL/GUI/lvgl/src/core/lv_obj_class.c ****         if(screens == NULL) {
 342              		.loc 1 71 9 view .LVU125
  71:../../Middlewares/LVGL/GUI/lvgl/src/core/lv_obj_class.c ****         if(screens == NULL) {
 343              		.loc 1 71 9 view .LVU126
  71:../../Middlewares/LVGL/GUI/lvgl/src/core/lv_obj_class.c ****         if(screens == NULL) {
 344              		.loc 1 71 9 view .LVU127
 345 00a2 FEE7     		b	.L19
 346              	.LVL31:
 347              	.L23:
  71:../../Middlewares/LVGL/GUI/lvgl/src/core/lv_obj_class.c ****         if(screens == NULL) {
 348              		.loc 1 71 9 is_stmt 0 view .LVU128
 349              	.LBE4:
  92:../../Middlewares/LVGL/GUI/lvgl/src/core/lv_obj_class.c ****         }
 350              		.loc 1 92 13 is_stmt 1 view .LVU129
 351 00a4 2046     		mov	r0, r4
 352              	.LVL32:
  92:../../Middlewares/LVGL/GUI/lvgl/src/core/lv_obj_class.c ****         }
 353              		.loc 1 92 13 is_stmt 0 view .LVU130
 354 00a6 FFF7FEFF 		bl	lv_obj_allocate_spec_attr
 355              	.LVL33:
 356 00aa B8E7     		b	.L20
 357              		.cfi_endproc
 358              	.LFE172:
 360              		.section	.text.lv_obj_destruct,"ax",%progbits
 361              		.align	1
 362              		.global	lv_obj_destruct
 363              		.syntax unified
 364              		.thumb
 365              		.thumb_func
 367              	lv_obj_destruct:
 368              	.LVL34:
 369              	.LFB174:
 137:../../Middlewares/LVGL/GUI/lvgl/src/core/lv_obj_class.c ****     if(obj->class_p->destructor_cb) obj->class_p->destructor_cb(obj->class_p, obj);
 370              		.loc 1 137 1 is_stmt 1 view -0
 371              		.cfi_startproc
 372              		@ args = 0, pretend = 0, frame = 0
 373              		@ frame_needed = 0, uses_anonymous_args = 0
 137:../../Middlewares/LVGL/GUI/lvgl/src/core/lv_obj_class.c ****     if(obj->class_p->destructor_cb) obj->class_p->destructor_cb(obj->class_p, obj);
 374              		.loc 1 137 1 is_stmt 0 view .LVU132
 375 0000 10B5     		push	{r4, lr}
 376              	.LCFI2:
 377              		.cfi_def_cfa_offset 8
 378              		.cfi_offset 4, -8
 379              		.cfi_offset 14, -4
 380 0002 0446     		mov	r4, r0
 138:../../Middlewares/LVGL/GUI/lvgl/src/core/lv_obj_class.c **** 
 381              		.loc 1 138 5 is_stmt 1 view .LVU133
 138:../../Middlewares/LVGL/GUI/lvgl/src/core/lv_obj_class.c **** 
 382              		.loc 1 138 11 is_stmt 0 view .LVU134
 383 0004 0068     		ldr	r0, [r0]
 384              	.LVL35:
 138:../../Middlewares/LVGL/GUI/lvgl/src/core/lv_obj_class.c **** 
 385              		.loc 1 138 20 view .LVU135
 386 0006 8368     		ldr	r3, [r0, #8]
ARM GAS  C:\Users\28576\AppData\Local\Temp\ccPz32yn.s 			page 13


 138:../../Middlewares/LVGL/GUI/lvgl/src/core/lv_obj_class.c **** 
 387              		.loc 1 138 7 view .LVU136
 388 0008 0BB1     		cbz	r3, .L27
 138:../../Middlewares/LVGL/GUI/lvgl/src/core/lv_obj_class.c **** 
 389              		.loc 1 138 37 is_stmt 1 discriminator 1 view .LVU137
 390 000a 2146     		mov	r1, r4
 391 000c 9847     		blx	r3
 392              	.LVL36:
 393              	.L27:
 140:../../Middlewares/LVGL/GUI/lvgl/src/core/lv_obj_class.c ****         /*Don't let the descendant methods run during destructing the ancestor type*/
 394              		.loc 1 140 5 view .LVU138
 140:../../Middlewares/LVGL/GUI/lvgl/src/core/lv_obj_class.c ****         /*Don't let the descendant methods run during destructing the ancestor type*/
 395              		.loc 1 140 11 is_stmt 0 view .LVU139
 396 000e 2368     		ldr	r3, [r4]
 140:../../Middlewares/LVGL/GUI/lvgl/src/core/lv_obj_class.c ****         /*Don't let the descendant methods run during destructing the ancestor type*/
 397              		.loc 1 140 20 view .LVU140
 398 0010 1B68     		ldr	r3, [r3]
 140:../../Middlewares/LVGL/GUI/lvgl/src/core/lv_obj_class.c ****         /*Don't let the descendant methods run during destructing the ancestor type*/
 399              		.loc 1 140 7 view .LVU141
 400 0012 1BB1     		cbz	r3, .L26
 142:../../Middlewares/LVGL/GUI/lvgl/src/core/lv_obj_class.c **** 
 401              		.loc 1 142 9 is_stmt 1 view .LVU142
 142:../../Middlewares/LVGL/GUI/lvgl/src/core/lv_obj_class.c **** 
 402              		.loc 1 142 22 is_stmt 0 view .LVU143
 403 0014 2360     		str	r3, [r4]
 145:../../Middlewares/LVGL/GUI/lvgl/src/core/lv_obj_class.c ****     }
 404              		.loc 1 145 9 is_stmt 1 view .LVU144
 405 0016 2046     		mov	r0, r4
 406 0018 FFF7FEFF 		bl	lv_obj_destruct
 407              	.LVL37:
 408              	.L26:
 147:../../Middlewares/LVGL/GUI/lvgl/src/core/lv_obj_class.c **** 
 409              		.loc 1 147 1 is_stmt 0 view .LVU145
 410 001c 10BD     		pop	{r4, pc}
 147:../../Middlewares/LVGL/GUI/lvgl/src/core/lv_obj_class.c **** 
 411              		.loc 1 147 1 view .LVU146
 412              		.cfi_endproc
 413              	.LFE174:
 415              		.section	.text.lv_obj_is_editable,"ax",%progbits
 416              		.align	1
 417              		.global	lv_obj_is_editable
 418              		.syntax unified
 419              		.thumb
 420              		.thumb_func
 422              	lv_obj_is_editable:
 423              	.LVL38:
 424              	.LFB175:
 150:../../Middlewares/LVGL/GUI/lvgl/src/core/lv_obj_class.c ****     const lv_obj_class_t * class_p = obj->class_p;
 425              		.loc 1 150 1 is_stmt 1 view -0
 426              		.cfi_startproc
 427              		@ args = 0, pretend = 0, frame = 0
 428              		@ frame_needed = 0, uses_anonymous_args = 0
 429              		@ link register save eliminated.
 151:../../Middlewares/LVGL/GUI/lvgl/src/core/lv_obj_class.c **** 
 430              		.loc 1 151 5 view .LVU148
 151:../../Middlewares/LVGL/GUI/lvgl/src/core/lv_obj_class.c **** 
 431              		.loc 1 151 28 is_stmt 0 view .LVU149
ARM GAS  C:\Users\28576\AppData\Local\Temp\ccPz32yn.s 			page 14


 432 0000 0368     		ldr	r3, [r0]
 433              	.LVL39:
 154:../../Middlewares/LVGL/GUI/lvgl/src/core/lv_obj_class.c **** 
 434              		.loc 1 154 5 is_stmt 1 view .LVU150
 154:../../Middlewares/LVGL/GUI/lvgl/src/core/lv_obj_class.c **** 
 435              		.loc 1 154 10 is_stmt 0 view .LVU151
 436 0002 00E0     		b	.L31
 437              	.L33:
 154:../../Middlewares/LVGL/GUI/lvgl/src/core/lv_obj_class.c **** 
 438              		.loc 1 154 74 is_stmt 1 discriminator 3 view .LVU152
 154:../../Middlewares/LVGL/GUI/lvgl/src/core/lv_obj_class.c **** 
 439              		.loc 1 154 82 is_stmt 0 discriminator 3 view .LVU153
 440 0004 1B68     		ldr	r3, [r3]
 441              	.LVL40:
 442              	.L31:
 154:../../Middlewares/LVGL/GUI/lvgl/src/core/lv_obj_class.c **** 
 443              		.loc 1 154 19 is_stmt 1 discriminator 1 view .LVU154
 444 0006 23B1     		cbz	r3, .L32
 154:../../Middlewares/LVGL/GUI/lvgl/src/core/lv_obj_class.c **** 
 445              		.loc 1 154 40 is_stmt 0 discriminator 2 view .LVU155
 446 0008 93F82020 		ldrb	r2, [r3, #32]	@ zero_extendqisi2
 154:../../Middlewares/LVGL/GUI/lvgl/src/core/lv_obj_class.c **** 
 447              		.loc 1 154 19 discriminator 2 view .LVU156
 448 000c 12F0030F 		tst	r2, #3
 449 0010 F8D0     		beq	.L33
 450              	.L32:
 156:../../Middlewares/LVGL/GUI/lvgl/src/core/lv_obj_class.c **** 
 451              		.loc 1 156 5 is_stmt 1 view .LVU157
 156:../../Middlewares/LVGL/GUI/lvgl/src/core/lv_obj_class.c **** 
 452              		.loc 1 156 7 is_stmt 0 view .LVU158
 453 0012 43B1     		cbz	r3, .L35
 158:../../Middlewares/LVGL/GUI/lvgl/src/core/lv_obj_class.c **** }
 454              		.loc 1 158 5 is_stmt 1 view .LVU159
 158:../../Middlewares/LVGL/GUI/lvgl/src/core/lv_obj_class.c **** }
 455              		.loc 1 158 30 is_stmt 0 view .LVU160
 456 0014 93F82000 		ldrb	r0, [r3, #32]	@ zero_extendqisi2
 457              	.LVL41:
 158:../../Middlewares/LVGL/GUI/lvgl/src/core/lv_obj_class.c **** }
 458              		.loc 1 158 5 view .LVU161
 459 0018 00F00300 		and	r0, r0, #3
 158:../../Middlewares/LVGL/GUI/lvgl/src/core/lv_obj_class.c **** }
 460              		.loc 1 158 30 view .LVU162
 461 001c 0128     		cmp	r0, #1
 462 001e 14BF     		ite	ne
 463 0020 0020     		movne	r0, #0
 464 0022 0120     		moveq	r0, #1
 465 0024 7047     		bx	lr
 466              	.LVL42:
 467              	.L35:
 156:../../Middlewares/LVGL/GUI/lvgl/src/core/lv_obj_class.c **** 
 468              		.loc 1 156 32 discriminator 1 view .LVU163
 469 0026 1846     		mov	r0, r3
 470              	.LVL43:
 159:../../Middlewares/LVGL/GUI/lvgl/src/core/lv_obj_class.c **** 
 471              		.loc 1 159 1 view .LVU164
 472 0028 7047     		bx	lr
 473              		.cfi_endproc
ARM GAS  C:\Users\28576\AppData\Local\Temp\ccPz32yn.s 			page 15


 474              	.LFE175:
 476              		.section	.text.lv_obj_is_group_def,"ax",%progbits
 477              		.align	1
 478              		.global	lv_obj_is_group_def
 479              		.syntax unified
 480              		.thumb
 481              		.thumb_func
 483              	lv_obj_is_group_def:
 484              	.LVL44:
 485              	.LFB176:
 162:../../Middlewares/LVGL/GUI/lvgl/src/core/lv_obj_class.c ****     const lv_obj_class_t * class_p = obj->class_p;
 486              		.loc 1 162 1 is_stmt 1 view -0
 487              		.cfi_startproc
 488              		@ args = 0, pretend = 0, frame = 0
 489              		@ frame_needed = 0, uses_anonymous_args = 0
 490              		@ link register save eliminated.
 163:../../Middlewares/LVGL/GUI/lvgl/src/core/lv_obj_class.c **** 
 491              		.loc 1 163 5 view .LVU166
 163:../../Middlewares/LVGL/GUI/lvgl/src/core/lv_obj_class.c **** 
 492              		.loc 1 163 28 is_stmt 0 view .LVU167
 493 0000 0368     		ldr	r3, [r0]
 494              	.LVL45:
 166:../../Middlewares/LVGL/GUI/lvgl/src/core/lv_obj_class.c **** 
 495              		.loc 1 166 5 is_stmt 1 view .LVU168
 166:../../Middlewares/LVGL/GUI/lvgl/src/core/lv_obj_class.c **** 
 496              		.loc 1 166 10 is_stmt 0 view .LVU169
 497 0002 00E0     		b	.L37
 498              	.L39:
 166:../../Middlewares/LVGL/GUI/lvgl/src/core/lv_obj_class.c **** 
 499              		.loc 1 166 76 is_stmt 1 discriminator 3 view .LVU170
 166:../../Middlewares/LVGL/GUI/lvgl/src/core/lv_obj_class.c **** 
 500              		.loc 1 166 84 is_stmt 0 discriminator 3 view .LVU171
 501 0004 1B68     		ldr	r3, [r3]
 502              	.LVL46:
 503              	.L37:
 166:../../Middlewares/LVGL/GUI/lvgl/src/core/lv_obj_class.c **** 
 504              		.loc 1 166 19 is_stmt 1 discriminator 1 view .LVU172
 505 0006 23B1     		cbz	r3, .L38
 166:../../Middlewares/LVGL/GUI/lvgl/src/core/lv_obj_class.c **** 
 506              		.loc 1 166 41 is_stmt 0 discriminator 2 view .LVU173
 507 0008 93F82020 		ldrb	r2, [r3, #32]	@ zero_extendqisi2
 166:../../Middlewares/LVGL/GUI/lvgl/src/core/lv_obj_class.c **** 
 508              		.loc 1 166 19 discriminator 2 view .LVU174
 509 000c 12F00C0F 		tst	r2, #12
 510 0010 F8D0     		beq	.L39
 511              	.L38:
 168:../../Middlewares/LVGL/GUI/lvgl/src/core/lv_obj_class.c **** 
 512              		.loc 1 168 5 is_stmt 1 view .LVU175
 168:../../Middlewares/LVGL/GUI/lvgl/src/core/lv_obj_class.c **** 
 513              		.loc 1 168 7 is_stmt 0 view .LVU176
 514 0012 43B1     		cbz	r3, .L41
 170:../../Middlewares/LVGL/GUI/lvgl/src/core/lv_obj_class.c **** }
 515              		.loc 1 170 5 is_stmt 1 view .LVU177
 170:../../Middlewares/LVGL/GUI/lvgl/src/core/lv_obj_class.c **** }
 516              		.loc 1 170 31 is_stmt 0 view .LVU178
 517 0014 93F82000 		ldrb	r0, [r3, #32]	@ zero_extendqisi2
 518              	.LVL47:
ARM GAS  C:\Users\28576\AppData\Local\Temp\ccPz32yn.s 			page 16


 170:../../Middlewares/LVGL/GUI/lvgl/src/core/lv_obj_class.c **** }
 519              		.loc 1 170 5 view .LVU179
 520 0018 00F00C00 		and	r0, r0, #12
 170:../../Middlewares/LVGL/GUI/lvgl/src/core/lv_obj_class.c **** }
 521              		.loc 1 170 31 view .LVU180
 522 001c 0428     		cmp	r0, #4
 523 001e 14BF     		ite	ne
 524 0020 0020     		movne	r0, #0
 525 0022 0120     		moveq	r0, #1
 526 0024 7047     		bx	lr
 527              	.LVL48:
 528              	.L41:
 168:../../Middlewares/LVGL/GUI/lvgl/src/core/lv_obj_class.c **** 
 529              		.loc 1 168 32 discriminator 1 view .LVU181
 530 0026 1846     		mov	r0, r3
 531              	.LVL49:
 171:../../Middlewares/LVGL/GUI/lvgl/src/core/lv_obj_class.c **** 
 532              		.loc 1 171 1 view .LVU182
 533 0028 7047     		bx	lr
 534              		.cfi_endproc
 535              	.LFE176:
 537              		.section	.text.lv_obj_class_init_obj,"ax",%progbits
 538              		.align	1
 539              		.global	lv_obj_class_init_obj
 540              		.syntax unified
 541              		.thumb
 542              		.thumb_func
 544              	lv_obj_class_init_obj:
 545              	.LVL50:
 546              	.LFB173:
 105:../../Middlewares/LVGL/GUI/lvgl/src/core/lv_obj_class.c ****     if(obj == NULL) return;
 547              		.loc 1 105 1 is_stmt 1 view -0
 548              		.cfi_startproc
 549              		@ args = 0, pretend = 0, frame = 0
 550              		@ frame_needed = 0, uses_anonymous_args = 0
 106:../../Middlewares/LVGL/GUI/lvgl/src/core/lv_obj_class.c **** 
 551              		.loc 1 106 5 view .LVU184
 106:../../Middlewares/LVGL/GUI/lvgl/src/core/lv_obj_class.c **** 
 552              		.loc 1 106 7 is_stmt 0 view .LVU185
 553 0000 C0B3     		cbz	r0, .L46
 105:../../Middlewares/LVGL/GUI/lvgl/src/core/lv_obj_class.c ****     if(obj == NULL) return;
 554              		.loc 1 105 1 view .LVU186
 555 0002 38B5     		push	{r3, r4, r5, lr}
 556              	.LCFI3:
 557              		.cfi_def_cfa_offset 16
 558              		.cfi_offset 3, -16
 559              		.cfi_offset 4, -12
 560              		.cfi_offset 5, -8
 561              		.cfi_offset 14, -4
 562 0004 0446     		mov	r4, r0
 108:../../Middlewares/LVGL/GUI/lvgl/src/core/lv_obj_class.c ****     lv_obj_enable_style_refresh(false);
 563              		.loc 1 108 5 is_stmt 1 view .LVU187
 564 0006 FFF7FEFF 		bl	lv_obj_mark_layout_as_dirty
 565              	.LVL51:
 109:../../Middlewares/LVGL/GUI/lvgl/src/core/lv_obj_class.c **** 
 566              		.loc 1 109 5 view .LVU188
 567 000a 0020     		movs	r0, #0
ARM GAS  C:\Users\28576\AppData\Local\Temp\ccPz32yn.s 			page 17


 568 000c FFF7FEFF 		bl	lv_obj_enable_style_refresh
 569              	.LVL52:
 111:../../Middlewares/LVGL/GUI/lvgl/src/core/lv_obj_class.c ****     lv_obj_construct(obj->class_p, obj);
 570              		.loc 1 111 5 view .LVU189
 571 0010 2046     		mov	r0, r4
 572 0012 FFF7FEFF 		bl	lv_theme_apply
 573              	.LVL53:
 112:../../Middlewares/LVGL/GUI/lvgl/src/core/lv_obj_class.c **** 
 574              		.loc 1 112 5 view .LVU190
 575 0016 2146     		mov	r1, r4
 576 0018 2068     		ldr	r0, [r4]
 577 001a FFF7FEFF 		bl	lv_obj_construct
 578              	.LVL54:
 114:../../Middlewares/LVGL/GUI/lvgl/src/core/lv_obj_class.c ****     lv_obj_refresh_style(obj, LV_PART_ANY, LV_STYLE_PROP_ANY);
 579              		.loc 1 114 5 view .LVU191
 580 001e 0120     		movs	r0, #1
 581 0020 FFF7FEFF 		bl	lv_obj_enable_style_refresh
 582              	.LVL55:
 115:../../Middlewares/LVGL/GUI/lvgl/src/core/lv_obj_class.c **** 
 583              		.loc 1 115 5 view .LVU192
 584 0024 FF22     		movs	r2, #255
 585 0026 4FF47021 		mov	r1, #983040
 586 002a 2046     		mov	r0, r4
 587 002c FFF7FEFF 		bl	lv_obj_refresh_style
 588              	.LVL56:
 117:../../Middlewares/LVGL/GUI/lvgl/src/core/lv_obj_class.c **** 
 589              		.loc 1 117 5 view .LVU193
 590 0030 2046     		mov	r0, r4
 591 0032 FFF7FEFF 		bl	lv_obj_refresh_self_size
 592              	.LVL57:
 119:../../Middlewares/LVGL/GUI/lvgl/src/core/lv_obj_class.c ****     if(def_group && lv_obj_is_group_def(obj)) {
 593              		.loc 1 119 5 view .LVU194
 119:../../Middlewares/LVGL/GUI/lvgl/src/core/lv_obj_class.c ****     if(def_group && lv_obj_is_group_def(obj)) {
 594              		.loc 1 119 30 is_stmt 0 view .LVU195
 595 0036 FFF7FEFF 		bl	lv_group_get_default
 596              	.LVL58:
 120:../../Middlewares/LVGL/GUI/lvgl/src/core/lv_obj_class.c ****         lv_group_add_obj(def_group, obj);
 597              		.loc 1 120 5 is_stmt 1 view .LVU196
 120:../../Middlewares/LVGL/GUI/lvgl/src/core/lv_obj_class.c ****         lv_group_add_obj(def_group, obj);
 598              		.loc 1 120 7 is_stmt 0 view .LVU197
 599 003a 0546     		mov	r5, r0
 600 003c 18B1     		cbz	r0, .L44
 120:../../Middlewares/LVGL/GUI/lvgl/src/core/lv_obj_class.c ****         lv_group_add_obj(def_group, obj);
 601              		.loc 1 120 21 discriminator 1 view .LVU198
 602 003e 2046     		mov	r0, r4
 603              	.LVL59:
 120:../../Middlewares/LVGL/GUI/lvgl/src/core/lv_obj_class.c ****         lv_group_add_obj(def_group, obj);
 604              		.loc 1 120 21 discriminator 1 view .LVU199
 605 0040 FFF7FEFF 		bl	lv_obj_is_group_def
 606              	.LVL60:
 120:../../Middlewares/LVGL/GUI/lvgl/src/core/lv_obj_class.c ****         lv_group_add_obj(def_group, obj);
 607              		.loc 1 120 18 discriminator 2 view .LVU200
 608 0044 88B9     		cbnz	r0, .L49
 609              	.L44:
 124:../../Middlewares/LVGL/GUI/lvgl/src/core/lv_obj_class.c ****     if(parent) {
 610              		.loc 1 124 5 is_stmt 1 view .LVU201
 124:../../Middlewares/LVGL/GUI/lvgl/src/core/lv_obj_class.c ****     if(parent) {
ARM GAS  C:\Users\28576\AppData\Local\Temp\ccPz32yn.s 			page 18


 611              		.loc 1 124 25 is_stmt 0 view .LVU202
 612 0046 2046     		mov	r0, r4
 613 0048 FFF7FEFF 		bl	lv_obj_get_parent
 614              	.LVL61:
 125:../../Middlewares/LVGL/GUI/lvgl/src/core/lv_obj_class.c ****         /*Call the ancestor's event handler to the parent to notify it about the new child.
 615              		.loc 1 125 5 is_stmt 1 view .LVU203
 125:../../Middlewares/LVGL/GUI/lvgl/src/core/lv_obj_class.c ****         /*Call the ancestor's event handler to the parent to notify it about the new child.
 616              		.loc 1 125 7 is_stmt 0 view .LVU204
 617 004c 0546     		mov	r5, r0
 618              	.LVL62:
 125:../../Middlewares/LVGL/GUI/lvgl/src/core/lv_obj_class.c ****         /*Call the ancestor's event handler to the parent to notify it about the new child.
 619              		.loc 1 125 7 view .LVU205
 620 004e 58B1     		cbz	r0, .L42
 128:../../Middlewares/LVGL/GUI/lvgl/src/core/lv_obj_class.c ****         lv_obj_send_event(parent, LV_EVENT_CHILD_CREATED, obj);
 621              		.loc 1 128 9 is_stmt 1 view .LVU206
 622 0050 2246     		mov	r2, r4
 623 0052 2A21     		movs	r1, #42
 624 0054 FFF7FEFF 		bl	lv_obj_send_event
 625              	.LVL63:
 129:../../Middlewares/LVGL/GUI/lvgl/src/core/lv_obj_class.c **** 
 626              		.loc 1 129 9 view .LVU207
 627 0058 2246     		mov	r2, r4
 628 005a 2B21     		movs	r1, #43
 629 005c 2846     		mov	r0, r5
 630 005e FFF7FEFF 		bl	lv_obj_send_event
 631              	.LVL64:
 132:../../Middlewares/LVGL/GUI/lvgl/src/core/lv_obj_class.c ****     }
 632              		.loc 1 132 9 view .LVU208
 633 0062 2046     		mov	r0, r4
 634 0064 FFF7FEFF 		bl	lv_obj_invalidate
 635              	.LVL65:
 636              	.L42:
 134:../../Middlewares/LVGL/GUI/lvgl/src/core/lv_obj_class.c **** 
 637              		.loc 1 134 1 is_stmt 0 view .LVU209
 638 0068 38BD     		pop	{r3, r4, r5, pc}
 639              	.LVL66:
 640              	.L49:
 121:../../Middlewares/LVGL/GUI/lvgl/src/core/lv_obj_class.c ****     }
 641              		.loc 1 121 9 is_stmt 1 view .LVU210
 642 006a 2146     		mov	r1, r4
 643 006c 2846     		mov	r0, r5
 644 006e FFF7FEFF 		bl	lv_group_add_obj
 645              	.LVL67:
 646 0072 E8E7     		b	.L44
 647              	.LVL68:
 648              	.L46:
 649              	.LCFI4:
 650              		.cfi_def_cfa_offset 0
 651              		.cfi_restore 3
 652              		.cfi_restore 4
 653              		.cfi_restore 5
 654              		.cfi_restore 14
 121:../../Middlewares/LVGL/GUI/lvgl/src/core/lv_obj_class.c ****     }
 655              		.loc 1 121 9 is_stmt 0 view .LVU211
 656 0074 7047     		bx	lr
 657              		.cfi_endproc
 658              	.LFE173:
ARM GAS  C:\Users\28576\AppData\Local\Temp\ccPz32yn.s 			page 19


 660              		.text
 661              	.Letext0:
 662              		.file 2 "C:/Users/28576/AppData/Roaming/xPacks/@xpack-dev-tools/arm-none-eabi-gcc/15.2.1-1.1.1/.co
 663              		.file 3 "C:/Users/28576/AppData/Roaming/xPacks/@xpack-dev-tools/arm-none-eabi-gcc/15.2.1-1.1.1/.co
 664              		.file 4 "C:/Users/28576/AppData/Roaming/xPacks/@xpack-dev-tools/arm-none-eabi-gcc/15.2.1-1.1.1/.co
 665              		.file 5 "../../Middlewares/LVGL/GUI/lvgl/src/core/../misc/lv_types.h"
 666              		.file 6 "../../Middlewares/LVGL/GUI/lvgl/src/core/lv_obj_private.h"
 667              		.file 7 "../../Middlewares/LVGL/GUI/lvgl/src/core/lv_obj_class_private.h"
 668              		.file 8 "../../Middlewares/LVGL/GUI/lvgl/src/core/../display/lv_display_private.h"
 669              		.file 9 "../../Middlewares/LVGL/GUI/lvgl/src/core/../draw/lv_draw.h"
 670              		.file 10 "H:/STM32H7/RGB_LVGL/Middlewares/LVGL/GUI/lvgl/src/misc/lv_array.h"
 671              		.file 11 "H:/STM32H7/RGB_LVGL/Middlewares/LVGL/GUI/lvgl/src/draw/lv_draw_buf.h"
 672              		.file 12 "../../Middlewares/LVGL/GUI/lvgl/src/core/../misc/lv_area.h"
 673              		.file 13 "H:/STM32H7/RGB_LVGL/Middlewares/LVGL/GUI/lvgl/src/misc/lv_color.h"
 674              		.file 14 "H:/STM32H7/RGB_LVGL/Middlewares/LVGL/GUI/lvgl/src/draw/lv_image_dsc.h"
 675              		.file 15 "../../Middlewares/LVGL/GUI/lvgl/src/core/../misc/lv_ll.h"
 676              		.file 16 "../../Middlewares/LVGL/GUI/lvgl/src/core/../misc/lv_style.h"
 677              		.file 17 "../../Middlewares/LVGL/GUI/lvgl/src/core/lv_obj_class.h"
 678              		.file 18 "H:/STM32H7/RGB_LVGL/Middlewares/LVGL/GUI/lvgl/src/misc/lv_event.h"
 679              		.file 19 "../../Middlewares/LVGL/GUI/lvgl/src/core/../display/lv_display.h"
 680              		.file 20 "../../Middlewares/LVGL/GUI/lvgl/src/core/lv_obj.h"
 681              		.file 21 "../../Middlewares/LVGL/GUI/lvgl/src/core/lv_obj_event.h"
 682              		.file 22 "../../Middlewares/LVGL/GUI/lvgl/src/core/lv_obj_tree.h"
 683              		.file 23 "../../Middlewares/LVGL/GUI/lvgl/src/core/lv_obj_pos.h"
 684              		.file 24 "H:/STM32H7/RGB_LVGL/Middlewares/LVGL/GUI/lvgl/src/core/lv_group.h"
 685              		.file 25 "../../Middlewares/LVGL/GUI/lvgl/src/core/lv_obj_style.h"
 686              		.file 26 "../../Middlewares/LVGL/GUI/lvgl/src/core/../themes/lv_theme.h"
 687              		.file 27 "H:/STM32H7/RGB_LVGL/Middlewares/LVGL/GUI/lvgl/src/stdlib/lv_mem.h"
ARM GAS  C:\Users\28576\AppData\Local\Temp\ccPz32yn.s 			page 20

