ARM GAS  C:\Users\28576\AppData\Local\Temp\ccR8vQUs.s 			page 1


   1              		.cpu cortex-m7
   2              		.arch armv7e-m
   3              		.fpu fpv5-d16
   4              		.eabi_attribute 28, 1
   5              		.eabi_attribute 20, 1
   6              		.eabi_attribute 21, 1
   7              		.eabi_attribute 23, 3
   8              		.eabi_attribute 24, 1
   9              		.eabi_attribute 25, 1
  10              		.eabi_attribute 26, 1
  11              		.eabi_attribute 30, 1
  12              		.eabi_attribute 34, 1
  13              		.eabi_attribute 18, 4
  14              		.file	"lv_string_builtin.c"
  15              		.text
  16              	.Ltext0:
  17              		.cfi_sections	.debug_frame
  18              		.file 1 "../../Middlewares/LVGL/GUI/lvgl/src/stdlib/builtin/lv_string_builtin.c"
  19              		.section	.text.lv_memcpy,"ax",%progbits
  20              		.align	1
  21              		.global	lv_memcpy
  22              		.syntax unified
  23              		.thumb
  24              		.thumb_func
  26              	lv_memcpy:
  27              	.LVL0:
  28              	.LFB3:
   1:../../Middlewares/LVGL/GUI/lvgl/src/stdlib/builtin/lv_string_builtin.c **** /**
   2:../../Middlewares/LVGL/GUI/lvgl/src/stdlib/builtin/lv_string_builtin.c ****  * @file lv_string.c
   3:../../Middlewares/LVGL/GUI/lvgl/src/stdlib/builtin/lv_string_builtin.c ****  */
   4:../../Middlewares/LVGL/GUI/lvgl/src/stdlib/builtin/lv_string_builtin.c **** 
   5:../../Middlewares/LVGL/GUI/lvgl/src/stdlib/builtin/lv_string_builtin.c **** /*********************
   6:../../Middlewares/LVGL/GUI/lvgl/src/stdlib/builtin/lv_string_builtin.c ****  *      INCLUDES
   7:../../Middlewares/LVGL/GUI/lvgl/src/stdlib/builtin/lv_string_builtin.c ****  *********************/
   8:../../Middlewares/LVGL/GUI/lvgl/src/stdlib/builtin/lv_string_builtin.c **** #include "../../lv_conf_internal.h"
   9:../../Middlewares/LVGL/GUI/lvgl/src/stdlib/builtin/lv_string_builtin.c **** #if LV_USE_STDLIB_STRING == LV_STDLIB_BUILTIN
  10:../../Middlewares/LVGL/GUI/lvgl/src/stdlib/builtin/lv_string_builtin.c **** #include "../../misc/lv_assert.h"
  11:../../Middlewares/LVGL/GUI/lvgl/src/stdlib/builtin/lv_string_builtin.c **** #include "../../misc/lv_log.h"
  12:../../Middlewares/LVGL/GUI/lvgl/src/stdlib/builtin/lv_string_builtin.c **** #include "../../misc/lv_math.h"
  13:../../Middlewares/LVGL/GUI/lvgl/src/stdlib/builtin/lv_string_builtin.c **** #include "../../stdlib/lv_string.h"
  14:../../Middlewares/LVGL/GUI/lvgl/src/stdlib/builtin/lv_string_builtin.c **** #include "../../stdlib/lv_mem.h"
  15:../../Middlewares/LVGL/GUI/lvgl/src/stdlib/builtin/lv_string_builtin.c **** 
  16:../../Middlewares/LVGL/GUI/lvgl/src/stdlib/builtin/lv_string_builtin.c **** /*********************
  17:../../Middlewares/LVGL/GUI/lvgl/src/stdlib/builtin/lv_string_builtin.c ****  *      DEFINES
  18:../../Middlewares/LVGL/GUI/lvgl/src/stdlib/builtin/lv_string_builtin.c ****  *********************/
  19:../../Middlewares/LVGL/GUI/lvgl/src/stdlib/builtin/lv_string_builtin.c **** #ifdef LV_ARCH_64
  20:../../Middlewares/LVGL/GUI/lvgl/src/stdlib/builtin/lv_string_builtin.c ****     #define MEM_UNIT         uint64_t
  21:../../Middlewares/LVGL/GUI/lvgl/src/stdlib/builtin/lv_string_builtin.c ****     #define ALIGN_MASK       0x7
  22:../../Middlewares/LVGL/GUI/lvgl/src/stdlib/builtin/lv_string_builtin.c **** #else
  23:../../Middlewares/LVGL/GUI/lvgl/src/stdlib/builtin/lv_string_builtin.c ****     #define MEM_UNIT         uint32_t
  24:../../Middlewares/LVGL/GUI/lvgl/src/stdlib/builtin/lv_string_builtin.c ****     #define ALIGN_MASK       0x3
  25:../../Middlewares/LVGL/GUI/lvgl/src/stdlib/builtin/lv_string_builtin.c **** #endif
  26:../../Middlewares/LVGL/GUI/lvgl/src/stdlib/builtin/lv_string_builtin.c **** 
  27:../../Middlewares/LVGL/GUI/lvgl/src/stdlib/builtin/lv_string_builtin.c **** /**********************
  28:../../Middlewares/LVGL/GUI/lvgl/src/stdlib/builtin/lv_string_builtin.c ****  *      TYPEDEFS
  29:../../Middlewares/LVGL/GUI/lvgl/src/stdlib/builtin/lv_string_builtin.c ****  **********************/
  30:../../Middlewares/LVGL/GUI/lvgl/src/stdlib/builtin/lv_string_builtin.c **** 
ARM GAS  C:\Users\28576\AppData\Local\Temp\ccR8vQUs.s 			page 2


  31:../../Middlewares/LVGL/GUI/lvgl/src/stdlib/builtin/lv_string_builtin.c **** /**********************
  32:../../Middlewares/LVGL/GUI/lvgl/src/stdlib/builtin/lv_string_builtin.c ****  *  STATIC PROTOTYPES
  33:../../Middlewares/LVGL/GUI/lvgl/src/stdlib/builtin/lv_string_builtin.c ****  **********************/
  34:../../Middlewares/LVGL/GUI/lvgl/src/stdlib/builtin/lv_string_builtin.c **** 
  35:../../Middlewares/LVGL/GUI/lvgl/src/stdlib/builtin/lv_string_builtin.c **** /**********************
  36:../../Middlewares/LVGL/GUI/lvgl/src/stdlib/builtin/lv_string_builtin.c ****  *  STATIC VARIABLES
  37:../../Middlewares/LVGL/GUI/lvgl/src/stdlib/builtin/lv_string_builtin.c ****  **********************/
  38:../../Middlewares/LVGL/GUI/lvgl/src/stdlib/builtin/lv_string_builtin.c **** 
  39:../../Middlewares/LVGL/GUI/lvgl/src/stdlib/builtin/lv_string_builtin.c **** /**********************
  40:../../Middlewares/LVGL/GUI/lvgl/src/stdlib/builtin/lv_string_builtin.c ****  *      MACROS
  41:../../Middlewares/LVGL/GUI/lvgl/src/stdlib/builtin/lv_string_builtin.c ****  **********************/
  42:../../Middlewares/LVGL/GUI/lvgl/src/stdlib/builtin/lv_string_builtin.c **** #if LV_USE_LOG && LV_LOG_TRACE_MEM
  43:../../Middlewares/LVGL/GUI/lvgl/src/stdlib/builtin/lv_string_builtin.c ****     #define LV_TRACE_MEM(...) LV_LOG_TRACE(__VA_ARGS__)
  44:../../Middlewares/LVGL/GUI/lvgl/src/stdlib/builtin/lv_string_builtin.c **** #else
  45:../../Middlewares/LVGL/GUI/lvgl/src/stdlib/builtin/lv_string_builtin.c ****     #define LV_TRACE_MEM(...)
  46:../../Middlewares/LVGL/GUI/lvgl/src/stdlib/builtin/lv_string_builtin.c **** #endif
  47:../../Middlewares/LVGL/GUI/lvgl/src/stdlib/builtin/lv_string_builtin.c **** 
  48:../../Middlewares/LVGL/GUI/lvgl/src/stdlib/builtin/lv_string_builtin.c **** #define _COPY(d, s) *d = *s; d++; s++;
  49:../../Middlewares/LVGL/GUI/lvgl/src/stdlib/builtin/lv_string_builtin.c **** #define _SET(d, v) *d = v; d++;
  50:../../Middlewares/LVGL/GUI/lvgl/src/stdlib/builtin/lv_string_builtin.c **** #define _REPEAT8(expr) expr expr expr expr expr expr expr expr
  51:../../Middlewares/LVGL/GUI/lvgl/src/stdlib/builtin/lv_string_builtin.c **** 
  52:../../Middlewares/LVGL/GUI/lvgl/src/stdlib/builtin/lv_string_builtin.c **** /**********************
  53:../../Middlewares/LVGL/GUI/lvgl/src/stdlib/builtin/lv_string_builtin.c ****  *   GLOBAL FUNCTIONS
  54:../../Middlewares/LVGL/GUI/lvgl/src/stdlib/builtin/lv_string_builtin.c ****  **********************/
  55:../../Middlewares/LVGL/GUI/lvgl/src/stdlib/builtin/lv_string_builtin.c **** 
  56:../../Middlewares/LVGL/GUI/lvgl/src/stdlib/builtin/lv_string_builtin.c **** void * LV_ATTRIBUTE_FAST_MEM lv_memcpy(void * dst, const void * src, size_t len)
  57:../../Middlewares/LVGL/GUI/lvgl/src/stdlib/builtin/lv_string_builtin.c **** {
  29              		.loc 1 57 1 view -0
  30              		.cfi_startproc
  31              		@ args = 0, pretend = 0, frame = 0
  32              		@ frame_needed = 0, uses_anonymous_args = 0
  58:../../Middlewares/LVGL/GUI/lvgl/src/stdlib/builtin/lv_string_builtin.c ****     volatile uint8_t * d8 = dst;
  33              		.loc 1 58 5 view .LVU1
  59:../../Middlewares/LVGL/GUI/lvgl/src/stdlib/builtin/lv_string_builtin.c ****     const uint8_t * s8 = src;
  34              		.loc 1 59 5 view .LVU2
  60:../../Middlewares/LVGL/GUI/lvgl/src/stdlib/builtin/lv_string_builtin.c **** 
  61:../../Middlewares/LVGL/GUI/lvgl/src/stdlib/builtin/lv_string_builtin.c ****     /*Simplify for small memories*/
  62:../../Middlewares/LVGL/GUI/lvgl/src/stdlib/builtin/lv_string_builtin.c ****     if(len < 16) {
  35              		.loc 1 62 5 view .LVU3
  36              		.loc 1 62 7 is_stmt 0 view .LVU4
  37 0000 0F2A     		cmp	r2, #15
  38 0002 16D9     		bls	.L28
  63:../../Middlewares/LVGL/GUI/lvgl/src/stdlib/builtin/lv_string_builtin.c ****         while(len) {
  64:../../Middlewares/LVGL/GUI/lvgl/src/stdlib/builtin/lv_string_builtin.c ****             *d8 = *s8;
  65:../../Middlewares/LVGL/GUI/lvgl/src/stdlib/builtin/lv_string_builtin.c ****             d8++;
  66:../../Middlewares/LVGL/GUI/lvgl/src/stdlib/builtin/lv_string_builtin.c ****             s8++;
  67:../../Middlewares/LVGL/GUI/lvgl/src/stdlib/builtin/lv_string_builtin.c ****             len--;
  68:../../Middlewares/LVGL/GUI/lvgl/src/stdlib/builtin/lv_string_builtin.c ****         }
  69:../../Middlewares/LVGL/GUI/lvgl/src/stdlib/builtin/lv_string_builtin.c ****         return dst;
  70:../../Middlewares/LVGL/GUI/lvgl/src/stdlib/builtin/lv_string_builtin.c ****     }
  71:../../Middlewares/LVGL/GUI/lvgl/src/stdlib/builtin/lv_string_builtin.c **** 
  72:../../Middlewares/LVGL/GUI/lvgl/src/stdlib/builtin/lv_string_builtin.c ****     lv_uintptr_t d_align = (lv_uintptr_t)d8 & ALIGN_MASK;
  39              		.loc 1 72 5 is_stmt 1 view .LVU5
  40              		.loc 1 72 18 is_stmt 0 view .LVU6
  41 0004 00F00303 		and	r3, r0, #3
  42              	.LVL1:
  73:../../Middlewares/LVGL/GUI/lvgl/src/stdlib/builtin/lv_string_builtin.c ****     lv_uintptr_t s_align = (lv_uintptr_t)s8 & ALIGN_MASK;
ARM GAS  C:\Users\28576\AppData\Local\Temp\ccR8vQUs.s 			page 3


  43              		.loc 1 73 5 is_stmt 1 view .LVU7
  44              		.loc 1 73 18 is_stmt 0 view .LVU8
  45 0008 01F0030C 		and	ip, r1, #3
  46              	.LVL2:
  74:../../Middlewares/LVGL/GUI/lvgl/src/stdlib/builtin/lv_string_builtin.c **** 
  75:../../Middlewares/LVGL/GUI/lvgl/src/stdlib/builtin/lv_string_builtin.c ****     /*Byte copy for unaligned memories*/
  76:../../Middlewares/LVGL/GUI/lvgl/src/stdlib/builtin/lv_string_builtin.c ****     if(s_align != d_align) {
  47              		.loc 1 76 5 is_stmt 1 view .LVU9
  48              		.loc 1 76 7 is_stmt 0 view .LVU10
  49 000c 6345     		cmp	r3, ip
  50 000e 40F09980 		bne	.L20
  57:../../Middlewares/LVGL/GUI/lvgl/src/stdlib/builtin/lv_string_builtin.c ****     volatile uint8_t * d8 = dst;
  51              		.loc 1 57 1 view .LVU11
  52 0012 10B5     		push	{r4, lr}
  53              	.LCFI0:
  54              		.cfi_def_cfa_offset 8
  55              		.cfi_offset 4, -8
  56              		.cfi_offset 14, -4
  77:../../Middlewares/LVGL/GUI/lvgl/src/stdlib/builtin/lv_string_builtin.c ****         while(len > 32) {
  78:../../Middlewares/LVGL/GUI/lvgl/src/stdlib/builtin/lv_string_builtin.c ****             _REPEAT8(_COPY(d8, s8));
  79:../../Middlewares/LVGL/GUI/lvgl/src/stdlib/builtin/lv_string_builtin.c ****             _REPEAT8(_COPY(d8, s8));
  80:../../Middlewares/LVGL/GUI/lvgl/src/stdlib/builtin/lv_string_builtin.c ****             _REPEAT8(_COPY(d8, s8));
  81:../../Middlewares/LVGL/GUI/lvgl/src/stdlib/builtin/lv_string_builtin.c ****             _REPEAT8(_COPY(d8, s8));
  82:../../Middlewares/LVGL/GUI/lvgl/src/stdlib/builtin/lv_string_builtin.c ****             len -= 32;
  83:../../Middlewares/LVGL/GUI/lvgl/src/stdlib/builtin/lv_string_builtin.c ****         }
  84:../../Middlewares/LVGL/GUI/lvgl/src/stdlib/builtin/lv_string_builtin.c ****         while(len) {
  85:../../Middlewares/LVGL/GUI/lvgl/src/stdlib/builtin/lv_string_builtin.c ****             _COPY(d8, s8)
  86:../../Middlewares/LVGL/GUI/lvgl/src/stdlib/builtin/lv_string_builtin.c ****             len--;
  87:../../Middlewares/LVGL/GUI/lvgl/src/stdlib/builtin/lv_string_builtin.c ****         }
  88:../../Middlewares/LVGL/GUI/lvgl/src/stdlib/builtin/lv_string_builtin.c ****         return dst;
  89:../../Middlewares/LVGL/GUI/lvgl/src/stdlib/builtin/lv_string_builtin.c ****     }
  90:../../Middlewares/LVGL/GUI/lvgl/src/stdlib/builtin/lv_string_builtin.c **** 
  91:../../Middlewares/LVGL/GUI/lvgl/src/stdlib/builtin/lv_string_builtin.c ****     /*Make the memories aligned*/
  92:../../Middlewares/LVGL/GUI/lvgl/src/stdlib/builtin/lv_string_builtin.c ****     if(d_align) {
  57              		.loc 1 92 5 is_stmt 1 view .LVU12
  58              		.loc 1 92 7 is_stmt 0 view .LVU13
  59 0014 002B     		cmp	r3, #0
  60 0016 00F0C680 		beq	.L21
  93:../../Middlewares/LVGL/GUI/lvgl/src/stdlib/builtin/lv_string_builtin.c ****         d_align = ALIGN_MASK + 1 - d_align;
  61              		.loc 1 93 9 is_stmt 1 view .LVU14
  62              		.loc 1 93 17 is_stmt 0 view .LVU15
  63 001a C3F1040C 		rsb	ip, r3, #4
  64              	.LVL3:
  94:../../Middlewares/LVGL/GUI/lvgl/src/stdlib/builtin/lv_string_builtin.c ****         while(d_align && len) {
  65              		.loc 1 94 9 is_stmt 1 view .LVU16
  58:../../Middlewares/LVGL/GUI/lvgl/src/stdlib/builtin/lv_string_builtin.c ****     const uint8_t * s8 = src;
  66              		.loc 1 58 24 is_stmt 0 view .LVU17
  67 001e 0346     		mov	r3, r0
  68              		.loc 1 94 14 view .LVU18
  69 0020 A1E0     		b	.L12
  70              	.LVL4:
  71              	.L4:
  72              	.LCFI1:
  73              		.cfi_def_cfa_offset 0
  74              		.cfi_restore 4
  75              		.cfi_restore 14
  64:../../Middlewares/LVGL/GUI/lvgl/src/stdlib/builtin/lv_string_builtin.c ****             d8++;
ARM GAS  C:\Users\28576\AppData\Local\Temp\ccR8vQUs.s 			page 4


  76              		.loc 1 64 13 is_stmt 1 view .LVU19
  64:../../Middlewares/LVGL/GUI/lvgl/src/stdlib/builtin/lv_string_builtin.c ****             d8++;
  77              		.loc 1 64 19 is_stmt 0 view .LVU20
  78 0022 11F801CB 		ldrb	ip, [r1], #1	@ zero_extendqisi2
  79              	.LVL5:
  64:../../Middlewares/LVGL/GUI/lvgl/src/stdlib/builtin/lv_string_builtin.c ****             d8++;
  80              		.loc 1 64 17 view .LVU21
  81 0026 03F801CB 		strb	ip, [r3], #1
  82              	.LVL6:
  65:../../Middlewares/LVGL/GUI/lvgl/src/stdlib/builtin/lv_string_builtin.c ****             s8++;
  83              		.loc 1 65 13 is_stmt 1 view .LVU22
  66:../../Middlewares/LVGL/GUI/lvgl/src/stdlib/builtin/lv_string_builtin.c ****             len--;
  84              		.loc 1 66 13 view .LVU23
  67:../../Middlewares/LVGL/GUI/lvgl/src/stdlib/builtin/lv_string_builtin.c ****         }
  85              		.loc 1 67 13 view .LVU24
  67:../../Middlewares/LVGL/GUI/lvgl/src/stdlib/builtin/lv_string_builtin.c ****         }
  86              		.loc 1 67 16 is_stmt 0 view .LVU25
  87 002a 013A     		subs	r2, r2, #1
  88              	.LVL7:
  89              	.L2:
  63:../../Middlewares/LVGL/GUI/lvgl/src/stdlib/builtin/lv_string_builtin.c ****             *d8 = *s8;
  90              		.loc 1 63 15 is_stmt 1 view .LVU26
  91 002c 002A     		cmp	r2, #0
  92 002e F8D1     		bne	.L4
  63:../../Middlewares/LVGL/GUI/lvgl/src/stdlib/builtin/lv_string_builtin.c ****             *d8 = *s8;
  93              		.loc 1 63 15 is_stmt 0 view .LVU27
  94 0030 7047     		bx	lr
  95              	.LVL8:
  96              	.L28:
  58:../../Middlewares/LVGL/GUI/lvgl/src/stdlib/builtin/lv_string_builtin.c ****     const uint8_t * s8 = src;
  97              		.loc 1 58 24 view .LVU28
  98 0032 0346     		mov	r3, r0
  99 0034 FAE7     		b	.L2
 100              	.LVL9:
 101              	.L8:
  78:../../Middlewares/LVGL/GUI/lvgl/src/stdlib/builtin/lv_string_builtin.c ****             _REPEAT8(_COPY(d8, s8));
 102              		.loc 1 78 13 is_stmt 1 view .LVU29
 103 0036 91F800C0 		ldrb	ip, [r1]	@ zero_extendqisi2
 104 003a 83F800C0 		strb	ip, [r3]
  78:../../Middlewares/LVGL/GUI/lvgl/src/stdlib/builtin/lv_string_builtin.c ****             _REPEAT8(_COPY(d8, s8));
 105              		.loc 1 78 13 view .LVU30
 106              	.LVL10:
  78:../../Middlewares/LVGL/GUI/lvgl/src/stdlib/builtin/lv_string_builtin.c ****             _REPEAT8(_COPY(d8, s8));
 107              		.loc 1 78 13 view .LVU31
  78:../../Middlewares/LVGL/GUI/lvgl/src/stdlib/builtin/lv_string_builtin.c ****             _REPEAT8(_COPY(d8, s8));
 108              		.loc 1 78 13 view .LVU32
 109 003e 91F801C0 		ldrb	ip, [r1, #1]	@ zero_extendqisi2
 110 0042 83F801C0 		strb	ip, [r3, #1]
  78:../../Middlewares/LVGL/GUI/lvgl/src/stdlib/builtin/lv_string_builtin.c ****             _REPEAT8(_COPY(d8, s8));
 111              		.loc 1 78 13 view .LVU33
 112              	.LVL11:
  78:../../Middlewares/LVGL/GUI/lvgl/src/stdlib/builtin/lv_string_builtin.c ****             _REPEAT8(_COPY(d8, s8));
 113              		.loc 1 78 13 view .LVU34
  78:../../Middlewares/LVGL/GUI/lvgl/src/stdlib/builtin/lv_string_builtin.c ****             _REPEAT8(_COPY(d8, s8));
 114              		.loc 1 78 13 view .LVU35
 115 0046 91F802C0 		ldrb	ip, [r1, #2]	@ zero_extendqisi2
 116 004a 83F802C0 		strb	ip, [r3, #2]
ARM GAS  C:\Users\28576\AppData\Local\Temp\ccR8vQUs.s 			page 5


  78:../../Middlewares/LVGL/GUI/lvgl/src/stdlib/builtin/lv_string_builtin.c ****             _REPEAT8(_COPY(d8, s8));
 117              		.loc 1 78 13 view .LVU36
 118              	.LVL12:
  78:../../Middlewares/LVGL/GUI/lvgl/src/stdlib/builtin/lv_string_builtin.c ****             _REPEAT8(_COPY(d8, s8));
 119              		.loc 1 78 13 view .LVU37
  78:../../Middlewares/LVGL/GUI/lvgl/src/stdlib/builtin/lv_string_builtin.c ****             _REPEAT8(_COPY(d8, s8));
 120              		.loc 1 78 13 view .LVU38
 121 004e 91F803C0 		ldrb	ip, [r1, #3]	@ zero_extendqisi2
 122 0052 83F803C0 		strb	ip, [r3, #3]
  78:../../Middlewares/LVGL/GUI/lvgl/src/stdlib/builtin/lv_string_builtin.c ****             _REPEAT8(_COPY(d8, s8));
 123              		.loc 1 78 13 view .LVU39
 124              	.LVL13:
  78:../../Middlewares/LVGL/GUI/lvgl/src/stdlib/builtin/lv_string_builtin.c ****             _REPEAT8(_COPY(d8, s8));
 125              		.loc 1 78 13 view .LVU40
  78:../../Middlewares/LVGL/GUI/lvgl/src/stdlib/builtin/lv_string_builtin.c ****             _REPEAT8(_COPY(d8, s8));
 126              		.loc 1 78 13 view .LVU41
 127 0056 91F804C0 		ldrb	ip, [r1, #4]	@ zero_extendqisi2
 128 005a 83F804C0 		strb	ip, [r3, #4]
  78:../../Middlewares/LVGL/GUI/lvgl/src/stdlib/builtin/lv_string_builtin.c ****             _REPEAT8(_COPY(d8, s8));
 129              		.loc 1 78 13 view .LVU42
 130              	.LVL14:
  78:../../Middlewares/LVGL/GUI/lvgl/src/stdlib/builtin/lv_string_builtin.c ****             _REPEAT8(_COPY(d8, s8));
 131              		.loc 1 78 13 view .LVU43
  78:../../Middlewares/LVGL/GUI/lvgl/src/stdlib/builtin/lv_string_builtin.c ****             _REPEAT8(_COPY(d8, s8));
 132              		.loc 1 78 13 view .LVU44
 133 005e 91F805C0 		ldrb	ip, [r1, #5]	@ zero_extendqisi2
 134 0062 83F805C0 		strb	ip, [r3, #5]
  78:../../Middlewares/LVGL/GUI/lvgl/src/stdlib/builtin/lv_string_builtin.c ****             _REPEAT8(_COPY(d8, s8));
 135              		.loc 1 78 13 view .LVU45
 136              	.LVL15:
  78:../../Middlewares/LVGL/GUI/lvgl/src/stdlib/builtin/lv_string_builtin.c ****             _REPEAT8(_COPY(d8, s8));
 137              		.loc 1 78 13 view .LVU46
  78:../../Middlewares/LVGL/GUI/lvgl/src/stdlib/builtin/lv_string_builtin.c ****             _REPEAT8(_COPY(d8, s8));
 138              		.loc 1 78 13 view .LVU47
 139 0066 91F806C0 		ldrb	ip, [r1, #6]	@ zero_extendqisi2
 140 006a 83F806C0 		strb	ip, [r3, #6]
  78:../../Middlewares/LVGL/GUI/lvgl/src/stdlib/builtin/lv_string_builtin.c ****             _REPEAT8(_COPY(d8, s8));
 141              		.loc 1 78 13 view .LVU48
 142              	.LVL16:
  78:../../Middlewares/LVGL/GUI/lvgl/src/stdlib/builtin/lv_string_builtin.c ****             _REPEAT8(_COPY(d8, s8));
 143              		.loc 1 78 13 view .LVU49
  78:../../Middlewares/LVGL/GUI/lvgl/src/stdlib/builtin/lv_string_builtin.c ****             _REPEAT8(_COPY(d8, s8));
 144              		.loc 1 78 13 view .LVU50
 145 006e 91F807C0 		ldrb	ip, [r1, #7]	@ zero_extendqisi2
 146 0072 83F807C0 		strb	ip, [r3, #7]
  78:../../Middlewares/LVGL/GUI/lvgl/src/stdlib/builtin/lv_string_builtin.c ****             _REPEAT8(_COPY(d8, s8));
 147              		.loc 1 78 13 view .LVU51
 148              	.LVL17:
  78:../../Middlewares/LVGL/GUI/lvgl/src/stdlib/builtin/lv_string_builtin.c ****             _REPEAT8(_COPY(d8, s8));
 149              		.loc 1 78 13 view .LVU52
  78:../../Middlewares/LVGL/GUI/lvgl/src/stdlib/builtin/lv_string_builtin.c ****             _REPEAT8(_COPY(d8, s8));
 150              		.loc 1 78 36 view .LVU53
  79:../../Middlewares/LVGL/GUI/lvgl/src/stdlib/builtin/lv_string_builtin.c ****             _REPEAT8(_COPY(d8, s8));
 151              		.loc 1 79 13 view .LVU54
 152 0076 91F808C0 		ldrb	ip, [r1, #8]	@ zero_extendqisi2
 153 007a 83F808C0 		strb	ip, [r3, #8]
  79:../../Middlewares/LVGL/GUI/lvgl/src/stdlib/builtin/lv_string_builtin.c ****             _REPEAT8(_COPY(d8, s8));
ARM GAS  C:\Users\28576\AppData\Local\Temp\ccR8vQUs.s 			page 6


 154              		.loc 1 79 13 view .LVU55
 155              	.LVL18:
  79:../../Middlewares/LVGL/GUI/lvgl/src/stdlib/builtin/lv_string_builtin.c ****             _REPEAT8(_COPY(d8, s8));
 156              		.loc 1 79 13 view .LVU56
  79:../../Middlewares/LVGL/GUI/lvgl/src/stdlib/builtin/lv_string_builtin.c ****             _REPEAT8(_COPY(d8, s8));
 157              		.loc 1 79 13 view .LVU57
 158 007e 91F809C0 		ldrb	ip, [r1, #9]	@ zero_extendqisi2
 159 0082 83F809C0 		strb	ip, [r3, #9]
  79:../../Middlewares/LVGL/GUI/lvgl/src/stdlib/builtin/lv_string_builtin.c ****             _REPEAT8(_COPY(d8, s8));
 160              		.loc 1 79 13 view .LVU58
 161              	.LVL19:
  79:../../Middlewares/LVGL/GUI/lvgl/src/stdlib/builtin/lv_string_builtin.c ****             _REPEAT8(_COPY(d8, s8));
 162              		.loc 1 79 13 view .LVU59
  79:../../Middlewares/LVGL/GUI/lvgl/src/stdlib/builtin/lv_string_builtin.c ****             _REPEAT8(_COPY(d8, s8));
 163              		.loc 1 79 13 view .LVU60
 164 0086 91F80AC0 		ldrb	ip, [r1, #10]	@ zero_extendqisi2
 165 008a 83F80AC0 		strb	ip, [r3, #10]
  79:../../Middlewares/LVGL/GUI/lvgl/src/stdlib/builtin/lv_string_builtin.c ****             _REPEAT8(_COPY(d8, s8));
 166              		.loc 1 79 13 view .LVU61
 167              	.LVL20:
  79:../../Middlewares/LVGL/GUI/lvgl/src/stdlib/builtin/lv_string_builtin.c ****             _REPEAT8(_COPY(d8, s8));
 168              		.loc 1 79 13 view .LVU62
  79:../../Middlewares/LVGL/GUI/lvgl/src/stdlib/builtin/lv_string_builtin.c ****             _REPEAT8(_COPY(d8, s8));
 169              		.loc 1 79 13 view .LVU63
 170 008e 91F80BC0 		ldrb	ip, [r1, #11]	@ zero_extendqisi2
 171 0092 83F80BC0 		strb	ip, [r3, #11]
  79:../../Middlewares/LVGL/GUI/lvgl/src/stdlib/builtin/lv_string_builtin.c ****             _REPEAT8(_COPY(d8, s8));
 172              		.loc 1 79 13 view .LVU64
 173              	.LVL21:
  79:../../Middlewares/LVGL/GUI/lvgl/src/stdlib/builtin/lv_string_builtin.c ****             _REPEAT8(_COPY(d8, s8));
 174              		.loc 1 79 13 view .LVU65
  79:../../Middlewares/LVGL/GUI/lvgl/src/stdlib/builtin/lv_string_builtin.c ****             _REPEAT8(_COPY(d8, s8));
 175              		.loc 1 79 13 view .LVU66
 176 0096 91F80CC0 		ldrb	ip, [r1, #12]	@ zero_extendqisi2
 177 009a 83F80CC0 		strb	ip, [r3, #12]
  79:../../Middlewares/LVGL/GUI/lvgl/src/stdlib/builtin/lv_string_builtin.c ****             _REPEAT8(_COPY(d8, s8));
 178              		.loc 1 79 13 view .LVU67
 179              	.LVL22:
  79:../../Middlewares/LVGL/GUI/lvgl/src/stdlib/builtin/lv_string_builtin.c ****             _REPEAT8(_COPY(d8, s8));
 180              		.loc 1 79 13 view .LVU68
  79:../../Middlewares/LVGL/GUI/lvgl/src/stdlib/builtin/lv_string_builtin.c ****             _REPEAT8(_COPY(d8, s8));
 181              		.loc 1 79 13 view .LVU69
 182 009e 91F80DC0 		ldrb	ip, [r1, #13]	@ zero_extendqisi2
 183 00a2 83F80DC0 		strb	ip, [r3, #13]
  79:../../Middlewares/LVGL/GUI/lvgl/src/stdlib/builtin/lv_string_builtin.c ****             _REPEAT8(_COPY(d8, s8));
 184              		.loc 1 79 13 view .LVU70
 185              	.LVL23:
  79:../../Middlewares/LVGL/GUI/lvgl/src/stdlib/builtin/lv_string_builtin.c ****             _REPEAT8(_COPY(d8, s8));
 186              		.loc 1 79 13 view .LVU71
  79:../../Middlewares/LVGL/GUI/lvgl/src/stdlib/builtin/lv_string_builtin.c ****             _REPEAT8(_COPY(d8, s8));
 187              		.loc 1 79 13 view .LVU72
 188 00a6 91F80EC0 		ldrb	ip, [r1, #14]	@ zero_extendqisi2
 189 00aa 83F80EC0 		strb	ip, [r3, #14]
  79:../../Middlewares/LVGL/GUI/lvgl/src/stdlib/builtin/lv_string_builtin.c ****             _REPEAT8(_COPY(d8, s8));
 190              		.loc 1 79 13 view .LVU73
 191              	.LVL24:
  79:../../Middlewares/LVGL/GUI/lvgl/src/stdlib/builtin/lv_string_builtin.c ****             _REPEAT8(_COPY(d8, s8));
ARM GAS  C:\Users\28576\AppData\Local\Temp\ccR8vQUs.s 			page 7


 192              		.loc 1 79 13 view .LVU74
  79:../../Middlewares/LVGL/GUI/lvgl/src/stdlib/builtin/lv_string_builtin.c ****             _REPEAT8(_COPY(d8, s8));
 193              		.loc 1 79 13 view .LVU75
 194 00ae 91F80FC0 		ldrb	ip, [r1, #15]	@ zero_extendqisi2
 195 00b2 83F80FC0 		strb	ip, [r3, #15]
  79:../../Middlewares/LVGL/GUI/lvgl/src/stdlib/builtin/lv_string_builtin.c ****             _REPEAT8(_COPY(d8, s8));
 196              		.loc 1 79 13 view .LVU76
 197              	.LVL25:
  79:../../Middlewares/LVGL/GUI/lvgl/src/stdlib/builtin/lv_string_builtin.c ****             _REPEAT8(_COPY(d8, s8));
 198              		.loc 1 79 13 view .LVU77
  79:../../Middlewares/LVGL/GUI/lvgl/src/stdlib/builtin/lv_string_builtin.c ****             _REPEAT8(_COPY(d8, s8));
 199              		.loc 1 79 36 view .LVU78
  80:../../Middlewares/LVGL/GUI/lvgl/src/stdlib/builtin/lv_string_builtin.c ****             _REPEAT8(_COPY(d8, s8));
 200              		.loc 1 80 13 view .LVU79
 201 00b6 91F810C0 		ldrb	ip, [r1, #16]	@ zero_extendqisi2
 202 00ba 83F810C0 		strb	ip, [r3, #16]
  80:../../Middlewares/LVGL/GUI/lvgl/src/stdlib/builtin/lv_string_builtin.c ****             _REPEAT8(_COPY(d8, s8));
 203              		.loc 1 80 13 view .LVU80
 204              	.LVL26:
  80:../../Middlewares/LVGL/GUI/lvgl/src/stdlib/builtin/lv_string_builtin.c ****             _REPEAT8(_COPY(d8, s8));
 205              		.loc 1 80 13 view .LVU81
  80:../../Middlewares/LVGL/GUI/lvgl/src/stdlib/builtin/lv_string_builtin.c ****             _REPEAT8(_COPY(d8, s8));
 206              		.loc 1 80 13 view .LVU82
 207 00be 91F811C0 		ldrb	ip, [r1, #17]	@ zero_extendqisi2
 208 00c2 83F811C0 		strb	ip, [r3, #17]
  80:../../Middlewares/LVGL/GUI/lvgl/src/stdlib/builtin/lv_string_builtin.c ****             _REPEAT8(_COPY(d8, s8));
 209              		.loc 1 80 13 view .LVU83
 210              	.LVL27:
  80:../../Middlewares/LVGL/GUI/lvgl/src/stdlib/builtin/lv_string_builtin.c ****             _REPEAT8(_COPY(d8, s8));
 211              		.loc 1 80 13 view .LVU84
  80:../../Middlewares/LVGL/GUI/lvgl/src/stdlib/builtin/lv_string_builtin.c ****             _REPEAT8(_COPY(d8, s8));
 212              		.loc 1 80 13 view .LVU85
 213 00c6 91F812C0 		ldrb	ip, [r1, #18]	@ zero_extendqisi2
 214 00ca 83F812C0 		strb	ip, [r3, #18]
  80:../../Middlewares/LVGL/GUI/lvgl/src/stdlib/builtin/lv_string_builtin.c ****             _REPEAT8(_COPY(d8, s8));
 215              		.loc 1 80 13 view .LVU86
 216              	.LVL28:
  80:../../Middlewares/LVGL/GUI/lvgl/src/stdlib/builtin/lv_string_builtin.c ****             _REPEAT8(_COPY(d8, s8));
 217              		.loc 1 80 13 view .LVU87
  80:../../Middlewares/LVGL/GUI/lvgl/src/stdlib/builtin/lv_string_builtin.c ****             _REPEAT8(_COPY(d8, s8));
 218              		.loc 1 80 13 view .LVU88
 219 00ce 91F813C0 		ldrb	ip, [r1, #19]	@ zero_extendqisi2
 220 00d2 83F813C0 		strb	ip, [r3, #19]
  80:../../Middlewares/LVGL/GUI/lvgl/src/stdlib/builtin/lv_string_builtin.c ****             _REPEAT8(_COPY(d8, s8));
 221              		.loc 1 80 13 view .LVU89
 222              	.LVL29:
  80:../../Middlewares/LVGL/GUI/lvgl/src/stdlib/builtin/lv_string_builtin.c ****             _REPEAT8(_COPY(d8, s8));
 223              		.loc 1 80 13 view .LVU90
  80:../../Middlewares/LVGL/GUI/lvgl/src/stdlib/builtin/lv_string_builtin.c ****             _REPEAT8(_COPY(d8, s8));
 224              		.loc 1 80 13 view .LVU91
 225 00d6 91F814C0 		ldrb	ip, [r1, #20]	@ zero_extendqisi2
 226 00da 83F814C0 		strb	ip, [r3, #20]
  80:../../Middlewares/LVGL/GUI/lvgl/src/stdlib/builtin/lv_string_builtin.c ****             _REPEAT8(_COPY(d8, s8));
 227              		.loc 1 80 13 view .LVU92
 228              	.LVL30:
  80:../../Middlewares/LVGL/GUI/lvgl/src/stdlib/builtin/lv_string_builtin.c ****             _REPEAT8(_COPY(d8, s8));
 229              		.loc 1 80 13 view .LVU93
ARM GAS  C:\Users\28576\AppData\Local\Temp\ccR8vQUs.s 			page 8


  80:../../Middlewares/LVGL/GUI/lvgl/src/stdlib/builtin/lv_string_builtin.c ****             _REPEAT8(_COPY(d8, s8));
 230              		.loc 1 80 13 view .LVU94
 231 00de 91F815C0 		ldrb	ip, [r1, #21]	@ zero_extendqisi2
 232 00e2 83F815C0 		strb	ip, [r3, #21]
  80:../../Middlewares/LVGL/GUI/lvgl/src/stdlib/builtin/lv_string_builtin.c ****             _REPEAT8(_COPY(d8, s8));
 233              		.loc 1 80 13 view .LVU95
 234              	.LVL31:
  80:../../Middlewares/LVGL/GUI/lvgl/src/stdlib/builtin/lv_string_builtin.c ****             _REPEAT8(_COPY(d8, s8));
 235              		.loc 1 80 13 view .LVU96
  80:../../Middlewares/LVGL/GUI/lvgl/src/stdlib/builtin/lv_string_builtin.c ****             _REPEAT8(_COPY(d8, s8));
 236              		.loc 1 80 13 view .LVU97
 237 00e6 91F816C0 		ldrb	ip, [r1, #22]	@ zero_extendqisi2
 238 00ea 83F816C0 		strb	ip, [r3, #22]
  80:../../Middlewares/LVGL/GUI/lvgl/src/stdlib/builtin/lv_string_builtin.c ****             _REPEAT8(_COPY(d8, s8));
 239              		.loc 1 80 13 view .LVU98
 240              	.LVL32:
  80:../../Middlewares/LVGL/GUI/lvgl/src/stdlib/builtin/lv_string_builtin.c ****             _REPEAT8(_COPY(d8, s8));
 241              		.loc 1 80 13 view .LVU99
  80:../../Middlewares/LVGL/GUI/lvgl/src/stdlib/builtin/lv_string_builtin.c ****             _REPEAT8(_COPY(d8, s8));
 242              		.loc 1 80 13 view .LVU100
 243 00ee 91F817C0 		ldrb	ip, [r1, #23]	@ zero_extendqisi2
 244 00f2 83F817C0 		strb	ip, [r3, #23]
  80:../../Middlewares/LVGL/GUI/lvgl/src/stdlib/builtin/lv_string_builtin.c ****             _REPEAT8(_COPY(d8, s8));
 245              		.loc 1 80 13 view .LVU101
 246              	.LVL33:
  80:../../Middlewares/LVGL/GUI/lvgl/src/stdlib/builtin/lv_string_builtin.c ****             _REPEAT8(_COPY(d8, s8));
 247              		.loc 1 80 13 view .LVU102
  80:../../Middlewares/LVGL/GUI/lvgl/src/stdlib/builtin/lv_string_builtin.c ****             _REPEAT8(_COPY(d8, s8));
 248              		.loc 1 80 36 view .LVU103
  81:../../Middlewares/LVGL/GUI/lvgl/src/stdlib/builtin/lv_string_builtin.c ****             len -= 32;
 249              		.loc 1 81 13 view .LVU104
 250 00f6 91F818C0 		ldrb	ip, [r1, #24]	@ zero_extendqisi2
 251 00fa 83F818C0 		strb	ip, [r3, #24]
  81:../../Middlewares/LVGL/GUI/lvgl/src/stdlib/builtin/lv_string_builtin.c ****             len -= 32;
 252              		.loc 1 81 13 view .LVU105
 253              	.LVL34:
  81:../../Middlewares/LVGL/GUI/lvgl/src/stdlib/builtin/lv_string_builtin.c ****             len -= 32;
 254              		.loc 1 81 13 view .LVU106
  81:../../Middlewares/LVGL/GUI/lvgl/src/stdlib/builtin/lv_string_builtin.c ****             len -= 32;
 255              		.loc 1 81 13 view .LVU107
 256 00fe 91F819C0 		ldrb	ip, [r1, #25]	@ zero_extendqisi2
 257 0102 83F819C0 		strb	ip, [r3, #25]
  81:../../Middlewares/LVGL/GUI/lvgl/src/stdlib/builtin/lv_string_builtin.c ****             len -= 32;
 258              		.loc 1 81 13 view .LVU108
 259              	.LVL35:
  81:../../Middlewares/LVGL/GUI/lvgl/src/stdlib/builtin/lv_string_builtin.c ****             len -= 32;
 260              		.loc 1 81 13 view .LVU109
  81:../../Middlewares/LVGL/GUI/lvgl/src/stdlib/builtin/lv_string_builtin.c ****             len -= 32;
 261              		.loc 1 81 13 view .LVU110
 262 0106 91F81AC0 		ldrb	ip, [r1, #26]	@ zero_extendqisi2
 263 010a 83F81AC0 		strb	ip, [r3, #26]
  81:../../Middlewares/LVGL/GUI/lvgl/src/stdlib/builtin/lv_string_builtin.c ****             len -= 32;
 264              		.loc 1 81 13 view .LVU111
 265              	.LVL36:
  81:../../Middlewares/LVGL/GUI/lvgl/src/stdlib/builtin/lv_string_builtin.c ****             len -= 32;
 266              		.loc 1 81 13 view .LVU112
  81:../../Middlewares/LVGL/GUI/lvgl/src/stdlib/builtin/lv_string_builtin.c ****             len -= 32;
ARM GAS  C:\Users\28576\AppData\Local\Temp\ccR8vQUs.s 			page 9


 267              		.loc 1 81 13 view .LVU113
 268 010e 91F81BC0 		ldrb	ip, [r1, #27]	@ zero_extendqisi2
 269 0112 83F81BC0 		strb	ip, [r3, #27]
  81:../../Middlewares/LVGL/GUI/lvgl/src/stdlib/builtin/lv_string_builtin.c ****             len -= 32;
 270              		.loc 1 81 13 view .LVU114
 271              	.LVL37:
  81:../../Middlewares/LVGL/GUI/lvgl/src/stdlib/builtin/lv_string_builtin.c ****             len -= 32;
 272              		.loc 1 81 13 view .LVU115
  81:../../Middlewares/LVGL/GUI/lvgl/src/stdlib/builtin/lv_string_builtin.c ****             len -= 32;
 273              		.loc 1 81 13 view .LVU116
 274 0116 91F81CC0 		ldrb	ip, [r1, #28]	@ zero_extendqisi2
 275 011a 83F81CC0 		strb	ip, [r3, #28]
  81:../../Middlewares/LVGL/GUI/lvgl/src/stdlib/builtin/lv_string_builtin.c ****             len -= 32;
 276              		.loc 1 81 13 view .LVU117
 277              	.LVL38:
  81:../../Middlewares/LVGL/GUI/lvgl/src/stdlib/builtin/lv_string_builtin.c ****             len -= 32;
 278              		.loc 1 81 13 view .LVU118
  81:../../Middlewares/LVGL/GUI/lvgl/src/stdlib/builtin/lv_string_builtin.c ****             len -= 32;
 279              		.loc 1 81 13 view .LVU119
 280 011e 91F81DC0 		ldrb	ip, [r1, #29]	@ zero_extendqisi2
 281 0122 83F81DC0 		strb	ip, [r3, #29]
  81:../../Middlewares/LVGL/GUI/lvgl/src/stdlib/builtin/lv_string_builtin.c ****             len -= 32;
 282              		.loc 1 81 13 view .LVU120
 283              	.LVL39:
  81:../../Middlewares/LVGL/GUI/lvgl/src/stdlib/builtin/lv_string_builtin.c ****             len -= 32;
 284              		.loc 1 81 13 view .LVU121
  81:../../Middlewares/LVGL/GUI/lvgl/src/stdlib/builtin/lv_string_builtin.c ****             len -= 32;
 285              		.loc 1 81 13 view .LVU122
 286 0126 91F81EC0 		ldrb	ip, [r1, #30]	@ zero_extendqisi2
 287 012a 83F81EC0 		strb	ip, [r3, #30]
  81:../../Middlewares/LVGL/GUI/lvgl/src/stdlib/builtin/lv_string_builtin.c ****             len -= 32;
 288              		.loc 1 81 13 view .LVU123
 289              	.LVL40:
  81:../../Middlewares/LVGL/GUI/lvgl/src/stdlib/builtin/lv_string_builtin.c ****             len -= 32;
 290              		.loc 1 81 13 view .LVU124
  81:../../Middlewares/LVGL/GUI/lvgl/src/stdlib/builtin/lv_string_builtin.c ****             len -= 32;
 291              		.loc 1 81 13 view .LVU125
 292 012e 91F81FC0 		ldrb	ip, [r1, #31]	@ zero_extendqisi2
 293 0132 83F81FC0 		strb	ip, [r3, #31]
  81:../../Middlewares/LVGL/GUI/lvgl/src/stdlib/builtin/lv_string_builtin.c ****             len -= 32;
 294              		.loc 1 81 13 view .LVU126
 295 0136 2033     		adds	r3, r3, #32
 296              	.LVL41:
  81:../../Middlewares/LVGL/GUI/lvgl/src/stdlib/builtin/lv_string_builtin.c ****             len -= 32;
 297              		.loc 1 81 13 view .LVU127
 298 0138 2031     		adds	r1, r1, #32
 299              	.LVL42:
  81:../../Middlewares/LVGL/GUI/lvgl/src/stdlib/builtin/lv_string_builtin.c ****             len -= 32;
 300              		.loc 1 81 36 view .LVU128
  82:../../Middlewares/LVGL/GUI/lvgl/src/stdlib/builtin/lv_string_builtin.c ****         }
 301              		.loc 1 82 13 view .LVU129
  82:../../Middlewares/LVGL/GUI/lvgl/src/stdlib/builtin/lv_string_builtin.c ****         }
 302              		.loc 1 82 17 is_stmt 0 view .LVU130
 303 013a 203A     		subs	r2, r2, #32
 304              	.LVL43:
 305              	.L6:
  77:../../Middlewares/LVGL/GUI/lvgl/src/stdlib/builtin/lv_string_builtin.c ****             _REPEAT8(_COPY(d8, s8));
ARM GAS  C:\Users\28576\AppData\Local\Temp\ccR8vQUs.s 			page 10


 306              		.loc 1 77 19 is_stmt 1 view .LVU131
 307 013c 202A     		cmp	r2, #32
 308 013e 3FF67AAF 		bhi	.L8
  77:../../Middlewares/LVGL/GUI/lvgl/src/stdlib/builtin/lv_string_builtin.c ****             _REPEAT8(_COPY(d8, s8));
 309              		.loc 1 77 19 is_stmt 0 view .LVU132
 310 0142 06E0     		b	.L9
 311              	.LVL44:
 312              	.L20:
  58:../../Middlewares/LVGL/GUI/lvgl/src/stdlib/builtin/lv_string_builtin.c ****     const uint8_t * s8 = src;
 313              		.loc 1 58 24 view .LVU133
 314 0144 0346     		mov	r3, r0
 315              	.LVL45:
  58:../../Middlewares/LVGL/GUI/lvgl/src/stdlib/builtin/lv_string_builtin.c ****     const uint8_t * s8 = src;
 316              		.loc 1 58 24 view .LVU134
 317 0146 F9E7     		b	.L6
 318              	.LVL46:
 319              	.L10:
  85:../../Middlewares/LVGL/GUI/lvgl/src/stdlib/builtin/lv_string_builtin.c ****             len--;
 320              		.loc 1 85 13 is_stmt 1 view .LVU135
 321 0148 11F801CB 		ldrb	ip, [r1], #1	@ zero_extendqisi2
 322              	.LVL47:
  85:../../Middlewares/LVGL/GUI/lvgl/src/stdlib/builtin/lv_string_builtin.c ****             len--;
 323              		.loc 1 85 13 is_stmt 0 view .LVU136
 324 014c 03F801CB 		strb	ip, [r3], #1
 325              	.LVL48:
  85:../../Middlewares/LVGL/GUI/lvgl/src/stdlib/builtin/lv_string_builtin.c ****             len--;
 326              		.loc 1 85 13 is_stmt 1 view .LVU137
  85:../../Middlewares/LVGL/GUI/lvgl/src/stdlib/builtin/lv_string_builtin.c ****             len--;
 327              		.loc 1 85 13 view .LVU138
  86:../../Middlewares/LVGL/GUI/lvgl/src/stdlib/builtin/lv_string_builtin.c ****         }
 328              		.loc 1 86 13 view .LVU139
  86:../../Middlewares/LVGL/GUI/lvgl/src/stdlib/builtin/lv_string_builtin.c ****         }
 329              		.loc 1 86 16 is_stmt 0 view .LVU140
 330 0150 013A     		subs	r2, r2, #1
 331              	.LVL49:
 332              	.L9:
  84:../../Middlewares/LVGL/GUI/lvgl/src/stdlib/builtin/lv_string_builtin.c ****             _COPY(d8, s8)
 333              		.loc 1 84 15 is_stmt 1 view .LVU141
 334 0152 002A     		cmp	r2, #0
 335 0154 F8D1     		bne	.L10
  84:../../Middlewares/LVGL/GUI/lvgl/src/stdlib/builtin/lv_string_builtin.c ****             _COPY(d8, s8)
 336              		.loc 1 84 15 is_stmt 0 view .LVU142
 337 0156 7047     		bx	lr
 338              	.LVL50:
 339              	.L13:
 340              	.LCFI2:
 341              		.cfi_def_cfa_offset 8
 342              		.cfi_offset 4, -8
 343              		.cfi_offset 14, -4
  95:../../Middlewares/LVGL/GUI/lvgl/src/stdlib/builtin/lv_string_builtin.c ****             _COPY(d8, s8);
 344              		.loc 1 95 13 is_stmt 1 view .LVU143
 345 0158 11F801EB 		ldrb	lr, [r1], #1	@ zero_extendqisi2
 346              	.LVL51:
 347              		.loc 1 95 13 is_stmt 0 view .LVU144
 348 015c 03F801EB 		strb	lr, [r3], #1
 349              	.LVL52:
 350              		.loc 1 95 13 is_stmt 1 view .LVU145
ARM GAS  C:\Users\28576\AppData\Local\Temp\ccR8vQUs.s 			page 11


 351              		.loc 1 95 13 view .LVU146
 352              		.loc 1 95 26 view .LVU147
  96:../../Middlewares/LVGL/GUI/lvgl/src/stdlib/builtin/lv_string_builtin.c ****             d_align--;
 353              		.loc 1 96 13 view .LVU148
 354              		.loc 1 96 20 is_stmt 0 view .LVU149
 355 0160 0CF1FF3C 		add	ip, ip, #-1
 356              	.LVL53:
  97:../../Middlewares/LVGL/GUI/lvgl/src/stdlib/builtin/lv_string_builtin.c ****             len--;
 357              		.loc 1 97 13 is_stmt 1 view .LVU150
 358              		.loc 1 97 16 is_stmt 0 view .LVU151
 359 0164 013A     		subs	r2, r2, #1
 360              	.LVL54:
 361              	.L12:
  94:../../Middlewares/LVGL/GUI/lvgl/src/stdlib/builtin/lv_string_builtin.c ****             _COPY(d8, s8);
 362              		.loc 1 94 23 is_stmt 1 view .LVU152
  94:../../Middlewares/LVGL/GUI/lvgl/src/stdlib/builtin/lv_string_builtin.c ****             _COPY(d8, s8);
 363              		.loc 1 94 15 is_stmt 0 view .LVU153
 364 0166 BCF1000E 		subs	lr, ip, #0
 365 016a 18BF     		it	ne
 366 016c 4FF0010E 		movne	lr, #1
  94:../../Middlewares/LVGL/GUI/lvgl/src/stdlib/builtin/lv_string_builtin.c ****             _COPY(d8, s8);
 367              		.loc 1 94 23 view .LVU154
 368 0170 B2B1     		cbz	r2, .L15
  94:../../Middlewares/LVGL/GUI/lvgl/src/stdlib/builtin/lv_string_builtin.c ****             _COPY(d8, s8);
 369              		.loc 1 94 23 view .LVU155
 370 0172 BEF1000F 		cmp	lr, #0
 371 0176 EFD1     		bne	.L13
 372 0178 12E0     		b	.L15
 373              	.LVL55:
 374              	.L16:
  98:../../Middlewares/LVGL/GUI/lvgl/src/stdlib/builtin/lv_string_builtin.c ****         }
  99:../../Middlewares/LVGL/GUI/lvgl/src/stdlib/builtin/lv_string_builtin.c ****     }
 100:../../Middlewares/LVGL/GUI/lvgl/src/stdlib/builtin/lv_string_builtin.c **** 
 101:../../Middlewares/LVGL/GUI/lvgl/src/stdlib/builtin/lv_string_builtin.c ****     uint32_t * d32 = (uint32_t *)d8;
 102:../../Middlewares/LVGL/GUI/lvgl/src/stdlib/builtin/lv_string_builtin.c ****     const uint32_t * s32 = (uint32_t *)s8;
 103:../../Middlewares/LVGL/GUI/lvgl/src/stdlib/builtin/lv_string_builtin.c ****     while(len > 32) {
 104:../../Middlewares/LVGL/GUI/lvgl/src/stdlib/builtin/lv_string_builtin.c ****         _REPEAT8(_COPY(d32, s32))
 375              		.loc 1 104 9 is_stmt 1 view .LVU156
 376 017a 0C68     		ldr	r4, [r1]
 377 017c 1C60     		str	r4, [r3]
 378              		.loc 1 104 9 view .LVU157
 379              	.LVL56:
 380              		.loc 1 104 9 view .LVU158
 381              		.loc 1 104 9 view .LVU159
 382 017e 4C68     		ldr	r4, [r1, #4]
 383 0180 5C60     		str	r4, [r3, #4]
 384              		.loc 1 104 9 view .LVU160
 385              	.LVL57:
 386              		.loc 1 104 9 view .LVU161
 387              		.loc 1 104 9 view .LVU162
 388 0182 8C68     		ldr	r4, [r1, #8]
 389 0184 9C60     		str	r4, [r3, #8]
 390              		.loc 1 104 9 view .LVU163
 391              	.LVL58:
 392              		.loc 1 104 9 view .LVU164
 393              		.loc 1 104 9 view .LVU165
 394 0186 CC68     		ldr	r4, [r1, #12]
ARM GAS  C:\Users\28576\AppData\Local\Temp\ccR8vQUs.s 			page 12


 395 0188 DC60     		str	r4, [r3, #12]
 396              		.loc 1 104 9 view .LVU166
 397              	.LVL59:
 398              		.loc 1 104 9 view .LVU167
 399              		.loc 1 104 9 view .LVU168
 400 018a 0C69     		ldr	r4, [r1, #16]
 401 018c 1C61     		str	r4, [r3, #16]
 402              		.loc 1 104 9 view .LVU169
 403              	.LVL60:
 404              		.loc 1 104 9 view .LVU170
 405              		.loc 1 104 9 view .LVU171
 406 018e 4C69     		ldr	r4, [r1, #20]
 407 0190 5C61     		str	r4, [r3, #20]
 408              		.loc 1 104 9 view .LVU172
 409              	.LVL61:
 410              		.loc 1 104 9 view .LVU173
 411              		.loc 1 104 9 view .LVU174
 412 0192 8C69     		ldr	r4, [r1, #24]
 413 0194 9C61     		str	r4, [r3, #24]
 414              		.loc 1 104 9 view .LVU175
 415              	.LVL62:
 416              		.loc 1 104 9 view .LVU176
 417              		.loc 1 104 9 view .LVU177
 418 0196 CC69     		ldr	r4, [r1, #28]
 419 0198 DC61     		str	r4, [r3, #28]
 420              		.loc 1 104 9 view .LVU178
 421 019a 2033     		adds	r3, r3, #32
 422              	.LVL63:
 423              		.loc 1 104 9 view .LVU179
 424 019c 2031     		adds	r1, r1, #32
 425              	.LVL64:
 105:../../Middlewares/LVGL/GUI/lvgl/src/stdlib/builtin/lv_string_builtin.c ****         len -= 32;
 426              		.loc 1 105 9 view .LVU180
 427              		.loc 1 105 13 is_stmt 0 view .LVU181
 428 019e 203A     		subs	r2, r2, #32
 429              	.LVL65:
 430              	.L15:
 103:../../Middlewares/LVGL/GUI/lvgl/src/stdlib/builtin/lv_string_builtin.c ****         _REPEAT8(_COPY(d32, s32))
 431              		.loc 1 103 15 is_stmt 1 view .LVU182
 432 01a0 202A     		cmp	r2, #32
 433 01a2 EAD8     		bhi	.L16
 103:../../Middlewares/LVGL/GUI/lvgl/src/stdlib/builtin/lv_string_builtin.c ****         _REPEAT8(_COPY(d32, s32))
 434              		.loc 1 103 15 is_stmt 0 view .LVU183
 435 01a4 06E0     		b	.L17
 436              	.LVL66:
 437              	.L21:
  58:../../Middlewares/LVGL/GUI/lvgl/src/stdlib/builtin/lv_string_builtin.c ****     const uint8_t * s8 = src;
 438              		.loc 1 58 24 view .LVU184
 439 01a6 0346     		mov	r3, r0
 440              	.LVL67:
  58:../../Middlewares/LVGL/GUI/lvgl/src/stdlib/builtin/lv_string_builtin.c ****     const uint8_t * s8 = src;
 441              		.loc 1 58 24 view .LVU185
 442 01a8 FAE7     		b	.L15
 443              	.LVL68:
 444              	.L18:
 106:../../Middlewares/LVGL/GUI/lvgl/src/stdlib/builtin/lv_string_builtin.c ****     }
 107:../../Middlewares/LVGL/GUI/lvgl/src/stdlib/builtin/lv_string_builtin.c **** 
ARM GAS  C:\Users\28576\AppData\Local\Temp\ccR8vQUs.s 			page 13


 108:../../Middlewares/LVGL/GUI/lvgl/src/stdlib/builtin/lv_string_builtin.c ****     d8 = (uint8_t *)d32;
 109:../../Middlewares/LVGL/GUI/lvgl/src/stdlib/builtin/lv_string_builtin.c ****     s8 = (const uint8_t *)s32;
 110:../../Middlewares/LVGL/GUI/lvgl/src/stdlib/builtin/lv_string_builtin.c ****     while(len) {
 111:../../Middlewares/LVGL/GUI/lvgl/src/stdlib/builtin/lv_string_builtin.c ****         _COPY(d8, s8)
 445              		.loc 1 111 9 is_stmt 1 view .LVU186
 446 01aa 11F801CB 		ldrb	ip, [r1], #1	@ zero_extendqisi2
 447              	.LVL69:
 448              		.loc 1 111 9 is_stmt 0 view .LVU187
 449 01ae 03F801CB 		strb	ip, [r3], #1
 450              	.LVL70:
 451              		.loc 1 111 9 is_stmt 1 view .LVU188
 452              		.loc 1 111 9 view .LVU189
 112:../../Middlewares/LVGL/GUI/lvgl/src/stdlib/builtin/lv_string_builtin.c ****         len--;
 453              		.loc 1 112 9 view .LVU190
 454              		.loc 1 112 12 is_stmt 0 view .LVU191
 455 01b2 013A     		subs	r2, r2, #1
 456              	.LVL71:
 457              	.L17:
 110:../../Middlewares/LVGL/GUI/lvgl/src/stdlib/builtin/lv_string_builtin.c ****         _COPY(d8, s8)
 458              		.loc 1 110 11 is_stmt 1 view .LVU192
 459 01b4 002A     		cmp	r2, #0
 460 01b6 F8D1     		bne	.L18
 113:../../Middlewares/LVGL/GUI/lvgl/src/stdlib/builtin/lv_string_builtin.c ****     }
 114:../../Middlewares/LVGL/GUI/lvgl/src/stdlib/builtin/lv_string_builtin.c **** 
 115:../../Middlewares/LVGL/GUI/lvgl/src/stdlib/builtin/lv_string_builtin.c ****     return dst;
 116:../../Middlewares/LVGL/GUI/lvgl/src/stdlib/builtin/lv_string_builtin.c **** }
 461              		.loc 1 116 1 is_stmt 0 view .LVU193
 462 01b8 10BD     		pop	{r4, pc}
 463              		.cfi_endproc
 464              	.LFE3:
 466              		.section	.text.lv_memset,"ax",%progbits
 467              		.align	1
 468              		.global	lv_memset
 469              		.syntax unified
 470              		.thumb
 471              		.thumb_func
 473              	lv_memset:
 474              	.LVL72:
 475              	.LFB4:
 117:../../Middlewares/LVGL/GUI/lvgl/src/stdlib/builtin/lv_string_builtin.c **** 
 118:../../Middlewares/LVGL/GUI/lvgl/src/stdlib/builtin/lv_string_builtin.c **** void LV_ATTRIBUTE_FAST_MEM lv_memset(void * dst, uint8_t v, size_t len)
 119:../../Middlewares/LVGL/GUI/lvgl/src/stdlib/builtin/lv_string_builtin.c **** {
 476              		.loc 1 119 1 is_stmt 1 view -0
 477              		.cfi_startproc
 478              		@ args = 0, pretend = 0, frame = 0
 479              		@ frame_needed = 0, uses_anonymous_args = 0
 480              		@ link register save eliminated.
 120:../../Middlewares/LVGL/GUI/lvgl/src/stdlib/builtin/lv_string_builtin.c ****     uint8_t * d8 = (uint8_t *)dst;
 481              		.loc 1 120 5 view .LVU195
 121:../../Middlewares/LVGL/GUI/lvgl/src/stdlib/builtin/lv_string_builtin.c ****     uintptr_t d_align = (lv_uintptr_t) d8 & ALIGN_MASK;
 482              		.loc 1 121 5 view .LVU196
 122:../../Middlewares/LVGL/GUI/lvgl/src/stdlib/builtin/lv_string_builtin.c **** 
 123:../../Middlewares/LVGL/GUI/lvgl/src/stdlib/builtin/lv_string_builtin.c ****     /*Make the address aligned*/
 124:../../Middlewares/LVGL/GUI/lvgl/src/stdlib/builtin/lv_string_builtin.c ****     if(d_align) {
 483              		.loc 1 124 5 view .LVU197
 484              		.loc 1 124 7 is_stmt 0 view .LVU198
 485 0000 10F00303 		ands	r3, r0, #3
ARM GAS  C:\Users\28576\AppData\Local\Temp\ccR8vQUs.s 			page 14


 486              	.LVL73:
 487              		.loc 1 124 7 view .LVU199
 488 0004 0FD0     		beq	.L30
 125:../../Middlewares/LVGL/GUI/lvgl/src/stdlib/builtin/lv_string_builtin.c ****         d_align = ALIGN_MASK + 1 - d_align;
 489              		.loc 1 125 9 is_stmt 1 view .LVU200
 490              		.loc 1 125 17 is_stmt 0 view .LVU201
 491 0006 C3F10403 		rsb	r3, r3, #4
 492              	.LVL74:
 126:../../Middlewares/LVGL/GUI/lvgl/src/stdlib/builtin/lv_string_builtin.c ****         while(d_align && len) {
 493              		.loc 1 126 9 is_stmt 1 view .LVU202
 494              		.loc 1 126 14 is_stmt 0 view .LVU203
 495 000a 03E0     		b	.L31
 496              	.LVL75:
 497              	.L32:
 127:../../Middlewares/LVGL/GUI/lvgl/src/stdlib/builtin/lv_string_builtin.c ****             _SET(d8, v);
 498              		.loc 1 127 13 is_stmt 1 view .LVU204
 499 000c 00F8011B 		strb	r1, [r0], #1
 500              	.LVL76:
 501              		.loc 1 127 13 view .LVU205
 502              		.loc 1 127 24 view .LVU206
 128:../../Middlewares/LVGL/GUI/lvgl/src/stdlib/builtin/lv_string_builtin.c ****             len--;
 503              		.loc 1 128 13 view .LVU207
 504              		.loc 1 128 16 is_stmt 0 view .LVU208
 505 0010 013A     		subs	r2, r2, #1
 506              	.LVL77:
 129:../../Middlewares/LVGL/GUI/lvgl/src/stdlib/builtin/lv_string_builtin.c ****             d_align--;
 507              		.loc 1 129 13 is_stmt 1 view .LVU209
 508              		.loc 1 129 20 is_stmt 0 view .LVU210
 509 0012 013B     		subs	r3, r3, #1
 510              	.LVL78:
 511              	.L31:
 126:../../Middlewares/LVGL/GUI/lvgl/src/stdlib/builtin/lv_string_builtin.c ****             _SET(d8, v);
 512              		.loc 1 126 23 is_stmt 1 view .LVU211
 126:../../Middlewares/LVGL/GUI/lvgl/src/stdlib/builtin/lv_string_builtin.c ****             _SET(d8, v);
 513              		.loc 1 126 15 is_stmt 0 view .LVU212
 514 0014 B3F1000C 		subs	ip, r3, #0
 515 0018 18BF     		it	ne
 516 001a 4FF0010C 		movne	ip, #1
 126:../../Middlewares/LVGL/GUI/lvgl/src/stdlib/builtin/lv_string_builtin.c ****             _SET(d8, v);
 517              		.loc 1 126 23 view .LVU213
 518 001e 12B1     		cbz	r2, .L30
 126:../../Middlewares/LVGL/GUI/lvgl/src/stdlib/builtin/lv_string_builtin.c ****             _SET(d8, v);
 519              		.loc 1 126 23 view .LVU214
 520 0020 BCF1000F 		cmp	ip, #0
 521 0024 F2D1     		bne	.L32
 522              	.L30:
 130:../../Middlewares/LVGL/GUI/lvgl/src/stdlib/builtin/lv_string_builtin.c ****         }
 131:../../Middlewares/LVGL/GUI/lvgl/src/stdlib/builtin/lv_string_builtin.c ****     }
 132:../../Middlewares/LVGL/GUI/lvgl/src/stdlib/builtin/lv_string_builtin.c **** 
 133:../../Middlewares/LVGL/GUI/lvgl/src/stdlib/builtin/lv_string_builtin.c ****     uint32_t v32 = (uint32_t)v + ((uint32_t)v << 8) + ((uint32_t)v << 16) + ((uint32_t)v << 24);
 523              		.loc 1 133 5 is_stmt 1 view .LVU215
 524              		.loc 1 133 32 is_stmt 0 view .LVU216
 525 0026 01EB0123 		add	r3, r1, r1, lsl #8
 526              	.LVL79:
 527              		.loc 1 133 53 view .LVU217
 528 002a 03EB0143 		add	r3, r3, r1, lsl #16
 529              		.loc 1 133 14 view .LVU218
ARM GAS  C:\Users\28576\AppData\Local\Temp\ccR8vQUs.s 			page 15


 530 002e 03EB0163 		add	r3, r3, r1, lsl #24
 531              	.LVL80:
 134:../../Middlewares/LVGL/GUI/lvgl/src/stdlib/builtin/lv_string_builtin.c ****     uint32_t * d32 = (uint32_t *)d8;
 532              		.loc 1 134 5 is_stmt 1 view .LVU219
 135:../../Middlewares/LVGL/GUI/lvgl/src/stdlib/builtin/lv_string_builtin.c **** 
 136:../../Middlewares/LVGL/GUI/lvgl/src/stdlib/builtin/lv_string_builtin.c ****     while(len > 32) {
 533              		.loc 1 136 5 view .LVU220
 534              		.loc 1 136 10 is_stmt 0 view .LVU221
 535 0032 09E0     		b	.L34
 536              	.LVL81:
 537              	.L35:
 137:../../Middlewares/LVGL/GUI/lvgl/src/stdlib/builtin/lv_string_builtin.c ****         _REPEAT8(_SET(d32, v32));
 538              		.loc 1 137 9 is_stmt 1 view .LVU222
 539 0034 0360     		str	r3, [r0]
 540              		.loc 1 137 9 view .LVU223
 541              	.LVL82:
 542              		.loc 1 137 9 view .LVU224
 543 0036 4360     		str	r3, [r0, #4]
 544              		.loc 1 137 9 view .LVU225
 545              	.LVL83:
 546              		.loc 1 137 9 view .LVU226
 547 0038 8360     		str	r3, [r0, #8]
 548              		.loc 1 137 9 view .LVU227
 549              	.LVL84:
 550              		.loc 1 137 9 view .LVU228
 551 003a C360     		str	r3, [r0, #12]
 552              		.loc 1 137 9 view .LVU229
 553              	.LVL85:
 554              		.loc 1 137 9 view .LVU230
 555 003c 0361     		str	r3, [r0, #16]
 556              		.loc 1 137 9 view .LVU231
 557              	.LVL86:
 558              		.loc 1 137 9 view .LVU232
 559 003e 4361     		str	r3, [r0, #20]
 560              		.loc 1 137 9 view .LVU233
 561              	.LVL87:
 562              		.loc 1 137 9 view .LVU234
 563 0040 8361     		str	r3, [r0, #24]
 564              		.loc 1 137 9 view .LVU235
 565              	.LVL88:
 566              		.loc 1 137 9 view .LVU236
 567 0042 C361     		str	r3, [r0, #28]
 568              		.loc 1 137 9 view .LVU237
 569 0044 2030     		adds	r0, r0, #32
 570              	.LVL89:
 571              		.loc 1 137 33 view .LVU238
 138:../../Middlewares/LVGL/GUI/lvgl/src/stdlib/builtin/lv_string_builtin.c ****         len -= 32;
 572              		.loc 1 138 9 view .LVU239
 573              		.loc 1 138 13 is_stmt 0 view .LVU240
 574 0046 203A     		subs	r2, r2, #32
 575              	.LVL90:
 576              	.L34:
 136:../../Middlewares/LVGL/GUI/lvgl/src/stdlib/builtin/lv_string_builtin.c ****         _REPEAT8(_SET(d32, v32));
 577              		.loc 1 136 15 is_stmt 1 view .LVU241
 578 0048 202A     		cmp	r2, #32
 579 004a F3D8     		bhi	.L35
 136:../../Middlewares/LVGL/GUI/lvgl/src/stdlib/builtin/lv_string_builtin.c ****         _REPEAT8(_SET(d32, v32));
ARM GAS  C:\Users\28576\AppData\Local\Temp\ccR8vQUs.s 			page 16


 580              		.loc 1 136 15 is_stmt 0 view .LVU242
 581 004c 02E0     		b	.L36
 582              	.LVL91:
 583              	.L37:
 139:../../Middlewares/LVGL/GUI/lvgl/src/stdlib/builtin/lv_string_builtin.c ****     }
 140:../../Middlewares/LVGL/GUI/lvgl/src/stdlib/builtin/lv_string_builtin.c **** 
 141:../../Middlewares/LVGL/GUI/lvgl/src/stdlib/builtin/lv_string_builtin.c ****     d8 = (uint8_t *)d32;
 142:../../Middlewares/LVGL/GUI/lvgl/src/stdlib/builtin/lv_string_builtin.c ****     while(len) {
 143:../../Middlewares/LVGL/GUI/lvgl/src/stdlib/builtin/lv_string_builtin.c ****         _SET(d8, v);
 584              		.loc 1 143 9 is_stmt 1 view .LVU243
 585 004e 00F8011B 		strb	r1, [r0], #1
 586              	.LVL92:
 587              		.loc 1 143 9 view .LVU244
 588              		.loc 1 143 20 view .LVU245
 144:../../Middlewares/LVGL/GUI/lvgl/src/stdlib/builtin/lv_string_builtin.c ****         len--;
 589              		.loc 1 144 9 view .LVU246
 590              		.loc 1 144 12 is_stmt 0 view .LVU247
 591 0052 013A     		subs	r2, r2, #1
 592              	.LVL93:
 593              	.L36:
 142:../../Middlewares/LVGL/GUI/lvgl/src/stdlib/builtin/lv_string_builtin.c ****         _SET(d8, v);
 594              		.loc 1 142 11 is_stmt 1 view .LVU248
 595 0054 002A     		cmp	r2, #0
 596 0056 FAD1     		bne	.L37
 145:../../Middlewares/LVGL/GUI/lvgl/src/stdlib/builtin/lv_string_builtin.c ****     }
 146:../../Middlewares/LVGL/GUI/lvgl/src/stdlib/builtin/lv_string_builtin.c **** }
 597              		.loc 1 146 1 is_stmt 0 view .LVU249
 598 0058 7047     		bx	lr
 599              		.cfi_endproc
 600              	.LFE4:
 602              		.section	.text.lv_memmove,"ax",%progbits
 603              		.align	1
 604              		.global	lv_memmove
 605              		.syntax unified
 606              		.thumb
 607              		.thumb_func
 609              	lv_memmove:
 610              	.LVL94:
 611              	.LFB5:
 147:../../Middlewares/LVGL/GUI/lvgl/src/stdlib/builtin/lv_string_builtin.c **** 
 148:../../Middlewares/LVGL/GUI/lvgl/src/stdlib/builtin/lv_string_builtin.c **** void * LV_ATTRIBUTE_FAST_MEM lv_memmove(void * dst, const void * src, size_t len)
 149:../../Middlewares/LVGL/GUI/lvgl/src/stdlib/builtin/lv_string_builtin.c **** {
 612              		.loc 1 149 1 is_stmt 1 view -0
 613              		.cfi_startproc
 614              		@ args = 0, pretend = 0, frame = 0
 615              		@ frame_needed = 0, uses_anonymous_args = 0
 616              		.loc 1 149 1 is_stmt 0 view .LVU251
 617 0000 08B5     		push	{r3, lr}
 618              	.LCFI3:
 619              		.cfi_def_cfa_offset 8
 620              		.cfi_offset 3, -8
 621              		.cfi_offset 14, -4
 150:../../Middlewares/LVGL/GUI/lvgl/src/stdlib/builtin/lv_string_builtin.c ****     if(dst < src || (char *)dst > ((char *)src + len)) {
 622              		.loc 1 150 5 is_stmt 1 view .LVU252
 623              		.loc 1 150 7 is_stmt 0 view .LVU253
 624 0002 8842     		cmp	r0, r1
 625 0004 0AD3     		bcc	.L39
ARM GAS  C:\Users\28576\AppData\Local\Temp\ccR8vQUs.s 			page 17


 626              		.loc 1 150 48 discriminator 1 view .LVU254
 627 0006 8B18     		adds	r3, r1, r2
 628              		.loc 1 150 18 discriminator 1 view .LVU255
 629 0008 8342     		cmp	r3, r0
 630 000a 07D3     		bcc	.L39
 151:../../Middlewares/LVGL/GUI/lvgl/src/stdlib/builtin/lv_string_builtin.c ****         return lv_memcpy(dst, src, len);
 152:../../Middlewares/LVGL/GUI/lvgl/src/stdlib/builtin/lv_string_builtin.c ****     }
 153:../../Middlewares/LVGL/GUI/lvgl/src/stdlib/builtin/lv_string_builtin.c **** 
 154:../../Middlewares/LVGL/GUI/lvgl/src/stdlib/builtin/lv_string_builtin.c ****     if(dst > src) {
 631              		.loc 1 154 5 is_stmt 1 view .LVU256
 632              		.loc 1 154 7 is_stmt 0 view .LVU257
 633 000c 8842     		cmp	r0, r1
 634 000e 1CD9     		bls	.L46
 635              	.LBB2:
 155:../../Middlewares/LVGL/GUI/lvgl/src/stdlib/builtin/lv_string_builtin.c ****         char * tmp = (char *)dst + len - 1;
 636              		.loc 1 155 9 is_stmt 1 view .LVU258
 637              		.loc 1 155 40 is_stmt 0 view .LVU259
 638 0010 02F1FF3C 		add	ip, r2, #-1
 639              		.loc 1 155 16 view .LVU260
 640 0014 00EB0C03 		add	r3, r0, ip
 641              	.LVL95:
 156:../../Middlewares/LVGL/GUI/lvgl/src/stdlib/builtin/lv_string_builtin.c ****         char * s   = (char *)src + len - 1;
 642              		.loc 1 156 9 is_stmt 1 view .LVU261
 643              		.loc 1 156 16 is_stmt 0 view .LVU262
 644 0018 6144     		add	r1, r1, ip
 645              	.LVL96:
 157:../../Middlewares/LVGL/GUI/lvgl/src/stdlib/builtin/lv_string_builtin.c **** 
 158:../../Middlewares/LVGL/GUI/lvgl/src/stdlib/builtin/lv_string_builtin.c ****         while(len--) {
 646              		.loc 1 158 9 is_stmt 1 view .LVU263
 647              		.loc 1 158 14 is_stmt 0 view .LVU264
 648 001a 07E0     		b	.L43
 649              	.LVL97:
 650              	.L39:
 651              		.loc 1 158 14 view .LVU265
 652              	.LBE2:
 151:../../Middlewares/LVGL/GUI/lvgl/src/stdlib/builtin/lv_string_builtin.c ****     }
 653              		.loc 1 151 9 is_stmt 1 view .LVU266
 151:../../Middlewares/LVGL/GUI/lvgl/src/stdlib/builtin/lv_string_builtin.c ****     }
 654              		.loc 1 151 16 is_stmt 0 view .LVU267
 655 001c FFF7FEFF 		bl	lv_memcpy
 656              	.LVL98:
 657              	.L41:
 159:../../Middlewares/LVGL/GUI/lvgl/src/stdlib/builtin/lv_string_builtin.c ****             *tmp-- = *s--;
 160:../../Middlewares/LVGL/GUI/lvgl/src/stdlib/builtin/lv_string_builtin.c ****         }
 161:../../Middlewares/LVGL/GUI/lvgl/src/stdlib/builtin/lv_string_builtin.c ****     }
 162:../../Middlewares/LVGL/GUI/lvgl/src/stdlib/builtin/lv_string_builtin.c ****     else {
 163:../../Middlewares/LVGL/GUI/lvgl/src/stdlib/builtin/lv_string_builtin.c ****         char * tmp = (char *)dst;
 164:../../Middlewares/LVGL/GUI/lvgl/src/stdlib/builtin/lv_string_builtin.c ****         char * s   = (char *)src;
 165:../../Middlewares/LVGL/GUI/lvgl/src/stdlib/builtin/lv_string_builtin.c **** 
 166:../../Middlewares/LVGL/GUI/lvgl/src/stdlib/builtin/lv_string_builtin.c ****         while(len--) {
 167:../../Middlewares/LVGL/GUI/lvgl/src/stdlib/builtin/lv_string_builtin.c ****             *tmp++ = *s++;
 168:../../Middlewares/LVGL/GUI/lvgl/src/stdlib/builtin/lv_string_builtin.c ****         }
 169:../../Middlewares/LVGL/GUI/lvgl/src/stdlib/builtin/lv_string_builtin.c ****     }
 170:../../Middlewares/LVGL/GUI/lvgl/src/stdlib/builtin/lv_string_builtin.c **** 
 171:../../Middlewares/LVGL/GUI/lvgl/src/stdlib/builtin/lv_string_builtin.c ****     return dst;
 172:../../Middlewares/LVGL/GUI/lvgl/src/stdlib/builtin/lv_string_builtin.c **** }
 658              		.loc 1 172 1 view .LVU268
ARM GAS  C:\Users\28576\AppData\Local\Temp\ccR8vQUs.s 			page 18


 659 0020 08BD     		pop	{r3, pc}
 660              	.LVL99:
 661              	.L44:
 662              	.LBB3:
 159:../../Middlewares/LVGL/GUI/lvgl/src/stdlib/builtin/lv_string_builtin.c ****             *tmp-- = *s--;
 663              		.loc 1 159 13 is_stmt 1 view .LVU269
 159:../../Middlewares/LVGL/GUI/lvgl/src/stdlib/builtin/lv_string_builtin.c ****             *tmp-- = *s--;
 664              		.loc 1 159 22 is_stmt 0 view .LVU270
 665 0022 11F80129 		ldrb	r2, [r1], #-1	@ zero_extendqisi2
 666              	.LVL100:
 159:../../Middlewares/LVGL/GUI/lvgl/src/stdlib/builtin/lv_string_builtin.c ****             *tmp-- = *s--;
 667              		.loc 1 159 20 view .LVU271
 668 0026 03F80129 		strb	r2, [r3], #-1
 669              	.LVL101:
 158:../../Middlewares/LVGL/GUI/lvgl/src/stdlib/builtin/lv_string_builtin.c ****             *tmp-- = *s--;
 670              		.loc 1 158 18 view .LVU272
 671 002a 6246     		mov	r2, ip
 672              	.LVL102:
 673              	.L43:
 158:../../Middlewares/LVGL/GUI/lvgl/src/stdlib/builtin/lv_string_builtin.c ****             *tmp-- = *s--;
 674              		.loc 1 158 15 is_stmt 1 view .LVU273
 158:../../Middlewares/LVGL/GUI/lvgl/src/stdlib/builtin/lv_string_builtin.c ****             *tmp-- = *s--;
 675              		.loc 1 158 18 is_stmt 0 view .LVU274
 676 002c 02F1FF3C 		add	ip, r2, #-1
 677              	.LVL103:
 158:../../Middlewares/LVGL/GUI/lvgl/src/stdlib/builtin/lv_string_builtin.c ****             *tmp-- = *s--;
 678              		.loc 1 158 15 view .LVU275
 679 0030 002A     		cmp	r2, #0
 680 0032 F6D1     		bne	.L44
 158:../../Middlewares/LVGL/GUI/lvgl/src/stdlib/builtin/lv_string_builtin.c ****             *tmp-- = *s--;
 681              		.loc 1 158 15 view .LVU276
 682 0034 F4E7     		b	.L41
 683              	.LVL104:
 684              	.L45:
 158:../../Middlewares/LVGL/GUI/lvgl/src/stdlib/builtin/lv_string_builtin.c ****             *tmp-- = *s--;
 685              		.loc 1 158 15 view .LVU277
 686              	.LBE3:
 687              	.LBB4:
 167:../../Middlewares/LVGL/GUI/lvgl/src/stdlib/builtin/lv_string_builtin.c ****         }
 688              		.loc 1 167 13 is_stmt 1 view .LVU278
 167:../../Middlewares/LVGL/GUI/lvgl/src/stdlib/builtin/lv_string_builtin.c ****         }
 689              		.loc 1 167 22 is_stmt 0 view .LVU279
 690 0036 11F8012B 		ldrb	r2, [r1], #1	@ zero_extendqisi2
 691              	.LVL105:
 167:../../Middlewares/LVGL/GUI/lvgl/src/stdlib/builtin/lv_string_builtin.c ****         }
 692              		.loc 1 167 20 view .LVU280
 693 003a 03F8012B 		strb	r2, [r3], #1
 694              	.LVL106:
 166:../../Middlewares/LVGL/GUI/lvgl/src/stdlib/builtin/lv_string_builtin.c ****             *tmp++ = *s++;
 695              		.loc 1 166 18 view .LVU281
 696 003e 6246     		mov	r2, ip
 697              	.LVL107:
 698              	.L42:
 166:../../Middlewares/LVGL/GUI/lvgl/src/stdlib/builtin/lv_string_builtin.c ****             *tmp++ = *s++;
 699              		.loc 1 166 15 is_stmt 1 view .LVU282
 166:../../Middlewares/LVGL/GUI/lvgl/src/stdlib/builtin/lv_string_builtin.c ****             *tmp++ = *s++;
 700              		.loc 1 166 18 is_stmt 0 view .LVU283
ARM GAS  C:\Users\28576\AppData\Local\Temp\ccR8vQUs.s 			page 19


 701 0040 02F1FF3C 		add	ip, r2, #-1
 702              	.LVL108:
 166:../../Middlewares/LVGL/GUI/lvgl/src/stdlib/builtin/lv_string_builtin.c ****             *tmp++ = *s++;
 703              		.loc 1 166 15 view .LVU284
 704 0044 002A     		cmp	r2, #0
 705 0046 F6D1     		bne	.L45
 706 0048 EAE7     		b	.L41
 707              	.LVL109:
 708              	.L46:
 163:../../Middlewares/LVGL/GUI/lvgl/src/stdlib/builtin/lv_string_builtin.c ****         char * s   = (char *)src;
 709              		.loc 1 163 16 view .LVU285
 710 004a 0346     		mov	r3, r0
 711 004c F8E7     		b	.L42
 712              	.LBE4:
 713              		.cfi_endproc
 714              	.LFE5:
 716              		.section	.text.lv_memcmp,"ax",%progbits
 717              		.align	1
 718              		.global	lv_memcmp
 719              		.syntax unified
 720              		.thumb
 721              		.thumb_func
 723              	lv_memcmp:
 724              	.LVL110:
 725              	.LFB6:
 173:../../Middlewares/LVGL/GUI/lvgl/src/stdlib/builtin/lv_string_builtin.c **** 
 174:../../Middlewares/LVGL/GUI/lvgl/src/stdlib/builtin/lv_string_builtin.c **** int lv_memcmp(const void * p1, const void * p2, size_t len)
 175:../../Middlewares/LVGL/GUI/lvgl/src/stdlib/builtin/lv_string_builtin.c **** {
 726              		.loc 1 175 1 is_stmt 1 view -0
 727              		.cfi_startproc
 728              		@ args = 0, pretend = 0, frame = 0
 729              		@ frame_needed = 0, uses_anonymous_args = 0
 730              		@ link register save eliminated.
 176:../../Middlewares/LVGL/GUI/lvgl/src/stdlib/builtin/lv_string_builtin.c ****     const char * s1 = (const char *) p1;
 731              		.loc 1 176 5 view .LVU287
 177:../../Middlewares/LVGL/GUI/lvgl/src/stdlib/builtin/lv_string_builtin.c ****     const char * s2 = (const char *) p2;
 732              		.loc 1 177 5 view .LVU288
 178:../../Middlewares/LVGL/GUI/lvgl/src/stdlib/builtin/lv_string_builtin.c ****     while(--len > 0 && (*s1 == *s2)) {
 733              		.loc 1 178 5 view .LVU289
 734              		.loc 1 178 10 is_stmt 0 view .LVU290
 735 0000 01E0     		b	.L49
 736              	.LVL111:
 737              	.L51:
 179:../../Middlewares/LVGL/GUI/lvgl/src/stdlib/builtin/lv_string_builtin.c ****         s1++;
 738              		.loc 1 179 9 is_stmt 1 view .LVU291
 739              		.loc 1 179 11 is_stmt 0 view .LVU292
 740 0002 0130     		adds	r0, r0, #1
 741              	.LVL112:
 180:../../Middlewares/LVGL/GUI/lvgl/src/stdlib/builtin/lv_string_builtin.c ****         s2++;
 742              		.loc 1 180 9 is_stmt 1 view .LVU293
 743              		.loc 1 180 11 is_stmt 0 view .LVU294
 744 0004 0131     		adds	r1, r1, #1
 745              	.LVL113:
 746              	.L49:
 178:../../Middlewares/LVGL/GUI/lvgl/src/stdlib/builtin/lv_string_builtin.c ****     while(--len > 0 && (*s1 == *s2)) {
 747              		.loc 1 178 21 is_stmt 1 view .LVU295
 178:../../Middlewares/LVGL/GUI/lvgl/src/stdlib/builtin/lv_string_builtin.c ****     while(--len > 0 && (*s1 == *s2)) {
ARM GAS  C:\Users\28576\AppData\Local\Temp\ccR8vQUs.s 			page 20


 748              		.loc 1 178 21 is_stmt 0 view .LVU296
 749 0006 013A     		subs	r2, r2, #1
 750              	.LVL114:
 178:../../Middlewares/LVGL/GUI/lvgl/src/stdlib/builtin/lv_string_builtin.c ****     while(--len > 0 && (*s1 == *s2)) {
 751              		.loc 1 178 21 view .LVU297
 752 0008 04D0     		beq	.L50
 178:../../Middlewares/LVGL/GUI/lvgl/src/stdlib/builtin/lv_string_builtin.c ****     while(--len > 0 && (*s1 == *s2)) {
 753              		.loc 1 178 25 discriminator 1 view .LVU298
 754 000a 90F800C0 		ldrb	ip, [r0]	@ zero_extendqisi2
 178:../../Middlewares/LVGL/GUI/lvgl/src/stdlib/builtin/lv_string_builtin.c ****     while(--len > 0 && (*s1 == *s2)) {
 755              		.loc 1 178 32 discriminator 1 view .LVU299
 756 000e 0B78     		ldrb	r3, [r1]	@ zero_extendqisi2
 178:../../Middlewares/LVGL/GUI/lvgl/src/stdlib/builtin/lv_string_builtin.c ****     while(--len > 0 && (*s1 == *s2)) {
 757              		.loc 1 178 21 discriminator 1 view .LVU300
 758 0010 9C45     		cmp	ip, r3
 759 0012 F6D0     		beq	.L51
 760              	.L50:
 181:../../Middlewares/LVGL/GUI/lvgl/src/stdlib/builtin/lv_string_builtin.c ****     }
 182:../../Middlewares/LVGL/GUI/lvgl/src/stdlib/builtin/lv_string_builtin.c ****     return *s1 - *s2;
 761              		.loc 1 182 5 is_stmt 1 view .LVU301
 762              		.loc 1 182 12 is_stmt 0 view .LVU302
 763 0014 0078     		ldrb	r0, [r0]	@ zero_extendqisi2
 764              	.LVL115:
 765              		.loc 1 182 18 view .LVU303
 766 0016 0B78     		ldrb	r3, [r1]	@ zero_extendqisi2
 183:../../Middlewares/LVGL/GUI/lvgl/src/stdlib/builtin/lv_string_builtin.c **** }
 767              		.loc 1 183 1 view .LVU304
 768 0018 C01A     		subs	r0, r0, r3
 769 001a 7047     		bx	lr
 770              		.cfi_endproc
 771              	.LFE6:
 773              		.section	.text.lv_strlen,"ax",%progbits
 774              		.align	1
 775              		.global	lv_strlen
 776              		.syntax unified
 777              		.thumb
 778              		.thumb_func
 780              	lv_strlen:
 781              	.LVL116:
 782              	.LFB7:
 184:../../Middlewares/LVGL/GUI/lvgl/src/stdlib/builtin/lv_string_builtin.c **** 
 185:../../Middlewares/LVGL/GUI/lvgl/src/stdlib/builtin/lv_string_builtin.c **** /* See https://en.cppreference.com/w/c/string/byte/strlen for reference */
 186:../../Middlewares/LVGL/GUI/lvgl/src/stdlib/builtin/lv_string_builtin.c **** size_t lv_strlen(const char * str)
 187:../../Middlewares/LVGL/GUI/lvgl/src/stdlib/builtin/lv_string_builtin.c **** {
 783              		.loc 1 187 1 is_stmt 1 view -0
 784              		.cfi_startproc
 785              		@ args = 0, pretend = 0, frame = 0
 786              		@ frame_needed = 0, uses_anonymous_args = 0
 787              		@ link register save eliminated.
 788              		.loc 1 187 1 is_stmt 0 view .LVU306
 789 0000 0246     		mov	r2, r0
 188:../../Middlewares/LVGL/GUI/lvgl/src/stdlib/builtin/lv_string_builtin.c ****     size_t i = 0;
 790              		.loc 1 188 5 is_stmt 1 view .LVU307
 791              	.LVL117:
 189:../../Middlewares/LVGL/GUI/lvgl/src/stdlib/builtin/lv_string_builtin.c ****     while(str[i]) i++;
 792              		.loc 1 189 5 view .LVU308
 188:../../Middlewares/LVGL/GUI/lvgl/src/stdlib/builtin/lv_string_builtin.c ****     size_t i = 0;
ARM GAS  C:\Users\28576\AppData\Local\Temp\ccR8vQUs.s 			page 21


 793              		.loc 1 188 12 is_stmt 0 view .LVU309
 794 0002 0020     		movs	r0, #0
 795              	.LVL118:
 796              		.loc 1 189 10 view .LVU310
 797 0004 00E0     		b	.L53
 798              	.LVL119:
 799              	.L54:
 800              		.loc 1 189 19 is_stmt 1 discriminator 2 view .LVU311
 801              		.loc 1 189 20 is_stmt 0 discriminator 2 view .LVU312
 802 0006 0130     		adds	r0, r0, #1
 803              	.LVL120:
 804              	.L53:
 805              		.loc 1 189 11 is_stmt 1 discriminator 1 view .LVU313
 806              		.loc 1 189 14 is_stmt 0 discriminator 1 view .LVU314
 807 0008 135C     		ldrb	r3, [r2, r0]	@ zero_extendqisi2
 808              		.loc 1 189 11 discriminator 1 view .LVU315
 809 000a 002B     		cmp	r3, #0
 810 000c FBD1     		bne	.L54
 190:../../Middlewares/LVGL/GUI/lvgl/src/stdlib/builtin/lv_string_builtin.c **** 
 191:../../Middlewares/LVGL/GUI/lvgl/src/stdlib/builtin/lv_string_builtin.c ****     return i;
 811              		.loc 1 191 5 is_stmt 1 view .LVU316
 192:../../Middlewares/LVGL/GUI/lvgl/src/stdlib/builtin/lv_string_builtin.c **** }
 812              		.loc 1 192 1 is_stmt 0 view .LVU317
 813 000e 7047     		bx	lr
 814              		.cfi_endproc
 815              	.LFE7:
 817              		.section	.text.lv_strnlen,"ax",%progbits
 818              		.align	1
 819              		.global	lv_strnlen
 820              		.syntax unified
 821              		.thumb
 822              		.thumb_func
 824              	lv_strnlen:
 825              	.LVL121:
 826              	.LFB8:
 193:../../Middlewares/LVGL/GUI/lvgl/src/stdlib/builtin/lv_string_builtin.c **** 
 194:../../Middlewares/LVGL/GUI/lvgl/src/stdlib/builtin/lv_string_builtin.c **** size_t lv_strnlen(const char * str, size_t max_len)
 195:../../Middlewares/LVGL/GUI/lvgl/src/stdlib/builtin/lv_string_builtin.c **** {
 827              		.loc 1 195 1 is_stmt 1 view -0
 828              		.cfi_startproc
 829              		@ args = 0, pretend = 0, frame = 0
 830              		@ frame_needed = 0, uses_anonymous_args = 0
 831              		@ link register save eliminated.
 832              		.loc 1 195 1 is_stmt 0 view .LVU319
 833 0000 0246     		mov	r2, r0
 196:../../Middlewares/LVGL/GUI/lvgl/src/stdlib/builtin/lv_string_builtin.c ****     size_t i = 0;
 834              		.loc 1 196 5 is_stmt 1 view .LVU320
 835              	.LVL122:
 197:../../Middlewares/LVGL/GUI/lvgl/src/stdlib/builtin/lv_string_builtin.c ****     while(i < max_len && str[i]) i++;
 836              		.loc 1 197 5 view .LVU321
 196:../../Middlewares/LVGL/GUI/lvgl/src/stdlib/builtin/lv_string_builtin.c ****     size_t i = 0;
 837              		.loc 1 196 12 is_stmt 0 view .LVU322
 838 0002 0020     		movs	r0, #0
 839              	.LVL123:
 840              		.loc 1 197 10 view .LVU323
 841 0004 00E0     		b	.L56
 842              	.LVL124:
ARM GAS  C:\Users\28576\AppData\Local\Temp\ccR8vQUs.s 			page 22


 843              	.L58:
 844              		.loc 1 197 34 is_stmt 1 discriminator 3 view .LVU324
 845              		.loc 1 197 35 is_stmt 0 discriminator 3 view .LVU325
 846 0006 0130     		adds	r0, r0, #1
 847              	.LVL125:
 848              	.L56:
 849              		.loc 1 197 23 is_stmt 1 discriminator 1 view .LVU326
 850 0008 8842     		cmp	r0, r1
 851 000a 02D2     		bcs	.L55
 852              		.loc 1 197 29 is_stmt 0 discriminator 2 view .LVU327
 853 000c 135C     		ldrb	r3, [r2, r0]	@ zero_extendqisi2
 854              		.loc 1 197 23 discriminator 2 view .LVU328
 855 000e 002B     		cmp	r3, #0
 856 0010 F9D1     		bne	.L58
 857              	.L55:
 198:../../Middlewares/LVGL/GUI/lvgl/src/stdlib/builtin/lv_string_builtin.c **** 
 199:../../Middlewares/LVGL/GUI/lvgl/src/stdlib/builtin/lv_string_builtin.c ****     return i;
 200:../../Middlewares/LVGL/GUI/lvgl/src/stdlib/builtin/lv_string_builtin.c **** }
 858              		.loc 1 200 1 view .LVU329
 859 0012 7047     		bx	lr
 860              		.cfi_endproc
 861              	.LFE8:
 863              		.section	.text.lv_strlcpy,"ax",%progbits
 864              		.align	1
 865              		.global	lv_strlcpy
 866              		.syntax unified
 867              		.thumb
 868              		.thumb_func
 870              	lv_strlcpy:
 871              	.LVL126:
 872              	.LFB9:
 201:../../Middlewares/LVGL/GUI/lvgl/src/stdlib/builtin/lv_string_builtin.c **** 
 202:../../Middlewares/LVGL/GUI/lvgl/src/stdlib/builtin/lv_string_builtin.c **** size_t lv_strlcpy(char * dst, const char * src, size_t dst_size)
 203:../../Middlewares/LVGL/GUI/lvgl/src/stdlib/builtin/lv_string_builtin.c **** {
 873              		.loc 1 203 1 is_stmt 1 view -0
 874              		.cfi_startproc
 875              		@ args = 0, pretend = 0, frame = 0
 876              		@ frame_needed = 0, uses_anonymous_args = 0
 877              		@ link register save eliminated.
 878              		.loc 1 203 1 is_stmt 0 view .LVU331
 879 0000 8446     		mov	ip, r0
 204:../../Middlewares/LVGL/GUI/lvgl/src/stdlib/builtin/lv_string_builtin.c ****     size_t i = 0;
 880              		.loc 1 204 5 is_stmt 1 view .LVU332
 881              	.LVL127:
 205:../../Middlewares/LVGL/GUI/lvgl/src/stdlib/builtin/lv_string_builtin.c ****     if(dst_size > 0) {
 882              		.loc 1 205 5 view .LVU333
 883              		.loc 1 205 7 is_stmt 0 view .LVU334
 884 0002 1046     		mov	r0, r2
 885              	.LVL128:
 886              		.loc 1 205 7 view .LVU335
 887 0004 82B1     		cbz	r2, .L64
 204:../../Middlewares/LVGL/GUI/lvgl/src/stdlib/builtin/lv_string_builtin.c ****     size_t i = 0;
 888              		.loc 1 204 12 view .LVU336
 889 0006 0023     		movs	r3, #0
 890 0008 02E0     		b	.L60
 891              	.LVL129:
 892              	.L63:
ARM GAS  C:\Users\28576\AppData\Local\Temp\ccR8vQUs.s 			page 23


 206:../../Middlewares/LVGL/GUI/lvgl/src/stdlib/builtin/lv_string_builtin.c ****         for(; i < dst_size - 1 && src[i]; i++) {
 207:../../Middlewares/LVGL/GUI/lvgl/src/stdlib/builtin/lv_string_builtin.c ****             dst[i] = src[i];
 893              		.loc 1 207 13 is_stmt 1 view .LVU337
 894              		.loc 1 207 20 is_stmt 0 view .LVU338
 895 000a 0CF80320 		strb	r2, [ip, r3]
 206:../../Middlewares/LVGL/GUI/lvgl/src/stdlib/builtin/lv_string_builtin.c ****         for(; i < dst_size - 1 && src[i]; i++) {
 896              		.loc 1 206 44 is_stmt 1 discriminator 3 view .LVU339
 897 000e 0133     		adds	r3, r3, #1
 898              	.LVL130:
 899              	.L60:
 206:../../Middlewares/LVGL/GUI/lvgl/src/stdlib/builtin/lv_string_builtin.c ****         for(; i < dst_size - 1 && src[i]; i++) {
 900              		.loc 1 206 32 discriminator 1 view .LVU340
 206:../../Middlewares/LVGL/GUI/lvgl/src/stdlib/builtin/lv_string_builtin.c ****         for(; i < dst_size - 1 && src[i]; i++) {
 901              		.loc 1 206 28 is_stmt 0 discriminator 1 view .LVU341
 902 0010 421E     		subs	r2, r0, #1
 206:../../Middlewares/LVGL/GUI/lvgl/src/stdlib/builtin/lv_string_builtin.c ****         for(; i < dst_size - 1 && src[i]; i++) {
 903              		.loc 1 206 32 discriminator 1 view .LVU342
 904 0012 9A42     		cmp	r2, r3
 905 0014 02D9     		bls	.L62
 206:../../Middlewares/LVGL/GUI/lvgl/src/stdlib/builtin/lv_string_builtin.c ****         for(; i < dst_size - 1 && src[i]; i++) {
 906              		.loc 1 206 38 discriminator 2 view .LVU343
 907 0016 CA5C     		ldrb	r2, [r1, r3]	@ zero_extendqisi2
 206:../../Middlewares/LVGL/GUI/lvgl/src/stdlib/builtin/lv_string_builtin.c ****         for(; i < dst_size - 1 && src[i]; i++) {
 908              		.loc 1 206 32 discriminator 2 view .LVU344
 909 0018 002A     		cmp	r2, #0
 910 001a F6D1     		bne	.L63
 911              	.L62:
 208:../../Middlewares/LVGL/GUI/lvgl/src/stdlib/builtin/lv_string_builtin.c ****         }
 209:../../Middlewares/LVGL/GUI/lvgl/src/stdlib/builtin/lv_string_builtin.c ****         dst[i] = '\0';
 912              		.loc 1 209 9 is_stmt 1 view .LVU345
 913              		.loc 1 209 16 is_stmt 0 view .LVU346
 914 001c 0022     		movs	r2, #0
 915 001e 0CF80320 		strb	r2, [ip, r3]
 916 0022 1846     		mov	r0, r3
 917              	.LVL131:
 918              		.loc 1 209 16 view .LVU347
 919 0024 00E0     		b	.L64
 920              	.LVL132:
 921              	.L65:
 210:../../Middlewares/LVGL/GUI/lvgl/src/stdlib/builtin/lv_string_builtin.c ****     }
 211:../../Middlewares/LVGL/GUI/lvgl/src/stdlib/builtin/lv_string_builtin.c ****     while(src[i]) i++;
 922              		.loc 1 211 19 is_stmt 1 discriminator 2 view .LVU348
 923              		.loc 1 211 20 is_stmt 0 discriminator 2 view .LVU349
 924 0026 0130     		adds	r0, r0, #1
 925              	.LVL133:
 926              	.L64:
 927              		.loc 1 211 11 is_stmt 1 discriminator 1 view .LVU350
 928              		.loc 1 211 14 is_stmt 0 discriminator 1 view .LVU351
 929 0028 0B5C     		ldrb	r3, [r1, r0]	@ zero_extendqisi2
 930              		.loc 1 211 11 discriminator 1 view .LVU352
 931 002a 002B     		cmp	r3, #0
 932 002c FBD1     		bne	.L65
 212:../../Middlewares/LVGL/GUI/lvgl/src/stdlib/builtin/lv_string_builtin.c ****     return i;
 933              		.loc 1 212 5 is_stmt 1 view .LVU353
 213:../../Middlewares/LVGL/GUI/lvgl/src/stdlib/builtin/lv_string_builtin.c **** }
 934              		.loc 1 213 1 is_stmt 0 view .LVU354
 935 002e 7047     		bx	lr
ARM GAS  C:\Users\28576\AppData\Local\Temp\ccR8vQUs.s 			page 24


 936              		.cfi_endproc
 937              	.LFE9:
 939              		.section	.text.lv_strncpy,"ax",%progbits
 940              		.align	1
 941              		.global	lv_strncpy
 942              		.syntax unified
 943              		.thumb
 944              		.thumb_func
 946              	lv_strncpy:
 947              	.LVL134:
 948              	.LFB10:
 214:../../Middlewares/LVGL/GUI/lvgl/src/stdlib/builtin/lv_string_builtin.c **** 
 215:../../Middlewares/LVGL/GUI/lvgl/src/stdlib/builtin/lv_string_builtin.c **** char * lv_strncpy(char * dst, const char * src, size_t dst_size)
 216:../../Middlewares/LVGL/GUI/lvgl/src/stdlib/builtin/lv_string_builtin.c **** {
 949              		.loc 1 216 1 is_stmt 1 view -0
 950              		.cfi_startproc
 951              		@ args = 0, pretend = 0, frame = 0
 952              		@ frame_needed = 0, uses_anonymous_args = 0
 953              		@ link register save eliminated.
 954              		.loc 1 216 1 is_stmt 0 view .LVU356
 955 0000 9446     		mov	ip, r2
 217:../../Middlewares/LVGL/GUI/lvgl/src/stdlib/builtin/lv_string_builtin.c ****     size_t i;
 956              		.loc 1 217 5 is_stmt 1 view .LVU357
 218:../../Middlewares/LVGL/GUI/lvgl/src/stdlib/builtin/lv_string_builtin.c ****     for(i = 0; i < dst_size && src[i]; i++) {
 957              		.loc 1 218 5 view .LVU358
 958              	.LVL135:
 959              		.loc 1 218 11 is_stmt 0 view .LVU359
 960 0002 0023     		movs	r3, #0
 961              		.loc 1 218 5 view .LVU360
 962 0004 01E0     		b	.L68
 963              	.LVL136:
 964              	.L70:
 219:../../Middlewares/LVGL/GUI/lvgl/src/stdlib/builtin/lv_string_builtin.c ****         dst[i] = src[i];
 965              		.loc 1 219 9 is_stmt 1 view .LVU361
 966              		.loc 1 219 16 is_stmt 0 view .LVU362
 967 0006 C254     		strb	r2, [r0, r3]
 218:../../Middlewares/LVGL/GUI/lvgl/src/stdlib/builtin/lv_string_builtin.c ****     for(i = 0; i < dst_size && src[i]; i++) {
 968              		.loc 1 218 41 is_stmt 1 discriminator 4 view .LVU363
 969 0008 0133     		adds	r3, r3, #1
 970              	.LVL137:
 971              	.L68:
 218:../../Middlewares/LVGL/GUI/lvgl/src/stdlib/builtin/lv_string_builtin.c ****     for(i = 0; i < dst_size && src[i]; i++) {
 972              		.loc 1 218 29 discriminator 1 view .LVU364
 973 000a 6345     		cmp	r3, ip
 974 000c 02D2     		bcs	.L71
 218:../../Middlewares/LVGL/GUI/lvgl/src/stdlib/builtin/lv_string_builtin.c ****     for(i = 0; i < dst_size && src[i]; i++) {
 975              		.loc 1 218 35 is_stmt 0 discriminator 3 view .LVU365
 976 000e CA5C     		ldrb	r2, [r1, r3]	@ zero_extendqisi2
 218:../../Middlewares/LVGL/GUI/lvgl/src/stdlib/builtin/lv_string_builtin.c ****     for(i = 0; i < dst_size && src[i]; i++) {
 977              		.loc 1 218 29 discriminator 3 view .LVU366
 978 0010 002A     		cmp	r2, #0
 979 0012 F8D1     		bne	.L70
 980              	.LVL138:
 981              	.L71:
 220:../../Middlewares/LVGL/GUI/lvgl/src/stdlib/builtin/lv_string_builtin.c ****     }
 221:../../Middlewares/LVGL/GUI/lvgl/src/stdlib/builtin/lv_string_builtin.c ****     for(; i < dst_size; i++) {
 982              		.loc 1 221 13 is_stmt 1 discriminator 1 view .LVU367
ARM GAS  C:\Users\28576\AppData\Local\Temp\ccR8vQUs.s 			page 25


 983 0014 6345     		cmp	r3, ip
 984 0016 03D2     		bcs	.L73
 222:../../Middlewares/LVGL/GUI/lvgl/src/stdlib/builtin/lv_string_builtin.c ****         dst[i] = '\0';
 985              		.loc 1 222 9 view .LVU368
 986              		.loc 1 222 16 is_stmt 0 view .LVU369
 987 0018 0022     		movs	r2, #0
 988 001a C254     		strb	r2, [r0, r3]
 221:../../Middlewares/LVGL/GUI/lvgl/src/stdlib/builtin/lv_string_builtin.c ****         dst[i] = '\0';
 989              		.loc 1 221 26 is_stmt 1 discriminator 2 view .LVU370
 990 001c 0133     		adds	r3, r3, #1
 991              	.LVL139:
 221:../../Middlewares/LVGL/GUI/lvgl/src/stdlib/builtin/lv_string_builtin.c ****         dst[i] = '\0';
 992              		.loc 1 221 26 is_stmt 0 discriminator 2 view .LVU371
 993 001e F9E7     		b	.L71
 994              	.LVL140:
 995              	.L73:
 223:../../Middlewares/LVGL/GUI/lvgl/src/stdlib/builtin/lv_string_builtin.c ****     }
 224:../../Middlewares/LVGL/GUI/lvgl/src/stdlib/builtin/lv_string_builtin.c ****     return dst;
 996              		.loc 1 224 5 is_stmt 1 view .LVU372
 225:../../Middlewares/LVGL/GUI/lvgl/src/stdlib/builtin/lv_string_builtin.c **** }
 997              		.loc 1 225 1 is_stmt 0 view .LVU373
 998 0020 7047     		bx	lr
 999              		.cfi_endproc
 1000              	.LFE10:
 1002              		.section	.text.lv_strcpy,"ax",%progbits
 1003              		.align	1
 1004              		.global	lv_strcpy
 1005              		.syntax unified
 1006              		.thumb
 1007              		.thumb_func
 1009              	lv_strcpy:
 1010              	.LVL141:
 1011              	.LFB11:
 226:../../Middlewares/LVGL/GUI/lvgl/src/stdlib/builtin/lv_string_builtin.c **** 
 227:../../Middlewares/LVGL/GUI/lvgl/src/stdlib/builtin/lv_string_builtin.c **** char * lv_strcpy(char * dst, const char * src)
 228:../../Middlewares/LVGL/GUI/lvgl/src/stdlib/builtin/lv_string_builtin.c **** {
 1012              		.loc 1 228 1 is_stmt 1 view -0
 1013              		.cfi_startproc
 1014              		@ args = 0, pretend = 0, frame = 0
 1015              		@ frame_needed = 0, uses_anonymous_args = 0
 1016              		@ link register save eliminated.
 229:../../Middlewares/LVGL/GUI/lvgl/src/stdlib/builtin/lv_string_builtin.c ****     char * tmp = dst;
 1017              		.loc 1 229 5 view .LVU375
 230:../../Middlewares/LVGL/GUI/lvgl/src/stdlib/builtin/lv_string_builtin.c ****     while((*dst++ = *src++) != '\0');
 1018              		.loc 1 230 5 view .LVU376
 1019              		.loc 1 230 10 is_stmt 0 view .LVU377
 1020 0000 8446     		mov	ip, r0
 1021              	.LVL142:
 1022              	.L75:
 1023              		.loc 1 230 29 is_stmt 1 discriminator 1 view .LVU378
 1024              		.loc 1 230 21 is_stmt 0 discriminator 1 view .LVU379
 1025 0002 0A78     		ldrb	r2, [r1]	@ zero_extendqisi2
 1026 0004 0131     		adds	r1, r1, #1
 1027              	.LVL143:
 1028              		.loc 1 230 19 discriminator 1 view .LVU380
 1029 0006 8CF80020 		strb	r2, [ip]
 1030 000a 0CF1010C 		add	ip, ip, #1
ARM GAS  C:\Users\28576\AppData\Local\Temp\ccR8vQUs.s 			page 26


 1031              	.LVL144:
 1032              		.loc 1 230 29 discriminator 1 view .LVU381
 1033 000e 002A     		cmp	r2, #0
 1034 0010 F7D1     		bne	.L75
 231:../../Middlewares/LVGL/GUI/lvgl/src/stdlib/builtin/lv_string_builtin.c ****     return tmp;
 1035              		.loc 1 231 5 is_stmt 1 view .LVU382
 232:../../Middlewares/LVGL/GUI/lvgl/src/stdlib/builtin/lv_string_builtin.c **** }
 1036              		.loc 1 232 1 is_stmt 0 view .LVU383
 1037 0012 7047     		bx	lr
 1038              		.cfi_endproc
 1039              	.LFE11:
 1041              		.section	.text.lv_strcmp,"ax",%progbits
 1042              		.align	1
 1043              		.global	lv_strcmp
 1044              		.syntax unified
 1045              		.thumb
 1046              		.thumb_func
 1048              	lv_strcmp:
 1049              	.LVL145:
 1050              	.LFB12:
 233:../../Middlewares/LVGL/GUI/lvgl/src/stdlib/builtin/lv_string_builtin.c **** 
 234:../../Middlewares/LVGL/GUI/lvgl/src/stdlib/builtin/lv_string_builtin.c **** int lv_strcmp(const char * s1, const char * s2)
 235:../../Middlewares/LVGL/GUI/lvgl/src/stdlib/builtin/lv_string_builtin.c **** {
 1051              		.loc 1 235 1 is_stmt 1 view -0
 1052              		.cfi_startproc
 1053              		@ args = 0, pretend = 0, frame = 0
 1054              		@ frame_needed = 0, uses_anonymous_args = 0
 1055              		@ link register save eliminated.
 236:../../Middlewares/LVGL/GUI/lvgl/src/stdlib/builtin/lv_string_builtin.c ****     while(*s1 && (*s1 == *s2)) {
 1056              		.loc 1 236 5 view .LVU385
 1057              		.loc 1 236 10 is_stmt 0 view .LVU386
 1058 0000 01E0     		b	.L77
 1059              	.L79:
 237:../../Middlewares/LVGL/GUI/lvgl/src/stdlib/builtin/lv_string_builtin.c ****         s1++;
 1060              		.loc 1 237 9 is_stmt 1 view .LVU387
 1061              		.loc 1 237 11 is_stmt 0 view .LVU388
 1062 0002 0130     		adds	r0, r0, #1
 1063              	.LVL146:
 238:../../Middlewares/LVGL/GUI/lvgl/src/stdlib/builtin/lv_string_builtin.c ****         s2++;
 1064              		.loc 1 238 9 is_stmt 1 view .LVU389
 1065              		.loc 1 238 11 is_stmt 0 view .LVU390
 1066 0004 0131     		adds	r1, r1, #1
 1067              	.LVL147:
 1068              	.L77:
 236:../../Middlewares/LVGL/GUI/lvgl/src/stdlib/builtin/lv_string_builtin.c ****     while(*s1 && (*s1 == *s2)) {
 1069              		.loc 1 236 15 is_stmt 1 view .LVU391
 236:../../Middlewares/LVGL/GUI/lvgl/src/stdlib/builtin/lv_string_builtin.c ****     while(*s1 && (*s1 == *s2)) {
 1070              		.loc 1 236 11 is_stmt 0 view .LVU392
 1071 0006 0378     		ldrb	r3, [r0]	@ zero_extendqisi2
 236:../../Middlewares/LVGL/GUI/lvgl/src/stdlib/builtin/lv_string_builtin.c ****     while(*s1 && (*s1 == *s2)) {
 1072              		.loc 1 236 15 view .LVU393
 1073 0008 13B1     		cbz	r3, .L78
 236:../../Middlewares/LVGL/GUI/lvgl/src/stdlib/builtin/lv_string_builtin.c ****     while(*s1 && (*s1 == *s2)) {
 1074              		.loc 1 236 26 discriminator 1 view .LVU394
 1075 000a 0A78     		ldrb	r2, [r1]	@ zero_extendqisi2
 236:../../Middlewares/LVGL/GUI/lvgl/src/stdlib/builtin/lv_string_builtin.c ****     while(*s1 && (*s1 == *s2)) {
 1076              		.loc 1 236 15 discriminator 1 view .LVU395
ARM GAS  C:\Users\28576\AppData\Local\Temp\ccR8vQUs.s 			page 27


 1077 000c 9342     		cmp	r3, r2
 1078 000e F8D0     		beq	.L79
 1079              	.L78:
 239:../../Middlewares/LVGL/GUI/lvgl/src/stdlib/builtin/lv_string_builtin.c ****     }
 240:../../Middlewares/LVGL/GUI/lvgl/src/stdlib/builtin/lv_string_builtin.c ****     return *(const unsigned char *)s1 - *(const unsigned char *)s2;
 1080              		.loc 1 240 5 is_stmt 1 view .LVU396
 1081              		.loc 1 240 41 is_stmt 0 view .LVU397
 1082 0010 0878     		ldrb	r0, [r1]	@ zero_extendqisi2
 1083              	.LVL148:
 241:../../Middlewares/LVGL/GUI/lvgl/src/stdlib/builtin/lv_string_builtin.c **** }
 1084              		.loc 1 241 1 view .LVU398
 1085 0012 181A     		subs	r0, r3, r0
 1086 0014 7047     		bx	lr
 1087              		.cfi_endproc
 1088              	.LFE12:
 1090              		.section	.text.lv_strncmp,"ax",%progbits
 1091              		.align	1
 1092              		.global	lv_strncmp
 1093              		.syntax unified
 1094              		.thumb
 1095              		.thumb_func
 1097              	lv_strncmp:
 1098              	.LVL149:
 1099              	.LFB13:
 242:../../Middlewares/LVGL/GUI/lvgl/src/stdlib/builtin/lv_string_builtin.c **** 
 243:../../Middlewares/LVGL/GUI/lvgl/src/stdlib/builtin/lv_string_builtin.c **** int lv_strncmp(const char * s1, const char * s2, size_t len)
 244:../../Middlewares/LVGL/GUI/lvgl/src/stdlib/builtin/lv_string_builtin.c **** {
 1100              		.loc 1 244 1 is_stmt 1 view -0
 1101              		.cfi_startproc
 1102              		@ args = 0, pretend = 0, frame = 0
 1103              		@ frame_needed = 0, uses_anonymous_args = 0
 1104              		@ link register save eliminated.
 245:../../Middlewares/LVGL/GUI/lvgl/src/stdlib/builtin/lv_string_builtin.c ****     if(len == 0) {
 1105              		.loc 1 245 5 view .LVU400
 1106              		.loc 1 245 7 is_stmt 0 view .LVU401
 1107 0000 1346     		mov	r3, r2
 1108 0002 7AB1     		cbz	r2, .L87
 1109              	.LVL150:
 1110              	.L82:
 246:../../Middlewares/LVGL/GUI/lvgl/src/stdlib/builtin/lv_string_builtin.c ****         return 0;
 247:../../Middlewares/LVGL/GUI/lvgl/src/stdlib/builtin/lv_string_builtin.c ****     }
 248:../../Middlewares/LVGL/GUI/lvgl/src/stdlib/builtin/lv_string_builtin.c **** 
 249:../../Middlewares/LVGL/GUI/lvgl/src/stdlib/builtin/lv_string_builtin.c ****     while(len > 0 && *s1 && (*s1 == *s2)) {
 1111              		.loc 1 249 26 is_stmt 1 view .LVU402
 1112 0004 53B1     		cbz	r3, .L83
 1113              		.loc 1 249 22 is_stmt 0 discriminator 1 view .LVU403
 1114 0006 0278     		ldrb	r2, [r0]	@ zero_extendqisi2
 1115              		.loc 1 249 19 discriminator 1 view .LVU404
 1116 0008 42B1     		cbz	r2, .L83
 1117              		.loc 1 249 37 discriminator 2 view .LVU405
 1118 000a 91F800C0 		ldrb	ip, [r1]	@ zero_extendqisi2
 1119              		.loc 1 249 26 discriminator 2 view .LVU406
 1120 000e 6245     		cmp	r2, ip
 1121 0010 04D1     		bne	.L83
 250:../../Middlewares/LVGL/GUI/lvgl/src/stdlib/builtin/lv_string_builtin.c ****         if(--len == 0) {
 1122              		.loc 1 250 9 is_stmt 1 view .LVU407
 1123              	.LVL151:
ARM GAS  C:\Users\28576\AppData\Local\Temp\ccR8vQUs.s 			page 28


 1124              		.loc 1 250 11 is_stmt 0 view .LVU408
 1125 0012 013B     		subs	r3, r3, #1
 1126              	.LVL152:
 1127              		.loc 1 250 11 view .LVU409
 1128 0014 08D0     		beq	.L86
 251:../../Middlewares/LVGL/GUI/lvgl/src/stdlib/builtin/lv_string_builtin.c ****             return 0;
 252:../../Middlewares/LVGL/GUI/lvgl/src/stdlib/builtin/lv_string_builtin.c ****         }
 253:../../Middlewares/LVGL/GUI/lvgl/src/stdlib/builtin/lv_string_builtin.c ****         s1++;
 1129              		.loc 1 253 9 is_stmt 1 view .LVU410
 1130              		.loc 1 253 11 is_stmt 0 view .LVU411
 1131 0016 0130     		adds	r0, r0, #1
 1132              	.LVL153:
 254:../../Middlewares/LVGL/GUI/lvgl/src/stdlib/builtin/lv_string_builtin.c ****         s2++;
 1133              		.loc 1 254 9 is_stmt 1 view .LVU412
 1134              		.loc 1 254 11 is_stmt 0 view .LVU413
 1135 0018 0131     		adds	r1, r1, #1
 1136              	.LVL154:
 1137              		.loc 1 254 11 view .LVU414
 1138 001a F3E7     		b	.L82
 1139              	.LVL155:
 1140              	.L83:
 255:../../Middlewares/LVGL/GUI/lvgl/src/stdlib/builtin/lv_string_builtin.c ****     }
 256:../../Middlewares/LVGL/GUI/lvgl/src/stdlib/builtin/lv_string_builtin.c ****     return *(const unsigned char *)s1 - *(const unsigned char *)s2;
 1141              		.loc 1 256 5 is_stmt 1 view .LVU415
 1142              		.loc 1 256 12 is_stmt 0 view .LVU416
 1143 001c 0078     		ldrb	r0, [r0]	@ zero_extendqisi2
 1144              	.LVL156:
 1145              		.loc 1 256 41 view .LVU417
 1146 001e 0B78     		ldrb	r3, [r1]	@ zero_extendqisi2
 1147              	.LVL157:
 1148              		.loc 1 256 39 view .LVU418
 1149 0020 C01A     		subs	r0, r0, r3
 1150 0022 7047     		bx	lr
 1151              	.LVL158:
 1152              	.L87:
 246:../../Middlewares/LVGL/GUI/lvgl/src/stdlib/builtin/lv_string_builtin.c ****     }
 1153              		.loc 1 246 16 view .LVU419
 1154 0024 0020     		movs	r0, #0
 1155              	.LVL159:
 246:../../Middlewares/LVGL/GUI/lvgl/src/stdlib/builtin/lv_string_builtin.c ****     }
 1156              		.loc 1 246 16 view .LVU420
 1157 0026 7047     		bx	lr
 1158              	.LVL160:
 1159              	.L86:
 251:../../Middlewares/LVGL/GUI/lvgl/src/stdlib/builtin/lv_string_builtin.c ****         }
 1160              		.loc 1 251 20 view .LVU421
 1161 0028 0020     		movs	r0, #0
 1162              	.LVL161:
 257:../../Middlewares/LVGL/GUI/lvgl/src/stdlib/builtin/lv_string_builtin.c **** }
 1163              		.loc 1 257 1 view .LVU422
 1164 002a 7047     		bx	lr
 1165              		.cfi_endproc
 1166              	.LFE13:
 1168              		.section	.text.lv_strdup,"ax",%progbits
 1169              		.align	1
 1170              		.global	lv_strdup
 1171              		.syntax unified
ARM GAS  C:\Users\28576\AppData\Local\Temp\ccR8vQUs.s 			page 29


 1172              		.thumb
 1173              		.thumb_func
 1175              	lv_strdup:
 1176              	.LVL162:
 1177              	.LFB14:
 258:../../Middlewares/LVGL/GUI/lvgl/src/stdlib/builtin/lv_string_builtin.c **** 
 259:../../Middlewares/LVGL/GUI/lvgl/src/stdlib/builtin/lv_string_builtin.c **** char * lv_strdup(const char * src)
 260:../../Middlewares/LVGL/GUI/lvgl/src/stdlib/builtin/lv_string_builtin.c **** {
 1178              		.loc 1 260 1 is_stmt 1 view -0
 1179              		.cfi_startproc
 1180              		@ args = 0, pretend = 0, frame = 0
 1181              		@ frame_needed = 0, uses_anonymous_args = 0
 1182              		.loc 1 260 1 is_stmt 0 view .LVU424
 1183 0000 70B5     		push	{r4, r5, r6, lr}
 1184              	.LCFI4:
 1185              		.cfi_def_cfa_offset 16
 1186              		.cfi_offset 4, -16
 1187              		.cfi_offset 5, -12
 1188              		.cfi_offset 6, -8
 1189              		.cfi_offset 14, -4
 1190 0002 0546     		mov	r5, r0
 261:../../Middlewares/LVGL/GUI/lvgl/src/stdlib/builtin/lv_string_builtin.c ****     size_t len = lv_strlen(src) + 1;
 1191              		.loc 1 261 5 is_stmt 1 view .LVU425
 1192              		.loc 1 261 18 is_stmt 0 view .LVU426
 1193 0004 FFF7FEFF 		bl	lv_strlen
 1194              	.LVL163:
 1195              		.loc 1 261 12 discriminator 1 view .LVU427
 1196 0008 441C     		adds	r4, r0, #1
 1197              	.LVL164:
 262:../../Middlewares/LVGL/GUI/lvgl/src/stdlib/builtin/lv_string_builtin.c ****     char * dst = lv_malloc(len);
 1198              		.loc 1 262 5 is_stmt 1 view .LVU428
 1199              		.loc 1 262 18 is_stmt 0 view .LVU429
 1200 000a 2046     		mov	r0, r4
 1201 000c FFF7FEFF 		bl	lv_malloc
 1202              	.LVL165:
 263:../../Middlewares/LVGL/GUI/lvgl/src/stdlib/builtin/lv_string_builtin.c ****     if(dst == NULL) return NULL;
 1203              		.loc 1 263 5 is_stmt 1 view .LVU430
 1204              		.loc 1 263 7 is_stmt 0 view .LVU431
 1205 0010 0646     		mov	r6, r0
 1206 0012 18B1     		cbz	r0, .L88
 264:../../Middlewares/LVGL/GUI/lvgl/src/stdlib/builtin/lv_string_builtin.c **** 
 265:../../Middlewares/LVGL/GUI/lvgl/src/stdlib/builtin/lv_string_builtin.c ****     lv_memcpy(dst, src, len); /*memcpy is faster than strncpy when length is known*/
 1207              		.loc 1 265 5 is_stmt 1 view .LVU432
 1208 0014 2246     		mov	r2, r4
 1209 0016 2946     		mov	r1, r5
 1210 0018 FFF7FEFF 		bl	lv_memcpy
 1211              	.LVL166:
 266:../../Middlewares/LVGL/GUI/lvgl/src/stdlib/builtin/lv_string_builtin.c ****     return dst;
 1212              		.loc 1 266 5 view .LVU433
 1213              	.L88:
 267:../../Middlewares/LVGL/GUI/lvgl/src/stdlib/builtin/lv_string_builtin.c **** }
 1214              		.loc 1 267 1 is_stmt 0 view .LVU434
 1215 001c 3046     		mov	r0, r6
 1216 001e 70BD     		pop	{r4, r5, r6, pc}
 1217              		.loc 1 267 1 view .LVU435
 1218              		.cfi_endproc
 1219              	.LFE14:
ARM GAS  C:\Users\28576\AppData\Local\Temp\ccR8vQUs.s 			page 30


 1221              		.section	.text.lv_strndup,"ax",%progbits
 1222              		.align	1
 1223              		.global	lv_strndup
 1224              		.syntax unified
 1225              		.thumb
 1226              		.thumb_func
 1228              	lv_strndup:
 1229              	.LVL167:
 1230              	.LFB15:
 268:../../Middlewares/LVGL/GUI/lvgl/src/stdlib/builtin/lv_string_builtin.c **** 
 269:../../Middlewares/LVGL/GUI/lvgl/src/stdlib/builtin/lv_string_builtin.c **** char * lv_strndup(const char * src, size_t max_len)
 270:../../Middlewares/LVGL/GUI/lvgl/src/stdlib/builtin/lv_string_builtin.c **** {
 1231              		.loc 1 270 1 is_stmt 1 view -0
 1232              		.cfi_startproc
 1233              		@ args = 0, pretend = 0, frame = 0
 1234              		@ frame_needed = 0, uses_anonymous_args = 0
 1235              		.loc 1 270 1 is_stmt 0 view .LVU437
 1236 0000 70B5     		push	{r4, r5, r6, lr}
 1237              	.LCFI5:
 1238              		.cfi_def_cfa_offset 16
 1239              		.cfi_offset 4, -16
 1240              		.cfi_offset 5, -12
 1241              		.cfi_offset 6, -8
 1242              		.cfi_offset 14, -4
 1243 0002 0646     		mov	r6, r0
 271:../../Middlewares/LVGL/GUI/lvgl/src/stdlib/builtin/lv_string_builtin.c ****     size_t len = lv_strnlen(src, max_len);
 1244              		.loc 1 271 5 is_stmt 1 view .LVU438
 1245              		.loc 1 271 18 is_stmt 0 view .LVU439
 1246 0004 FFF7FEFF 		bl	lv_strnlen
 1247              	.LVL168:
 1248              		.loc 1 271 18 view .LVU440
 1249 0008 0446     		mov	r4, r0
 1250              	.LVL169:
 272:../../Middlewares/LVGL/GUI/lvgl/src/stdlib/builtin/lv_string_builtin.c ****     char * dst = lv_malloc(len + 1);
 1251              		.loc 1 272 5 is_stmt 1 view .LVU441
 1252              		.loc 1 272 18 is_stmt 0 view .LVU442
 1253 000a 0130     		adds	r0, r0, #1
 1254              	.LVL170:
 1255              		.loc 1 272 18 view .LVU443
 1256 000c FFF7FEFF 		bl	lv_malloc
 1257              	.LVL171:
 273:../../Middlewares/LVGL/GUI/lvgl/src/stdlib/builtin/lv_string_builtin.c ****     if(dst == NULL) return NULL;
 1258              		.loc 1 273 5 is_stmt 1 view .LVU444
 1259              		.loc 1 273 7 is_stmt 0 view .LVU445
 1260 0010 0546     		mov	r5, r0
 1261 0012 28B1     		cbz	r0, .L91
 274:../../Middlewares/LVGL/GUI/lvgl/src/stdlib/builtin/lv_string_builtin.c **** 
 275:../../Middlewares/LVGL/GUI/lvgl/src/stdlib/builtin/lv_string_builtin.c ****     lv_memcpy(dst, src, len);
 1262              		.loc 1 275 5 is_stmt 1 view .LVU446
 1263 0014 2246     		mov	r2, r4
 1264 0016 3146     		mov	r1, r6
 1265 0018 FFF7FEFF 		bl	lv_memcpy
 1266              	.LVL172:
 276:../../Middlewares/LVGL/GUI/lvgl/src/stdlib/builtin/lv_string_builtin.c ****     dst[len] = '\0';
 1267              		.loc 1 276 5 view .LVU447
 1268              		.loc 1 276 14 is_stmt 0 view .LVU448
 1269 001c 0023     		movs	r3, #0
ARM GAS  C:\Users\28576\AppData\Local\Temp\ccR8vQUs.s 			page 31


 1270 001e 2B55     		strb	r3, [r5, r4]
 277:../../Middlewares/LVGL/GUI/lvgl/src/stdlib/builtin/lv_string_builtin.c ****     return dst;
 1271              		.loc 1 277 5 is_stmt 1 view .LVU449
 1272              	.L91:
 278:../../Middlewares/LVGL/GUI/lvgl/src/stdlib/builtin/lv_string_builtin.c **** }
 1273              		.loc 1 278 1 is_stmt 0 view .LVU450
 1274 0020 2846     		mov	r0, r5
 1275 0022 70BD     		pop	{r4, r5, r6, pc}
 1276              		.loc 1 278 1 view .LVU451
 1277              		.cfi_endproc
 1278              	.LFE15:
 1280              		.section	.text.lv_strcat,"ax",%progbits
 1281              		.align	1
 1282              		.global	lv_strcat
 1283              		.syntax unified
 1284              		.thumb
 1285              		.thumb_func
 1287              	lv_strcat:
 1288              	.LVL173:
 1289              	.LFB16:
 279:../../Middlewares/LVGL/GUI/lvgl/src/stdlib/builtin/lv_string_builtin.c **** 
 280:../../Middlewares/LVGL/GUI/lvgl/src/stdlib/builtin/lv_string_builtin.c **** char * lv_strcat(char * dst, const char * src)
 281:../../Middlewares/LVGL/GUI/lvgl/src/stdlib/builtin/lv_string_builtin.c **** {
 1290              		.loc 1 281 1 is_stmt 1 view -0
 1291              		.cfi_startproc
 1292              		@ args = 0, pretend = 0, frame = 0
 1293              		@ frame_needed = 0, uses_anonymous_args = 0
 1294              		.loc 1 281 1 is_stmt 0 view .LVU453
 1295 0000 38B5     		push	{r3, r4, r5, lr}
 1296              	.LCFI6:
 1297              		.cfi_def_cfa_offset 16
 1298              		.cfi_offset 3, -16
 1299              		.cfi_offset 4, -12
 1300              		.cfi_offset 5, -8
 1301              		.cfi_offset 14, -4
 1302 0002 0446     		mov	r4, r0
 1303 0004 0D46     		mov	r5, r1
 282:../../Middlewares/LVGL/GUI/lvgl/src/stdlib/builtin/lv_string_builtin.c ****     lv_strcpy(dst + lv_strlen(dst), src);
 1304              		.loc 1 282 5 is_stmt 1 view .LVU454
 1305              		.loc 1 282 21 is_stmt 0 view .LVU455
 1306 0006 FFF7FEFF 		bl	lv_strlen
 1307              	.LVL174:
 1308              		.loc 1 282 5 discriminator 1 view .LVU456
 1309 000a 2946     		mov	r1, r5
 1310 000c 2044     		add	r0, r0, r4
 1311 000e FFF7FEFF 		bl	lv_strcpy
 1312              	.LVL175:
 283:../../Middlewares/LVGL/GUI/lvgl/src/stdlib/builtin/lv_string_builtin.c ****     return dst;
 1313              		.loc 1 283 5 is_stmt 1 view .LVU457
 284:../../Middlewares/LVGL/GUI/lvgl/src/stdlib/builtin/lv_string_builtin.c **** }
 1314              		.loc 1 284 1 is_stmt 0 view .LVU458
 1315 0012 2046     		mov	r0, r4
 1316 0014 38BD     		pop	{r3, r4, r5, pc}
 1317              		.loc 1 284 1 view .LVU459
 1318              		.cfi_endproc
 1319              	.LFE16:
 1321              		.section	.text.lv_strncat,"ax",%progbits
ARM GAS  C:\Users\28576\AppData\Local\Temp\ccR8vQUs.s 			page 32


 1322              		.align	1
 1323              		.global	lv_strncat
 1324              		.syntax unified
 1325              		.thumb
 1326              		.thumb_func
 1328              	lv_strncat:
 1329              	.LVL176:
 1330              	.LFB17:
 285:../../Middlewares/LVGL/GUI/lvgl/src/stdlib/builtin/lv_string_builtin.c **** 
 286:../../Middlewares/LVGL/GUI/lvgl/src/stdlib/builtin/lv_string_builtin.c **** char * lv_strncat(char * dst, const char * src, size_t src_len)
 287:../../Middlewares/LVGL/GUI/lvgl/src/stdlib/builtin/lv_string_builtin.c **** {
 1331              		.loc 1 287 1 is_stmt 1 view -0
 1332              		.cfi_startproc
 1333              		@ args = 0, pretend = 0, frame = 0
 1334              		@ frame_needed = 0, uses_anonymous_args = 0
 1335              		@ link register save eliminated.
 1336              		.loc 1 287 1 is_stmt 0 view .LVU461
 1337 0000 8446     		mov	ip, r0
 288:../../Middlewares/LVGL/GUI/lvgl/src/stdlib/builtin/lv_string_builtin.c ****     char * tmp = dst;
 1338              		.loc 1 288 5 is_stmt 1 view .LVU462
 1339              	.LVL177:
 289:../../Middlewares/LVGL/GUI/lvgl/src/stdlib/builtin/lv_string_builtin.c ****     while(*dst != '\0') {
 1340              		.loc 1 289 5 view .LVU463
 1341              		.loc 1 289 10 is_stmt 0 view .LVU464
 1342 0002 0346     		mov	r3, r0
 1343 0004 00E0     		b	.L97
 1344              	.LVL178:
 1345              	.L98:
 290:../../Middlewares/LVGL/GUI/lvgl/src/stdlib/builtin/lv_string_builtin.c ****         dst++;
 1346              		.loc 1 290 9 is_stmt 1 view .LVU465
 1347              		.loc 1 290 12 is_stmt 0 view .LVU466
 1348 0006 0133     		adds	r3, r3, #1
 1349              	.LVL179:
 1350              	.L97:
 289:../../Middlewares/LVGL/GUI/lvgl/src/stdlib/builtin/lv_string_builtin.c ****     while(*dst != '\0') {
 1351              		.loc 1 289 16 is_stmt 1 view .LVU467
 289:../../Middlewares/LVGL/GUI/lvgl/src/stdlib/builtin/lv_string_builtin.c ****     while(*dst != '\0') {
 1352              		.loc 1 289 11 is_stmt 0 view .LVU468
 1353 0008 1878     		ldrb	r0, [r3]	@ zero_extendqisi2
 289:../../Middlewares/LVGL/GUI/lvgl/src/stdlib/builtin/lv_string_builtin.c ****     while(*dst != '\0') {
 1354              		.loc 1 289 16 view .LVU469
 1355 000a 0028     		cmp	r0, #0
 1356 000c FBD1     		bne	.L98
 1357 000e 03E0     		b	.L99
 1358              	.L101:
 291:../../Middlewares/LVGL/GUI/lvgl/src/stdlib/builtin/lv_string_builtin.c ****     }
 292:../../Middlewares/LVGL/GUI/lvgl/src/stdlib/builtin/lv_string_builtin.c ****     while(src_len != 0 && *src != '\0') {
 293:../../Middlewares/LVGL/GUI/lvgl/src/stdlib/builtin/lv_string_builtin.c ****         src_len--;
 1359              		.loc 1 293 9 is_stmt 1 view .LVU470
 1360              		.loc 1 293 16 is_stmt 0 view .LVU471
 1361 0010 013A     		subs	r2, r2, #1
 1362              	.LVL180:
 294:../../Middlewares/LVGL/GUI/lvgl/src/stdlib/builtin/lv_string_builtin.c ****         *dst++ = *src++;
 1363              		.loc 1 294 9 is_stmt 1 view .LVU472
 1364              		.loc 1 294 22 is_stmt 0 view .LVU473
 1365 0012 0131     		adds	r1, r1, #1
 1366              	.LVL181:
ARM GAS  C:\Users\28576\AppData\Local\Temp\ccR8vQUs.s 			page 33


 1367              		.loc 1 294 16 view .LVU474
 1368 0014 03F8010B 		strb	r0, [r3], #1
 1369              	.LVL182:
 1370              	.L99:
 292:../../Middlewares/LVGL/GUI/lvgl/src/stdlib/builtin/lv_string_builtin.c ****         src_len--;
 1371              		.loc 1 292 24 is_stmt 1 view .LVU475
 1372 0018 12B1     		cbz	r2, .L100
 292:../../Middlewares/LVGL/GUI/lvgl/src/stdlib/builtin/lv_string_builtin.c ****         src_len--;
 1373              		.loc 1 292 27 is_stmt 0 discriminator 1 view .LVU476
 1374 001a 0878     		ldrb	r0, [r1]	@ zero_extendqisi2
 292:../../Middlewares/LVGL/GUI/lvgl/src/stdlib/builtin/lv_string_builtin.c ****         src_len--;
 1375              		.loc 1 292 24 discriminator 1 view .LVU477
 1376 001c 0028     		cmp	r0, #0
 1377 001e F7D1     		bne	.L101
 1378              	.L100:
 295:../../Middlewares/LVGL/GUI/lvgl/src/stdlib/builtin/lv_string_builtin.c ****     }
 296:../../Middlewares/LVGL/GUI/lvgl/src/stdlib/builtin/lv_string_builtin.c ****     *dst = '\0';
 1379              		.loc 1 296 5 is_stmt 1 view .LVU478
 1380              		.loc 1 296 10 is_stmt 0 view .LVU479
 1381 0020 0022     		movs	r2, #0
 1382              	.LVL183:
 1383              		.loc 1 296 10 view .LVU480
 1384 0022 1A70     		strb	r2, [r3]
 297:../../Middlewares/LVGL/GUI/lvgl/src/stdlib/builtin/lv_string_builtin.c ****     return tmp;
 1385              		.loc 1 297 5 is_stmt 1 view .LVU481
 298:../../Middlewares/LVGL/GUI/lvgl/src/stdlib/builtin/lv_string_builtin.c **** }
 1386              		.loc 1 298 1 is_stmt 0 view .LVU482
 1387 0024 6046     		mov	r0, ip
 1388 0026 7047     		bx	lr
 1389              		.cfi_endproc
 1390              	.LFE17:
 1392              		.section	.text.lv_strchr,"ax",%progbits
 1393              		.align	1
 1394              		.global	lv_strchr
 1395              		.syntax unified
 1396              		.thumb
 1397              		.thumb_func
 1399              	lv_strchr:
 1400              	.LFB18:
 299:../../Middlewares/LVGL/GUI/lvgl/src/stdlib/builtin/lv_string_builtin.c **** 
 300:../../Middlewares/LVGL/GUI/lvgl/src/stdlib/builtin/lv_string_builtin.c **** char * lv_strchr(const char * s, int c)
 301:../../Middlewares/LVGL/GUI/lvgl/src/stdlib/builtin/lv_string_builtin.c **** {
 1401              		.loc 1 301 1 is_stmt 1 view -0
 1402              		.cfi_startproc
 1403              		@ args = 0, pretend = 0, frame = 0
 1404              		@ frame_needed = 0, uses_anonymous_args = 0
 1405              		@ link register save eliminated.
 1406              	.LVL184:
 1407              		.loc 1 301 1 is_stmt 0 view .LVU484
 1408 0000 00E0     		b	.L104
 1409              	.L106:
 302:../../Middlewares/LVGL/GUI/lvgl/src/stdlib/builtin/lv_string_builtin.c ****     for(; ; s++) {
 1410              		.loc 1 302 14 is_stmt 1 view .LVU485
 1411 0002 0130     		adds	r0, r0, #1
 1412              	.LVL185:
 1413              		.loc 1 302 5 view .LVU486
 1414              	.L104:
ARM GAS  C:\Users\28576\AppData\Local\Temp\ccR8vQUs.s 			page 34


 1415              		.loc 1 302 5 view .LVU487
 303:../../Middlewares/LVGL/GUI/lvgl/src/stdlib/builtin/lv_string_builtin.c ****         if(*s == c) {
 1416              		.loc 1 303 9 view .LVU488
 1417              		.loc 1 303 12 is_stmt 0 view .LVU489
 1418 0004 0378     		ldrb	r3, [r0]	@ zero_extendqisi2
 1419              		.loc 1 303 11 view .LVU490
 1420 0006 8B42     		cmp	r3, r1
 1421 0008 02D0     		beq	.L103
 304:../../Middlewares/LVGL/GUI/lvgl/src/stdlib/builtin/lv_string_builtin.c ****             return (char *)s;
 305:../../Middlewares/LVGL/GUI/lvgl/src/stdlib/builtin/lv_string_builtin.c ****         }
 306:../../Middlewares/LVGL/GUI/lvgl/src/stdlib/builtin/lv_string_builtin.c **** 
 307:../../Middlewares/LVGL/GUI/lvgl/src/stdlib/builtin/lv_string_builtin.c ****         if(*s == '\0') {
 1422              		.loc 1 307 9 is_stmt 1 view .LVU491
 1423              		.loc 1 307 11 is_stmt 0 view .LVU492
 1424 000a 002B     		cmp	r3, #0
 1425 000c F9D1     		bne	.L106
 308:../../Middlewares/LVGL/GUI/lvgl/src/stdlib/builtin/lv_string_builtin.c ****             break;
 309:../../Middlewares/LVGL/GUI/lvgl/src/stdlib/builtin/lv_string_builtin.c ****         }
 310:../../Middlewares/LVGL/GUI/lvgl/src/stdlib/builtin/lv_string_builtin.c ****     }
 311:../../Middlewares/LVGL/GUI/lvgl/src/stdlib/builtin/lv_string_builtin.c **** 
 312:../../Middlewares/LVGL/GUI/lvgl/src/stdlib/builtin/lv_string_builtin.c ****     return NULL;
 1426              		.loc 1 312 12 view .LVU493
 1427 000e 1846     		mov	r0, r3
 1428              	.LVL186:
 1429              	.L103:
 313:../../Middlewares/LVGL/GUI/lvgl/src/stdlib/builtin/lv_string_builtin.c **** }
 1430              		.loc 1 313 1 view .LVU494
 1431 0010 7047     		bx	lr
 1432              		.cfi_endproc
 1433              	.LFE18:
 1435              		.text
 1436              	.Letext0:
 1437              		.file 2 "C:/Users/28576/AppData/Roaming/xPacks/@xpack-dev-tools/arm-none-eabi-gcc/15.2.1-1.1.1/.co
 1438              		.file 3 "C:/Users/28576/AppData/Roaming/xPacks/@xpack-dev-tools/arm-none-eabi-gcc/15.2.1-1.1.1/.co
 1439              		.file 4 "C:/Users/28576/AppData/Roaming/xPacks/@xpack-dev-tools/arm-none-eabi-gcc/15.2.1-1.1.1/.co
 1440              		.file 5 "H:/STM32H7/RGB_LVGL/Middlewares/LVGL/GUI/lvgl/src/misc/lv_types.h"
 1441              		.file 6 "H:/STM32H7/RGB_LVGL/Middlewares/LVGL/GUI/lvgl/src/stdlib/lv_mem.h"
ARM GAS  C:\Users\28576\AppData\Local\Temp\ccR8vQUs.s 			page 35

