ARM GAS  C:\Users\28576\AppData\Local\Temp\ccMimN1K.s 			page 1


   1              		.cpu cortex-m7
   2              		.arch armv7e-m
   3              		.fpu fpv5-d16
   4              		.eabi_attribute 28, 1
   5              		.eabi_attribute 20, 1
   6              		.eabi_attribute 21, 1
   7              		.eabi_attribute 23, 3
   8              		.eabi_attribute 24, 1
   9              		.eabi_attribute 25, 1
  10              		.eabi_attribute 26, 1
  11              		.eabi_attribute 30, 1
  12              		.eabi_attribute 34, 1
  13              		.eabi_attribute 18, 4
  14              		.file	"lv_text.c"
  15              		.text
  16              	.Ltext0:
  17              		.cfi_sections	.debug_frame
  18              		.file 1 "../../Middlewares/LVGL/GUI/lvgl/src/misc/lv_text.c"
  19              		.section	.text.lv_text_is_a_word,"ax",%progbits
  20              		.align	1
  21              		.syntax unified
  22              		.thumb
  23              		.thumb_func
  25              	lv_text_is_a_word:
  26              	.LVL0:
  27              	.LFB6:
  28              		.file 2 "../../Middlewares/LVGL/GUI/lvgl/src/misc/lv_text_private.h"
   1:../../Middlewares/LVGL/GUI/lvgl/src/misc/lv_text_private.h **** /**
   2:../../Middlewares/LVGL/GUI/lvgl/src/misc/lv_text_private.h ****  * @file lv_text_private.h
   3:../../Middlewares/LVGL/GUI/lvgl/src/misc/lv_text_private.h ****  *
   4:../../Middlewares/LVGL/GUI/lvgl/src/misc/lv_text_private.h ****  */
   5:../../Middlewares/LVGL/GUI/lvgl/src/misc/lv_text_private.h **** 
   6:../../Middlewares/LVGL/GUI/lvgl/src/misc/lv_text_private.h **** #ifndef LV_TEXT_PRIVATE_H
   7:../../Middlewares/LVGL/GUI/lvgl/src/misc/lv_text_private.h **** #define LV_TEXT_PRIVATE_H
   8:../../Middlewares/LVGL/GUI/lvgl/src/misc/lv_text_private.h **** 
   9:../../Middlewares/LVGL/GUI/lvgl/src/misc/lv_text_private.h **** #ifdef __cplusplus
  10:../../Middlewares/LVGL/GUI/lvgl/src/misc/lv_text_private.h **** extern "C" {
  11:../../Middlewares/LVGL/GUI/lvgl/src/misc/lv_text_private.h **** #endif
  12:../../Middlewares/LVGL/GUI/lvgl/src/misc/lv_text_private.h **** 
  13:../../Middlewares/LVGL/GUI/lvgl/src/misc/lv_text_private.h **** /*********************
  14:../../Middlewares/LVGL/GUI/lvgl/src/misc/lv_text_private.h ****  *      INCLUDES
  15:../../Middlewares/LVGL/GUI/lvgl/src/misc/lv_text_private.h ****  *********************/
  16:../../Middlewares/LVGL/GUI/lvgl/src/misc/lv_text_private.h **** 
  17:../../Middlewares/LVGL/GUI/lvgl/src/misc/lv_text_private.h **** #include "lv_text.h"
  18:../../Middlewares/LVGL/GUI/lvgl/src/misc/lv_text_private.h **** 
  19:../../Middlewares/LVGL/GUI/lvgl/src/misc/lv_text_private.h **** /*********************
  20:../../Middlewares/LVGL/GUI/lvgl/src/misc/lv_text_private.h ****  *      DEFINES
  21:../../Middlewares/LVGL/GUI/lvgl/src/misc/lv_text_private.h ****  *********************/
  22:../../Middlewares/LVGL/GUI/lvgl/src/misc/lv_text_private.h **** 
  23:../../Middlewares/LVGL/GUI/lvgl/src/misc/lv_text_private.h **** /**********************
  24:../../Middlewares/LVGL/GUI/lvgl/src/misc/lv_text_private.h ****  *      TYPEDEFS
  25:../../Middlewares/LVGL/GUI/lvgl/src/misc/lv_text_private.h ****  **********************/
  26:../../Middlewares/LVGL/GUI/lvgl/src/misc/lv_text_private.h **** 
  27:../../Middlewares/LVGL/GUI/lvgl/src/misc/lv_text_private.h **** /**********************
  28:../../Middlewares/LVGL/GUI/lvgl/src/misc/lv_text_private.h ****  * GLOBAL PROTOTYPES
  29:../../Middlewares/LVGL/GUI/lvgl/src/misc/lv_text_private.h ****  **********************/
  30:../../Middlewares/LVGL/GUI/lvgl/src/misc/lv_text_private.h **** 
ARM GAS  C:\Users\28576\AppData\Local\Temp\ccMimN1K.s 			page 2


  31:../../Middlewares/LVGL/GUI/lvgl/src/misc/lv_text_private.h **** /**
  32:../../Middlewares/LVGL/GUI/lvgl/src/misc/lv_text_private.h ****  * Get the next line of text. Check line length and break chars too.
  33:../../Middlewares/LVGL/GUI/lvgl/src/misc/lv_text_private.h ****  * @param txt a '\0' terminated string
  34:../../Middlewares/LVGL/GUI/lvgl/src/misc/lv_text_private.h ****  * @param len length of 'txt' in bytes
  35:../../Middlewares/LVGL/GUI/lvgl/src/misc/lv_text_private.h ****  * @param font pointer to a font
  36:../../Middlewares/LVGL/GUI/lvgl/src/misc/lv_text_private.h ****  * @param letter_space letter space
  37:../../Middlewares/LVGL/GUI/lvgl/src/misc/lv_text_private.h ****  * @param max_width max width of the text (break the lines to fit this size). Set COORD_MAX to avoi
  38:../../Middlewares/LVGL/GUI/lvgl/src/misc/lv_text_private.h ****  * line breaks
  39:../../Middlewares/LVGL/GUI/lvgl/src/misc/lv_text_private.h ****  * @param used_width When used_width != NULL, save the width of this line if
  40:../../Middlewares/LVGL/GUI/lvgl/src/misc/lv_text_private.h ****  * flag == LV_TEXT_FLAG_NONE, otherwise save -1.
  41:../../Middlewares/LVGL/GUI/lvgl/src/misc/lv_text_private.h ****  * @param flag settings for the text from 'txt_flag_type' enum
  42:../../Middlewares/LVGL/GUI/lvgl/src/misc/lv_text_private.h ****  * @return the index of the first char of the new line (in byte index not letter index. With UTF-8
  43:../../Middlewares/LVGL/GUI/lvgl/src/misc/lv_text_private.h ****  * they are different)
  44:../../Middlewares/LVGL/GUI/lvgl/src/misc/lv_text_private.h ****  */
  45:../../Middlewares/LVGL/GUI/lvgl/src/misc/lv_text_private.h **** uint32_t lv_text_get_next_line(const char * txt, uint32_t len, const lv_font_t * font, int32_t lett
  46:../../Middlewares/LVGL/GUI/lvgl/src/misc/lv_text_private.h ****                                int32_t max_width, int32_t * used_width, lv_text_flag_t flag);
  47:../../Middlewares/LVGL/GUI/lvgl/src/misc/lv_text_private.h **** 
  48:../../Middlewares/LVGL/GUI/lvgl/src/misc/lv_text_private.h **** /**
  49:../../Middlewares/LVGL/GUI/lvgl/src/misc/lv_text_private.h ****  * Insert a string into another
  50:../../Middlewares/LVGL/GUI/lvgl/src/misc/lv_text_private.h ****  * @param txt_buf the original text (must be big enough for the result text and NULL terminated)
  51:../../Middlewares/LVGL/GUI/lvgl/src/misc/lv_text_private.h ****  * @param pos position to insert (0: before the original text, 1: after the first char etc.)
  52:../../Middlewares/LVGL/GUI/lvgl/src/misc/lv_text_private.h ****  * @param ins_txt text to insert, must be '\0' terminated
  53:../../Middlewares/LVGL/GUI/lvgl/src/misc/lv_text_private.h ****  */
  54:../../Middlewares/LVGL/GUI/lvgl/src/misc/lv_text_private.h **** void lv_text_ins(char * txt_buf, uint32_t pos, const char * ins_txt);
  55:../../Middlewares/LVGL/GUI/lvgl/src/misc/lv_text_private.h **** 
  56:../../Middlewares/LVGL/GUI/lvgl/src/misc/lv_text_private.h **** /**
  57:../../Middlewares/LVGL/GUI/lvgl/src/misc/lv_text_private.h ****  * Delete a part of a string
  58:../../Middlewares/LVGL/GUI/lvgl/src/misc/lv_text_private.h ****  * @param txt string to modify, must be '\0' terminated and should point to a heap or stack frame, 
  59:../../Middlewares/LVGL/GUI/lvgl/src/misc/lv_text_private.h ****  * @param pos position where to start the deleting (0: before the first char, 1: after the first
  60:../../Middlewares/LVGL/GUI/lvgl/src/misc/lv_text_private.h ****  * char etc.)
  61:../../Middlewares/LVGL/GUI/lvgl/src/misc/lv_text_private.h ****  * @param len number of characters to delete
  62:../../Middlewares/LVGL/GUI/lvgl/src/misc/lv_text_private.h ****  */
  63:../../Middlewares/LVGL/GUI/lvgl/src/misc/lv_text_private.h **** void lv_text_cut(char * txt, uint32_t pos, uint32_t len);
  64:../../Middlewares/LVGL/GUI/lvgl/src/misc/lv_text_private.h **** 
  65:../../Middlewares/LVGL/GUI/lvgl/src/misc/lv_text_private.h **** /**
  66:../../Middlewares/LVGL/GUI/lvgl/src/misc/lv_text_private.h ****  * return a new formatted text. Memory will be allocated to store the text.
  67:../../Middlewares/LVGL/GUI/lvgl/src/misc/lv_text_private.h ****  * @param fmt `printf`-like format
  68:../../Middlewares/LVGL/GUI/lvgl/src/misc/lv_text_private.h ****  * @param ap items to print
  69:../../Middlewares/LVGL/GUI/lvgl/src/misc/lv_text_private.h **** 
  70:../../Middlewares/LVGL/GUI/lvgl/src/misc/lv_text_private.h ****  * @return pointer to the allocated text string.
  71:../../Middlewares/LVGL/GUI/lvgl/src/misc/lv_text_private.h ****  */
  72:../../Middlewares/LVGL/GUI/lvgl/src/misc/lv_text_private.h **** char * lv_text_set_text_vfmt(const char * fmt, va_list ap) LV_FORMAT_ATTRIBUTE(1, 0);
  73:../../Middlewares/LVGL/GUI/lvgl/src/misc/lv_text_private.h **** 
  74:../../Middlewares/LVGL/GUI/lvgl/src/misc/lv_text_private.h **** /**
  75:../../Middlewares/LVGL/GUI/lvgl/src/misc/lv_text_private.h ****  * Decode two encoded character from a string.
  76:../../Middlewares/LVGL/GUI/lvgl/src/misc/lv_text_private.h ****  * @param txt pointer to '\0' terminated string
  77:../../Middlewares/LVGL/GUI/lvgl/src/misc/lv_text_private.h ****  * @param letter the first decoded Unicode character or 0 on invalid data code
  78:../../Middlewares/LVGL/GUI/lvgl/src/misc/lv_text_private.h ****  * @param letter_next the second decoded Unicode character or 0 on invalid data code
  79:../../Middlewares/LVGL/GUI/lvgl/src/misc/lv_text_private.h ****  * @param ofs start index in 'txt' where to start.
  80:../../Middlewares/LVGL/GUI/lvgl/src/misc/lv_text_private.h ****  *                After the call it will point to the next encoded char in 'txt'.
  81:../../Middlewares/LVGL/GUI/lvgl/src/misc/lv_text_private.h ****  *                NULL to use txt[0] as index
  82:../../Middlewares/LVGL/GUI/lvgl/src/misc/lv_text_private.h ****  */
  83:../../Middlewares/LVGL/GUI/lvgl/src/misc/lv_text_private.h **** void lv_text_encoded_letter_next_2(const char * txt, uint32_t * letter, uint32_t * letter_next, uin
  84:../../Middlewares/LVGL/GUI/lvgl/src/misc/lv_text_private.h **** 
  85:../../Middlewares/LVGL/GUI/lvgl/src/misc/lv_text_private.h **** /**
  86:../../Middlewares/LVGL/GUI/lvgl/src/misc/lv_text_private.h ****  * Test if char is break char or not (a text can broken here or not)
  87:../../Middlewares/LVGL/GUI/lvgl/src/misc/lv_text_private.h ****  * @param letter a letter
ARM GAS  C:\Users\28576\AppData\Local\Temp\ccMimN1K.s 			page 3


  88:../../Middlewares/LVGL/GUI/lvgl/src/misc/lv_text_private.h ****  * @return false: 'letter' is not break char
  89:../../Middlewares/LVGL/GUI/lvgl/src/misc/lv_text_private.h ****  */
  90:../../Middlewares/LVGL/GUI/lvgl/src/misc/lv_text_private.h **** static inline bool lv_text_is_break_char(uint32_t letter)
  91:../../Middlewares/LVGL/GUI/lvgl/src/misc/lv_text_private.h **** {
  92:../../Middlewares/LVGL/GUI/lvgl/src/misc/lv_text_private.h ****     uint8_t i;
  93:../../Middlewares/LVGL/GUI/lvgl/src/misc/lv_text_private.h ****     bool ret = false;
  94:../../Middlewares/LVGL/GUI/lvgl/src/misc/lv_text_private.h **** 
  95:../../Middlewares/LVGL/GUI/lvgl/src/misc/lv_text_private.h ****     /*Compare the letter to TXT_BREAK_CHARS*/
  96:../../Middlewares/LVGL/GUI/lvgl/src/misc/lv_text_private.h ****     for(i = 0; LV_TXT_BREAK_CHARS[i] != '\0'; i++) {
  97:../../Middlewares/LVGL/GUI/lvgl/src/misc/lv_text_private.h ****         if(letter == (uint32_t)LV_TXT_BREAK_CHARS[i]) {
  98:../../Middlewares/LVGL/GUI/lvgl/src/misc/lv_text_private.h ****             ret = true; /*If match then it is break char*/
  99:../../Middlewares/LVGL/GUI/lvgl/src/misc/lv_text_private.h ****             break;
 100:../../Middlewares/LVGL/GUI/lvgl/src/misc/lv_text_private.h ****         }
 101:../../Middlewares/LVGL/GUI/lvgl/src/misc/lv_text_private.h ****     }
 102:../../Middlewares/LVGL/GUI/lvgl/src/misc/lv_text_private.h **** 
 103:../../Middlewares/LVGL/GUI/lvgl/src/misc/lv_text_private.h ****     return ret;
 104:../../Middlewares/LVGL/GUI/lvgl/src/misc/lv_text_private.h **** }
 105:../../Middlewares/LVGL/GUI/lvgl/src/misc/lv_text_private.h **** 
 106:../../Middlewares/LVGL/GUI/lvgl/src/misc/lv_text_private.h **** /**
 107:../../Middlewares/LVGL/GUI/lvgl/src/misc/lv_text_private.h ****  * Test if char is break char or not (a text can broken here or not)
 108:../../Middlewares/LVGL/GUI/lvgl/src/misc/lv_text_private.h ****  * @param letter a letter
 109:../../Middlewares/LVGL/GUI/lvgl/src/misc/lv_text_private.h ****  * @return false: 'letter' is not break char
 110:../../Middlewares/LVGL/GUI/lvgl/src/misc/lv_text_private.h ****  */
 111:../../Middlewares/LVGL/GUI/lvgl/src/misc/lv_text_private.h **** static inline bool lv_text_is_a_word(uint32_t letter)
 112:../../Middlewares/LVGL/GUI/lvgl/src/misc/lv_text_private.h **** {
  29              		.loc 2 112 1 view -0
  30              		.cfi_startproc
  31              		@ args = 0, pretend = 0, frame = 0
  32              		@ frame_needed = 0, uses_anonymous_args = 0
  33              		@ link register save eliminated.
 113:../../Middlewares/LVGL/GUI/lvgl/src/misc/lv_text_private.h ****     /*Cheap check on invalid letter*/
 114:../../Middlewares/LVGL/GUI/lvgl/src/misc/lv_text_private.h ****     if(letter == 0) return false;
  34              		.loc 2 114 5 view .LVU1
  35              		.loc 2 114 7 is_stmt 0 view .LVU2
  36 0000 90B3     		cbz	r0, .L2
 115:../../Middlewares/LVGL/GUI/lvgl/src/misc/lv_text_private.h **** 
 116:../../Middlewares/LVGL/GUI/lvgl/src/misc/lv_text_private.h ****     /*CJK Unified Ideographs*/
 117:../../Middlewares/LVGL/GUI/lvgl/src/misc/lv_text_private.h ****     if(letter >= 0x4E00 && letter <= 0x9FFF) {
  37              		.loc 2 117 5 is_stmt 1 view .LVU3
  38              		.loc 2 117 25 is_stmt 0 view .LVU4
  39 0002 A0F59C42 		sub	r2, r0, #19968
  40              		.loc 2 117 7 view .LVU5
  41 0006 B2F5A44F 		cmp	r2, #20992
  42 000a 1ED3     		bcc	.L4
 118:../../Middlewares/LVGL/GUI/lvgl/src/misc/lv_text_private.h ****         return true;
 119:../../Middlewares/LVGL/GUI/lvgl/src/misc/lv_text_private.h ****     }
 120:../../Middlewares/LVGL/GUI/lvgl/src/misc/lv_text_private.h **** 
 121:../../Middlewares/LVGL/GUI/lvgl/src/misc/lv_text_private.h ****     /*Fullwidth ASCII variants*/
 122:../../Middlewares/LVGL/GUI/lvgl/src/misc/lv_text_private.h ****     if(letter >= 0xFF01 && letter <= 0xFF5E) {
  43              		.loc 2 122 5 is_stmt 1 view .LVU6
  44              		.loc 2 122 25 is_stmt 0 view .LVU7
  45 000c 6FF47F42 		mvn	r2, #65280
  46 0010 0244     		add	r2, r2, r0
  47              		.loc 2 122 7 view .LVU8
  48 0012 5D2A     		cmp	r2, #93
  49 0014 1BD9     		bls	.L5
 123:../../Middlewares/LVGL/GUI/lvgl/src/misc/lv_text_private.h ****         return true;
ARM GAS  C:\Users\28576\AppData\Local\Temp\ccMimN1K.s 			page 4


 124:../../Middlewares/LVGL/GUI/lvgl/src/misc/lv_text_private.h ****     }
 125:../../Middlewares/LVGL/GUI/lvgl/src/misc/lv_text_private.h **** 
 126:../../Middlewares/LVGL/GUI/lvgl/src/misc/lv_text_private.h ****     /*CJK symbols and punctuation*/
 127:../../Middlewares/LVGL/GUI/lvgl/src/misc/lv_text_private.h ****     if(letter >= 0x3000 && letter <= 0x303F) {
  50              		.loc 2 127 5 is_stmt 1 view .LVU9
  51              		.loc 2 127 25 is_stmt 0 view .LVU10
  52 0016 A0F54052 		sub	r2, r0, #12288
  53              		.loc 2 127 7 view .LVU11
  54 001a 3F2A     		cmp	r2, #63
  55 001c 19D9     		bls	.L6
 128:../../Middlewares/LVGL/GUI/lvgl/src/misc/lv_text_private.h ****         return true;
 129:../../Middlewares/LVGL/GUI/lvgl/src/misc/lv_text_private.h ****     }
 130:../../Middlewares/LVGL/GUI/lvgl/src/misc/lv_text_private.h **** 
 131:../../Middlewares/LVGL/GUI/lvgl/src/misc/lv_text_private.h ****     /*CJK Radicals Supplement*/
 132:../../Middlewares/LVGL/GUI/lvgl/src/misc/lv_text_private.h ****     if(letter >= 0x2E80 && letter <= 0x2EFF) {
  56              		.loc 2 132 5 is_stmt 1 view .LVU12
  57              		.loc 2 132 25 is_stmt 0 view .LVU13
  58 001e A0F53A52 		sub	r2, r0, #11904
  59              		.loc 2 132 7 view .LVU14
  60 0022 7F2A     		cmp	r2, #127
  61 0024 17D9     		bls	.L7
 133:../../Middlewares/LVGL/GUI/lvgl/src/misc/lv_text_private.h ****         return true;
 134:../../Middlewares/LVGL/GUI/lvgl/src/misc/lv_text_private.h ****     }
 135:../../Middlewares/LVGL/GUI/lvgl/src/misc/lv_text_private.h **** 
 136:../../Middlewares/LVGL/GUI/lvgl/src/misc/lv_text_private.h ****     /*CJK Strokes*/
 137:../../Middlewares/LVGL/GUI/lvgl/src/misc/lv_text_private.h ****     if(letter >= 0x31C0 && letter <= 0x31EF) {
  62              		.loc 2 137 5 is_stmt 1 view .LVU15
  63              		.loc 2 137 25 is_stmt 0 view .LVU16
  64 0026 A0F54752 		sub	r2, r0, #12736
  65              		.loc 2 137 7 view .LVU17
  66 002a 2F2A     		cmp	r2, #47
  67 002c 15D9     		bls	.L8
 138:../../Middlewares/LVGL/GUI/lvgl/src/misc/lv_text_private.h ****         return true;
 139:../../Middlewares/LVGL/GUI/lvgl/src/misc/lv_text_private.h ****     }
 140:../../Middlewares/LVGL/GUI/lvgl/src/misc/lv_text_private.h **** 
 141:../../Middlewares/LVGL/GUI/lvgl/src/misc/lv_text_private.h ****     /*Hiragana and Katakana*/
 142:../../Middlewares/LVGL/GUI/lvgl/src/misc/lv_text_private.h ****     if(letter >= 0x3040 && letter <= 0x30FF) {
  68              		.loc 2 142 5 is_stmt 1 view .LVU18
  69              		.loc 2 142 25 is_stmt 0 view .LVU19
  70 002e A0F54152 		sub	r2, r0, #12352
  71              		.loc 2 142 7 view .LVU20
  72 0032 BF2A     		cmp	r2, #191
  73 0034 13D9     		bls	.L9
 143:../../Middlewares/LVGL/GUI/lvgl/src/misc/lv_text_private.h ****         return true;
 144:../../Middlewares/LVGL/GUI/lvgl/src/misc/lv_text_private.h ****     }
 145:../../Middlewares/LVGL/GUI/lvgl/src/misc/lv_text_private.h **** 
 146:../../Middlewares/LVGL/GUI/lvgl/src/misc/lv_text_private.h ****     /*Chinese Vertical Forms*/
 147:../../Middlewares/LVGL/GUI/lvgl/src/misc/lv_text_private.h ****     if(letter >= 0xFE10 && letter <= 0xFE1F) {
  74              		.loc 2 147 5 is_stmt 1 view .LVU21
  75              		.loc 2 147 25 is_stmt 0 view .LVU22
  76 0036 0D4A     		ldr	r2, .L12
  77 0038 0244     		add	r2, r2, r0
  78              		.loc 2 147 7 view .LVU23
  79 003a 0F2A     		cmp	r2, #15
  80 003c 11D9     		bls	.L10
 148:../../Middlewares/LVGL/GUI/lvgl/src/misc/lv_text_private.h ****         return true;
 149:../../Middlewares/LVGL/GUI/lvgl/src/misc/lv_text_private.h ****     }
ARM GAS  C:\Users\28576\AppData\Local\Temp\ccMimN1K.s 			page 5


 150:../../Middlewares/LVGL/GUI/lvgl/src/misc/lv_text_private.h **** 
 151:../../Middlewares/LVGL/GUI/lvgl/src/misc/lv_text_private.h ****     /*CJK Compatibility Forms*/
 152:../../Middlewares/LVGL/GUI/lvgl/src/misc/lv_text_private.h ****     if(letter >= 0xFE30 && letter <= 0xFE4F) {
  81              		.loc 2 152 5 is_stmt 1 view .LVU24
  82              		.loc 2 152 25 is_stmt 0 view .LVU25
  83 003e 0C4A     		ldr	r2, .L12+4
  84 0040 0244     		add	r2, r2, r0
  85              		.loc 2 152 7 view .LVU26
  86 0042 1F2A     		cmp	r2, #31
  87 0044 0FD9     		bls	.L11
 153:../../Middlewares/LVGL/GUI/lvgl/src/misc/lv_text_private.h ****         return true;
 154:../../Middlewares/LVGL/GUI/lvgl/src/misc/lv_text_private.h ****     }
 155:../../Middlewares/LVGL/GUI/lvgl/src/misc/lv_text_private.h **** 
 156:../../Middlewares/LVGL/GUI/lvgl/src/misc/lv_text_private.h ****     return false;
  88              		.loc 2 156 12 view .LVU27
  89 0046 0020     		movs	r0, #0
  90              	.LVL1:
  91              		.loc 2 156 12 view .LVU28
  92 0048 7047     		bx	lr
  93              	.LVL2:
  94              	.L4:
 118:../../Middlewares/LVGL/GUI/lvgl/src/misc/lv_text_private.h ****     }
  95              		.loc 2 118 16 view .LVU29
  96 004a 0120     		movs	r0, #1
  97              	.LVL3:
 118:../../Middlewares/LVGL/GUI/lvgl/src/misc/lv_text_private.h ****     }
  98              		.loc 2 118 16 view .LVU30
  99 004c 7047     		bx	lr
 100              	.LVL4:
 101              	.L5:
 123:../../Middlewares/LVGL/GUI/lvgl/src/misc/lv_text_private.h ****     }
 102              		.loc 2 123 16 view .LVU31
 103 004e 0120     		movs	r0, #1
 104              	.LVL5:
 123:../../Middlewares/LVGL/GUI/lvgl/src/misc/lv_text_private.h ****     }
 105              		.loc 2 123 16 view .LVU32
 106 0050 7047     		bx	lr
 107              	.LVL6:
 108              	.L6:
 128:../../Middlewares/LVGL/GUI/lvgl/src/misc/lv_text_private.h ****     }
 109              		.loc 2 128 16 view .LVU33
 110 0052 0120     		movs	r0, #1
 111              	.LVL7:
 128:../../Middlewares/LVGL/GUI/lvgl/src/misc/lv_text_private.h ****     }
 112              		.loc 2 128 16 view .LVU34
 113 0054 7047     		bx	lr
 114              	.LVL8:
 115              	.L7:
 133:../../Middlewares/LVGL/GUI/lvgl/src/misc/lv_text_private.h ****     }
 116              		.loc 2 133 16 view .LVU35
 117 0056 0120     		movs	r0, #1
 118              	.LVL9:
 133:../../Middlewares/LVGL/GUI/lvgl/src/misc/lv_text_private.h ****     }
 119              		.loc 2 133 16 view .LVU36
 120 0058 7047     		bx	lr
 121              	.LVL10:
 122              	.L8:
ARM GAS  C:\Users\28576\AppData\Local\Temp\ccMimN1K.s 			page 6


 138:../../Middlewares/LVGL/GUI/lvgl/src/misc/lv_text_private.h ****     }
 123              		.loc 2 138 16 view .LVU37
 124 005a 0120     		movs	r0, #1
 125              	.LVL11:
 138:../../Middlewares/LVGL/GUI/lvgl/src/misc/lv_text_private.h ****     }
 126              		.loc 2 138 16 view .LVU38
 127 005c 7047     		bx	lr
 128              	.LVL12:
 129              	.L9:
 143:../../Middlewares/LVGL/GUI/lvgl/src/misc/lv_text_private.h ****     }
 130              		.loc 2 143 16 view .LVU39
 131 005e 0120     		movs	r0, #1
 132              	.LVL13:
 143:../../Middlewares/LVGL/GUI/lvgl/src/misc/lv_text_private.h ****     }
 133              		.loc 2 143 16 view .LVU40
 134 0060 7047     		bx	lr
 135              	.LVL14:
 136              	.L10:
 148:../../Middlewares/LVGL/GUI/lvgl/src/misc/lv_text_private.h ****     }
 137              		.loc 2 148 16 view .LVU41
 138 0062 0120     		movs	r0, #1
 139              	.LVL15:
 148:../../Middlewares/LVGL/GUI/lvgl/src/misc/lv_text_private.h ****     }
 140              		.loc 2 148 16 view .LVU42
 141 0064 7047     		bx	lr
 142              	.LVL16:
 143              	.L11:
 153:../../Middlewares/LVGL/GUI/lvgl/src/misc/lv_text_private.h ****     }
 144              		.loc 2 153 16 view .LVU43
 145 0066 0120     		movs	r0, #1
 146              	.LVL17:
 147              	.L2:
 157:../../Middlewares/LVGL/GUI/lvgl/src/misc/lv_text_private.h **** }
 148              		.loc 2 157 1 view .LVU44
 149 0068 7047     		bx	lr
 150              	.L13:
 151 006a 00BF     		.align	2
 152              	.L12:
 153 006c F001FFFF 		.word	-65040
 154 0070 D001FFFF 		.word	-65072
 155              		.cfi_endproc
 156              	.LFE6:
 158              		.section	.text.lv_text_utf8_size,"ax",%progbits
 159              		.align	1
 160              		.syntax unified
 161              		.thumb
 162              		.thumb_func
 164              	lv_text_utf8_size:
 165              	.LVL18:
 166              	.LFB32:
   1:../../Middlewares/LVGL/GUI/lvgl/src/misc/lv_text.c **** /**
   2:../../Middlewares/LVGL/GUI/lvgl/src/misc/lv_text.c ****  * @file lv_text.c
   3:../../Middlewares/LVGL/GUI/lvgl/src/misc/lv_text.c ****  *
   4:../../Middlewares/LVGL/GUI/lvgl/src/misc/lv_text.c ****  */
   5:../../Middlewares/LVGL/GUI/lvgl/src/misc/lv_text.c **** 
   6:../../Middlewares/LVGL/GUI/lvgl/src/misc/lv_text.c **** /*********************
   7:../../Middlewares/LVGL/GUI/lvgl/src/misc/lv_text.c ****  *      INCLUDES
ARM GAS  C:\Users\28576\AppData\Local\Temp\ccMimN1K.s 			page 7


   8:../../Middlewares/LVGL/GUI/lvgl/src/misc/lv_text.c ****  *********************/
   9:../../Middlewares/LVGL/GUI/lvgl/src/misc/lv_text.c **** #include "lv_text_private.h"
  10:../../Middlewares/LVGL/GUI/lvgl/src/misc/lv_text.c **** #include "lv_text_ap.h"
  11:../../Middlewares/LVGL/GUI/lvgl/src/misc/lv_text.c **** #include "lv_math.h"
  12:../../Middlewares/LVGL/GUI/lvgl/src/misc/lv_text.c **** #include "lv_log.h"
  13:../../Middlewares/LVGL/GUI/lvgl/src/misc/lv_text.c **** #include "lv_assert.h"
  14:../../Middlewares/LVGL/GUI/lvgl/src/misc/lv_text.c **** #include "../stdlib/lv_mem.h"
  15:../../Middlewares/LVGL/GUI/lvgl/src/misc/lv_text.c **** #include "../stdlib/lv_string.h"
  16:../../Middlewares/LVGL/GUI/lvgl/src/misc/lv_text.c **** #include "../misc/lv_types.h"
  17:../../Middlewares/LVGL/GUI/lvgl/src/misc/lv_text.c **** 
  18:../../Middlewares/LVGL/GUI/lvgl/src/misc/lv_text.c **** /*********************
  19:../../Middlewares/LVGL/GUI/lvgl/src/misc/lv_text.c ****  *      DEFINES
  20:../../Middlewares/LVGL/GUI/lvgl/src/misc/lv_text.c ****  *********************/
  21:../../Middlewares/LVGL/GUI/lvgl/src/misc/lv_text.c **** #define NO_BREAK_FOUND UINT32_MAX
  22:../../Middlewares/LVGL/GUI/lvgl/src/misc/lv_text.c **** 
  23:../../Middlewares/LVGL/GUI/lvgl/src/misc/lv_text.c **** /**********************
  24:../../Middlewares/LVGL/GUI/lvgl/src/misc/lv_text.c ****  *      TYPEDEFS
  25:../../Middlewares/LVGL/GUI/lvgl/src/misc/lv_text.c ****  **********************/
  26:../../Middlewares/LVGL/GUI/lvgl/src/misc/lv_text.c **** 
  27:../../Middlewares/LVGL/GUI/lvgl/src/misc/lv_text.c **** /**********************
  28:../../Middlewares/LVGL/GUI/lvgl/src/misc/lv_text.c ****  *  STATIC PROTOTYPES
  29:../../Middlewares/LVGL/GUI/lvgl/src/misc/lv_text.c ****  **********************/
  30:../../Middlewares/LVGL/GUI/lvgl/src/misc/lv_text.c **** 
  31:../../Middlewares/LVGL/GUI/lvgl/src/misc/lv_text.c **** #if LV_TXT_ENC == LV_TXT_ENC_UTF8
  32:../../Middlewares/LVGL/GUI/lvgl/src/misc/lv_text.c ****     static uint8_t lv_text_utf8_size(const char * str);
  33:../../Middlewares/LVGL/GUI/lvgl/src/misc/lv_text.c ****     static uint32_t lv_text_unicode_to_utf8(uint32_t letter_uni);
  34:../../Middlewares/LVGL/GUI/lvgl/src/misc/lv_text.c ****     static uint32_t lv_text_utf8_conv_wc(uint32_t c);
  35:../../Middlewares/LVGL/GUI/lvgl/src/misc/lv_text.c ****     static uint32_t lv_text_utf8_next(const char * txt, uint32_t * i);
  36:../../Middlewares/LVGL/GUI/lvgl/src/misc/lv_text.c ****     static uint32_t lv_text_utf8_prev(const char * txt, uint32_t * i_start);
  37:../../Middlewares/LVGL/GUI/lvgl/src/misc/lv_text.c ****     static uint32_t lv_text_utf8_get_byte_id(const char * txt, uint32_t utf8_id);
  38:../../Middlewares/LVGL/GUI/lvgl/src/misc/lv_text.c ****     static uint32_t lv_text_utf8_get_char_id(const char * txt, uint32_t byte_id);
  39:../../Middlewares/LVGL/GUI/lvgl/src/misc/lv_text.c ****     static uint32_t lv_text_utf8_get_length(const char * txt);
  40:../../Middlewares/LVGL/GUI/lvgl/src/misc/lv_text.c **** #elif LV_TXT_ENC == LV_TXT_ENC_ASCII
  41:../../Middlewares/LVGL/GUI/lvgl/src/misc/lv_text.c ****     static uint8_t lv_text_iso8859_1_size(const char * str);
  42:../../Middlewares/LVGL/GUI/lvgl/src/misc/lv_text.c ****     static uint32_t lv_text_unicode_to_iso8859_1(uint32_t letter_uni);
  43:../../Middlewares/LVGL/GUI/lvgl/src/misc/lv_text.c ****     static uint32_t lv_text_iso8859_1_conv_wc(uint32_t c);
  44:../../Middlewares/LVGL/GUI/lvgl/src/misc/lv_text.c ****     static uint32_t lv_text_iso8859_1_next(const char * txt, uint32_t * i);
  45:../../Middlewares/LVGL/GUI/lvgl/src/misc/lv_text.c ****     static uint32_t lv_text_iso8859_1_prev(const char * txt, uint32_t * i_start);
  46:../../Middlewares/LVGL/GUI/lvgl/src/misc/lv_text.c ****     static uint32_t lv_text_iso8859_1_get_byte_id(const char * txt, uint32_t utf8_id);
  47:../../Middlewares/LVGL/GUI/lvgl/src/misc/lv_text.c ****     static uint32_t lv_text_iso8859_1_get_char_id(const char * txt, uint32_t byte_id);
  48:../../Middlewares/LVGL/GUI/lvgl/src/misc/lv_text.c ****     static uint32_t lv_text_iso8859_1_get_length(const char * txt);
  49:../../Middlewares/LVGL/GUI/lvgl/src/misc/lv_text.c **** #endif
  50:../../Middlewares/LVGL/GUI/lvgl/src/misc/lv_text.c **** /**********************
  51:../../Middlewares/LVGL/GUI/lvgl/src/misc/lv_text.c ****  *  STATIC VARIABLES
  52:../../Middlewares/LVGL/GUI/lvgl/src/misc/lv_text.c ****  **********************/
  53:../../Middlewares/LVGL/GUI/lvgl/src/misc/lv_text.c **** 
  54:../../Middlewares/LVGL/GUI/lvgl/src/misc/lv_text.c **** /**********************
  55:../../Middlewares/LVGL/GUI/lvgl/src/misc/lv_text.c ****  *  GLOBAL VARIABLES
  56:../../Middlewares/LVGL/GUI/lvgl/src/misc/lv_text.c ****  **********************/
  57:../../Middlewares/LVGL/GUI/lvgl/src/misc/lv_text.c **** #if LV_TXT_ENC == LV_TXT_ENC_UTF8
  58:../../Middlewares/LVGL/GUI/lvgl/src/misc/lv_text.c ****     uint8_t (*const lv_text_encoded_size)(const char *)                   = lv_text_utf8_size;
  59:../../Middlewares/LVGL/GUI/lvgl/src/misc/lv_text.c ****     uint32_t (*const lv_text_unicode_to_encoded)(uint32_t)                = lv_text_unicode_to_utf8
  60:../../Middlewares/LVGL/GUI/lvgl/src/misc/lv_text.c ****     uint32_t (*const lv_text_encoded_conv_wc)(uint32_t)                   = lv_text_utf8_conv_wc;
  61:../../Middlewares/LVGL/GUI/lvgl/src/misc/lv_text.c ****     uint32_t (*const lv_text_encoded_next)(const char *, uint32_t *)      = lv_text_utf8_next;
  62:../../Middlewares/LVGL/GUI/lvgl/src/misc/lv_text.c ****     uint32_t (*const lv_text_encoded_prev)(const char *, uint32_t *)      = lv_text_utf8_prev;
  63:../../Middlewares/LVGL/GUI/lvgl/src/misc/lv_text.c ****     uint32_t (*const lv_text_encoded_get_byte_id)(const char *, uint32_t) = lv_text_utf8_get_byte_i
  64:../../Middlewares/LVGL/GUI/lvgl/src/misc/lv_text.c ****     uint32_t (*const lv_text_encoded_get_char_id)(const char *, uint32_t) = lv_text_utf8_get_char_i
ARM GAS  C:\Users\28576\AppData\Local\Temp\ccMimN1K.s 			page 8


  65:../../Middlewares/LVGL/GUI/lvgl/src/misc/lv_text.c ****     uint32_t (*const lv_text_get_encoded_length)(const char *)            = lv_text_utf8_get_length
  66:../../Middlewares/LVGL/GUI/lvgl/src/misc/lv_text.c **** #elif LV_TXT_ENC == LV_TXT_ENC_ASCII
  67:../../Middlewares/LVGL/GUI/lvgl/src/misc/lv_text.c ****     uint8_t (*const lv_text_encoded_size)(const char *)                   = lv_text_iso8859_1_size;
  68:../../Middlewares/LVGL/GUI/lvgl/src/misc/lv_text.c ****     uint32_t (*const lv_text_unicode_to_encoded)(uint32_t)                = lv_text_unicode_to_iso8
  69:../../Middlewares/LVGL/GUI/lvgl/src/misc/lv_text.c ****     uint32_t (*const lv_text_encoded_conv_wc)(uint32_t)                   = lv_text_iso8859_1_conv_
  70:../../Middlewares/LVGL/GUI/lvgl/src/misc/lv_text.c ****     uint32_t (*const lv_text_encoded_next)(const char *, uint32_t *)      = lv_text_iso8859_1_next;
  71:../../Middlewares/LVGL/GUI/lvgl/src/misc/lv_text.c ****     uint32_t (*const lv_text_encoded_prev)(const char *, uint32_t *)      = lv_text_iso8859_1_prev;
  72:../../Middlewares/LVGL/GUI/lvgl/src/misc/lv_text.c ****     uint32_t (*const lv_text_encoded_get_byte_id)(const char *, uint32_t) = lv_text_iso8859_1_get_b
  73:../../Middlewares/LVGL/GUI/lvgl/src/misc/lv_text.c ****     uint32_t (*const lv_text_encoded_get_char_id)(const char *, uint32_t)     = lv_text_iso8859_1_g
  74:../../Middlewares/LVGL/GUI/lvgl/src/misc/lv_text.c ****     uint32_t (*const lv_text_get_encoded_length)(const char *)            = lv_text_iso8859_1_get_l
  75:../../Middlewares/LVGL/GUI/lvgl/src/misc/lv_text.c **** 
  76:../../Middlewares/LVGL/GUI/lvgl/src/misc/lv_text.c **** #endif
  77:../../Middlewares/LVGL/GUI/lvgl/src/misc/lv_text.c **** 
  78:../../Middlewares/LVGL/GUI/lvgl/src/misc/lv_text.c **** /**********************
  79:../../Middlewares/LVGL/GUI/lvgl/src/misc/lv_text.c ****  *      MACROS
  80:../../Middlewares/LVGL/GUI/lvgl/src/misc/lv_text.c ****  **********************/
  81:../../Middlewares/LVGL/GUI/lvgl/src/misc/lv_text.c **** 
  82:../../Middlewares/LVGL/GUI/lvgl/src/misc/lv_text.c **** #define LV_IS_ASCII(value)              ((value & 0x80U) == 0x00U)
  83:../../Middlewares/LVGL/GUI/lvgl/src/misc/lv_text.c **** #define LV_IS_2BYTES_UTF8_CODE(value)   ((value & 0xE0U) == 0xC0U)
  84:../../Middlewares/LVGL/GUI/lvgl/src/misc/lv_text.c **** #define LV_IS_3BYTES_UTF8_CODE(value)   ((value & 0xF0U) == 0xE0U)
  85:../../Middlewares/LVGL/GUI/lvgl/src/misc/lv_text.c **** #define LV_IS_4BYTES_UTF8_CODE(value)   ((value & 0xF8U) == 0xF0U)
  86:../../Middlewares/LVGL/GUI/lvgl/src/misc/lv_text.c **** #define LV_IS_INVALID_UTF8_CODE(value)  ((value & 0xC0U) != 0x80U)
  87:../../Middlewares/LVGL/GUI/lvgl/src/misc/lv_text.c **** 
  88:../../Middlewares/LVGL/GUI/lvgl/src/misc/lv_text.c **** /**********************
  89:../../Middlewares/LVGL/GUI/lvgl/src/misc/lv_text.c ****  *   GLOBAL FUNCTIONS
  90:../../Middlewares/LVGL/GUI/lvgl/src/misc/lv_text.c ****  **********************/
  91:../../Middlewares/LVGL/GUI/lvgl/src/misc/lv_text.c **** 
  92:../../Middlewares/LVGL/GUI/lvgl/src/misc/lv_text.c **** void lv_text_get_size(lv_point_t * size_res, const char * text, const lv_font_t * font, int32_t let
  93:../../Middlewares/LVGL/GUI/lvgl/src/misc/lv_text.c ****                       int32_t line_space, int32_t max_width, lv_text_flag_t flag)
  94:../../Middlewares/LVGL/GUI/lvgl/src/misc/lv_text.c **** {
  95:../../Middlewares/LVGL/GUI/lvgl/src/misc/lv_text.c ****     size_res->x = 0;
  96:../../Middlewares/LVGL/GUI/lvgl/src/misc/lv_text.c ****     size_res->y = 0;
  97:../../Middlewares/LVGL/GUI/lvgl/src/misc/lv_text.c **** 
  98:../../Middlewares/LVGL/GUI/lvgl/src/misc/lv_text.c ****     if(text == NULL) return;
  99:../../Middlewares/LVGL/GUI/lvgl/src/misc/lv_text.c ****     if(font == NULL) return;
 100:../../Middlewares/LVGL/GUI/lvgl/src/misc/lv_text.c **** 
 101:../../Middlewares/LVGL/GUI/lvgl/src/misc/lv_text.c ****     if(flag & LV_TEXT_FLAG_EXPAND) max_width = LV_COORD_MAX;
 102:../../Middlewares/LVGL/GUI/lvgl/src/misc/lv_text.c **** 
 103:../../Middlewares/LVGL/GUI/lvgl/src/misc/lv_text.c ****     uint32_t line_start     = 0;
 104:../../Middlewares/LVGL/GUI/lvgl/src/misc/lv_text.c ****     uint32_t new_line_start = 0;
 105:../../Middlewares/LVGL/GUI/lvgl/src/misc/lv_text.c ****     uint16_t letter_height = lv_font_get_line_height(font);
 106:../../Middlewares/LVGL/GUI/lvgl/src/misc/lv_text.c **** 
 107:../../Middlewares/LVGL/GUI/lvgl/src/misc/lv_text.c ****     /*Calc. the height and longest line*/
 108:../../Middlewares/LVGL/GUI/lvgl/src/misc/lv_text.c ****     while(text[line_start] != '\0') {
 109:../../Middlewares/LVGL/GUI/lvgl/src/misc/lv_text.c ****         new_line_start += lv_text_get_next_line(&text[line_start], LV_TEXT_LEN_MAX, font, letter_sp
 110:../../Middlewares/LVGL/GUI/lvgl/src/misc/lv_text.c **** 
 111:../../Middlewares/LVGL/GUI/lvgl/src/misc/lv_text.c ****         if((unsigned long)size_res->y + (unsigned long)letter_height + (unsigned long)line_space > 
 112:../../Middlewares/LVGL/GUI/lvgl/src/misc/lv_text.c ****             LV_LOG_WARN("integer overflow while calculating text height");
 113:../../Middlewares/LVGL/GUI/lvgl/src/misc/lv_text.c ****             return;
 114:../../Middlewares/LVGL/GUI/lvgl/src/misc/lv_text.c ****         }
 115:../../Middlewares/LVGL/GUI/lvgl/src/misc/lv_text.c ****         else {
 116:../../Middlewares/LVGL/GUI/lvgl/src/misc/lv_text.c ****             size_res->y += letter_height;
 117:../../Middlewares/LVGL/GUI/lvgl/src/misc/lv_text.c ****             size_res->y += line_space;
 118:../../Middlewares/LVGL/GUI/lvgl/src/misc/lv_text.c ****         }
 119:../../Middlewares/LVGL/GUI/lvgl/src/misc/lv_text.c **** 
 120:../../Middlewares/LVGL/GUI/lvgl/src/misc/lv_text.c ****         /*Calculate the longest line*/
 121:../../Middlewares/LVGL/GUI/lvgl/src/misc/lv_text.c ****         int32_t act_line_length = lv_text_get_width_with_flags(&text[line_start], new_line_start - 
ARM GAS  C:\Users\28576\AppData\Local\Temp\ccMimN1K.s 			page 9


 122:../../Middlewares/LVGL/GUI/lvgl/src/misc/lv_text.c ****                                                                letter_space, flag);
 123:../../Middlewares/LVGL/GUI/lvgl/src/misc/lv_text.c **** 
 124:../../Middlewares/LVGL/GUI/lvgl/src/misc/lv_text.c ****         size_res->x = LV_MAX(act_line_length, size_res->x);
 125:../../Middlewares/LVGL/GUI/lvgl/src/misc/lv_text.c ****         line_start  = new_line_start;
 126:../../Middlewares/LVGL/GUI/lvgl/src/misc/lv_text.c ****     }
 127:../../Middlewares/LVGL/GUI/lvgl/src/misc/lv_text.c **** 
 128:../../Middlewares/LVGL/GUI/lvgl/src/misc/lv_text.c ****     /*Make the text one line taller if the last character is '\n' or '\r'*/
 129:../../Middlewares/LVGL/GUI/lvgl/src/misc/lv_text.c ****     if((line_start != 0) && (text[line_start - 1] == '\n' || text[line_start - 1] == '\r')) {
 130:../../Middlewares/LVGL/GUI/lvgl/src/misc/lv_text.c ****         size_res->y += letter_height + line_space;
 131:../../Middlewares/LVGL/GUI/lvgl/src/misc/lv_text.c ****     }
 132:../../Middlewares/LVGL/GUI/lvgl/src/misc/lv_text.c **** 
 133:../../Middlewares/LVGL/GUI/lvgl/src/misc/lv_text.c ****     /*Correction with the last line space or set the height manually if the text is empty*/
 134:../../Middlewares/LVGL/GUI/lvgl/src/misc/lv_text.c ****     if(size_res->y == 0)
 135:../../Middlewares/LVGL/GUI/lvgl/src/misc/lv_text.c ****         size_res->y = letter_height;
 136:../../Middlewares/LVGL/GUI/lvgl/src/misc/lv_text.c ****     else
 137:../../Middlewares/LVGL/GUI/lvgl/src/misc/lv_text.c ****         size_res->y -= line_space;
 138:../../Middlewares/LVGL/GUI/lvgl/src/misc/lv_text.c **** }
 139:../../Middlewares/LVGL/GUI/lvgl/src/misc/lv_text.c **** 
 140:../../Middlewares/LVGL/GUI/lvgl/src/misc/lv_text.c **** bool lv_text_is_cmd(lv_text_cmd_state_t * state, uint32_t c)
 141:../../Middlewares/LVGL/GUI/lvgl/src/misc/lv_text.c **** {
 142:../../Middlewares/LVGL/GUI/lvgl/src/misc/lv_text.c ****     bool ret = false;
 143:../../Middlewares/LVGL/GUI/lvgl/src/misc/lv_text.c **** 
 144:../../Middlewares/LVGL/GUI/lvgl/src/misc/lv_text.c ****     if(c == (uint32_t)LV_TXT_COLOR_CMD[0]) {
 145:../../Middlewares/LVGL/GUI/lvgl/src/misc/lv_text.c ****         if(*state == LV_TEXT_CMD_STATE_WAIT) { /*Start char*/
 146:../../Middlewares/LVGL/GUI/lvgl/src/misc/lv_text.c ****             *state = LV_TEXT_CMD_STATE_PAR;
 147:../../Middlewares/LVGL/GUI/lvgl/src/misc/lv_text.c ****             ret = true;
 148:../../Middlewares/LVGL/GUI/lvgl/src/misc/lv_text.c ****         }
 149:../../Middlewares/LVGL/GUI/lvgl/src/misc/lv_text.c ****         /*Other start char in parameter is escaped cmd. char*/
 150:../../Middlewares/LVGL/GUI/lvgl/src/misc/lv_text.c ****         else if(*state == LV_TEXT_CMD_STATE_WAIT) {
 151:../../Middlewares/LVGL/GUI/lvgl/src/misc/lv_text.c ****             *state = LV_TEXT_CMD_STATE_WAIT;
 152:../../Middlewares/LVGL/GUI/lvgl/src/misc/lv_text.c ****         }
 153:../../Middlewares/LVGL/GUI/lvgl/src/misc/lv_text.c ****         /*Command end*/
 154:../../Middlewares/LVGL/GUI/lvgl/src/misc/lv_text.c ****         else if(*state == LV_TEXT_CMD_STATE_IN) {
 155:../../Middlewares/LVGL/GUI/lvgl/src/misc/lv_text.c ****             *state = LV_TEXT_CMD_STATE_WAIT;
 156:../../Middlewares/LVGL/GUI/lvgl/src/misc/lv_text.c ****             ret = true;
 157:../../Middlewares/LVGL/GUI/lvgl/src/misc/lv_text.c ****         }
 158:../../Middlewares/LVGL/GUI/lvgl/src/misc/lv_text.c ****     }
 159:../../Middlewares/LVGL/GUI/lvgl/src/misc/lv_text.c **** 
 160:../../Middlewares/LVGL/GUI/lvgl/src/misc/lv_text.c ****     /*Skip the color parameter and wait the space after it*/
 161:../../Middlewares/LVGL/GUI/lvgl/src/misc/lv_text.c ****     if(*state == LV_TEXT_CMD_STATE_PAR) {
 162:../../Middlewares/LVGL/GUI/lvgl/src/misc/lv_text.c ****         if(c == ' ') {
 163:../../Middlewares/LVGL/GUI/lvgl/src/misc/lv_text.c ****             *state = LV_TEXT_CMD_STATE_IN; /*After the parameter the text is in the command*/
 164:../../Middlewares/LVGL/GUI/lvgl/src/misc/lv_text.c ****         }
 165:../../Middlewares/LVGL/GUI/lvgl/src/misc/lv_text.c ****         ret = true;
 166:../../Middlewares/LVGL/GUI/lvgl/src/misc/lv_text.c ****     }
 167:../../Middlewares/LVGL/GUI/lvgl/src/misc/lv_text.c **** 
 168:../../Middlewares/LVGL/GUI/lvgl/src/misc/lv_text.c ****     return ret;
 169:../../Middlewares/LVGL/GUI/lvgl/src/misc/lv_text.c **** }
 170:../../Middlewares/LVGL/GUI/lvgl/src/misc/lv_text.c **** 
 171:../../Middlewares/LVGL/GUI/lvgl/src/misc/lv_text.c **** /**
 172:../../Middlewares/LVGL/GUI/lvgl/src/misc/lv_text.c ****  * Get the next word of text. A word is delimited by break characters.
 173:../../Middlewares/LVGL/GUI/lvgl/src/misc/lv_text.c ****  *
 174:../../Middlewares/LVGL/GUI/lvgl/src/misc/lv_text.c ****  * If the word cannot fit in the max_width space, obey LV_TXT_LINE_BREAK_LONG_* rules.
 175:../../Middlewares/LVGL/GUI/lvgl/src/misc/lv_text.c ****  *
 176:../../Middlewares/LVGL/GUI/lvgl/src/misc/lv_text.c ****  * If the next word cannot fit anything, return 0.
 177:../../Middlewares/LVGL/GUI/lvgl/src/misc/lv_text.c ****  *
 178:../../Middlewares/LVGL/GUI/lvgl/src/misc/lv_text.c ****  * If the first character is a break character, returns the next index.
ARM GAS  C:\Users\28576\AppData\Local\Temp\ccMimN1K.s 			page 10


 179:../../Middlewares/LVGL/GUI/lvgl/src/misc/lv_text.c ****  *
 180:../../Middlewares/LVGL/GUI/lvgl/src/misc/lv_text.c ****  * Example calls from lv_text_get_next_line() assuming sufficient max_width and
 181:../../Middlewares/LVGL/GUI/lvgl/src/misc/lv_text.c ****  * txt = "Test text\n"
 182:../../Middlewares/LVGL/GUI/lvgl/src/misc/lv_text.c ****  *        0123456789
 183:../../Middlewares/LVGL/GUI/lvgl/src/misc/lv_text.c ****  *
 184:../../Middlewares/LVGL/GUI/lvgl/src/misc/lv_text.c ****  * Calls would be as follows:
 185:../../Middlewares/LVGL/GUI/lvgl/src/misc/lv_text.c ****  *     1. Return i=4, pointing at breakchar ' ', for the string "Test"
 186:../../Middlewares/LVGL/GUI/lvgl/src/misc/lv_text.c ****  *     2. Return i=5, since i=4 was a breakchar.
 187:../../Middlewares/LVGL/GUI/lvgl/src/misc/lv_text.c ****  *     3. Return i=9, pointing at breakchar '\n'
 188:../../Middlewares/LVGL/GUI/lvgl/src/misc/lv_text.c ****  *     4. Parenting lv_text_get_next_line() would detect subsequent '\0'
 189:../../Middlewares/LVGL/GUI/lvgl/src/misc/lv_text.c ****  *
 190:../../Middlewares/LVGL/GUI/lvgl/src/misc/lv_text.c ****  * TODO: Returned word_w_ptr may overestimate the returned word's width when
 191:../../Middlewares/LVGL/GUI/lvgl/src/misc/lv_text.c ****  * max_width is reached. In current usage, this has no impact.
 192:../../Middlewares/LVGL/GUI/lvgl/src/misc/lv_text.c ****  *
 193:../../Middlewares/LVGL/GUI/lvgl/src/misc/lv_text.c ****  * @param txt a '\0' terminated string
 194:../../Middlewares/LVGL/GUI/lvgl/src/misc/lv_text.c ****  * @param font pointer to a font
 195:../../Middlewares/LVGL/GUI/lvgl/src/misc/lv_text.c ****  * @param letter_space letter space
 196:../../Middlewares/LVGL/GUI/lvgl/src/misc/lv_text.c ****  * @param max_width max width of the text (break the lines to fit this size). Set COORD_MAX to avoi
 197:../../Middlewares/LVGL/GUI/lvgl/src/misc/lv_text.c ****  * @param flags settings for the text from 'txt_flag_type' enum
 198:../../Middlewares/LVGL/GUI/lvgl/src/misc/lv_text.c ****  * @param[out] word_w_ptr width (in pixels) of the parsed word. May be NULL.
 199:../../Middlewares/LVGL/GUI/lvgl/src/misc/lv_text.c ****  * @param cmd_state Pointer to a lv_text_cmd_state_t variable which stored the current state of com
 200:../../Middlewares/LVGL/GUI/lvgl/src/misc/lv_text.c ****  * @return the index of the first char of the next word (in byte index not letter index. With UTF-8
 201:../../Middlewares/LVGL/GUI/lvgl/src/misc/lv_text.c ****  */
 202:../../Middlewares/LVGL/GUI/lvgl/src/misc/lv_text.c **** static uint32_t lv_text_get_next_word(const char * txt, const lv_font_t * font,
 203:../../Middlewares/LVGL/GUI/lvgl/src/misc/lv_text.c ****                                       int32_t letter_space, int32_t max_width,
 204:../../Middlewares/LVGL/GUI/lvgl/src/misc/lv_text.c ****                                       lv_text_flag_t flag, uint32_t * word_w_ptr,
 205:../../Middlewares/LVGL/GUI/lvgl/src/misc/lv_text.c ****                                       lv_text_cmd_state_t * cmd_state)
 206:../../Middlewares/LVGL/GUI/lvgl/src/misc/lv_text.c **** {
 207:../../Middlewares/LVGL/GUI/lvgl/src/misc/lv_text.c ****     if(txt == NULL || txt[0] == '\0') return 0;
 208:../../Middlewares/LVGL/GUI/lvgl/src/misc/lv_text.c ****     if(font == NULL) return 0;
 209:../../Middlewares/LVGL/GUI/lvgl/src/misc/lv_text.c **** 
 210:../../Middlewares/LVGL/GUI/lvgl/src/misc/lv_text.c ****     if(flag & LV_TEXT_FLAG_EXPAND) max_width = LV_COORD_MAX;
 211:../../Middlewares/LVGL/GUI/lvgl/src/misc/lv_text.c **** 
 212:../../Middlewares/LVGL/GUI/lvgl/src/misc/lv_text.c ****     uint32_t i = 0, i_next = 0, i_next_next = 0;  /*Iterating index into txt*/
 213:../../Middlewares/LVGL/GUI/lvgl/src/misc/lv_text.c ****     uint32_t letter = 0;      /*Letter at i*/
 214:../../Middlewares/LVGL/GUI/lvgl/src/misc/lv_text.c ****     uint32_t letter_next = 0; /*Letter at i_next*/
 215:../../Middlewares/LVGL/GUI/lvgl/src/misc/lv_text.c ****     int32_t letter_w;
 216:../../Middlewares/LVGL/GUI/lvgl/src/misc/lv_text.c ****     int32_t cur_w = 0;  /*Pixel Width of traversed string*/
 217:../../Middlewares/LVGL/GUI/lvgl/src/misc/lv_text.c ****     uint32_t word_len = 0;   /*Number of characters in the traversed word*/
 218:../../Middlewares/LVGL/GUI/lvgl/src/misc/lv_text.c ****     uint32_t break_index = NO_BREAK_FOUND; /*only used for "long" words*/
 219:../../Middlewares/LVGL/GUI/lvgl/src/misc/lv_text.c ****     uint32_t break_letter_count = 0; /*Number of characters up to the long word break point*/
 220:../../Middlewares/LVGL/GUI/lvgl/src/misc/lv_text.c **** 
 221:../../Middlewares/LVGL/GUI/lvgl/src/misc/lv_text.c ****     letter = lv_text_encoded_next(txt, &i_next);
 222:../../Middlewares/LVGL/GUI/lvgl/src/misc/lv_text.c ****     i_next_next = i_next;
 223:../../Middlewares/LVGL/GUI/lvgl/src/misc/lv_text.c **** 
 224:../../Middlewares/LVGL/GUI/lvgl/src/misc/lv_text.c ****     /*Obtain the full word, regardless if it fits or not in max_width*/
 225:../../Middlewares/LVGL/GUI/lvgl/src/misc/lv_text.c ****     while(txt[i] != '\0') {
 226:../../Middlewares/LVGL/GUI/lvgl/src/misc/lv_text.c ****         letter_next = lv_text_encoded_next(txt, &i_next_next);
 227:../../Middlewares/LVGL/GUI/lvgl/src/misc/lv_text.c ****         word_len++;
 228:../../Middlewares/LVGL/GUI/lvgl/src/misc/lv_text.c **** 
 229:../../Middlewares/LVGL/GUI/lvgl/src/misc/lv_text.c ****         /*Handle the recolor command*/
 230:../../Middlewares/LVGL/GUI/lvgl/src/misc/lv_text.c ****         if((flag & LV_TEXT_FLAG_RECOLOR) != 0) {
 231:../../Middlewares/LVGL/GUI/lvgl/src/misc/lv_text.c ****             if(lv_text_is_cmd(cmd_state, letter)) {
 232:../../Middlewares/LVGL/GUI/lvgl/src/misc/lv_text.c ****                 i = i_next;
 233:../../Middlewares/LVGL/GUI/lvgl/src/misc/lv_text.c ****                 i_next = i_next_next;
 234:../../Middlewares/LVGL/GUI/lvgl/src/misc/lv_text.c ****                 letter = letter_next;
 235:../../Middlewares/LVGL/GUI/lvgl/src/misc/lv_text.c ****                 continue;   /*Skip the letter if it is part of a command*/
ARM GAS  C:\Users\28576\AppData\Local\Temp\ccMimN1K.s 			page 11


 236:../../Middlewares/LVGL/GUI/lvgl/src/misc/lv_text.c ****             }
 237:../../Middlewares/LVGL/GUI/lvgl/src/misc/lv_text.c ****         }
 238:../../Middlewares/LVGL/GUI/lvgl/src/misc/lv_text.c **** 
 239:../../Middlewares/LVGL/GUI/lvgl/src/misc/lv_text.c ****         letter_w = lv_font_get_glyph_width(font, letter, letter_next);
 240:../../Middlewares/LVGL/GUI/lvgl/src/misc/lv_text.c ****         cur_w += letter_w;
 241:../../Middlewares/LVGL/GUI/lvgl/src/misc/lv_text.c **** 
 242:../../Middlewares/LVGL/GUI/lvgl/src/misc/lv_text.c ****         if(letter_w > 0) {
 243:../../Middlewares/LVGL/GUI/lvgl/src/misc/lv_text.c ****             cur_w += letter_space;
 244:../../Middlewares/LVGL/GUI/lvgl/src/misc/lv_text.c ****         }
 245:../../Middlewares/LVGL/GUI/lvgl/src/misc/lv_text.c **** 
 246:../../Middlewares/LVGL/GUI/lvgl/src/misc/lv_text.c ****         /*Test if this character fits within max_width*/
 247:../../Middlewares/LVGL/GUI/lvgl/src/misc/lv_text.c ****         if(break_index == NO_BREAK_FOUND && (cur_w - letter_space) > max_width) {
 248:../../Middlewares/LVGL/GUI/lvgl/src/misc/lv_text.c ****             break_index = i;
 249:../../Middlewares/LVGL/GUI/lvgl/src/misc/lv_text.c ****             break_letter_count = word_len - 1;
 250:../../Middlewares/LVGL/GUI/lvgl/src/misc/lv_text.c ****             if(flag & LV_TEXT_FLAG_BREAK_ALL) {
 251:../../Middlewares/LVGL/GUI/lvgl/src/misc/lv_text.c ****                 break;
 252:../../Middlewares/LVGL/GUI/lvgl/src/misc/lv_text.c ****             }
 253:../../Middlewares/LVGL/GUI/lvgl/src/misc/lv_text.c ****             /*break_index is now pointing at the character that doesn't fit*/
 254:../../Middlewares/LVGL/GUI/lvgl/src/misc/lv_text.c ****         }
 255:../../Middlewares/LVGL/GUI/lvgl/src/misc/lv_text.c **** 
 256:../../Middlewares/LVGL/GUI/lvgl/src/misc/lv_text.c ****         /*Check for new line chars and breakchars*/
 257:../../Middlewares/LVGL/GUI/lvgl/src/misc/lv_text.c ****         if(letter == '\n' || letter == '\r' || lv_text_is_break_char(letter)) {
 258:../../Middlewares/LVGL/GUI/lvgl/src/misc/lv_text.c ****             /*Update the output width on the first character if it fits.
 259:../../Middlewares/LVGL/GUI/lvgl/src/misc/lv_text.c ****              *Must do this here in case first letter is a break character.*/
 260:../../Middlewares/LVGL/GUI/lvgl/src/misc/lv_text.c ****             if(i == 0 && break_index == NO_BREAK_FOUND && word_w_ptr != NULL) *word_w_ptr = cur_w;
 261:../../Middlewares/LVGL/GUI/lvgl/src/misc/lv_text.c ****             word_len--;
 262:../../Middlewares/LVGL/GUI/lvgl/src/misc/lv_text.c ****             break;
 263:../../Middlewares/LVGL/GUI/lvgl/src/misc/lv_text.c ****         }
 264:../../Middlewares/LVGL/GUI/lvgl/src/misc/lv_text.c ****         else if(lv_text_is_a_word(letter_next) || lv_text_is_a_word(letter)) {
 265:../../Middlewares/LVGL/GUI/lvgl/src/misc/lv_text.c ****             /*Found a word for single letter, usually true for CJK*/
 266:../../Middlewares/LVGL/GUI/lvgl/src/misc/lv_text.c ****             *word_w_ptr = cur_w;
 267:../../Middlewares/LVGL/GUI/lvgl/src/misc/lv_text.c ****             i = i_next;
 268:../../Middlewares/LVGL/GUI/lvgl/src/misc/lv_text.c ****             break;
 269:../../Middlewares/LVGL/GUI/lvgl/src/misc/lv_text.c ****         }
 270:../../Middlewares/LVGL/GUI/lvgl/src/misc/lv_text.c **** 
 271:../../Middlewares/LVGL/GUI/lvgl/src/misc/lv_text.c ****         /*Update the output width*/
 272:../../Middlewares/LVGL/GUI/lvgl/src/misc/lv_text.c ****         if(word_w_ptr != NULL && break_index == NO_BREAK_FOUND) *word_w_ptr = cur_w;
 273:../../Middlewares/LVGL/GUI/lvgl/src/misc/lv_text.c **** 
 274:../../Middlewares/LVGL/GUI/lvgl/src/misc/lv_text.c ****         i = i_next;
 275:../../Middlewares/LVGL/GUI/lvgl/src/misc/lv_text.c ****         i_next = i_next_next;
 276:../../Middlewares/LVGL/GUI/lvgl/src/misc/lv_text.c ****         letter = letter_next;
 277:../../Middlewares/LVGL/GUI/lvgl/src/misc/lv_text.c ****     }
 278:../../Middlewares/LVGL/GUI/lvgl/src/misc/lv_text.c **** 
 279:../../Middlewares/LVGL/GUI/lvgl/src/misc/lv_text.c ****     /*Entire Word fits in the provided space*/
 280:../../Middlewares/LVGL/GUI/lvgl/src/misc/lv_text.c ****     if(break_index == NO_BREAK_FOUND) {
 281:../../Middlewares/LVGL/GUI/lvgl/src/misc/lv_text.c ****         if(word_len == 0 || (letter == '\r' && letter_next == '\n')) i = i_next;
 282:../../Middlewares/LVGL/GUI/lvgl/src/misc/lv_text.c ****         return i;
 283:../../Middlewares/LVGL/GUI/lvgl/src/misc/lv_text.c ****     }
 284:../../Middlewares/LVGL/GUI/lvgl/src/misc/lv_text.c **** 
 285:../../Middlewares/LVGL/GUI/lvgl/src/misc/lv_text.c **** #if LV_TXT_LINE_BREAK_LONG_LEN > 0
 286:../../Middlewares/LVGL/GUI/lvgl/src/misc/lv_text.c ****     /*Word doesn't fit in provided space, but isn't "long"*/
 287:../../Middlewares/LVGL/GUI/lvgl/src/misc/lv_text.c ****     if(word_len < LV_TXT_LINE_BREAK_LONG_LEN) {
 288:../../Middlewares/LVGL/GUI/lvgl/src/misc/lv_text.c ****         if(flag & LV_TEXT_FLAG_BREAK_ALL) return break_index;
 289:../../Middlewares/LVGL/GUI/lvgl/src/misc/lv_text.c ****         if(word_w_ptr != NULL) *word_w_ptr = 0; /*Return no word*/
 290:../../Middlewares/LVGL/GUI/lvgl/src/misc/lv_text.c ****         return 0;
 291:../../Middlewares/LVGL/GUI/lvgl/src/misc/lv_text.c ****     }
 292:../../Middlewares/LVGL/GUI/lvgl/src/misc/lv_text.c **** 
ARM GAS  C:\Users\28576\AppData\Local\Temp\ccMimN1K.s 			page 12


 293:../../Middlewares/LVGL/GUI/lvgl/src/misc/lv_text.c ****     /*Word is "long," but insufficient amounts can fit in provided space*/
 294:../../Middlewares/LVGL/GUI/lvgl/src/misc/lv_text.c ****     if(break_letter_count < LV_TXT_LINE_BREAK_LONG_PRE_MIN_LEN) {
 295:../../Middlewares/LVGL/GUI/lvgl/src/misc/lv_text.c ****         if(flag & LV_TEXT_FLAG_BREAK_ALL) return break_index;
 296:../../Middlewares/LVGL/GUI/lvgl/src/misc/lv_text.c ****         if(word_w_ptr != NULL) *word_w_ptr = 0;
 297:../../Middlewares/LVGL/GUI/lvgl/src/misc/lv_text.c ****         return 0;
 298:../../Middlewares/LVGL/GUI/lvgl/src/misc/lv_text.c ****     }
 299:../../Middlewares/LVGL/GUI/lvgl/src/misc/lv_text.c **** 
 300:../../Middlewares/LVGL/GUI/lvgl/src/misc/lv_text.c ****     /*Word is a "long", but letters may need to be better distributed*/
 301:../../Middlewares/LVGL/GUI/lvgl/src/misc/lv_text.c ****     {
 302:../../Middlewares/LVGL/GUI/lvgl/src/misc/lv_text.c ****         i = break_index;
 303:../../Middlewares/LVGL/GUI/lvgl/src/misc/lv_text.c ****         int32_t n_move = LV_TXT_LINE_BREAK_LONG_POST_MIN_LEN - (word_len - break_letter_count);
 304:../../Middlewares/LVGL/GUI/lvgl/src/misc/lv_text.c ****         /*Move pointer "i" backwards*/
 305:../../Middlewares/LVGL/GUI/lvgl/src/misc/lv_text.c ****         for(; n_move > 0; n_move--) {
 306:../../Middlewares/LVGL/GUI/lvgl/src/misc/lv_text.c ****             lv_text_encoded_prev(txt, &i);
 307:../../Middlewares/LVGL/GUI/lvgl/src/misc/lv_text.c ****             /**
 308:../../Middlewares/LVGL/GUI/lvgl/src/misc/lv_text.c ****              * TODO: it would be appropriate to update the returned
 309:../../Middlewares/LVGL/GUI/lvgl/src/misc/lv_text.c ****              * word width hereHowever, in current usage, this doesn't impact anything.
 310:../../Middlewares/LVGL/GUI/lvgl/src/misc/lv_text.c ****              */
 311:../../Middlewares/LVGL/GUI/lvgl/src/misc/lv_text.c ****         }
 312:../../Middlewares/LVGL/GUI/lvgl/src/misc/lv_text.c ****     }
 313:../../Middlewares/LVGL/GUI/lvgl/src/misc/lv_text.c ****     return i;
 314:../../Middlewares/LVGL/GUI/lvgl/src/misc/lv_text.c **** #else
 315:../../Middlewares/LVGL/GUI/lvgl/src/misc/lv_text.c ****     if(flag & LV_TEXT_FLAG_BREAK_ALL) return break_index;
 316:../../Middlewares/LVGL/GUI/lvgl/src/misc/lv_text.c ****     if(word_w_ptr != NULL) *word_w_ptr = 0; /*Return no word*/
 317:../../Middlewares/LVGL/GUI/lvgl/src/misc/lv_text.c ****     (void) break_letter_count;
 318:../../Middlewares/LVGL/GUI/lvgl/src/misc/lv_text.c ****     return 0;
 319:../../Middlewares/LVGL/GUI/lvgl/src/misc/lv_text.c **** #endif
 320:../../Middlewares/LVGL/GUI/lvgl/src/misc/lv_text.c **** }
 321:../../Middlewares/LVGL/GUI/lvgl/src/misc/lv_text.c **** 
 322:../../Middlewares/LVGL/GUI/lvgl/src/misc/lv_text.c **** uint32_t lv_text_get_next_line(const char * txt, uint32_t len,
 323:../../Middlewares/LVGL/GUI/lvgl/src/misc/lv_text.c ****                                const lv_font_t * font, int32_t letter_space,
 324:../../Middlewares/LVGL/GUI/lvgl/src/misc/lv_text.c ****                                int32_t max_width, int32_t * used_width, lv_text_flag_t flag)
 325:../../Middlewares/LVGL/GUI/lvgl/src/misc/lv_text.c **** {
 326:../../Middlewares/LVGL/GUI/lvgl/src/misc/lv_text.c ****     if(used_width) *used_width = 0;
 327:../../Middlewares/LVGL/GUI/lvgl/src/misc/lv_text.c **** 
 328:../../Middlewares/LVGL/GUI/lvgl/src/misc/lv_text.c ****     if(txt == NULL) return 0;
 329:../../Middlewares/LVGL/GUI/lvgl/src/misc/lv_text.c ****     if(txt[0] == '\0') return 0;
 330:../../Middlewares/LVGL/GUI/lvgl/src/misc/lv_text.c ****     if(font == NULL) return 0;
 331:../../Middlewares/LVGL/GUI/lvgl/src/misc/lv_text.c **** 
 332:../../Middlewares/LVGL/GUI/lvgl/src/misc/lv_text.c ****     int32_t line_w = 0;
 333:../../Middlewares/LVGL/GUI/lvgl/src/misc/lv_text.c **** 
 334:../../Middlewares/LVGL/GUI/lvgl/src/misc/lv_text.c ****     /*If max_width doesn't matter simply find the new line character
 335:../../Middlewares/LVGL/GUI/lvgl/src/misc/lv_text.c ****      *without thinking about word wrapping*/
 336:../../Middlewares/LVGL/GUI/lvgl/src/misc/lv_text.c ****     if((flag & LV_TEXT_FLAG_EXPAND) || (flag & LV_TEXT_FLAG_FIT)) {
 337:../../Middlewares/LVGL/GUI/lvgl/src/misc/lv_text.c ****         uint32_t i;
 338:../../Middlewares/LVGL/GUI/lvgl/src/misc/lv_text.c ****         for(i = 0; i < len && txt[i] != '\n' && txt[i] != '\r' && txt[i] != '\0'; i++) {
 339:../../Middlewares/LVGL/GUI/lvgl/src/misc/lv_text.c ****             /*Just find the new line chars or string ends by incrementing `i`*/
 340:../../Middlewares/LVGL/GUI/lvgl/src/misc/lv_text.c ****         }
 341:../../Middlewares/LVGL/GUI/lvgl/src/misc/lv_text.c ****         if(i < len && txt[i] != '\0') i++;    /*To go beyond `\n`*/
 342:../../Middlewares/LVGL/GUI/lvgl/src/misc/lv_text.c ****         if(used_width) *used_width = -1;
 343:../../Middlewares/LVGL/GUI/lvgl/src/misc/lv_text.c ****         return i;
 344:../../Middlewares/LVGL/GUI/lvgl/src/misc/lv_text.c ****     }
 345:../../Middlewares/LVGL/GUI/lvgl/src/misc/lv_text.c **** 
 346:../../Middlewares/LVGL/GUI/lvgl/src/misc/lv_text.c ****     if(flag & LV_TEXT_FLAG_EXPAND) max_width = LV_COORD_MAX;
 347:../../Middlewares/LVGL/GUI/lvgl/src/misc/lv_text.c ****     lv_text_cmd_state_t cmd_state = LV_TEXT_CMD_STATE_WAIT;
 348:../../Middlewares/LVGL/GUI/lvgl/src/misc/lv_text.c **** 
 349:../../Middlewares/LVGL/GUI/lvgl/src/misc/lv_text.c ****     uint32_t i = 0;                                        /*Iterating index into txt*/
ARM GAS  C:\Users\28576\AppData\Local\Temp\ccMimN1K.s 			page 13


 350:../../Middlewares/LVGL/GUI/lvgl/src/misc/lv_text.c **** 
 351:../../Middlewares/LVGL/GUI/lvgl/src/misc/lv_text.c ****     while(i < len && txt[i] != '\0' && max_width > 0) {
 352:../../Middlewares/LVGL/GUI/lvgl/src/misc/lv_text.c ****         lv_text_flag_t word_flag = flag;
 353:../../Middlewares/LVGL/GUI/lvgl/src/misc/lv_text.c ****         if(i == 0) word_flag |= LV_TEXT_FLAG_BREAK_ALL;
 354:../../Middlewares/LVGL/GUI/lvgl/src/misc/lv_text.c **** 
 355:../../Middlewares/LVGL/GUI/lvgl/src/misc/lv_text.c ****         uint32_t word_w = 0;
 356:../../Middlewares/LVGL/GUI/lvgl/src/misc/lv_text.c ****         uint32_t advance = lv_text_get_next_word(&txt[i], font, letter_space, max_width, word_flag,
 357:../../Middlewares/LVGL/GUI/lvgl/src/misc/lv_text.c ****         max_width -= word_w;
 358:../../Middlewares/LVGL/GUI/lvgl/src/misc/lv_text.c ****         line_w += word_w;
 359:../../Middlewares/LVGL/GUI/lvgl/src/misc/lv_text.c **** 
 360:../../Middlewares/LVGL/GUI/lvgl/src/misc/lv_text.c ****         if(advance == 0) {
 361:../../Middlewares/LVGL/GUI/lvgl/src/misc/lv_text.c ****             break;
 362:../../Middlewares/LVGL/GUI/lvgl/src/misc/lv_text.c ****         }
 363:../../Middlewares/LVGL/GUI/lvgl/src/misc/lv_text.c **** 
 364:../../Middlewares/LVGL/GUI/lvgl/src/misc/lv_text.c ****         i += advance;
 365:../../Middlewares/LVGL/GUI/lvgl/src/misc/lv_text.c **** 
 366:../../Middlewares/LVGL/GUI/lvgl/src/misc/lv_text.c ****         if(txt[0] == '\n' || txt[0] == '\r') break;
 367:../../Middlewares/LVGL/GUI/lvgl/src/misc/lv_text.c **** 
 368:../../Middlewares/LVGL/GUI/lvgl/src/misc/lv_text.c ****         if(txt[i] == '\n' || txt[i] == '\r') {
 369:../../Middlewares/LVGL/GUI/lvgl/src/misc/lv_text.c ****             i++;  /*Include the following newline in the current line*/
 370:../../Middlewares/LVGL/GUI/lvgl/src/misc/lv_text.c ****             break;
 371:../../Middlewares/LVGL/GUI/lvgl/src/misc/lv_text.c ****         }
 372:../../Middlewares/LVGL/GUI/lvgl/src/misc/lv_text.c **** 
 373:../../Middlewares/LVGL/GUI/lvgl/src/misc/lv_text.c ****     }
 374:../../Middlewares/LVGL/GUI/lvgl/src/misc/lv_text.c **** 
 375:../../Middlewares/LVGL/GUI/lvgl/src/misc/lv_text.c ****     /*Always step at least one to avoid infinite loops*/
 376:../../Middlewares/LVGL/GUI/lvgl/src/misc/lv_text.c ****     if(i == 0) {
 377:../../Middlewares/LVGL/GUI/lvgl/src/misc/lv_text.c ****         uint32_t letter = lv_text_encoded_next(txt, &i);
 378:../../Middlewares/LVGL/GUI/lvgl/src/misc/lv_text.c ****         if(used_width != NULL) {
 379:../../Middlewares/LVGL/GUI/lvgl/src/misc/lv_text.c ****             line_w = lv_font_get_glyph_width(font, letter, '\0');
 380:../../Middlewares/LVGL/GUI/lvgl/src/misc/lv_text.c ****         }
 381:../../Middlewares/LVGL/GUI/lvgl/src/misc/lv_text.c ****     }
 382:../../Middlewares/LVGL/GUI/lvgl/src/misc/lv_text.c **** 
 383:../../Middlewares/LVGL/GUI/lvgl/src/misc/lv_text.c ****     if(used_width != NULL) {
 384:../../Middlewares/LVGL/GUI/lvgl/src/misc/lv_text.c ****         *used_width = line_w;
 385:../../Middlewares/LVGL/GUI/lvgl/src/misc/lv_text.c ****     }
 386:../../Middlewares/LVGL/GUI/lvgl/src/misc/lv_text.c **** 
 387:../../Middlewares/LVGL/GUI/lvgl/src/misc/lv_text.c ****     return i;
 388:../../Middlewares/LVGL/GUI/lvgl/src/misc/lv_text.c **** }
 389:../../Middlewares/LVGL/GUI/lvgl/src/misc/lv_text.c **** 
 390:../../Middlewares/LVGL/GUI/lvgl/src/misc/lv_text.c **** int32_t lv_text_get_width(const char * txt, uint32_t length, const lv_font_t * font, int32_t letter
 391:../../Middlewares/LVGL/GUI/lvgl/src/misc/lv_text.c **** {
 392:../../Middlewares/LVGL/GUI/lvgl/src/misc/lv_text.c ****     if(txt == NULL) return 0;
 393:../../Middlewares/LVGL/GUI/lvgl/src/misc/lv_text.c ****     if(font == NULL) return 0;
 394:../../Middlewares/LVGL/GUI/lvgl/src/misc/lv_text.c ****     if(txt[0] == '\0') return 0;
 395:../../Middlewares/LVGL/GUI/lvgl/src/misc/lv_text.c **** 
 396:../../Middlewares/LVGL/GUI/lvgl/src/misc/lv_text.c ****     uint32_t i                   = 0;
 397:../../Middlewares/LVGL/GUI/lvgl/src/misc/lv_text.c ****     int32_t width             = 0;
 398:../../Middlewares/LVGL/GUI/lvgl/src/misc/lv_text.c **** 
 399:../../Middlewares/LVGL/GUI/lvgl/src/misc/lv_text.c ****     if(length != 0) {
 400:../../Middlewares/LVGL/GUI/lvgl/src/misc/lv_text.c ****         while(i < length) {
 401:../../Middlewares/LVGL/GUI/lvgl/src/misc/lv_text.c ****             uint32_t letter;
 402:../../Middlewares/LVGL/GUI/lvgl/src/misc/lv_text.c ****             uint32_t letter_next;
 403:../../Middlewares/LVGL/GUI/lvgl/src/misc/lv_text.c ****             lv_text_encoded_letter_next_2(txt, &letter, &letter_next, &i);
 404:../../Middlewares/LVGL/GUI/lvgl/src/misc/lv_text.c **** 
 405:../../Middlewares/LVGL/GUI/lvgl/src/misc/lv_text.c ****             int32_t char_width = lv_font_get_glyph_width(font, letter, letter_next);
 406:../../Middlewares/LVGL/GUI/lvgl/src/misc/lv_text.c ****             if(char_width > 0) {
ARM GAS  C:\Users\28576\AppData\Local\Temp\ccMimN1K.s 			page 14


 407:../../Middlewares/LVGL/GUI/lvgl/src/misc/lv_text.c ****                 width += char_width;
 408:../../Middlewares/LVGL/GUI/lvgl/src/misc/lv_text.c ****                 width += letter_space;
 409:../../Middlewares/LVGL/GUI/lvgl/src/misc/lv_text.c ****             }
 410:../../Middlewares/LVGL/GUI/lvgl/src/misc/lv_text.c ****         }
 411:../../Middlewares/LVGL/GUI/lvgl/src/misc/lv_text.c **** 
 412:../../Middlewares/LVGL/GUI/lvgl/src/misc/lv_text.c ****         if(width > 0) {
 413:../../Middlewares/LVGL/GUI/lvgl/src/misc/lv_text.c ****             width -= letter_space; /*Trim the last letter space. Important if the text is center
 414:../../Middlewares/LVGL/GUI/lvgl/src/misc/lv_text.c ****                                       aligned*/
 415:../../Middlewares/LVGL/GUI/lvgl/src/misc/lv_text.c ****         }
 416:../../Middlewares/LVGL/GUI/lvgl/src/misc/lv_text.c ****     }
 417:../../Middlewares/LVGL/GUI/lvgl/src/misc/lv_text.c **** 
 418:../../Middlewares/LVGL/GUI/lvgl/src/misc/lv_text.c ****     return width;
 419:../../Middlewares/LVGL/GUI/lvgl/src/misc/lv_text.c **** }
 420:../../Middlewares/LVGL/GUI/lvgl/src/misc/lv_text.c **** 
 421:../../Middlewares/LVGL/GUI/lvgl/src/misc/lv_text.c **** int32_t lv_text_get_width_with_flags(const char * txt, uint32_t length, const lv_font_t * font, int
 422:../../Middlewares/LVGL/GUI/lvgl/src/misc/lv_text.c ****                                      lv_text_flag_t flags)
 423:../../Middlewares/LVGL/GUI/lvgl/src/misc/lv_text.c **** {
 424:../../Middlewares/LVGL/GUI/lvgl/src/misc/lv_text.c ****     if(txt == NULL) return 0;
 425:../../Middlewares/LVGL/GUI/lvgl/src/misc/lv_text.c ****     if(font == NULL) return 0;
 426:../../Middlewares/LVGL/GUI/lvgl/src/misc/lv_text.c ****     if(txt[0] == '\0') return 0;
 427:../../Middlewares/LVGL/GUI/lvgl/src/misc/lv_text.c **** 
 428:../../Middlewares/LVGL/GUI/lvgl/src/misc/lv_text.c ****     uint32_t i                   = 0;
 429:../../Middlewares/LVGL/GUI/lvgl/src/misc/lv_text.c ****     int32_t width             = 0;
 430:../../Middlewares/LVGL/GUI/lvgl/src/misc/lv_text.c ****     lv_text_cmd_state_t cmd_state = LV_TEXT_CMD_STATE_WAIT;
 431:../../Middlewares/LVGL/GUI/lvgl/src/misc/lv_text.c **** 
 432:../../Middlewares/LVGL/GUI/lvgl/src/misc/lv_text.c ****     if(length != 0) {
 433:../../Middlewares/LVGL/GUI/lvgl/src/misc/lv_text.c ****         while(txt[i] != '\0' && i < length) {
 434:../../Middlewares/LVGL/GUI/lvgl/src/misc/lv_text.c ****             uint32_t letter;
 435:../../Middlewares/LVGL/GUI/lvgl/src/misc/lv_text.c ****             uint32_t letter_next;
 436:../../Middlewares/LVGL/GUI/lvgl/src/misc/lv_text.c ****             lv_text_encoded_letter_next_2(txt, &letter, &letter_next, &i);
 437:../../Middlewares/LVGL/GUI/lvgl/src/misc/lv_text.c **** 
 438:../../Middlewares/LVGL/GUI/lvgl/src/misc/lv_text.c ****             if((flags & LV_TEXT_FLAG_RECOLOR) != 0) {
 439:../../Middlewares/LVGL/GUI/lvgl/src/misc/lv_text.c ****                 if(lv_text_is_cmd(&cmd_state, letter) != false) {
 440:../../Middlewares/LVGL/GUI/lvgl/src/misc/lv_text.c ****                     continue;
 441:../../Middlewares/LVGL/GUI/lvgl/src/misc/lv_text.c ****                 }
 442:../../Middlewares/LVGL/GUI/lvgl/src/misc/lv_text.c ****             }
 443:../../Middlewares/LVGL/GUI/lvgl/src/misc/lv_text.c **** 
 444:../../Middlewares/LVGL/GUI/lvgl/src/misc/lv_text.c ****             int32_t char_width = lv_font_get_glyph_width(font, letter, letter_next);
 445:../../Middlewares/LVGL/GUI/lvgl/src/misc/lv_text.c ****             if(char_width > 0) {
 446:../../Middlewares/LVGL/GUI/lvgl/src/misc/lv_text.c ****                 width += char_width;
 447:../../Middlewares/LVGL/GUI/lvgl/src/misc/lv_text.c ****                 width += letter_space;
 448:../../Middlewares/LVGL/GUI/lvgl/src/misc/lv_text.c ****             }
 449:../../Middlewares/LVGL/GUI/lvgl/src/misc/lv_text.c ****         }
 450:../../Middlewares/LVGL/GUI/lvgl/src/misc/lv_text.c **** 
 451:../../Middlewares/LVGL/GUI/lvgl/src/misc/lv_text.c ****         if(width > 0) {
 452:../../Middlewares/LVGL/GUI/lvgl/src/misc/lv_text.c ****             width -= letter_space; /*Trim the last letter space. Important if the text is center
 453:../../Middlewares/LVGL/GUI/lvgl/src/misc/lv_text.c ****                                       aligned*/
 454:../../Middlewares/LVGL/GUI/lvgl/src/misc/lv_text.c ****         }
 455:../../Middlewares/LVGL/GUI/lvgl/src/misc/lv_text.c ****     }
 456:../../Middlewares/LVGL/GUI/lvgl/src/misc/lv_text.c **** 
 457:../../Middlewares/LVGL/GUI/lvgl/src/misc/lv_text.c ****     return width;
 458:../../Middlewares/LVGL/GUI/lvgl/src/misc/lv_text.c **** }
 459:../../Middlewares/LVGL/GUI/lvgl/src/misc/lv_text.c **** 
 460:../../Middlewares/LVGL/GUI/lvgl/src/misc/lv_text.c **** void lv_text_ins(char * txt_buf, uint32_t pos, const char * ins_txt)
 461:../../Middlewares/LVGL/GUI/lvgl/src/misc/lv_text.c **** {
 462:../../Middlewares/LVGL/GUI/lvgl/src/misc/lv_text.c ****     if(txt_buf == NULL || ins_txt == NULL) return;
 463:../../Middlewares/LVGL/GUI/lvgl/src/misc/lv_text.c **** 
ARM GAS  C:\Users\28576\AppData\Local\Temp\ccMimN1K.s 			page 15


 464:../../Middlewares/LVGL/GUI/lvgl/src/misc/lv_text.c ****     size_t old_len = lv_strlen(txt_buf);
 465:../../Middlewares/LVGL/GUI/lvgl/src/misc/lv_text.c ****     size_t ins_len = lv_strlen(ins_txt);
 466:../../Middlewares/LVGL/GUI/lvgl/src/misc/lv_text.c ****     if(ins_len == 0) return;
 467:../../Middlewares/LVGL/GUI/lvgl/src/misc/lv_text.c **** 
 468:../../Middlewares/LVGL/GUI/lvgl/src/misc/lv_text.c ****     size_t new_len = ins_len + old_len;
 469:../../Middlewares/LVGL/GUI/lvgl/src/misc/lv_text.c ****     pos              = lv_text_encoded_get_byte_id(txt_buf, pos); /*Convert to byte index instead o
 470:../../Middlewares/LVGL/GUI/lvgl/src/misc/lv_text.c **** 
 471:../../Middlewares/LVGL/GUI/lvgl/src/misc/lv_text.c ****     /*Copy the second part into the end to make place to text to insert*/
 472:../../Middlewares/LVGL/GUI/lvgl/src/misc/lv_text.c ****     size_t i;
 473:../../Middlewares/LVGL/GUI/lvgl/src/misc/lv_text.c ****     for(i = new_len; i >= pos + ins_len; i--) {
 474:../../Middlewares/LVGL/GUI/lvgl/src/misc/lv_text.c ****         txt_buf[i] = txt_buf[i - ins_len];
 475:../../Middlewares/LVGL/GUI/lvgl/src/misc/lv_text.c ****     }
 476:../../Middlewares/LVGL/GUI/lvgl/src/misc/lv_text.c **** 
 477:../../Middlewares/LVGL/GUI/lvgl/src/misc/lv_text.c ****     /*Copy the text into the new space*/
 478:../../Middlewares/LVGL/GUI/lvgl/src/misc/lv_text.c ****     lv_memcpy(txt_buf + pos, ins_txt, ins_len);
 479:../../Middlewares/LVGL/GUI/lvgl/src/misc/lv_text.c **** }
 480:../../Middlewares/LVGL/GUI/lvgl/src/misc/lv_text.c **** 
 481:../../Middlewares/LVGL/GUI/lvgl/src/misc/lv_text.c **** void lv_text_cut(char * txt, uint32_t pos, uint32_t len)
 482:../../Middlewares/LVGL/GUI/lvgl/src/misc/lv_text.c **** {
 483:../../Middlewares/LVGL/GUI/lvgl/src/misc/lv_text.c ****     if(txt == NULL) return;
 484:../../Middlewares/LVGL/GUI/lvgl/src/misc/lv_text.c **** 
 485:../../Middlewares/LVGL/GUI/lvgl/src/misc/lv_text.c ****     size_t old_len = lv_strlen(txt);
 486:../../Middlewares/LVGL/GUI/lvgl/src/misc/lv_text.c **** 
 487:../../Middlewares/LVGL/GUI/lvgl/src/misc/lv_text.c ****     pos = lv_text_encoded_get_byte_id(txt, pos); /*Convert to byte index instead of letter index*/
 488:../../Middlewares/LVGL/GUI/lvgl/src/misc/lv_text.c ****     len = lv_text_encoded_get_byte_id(&txt[pos], len);
 489:../../Middlewares/LVGL/GUI/lvgl/src/misc/lv_text.c **** 
 490:../../Middlewares/LVGL/GUI/lvgl/src/misc/lv_text.c ****     /*Copy the second part into the end to make place to text to insert*/
 491:../../Middlewares/LVGL/GUI/lvgl/src/misc/lv_text.c ****     uint32_t i;
 492:../../Middlewares/LVGL/GUI/lvgl/src/misc/lv_text.c ****     for(i = pos; i <= old_len - len; i++) {
 493:../../Middlewares/LVGL/GUI/lvgl/src/misc/lv_text.c ****         txt[i] = txt[i + len];
 494:../../Middlewares/LVGL/GUI/lvgl/src/misc/lv_text.c ****     }
 495:../../Middlewares/LVGL/GUI/lvgl/src/misc/lv_text.c **** }
 496:../../Middlewares/LVGL/GUI/lvgl/src/misc/lv_text.c **** 
 497:../../Middlewares/LVGL/GUI/lvgl/src/misc/lv_text.c **** char * lv_text_set_text_vfmt(const char * fmt, va_list ap)
 498:../../Middlewares/LVGL/GUI/lvgl/src/misc/lv_text.c **** {
 499:../../Middlewares/LVGL/GUI/lvgl/src/misc/lv_text.c ****     /*Allocate space for the new text by using trick from C99 standard section 7.19.6.12*/
 500:../../Middlewares/LVGL/GUI/lvgl/src/misc/lv_text.c ****     va_list ap_copy;
 501:../../Middlewares/LVGL/GUI/lvgl/src/misc/lv_text.c ****     va_copy(ap_copy, ap);
 502:../../Middlewares/LVGL/GUI/lvgl/src/misc/lv_text.c ****     uint32_t len = lv_vsnprintf(NULL, 0, fmt, ap_copy);
 503:../../Middlewares/LVGL/GUI/lvgl/src/misc/lv_text.c ****     va_end(ap_copy);
 504:../../Middlewares/LVGL/GUI/lvgl/src/misc/lv_text.c **** 
 505:../../Middlewares/LVGL/GUI/lvgl/src/misc/lv_text.c ****     char * text = 0;
 506:../../Middlewares/LVGL/GUI/lvgl/src/misc/lv_text.c **** #if LV_USE_ARABIC_PERSIAN_CHARS
 507:../../Middlewares/LVGL/GUI/lvgl/src/misc/lv_text.c ****     /*Put together the text according to the format string*/
 508:../../Middlewares/LVGL/GUI/lvgl/src/misc/lv_text.c ****     char * raw_txt = lv_malloc(len + 1);
 509:../../Middlewares/LVGL/GUI/lvgl/src/misc/lv_text.c ****     LV_ASSERT_MALLOC(raw_txt);
 510:../../Middlewares/LVGL/GUI/lvgl/src/misc/lv_text.c ****     if(raw_txt == NULL) {
 511:../../Middlewares/LVGL/GUI/lvgl/src/misc/lv_text.c ****         return NULL;
 512:../../Middlewares/LVGL/GUI/lvgl/src/misc/lv_text.c ****     }
 513:../../Middlewares/LVGL/GUI/lvgl/src/misc/lv_text.c **** 
 514:../../Middlewares/LVGL/GUI/lvgl/src/misc/lv_text.c ****     lv_vsnprintf(raw_txt, len + 1, fmt, ap);
 515:../../Middlewares/LVGL/GUI/lvgl/src/misc/lv_text.c **** 
 516:../../Middlewares/LVGL/GUI/lvgl/src/misc/lv_text.c ****     /*Get the size of the Arabic text and process it*/
 517:../../Middlewares/LVGL/GUI/lvgl/src/misc/lv_text.c ****     size_t len_ap = lv_text_ap_calc_bytes_count(raw_txt);
 518:../../Middlewares/LVGL/GUI/lvgl/src/misc/lv_text.c ****     text = lv_malloc(len_ap + 1);
 519:../../Middlewares/LVGL/GUI/lvgl/src/misc/lv_text.c ****     LV_ASSERT_MALLOC(text);
 520:../../Middlewares/LVGL/GUI/lvgl/src/misc/lv_text.c ****     if(text == NULL) {
ARM GAS  C:\Users\28576\AppData\Local\Temp\ccMimN1K.s 			page 16


 521:../../Middlewares/LVGL/GUI/lvgl/src/misc/lv_text.c ****         return NULL;
 522:../../Middlewares/LVGL/GUI/lvgl/src/misc/lv_text.c ****     }
 523:../../Middlewares/LVGL/GUI/lvgl/src/misc/lv_text.c ****     lv_text_ap_proc(raw_txt, text);
 524:../../Middlewares/LVGL/GUI/lvgl/src/misc/lv_text.c **** 
 525:../../Middlewares/LVGL/GUI/lvgl/src/misc/lv_text.c ****     lv_free(raw_txt);
 526:../../Middlewares/LVGL/GUI/lvgl/src/misc/lv_text.c **** #else
 527:../../Middlewares/LVGL/GUI/lvgl/src/misc/lv_text.c ****     text = lv_malloc(len + 1);
 528:../../Middlewares/LVGL/GUI/lvgl/src/misc/lv_text.c ****     LV_ASSERT_MALLOC(text);
 529:../../Middlewares/LVGL/GUI/lvgl/src/misc/lv_text.c ****     if(text == NULL) {
 530:../../Middlewares/LVGL/GUI/lvgl/src/misc/lv_text.c ****         return NULL;
 531:../../Middlewares/LVGL/GUI/lvgl/src/misc/lv_text.c ****     }
 532:../../Middlewares/LVGL/GUI/lvgl/src/misc/lv_text.c **** 
 533:../../Middlewares/LVGL/GUI/lvgl/src/misc/lv_text.c ****     lv_vsnprintf(text, len + 1, fmt, ap);
 534:../../Middlewares/LVGL/GUI/lvgl/src/misc/lv_text.c **** #endif
 535:../../Middlewares/LVGL/GUI/lvgl/src/misc/lv_text.c **** 
 536:../../Middlewares/LVGL/GUI/lvgl/src/misc/lv_text.c ****     return text;
 537:../../Middlewares/LVGL/GUI/lvgl/src/misc/lv_text.c **** }
 538:../../Middlewares/LVGL/GUI/lvgl/src/misc/lv_text.c **** 
 539:../../Middlewares/LVGL/GUI/lvgl/src/misc/lv_text.c **** void lv_text_encoded_letter_next_2(const char * txt, uint32_t * letter, uint32_t * letter_next, uin
 540:../../Middlewares/LVGL/GUI/lvgl/src/misc/lv_text.c **** {
 541:../../Middlewares/LVGL/GUI/lvgl/src/misc/lv_text.c ****     *letter = lv_text_encoded_next(txt, ofs);
 542:../../Middlewares/LVGL/GUI/lvgl/src/misc/lv_text.c ****     *letter_next = *letter != '\0' ? lv_text_encoded_next(&txt[*ofs], NULL) : 0;
 543:../../Middlewares/LVGL/GUI/lvgl/src/misc/lv_text.c **** }
 544:../../Middlewares/LVGL/GUI/lvgl/src/misc/lv_text.c **** 
 545:../../Middlewares/LVGL/GUI/lvgl/src/misc/lv_text.c **** #if LV_TXT_ENC == LV_TXT_ENC_UTF8
 546:../../Middlewares/LVGL/GUI/lvgl/src/misc/lv_text.c **** /*******************************
 547:../../Middlewares/LVGL/GUI/lvgl/src/misc/lv_text.c ****  *   UTF-8 ENCODER/DECODER
 548:../../Middlewares/LVGL/GUI/lvgl/src/misc/lv_text.c ****  ******************************/
 549:../../Middlewares/LVGL/GUI/lvgl/src/misc/lv_text.c **** 
 550:../../Middlewares/LVGL/GUI/lvgl/src/misc/lv_text.c **** /**
 551:../../Middlewares/LVGL/GUI/lvgl/src/misc/lv_text.c ****  * Give the size of an UTF-8 coded character
 552:../../Middlewares/LVGL/GUI/lvgl/src/misc/lv_text.c ****  * @param str pointer to a character in a string
 553:../../Middlewares/LVGL/GUI/lvgl/src/misc/lv_text.c ****  * @return length of the UTF-8 character (1,2,3 or 4), 0 on invalid code.
 554:../../Middlewares/LVGL/GUI/lvgl/src/misc/lv_text.c ****  */
 555:../../Middlewares/LVGL/GUI/lvgl/src/misc/lv_text.c **** static uint8_t lv_text_utf8_size(const char * str)
 556:../../Middlewares/LVGL/GUI/lvgl/src/misc/lv_text.c **** {
 167              		.loc 1 556 1 is_stmt 1 view -0
 168              		.cfi_startproc
 169              		@ args = 0, pretend = 0, frame = 0
 170              		@ frame_needed = 0, uses_anonymous_args = 0
 171              		@ link register save eliminated.
 557:../../Middlewares/LVGL/GUI/lvgl/src/misc/lv_text.c ****     if(LV_IS_ASCII(str[0]))
 172              		.loc 1 557 5 view .LVU46
 173              		.loc 1 557 8 is_stmt 0 view .LVU47
 174 0000 0378     		ldrb	r3, [r0]	@ zero_extendqisi2
 175 0002 90F90020 		ldrsb	r2, [r0]
 176              		.loc 1 557 7 view .LVU48
 177 0006 002A     		cmp	r2, #0
 178 0008 0DDA     		bge	.L16
 558:../../Middlewares/LVGL/GUI/lvgl/src/misc/lv_text.c ****         return 1;
 559:../../Middlewares/LVGL/GUI/lvgl/src/misc/lv_text.c ****     else if(LV_IS_2BYTES_UTF8_CODE(str[0]))
 179              		.loc 1 559 10 is_stmt 1 view .LVU49
 180              		.loc 1 559 12 is_stmt 0 view .LVU50
 181 000a 03F0E002 		and	r2, r3, #224
 182 000e C02A     		cmp	r2, #192
 183 0010 0BD0     		beq	.L17
 560:../../Middlewares/LVGL/GUI/lvgl/src/misc/lv_text.c ****         return 2;
ARM GAS  C:\Users\28576\AppData\Local\Temp\ccMimN1K.s 			page 17


 561:../../Middlewares/LVGL/GUI/lvgl/src/misc/lv_text.c ****     else if(LV_IS_3BYTES_UTF8_CODE(str[0]))
 184              		.loc 1 561 10 is_stmt 1 view .LVU51
 185              		.loc 1 561 12 is_stmt 0 view .LVU52
 186 0012 03F0F002 		and	r2, r3, #240
 187 0016 E02A     		cmp	r2, #224
 188 0018 09D0     		beq	.L18
 562:../../Middlewares/LVGL/GUI/lvgl/src/misc/lv_text.c ****         return 3;
 563:../../Middlewares/LVGL/GUI/lvgl/src/misc/lv_text.c ****     else if(LV_IS_4BYTES_UTF8_CODE(str[0]))
 189              		.loc 1 563 10 is_stmt 1 view .LVU53
 190              		.loc 1 563 12 is_stmt 0 view .LVU54
 191 001a 03F0F803 		and	r3, r3, #248
 192 001e F02B     		cmp	r3, #240
 193 0020 07D0     		beq	.L19
 564:../../Middlewares/LVGL/GUI/lvgl/src/misc/lv_text.c ****         return 4;
 565:../../Middlewares/LVGL/GUI/lvgl/src/misc/lv_text.c ****     return 0;
 194              		.loc 1 565 12 view .LVU55
 195 0022 0020     		movs	r0, #0
 196              	.LVL19:
 197              		.loc 1 565 12 view .LVU56
 198 0024 7047     		bx	lr
 199              	.LVL20:
 200              	.L16:
 558:../../Middlewares/LVGL/GUI/lvgl/src/misc/lv_text.c ****     else if(LV_IS_2BYTES_UTF8_CODE(str[0]))
 201              		.loc 1 558 16 view .LVU57
 202 0026 0120     		movs	r0, #1
 203              	.LVL21:
 558:../../Middlewares/LVGL/GUI/lvgl/src/misc/lv_text.c ****     else if(LV_IS_2BYTES_UTF8_CODE(str[0]))
 204              		.loc 1 558 16 view .LVU58
 205 0028 7047     		bx	lr
 206              	.LVL22:
 207              	.L17:
 560:../../Middlewares/LVGL/GUI/lvgl/src/misc/lv_text.c ****     else if(LV_IS_3BYTES_UTF8_CODE(str[0]))
 208              		.loc 1 560 16 view .LVU59
 209 002a 0220     		movs	r0, #2
 210              	.LVL23:
 560:../../Middlewares/LVGL/GUI/lvgl/src/misc/lv_text.c ****     else if(LV_IS_3BYTES_UTF8_CODE(str[0]))
 211              		.loc 1 560 16 view .LVU60
 212 002c 7047     		bx	lr
 213              	.LVL24:
 214              	.L18:
 562:../../Middlewares/LVGL/GUI/lvgl/src/misc/lv_text.c ****     else if(LV_IS_4BYTES_UTF8_CODE(str[0]))
 215              		.loc 1 562 16 view .LVU61
 216 002e 0320     		movs	r0, #3
 217              	.LVL25:
 562:../../Middlewares/LVGL/GUI/lvgl/src/misc/lv_text.c ****     else if(LV_IS_4BYTES_UTF8_CODE(str[0]))
 218              		.loc 1 562 16 view .LVU62
 219 0030 7047     		bx	lr
 220              	.LVL26:
 221              	.L19:
 564:../../Middlewares/LVGL/GUI/lvgl/src/misc/lv_text.c ****     return 0;
 222              		.loc 1 564 16 view .LVU63
 223 0032 0420     		movs	r0, #4
 224              	.LVL27:
 566:../../Middlewares/LVGL/GUI/lvgl/src/misc/lv_text.c **** }
 225              		.loc 1 566 1 view .LVU64
 226 0034 7047     		bx	lr
 227              		.cfi_endproc
ARM GAS  C:\Users\28576\AppData\Local\Temp\ccMimN1K.s 			page 18


 228              	.LFE32:
 230              		.section	.text.lv_text_unicode_to_utf8,"ax",%progbits
 231              		.align	1
 232              		.syntax unified
 233              		.thumb
 234              		.thumb_func
 236              	lv_text_unicode_to_utf8:
 237              	.LVL28:
 238              	.LFB33:
 567:../../Middlewares/LVGL/GUI/lvgl/src/misc/lv_text.c **** 
 568:../../Middlewares/LVGL/GUI/lvgl/src/misc/lv_text.c **** /**
 569:../../Middlewares/LVGL/GUI/lvgl/src/misc/lv_text.c ****  * Convert a Unicode letter to UTF-8.
 570:../../Middlewares/LVGL/GUI/lvgl/src/misc/lv_text.c ****  * @param letter_uni a Unicode letter
 571:../../Middlewares/LVGL/GUI/lvgl/src/misc/lv_text.c ****  * @return UTF-8 coded character in Little Endian to be compatible with C chars (e.g. 'Á', 'Ű')
 572:../../Middlewares/LVGL/GUI/lvgl/src/misc/lv_text.c ****  */
 573:../../Middlewares/LVGL/GUI/lvgl/src/misc/lv_text.c **** static uint32_t lv_text_unicode_to_utf8(uint32_t letter_uni)
 574:../../Middlewares/LVGL/GUI/lvgl/src/misc/lv_text.c **** {
 239              		.loc 1 574 1 is_stmt 1 view -0
 240              		.cfi_startproc
 241              		@ args = 0, pretend = 0, frame = 8
 242              		@ frame_needed = 0, uses_anonymous_args = 0
 243              		@ link register save eliminated.
 575:../../Middlewares/LVGL/GUI/lvgl/src/misc/lv_text.c ****     if(letter_uni < 128) return letter_uni;
 244              		.loc 1 575 5 view .LVU66
 245              		.loc 1 575 7 is_stmt 0 view .LVU67
 246 0000 7F28     		cmp	r0, #127
 247 0002 4ED9     		bls	.L28
 574:../../Middlewares/LVGL/GUI/lvgl/src/misc/lv_text.c ****     if(letter_uni < 128) return letter_uni;
 248              		.loc 1 574 1 view .LVU68
 249 0004 82B0     		sub	sp, sp, #8
 250              	.LCFI0:
 251              		.cfi_def_cfa_offset 8
 576:../../Middlewares/LVGL/GUI/lvgl/src/misc/lv_text.c ****     uint8_t bytes[4];
 252              		.loc 1 576 5 is_stmt 1 view .LVU69
 577:../../Middlewares/LVGL/GUI/lvgl/src/misc/lv_text.c **** 
 578:../../Middlewares/LVGL/GUI/lvgl/src/misc/lv_text.c ****     if(letter_uni < 0x0800) {
 253              		.loc 1 578 5 view .LVU70
 254              		.loc 1 578 7 is_stmt 0 view .LVU71
 255 0006 B0F5006F 		cmp	r0, #2048
 256 000a 13D2     		bcs	.L22
 579:../../Middlewares/LVGL/GUI/lvgl/src/misc/lv_text.c ****         bytes[0] = ((letter_uni >> 6) & 0x1F) | 0xC0;
 257              		.loc 1 579 9 is_stmt 1 view .LVU72
 258              		.loc 1 579 39 is_stmt 0 view .LVU73
 259 000c C0F38413 		ubfx	r3, r0, #6, #5
 260              		.loc 1 579 47 view .LVU74
 261 0010 43F0C003 		orr	r3, r3, #192
 262              		.loc 1 579 18 view .LVU75
 263 0014 8DF80430 		strb	r3, [sp, #4]
 580:../../Middlewares/LVGL/GUI/lvgl/src/misc/lv_text.c ****         bytes[1] = ((letter_uni >> 0) & 0x3F) | 0x80;
 264              		.loc 1 580 9 is_stmt 1 view .LVU76
 265              		.loc 1 580 39 is_stmt 0 view .LVU77
 266 0018 00F03F00 		and	r0, r0, #63
 267              	.LVL29:
 268              		.loc 1 580 47 view .LVU78
 269 001c 40F08000 		orr	r0, r0, #128
 270              		.loc 1 580 18 view .LVU79
 271 0020 8DF80500 		strb	r0, [sp, #5]
ARM GAS  C:\Users\28576\AppData\Local\Temp\ccMimN1K.s 			page 19


 581:../../Middlewares/LVGL/GUI/lvgl/src/misc/lv_text.c ****         bytes[2] = 0;
 272              		.loc 1 581 9 is_stmt 1 view .LVU80
 273              		.loc 1 581 18 is_stmt 0 view .LVU81
 274 0024 0023     		movs	r3, #0
 275 0026 8DF80630 		strb	r3, [sp, #6]
 582:../../Middlewares/LVGL/GUI/lvgl/src/misc/lv_text.c ****         bytes[3] = 0;
 276              		.loc 1 582 9 is_stmt 1 view .LVU82
 277              		.loc 1 582 18 is_stmt 0 view .LVU83
 278 002a 8DF80730 		strb	r3, [sp, #7]
 279              	.L23:
 583:../../Middlewares/LVGL/GUI/lvgl/src/misc/lv_text.c ****     }
 584:../../Middlewares/LVGL/GUI/lvgl/src/misc/lv_text.c ****     else if(letter_uni < 0x010000) {
 585:../../Middlewares/LVGL/GUI/lvgl/src/misc/lv_text.c ****         bytes[0] = ((letter_uni >> 12) & 0x0F) | 0xE0;
 586:../../Middlewares/LVGL/GUI/lvgl/src/misc/lv_text.c ****         bytes[1] = ((letter_uni >> 6) & 0x3F) | 0x80;
 587:../../Middlewares/LVGL/GUI/lvgl/src/misc/lv_text.c ****         bytes[2] = ((letter_uni >> 0) & 0x3F) | 0x80;
 588:../../Middlewares/LVGL/GUI/lvgl/src/misc/lv_text.c ****         bytes[3] = 0;
 589:../../Middlewares/LVGL/GUI/lvgl/src/misc/lv_text.c ****     }
 590:../../Middlewares/LVGL/GUI/lvgl/src/misc/lv_text.c ****     else if(letter_uni < 0x110000) {
 591:../../Middlewares/LVGL/GUI/lvgl/src/misc/lv_text.c ****         bytes[0] = ((letter_uni >> 18) & 0x07) | 0xF0;
 592:../../Middlewares/LVGL/GUI/lvgl/src/misc/lv_text.c ****         bytes[1] = ((letter_uni >> 12) & 0x3F) | 0x80;
 593:../../Middlewares/LVGL/GUI/lvgl/src/misc/lv_text.c ****         bytes[2] = ((letter_uni >> 6) & 0x3F) | 0x80;
 594:../../Middlewares/LVGL/GUI/lvgl/src/misc/lv_text.c ****         bytes[3] = ((letter_uni >> 0) & 0x3F) | 0x80;
 595:../../Middlewares/LVGL/GUI/lvgl/src/misc/lv_text.c ****     }
 596:../../Middlewares/LVGL/GUI/lvgl/src/misc/lv_text.c ****     else {
 597:../../Middlewares/LVGL/GUI/lvgl/src/misc/lv_text.c ****         return 0;
 598:../../Middlewares/LVGL/GUI/lvgl/src/misc/lv_text.c ****     }
 599:../../Middlewares/LVGL/GUI/lvgl/src/misc/lv_text.c **** 
 600:../../Middlewares/LVGL/GUI/lvgl/src/misc/lv_text.c ****     uint32_t * res_p = (uint32_t *)bytes;
 280              		.loc 1 600 5 is_stmt 1 view .LVU84
 281              	.LVL30:
 601:../../Middlewares/LVGL/GUI/lvgl/src/misc/lv_text.c ****     return *res_p;
 282              		.loc 1 601 5 view .LVU85
 283              		.loc 1 601 12 is_stmt 0 view .LVU86
 284 002e 0198     		ldr	r0, [sp, #4]
 285              	.LVL31:
 286              	.L20:
 602:../../Middlewares/LVGL/GUI/lvgl/src/misc/lv_text.c **** }
 287              		.loc 1 602 1 view .LVU87
 288 0030 02B0     		add	sp, sp, #8
 289              	.LCFI1:
 290              		.cfi_remember_state
 291              		.cfi_def_cfa_offset 0
 292              		@ sp needed
 293 0032 7047     		bx	lr
 294              	.LVL32:
 295              	.L22:
 296              	.LCFI2:
 297              		.cfi_restore_state
 584:../../Middlewares/LVGL/GUI/lvgl/src/misc/lv_text.c ****         bytes[0] = ((letter_uni >> 12) & 0x0F) | 0xE0;
 298              		.loc 1 584 10 is_stmt 1 view .LVU88
 584:../../Middlewares/LVGL/GUI/lvgl/src/misc/lv_text.c ****         bytes[0] = ((letter_uni >> 12) & 0x0F) | 0xE0;
 299              		.loc 1 584 12 is_stmt 0 view .LVU89
 300 0034 B0F5803F 		cmp	r0, #65536
 301 0038 15D2     		bcs	.L24
 585:../../Middlewares/LVGL/GUI/lvgl/src/misc/lv_text.c ****         bytes[1] = ((letter_uni >> 6) & 0x3F) | 0x80;
 302              		.loc 1 585 9 is_stmt 1 view .LVU90
 585:../../Middlewares/LVGL/GUI/lvgl/src/misc/lv_text.c ****         bytes[1] = ((letter_uni >> 6) & 0x3F) | 0x80;
ARM GAS  C:\Users\28576\AppData\Local\Temp\ccMimN1K.s 			page 20


 303              		.loc 1 585 40 is_stmt 0 view .LVU91
 304 003a C0F30333 		ubfx	r3, r0, #12, #4
 585:../../Middlewares/LVGL/GUI/lvgl/src/misc/lv_text.c ****         bytes[1] = ((letter_uni >> 6) & 0x3F) | 0x80;
 305              		.loc 1 585 48 view .LVU92
 306 003e 43F0E003 		orr	r3, r3, #224
 585:../../Middlewares/LVGL/GUI/lvgl/src/misc/lv_text.c ****         bytes[1] = ((letter_uni >> 6) & 0x3F) | 0x80;
 307              		.loc 1 585 18 view .LVU93
 308 0042 8DF80430 		strb	r3, [sp, #4]
 586:../../Middlewares/LVGL/GUI/lvgl/src/misc/lv_text.c ****         bytes[2] = ((letter_uni >> 0) & 0x3F) | 0x80;
 309              		.loc 1 586 9 is_stmt 1 view .LVU94
 586:../../Middlewares/LVGL/GUI/lvgl/src/misc/lv_text.c ****         bytes[2] = ((letter_uni >> 0) & 0x3F) | 0x80;
 310              		.loc 1 586 39 is_stmt 0 view .LVU95
 311 0046 C0F38513 		ubfx	r3, r0, #6, #6
 586:../../Middlewares/LVGL/GUI/lvgl/src/misc/lv_text.c ****         bytes[2] = ((letter_uni >> 0) & 0x3F) | 0x80;
 312              		.loc 1 586 47 view .LVU96
 313 004a 43F08003 		orr	r3, r3, #128
 586:../../Middlewares/LVGL/GUI/lvgl/src/misc/lv_text.c ****         bytes[2] = ((letter_uni >> 0) & 0x3F) | 0x80;
 314              		.loc 1 586 18 view .LVU97
 315 004e 8DF80530 		strb	r3, [sp, #5]
 587:../../Middlewares/LVGL/GUI/lvgl/src/misc/lv_text.c ****         bytes[3] = 0;
 316              		.loc 1 587 9 is_stmt 1 view .LVU98
 587:../../Middlewares/LVGL/GUI/lvgl/src/misc/lv_text.c ****         bytes[3] = 0;
 317              		.loc 1 587 39 is_stmt 0 view .LVU99
 318 0052 00F03F00 		and	r0, r0, #63
 319              	.LVL33:
 587:../../Middlewares/LVGL/GUI/lvgl/src/misc/lv_text.c ****         bytes[3] = 0;
 320              		.loc 1 587 47 view .LVU100
 321 0056 40F08000 		orr	r0, r0, #128
 587:../../Middlewares/LVGL/GUI/lvgl/src/misc/lv_text.c ****         bytes[3] = 0;
 322              		.loc 1 587 18 view .LVU101
 323 005a 8DF80600 		strb	r0, [sp, #6]
 588:../../Middlewares/LVGL/GUI/lvgl/src/misc/lv_text.c ****     }
 324              		.loc 1 588 9 is_stmt 1 view .LVU102
 588:../../Middlewares/LVGL/GUI/lvgl/src/misc/lv_text.c ****     }
 325              		.loc 1 588 18 is_stmt 0 view .LVU103
 326 005e 0023     		movs	r3, #0
 327 0060 8DF80730 		strb	r3, [sp, #7]
 328 0064 E3E7     		b	.L23
 329              	.LVL34:
 330              	.L24:
 590:../../Middlewares/LVGL/GUI/lvgl/src/misc/lv_text.c ****         bytes[0] = ((letter_uni >> 18) & 0x07) | 0xF0;
 331              		.loc 1 590 10 is_stmt 1 view .LVU104
 590:../../Middlewares/LVGL/GUI/lvgl/src/misc/lv_text.c ****         bytes[0] = ((letter_uni >> 18) & 0x07) | 0xF0;
 332              		.loc 1 590 12 is_stmt 0 view .LVU105
 333 0066 B0F5881F 		cmp	r0, #1114112
 334 006a 18D2     		bcs	.L26
 591:../../Middlewares/LVGL/GUI/lvgl/src/misc/lv_text.c ****         bytes[1] = ((letter_uni >> 12) & 0x3F) | 0x80;
 335              		.loc 1 591 9 is_stmt 1 view .LVU106
 591:../../Middlewares/LVGL/GUI/lvgl/src/misc/lv_text.c ****         bytes[1] = ((letter_uni >> 12) & 0x3F) | 0x80;
 336              		.loc 1 591 40 is_stmt 0 view .LVU107
 337 006c C0F38243 		ubfx	r3, r0, #18, #3
 591:../../Middlewares/LVGL/GUI/lvgl/src/misc/lv_text.c ****         bytes[1] = ((letter_uni >> 12) & 0x3F) | 0x80;
 338              		.loc 1 591 48 view .LVU108
 339 0070 43F0F003 		orr	r3, r3, #240
 591:../../Middlewares/LVGL/GUI/lvgl/src/misc/lv_text.c ****         bytes[1] = ((letter_uni >> 12) & 0x3F) | 0x80;
 340              		.loc 1 591 18 view .LVU109
 341 0074 8DF80430 		strb	r3, [sp, #4]
ARM GAS  C:\Users\28576\AppData\Local\Temp\ccMimN1K.s 			page 21


 592:../../Middlewares/LVGL/GUI/lvgl/src/misc/lv_text.c ****         bytes[2] = ((letter_uni >> 6) & 0x3F) | 0x80;
 342              		.loc 1 592 9 is_stmt 1 view .LVU110
 592:../../Middlewares/LVGL/GUI/lvgl/src/misc/lv_text.c ****         bytes[2] = ((letter_uni >> 6) & 0x3F) | 0x80;
 343              		.loc 1 592 40 is_stmt 0 view .LVU111
 344 0078 C0F30533 		ubfx	r3, r0, #12, #6
 592:../../Middlewares/LVGL/GUI/lvgl/src/misc/lv_text.c ****         bytes[2] = ((letter_uni >> 6) & 0x3F) | 0x80;
 345              		.loc 1 592 48 view .LVU112
 346 007c 43F08003 		orr	r3, r3, #128
 592:../../Middlewares/LVGL/GUI/lvgl/src/misc/lv_text.c ****         bytes[2] = ((letter_uni >> 6) & 0x3F) | 0x80;
 347              		.loc 1 592 18 view .LVU113
 348 0080 8DF80530 		strb	r3, [sp, #5]
 593:../../Middlewares/LVGL/GUI/lvgl/src/misc/lv_text.c ****         bytes[3] = ((letter_uni >> 0) & 0x3F) | 0x80;
 349              		.loc 1 593 9 is_stmt 1 view .LVU114
 593:../../Middlewares/LVGL/GUI/lvgl/src/misc/lv_text.c ****         bytes[3] = ((letter_uni >> 0) & 0x3F) | 0x80;
 350              		.loc 1 593 39 is_stmt 0 view .LVU115
 351 0084 C0F38513 		ubfx	r3, r0, #6, #6
 593:../../Middlewares/LVGL/GUI/lvgl/src/misc/lv_text.c ****         bytes[3] = ((letter_uni >> 0) & 0x3F) | 0x80;
 352              		.loc 1 593 47 view .LVU116
 353 0088 43F08003 		orr	r3, r3, #128
 593:../../Middlewares/LVGL/GUI/lvgl/src/misc/lv_text.c ****         bytes[3] = ((letter_uni >> 0) & 0x3F) | 0x80;
 354              		.loc 1 593 18 view .LVU117
 355 008c 8DF80630 		strb	r3, [sp, #6]
 594:../../Middlewares/LVGL/GUI/lvgl/src/misc/lv_text.c ****     }
 356              		.loc 1 594 9 is_stmt 1 view .LVU118
 594:../../Middlewares/LVGL/GUI/lvgl/src/misc/lv_text.c ****     }
 357              		.loc 1 594 39 is_stmt 0 view .LVU119
 358 0090 00F03F00 		and	r0, r0, #63
 359              	.LVL35:
 594:../../Middlewares/LVGL/GUI/lvgl/src/misc/lv_text.c ****     }
 360              		.loc 1 594 47 view .LVU120
 361 0094 40F08000 		orr	r0, r0, #128
 594:../../Middlewares/LVGL/GUI/lvgl/src/misc/lv_text.c ****     }
 362              		.loc 1 594 18 view .LVU121
 363 0098 8DF80700 		strb	r0, [sp, #7]
 364 009c C7E7     		b	.L23
 365              	.LVL36:
 366              	.L26:
 597:../../Middlewares/LVGL/GUI/lvgl/src/misc/lv_text.c ****     }
 367              		.loc 1 597 16 view .LVU122
 368 009e 0020     		movs	r0, #0
 369              	.LVL37:
 597:../../Middlewares/LVGL/GUI/lvgl/src/misc/lv_text.c ****     }
 370              		.loc 1 597 16 view .LVU123
 371 00a0 C6E7     		b	.L20
 372              	.LVL38:
 373              	.L28:
 374              	.LCFI3:
 375              		.cfi_def_cfa_offset 0
 376              		.loc 1 602 1 view .LVU124
 377 00a2 7047     		bx	lr
 378              		.cfi_endproc
 379              	.LFE33:
 381              		.section	.text.lv_text_utf8_next,"ax",%progbits
 382              		.align	1
 383              		.syntax unified
 384              		.thumb
 385              		.thumb_func
ARM GAS  C:\Users\28576\AppData\Local\Temp\ccMimN1K.s 			page 22


 387              	lv_text_utf8_next:
 388              	.LVL39:
 389              	.LFB35:
 603:../../Middlewares/LVGL/GUI/lvgl/src/misc/lv_text.c **** 
 604:../../Middlewares/LVGL/GUI/lvgl/src/misc/lv_text.c **** /**
 605:../../Middlewares/LVGL/GUI/lvgl/src/misc/lv_text.c ****  * Convert a wide character, e.g. 'Á' little endian to be UTF-8 compatible
 606:../../Middlewares/LVGL/GUI/lvgl/src/misc/lv_text.c ****  * @param c a wide character or a  Little endian number
 607:../../Middlewares/LVGL/GUI/lvgl/src/misc/lv_text.c ****  * @return `c` in big endian
 608:../../Middlewares/LVGL/GUI/lvgl/src/misc/lv_text.c ****  */
 609:../../Middlewares/LVGL/GUI/lvgl/src/misc/lv_text.c **** static uint32_t lv_text_utf8_conv_wc(uint32_t c)
 610:../../Middlewares/LVGL/GUI/lvgl/src/misc/lv_text.c **** {
 611:../../Middlewares/LVGL/GUI/lvgl/src/misc/lv_text.c **** #if LV_BIG_ENDIAN_SYSTEM == 0
 612:../../Middlewares/LVGL/GUI/lvgl/src/misc/lv_text.c ****     /*Swap the bytes (UTF-8 is big endian, but the MCUs are little endian)*/
 613:../../Middlewares/LVGL/GUI/lvgl/src/misc/lv_text.c ****     if((c & 0x80) != 0) {
 614:../../Middlewares/LVGL/GUI/lvgl/src/misc/lv_text.c ****         uint32_t swapped;
 615:../../Middlewares/LVGL/GUI/lvgl/src/misc/lv_text.c ****         uint8_t c8[4];
 616:../../Middlewares/LVGL/GUI/lvgl/src/misc/lv_text.c ****         lv_memcpy(c8, &c, 4);
 617:../../Middlewares/LVGL/GUI/lvgl/src/misc/lv_text.c ****         swapped = (c8[0] << 24) + (c8[1] << 16) + (c8[2] << 8) + (c8[3]);
 618:../../Middlewares/LVGL/GUI/lvgl/src/misc/lv_text.c ****         uint8_t i;
 619:../../Middlewares/LVGL/GUI/lvgl/src/misc/lv_text.c ****         for(i = 0; i < 4; i++) {
 620:../../Middlewares/LVGL/GUI/lvgl/src/misc/lv_text.c ****             if((swapped & 0xFF) == 0)
 621:../../Middlewares/LVGL/GUI/lvgl/src/misc/lv_text.c ****                 swapped = (swapped >> 8); /*Ignore leading zeros (they were in the end originally)*
 622:../../Middlewares/LVGL/GUI/lvgl/src/misc/lv_text.c ****         }
 623:../../Middlewares/LVGL/GUI/lvgl/src/misc/lv_text.c ****         c = swapped;
 624:../../Middlewares/LVGL/GUI/lvgl/src/misc/lv_text.c ****     }
 625:../../Middlewares/LVGL/GUI/lvgl/src/misc/lv_text.c **** #endif
 626:../../Middlewares/LVGL/GUI/lvgl/src/misc/lv_text.c ****     return c;
 627:../../Middlewares/LVGL/GUI/lvgl/src/misc/lv_text.c **** }
 628:../../Middlewares/LVGL/GUI/lvgl/src/misc/lv_text.c **** 
 629:../../Middlewares/LVGL/GUI/lvgl/src/misc/lv_text.c **** /**
 630:../../Middlewares/LVGL/GUI/lvgl/src/misc/lv_text.c ****  * Decode an UTF-8 character from a string.
 631:../../Middlewares/LVGL/GUI/lvgl/src/misc/lv_text.c ****  * @param txt pointer to '\0' terminated string
 632:../../Middlewares/LVGL/GUI/lvgl/src/misc/lv_text.c ****  * @param i start byte index in 'txt' where to start.
 633:../../Middlewares/LVGL/GUI/lvgl/src/misc/lv_text.c ****  *          After call it will point to the next UTF-8 char in 'txt'.
 634:../../Middlewares/LVGL/GUI/lvgl/src/misc/lv_text.c ****  *          NULL to use txt[0] as index
 635:../../Middlewares/LVGL/GUI/lvgl/src/misc/lv_text.c ****  * @return the decoded Unicode character or 0 on invalid UTF-8 code
 636:../../Middlewares/LVGL/GUI/lvgl/src/misc/lv_text.c ****  */
 637:../../Middlewares/LVGL/GUI/lvgl/src/misc/lv_text.c **** static uint32_t lv_text_utf8_next(const char * txt, uint32_t * i)
 638:../../Middlewares/LVGL/GUI/lvgl/src/misc/lv_text.c **** {
 390              		.loc 1 638 1 is_stmt 1 view -0
 391              		.cfi_startproc
 392              		@ args = 0, pretend = 0, frame = 8
 393              		@ frame_needed = 0, uses_anonymous_args = 0
 394              		.loc 1 638 1 is_stmt 0 view .LVU126
 395 0000 00B5     		push	{lr}
 396              	.LCFI4:
 397              		.cfi_def_cfa_offset 4
 398              		.cfi_offset 14, -4
 399 0002 83B0     		sub	sp, sp, #12
 400              	.LCFI5:
 401              		.cfi_def_cfa_offset 16
 639:../../Middlewares/LVGL/GUI/lvgl/src/misc/lv_text.c ****     /**
 640:../../Middlewares/LVGL/GUI/lvgl/src/misc/lv_text.c ****      * Unicode to UTF-8
 641:../../Middlewares/LVGL/GUI/lvgl/src/misc/lv_text.c ****      * 00000000 00000000 00000000 0xxxxxxx -> 0xxxxxxx
 642:../../Middlewares/LVGL/GUI/lvgl/src/misc/lv_text.c ****      * 00000000 00000000 00000yyy yyxxxxxx -> 110yyyyy 10xxxxxx
 643:../../Middlewares/LVGL/GUI/lvgl/src/misc/lv_text.c ****      * 00000000 00000000 zzzzyyyy yyxxxxxx -> 1110zzzz 10yyyyyy 10xxxxxx
 644:../../Middlewares/LVGL/GUI/lvgl/src/misc/lv_text.c ****      * 00000000 000wwwzz zzzzyyyy yyxxxxxx -> 11110www 10zzzzzz 10yyyyyy 10xxxxxx
ARM GAS  C:\Users\28576\AppData\Local\Temp\ccMimN1K.s 			page 23


 645:../../Middlewares/LVGL/GUI/lvgl/src/misc/lv_text.c ****      */
 646:../../Middlewares/LVGL/GUI/lvgl/src/misc/lv_text.c **** 
 647:../../Middlewares/LVGL/GUI/lvgl/src/misc/lv_text.c ****     uint32_t result = 0;
 402              		.loc 1 647 5 is_stmt 1 view .LVU127
 403              	.LVL40:
 648:../../Middlewares/LVGL/GUI/lvgl/src/misc/lv_text.c **** 
 649:../../Middlewares/LVGL/GUI/lvgl/src/misc/lv_text.c ****     /*Dummy 'i' pointer is required*/
 650:../../Middlewares/LVGL/GUI/lvgl/src/misc/lv_text.c ****     uint32_t i_tmp = 0;
 404              		.loc 1 650 5 view .LVU128
 405              		.loc 1 650 14 is_stmt 0 view .LVU129
 406 0004 0023     		movs	r3, #0
 407 0006 0193     		str	r3, [sp, #4]
 651:../../Middlewares/LVGL/GUI/lvgl/src/misc/lv_text.c ****     if(i == NULL) i = &i_tmp;
 408              		.loc 1 651 5 is_stmt 1 view .LVU130
 409              		.loc 1 651 7 is_stmt 0 view .LVU131
 410 0008 8C46     		mov	ip, r1
 411 000a 71B1     		cbz	r1, .L48
 412              	.L32:
 413              	.LVL41:
 652:../../Middlewares/LVGL/GUI/lvgl/src/misc/lv_text.c **** 
 653:../../Middlewares/LVGL/GUI/lvgl/src/misc/lv_text.c ****     /* Ensure the string is not null */
 654:../../Middlewares/LVGL/GUI/lvgl/src/misc/lv_text.c ****     if(txt == NULL || txt[*i] == '\0') {
 414              		.loc 1 654 5 is_stmt 1 view .LVU132
 415              		.loc 1 654 7 is_stmt 0 view .LVU133
 416 000c 58B1     		cbz	r0, .L31
 417              		.loc 1 654 27 discriminator 1 view .LVU134
 418 000e DCF80020 		ldr	r2, [ip]
 419              		.loc 1 654 26 discriminator 1 view .LVU135
 420 0012 835C     		ldrb	r3, [r0, r2]	@ zero_extendqisi2
 421              		.loc 1 654 20 discriminator 1 view .LVU136
 422 0014 002B     		cmp	r3, #0
 423 0016 78D0     		beq	.L40
 655:../../Middlewares/LVGL/GUI/lvgl/src/misc/lv_text.c ****         return result;
 656:../../Middlewares/LVGL/GUI/lvgl/src/misc/lv_text.c ****     }
 657:../../Middlewares/LVGL/GUI/lvgl/src/misc/lv_text.c **** 
 658:../../Middlewares/LVGL/GUI/lvgl/src/misc/lv_text.c ****     /*Normal ASCII*/
 659:../../Middlewares/LVGL/GUI/lvgl/src/misc/lv_text.c ****     if(LV_IS_ASCII(txt[*i])) {
 424              		.loc 1 659 5 is_stmt 1 view .LVU137
 425              		.loc 1 659 7 is_stmt 0 view .LVU138
 426 0018 13F0800F 		tst	r3, #128
 427 001c 08D1     		bne	.L34
 660:../../Middlewares/LVGL/GUI/lvgl/src/misc/lv_text.c ****         result = txt[*i];
 428              		.loc 1 660 9 is_stmt 1 view .LVU139
 429              		.loc 1 660 16 is_stmt 0 view .LVU140
 430 001e 1846     		mov	r0, r3
 431              	.LVL42:
 661:../../Middlewares/LVGL/GUI/lvgl/src/misc/lv_text.c ****         (*i)++;
 432              		.loc 1 661 9 is_stmt 1 view .LVU141
 433              		.loc 1 661 13 is_stmt 0 view .LVU142
 434 0020 0132     		adds	r2, r2, #1
 435 0022 CCF80020 		str	r2, [ip]
 436              	.LVL43:
 437              	.L31:
 662:../../Middlewares/LVGL/GUI/lvgl/src/misc/lv_text.c ****     }
 663:../../Middlewares/LVGL/GUI/lvgl/src/misc/lv_text.c ****     /*Real UTF-8 decode*/
 664:../../Middlewares/LVGL/GUI/lvgl/src/misc/lv_text.c ****     else {
 665:../../Middlewares/LVGL/GUI/lvgl/src/misc/lv_text.c ****         /*2 bytes UTF-8 code*/
ARM GAS  C:\Users\28576\AppData\Local\Temp\ccMimN1K.s 			page 24


 666:../../Middlewares/LVGL/GUI/lvgl/src/misc/lv_text.c ****         if(LV_IS_2BYTES_UTF8_CODE(txt[*i])) {
 667:../../Middlewares/LVGL/GUI/lvgl/src/misc/lv_text.c ****             result = (uint32_t)(txt[*i] & 0x1F) << 6;
 668:../../Middlewares/LVGL/GUI/lvgl/src/misc/lv_text.c ****             (*i)++;
 669:../../Middlewares/LVGL/GUI/lvgl/src/misc/lv_text.c ****             if(LV_IS_INVALID_UTF8_CODE(txt[*i])) return 0;
 670:../../Middlewares/LVGL/GUI/lvgl/src/misc/lv_text.c ****             result += (txt[*i] & 0x3F);
 671:../../Middlewares/LVGL/GUI/lvgl/src/misc/lv_text.c ****             (*i)++;
 672:../../Middlewares/LVGL/GUI/lvgl/src/misc/lv_text.c ****         }
 673:../../Middlewares/LVGL/GUI/lvgl/src/misc/lv_text.c ****         /*3 bytes UTF-8 code*/
 674:../../Middlewares/LVGL/GUI/lvgl/src/misc/lv_text.c ****         else if(LV_IS_3BYTES_UTF8_CODE(txt[*i])) {
 675:../../Middlewares/LVGL/GUI/lvgl/src/misc/lv_text.c ****             result = (uint32_t)(txt[*i] & 0x0F) << 12;
 676:../../Middlewares/LVGL/GUI/lvgl/src/misc/lv_text.c ****             (*i)++;
 677:../../Middlewares/LVGL/GUI/lvgl/src/misc/lv_text.c **** 
 678:../../Middlewares/LVGL/GUI/lvgl/src/misc/lv_text.c ****             if(LV_IS_INVALID_UTF8_CODE(txt[*i])) return 0;
 679:../../Middlewares/LVGL/GUI/lvgl/src/misc/lv_text.c ****             result += (uint32_t)(txt[*i] & 0x3F) << 6;
 680:../../Middlewares/LVGL/GUI/lvgl/src/misc/lv_text.c ****             (*i)++;
 681:../../Middlewares/LVGL/GUI/lvgl/src/misc/lv_text.c **** 
 682:../../Middlewares/LVGL/GUI/lvgl/src/misc/lv_text.c ****             if(LV_IS_INVALID_UTF8_CODE(txt[*i])) return 0;
 683:../../Middlewares/LVGL/GUI/lvgl/src/misc/lv_text.c ****             result += (txt[*i] & 0x3F);
 684:../../Middlewares/LVGL/GUI/lvgl/src/misc/lv_text.c ****             (*i)++;
 685:../../Middlewares/LVGL/GUI/lvgl/src/misc/lv_text.c ****         }
 686:../../Middlewares/LVGL/GUI/lvgl/src/misc/lv_text.c ****         /*4 bytes UTF-8 code*/
 687:../../Middlewares/LVGL/GUI/lvgl/src/misc/lv_text.c ****         else if(LV_IS_4BYTES_UTF8_CODE(txt[*i])) {
 688:../../Middlewares/LVGL/GUI/lvgl/src/misc/lv_text.c ****             result = (uint32_t)(txt[*i] & 0x07) << 18;
 689:../../Middlewares/LVGL/GUI/lvgl/src/misc/lv_text.c ****             (*i)++;
 690:../../Middlewares/LVGL/GUI/lvgl/src/misc/lv_text.c **** 
 691:../../Middlewares/LVGL/GUI/lvgl/src/misc/lv_text.c ****             if(LV_IS_INVALID_UTF8_CODE(txt[*i])) return 0;
 692:../../Middlewares/LVGL/GUI/lvgl/src/misc/lv_text.c ****             result += (uint32_t)(txt[*i] & 0x3F) << 12;
 693:../../Middlewares/LVGL/GUI/lvgl/src/misc/lv_text.c ****             (*i)++;
 694:../../Middlewares/LVGL/GUI/lvgl/src/misc/lv_text.c **** 
 695:../../Middlewares/LVGL/GUI/lvgl/src/misc/lv_text.c ****             if(LV_IS_INVALID_UTF8_CODE(txt[*i])) return 0;
 696:../../Middlewares/LVGL/GUI/lvgl/src/misc/lv_text.c ****             result += (uint32_t)(txt[*i] & 0x3F) << 6;
 697:../../Middlewares/LVGL/GUI/lvgl/src/misc/lv_text.c ****             (*i)++;
 698:../../Middlewares/LVGL/GUI/lvgl/src/misc/lv_text.c **** 
 699:../../Middlewares/LVGL/GUI/lvgl/src/misc/lv_text.c ****             if(LV_IS_INVALID_UTF8_CODE(txt[*i])) return 0;
 700:../../Middlewares/LVGL/GUI/lvgl/src/misc/lv_text.c ****             result += txt[*i] & 0x3F;
 701:../../Middlewares/LVGL/GUI/lvgl/src/misc/lv_text.c ****             (*i)++;
 702:../../Middlewares/LVGL/GUI/lvgl/src/misc/lv_text.c ****         }
 703:../../Middlewares/LVGL/GUI/lvgl/src/misc/lv_text.c ****         else {
 704:../../Middlewares/LVGL/GUI/lvgl/src/misc/lv_text.c ****             (*i)++; /*Not UTF-8 char. Go the next.*/
 705:../../Middlewares/LVGL/GUI/lvgl/src/misc/lv_text.c ****         }
 706:../../Middlewares/LVGL/GUI/lvgl/src/misc/lv_text.c ****     }
 707:../../Middlewares/LVGL/GUI/lvgl/src/misc/lv_text.c ****     return result;
 708:../../Middlewares/LVGL/GUI/lvgl/src/misc/lv_text.c **** }
 438              		.loc 1 708 1 view .LVU143
 439 0026 03B0     		add	sp, sp, #12
 440              	.LCFI6:
 441              		.cfi_remember_state
 442              		.cfi_def_cfa_offset 4
 443              		@ sp needed
 444 0028 00BD     		pop	{pc}
 445              	.LVL44:
 446              	.L48:
 447              	.LCFI7:
 448              		.cfi_restore_state
 651:../../Middlewares/LVGL/GUI/lvgl/src/misc/lv_text.c **** 
 449              		.loc 1 651 21 discriminator 1 view .LVU144
 450 002a 0DF1040C 		add	ip, sp, #4
ARM GAS  C:\Users\28576\AppData\Local\Temp\ccMimN1K.s 			page 25


 451 002e EDE7     		b	.L32
 452              	.LVL45:
 453              	.L34:
 666:../../Middlewares/LVGL/GUI/lvgl/src/misc/lv_text.c ****             result = (uint32_t)(txt[*i] & 0x1F) << 6;
 454              		.loc 1 666 9 is_stmt 1 view .LVU145
 666:../../Middlewares/LVGL/GUI/lvgl/src/misc/lv_text.c ****             result = (uint32_t)(txt[*i] & 0x1F) << 6;
 455              		.loc 1 666 11 is_stmt 0 view .LVU146
 456 0030 03F0E001 		and	r1, r3, #224
 457 0034 C029     		cmp	r1, #192
 458 0036 0CD0     		beq	.L49
 674:../../Middlewares/LVGL/GUI/lvgl/src/misc/lv_text.c ****             result = (uint32_t)(txt[*i] & 0x0F) << 12;
 459              		.loc 1 674 14 is_stmt 1 view .LVU147
 674:../../Middlewares/LVGL/GUI/lvgl/src/misc/lv_text.c ****             result = (uint32_t)(txt[*i] & 0x0F) << 12;
 460              		.loc 1 674 16 is_stmt 0 view .LVU148
 461 0038 03F0F001 		and	r1, r3, #240
 462 003c E029     		cmp	r1, #224
 463 003e 1AD0     		beq	.L50
 687:../../Middlewares/LVGL/GUI/lvgl/src/misc/lv_text.c ****             result = (uint32_t)(txt[*i] & 0x07) << 18;
 464              		.loc 1 687 14 is_stmt 1 view .LVU149
 687:../../Middlewares/LVGL/GUI/lvgl/src/misc/lv_text.c ****             result = (uint32_t)(txt[*i] & 0x07) << 18;
 465              		.loc 1 687 16 is_stmt 0 view .LVU150
 466 0040 03F0F801 		and	r1, r3, #248
 467 0044 F029     		cmp	r1, #240
 468 0046 34D0     		beq	.L51
 704:../../Middlewares/LVGL/GUI/lvgl/src/misc/lv_text.c ****         }
 469              		.loc 1 704 13 is_stmt 1 view .LVU151
 704:../../Middlewares/LVGL/GUI/lvgl/src/misc/lv_text.c ****         }
 470              		.loc 1 704 17 is_stmt 0 view .LVU152
 471 0048 0132     		adds	r2, r2, #1
 472 004a CCF80020 		str	r2, [ip]
 647:../../Middlewares/LVGL/GUI/lvgl/src/misc/lv_text.c **** 
 473              		.loc 1 647 14 view .LVU153
 474 004e 0020     		movs	r0, #0
 475              	.LVL46:
 647:../../Middlewares/LVGL/GUI/lvgl/src/misc/lv_text.c **** 
 476              		.loc 1 647 14 view .LVU154
 477 0050 E9E7     		b	.L31
 478              	.LVL47:
 479              	.L49:
 667:../../Middlewares/LVGL/GUI/lvgl/src/misc/lv_text.c ****             (*i)++;
 480              		.loc 1 667 13 is_stmt 1 view .LVU155
 667:../../Middlewares/LVGL/GUI/lvgl/src/misc/lv_text.c ****             (*i)++;
 481              		.loc 1 667 49 is_stmt 0 view .LVU156
 482 0052 9B01     		lsls	r3, r3, #6
 667:../../Middlewares/LVGL/GUI/lvgl/src/misc/lv_text.c ****             (*i)++;
 483              		.loc 1 667 20 view .LVU157
 484 0054 03F4F863 		and	r3, r3, #1984
 485              	.LVL48:
 668:../../Middlewares/LVGL/GUI/lvgl/src/misc/lv_text.c ****             if(LV_IS_INVALID_UTF8_CODE(txt[*i])) return 0;
 486              		.loc 1 668 13 is_stmt 1 view .LVU158
 668:../../Middlewares/LVGL/GUI/lvgl/src/misc/lv_text.c ****             if(LV_IS_INVALID_UTF8_CODE(txt[*i])) return 0;
 487              		.loc 1 668 17 is_stmt 0 view .LVU159
 488 0058 511C     		adds	r1, r2, #1
 489 005a CCF80010 		str	r1, [ip]
 669:../../Middlewares/LVGL/GUI/lvgl/src/misc/lv_text.c ****             result += (txt[*i] & 0x3F);
 490              		.loc 1 669 13 is_stmt 1 view .LVU160
 669:../../Middlewares/LVGL/GUI/lvgl/src/misc/lv_text.c ****             result += (txt[*i] & 0x3F);
ARM GAS  C:\Users\28576\AppData\Local\Temp\ccMimN1K.s 			page 26


 491              		.loc 1 669 16 is_stmt 0 view .LVU161
 492 005e 415C     		ldrb	r1, [r0, r1]	@ zero_extendqisi2
 669:../../Middlewares/LVGL/GUI/lvgl/src/misc/lv_text.c ****             result += (txt[*i] & 0x3F);
 493              		.loc 1 669 15 view .LVU162
 494 0060 01F0C000 		and	r0, r1, #192
 495              	.LVL49:
 669:../../Middlewares/LVGL/GUI/lvgl/src/misc/lv_text.c ****             result += (txt[*i] & 0x3F);
 496              		.loc 1 669 15 view .LVU163
 497 0064 8028     		cmp	r0, #128
 498 0066 52D1     		bne	.L41
 670:../../Middlewares/LVGL/GUI/lvgl/src/misc/lv_text.c ****             (*i)++;
 499              		.loc 1 670 13 is_stmt 1 view .LVU164
 670:../../Middlewares/LVGL/GUI/lvgl/src/misc/lv_text.c ****             (*i)++;
 500              		.loc 1 670 32 is_stmt 0 view .LVU165
 501 0068 01F03F01 		and	r1, r1, #63
 670:../../Middlewares/LVGL/GUI/lvgl/src/misc/lv_text.c ****             (*i)++;
 502              		.loc 1 670 20 view .LVU166
 503 006c C818     		adds	r0, r1, r3
 504              	.LVL50:
 671:../../Middlewares/LVGL/GUI/lvgl/src/misc/lv_text.c ****         }
 505              		.loc 1 671 13 is_stmt 1 view .LVU167
 671:../../Middlewares/LVGL/GUI/lvgl/src/misc/lv_text.c ****         }
 506              		.loc 1 671 17 is_stmt 0 view .LVU168
 507 006e 0232     		adds	r2, r2, #2
 508 0070 CCF80020 		str	r2, [ip]
 509 0074 D7E7     		b	.L31
 510              	.LVL51:
 511              	.L50:
 675:../../Middlewares/LVGL/GUI/lvgl/src/misc/lv_text.c ****             (*i)++;
 512              		.loc 1 675 13 is_stmt 1 view .LVU169
 675:../../Middlewares/LVGL/GUI/lvgl/src/misc/lv_text.c ****             (*i)++;
 513              		.loc 1 675 49 is_stmt 0 view .LVU170
 514 0076 1B03     		lsls	r3, r3, #12
 675:../../Middlewares/LVGL/GUI/lvgl/src/misc/lv_text.c ****             (*i)++;
 515              		.loc 1 675 20 view .LVU171
 516 0078 9BB2     		uxth	r3, r3
 517              	.LVL52:
 676:../../Middlewares/LVGL/GUI/lvgl/src/misc/lv_text.c **** 
 518              		.loc 1 676 13 is_stmt 1 view .LVU172
 676:../../Middlewares/LVGL/GUI/lvgl/src/misc/lv_text.c **** 
 519              		.loc 1 676 17 is_stmt 0 view .LVU173
 520 007a 511C     		adds	r1, r2, #1
 521 007c CCF80010 		str	r1, [ip]
 678:../../Middlewares/LVGL/GUI/lvgl/src/misc/lv_text.c ****             result += (uint32_t)(txt[*i] & 0x3F) << 6;
 522              		.loc 1 678 13 is_stmt 1 view .LVU174
 678:../../Middlewares/LVGL/GUI/lvgl/src/misc/lv_text.c ****             result += (uint32_t)(txt[*i] & 0x3F) << 6;
 523              		.loc 1 678 16 is_stmt 0 view .LVU175
 524 0080 415C     		ldrb	r1, [r0, r1]	@ zero_extendqisi2
 678:../../Middlewares/LVGL/GUI/lvgl/src/misc/lv_text.c ****             result += (uint32_t)(txt[*i] & 0x3F) << 6;
 525              		.loc 1 678 15 view .LVU176
 526 0082 01F0C00E 		and	lr, r1, #192
 527 0086 BEF1800F 		cmp	lr, #128
 528 008a 42D1     		bne	.L42
 679:../../Middlewares/LVGL/GUI/lvgl/src/misc/lv_text.c ****             (*i)++;
 529              		.loc 1 679 13 is_stmt 1 view .LVU177
 679:../../Middlewares/LVGL/GUI/lvgl/src/misc/lv_text.c ****             (*i)++;
 530              		.loc 1 679 50 is_stmt 0 view .LVU178
ARM GAS  C:\Users\28576\AppData\Local\Temp\ccMimN1K.s 			page 27


 531 008c 8901     		lsls	r1, r1, #6
 532 008e 01F47C61 		and	r1, r1, #4032
 679:../../Middlewares/LVGL/GUI/lvgl/src/misc/lv_text.c ****             (*i)++;
 533              		.loc 1 679 20 view .LVU179
 534 0092 1944     		add	r1, r1, r3
 535              	.LVL53:
 680:../../Middlewares/LVGL/GUI/lvgl/src/misc/lv_text.c **** 
 536              		.loc 1 680 13 is_stmt 1 view .LVU180
 680:../../Middlewares/LVGL/GUI/lvgl/src/misc/lv_text.c **** 
 537              		.loc 1 680 17 is_stmt 0 view .LVU181
 538 0094 931C     		adds	r3, r2, #2
 539 0096 CCF80030 		str	r3, [ip]
 682:../../Middlewares/LVGL/GUI/lvgl/src/misc/lv_text.c ****             result += (txt[*i] & 0x3F);
 540              		.loc 1 682 13 is_stmt 1 view .LVU182
 682:../../Middlewares/LVGL/GUI/lvgl/src/misc/lv_text.c ****             result += (txt[*i] & 0x3F);
 541              		.loc 1 682 16 is_stmt 0 view .LVU183
 542 009a C35C     		ldrb	r3, [r0, r3]	@ zero_extendqisi2
 682:../../Middlewares/LVGL/GUI/lvgl/src/misc/lv_text.c ****             result += (txt[*i] & 0x3F);
 543              		.loc 1 682 15 view .LVU184
 544 009c 03F0C000 		and	r0, r3, #192
 545              	.LVL54:
 682:../../Middlewares/LVGL/GUI/lvgl/src/misc/lv_text.c ****             result += (txt[*i] & 0x3F);
 546              		.loc 1 682 15 view .LVU185
 547 00a0 8028     		cmp	r0, #128
 548 00a2 38D1     		bne	.L43
 683:../../Middlewares/LVGL/GUI/lvgl/src/misc/lv_text.c ****             (*i)++;
 549              		.loc 1 683 13 is_stmt 1 view .LVU186
 683:../../Middlewares/LVGL/GUI/lvgl/src/misc/lv_text.c ****             (*i)++;
 550              		.loc 1 683 32 is_stmt 0 view .LVU187
 551 00a4 03F03F03 		and	r3, r3, #63
 683:../../Middlewares/LVGL/GUI/lvgl/src/misc/lv_text.c ****             (*i)++;
 552              		.loc 1 683 20 view .LVU188
 553 00a8 5818     		adds	r0, r3, r1
 554              	.LVL55:
 684:../../Middlewares/LVGL/GUI/lvgl/src/misc/lv_text.c ****         }
 555              		.loc 1 684 13 is_stmt 1 view .LVU189
 684:../../Middlewares/LVGL/GUI/lvgl/src/misc/lv_text.c ****         }
 556              		.loc 1 684 17 is_stmt 0 view .LVU190
 557 00aa 0332     		adds	r2, r2, #3
 558 00ac CCF80020 		str	r2, [ip]
 559 00b0 B9E7     		b	.L31
 560              	.LVL56:
 561              	.L51:
 688:../../Middlewares/LVGL/GUI/lvgl/src/misc/lv_text.c ****             (*i)++;
 562              		.loc 1 688 13 is_stmt 1 view .LVU191
 688:../../Middlewares/LVGL/GUI/lvgl/src/misc/lv_text.c ****             (*i)++;
 563              		.loc 1 688 49 is_stmt 0 view .LVU192
 564 00b2 9B04     		lsls	r3, r3, #18
 688:../../Middlewares/LVGL/GUI/lvgl/src/misc/lv_text.c ****             (*i)++;
 565              		.loc 1 688 20 view .LVU193
 566 00b4 03F4E013 		and	r3, r3, #1835008
 567              	.LVL57:
 689:../../Middlewares/LVGL/GUI/lvgl/src/misc/lv_text.c **** 
 568              		.loc 1 689 13 is_stmt 1 view .LVU194
 689:../../Middlewares/LVGL/GUI/lvgl/src/misc/lv_text.c **** 
 569              		.loc 1 689 17 is_stmt 0 view .LVU195
 570 00b8 511C     		adds	r1, r2, #1
ARM GAS  C:\Users\28576\AppData\Local\Temp\ccMimN1K.s 			page 28


 571 00ba CCF80010 		str	r1, [ip]
 691:../../Middlewares/LVGL/GUI/lvgl/src/misc/lv_text.c ****             result += (uint32_t)(txt[*i] & 0x3F) << 12;
 572              		.loc 1 691 13 is_stmt 1 view .LVU196
 691:../../Middlewares/LVGL/GUI/lvgl/src/misc/lv_text.c ****             result += (uint32_t)(txt[*i] & 0x3F) << 12;
 573              		.loc 1 691 16 is_stmt 0 view .LVU197
 574 00be 415C     		ldrb	r1, [r0, r1]	@ zero_extendqisi2
 691:../../Middlewares/LVGL/GUI/lvgl/src/misc/lv_text.c ****             result += (uint32_t)(txt[*i] & 0x3F) << 12;
 575              		.loc 1 691 15 view .LVU198
 576 00c0 01F0C00E 		and	lr, r1, #192
 577 00c4 BEF1800F 		cmp	lr, #128
 578 00c8 27D1     		bne	.L44
 692:../../Middlewares/LVGL/GUI/lvgl/src/misc/lv_text.c ****             (*i)++;
 579              		.loc 1 692 13 is_stmt 1 view .LVU199
 692:../../Middlewares/LVGL/GUI/lvgl/src/misc/lv_text.c ****             (*i)++;
 580              		.loc 1 692 50 is_stmt 0 view .LVU200
 581 00ca 0903     		lsls	r1, r1, #12
 582 00cc 01F47C31 		and	r1, r1, #258048
 692:../../Middlewares/LVGL/GUI/lvgl/src/misc/lv_text.c ****             (*i)++;
 583              		.loc 1 692 20 view .LVU201
 584 00d0 1943     		orrs	r1, r1, r3
 585              	.LVL58:
 693:../../Middlewares/LVGL/GUI/lvgl/src/misc/lv_text.c **** 
 586              		.loc 1 693 13 is_stmt 1 view .LVU202
 693:../../Middlewares/LVGL/GUI/lvgl/src/misc/lv_text.c **** 
 587              		.loc 1 693 17 is_stmt 0 view .LVU203
 588 00d2 931C     		adds	r3, r2, #2
 589 00d4 CCF80030 		str	r3, [ip]
 695:../../Middlewares/LVGL/GUI/lvgl/src/misc/lv_text.c ****             result += (uint32_t)(txt[*i] & 0x3F) << 6;
 590              		.loc 1 695 13 is_stmt 1 view .LVU204
 695:../../Middlewares/LVGL/GUI/lvgl/src/misc/lv_text.c ****             result += (uint32_t)(txt[*i] & 0x3F) << 6;
 591              		.loc 1 695 16 is_stmt 0 view .LVU205
 592 00d8 C35C     		ldrb	r3, [r0, r3]	@ zero_extendqisi2
 695:../../Middlewares/LVGL/GUI/lvgl/src/misc/lv_text.c ****             result += (uint32_t)(txt[*i] & 0x3F) << 6;
 593              		.loc 1 695 15 view .LVU206
 594 00da 03F0C00E 		and	lr, r3, #192
 595 00de BEF1800F 		cmp	lr, #128
 596 00e2 1CD1     		bne	.L45
 696:../../Middlewares/LVGL/GUI/lvgl/src/misc/lv_text.c ****             (*i)++;
 597              		.loc 1 696 13 is_stmt 1 view .LVU207
 696:../../Middlewares/LVGL/GUI/lvgl/src/misc/lv_text.c ****             (*i)++;
 598              		.loc 1 696 50 is_stmt 0 view .LVU208
 599 00e4 9B01     		lsls	r3, r3, #6
 600 00e6 03F47C63 		and	r3, r3, #4032
 696:../../Middlewares/LVGL/GUI/lvgl/src/misc/lv_text.c ****             (*i)++;
 601              		.loc 1 696 20 view .LVU209
 602 00ea 1944     		add	r1, r1, r3
 603              	.LVL59:
 697:../../Middlewares/LVGL/GUI/lvgl/src/misc/lv_text.c **** 
 604              		.loc 1 697 13 is_stmt 1 view .LVU210
 697:../../Middlewares/LVGL/GUI/lvgl/src/misc/lv_text.c **** 
 605              		.loc 1 697 17 is_stmt 0 view .LVU211
 606 00ec D31C     		adds	r3, r2, #3
 607 00ee CCF80030 		str	r3, [ip]
 699:../../Middlewares/LVGL/GUI/lvgl/src/misc/lv_text.c ****             result += txt[*i] & 0x3F;
 608              		.loc 1 699 13 is_stmt 1 view .LVU212
 699:../../Middlewares/LVGL/GUI/lvgl/src/misc/lv_text.c ****             result += txt[*i] & 0x3F;
 609              		.loc 1 699 16 is_stmt 0 view .LVU213
ARM GAS  C:\Users\28576\AppData\Local\Temp\ccMimN1K.s 			page 29


 610 00f2 C35C     		ldrb	r3, [r0, r3]	@ zero_extendqisi2
 699:../../Middlewares/LVGL/GUI/lvgl/src/misc/lv_text.c ****             result += txt[*i] & 0x3F;
 611              		.loc 1 699 15 view .LVU214
 612 00f4 03F0C000 		and	r0, r3, #192
 613              	.LVL60:
 699:../../Middlewares/LVGL/GUI/lvgl/src/misc/lv_text.c ****             result += txt[*i] & 0x3F;
 614              		.loc 1 699 15 view .LVU215
 615 00f8 8028     		cmp	r0, #128
 616 00fa 12D1     		bne	.L46
 700:../../Middlewares/LVGL/GUI/lvgl/src/misc/lv_text.c ****             (*i)++;
 617              		.loc 1 700 13 is_stmt 1 view .LVU216
 700:../../Middlewares/LVGL/GUI/lvgl/src/misc/lv_text.c ****             (*i)++;
 618              		.loc 1 700 31 is_stmt 0 view .LVU217
 619 00fc 03F03F03 		and	r3, r3, #63
 700:../../Middlewares/LVGL/GUI/lvgl/src/misc/lv_text.c ****             (*i)++;
 620              		.loc 1 700 20 view .LVU218
 621 0100 5818     		adds	r0, r3, r1
 622              	.LVL61:
 701:../../Middlewares/LVGL/GUI/lvgl/src/misc/lv_text.c ****         }
 623              		.loc 1 701 13 is_stmt 1 view .LVU219
 701:../../Middlewares/LVGL/GUI/lvgl/src/misc/lv_text.c ****         }
 624              		.loc 1 701 17 is_stmt 0 view .LVU220
 625 0102 0432     		adds	r2, r2, #4
 626 0104 CCF80020 		str	r2, [ip]
 627 0108 8DE7     		b	.L31
 628              	.LVL62:
 629              	.L40:
 655:../../Middlewares/LVGL/GUI/lvgl/src/misc/lv_text.c ****     }
 630              		.loc 1 655 16 view .LVU221
 631 010a 1846     		mov	r0, r3
 632              	.LVL63:
 655:../../Middlewares/LVGL/GUI/lvgl/src/misc/lv_text.c ****     }
 633              		.loc 1 655 16 view .LVU222
 634 010c 8BE7     		b	.L31
 635              	.LVL64:
 636              	.L41:
 669:../../Middlewares/LVGL/GUI/lvgl/src/misc/lv_text.c ****             result += (txt[*i] & 0x3F);
 637              		.loc 1 669 57 discriminator 1 view .LVU223
 638 010e 0020     		movs	r0, #0
 639 0110 89E7     		b	.L31
 640              	.LVL65:
 641              	.L42:
 678:../../Middlewares/LVGL/GUI/lvgl/src/misc/lv_text.c ****             result += (uint32_t)(txt[*i] & 0x3F) << 6;
 642              		.loc 1 678 57 discriminator 1 view .LVU224
 643 0112 0020     		movs	r0, #0
 644              	.LVL66:
 678:../../Middlewares/LVGL/GUI/lvgl/src/misc/lv_text.c ****             result += (uint32_t)(txt[*i] & 0x3F) << 6;
 645              		.loc 1 678 57 discriminator 1 view .LVU225
 646 0114 87E7     		b	.L31
 647              	.LVL67:
 648              	.L43:
 682:../../Middlewares/LVGL/GUI/lvgl/src/misc/lv_text.c ****             result += (txt[*i] & 0x3F);
 649              		.loc 1 682 57 discriminator 1 view .LVU226
 650 0116 0020     		movs	r0, #0
 651 0118 85E7     		b	.L31
 652              	.LVL68:
 653              	.L44:
ARM GAS  C:\Users\28576\AppData\Local\Temp\ccMimN1K.s 			page 30


 691:../../Middlewares/LVGL/GUI/lvgl/src/misc/lv_text.c ****             result += (uint32_t)(txt[*i] & 0x3F) << 12;
 654              		.loc 1 691 57 discriminator 1 view .LVU227
 655 011a 0020     		movs	r0, #0
 656              	.LVL69:
 691:../../Middlewares/LVGL/GUI/lvgl/src/misc/lv_text.c ****             result += (uint32_t)(txt[*i] & 0x3F) << 12;
 657              		.loc 1 691 57 discriminator 1 view .LVU228
 658 011c 83E7     		b	.L31
 659              	.LVL70:
 660              	.L45:
 695:../../Middlewares/LVGL/GUI/lvgl/src/misc/lv_text.c ****             result += (uint32_t)(txt[*i] & 0x3F) << 6;
 661              		.loc 1 695 57 discriminator 1 view .LVU229
 662 011e 0020     		movs	r0, #0
 663              	.LVL71:
 695:../../Middlewares/LVGL/GUI/lvgl/src/misc/lv_text.c ****             result += (uint32_t)(txt[*i] & 0x3F) << 6;
 664              		.loc 1 695 57 discriminator 1 view .LVU230
 665 0120 81E7     		b	.L31
 666              	.L46:
 699:../../Middlewares/LVGL/GUI/lvgl/src/misc/lv_text.c ****             result += txt[*i] & 0x3F;
 667              		.loc 1 699 57 discriminator 1 view .LVU231
 668 0122 0020     		movs	r0, #0
 669              	.LVL72:
 699:../../Middlewares/LVGL/GUI/lvgl/src/misc/lv_text.c ****             result += txt[*i] & 0x3F;
 670              		.loc 1 699 57 discriminator 1 view .LVU232
 671 0124 7FE7     		b	.L31
 672              		.cfi_endproc
 673              	.LFE35:
 675              		.section	.text.lv_text_utf8_prev,"ax",%progbits
 676              		.align	1
 677              		.syntax unified
 678              		.thumb
 679              		.thumb_func
 681              	lv_text_utf8_prev:
 682              	.LVL73:
 683              	.LFB36:
 709:../../Middlewares/LVGL/GUI/lvgl/src/misc/lv_text.c **** 
 710:../../Middlewares/LVGL/GUI/lvgl/src/misc/lv_text.c **** /**
 711:../../Middlewares/LVGL/GUI/lvgl/src/misc/lv_text.c ****  * Get previous UTF-8 character form a string.
 712:../../Middlewares/LVGL/GUI/lvgl/src/misc/lv_text.c ****  * @param txt pointer to '\0' terminated string
 713:../../Middlewares/LVGL/GUI/lvgl/src/misc/lv_text.c ****  * @param i start byte index in 'txt' where to start. After the call it will point to the previous
 714:../../Middlewares/LVGL/GUI/lvgl/src/misc/lv_text.c ****  * UTF-8 char in 'txt'.
 715:../../Middlewares/LVGL/GUI/lvgl/src/misc/lv_text.c ****  * @return the decoded Unicode character or 0 on invalid UTF-8 code
 716:../../Middlewares/LVGL/GUI/lvgl/src/misc/lv_text.c ****  */
 717:../../Middlewares/LVGL/GUI/lvgl/src/misc/lv_text.c **** static uint32_t lv_text_utf8_prev(const char * txt, uint32_t * i)
 718:../../Middlewares/LVGL/GUI/lvgl/src/misc/lv_text.c **** {
 684              		.loc 1 718 1 is_stmt 1 view -0
 685              		.cfi_startproc
 686              		@ args = 0, pretend = 0, frame = 8
 687              		@ frame_needed = 0, uses_anonymous_args = 0
 688              		.loc 1 718 1 is_stmt 0 view .LVU234
 689 0000 F0B5     		push	{r4, r5, r6, r7, lr}
 690              	.LCFI8:
 691              		.cfi_def_cfa_offset 20
 692              		.cfi_offset 4, -20
 693              		.cfi_offset 5, -16
 694              		.cfi_offset 6, -12
 695              		.cfi_offset 7, -8
 696              		.cfi_offset 14, -4
ARM GAS  C:\Users\28576\AppData\Local\Temp\ccMimN1K.s 			page 31


 697 0002 83B0     		sub	sp, sp, #12
 698              	.LCFI9:
 699              		.cfi_def_cfa_offset 32
 700 0004 0746     		mov	r7, r0
 701 0006 0E46     		mov	r6, r1
 719:../../Middlewares/LVGL/GUI/lvgl/src/misc/lv_text.c ****     uint8_t c_size;
 702              		.loc 1 719 5 is_stmt 1 view .LVU235
 720:../../Middlewares/LVGL/GUI/lvgl/src/misc/lv_text.c ****     uint8_t cnt = 0;
 703              		.loc 1 720 5 view .LVU236
 704              	.LVL74:
 721:../../Middlewares/LVGL/GUI/lvgl/src/misc/lv_text.c **** 
 722:../../Middlewares/LVGL/GUI/lvgl/src/misc/lv_text.c ****     /*Try to find a !0 long UTF-8 char by stepping one character back*/
 723:../../Middlewares/LVGL/GUI/lvgl/src/misc/lv_text.c ****     (*i)--;
 705              		.loc 1 723 5 view .LVU237
 706              		.loc 1 723 6 is_stmt 0 view .LVU238
 707 0008 0B68     		ldr	r3, [r1]
 708              		.loc 1 723 9 view .LVU239
 709 000a 013B     		subs	r3, r3, #1
 710 000c 0B60     		str	r3, [r1]
 720:../../Middlewares/LVGL/GUI/lvgl/src/misc/lv_text.c ****     uint8_t cnt = 0;
 711              		.loc 1 720 13 view .LVU240
 712 000e 0024     		movs	r4, #0
 713 0010 04E0     		b	.L55
 714              	.LVL75:
 715              	.L59:
 724:../../Middlewares/LVGL/GUI/lvgl/src/misc/lv_text.c ****     do {
 725:../../Middlewares/LVGL/GUI/lvgl/src/misc/lv_text.c ****         if(cnt >= 4) return 0; /*No UTF-8 char found before the initial*/
 726:../../Middlewares/LVGL/GUI/lvgl/src/misc/lv_text.c **** 
 727:../../Middlewares/LVGL/GUI/lvgl/src/misc/lv_text.c ****         c_size = lv_text_encoded_size(&txt[*i]);
 728:../../Middlewares/LVGL/GUI/lvgl/src/misc/lv_text.c ****         if(c_size == 0) {
 729:../../Middlewares/LVGL/GUI/lvgl/src/misc/lv_text.c ****             if(*i != 0)
 730:../../Middlewares/LVGL/GUI/lvgl/src/misc/lv_text.c ****                 (*i)--;
 716              		.loc 1 730 17 is_stmt 1 view .LVU241
 717              		.loc 1 730 21 is_stmt 0 view .LVU242
 718 0012 013D     		subs	r5, r5, #1
 719 0014 3560     		str	r5, [r6]
 720              	.L54:
 731:../../Middlewares/LVGL/GUI/lvgl/src/misc/lv_text.c ****             else
 732:../../Middlewares/LVGL/GUI/lvgl/src/misc/lv_text.c ****                 return 0;
 733:../../Middlewares/LVGL/GUI/lvgl/src/misc/lv_text.c ****         }
 734:../../Middlewares/LVGL/GUI/lvgl/src/misc/lv_text.c ****         cnt++;
 721              		.loc 1 734 9 is_stmt 1 view .LVU243
 722              		.loc 1 734 12 is_stmt 0 view .LVU244
 723 0016 0134     		adds	r4, r4, #1
 724              	.LVL76:
 725              		.loc 1 734 12 view .LVU245
 726 0018 E4B2     		uxtb	r4, r4
 727              	.LVL77:
 735:../../Middlewares/LVGL/GUI/lvgl/src/misc/lv_text.c ****     } while(c_size == 0);
 728              		.loc 1 735 20 is_stmt 1 view .LVU246
 729 001a 5BB9     		cbnz	r3, .L58
 730              	.LVL78:
 731              	.L55:
 724:../../Middlewares/LVGL/GUI/lvgl/src/misc/lv_text.c ****     do {
 732              		.loc 1 724 5 view .LVU247
 725:../../Middlewares/LVGL/GUI/lvgl/src/misc/lv_text.c **** 
 733              		.loc 1 725 9 view .LVU248
ARM GAS  C:\Users\28576\AppData\Local\Temp\ccMimN1K.s 			page 32


 725:../../Middlewares/LVGL/GUI/lvgl/src/misc/lv_text.c **** 
 734              		.loc 1 725 11 is_stmt 0 view .LVU249
 735 001c 032C     		cmp	r4, #3
 736 001e 11D8     		bhi	.L56
 727:../../Middlewares/LVGL/GUI/lvgl/src/misc/lv_text.c ****         if(c_size == 0) {
 737              		.loc 1 727 9 is_stmt 1 view .LVU250
 727:../../Middlewares/LVGL/GUI/lvgl/src/misc/lv_text.c ****         if(c_size == 0) {
 738              		.loc 1 727 44 is_stmt 0 view .LVU251
 739 0020 3568     		ldr	r5, [r6]
 727:../../Middlewares/LVGL/GUI/lvgl/src/misc/lv_text.c ****         if(c_size == 0) {
 740              		.loc 1 727 18 view .LVU252
 741 0022 7819     		adds	r0, r7, r5
 742 0024 FFF7FEFF 		bl	lv_text_utf8_size
 743              	.LVL79:
 728:../../Middlewares/LVGL/GUI/lvgl/src/misc/lv_text.c ****             if(*i != 0)
 744              		.loc 1 728 9 is_stmt 1 view .LVU253
 728:../../Middlewares/LVGL/GUI/lvgl/src/misc/lv_text.c ****             if(*i != 0)
 745              		.loc 1 728 11 is_stmt 0 view .LVU254
 746 0028 0346     		mov	r3, r0
 747 002a 0028     		cmp	r0, #0
 748 002c F3D1     		bne	.L54
 729:../../Middlewares/LVGL/GUI/lvgl/src/misc/lv_text.c ****                 (*i)--;
 749              		.loc 1 729 13 is_stmt 1 view .LVU255
 729:../../Middlewares/LVGL/GUI/lvgl/src/misc/lv_text.c ****                 (*i)--;
 750              		.loc 1 729 15 is_stmt 0 view .LVU256
 751 002e 002D     		cmp	r5, #0
 752 0030 EFD1     		bne	.L59
 753 0032 08E0     		b	.L52
 754              	.L58:
 736:../../Middlewares/LVGL/GUI/lvgl/src/misc/lv_text.c **** 
 737:../../Middlewares/LVGL/GUI/lvgl/src/misc/lv_text.c ****     uint32_t i_tmp  = *i;
 755              		.loc 1 737 5 is_stmt 1 view .LVU257
 756              		.loc 1 737 23 is_stmt 0 view .LVU258
 757 0034 3368     		ldr	r3, [r6]
 758              		.loc 1 737 14 view .LVU259
 759 0036 0193     		str	r3, [sp, #4]
 738:../../Middlewares/LVGL/GUI/lvgl/src/misc/lv_text.c ****     uint32_t letter = lv_text_encoded_next(txt, &i_tmp); /*Character found, get it*/
 760              		.loc 1 738 5 is_stmt 1 view .LVU260
 761              		.loc 1 738 23 is_stmt 0 view .LVU261
 762 0038 01A9     		add	r1, sp, #4
 763 003a 3846     		mov	r0, r7
 764              	.LVL80:
 765              		.loc 1 738 23 view .LVU262
 766 003c FFF7FEFF 		bl	lv_text_utf8_next
 767              	.LVL81:
 768 0040 0546     		mov	r5, r0
 769              	.LVL82:
 739:../../Middlewares/LVGL/GUI/lvgl/src/misc/lv_text.c **** 
 740:../../Middlewares/LVGL/GUI/lvgl/src/misc/lv_text.c ****     return letter;
 770              		.loc 1 740 5 is_stmt 1 view .LVU263
 771              		.loc 1 740 12 is_stmt 0 view .LVU264
 772 0042 00E0     		b	.L52
 773              	.LVL83:
 774              	.L56:
 725:../../Middlewares/LVGL/GUI/lvgl/src/misc/lv_text.c **** 
 775              		.loc 1 725 29 discriminator 1 view .LVU265
 776 0044 0025     		movs	r5, #0
ARM GAS  C:\Users\28576\AppData\Local\Temp\ccMimN1K.s 			page 33


 777              	.L52:
 741:../../Middlewares/LVGL/GUI/lvgl/src/misc/lv_text.c **** }
 778              		.loc 1 741 1 view .LVU266
 779 0046 2846     		mov	r0, r5
 780 0048 03B0     		add	sp, sp, #12
 781              	.LCFI10:
 782              		.cfi_def_cfa_offset 20
 783              		@ sp needed
 784 004a F0BD     		pop	{r4, r5, r6, r7, pc}
 785              		.loc 1 741 1 view .LVU267
 786              		.cfi_endproc
 787              	.LFE36:
 789              		.section	.text.lv_text_utf8_get_byte_id,"ax",%progbits
 790              		.align	1
 791              		.syntax unified
 792              		.thumb
 793              		.thumb_func
 795              	lv_text_utf8_get_byte_id:
 796              	.LVL84:
 797              	.LFB37:
 742:../../Middlewares/LVGL/GUI/lvgl/src/misc/lv_text.c **** 
 743:../../Middlewares/LVGL/GUI/lvgl/src/misc/lv_text.c **** /**
 744:../../Middlewares/LVGL/GUI/lvgl/src/misc/lv_text.c ****  * Convert a character index (in an UTF-8 text) to byte index.
 745:../../Middlewares/LVGL/GUI/lvgl/src/misc/lv_text.c ****  * E.g. in "AÁRT" index of 'R' is 2th char but start at byte 3 because 'Á' is 2 bytes long
 746:../../Middlewares/LVGL/GUI/lvgl/src/misc/lv_text.c ****  * @param txt a '\0' terminated UTF-8 string
 747:../../Middlewares/LVGL/GUI/lvgl/src/misc/lv_text.c ****  * @param utf8_id character index
 748:../../Middlewares/LVGL/GUI/lvgl/src/misc/lv_text.c ****  * @return byte index of the 'utf8_id'th letter
 749:../../Middlewares/LVGL/GUI/lvgl/src/misc/lv_text.c ****  */
 750:../../Middlewares/LVGL/GUI/lvgl/src/misc/lv_text.c **** static uint32_t lv_text_utf8_get_byte_id(const char * txt, uint32_t utf8_id)
 751:../../Middlewares/LVGL/GUI/lvgl/src/misc/lv_text.c **** {
 798              		.loc 1 751 1 is_stmt 1 view -0
 799              		.cfi_startproc
 800              		@ args = 0, pretend = 0, frame = 0
 801              		@ frame_needed = 0, uses_anonymous_args = 0
 802              		.loc 1 751 1 is_stmt 0 view .LVU269
 803 0000 F8B5     		push	{r3, r4, r5, r6, r7, lr}
 804              	.LCFI11:
 805              		.cfi_def_cfa_offset 24
 806              		.cfi_offset 3, -24
 807              		.cfi_offset 4, -20
 808              		.cfi_offset 5, -16
 809              		.cfi_offset 6, -12
 810              		.cfi_offset 7, -8
 811              		.cfi_offset 14, -4
 812 0002 0646     		mov	r6, r0
 813 0004 0F46     		mov	r7, r1
 752:../../Middlewares/LVGL/GUI/lvgl/src/misc/lv_text.c ****     uint32_t i;
 814              		.loc 1 752 5 is_stmt 1 view .LVU270
 753:../../Middlewares/LVGL/GUI/lvgl/src/misc/lv_text.c ****     uint32_t byte_cnt = 0;
 815              		.loc 1 753 5 view .LVU271
 816              	.LVL85:
 754:../../Middlewares/LVGL/GUI/lvgl/src/misc/lv_text.c ****     for(i = 0; i < utf8_id && txt[byte_cnt] != '\0'; i++) {
 817              		.loc 1 754 5 view .LVU272
 753:../../Middlewares/LVGL/GUI/lvgl/src/misc/lv_text.c ****     uint32_t byte_cnt = 0;
 818              		.loc 1 753 14 is_stmt 0 view .LVU273
 819 0006 0024     		movs	r4, #0
 820              		.loc 1 754 11 view .LVU274
ARM GAS  C:\Users\28576\AppData\Local\Temp\ccMimN1K.s 			page 34


 821 0008 2546     		mov	r5, r4
 822              		.loc 1 754 5 view .LVU275
 823 000a 01E0     		b	.L61
 824              	.LVL86:
 825              	.L62:
 826              	.LBB4:
 755:../../Middlewares/LVGL/GUI/lvgl/src/misc/lv_text.c ****         uint8_t c_size = lv_text_encoded_size(&txt[byte_cnt]);
 756:../../Middlewares/LVGL/GUI/lvgl/src/misc/lv_text.c ****         /* If the char was invalid tell it's 1 byte long*/
 757:../../Middlewares/LVGL/GUI/lvgl/src/misc/lv_text.c ****         byte_cnt += c_size ? c_size : 1;
 827              		.loc 1 757 18 discriminator 4 view .LVU276
 828 000c 1C44     		add	r4, r4, r3
 829              	.LVL87:
 830              		.loc 1 757 18 discriminator 4 view .LVU277
 831              	.LBE4:
 754:../../Middlewares/LVGL/GUI/lvgl/src/misc/lv_text.c ****     for(i = 0; i < utf8_id && txt[byte_cnt] != '\0'; i++) {
 832              		.loc 1 754 55 is_stmt 1 discriminator 2 view .LVU278
 833 000e 0135     		adds	r5, r5, #1
 834              	.LVL88:
 835              	.L61:
 754:../../Middlewares/LVGL/GUI/lvgl/src/misc/lv_text.c ****     for(i = 0; i < utf8_id && txt[byte_cnt] != '\0'; i++) {
 836              		.loc 1 754 28 discriminator 1 view .LVU279
 837 0010 BD42     		cmp	r5, r7
 838 0012 09D2     		bcs	.L60
 754:../../Middlewares/LVGL/GUI/lvgl/src/misc/lv_text.c ****     for(i = 0; i < utf8_id && txt[byte_cnt] != '\0'; i++) {
 839              		.loc 1 754 34 is_stmt 0 discriminator 3 view .LVU280
 840 0014 3019     		adds	r0, r6, r4
 841 0016 335D     		ldrb	r3, [r6, r4]	@ zero_extendqisi2
 754:../../Middlewares/LVGL/GUI/lvgl/src/misc/lv_text.c ****     for(i = 0; i < utf8_id && txt[byte_cnt] != '\0'; i++) {
 842              		.loc 1 754 28 discriminator 3 view .LVU281
 843 0018 33B1     		cbz	r3, .L60
 844              	.LBB5:
 755:../../Middlewares/LVGL/GUI/lvgl/src/misc/lv_text.c ****         uint8_t c_size = lv_text_encoded_size(&txt[byte_cnt]);
 845              		.loc 1 755 9 is_stmt 1 view .LVU282
 755:../../Middlewares/LVGL/GUI/lvgl/src/misc/lv_text.c ****         uint8_t c_size = lv_text_encoded_size(&txt[byte_cnt]);
 846              		.loc 1 755 26 is_stmt 0 view .LVU283
 847 001a FFF7FEFF 		bl	lv_text_utf8_size
 848              	.LVL89:
 849              		.loc 1 757 9 is_stmt 1 view .LVU284
 850              		.loc 1 757 37 is_stmt 0 view .LVU285
 851 001e 0346     		mov	r3, r0
 852 0020 0028     		cmp	r0, #0
 853 0022 F3D1     		bne	.L62
 854              		.loc 1 757 37 discriminator 2 view .LVU286
 855 0024 0123     		movs	r3, #1
 856 0026 F1E7     		b	.L62
 857              	.LVL90:
 858              	.L60:
 859              		.loc 1 757 37 discriminator 2 view .LVU287
 860              	.LBE5:
 758:../../Middlewares/LVGL/GUI/lvgl/src/misc/lv_text.c ****     }
 759:../../Middlewares/LVGL/GUI/lvgl/src/misc/lv_text.c **** 
 760:../../Middlewares/LVGL/GUI/lvgl/src/misc/lv_text.c ****     return byte_cnt;
 761:../../Middlewares/LVGL/GUI/lvgl/src/misc/lv_text.c **** }
 861              		.loc 1 761 1 view .LVU288
 862 0028 2046     		mov	r0, r4
 863 002a F8BD     		pop	{r3, r4, r5, r6, r7, pc}
 864              		.loc 1 761 1 view .LVU289
ARM GAS  C:\Users\28576\AppData\Local\Temp\ccMimN1K.s 			page 35


 865              		.cfi_endproc
 866              	.LFE37:
 868              		.section	.text.lv_text_utf8_get_char_id,"ax",%progbits
 869              		.align	1
 870              		.syntax unified
 871              		.thumb
 872              		.thumb_func
 874              	lv_text_utf8_get_char_id:
 875              	.LVL91:
 876              	.LFB38:
 762:../../Middlewares/LVGL/GUI/lvgl/src/misc/lv_text.c **** 
 763:../../Middlewares/LVGL/GUI/lvgl/src/misc/lv_text.c **** /**
 764:../../Middlewares/LVGL/GUI/lvgl/src/misc/lv_text.c ****  * Convert a byte index (in an UTF-8 text) to character index.
 765:../../Middlewares/LVGL/GUI/lvgl/src/misc/lv_text.c ****  * E.g. in "AÁRT" index of 'R' is 2th char but start at byte 3 because 'Á' is 2 bytes long
 766:../../Middlewares/LVGL/GUI/lvgl/src/misc/lv_text.c ****  * @param txt a '\0' terminated UTF-8 string
 767:../../Middlewares/LVGL/GUI/lvgl/src/misc/lv_text.c ****  * @param byte_id byte index
 768:../../Middlewares/LVGL/GUI/lvgl/src/misc/lv_text.c ****  * @return character index of the letter at 'byte_id'th position
 769:../../Middlewares/LVGL/GUI/lvgl/src/misc/lv_text.c ****  */
 770:../../Middlewares/LVGL/GUI/lvgl/src/misc/lv_text.c **** static uint32_t lv_text_utf8_get_char_id(const char * txt, uint32_t byte_id)
 771:../../Middlewares/LVGL/GUI/lvgl/src/misc/lv_text.c **** {
 877              		.loc 1 771 1 is_stmt 1 view -0
 878              		.cfi_startproc
 879              		@ args = 0, pretend = 0, frame = 8
 880              		@ frame_needed = 0, uses_anonymous_args = 0
 881              		.loc 1 771 1 is_stmt 0 view .LVU291
 882 0000 70B5     		push	{r4, r5, r6, lr}
 883              	.LCFI12:
 884              		.cfi_def_cfa_offset 16
 885              		.cfi_offset 4, -16
 886              		.cfi_offset 5, -12
 887              		.cfi_offset 6, -8
 888              		.cfi_offset 14, -4
 889 0002 82B0     		sub	sp, sp, #8
 890              	.LCFI13:
 891              		.cfi_def_cfa_offset 24
 892 0004 0646     		mov	r6, r0
 893 0006 0D46     		mov	r5, r1
 772:../../Middlewares/LVGL/GUI/lvgl/src/misc/lv_text.c ****     uint32_t i        = 0;
 894              		.loc 1 772 5 is_stmt 1 view .LVU292
 895              		.loc 1 772 14 is_stmt 0 view .LVU293
 896 0008 0024     		movs	r4, #0
 897 000a 0194     		str	r4, [sp, #4]
 773:../../Middlewares/LVGL/GUI/lvgl/src/misc/lv_text.c ****     uint32_t char_cnt = 0;
 898              		.loc 1 773 5 is_stmt 1 view .LVU294
 899              	.LVL92:
 774:../../Middlewares/LVGL/GUI/lvgl/src/misc/lv_text.c **** 
 775:../../Middlewares/LVGL/GUI/lvgl/src/misc/lv_text.c ****     while(i < byte_id) {
 900              		.loc 1 775 5 view .LVU295
 901              		.loc 1 775 10 is_stmt 0 view .LVU296
 902 000c 04E0     		b	.L68
 903              	.LVL93:
 904              	.L69:
 776:../../Middlewares/LVGL/GUI/lvgl/src/misc/lv_text.c ****         lv_text_encoded_next(txt, &i); /*'i' points to the next letter so use the prev. value*/
 905              		.loc 1 776 9 is_stmt 1 view .LVU297
 906 000e 01A9     		add	r1, sp, #4
 907 0010 3046     		mov	r0, r6
 908 0012 FFF7FEFF 		bl	lv_text_utf8_next
ARM GAS  C:\Users\28576\AppData\Local\Temp\ccMimN1K.s 			page 36


 909              	.LVL94:
 777:../../Middlewares/LVGL/GUI/lvgl/src/misc/lv_text.c ****         char_cnt++;
 910              		.loc 1 777 9 view .LVU298
 911              		.loc 1 777 17 is_stmt 0 view .LVU299
 912 0016 0134     		adds	r4, r4, #1
 913              	.LVL95:
 914              	.L68:
 775:../../Middlewares/LVGL/GUI/lvgl/src/misc/lv_text.c ****         lv_text_encoded_next(txt, &i); /*'i' points to the next letter so use the prev. value*/
 915              		.loc 1 775 13 is_stmt 1 view .LVU300
 916 0018 019B     		ldr	r3, [sp, #4]
 917 001a AB42     		cmp	r3, r5
 918 001c F7D3     		bcc	.L69
 778:../../Middlewares/LVGL/GUI/lvgl/src/misc/lv_text.c ****     }
 779:../../Middlewares/LVGL/GUI/lvgl/src/misc/lv_text.c **** 
 780:../../Middlewares/LVGL/GUI/lvgl/src/misc/lv_text.c ****     return char_cnt;
 919              		.loc 1 780 5 view .LVU301
 781:../../Middlewares/LVGL/GUI/lvgl/src/misc/lv_text.c **** }
 920              		.loc 1 781 1 is_stmt 0 view .LVU302
 921 001e 2046     		mov	r0, r4
 922 0020 02B0     		add	sp, sp, #8
 923              	.LCFI14:
 924              		.cfi_def_cfa_offset 16
 925              		@ sp needed
 926 0022 70BD     		pop	{r4, r5, r6, pc}
 927              		.loc 1 781 1 view .LVU303
 928              		.cfi_endproc
 929              	.LFE38:
 931              		.section	.text.lv_text_utf8_get_length,"ax",%progbits
 932              		.align	1
 933              		.syntax unified
 934              		.thumb
 935              		.thumb_func
 937              	lv_text_utf8_get_length:
 938              	.LVL96:
 939              	.LFB39:
 782:../../Middlewares/LVGL/GUI/lvgl/src/misc/lv_text.c **** 
 783:../../Middlewares/LVGL/GUI/lvgl/src/misc/lv_text.c **** /**
 784:../../Middlewares/LVGL/GUI/lvgl/src/misc/lv_text.c ****  * Get the number of characters (and NOT bytes) in a string. Decode it with UTF-8 if enabled.
 785:../../Middlewares/LVGL/GUI/lvgl/src/misc/lv_text.c ****  * E.g.: "ÁBC" is 3 characters (but 4 bytes)
 786:../../Middlewares/LVGL/GUI/lvgl/src/misc/lv_text.c ****  * @param txt a '\0' terminated char string
 787:../../Middlewares/LVGL/GUI/lvgl/src/misc/lv_text.c ****  * @return number of characters
 788:../../Middlewares/LVGL/GUI/lvgl/src/misc/lv_text.c ****  */
 789:../../Middlewares/LVGL/GUI/lvgl/src/misc/lv_text.c **** static uint32_t lv_text_utf8_get_length(const char * txt)
 790:../../Middlewares/LVGL/GUI/lvgl/src/misc/lv_text.c **** {
 940              		.loc 1 790 1 is_stmt 1 view -0
 941              		.cfi_startproc
 942              		@ args = 0, pretend = 0, frame = 8
 943              		@ frame_needed = 0, uses_anonymous_args = 0
 944              		.loc 1 790 1 is_stmt 0 view .LVU305
 945 0000 30B5     		push	{r4, r5, lr}
 946              	.LCFI15:
 947              		.cfi_def_cfa_offset 12
 948              		.cfi_offset 4, -12
 949              		.cfi_offset 5, -8
 950              		.cfi_offset 14, -4
 951 0002 83B0     		sub	sp, sp, #12
 952              	.LCFI16:
ARM GAS  C:\Users\28576\AppData\Local\Temp\ccMimN1K.s 			page 37


 953              		.cfi_def_cfa_offset 24
 954 0004 0546     		mov	r5, r0
 791:../../Middlewares/LVGL/GUI/lvgl/src/misc/lv_text.c ****     uint32_t len = 0;
 955              		.loc 1 791 5 is_stmt 1 view .LVU306
 956              	.LVL97:
 792:../../Middlewares/LVGL/GUI/lvgl/src/misc/lv_text.c ****     uint32_t i   = 0;
 957              		.loc 1 792 5 view .LVU307
 958              		.loc 1 792 14 is_stmt 0 view .LVU308
 959 0006 0024     		movs	r4, #0
 960 0008 0194     		str	r4, [sp, #4]
 793:../../Middlewares/LVGL/GUI/lvgl/src/misc/lv_text.c **** 
 794:../../Middlewares/LVGL/GUI/lvgl/src/misc/lv_text.c ****     while(txt[i] != '\0') {
 961              		.loc 1 794 5 is_stmt 1 view .LVU309
 962              		.loc 1 794 10 is_stmt 0 view .LVU310
 963 000a 04E0     		b	.L72
 964              	.LVL98:
 965              	.L73:
 795:../../Middlewares/LVGL/GUI/lvgl/src/misc/lv_text.c ****         lv_text_encoded_next(txt, &i);
 966              		.loc 1 795 9 is_stmt 1 view .LVU311
 967 000c 01A9     		add	r1, sp, #4
 968 000e 2846     		mov	r0, r5
 969 0010 FFF7FEFF 		bl	lv_text_utf8_next
 970              	.LVL99:
 796:../../Middlewares/LVGL/GUI/lvgl/src/misc/lv_text.c ****         len++;
 971              		.loc 1 796 9 view .LVU312
 972              		.loc 1 796 12 is_stmt 0 view .LVU313
 973 0014 0134     		adds	r4, r4, #1
 974              	.LVL100:
 975              	.L72:
 794:../../Middlewares/LVGL/GUI/lvgl/src/misc/lv_text.c ****         lv_text_encoded_next(txt, &i);
 976              		.loc 1 794 18 is_stmt 1 view .LVU314
 794:../../Middlewares/LVGL/GUI/lvgl/src/misc/lv_text.c ****         lv_text_encoded_next(txt, &i);
 977              		.loc 1 794 14 is_stmt 0 view .LVU315
 978 0016 019B     		ldr	r3, [sp, #4]
 979 0018 EB5C     		ldrb	r3, [r5, r3]	@ zero_extendqisi2
 794:../../Middlewares/LVGL/GUI/lvgl/src/misc/lv_text.c ****         lv_text_encoded_next(txt, &i);
 980              		.loc 1 794 18 view .LVU316
 981 001a 002B     		cmp	r3, #0
 982 001c F6D1     		bne	.L73
 797:../../Middlewares/LVGL/GUI/lvgl/src/misc/lv_text.c ****     }
 798:../../Middlewares/LVGL/GUI/lvgl/src/misc/lv_text.c **** 
 799:../../Middlewares/LVGL/GUI/lvgl/src/misc/lv_text.c ****     return len;
 983              		.loc 1 799 5 is_stmt 1 view .LVU317
 800:../../Middlewares/LVGL/GUI/lvgl/src/misc/lv_text.c **** }
 984              		.loc 1 800 1 is_stmt 0 view .LVU318
 985 001e 2046     		mov	r0, r4
 986 0020 03B0     		add	sp, sp, #12
 987              	.LCFI17:
 988              		.cfi_def_cfa_offset 12
 989              		@ sp needed
 990 0022 30BD     		pop	{r4, r5, pc}
 991              		.loc 1 800 1 view .LVU319
 992              		.cfi_endproc
 993              	.LFE39:
 995              		.section	.text.lv_text_utf8_conv_wc,"ax",%progbits
 996              		.align	1
 997              		.syntax unified
ARM GAS  C:\Users\28576\AppData\Local\Temp\ccMimN1K.s 			page 38


 998              		.thumb
 999              		.thumb_func
 1001              	lv_text_utf8_conv_wc:
 1002              	.LVL101:
 1003              	.LFB34:
 610:../../Middlewares/LVGL/GUI/lvgl/src/misc/lv_text.c **** #if LV_BIG_ENDIAN_SYSTEM == 0
 1004              		.loc 1 610 1 is_stmt 1 view -0
 1005              		.cfi_startproc
 1006              		@ args = 0, pretend = 0, frame = 16
 1007              		@ frame_needed = 0, uses_anonymous_args = 0
 610:../../Middlewares/LVGL/GUI/lvgl/src/misc/lv_text.c **** #if LV_BIG_ENDIAN_SYSTEM == 0
 1008              		.loc 1 610 1 is_stmt 0 view .LVU321
 1009 0000 00B5     		push	{lr}
 1010              	.LCFI18:
 1011              		.cfi_def_cfa_offset 4
 1012              		.cfi_offset 14, -4
 1013 0002 85B0     		sub	sp, sp, #20
 1014              	.LCFI19:
 1015              		.cfi_def_cfa_offset 24
 1016 0004 0190     		str	r0, [sp, #4]
 613:../../Middlewares/LVGL/GUI/lvgl/src/misc/lv_text.c ****         uint32_t swapped;
 1017              		.loc 1 613 5 is_stmt 1 view .LVU322
 613:../../Middlewares/LVGL/GUI/lvgl/src/misc/lv_text.c ****         uint32_t swapped;
 1018              		.loc 1 613 7 is_stmt 0 view .LVU323
 1019 0006 10F0800F 		tst	r0, #128
 1020 000a 02D1     		bne	.L81
 1021              	.LVL102:
 1022              	.L76:
 626:../../Middlewares/LVGL/GUI/lvgl/src/misc/lv_text.c **** }
 1023              		.loc 1 626 5 is_stmt 1 view .LVU324
 627:../../Middlewares/LVGL/GUI/lvgl/src/misc/lv_text.c **** 
 1024              		.loc 1 627 1 is_stmt 0 view .LVU325
 1025 000c 0198     		ldr	r0, [sp, #4]
 1026 000e 05B0     		add	sp, sp, #20
 1027              	.LCFI20:
 1028              		.cfi_remember_state
 1029              		.cfi_def_cfa_offset 4
 1030              		@ sp needed
 1031 0010 00BD     		pop	{pc}
 1032              	.LVL103:
 1033              	.L81:
 1034              	.LCFI21:
 1035              		.cfi_restore_state
 1036              	.LBB6:
 614:../../Middlewares/LVGL/GUI/lvgl/src/misc/lv_text.c ****         uint8_t c8[4];
 1037              		.loc 1 614 9 is_stmt 1 view .LVU326
 615:../../Middlewares/LVGL/GUI/lvgl/src/misc/lv_text.c ****         lv_memcpy(c8, &c, 4);
 1038              		.loc 1 615 9 view .LVU327
 616:../../Middlewares/LVGL/GUI/lvgl/src/misc/lv_text.c ****         swapped = (c8[0] << 24) + (c8[1] << 16) + (c8[2] << 8) + (c8[3]);
 1039              		.loc 1 616 9 view .LVU328
 1040 0012 0422     		movs	r2, #4
 1041 0014 0DEB0201 		add	r1, sp, r2
 1042 0018 03A8     		add	r0, sp, #12
 1043              	.LVL104:
 616:../../Middlewares/LVGL/GUI/lvgl/src/misc/lv_text.c ****         swapped = (c8[0] << 24) + (c8[1] << 16) + (c8[2] << 8) + (c8[3]);
 1044              		.loc 1 616 9 is_stmt 0 view .LVU329
 1045 001a FFF7FEFF 		bl	lv_memcpy
ARM GAS  C:\Users\28576\AppData\Local\Temp\ccMimN1K.s 			page 39


 1046              	.LVL105:
 617:../../Middlewares/LVGL/GUI/lvgl/src/misc/lv_text.c ****         uint8_t i;
 1047              		.loc 1 617 9 is_stmt 1 view .LVU330
 617:../../Middlewares/LVGL/GUI/lvgl/src/misc/lv_text.c ****         uint8_t i;
 1048              		.loc 1 617 22 is_stmt 0 view .LVU331
 1049 001e 9DF80C30 		ldrb	r3, [sp, #12]	@ zero_extendqisi2
 617:../../Middlewares/LVGL/GUI/lvgl/src/misc/lv_text.c ****         uint8_t i;
 1050              		.loc 1 617 38 view .LVU332
 1051 0022 9DF80D20 		ldrb	r2, [sp, #13]	@ zero_extendqisi2
 617:../../Middlewares/LVGL/GUI/lvgl/src/misc/lv_text.c ****         uint8_t i;
 1052              		.loc 1 617 42 view .LVU333
 1053 0026 1204     		lsls	r2, r2, #16
 617:../../Middlewares/LVGL/GUI/lvgl/src/misc/lv_text.c ****         uint8_t i;
 1054              		.loc 1 617 33 view .LVU334
 1055 0028 02EB0362 		add	r2, r2, r3, lsl #24
 617:../../Middlewares/LVGL/GUI/lvgl/src/misc/lv_text.c ****         uint8_t i;
 1056              		.loc 1 617 54 view .LVU335
 1057 002c 9DF80E30 		ldrb	r3, [sp, #14]	@ zero_extendqisi2
 617:../../Middlewares/LVGL/GUI/lvgl/src/misc/lv_text.c ****         uint8_t i;
 1058              		.loc 1 617 49 view .LVU336
 1059 0030 02EB0322 		add	r2, r2, r3, lsl #8
 617:../../Middlewares/LVGL/GUI/lvgl/src/misc/lv_text.c ****         uint8_t i;
 1060              		.loc 1 617 69 view .LVU337
 1061 0034 9DF80F30 		ldrb	r3, [sp, #15]	@ zero_extendqisi2
 617:../../Middlewares/LVGL/GUI/lvgl/src/misc/lv_text.c ****         uint8_t i;
 1062              		.loc 1 617 64 view .LVU338
 1063 0038 1A44     		add	r2, r2, r3
 1064              	.LVL106:
 618:../../Middlewares/LVGL/GUI/lvgl/src/misc/lv_text.c ****         for(i = 0; i < 4; i++) {
 1065              		.loc 1 618 9 is_stmt 1 view .LVU339
 619:../../Middlewares/LVGL/GUI/lvgl/src/misc/lv_text.c ****             if((swapped & 0xFF) == 0)
 1066              		.loc 1 619 9 view .LVU340
 619:../../Middlewares/LVGL/GUI/lvgl/src/misc/lv_text.c ****             if((swapped & 0xFF) == 0)
 1067              		.loc 1 619 15 is_stmt 0 view .LVU341
 1068 003a 0023     		movs	r3, #0
 619:../../Middlewares/LVGL/GUI/lvgl/src/misc/lv_text.c ****             if((swapped & 0xFF) == 0)
 1069              		.loc 1 619 9 view .LVU342
 1070 003c 01E0     		b	.L77
 1071              	.LVL107:
 1072              	.L78:
 619:../../Middlewares/LVGL/GUI/lvgl/src/misc/lv_text.c ****             if((swapped & 0xFF) == 0)
 1073              		.loc 1 619 28 is_stmt 1 discriminator 2 view .LVU343
 1074 003e 0133     		adds	r3, r3, #1
 1075              	.LVL108:
 619:../../Middlewares/LVGL/GUI/lvgl/src/misc/lv_text.c ****             if((swapped & 0xFF) == 0)
 1076              		.loc 1 619 28 is_stmt 0 discriminator 2 view .LVU344
 1077 0040 DBB2     		uxtb	r3, r3
 1078              	.LVL109:
 1079              	.L77:
 619:../../Middlewares/LVGL/GUI/lvgl/src/misc/lv_text.c ****             if((swapped & 0xFF) == 0)
 1080              		.loc 1 619 22 is_stmt 1 discriminator 1 view .LVU345
 1081 0042 032B     		cmp	r3, #3
 1082 0044 04D8     		bhi	.L82
 620:../../Middlewares/LVGL/GUI/lvgl/src/misc/lv_text.c ****                 swapped = (swapped >> 8); /*Ignore leading zeros (they were in the end originally)*
 1083              		.loc 1 620 13 view .LVU346
 620:../../Middlewares/LVGL/GUI/lvgl/src/misc/lv_text.c ****                 swapped = (swapped >> 8); /*Ignore leading zeros (they were in the end originally)*
 1084              		.loc 1 620 15 is_stmt 0 view .LVU347
ARM GAS  C:\Users\28576\AppData\Local\Temp\ccMimN1K.s 			page 40


 1085 0046 12F0FF0F 		tst	r2, #255
 1086 004a F8D1     		bne	.L78
 621:../../Middlewares/LVGL/GUI/lvgl/src/misc/lv_text.c ****         }
 1087              		.loc 1 621 17 is_stmt 1 view .LVU348
 621:../../Middlewares/LVGL/GUI/lvgl/src/misc/lv_text.c ****         }
 1088              		.loc 1 621 25 is_stmt 0 view .LVU349
 1089 004c 120A     		lsrs	r2, r2, #8
 1090              	.LVL110:
 621:../../Middlewares/LVGL/GUI/lvgl/src/misc/lv_text.c ****         }
 1091              		.loc 1 621 25 view .LVU350
 1092 004e F6E7     		b	.L78
 1093              	.LVL111:
 1094              	.L82:
 623:../../Middlewares/LVGL/GUI/lvgl/src/misc/lv_text.c ****     }
 1095              		.loc 1 623 9 is_stmt 1 view .LVU351
 623:../../Middlewares/LVGL/GUI/lvgl/src/misc/lv_text.c ****     }
 1096              		.loc 1 623 11 is_stmt 0 view .LVU352
 1097 0050 0192     		str	r2, [sp, #4]
 1098 0052 DBE7     		b	.L76
 1099              	.LBE6:
 1100              		.cfi_endproc
 1101              	.LFE34:
 1103              		.section	.text.lv_text_is_cmd,"ax",%progbits
 1104              		.align	1
 1105              		.global	lv_text_is_cmd
 1106              		.syntax unified
 1107              		.thumb
 1108              		.thumb_func
 1110              	lv_text_is_cmd:
 1111              	.LVL112:
 1112              	.LFB23:
 141:../../Middlewares/LVGL/GUI/lvgl/src/misc/lv_text.c ****     bool ret = false;
 1113              		.loc 1 141 1 is_stmt 1 view -0
 1114              		.cfi_startproc
 1115              		@ args = 0, pretend = 0, frame = 0
 1116              		@ frame_needed = 0, uses_anonymous_args = 0
 1117              		@ link register save eliminated.
 141:../../Middlewares/LVGL/GUI/lvgl/src/misc/lv_text.c ****     bool ret = false;
 1118              		.loc 1 141 1 is_stmt 0 view .LVU354
 1119 0000 0346     		mov	r3, r0
 142:../../Middlewares/LVGL/GUI/lvgl/src/misc/lv_text.c **** 
 1120              		.loc 1 142 5 is_stmt 1 view .LVU355
 1121              	.LVL113:
 144:../../Middlewares/LVGL/GUI/lvgl/src/misc/lv_text.c ****         if(*state == LV_TEXT_CMD_STATE_WAIT) { /*Start char*/
 1122              		.loc 1 144 5 view .LVU356
 144:../../Middlewares/LVGL/GUI/lvgl/src/misc/lv_text.c ****         if(*state == LV_TEXT_CMD_STATE_WAIT) { /*Start char*/
 1123              		.loc 1 144 7 is_stmt 0 view .LVU357
 1124 0002 2329     		cmp	r1, #35
 1125 0004 04D0     		beq	.L90
 142:../../Middlewares/LVGL/GUI/lvgl/src/misc/lv_text.c **** 
 1126              		.loc 1 142 10 view .LVU358
 1127 0006 0020     		movs	r0, #0
 1128              	.LVL114:
 1129              	.L84:
 161:../../Middlewares/LVGL/GUI/lvgl/src/misc/lv_text.c ****         if(c == ' ') {
 1130              		.loc 1 161 5 is_stmt 1 view .LVU359
 161:../../Middlewares/LVGL/GUI/lvgl/src/misc/lv_text.c ****         if(c == ' ') {
ARM GAS  C:\Users\28576\AppData\Local\Temp\ccMimN1K.s 			page 41


 1131              		.loc 1 161 8 is_stmt 0 view .LVU360
 1132 0008 1A78     		ldrb	r2, [r3]	@ zero_extendqisi2
 161:../../Middlewares/LVGL/GUI/lvgl/src/misc/lv_text.c ****         if(c == ' ') {
 1133              		.loc 1 161 7 view .LVU361
 1134 000a 012A     		cmp	r2, #1
 1135 000c 0DD0     		beq	.L91
 1136              	.LVL115:
 1137              	.L86:
 168:../../Middlewares/LVGL/GUI/lvgl/src/misc/lv_text.c **** }
 1138              		.loc 1 168 5 is_stmt 1 view .LVU362
 169:../../Middlewares/LVGL/GUI/lvgl/src/misc/lv_text.c **** 
 1139              		.loc 1 169 1 is_stmt 0 view .LVU363
 1140 000e 7047     		bx	lr
 1141              	.LVL116:
 1142              	.L90:
 145:../../Middlewares/LVGL/GUI/lvgl/src/misc/lv_text.c ****             *state = LV_TEXT_CMD_STATE_PAR;
 1143              		.loc 1 145 9 is_stmt 1 view .LVU364
 145:../../Middlewares/LVGL/GUI/lvgl/src/misc/lv_text.c ****             *state = LV_TEXT_CMD_STATE_PAR;
 1144              		.loc 1 145 12 is_stmt 0 view .LVU365
 1145 0010 0278     		ldrb	r2, [r0]	@ zero_extendqisi2
 145:../../Middlewares/LVGL/GUI/lvgl/src/misc/lv_text.c ****             *state = LV_TEXT_CMD_STATE_PAR;
 1146              		.loc 1 145 11 view .LVU366
 1147 0012 12B9     		cbnz	r2, .L85
 146:../../Middlewares/LVGL/GUI/lvgl/src/misc/lv_text.c ****             ret = true;
 1148              		.loc 1 146 13 is_stmt 1 view .LVU367
 146:../../Middlewares/LVGL/GUI/lvgl/src/misc/lv_text.c ****             ret = true;
 1149              		.loc 1 146 20 is_stmt 0 view .LVU368
 1150 0014 0120     		movs	r0, #1
 1151              	.LVL117:
 146:../../Middlewares/LVGL/GUI/lvgl/src/misc/lv_text.c ****             ret = true;
 1152              		.loc 1 146 20 view .LVU369
 1153 0016 1870     		strb	r0, [r3]
 147:../../Middlewares/LVGL/GUI/lvgl/src/misc/lv_text.c ****         }
 1154              		.loc 1 147 13 is_stmt 1 view .LVU370
 1155              	.LVL118:
 147:../../Middlewares/LVGL/GUI/lvgl/src/misc/lv_text.c ****         }
 1156              		.loc 1 147 13 is_stmt 0 view .LVU371
 1157 0018 F6E7     		b	.L84
 1158              	.LVL119:
 1159              	.L85:
 150:../../Middlewares/LVGL/GUI/lvgl/src/misc/lv_text.c ****             *state = LV_TEXT_CMD_STATE_WAIT;
 1160              		.loc 1 150 14 is_stmt 1 view .LVU372
 154:../../Middlewares/LVGL/GUI/lvgl/src/misc/lv_text.c ****             *state = LV_TEXT_CMD_STATE_WAIT;
 1161              		.loc 1 154 14 view .LVU373
 154:../../Middlewares/LVGL/GUI/lvgl/src/misc/lv_text.c ****             *state = LV_TEXT_CMD_STATE_WAIT;
 1162              		.loc 1 154 16 is_stmt 0 view .LVU374
 1163 001a 022A     		cmp	r2, #2
 1164 001c 01D0     		beq	.L92
 142:../../Middlewares/LVGL/GUI/lvgl/src/misc/lv_text.c **** 
 1165              		.loc 1 142 10 view .LVU375
 1166 001e 0020     		movs	r0, #0
 1167              	.LVL120:
 142:../../Middlewares/LVGL/GUI/lvgl/src/misc/lv_text.c **** 
 1168              		.loc 1 142 10 view .LVU376
 1169 0020 F2E7     		b	.L84
 1170              	.LVL121:
 1171              	.L92:
ARM GAS  C:\Users\28576\AppData\Local\Temp\ccMimN1K.s 			page 42


 155:../../Middlewares/LVGL/GUI/lvgl/src/misc/lv_text.c ****             ret = true;
 1172              		.loc 1 155 13 is_stmt 1 view .LVU377
 155:../../Middlewares/LVGL/GUI/lvgl/src/misc/lv_text.c ****             ret = true;
 1173              		.loc 1 155 20 is_stmt 0 view .LVU378
 1174 0022 0022     		movs	r2, #0
 1175 0024 0270     		strb	r2, [r0]
 156:../../Middlewares/LVGL/GUI/lvgl/src/misc/lv_text.c ****         }
 1176              		.loc 1 156 13 is_stmt 1 view .LVU379
 1177              	.LVL122:
 156:../../Middlewares/LVGL/GUI/lvgl/src/misc/lv_text.c ****         }
 1178              		.loc 1 156 17 is_stmt 0 view .LVU380
 1179 0026 0120     		movs	r0, #1
 1180              	.LVL123:
 156:../../Middlewares/LVGL/GUI/lvgl/src/misc/lv_text.c ****         }
 1181              		.loc 1 156 17 view .LVU381
 1182 0028 EEE7     		b	.L84
 1183              	.LVL124:
 1184              	.L91:
 162:../../Middlewares/LVGL/GUI/lvgl/src/misc/lv_text.c ****             *state = LV_TEXT_CMD_STATE_IN; /*After the parameter the text is in the command*/
 1185              		.loc 1 162 9 is_stmt 1 view .LVU382
 162:../../Middlewares/LVGL/GUI/lvgl/src/misc/lv_text.c ****             *state = LV_TEXT_CMD_STATE_IN; /*After the parameter the text is in the command*/
 1186              		.loc 1 162 11 is_stmt 0 view .LVU383
 1187 002a 2029     		cmp	r1, #32
 1188 002c 01D0     		beq	.L93
 165:../../Middlewares/LVGL/GUI/lvgl/src/misc/lv_text.c ****     }
 1189              		.loc 1 165 13 view .LVU384
 1190 002e 0120     		movs	r0, #1
 1191              	.LVL125:
 165:../../Middlewares/LVGL/GUI/lvgl/src/misc/lv_text.c ****     }
 1192              		.loc 1 165 13 view .LVU385
 1193 0030 EDE7     		b	.L86
 1194              	.LVL126:
 1195              	.L93:
 163:../../Middlewares/LVGL/GUI/lvgl/src/misc/lv_text.c ****         }
 1196              		.loc 1 163 13 is_stmt 1 view .LVU386
 163:../../Middlewares/LVGL/GUI/lvgl/src/misc/lv_text.c ****         }
 1197              		.loc 1 163 20 is_stmt 0 view .LVU387
 1198 0032 0222     		movs	r2, #2
 1199 0034 1A70     		strb	r2, [r3]
 165:../../Middlewares/LVGL/GUI/lvgl/src/misc/lv_text.c ****     }
 1200              		.loc 1 165 13 view .LVU388
 1201 0036 0120     		movs	r0, #1
 1202              	.LVL127:
 165:../../Middlewares/LVGL/GUI/lvgl/src/misc/lv_text.c ****     }
 1203              		.loc 1 165 13 view .LVU389
 1204 0038 7047     		bx	lr
 1205              		.cfi_endproc
 1206              	.LFE23:
 1208              		.section	.rodata.lv_text_get_next_word.str1.4,"aMS",%progbits,1
 1209              		.align	2
 1210              	.LC0:
 1211 0000 202C2E3B 		.ascii	" ,.;:-_)]}\000"
 1211      3A2D5F29 
 1211      5D7D00
 1212              		.section	.text.lv_text_get_next_word,"ax",%progbits
 1213              		.align	1
 1214              		.syntax unified
ARM GAS  C:\Users\28576\AppData\Local\Temp\ccMimN1K.s 			page 43


 1215              		.thumb
 1216              		.thumb_func
 1218              	lv_text_get_next_word:
 1219              	.LVL128:
 1220              	.LFB24:
 206:../../Middlewares/LVGL/GUI/lvgl/src/misc/lv_text.c ****     if(txt == NULL || txt[0] == '\0') return 0;
 1221              		.loc 1 206 1 is_stmt 1 view -0
 1222              		.cfi_startproc
 1223              		@ args = 12, pretend = 0, frame = 24
 1224              		@ frame_needed = 0, uses_anonymous_args = 0
 206:../../Middlewares/LVGL/GUI/lvgl/src/misc/lv_text.c ****     if(txt == NULL || txt[0] == '\0') return 0;
 1225              		.loc 1 206 1 is_stmt 0 view .LVU391
 1226 0000 2DE9F04F 		push	{r4, r5, r6, r7, r8, r9, r10, fp, lr}
 1227              	.LCFI22:
 1228              		.cfi_def_cfa_offset 36
 1229              		.cfi_offset 4, -36
 1230              		.cfi_offset 5, -32
 1231              		.cfi_offset 6, -28
 1232              		.cfi_offset 7, -24
 1233              		.cfi_offset 8, -20
 1234              		.cfi_offset 9, -16
 1235              		.cfi_offset 10, -12
 1236              		.cfi_offset 11, -8
 1237              		.cfi_offset 14, -4
 1238 0004 87B0     		sub	sp, sp, #28
 1239              	.LCFI23:
 1240              		.cfi_def_cfa_offset 64
 1241 0006 0291     		str	r1, [sp, #8]
 1242 0008 0192     		str	r2, [sp, #4]
 1243 000a 0393     		str	r3, [sp, #12]
 1244 000c 9DF840B0 		ldrb	fp, [sp, #64]	@ zero_extendqisi2
 207:../../Middlewares/LVGL/GUI/lvgl/src/misc/lv_text.c ****     if(font == NULL) return 0;
 1245              		.loc 1 207 5 is_stmt 1 view .LVU392
 207:../../Middlewares/LVGL/GUI/lvgl/src/misc/lv_text.c ****     if(font == NULL) return 0;
 1246              		.loc 1 207 7 is_stmt 0 view .LVU393
 1247 0010 0028     		cmp	r0, #0
 1248 0012 00F0A680 		beq	.L115
 1249 0016 8046     		mov	r8, r0
 207:../../Middlewares/LVGL/GUI/lvgl/src/misc/lv_text.c ****     if(font == NULL) return 0;
 1250              		.loc 1 207 26 discriminator 2 view .LVU394
 1251 0018 0378     		ldrb	r3, [r0]	@ zero_extendqisi2
 1252              	.LVL129:
 207:../../Middlewares/LVGL/GUI/lvgl/src/misc/lv_text.c ****     if(font == NULL) return 0;
 1253              		.loc 1 207 20 discriminator 2 view .LVU395
 1254 001a 002B     		cmp	r3, #0
 1255 001c 00F0A380 		beq	.L116
 208:../../Middlewares/LVGL/GUI/lvgl/src/misc/lv_text.c **** 
 1256              		.loc 1 208 5 is_stmt 1 view .LVU396
 208:../../Middlewares/LVGL/GUI/lvgl/src/misc/lv_text.c **** 
 1257              		.loc 1 208 7 is_stmt 0 view .LVU397
 1258 0020 0029     		cmp	r1, #0
 1259 0022 00F0A580 		beq	.L117
 210:../../Middlewares/LVGL/GUI/lvgl/src/misc/lv_text.c **** 
 1260              		.loc 1 210 5 is_stmt 1 view .LVU398
 210:../../Middlewares/LVGL/GUI/lvgl/src/misc/lv_text.c **** 
 1261              		.loc 1 210 7 is_stmt 0 view .LVU399
 1262 0026 1BF0010F 		tst	fp, #1
ARM GAS  C:\Users\28576\AppData\Local\Temp\ccMimN1K.s 			page 44


 1263 002a 02D0     		beq	.L96
 210:../../Middlewares/LVGL/GUI/lvgl/src/misc/lv_text.c **** 
 1264              		.loc 1 210 46 discriminator 1 view .LVU400
 1265 002c 6FF06043 		mvn	r3, #-536870912
 1266 0030 0393     		str	r3, [sp, #12]
 1267              	.LVL130:
 1268              	.L96:
 212:../../Middlewares/LVGL/GUI/lvgl/src/misc/lv_text.c ****     uint32_t letter = 0;      /*Letter at i*/
 1269              		.loc 1 212 5 is_stmt 1 view .LVU401
 212:../../Middlewares/LVGL/GUI/lvgl/src/misc/lv_text.c ****     uint32_t letter = 0;      /*Letter at i*/
 1270              		.loc 1 212 21 is_stmt 0 view .LVU402
 1271 0032 0027     		movs	r7, #0
 1272 0034 0597     		str	r7, [sp, #20]
 212:../../Middlewares/LVGL/GUI/lvgl/src/misc/lv_text.c ****     uint32_t letter = 0;      /*Letter at i*/
 1273              		.loc 1 212 33 view .LVU403
 1274 0036 0497     		str	r7, [sp, #16]
 213:../../Middlewares/LVGL/GUI/lvgl/src/misc/lv_text.c ****     uint32_t letter_next = 0; /*Letter at i_next*/
 1275              		.loc 1 213 5 is_stmt 1 view .LVU404
 1276              	.LVL131:
 214:../../Middlewares/LVGL/GUI/lvgl/src/misc/lv_text.c ****     int32_t letter_w;
 1277              		.loc 1 214 5 view .LVU405
 215:../../Middlewares/LVGL/GUI/lvgl/src/misc/lv_text.c ****     int32_t cur_w = 0;  /*Pixel Width of traversed string*/
 1278              		.loc 1 215 5 view .LVU406
 216:../../Middlewares/LVGL/GUI/lvgl/src/misc/lv_text.c ****     uint32_t word_len = 0;   /*Number of characters in the traversed word*/
 1279              		.loc 1 216 5 view .LVU407
 217:../../Middlewares/LVGL/GUI/lvgl/src/misc/lv_text.c ****     uint32_t break_index = NO_BREAK_FOUND; /*only used for "long" words*/
 1280              		.loc 1 217 5 view .LVU408
 218:../../Middlewares/LVGL/GUI/lvgl/src/misc/lv_text.c ****     uint32_t break_letter_count = 0; /*Number of characters up to the long word break point*/
 1281              		.loc 1 218 5 view .LVU409
 219:../../Middlewares/LVGL/GUI/lvgl/src/misc/lv_text.c **** 
 1282              		.loc 1 219 5 view .LVU410
 221:../../Middlewares/LVGL/GUI/lvgl/src/misc/lv_text.c ****     i_next_next = i_next;
 1283              		.loc 1 221 5 view .LVU411
 221:../../Middlewares/LVGL/GUI/lvgl/src/misc/lv_text.c ****     i_next_next = i_next;
 1284              		.loc 1 221 14 is_stmt 0 view .LVU412
 1285 0038 05A9     		add	r1, sp, #20
 1286              	.LVL132:
 221:../../Middlewares/LVGL/GUI/lvgl/src/misc/lv_text.c ****     i_next_next = i_next;
 1287              		.loc 1 221 14 view .LVU413
 1288 003a 4046     		mov	r0, r8
 1289              	.LVL133:
 221:../../Middlewares/LVGL/GUI/lvgl/src/misc/lv_text.c ****     i_next_next = i_next;
 1290              		.loc 1 221 14 view .LVU414
 1291 003c FFF7FEFF 		bl	lv_text_utf8_next
 1292              	.LVL134:
 221:../../Middlewares/LVGL/GUI/lvgl/src/misc/lv_text.c ****     i_next_next = i_next;
 1293              		.loc 1 221 14 view .LVU415
 1294 0040 0446     		mov	r4, r0
 1295              	.LVL135:
 222:../../Middlewares/LVGL/GUI/lvgl/src/misc/lv_text.c **** 
 1296              		.loc 1 222 5 is_stmt 1 view .LVU416
 222:../../Middlewares/LVGL/GUI/lvgl/src/misc/lv_text.c **** 
 1297              		.loc 1 222 17 is_stmt 0 view .LVU417
 1298 0042 059B     		ldr	r3, [sp, #20]
 1299 0044 0493     		str	r3, [sp, #16]
 225:../../Middlewares/LVGL/GUI/lvgl/src/misc/lv_text.c ****         letter_next = lv_text_encoded_next(txt, &i_next_next);
 1300              		.loc 1 225 5 is_stmt 1 view .LVU418
ARM GAS  C:\Users\28576\AppData\Local\Temp\ccMimN1K.s 			page 45


 218:../../Middlewares/LVGL/GUI/lvgl/src/misc/lv_text.c ****     uint32_t break_letter_count = 0; /*Number of characters up to the long word break point*/
 1301              		.loc 1 218 14 is_stmt 0 view .LVU419
 1302 0046 4FF0FF3A 		mov	r10, #-1
 217:../../Middlewares/LVGL/GUI/lvgl/src/misc/lv_text.c ****     uint32_t break_index = NO_BREAK_FOUND; /*only used for "long" words*/
 1303              		.loc 1 217 14 view .LVU420
 1304 004a B946     		mov	r9, r7
 216:../../Middlewares/LVGL/GUI/lvgl/src/misc/lv_text.c ****     uint32_t word_len = 0;   /*Number of characters in the traversed word*/
 1305              		.loc 1 216 13 view .LVU421
 1306 004c 3E46     		mov	r6, r7
 214:../../Middlewares/LVGL/GUI/lvgl/src/misc/lv_text.c ****     int32_t letter_w;
 1307              		.loc 1 214 14 view .LVU422
 1308 004e 3D46     		mov	r5, r7
 225:../../Middlewares/LVGL/GUI/lvgl/src/misc/lv_text.c ****         letter_next = lv_text_encoded_next(txt, &i_next_next);
 1309              		.loc 1 225 10 view .LVU423
 1310 0050 21E0     		b	.L97
 1311              	.LVL136:
 1312              	.L124:
 232:../../Middlewares/LVGL/GUI/lvgl/src/misc/lv_text.c ****                 i_next = i_next_next;
 1313              		.loc 1 232 17 is_stmt 1 view .LVU424
 232:../../Middlewares/LVGL/GUI/lvgl/src/misc/lv_text.c ****                 i_next = i_next_next;
 1314              		.loc 1 232 19 is_stmt 0 view .LVU425
 1315 0052 059F     		ldr	r7, [sp, #20]
 1316              	.LVL137:
 233:../../Middlewares/LVGL/GUI/lvgl/src/misc/lv_text.c ****                 letter = letter_next;
 1317              		.loc 1 233 17 is_stmt 1 view .LVU426
 233:../../Middlewares/LVGL/GUI/lvgl/src/misc/lv_text.c ****                 letter = letter_next;
 1318              		.loc 1 233 24 is_stmt 0 view .LVU427
 1319 0054 049B     		ldr	r3, [sp, #16]
 1320 0056 0593     		str	r3, [sp, #20]
 234:../../Middlewares/LVGL/GUI/lvgl/src/misc/lv_text.c ****                 continue;   /*Skip the letter if it is part of a command*/
 1321              		.loc 1 234 17 is_stmt 1 view .LVU428
 1322              	.LVL138:
 235:../../Middlewares/LVGL/GUI/lvgl/src/misc/lv_text.c ****             }
 1323              		.loc 1 235 17 view .LVU429
 1324 0058 1AE0     		b	.L99
 1325              	.LVL139:
 1326              	.L120:
 1327              	.LBB7:
 1328              	.LBB8:
  98:../../Middlewares/LVGL/GUI/lvgl/src/misc/lv_text_private.h ****             break;
 1329              		.loc 2 98 17 is_stmt 0 view .LVU430
 1330 005a 0121     		movs	r1, #1
 1331              	.L105:
 103:../../Middlewares/LVGL/GUI/lvgl/src/misc/lv_text_private.h **** }
 1332              		.loc 2 103 5 is_stmt 1 view .LVU431
 1333              	.LVL140:
 103:../../Middlewares/LVGL/GUI/lvgl/src/misc/lv_text_private.h **** }
 1334              		.loc 2 103 5 is_stmt 0 view .LVU432
 1335              	.LBE8:
 1336              	.LBE7:
 257:../../Middlewares/LVGL/GUI/lvgl/src/misc/lv_text.c ****             /*Update the output width on the first character if it fits.
 1337              		.loc 1 257 45 discriminator 2 view .LVU433
 1338 005c 0029     		cmp	r1, #0
 1339 005e 56D1     		bne	.L103
 264:../../Middlewares/LVGL/GUI/lvgl/src/misc/lv_text.c ****             /*Found a word for single letter, usually true for CJK*/
 1340              		.loc 1 264 14 is_stmt 1 view .LVU434
 264:../../Middlewares/LVGL/GUI/lvgl/src/misc/lv_text.c ****             /*Found a word for single letter, usually true for CJK*/
ARM GAS  C:\Users\28576\AppData\Local\Temp\ccMimN1K.s 			page 46


 1341              		.loc 1 264 17 is_stmt 0 view .LVU435
 1342 0060 2846     		mov	r0, r5
 1343              	.LVL141:
 264:../../Middlewares/LVGL/GUI/lvgl/src/misc/lv_text.c ****             /*Found a word for single letter, usually true for CJK*/
 1344              		.loc 1 264 17 view .LVU436
 1345 0062 FFF7FEFF 		bl	lv_text_is_a_word
 1346              	.LVL142:
 264:../../Middlewares/LVGL/GUI/lvgl/src/misc/lv_text.c ****             /*Found a word for single letter, usually true for CJK*/
 1347              		.loc 1 264 16 discriminator 1 view .LVU437
 1348 0066 0028     		cmp	r0, #0
 1349 0068 5AD1     		bne	.L108
 264:../../Middlewares/LVGL/GUI/lvgl/src/misc/lv_text.c ****             /*Found a word for single letter, usually true for CJK*/
 1350              		.loc 1 264 51 discriminator 2 view .LVU438
 1351 006a 2046     		mov	r0, r4
 1352 006c FFF7FEFF 		bl	lv_text_is_a_word
 1353              	.LVL143:
 264:../../Middlewares/LVGL/GUI/lvgl/src/misc/lv_text.c ****             /*Found a word for single letter, usually true for CJK*/
 1354              		.loc 1 264 48 discriminator 3 view .LVU439
 1355 0070 0028     		cmp	r0, #0
 1356 0072 55D1     		bne	.L108
 272:../../Middlewares/LVGL/GUI/lvgl/src/misc/lv_text.c **** 
 1357              		.loc 1 272 9 is_stmt 1 view .LVU440
 272:../../Middlewares/LVGL/GUI/lvgl/src/misc/lv_text.c **** 
 1358              		.loc 1 272 31 is_stmt 0 view .LVU441
 1359 0074 119B     		ldr	r3, [sp, #68]
 1360 0076 1B1A     		subs	r3, r3, r0
 1361 0078 18BF     		it	ne
 1362 007a 0123     		movne	r3, #1
 1363 007c BAF1FF3F 		cmp	r10, #-1
 1364 0080 18BF     		it	ne
 1365 0082 0023     		movne	r3, #0
 272:../../Middlewares/LVGL/GUI/lvgl/src/misc/lv_text.c **** 
 1366              		.loc 1 272 11 view .LVU442
 1367 0084 0BB1     		cbz	r3, .L110
 272:../../Middlewares/LVGL/GUI/lvgl/src/misc/lv_text.c **** 
 1368              		.loc 1 272 65 is_stmt 1 discriminator 1 view .LVU443
 272:../../Middlewares/LVGL/GUI/lvgl/src/misc/lv_text.c **** 
 1369              		.loc 1 272 77 is_stmt 0 discriminator 1 view .LVU444
 1370 0086 119B     		ldr	r3, [sp, #68]
 1371 0088 1E60     		str	r6, [r3]
 1372              	.L110:
 274:../../Middlewares/LVGL/GUI/lvgl/src/misc/lv_text.c ****         i_next = i_next_next;
 1373              		.loc 1 274 9 is_stmt 1 view .LVU445
 274:../../Middlewares/LVGL/GUI/lvgl/src/misc/lv_text.c ****         i_next = i_next_next;
 1374              		.loc 1 274 11 is_stmt 0 view .LVU446
 1375 008a 059F     		ldr	r7, [sp, #20]
 1376              	.LVL144:
 275:../../Middlewares/LVGL/GUI/lvgl/src/misc/lv_text.c ****         letter = letter_next;
 1377              		.loc 1 275 9 is_stmt 1 view .LVU447
 275:../../Middlewares/LVGL/GUI/lvgl/src/misc/lv_text.c ****         letter = letter_next;
 1378              		.loc 1 275 16 is_stmt 0 view .LVU448
 1379 008c 049B     		ldr	r3, [sp, #16]
 1380 008e 0593     		str	r3, [sp, #20]
 276:../../Middlewares/LVGL/GUI/lvgl/src/misc/lv_text.c ****     }
 1381              		.loc 1 276 9 is_stmt 1 view .LVU449
 1382              	.LVL145:
 1383              	.L99:
ARM GAS  C:\Users\28576\AppData\Local\Temp\ccMimN1K.s 			page 47


 1384              	.LBB11:
 1385              	.LBB9:
  98:../../Middlewares/LVGL/GUI/lvgl/src/misc/lv_text_private.h ****             break;
 1386              		.loc 2 98 17 is_stmt 0 view .LVU450
 1387 0090 DDF80090 		ldr	r9, [sp]
 1388 0094 2C46     		mov	r4, r5
 1389              	.LVL146:
 1390              	.L97:
  98:../../Middlewares/LVGL/GUI/lvgl/src/misc/lv_text_private.h ****             break;
 1391              		.loc 2 98 17 view .LVU451
 1392              	.LBE9:
 1393              	.LBE11:
 225:../../Middlewares/LVGL/GUI/lvgl/src/misc/lv_text.c ****         letter_next = lv_text_encoded_next(txt, &i_next_next);
 1394              		.loc 1 225 18 is_stmt 1 view .LVU452
 225:../../Middlewares/LVGL/GUI/lvgl/src/misc/lv_text.c ****         letter_next = lv_text_encoded_next(txt, &i_next_next);
 1395              		.loc 1 225 14 is_stmt 0 view .LVU453
 1396 0096 18F80730 		ldrb	r3, [r8, r7]	@ zero_extendqisi2
 225:../../Middlewares/LVGL/GUI/lvgl/src/misc/lv_text.c ****         letter_next = lv_text_encoded_next(txt, &i_next_next);
 1397              		.loc 1 225 18 view .LVU454
 1398 009a 002B     		cmp	r3, #0
 1399 009c 45D0     		beq	.L102
 226:../../Middlewares/LVGL/GUI/lvgl/src/misc/lv_text.c ****         word_len++;
 1400              		.loc 1 226 9 is_stmt 1 view .LVU455
 226:../../Middlewares/LVGL/GUI/lvgl/src/misc/lv_text.c ****         word_len++;
 1401              		.loc 1 226 23 is_stmt 0 view .LVU456
 1402 009e 04A9     		add	r1, sp, #16
 1403 00a0 4046     		mov	r0, r8
 1404 00a2 FFF7FEFF 		bl	lv_text_utf8_next
 1405              	.LVL147:
 1406 00a6 0546     		mov	r5, r0
 1407              	.LVL148:
 227:../../Middlewares/LVGL/GUI/lvgl/src/misc/lv_text.c **** 
 1408              		.loc 1 227 9 is_stmt 1 view .LVU457
 227:../../Middlewares/LVGL/GUI/lvgl/src/misc/lv_text.c **** 
 1409              		.loc 1 227 17 is_stmt 0 view .LVU458
 1410 00a8 09F10103 		add	r3, r9, #1
 1411 00ac 0093     		str	r3, [sp]
 1412              	.LVL149:
 230:../../Middlewares/LVGL/GUI/lvgl/src/misc/lv_text.c ****             if(lv_text_is_cmd(cmd_state, letter)) {
 1413              		.loc 1 230 9 is_stmt 1 view .LVU459
 230:../../Middlewares/LVGL/GUI/lvgl/src/misc/lv_text.c ****             if(lv_text_is_cmd(cmd_state, letter)) {
 1414              		.loc 1 230 11 is_stmt 0 view .LVU460
 1415 00ae 1BF0080F 		tst	fp, #8
 1416 00b2 05D0     		beq	.L98
 231:../../Middlewares/LVGL/GUI/lvgl/src/misc/lv_text.c ****                 i = i_next;
 1417              		.loc 1 231 13 is_stmt 1 view .LVU461
 231:../../Middlewares/LVGL/GUI/lvgl/src/misc/lv_text.c ****                 i = i_next;
 1418              		.loc 1 231 16 is_stmt 0 view .LVU462
 1419 00b4 2146     		mov	r1, r4
 1420 00b6 1298     		ldr	r0, [sp, #72]
 1421              	.LVL150:
 231:../../Middlewares/LVGL/GUI/lvgl/src/misc/lv_text.c ****                 i = i_next;
 1422              		.loc 1 231 16 view .LVU463
 1423 00b8 FFF7FEFF 		bl	lv_text_is_cmd
 1424              	.LVL151:
 231:../../Middlewares/LVGL/GUI/lvgl/src/misc/lv_text.c ****                 i = i_next;
 1425              		.loc 1 231 15 discriminator 1 view .LVU464
ARM GAS  C:\Users\28576\AppData\Local\Temp\ccMimN1K.s 			page 48


 1426 00bc 0028     		cmp	r0, #0
 1427 00be C8D1     		bne	.L124
 1428              	.L98:
 239:../../Middlewares/LVGL/GUI/lvgl/src/misc/lv_text.c ****         cur_w += letter_w;
 1429              		.loc 1 239 9 is_stmt 1 view .LVU465
 239:../../Middlewares/LVGL/GUI/lvgl/src/misc/lv_text.c ****         cur_w += letter_w;
 1430              		.loc 1 239 20 is_stmt 0 view .LVU466
 1431 00c0 2A46     		mov	r2, r5
 1432 00c2 2146     		mov	r1, r4
 1433 00c4 0298     		ldr	r0, [sp, #8]
 1434 00c6 FFF7FEFF 		bl	lv_font_get_glyph_width
 1435              	.LVL152:
 240:../../Middlewares/LVGL/GUI/lvgl/src/misc/lv_text.c **** 
 1436              		.loc 1 240 9 is_stmt 1 view .LVU467
 240:../../Middlewares/LVGL/GUI/lvgl/src/misc/lv_text.c **** 
 1437              		.loc 1 240 15 is_stmt 0 view .LVU468
 1438 00ca 0644     		add	r6, r6, r0
 1439              	.LVL153:
 242:../../Middlewares/LVGL/GUI/lvgl/src/misc/lv_text.c ****             cur_w += letter_space;
 1440              		.loc 1 242 9 is_stmt 1 view .LVU469
 242:../../Middlewares/LVGL/GUI/lvgl/src/misc/lv_text.c ****             cur_w += letter_space;
 1441              		.loc 1 242 11 is_stmt 0 view .LVU470
 1442 00cc 0028     		cmp	r0, #0
 1443 00ce 01DD     		ble	.L100
 243:../../Middlewares/LVGL/GUI/lvgl/src/misc/lv_text.c ****         }
 1444              		.loc 1 243 13 is_stmt 1 view .LVU471
 243:../../Middlewares/LVGL/GUI/lvgl/src/misc/lv_text.c ****         }
 1445              		.loc 1 243 19 is_stmt 0 view .LVU472
 1446 00d0 019B     		ldr	r3, [sp, #4]
 1447 00d2 1E44     		add	r6, r6, r3
 1448              	.LVL154:
 1449              	.L100:
 247:../../Middlewares/LVGL/GUI/lvgl/src/misc/lv_text.c ****             break_index = i;
 1450              		.loc 1 247 9 is_stmt 1 view .LVU473
 247:../../Middlewares/LVGL/GUI/lvgl/src/misc/lv_text.c ****             break_index = i;
 1451              		.loc 1 247 11 is_stmt 0 view .LVU474
 1452 00d4 BAF1FF3F 		cmp	r10, #-1
 1453 00d8 08D1     		bne	.L101
 247:../../Middlewares/LVGL/GUI/lvgl/src/misc/lv_text.c ****             break_index = i;
 1454              		.loc 1 247 52 discriminator 1 view .LVU475
 1455 00da 019B     		ldr	r3, [sp, #4]
 1456 00dc F31A     		subs	r3, r6, r3
 247:../../Middlewares/LVGL/GUI/lvgl/src/misc/lv_text.c ****             break_index = i;
 1457              		.loc 1 247 42 discriminator 1 view .LVU476
 1458 00de 039A     		ldr	r2, [sp, #12]
 1459 00e0 9342     		cmp	r3, r2
 1460 00e2 03DD     		ble	.L101
 248:../../Middlewares/LVGL/GUI/lvgl/src/misc/lv_text.c ****             break_letter_count = word_len - 1;
 1461              		.loc 1 248 13 is_stmt 1 view .LVU477
 1462              	.LVL155:
 249:../../Middlewares/LVGL/GUI/lvgl/src/misc/lv_text.c ****             if(flag & LV_TEXT_FLAG_BREAK_ALL) {
 1463              		.loc 1 249 13 view .LVU478
 250:../../Middlewares/LVGL/GUI/lvgl/src/misc/lv_text.c ****                 break;
 1464              		.loc 1 250 13 view .LVU479
 250:../../Middlewares/LVGL/GUI/lvgl/src/misc/lv_text.c ****                 break;
 1465              		.loc 1 250 15 is_stmt 0 view .LVU480
 1466 00e4 1BF0040F 		tst	fp, #4
ARM GAS  C:\Users\28576\AppData\Local\Temp\ccMimN1K.s 			page 49


 1467 00e8 2BD1     		bne	.L119
 248:../../Middlewares/LVGL/GUI/lvgl/src/misc/lv_text.c ****             break_letter_count = word_len - 1;
 1468              		.loc 1 248 25 view .LVU481
 1469 00ea BA46     		mov	r10, r7
 1470              	.LVL156:
 1471              	.L101:
 257:../../Middlewares/LVGL/GUI/lvgl/src/misc/lv_text.c ****             /*Update the output width on the first character if it fits.
 1472              		.loc 1 257 9 is_stmt 1 view .LVU482
 257:../../Middlewares/LVGL/GUI/lvgl/src/misc/lv_text.c ****             /*Update the output width on the first character if it fits.
 1473              		.loc 1 257 11 is_stmt 0 view .LVU483
 1474 00ec 0D2C     		cmp	r4, #13
 1475 00ee 18BF     		it	ne
 1476 00f0 0A2C     		cmpne	r4, #10
 1477 00f2 0CBF     		ite	eq
 1478 00f4 0121     		moveq	r1, #1
 1479 00f6 0021     		movne	r1, #0
 1480 00f8 09D0     		beq	.L103
 1481              	.LBB12:
 1482              	.LBB10:
  96:../../Middlewares/LVGL/GUI/lvgl/src/misc/lv_text_private.h ****         if(letter == (uint32_t)LV_TXT_BREAK_CHARS[i]) {
 1483              		.loc 2 96 11 view .LVU484
 1484 00fa 0023     		movs	r3, #0
 1485              	.L104:
 1486              	.LVL157:
  96:../../Middlewares/LVGL/GUI/lvgl/src/misc/lv_text_private.h ****         if(letter == (uint32_t)LV_TXT_BREAK_CHARS[i]) {
 1487              		.loc 2 96 38 is_stmt 1 discriminator 1 view .LVU485
  96:../../Middlewares/LVGL/GUI/lvgl/src/misc/lv_text_private.h ****         if(letter == (uint32_t)LV_TXT_BREAK_CHARS[i]) {
 1488              		.loc 2 96 34 is_stmt 0 discriminator 1 view .LVU486
 1489 00fc 1E4A     		ldr	r2, .L126
 1490 00fe D25C     		ldrb	r2, [r2, r3]	@ zero_extendqisi2
  96:../../Middlewares/LVGL/GUI/lvgl/src/misc/lv_text_private.h ****         if(letter == (uint32_t)LV_TXT_BREAK_CHARS[i]) {
 1491              		.loc 2 96 38 discriminator 1 view .LVU487
 1492 0100 002A     		cmp	r2, #0
 1493 0102 ABD0     		beq	.L105
  97:../../Middlewares/LVGL/GUI/lvgl/src/misc/lv_text_private.h ****             ret = true; /*If match then it is break char*/
 1494              		.loc 2 97 9 is_stmt 1 view .LVU488
  97:../../Middlewares/LVGL/GUI/lvgl/src/misc/lv_text_private.h ****             ret = true; /*If match then it is break char*/
 1495              		.loc 2 97 11 is_stmt 0 view .LVU489
 1496 0104 9442     		cmp	r4, r2
 1497 0106 A8D0     		beq	.L120
  96:../../Middlewares/LVGL/GUI/lvgl/src/misc/lv_text_private.h ****         if(letter == (uint32_t)LV_TXT_BREAK_CHARS[i]) {
 1498              		.loc 2 96 48 is_stmt 1 discriminator 2 view .LVU490
 1499 0108 0133     		adds	r3, r3, #1
 1500              	.LVL158:
  96:../../Middlewares/LVGL/GUI/lvgl/src/misc/lv_text_private.h ****         if(letter == (uint32_t)LV_TXT_BREAK_CHARS[i]) {
 1501              		.loc 2 96 48 is_stmt 0 discriminator 2 view .LVU491
 1502 010a DBB2     		uxtb	r3, r3
 1503              	.LVL159:
  96:../../Middlewares/LVGL/GUI/lvgl/src/misc/lv_text_private.h ****         if(letter == (uint32_t)LV_TXT_BREAK_CHARS[i]) {
 1504              		.loc 2 96 48 discriminator 2 view .LVU492
 1505 010c F6E7     		b	.L104
 1506              	.LVL160:
 1507              	.L103:
  96:../../Middlewares/LVGL/GUI/lvgl/src/misc/lv_text_private.h ****         if(letter == (uint32_t)LV_TXT_BREAK_CHARS[i]) {
 1508              		.loc 2 96 48 discriminator 2 view .LVU493
 1509              	.LBE10:
 1510              	.LBE12:
ARM GAS  C:\Users\28576\AppData\Local\Temp\ccMimN1K.s 			page 50


 260:../../Middlewares/LVGL/GUI/lvgl/src/misc/lv_text.c ****             word_len--;
 1511              		.loc 1 260 13 is_stmt 1 view .LVU494
 260:../../Middlewares/LVGL/GUI/lvgl/src/misc/lv_text.c ****             word_len--;
 1512              		.loc 1 260 15 is_stmt 0 view .LVU495
 1513 010e 002F     		cmp	r7, #0
 1514 0110 08BF     		it	eq
 1515 0112 BAF1FF3F 		cmpeq	r10, #-1
 1516 0116 08D1     		bne	.L102
 260:../../Middlewares/LVGL/GUI/lvgl/src/misc/lv_text.c ****             word_len--;
 1517              		.loc 1 260 56 discriminator 1 view .LVU496
 1518 0118 119B     		ldr	r3, [sp, #68]
 1519 011a 33B1     		cbz	r3, .L102
 260:../../Middlewares/LVGL/GUI/lvgl/src/misc/lv_text.c ****             word_len--;
 1520              		.loc 1 260 79 is_stmt 1 discriminator 2 view .LVU497
 260:../../Middlewares/LVGL/GUI/lvgl/src/misc/lv_text.c ****             word_len--;
 1521              		.loc 1 260 91 is_stmt 0 discriminator 2 view .LVU498
 1522 011c 1E60     		str	r6, [r3]
 1523 011e 04E0     		b	.L102
 1524              	.LVL161:
 1525              	.L108:
 266:../../Middlewares/LVGL/GUI/lvgl/src/misc/lv_text.c ****             i = i_next;
 1526              		.loc 1 266 13 is_stmt 1 view .LVU499
 266:../../Middlewares/LVGL/GUI/lvgl/src/misc/lv_text.c ****             i = i_next;
 1527              		.loc 1 266 25 is_stmt 0 view .LVU500
 1528 0120 119B     		ldr	r3, [sp, #68]
 1529 0122 1E60     		str	r6, [r3]
 267:../../Middlewares/LVGL/GUI/lvgl/src/misc/lv_text.c ****             break;
 1530              		.loc 1 267 13 is_stmt 1 view .LVU501
 267:../../Middlewares/LVGL/GUI/lvgl/src/misc/lv_text.c ****             break;
 1531              		.loc 1 267 15 is_stmt 0 view .LVU502
 1532 0124 059F     		ldr	r7, [sp, #20]
 1533              	.LVL162:
 268:../../Middlewares/LVGL/GUI/lvgl/src/misc/lv_text.c ****         }
 1534              		.loc 1 268 13 is_stmt 1 view .LVU503
 227:../../Middlewares/LVGL/GUI/lvgl/src/misc/lv_text.c **** 
 1535              		.loc 1 227 17 is_stmt 0 view .LVU504
 1536 0126 DDF80090 		ldr	r9, [sp]
 1537              	.LVL163:
 1538              	.L102:
 280:../../Middlewares/LVGL/GUI/lvgl/src/misc/lv_text.c ****         if(word_len == 0 || (letter == '\r' && letter_next == '\n')) i = i_next;
 1539              		.loc 1 280 5 is_stmt 1 view .LVU505
 280:../../Middlewares/LVGL/GUI/lvgl/src/misc/lv_text.c ****         if(word_len == 0 || (letter == '\r' && letter_next == '\n')) i = i_next;
 1540              		.loc 1 280 7 is_stmt 0 view .LVU506
 1541 012a BAF1FF3F 		cmp	r10, #-1
 1542 012e 0CD0     		beq	.L125
 315:../../Middlewares/LVGL/GUI/lvgl/src/misc/lv_text.c ****     if(word_w_ptr != NULL) *word_w_ptr = 0; /*Return no word*/
 1543              		.loc 1 315 5 is_stmt 1 view .LVU507
 315:../../Middlewares/LVGL/GUI/lvgl/src/misc/lv_text.c ****     if(word_w_ptr != NULL) *word_w_ptr = 0; /*Return no word*/
 1544              		.loc 1 315 7 is_stmt 0 view .LVU508
 1545 0130 1BF0040F 		tst	fp, #4
 1546 0134 18D1     		bne	.L94
 316:../../Middlewares/LVGL/GUI/lvgl/src/misc/lv_text.c ****     (void) break_letter_count;
 1547              		.loc 1 316 5 is_stmt 1 view .LVU509
 316:../../Middlewares/LVGL/GUI/lvgl/src/misc/lv_text.c ****     (void) break_letter_count;
 1548              		.loc 1 316 7 is_stmt 0 view .LVU510
 1549 0136 119B     		ldr	r3, [sp, #68]
 1550 0138 E3B1     		cbz	r3, .L122
ARM GAS  C:\Users\28576\AppData\Local\Temp\ccMimN1K.s 			page 51


 316:../../Middlewares/LVGL/GUI/lvgl/src/misc/lv_text.c ****     (void) break_letter_count;
 1551              		.loc 1 316 28 is_stmt 1 discriminator 1 view .LVU511
 316:../../Middlewares/LVGL/GUI/lvgl/src/misc/lv_text.c ****     (void) break_letter_count;
 1552              		.loc 1 316 40 is_stmt 0 discriminator 1 view .LVU512
 1553 013a 0021     		movs	r1, #0
 1554 013c 1960     		str	r1, [r3]
 318:../../Middlewares/LVGL/GUI/lvgl/src/misc/lv_text.c **** #endif
 1555              		.loc 1 318 12 view .LVU513
 1556 013e 8A46     		mov	r10, r1
 1557              	.LVL164:
 318:../../Middlewares/LVGL/GUI/lvgl/src/misc/lv_text.c **** #endif
 1558              		.loc 1 318 12 view .LVU514
 1559 0140 12E0     		b	.L94
 1560              	.LVL165:
 1561              	.L119:
 248:../../Middlewares/LVGL/GUI/lvgl/src/misc/lv_text.c ****             break_letter_count = word_len - 1;
 1562              		.loc 1 248 25 view .LVU515
 1563 0142 BA46     		mov	r10, r7
 227:../../Middlewares/LVGL/GUI/lvgl/src/misc/lv_text.c **** 
 1564              		.loc 1 227 17 view .LVU516
 1565 0144 DDF80090 		ldr	r9, [sp]
 1566              	.LVL166:
 227:../../Middlewares/LVGL/GUI/lvgl/src/misc/lv_text.c **** 
 1567              		.loc 1 227 17 view .LVU517
 1568 0148 EFE7     		b	.L102
 1569              	.LVL167:
 1570              	.L125:
 281:../../Middlewares/LVGL/GUI/lvgl/src/misc/lv_text.c ****         return i;
 1571              		.loc 1 281 9 is_stmt 1 view .LVU518
 281:../../Middlewares/LVGL/GUI/lvgl/src/misc/lv_text.c ****         return i;
 1572              		.loc 1 281 11 is_stmt 0 view .LVU519
 1573 014a B9F1000F 		cmp	r9, #0
 1574 014e 03D0     		beq	.L113
 281:../../Middlewares/LVGL/GUI/lvgl/src/misc/lv_text.c ****         return i;
 1575              		.loc 1 281 26 discriminator 2 view .LVU520
 1576 0150 0D2C     		cmp	r4, #13
 1577 0152 08BF     		it	eq
 1578 0154 0A2D     		cmpeq	r5, #10
 1579 0156 02D1     		bne	.L121
 1580              	.L113:
 281:../../Middlewares/LVGL/GUI/lvgl/src/misc/lv_text.c ****         return i;
 1581              		.loc 1 281 70 is_stmt 1 discriminator 3 view .LVU521
 281:../../Middlewares/LVGL/GUI/lvgl/src/misc/lv_text.c ****         return i;
 1582              		.loc 1 281 72 is_stmt 0 discriminator 3 view .LVU522
 1583 0158 DDF814A0 		ldr	r10, [sp, #20]
 1584              	.LVL168:
 281:../../Middlewares/LVGL/GUI/lvgl/src/misc/lv_text.c ****         return i;
 1585              		.loc 1 281 72 discriminator 3 view .LVU523
 1586 015c 04E0     		b	.L94
 1587              	.LVL169:
 1588              	.L121:
 281:../../Middlewares/LVGL/GUI/lvgl/src/misc/lv_text.c ****         return i;
 1589              		.loc 1 281 72 discriminator 3 view .LVU524
 1590 015e BA46     		mov	r10, r7
 1591              	.LVL170:
 282:../../Middlewares/LVGL/GUI/lvgl/src/misc/lv_text.c ****     }
 1592              		.loc 1 282 9 is_stmt 1 view .LVU525
ARM GAS  C:\Users\28576\AppData\Local\Temp\ccMimN1K.s 			page 52


 282:../../Middlewares/LVGL/GUI/lvgl/src/misc/lv_text.c ****     }
 1593              		.loc 1 282 16 is_stmt 0 view .LVU526
 1594 0160 02E0     		b	.L94
 1595              	.LVL171:
 1596              	.L115:
 207:../../Middlewares/LVGL/GUI/lvgl/src/misc/lv_text.c ****     if(font == NULL) return 0;
 1597              		.loc 1 207 46 discriminator 3 view .LVU527
 1598 0162 8246     		mov	r10, r0
 1599 0164 00E0     		b	.L94
 1600              	.LVL172:
 1601              	.L116:
 207:../../Middlewares/LVGL/GUI/lvgl/src/misc/lv_text.c ****     if(font == NULL) return 0;
 1602              		.loc 1 207 46 discriminator 3 view .LVU528
 1603 0166 9A46     		mov	r10, r3
 1604              	.LVL173:
 1605              	.L94:
 320:../../Middlewares/LVGL/GUI/lvgl/src/misc/lv_text.c **** 
 1606              		.loc 1 320 1 view .LVU529
 1607 0168 5046     		mov	r0, r10
 1608 016a 07B0     		add	sp, sp, #28
 1609              	.LCFI24:
 1610              		.cfi_remember_state
 1611              		.cfi_def_cfa_offset 36
 1612              		@ sp needed
 1613 016c BDE8F08F 		pop	{r4, r5, r6, r7, r8, r9, r10, fp, pc}
 1614              	.LVL174:
 1615              	.L117:
 1616              	.LCFI25:
 1617              		.cfi_restore_state
 208:../../Middlewares/LVGL/GUI/lvgl/src/misc/lv_text.c **** 
 1618              		.loc 1 208 29 discriminator 1 view .LVU530
 1619 0170 8A46     		mov	r10, r1
 1620 0172 F9E7     		b	.L94
 1621              	.LVL175:
 1622              	.L122:
 318:../../Middlewares/LVGL/GUI/lvgl/src/misc/lv_text.c **** #endif
 1623              		.loc 1 318 12 view .LVU531
 1624 0174 9A46     		mov	r10, r3
 1625              	.LVL176:
 318:../../Middlewares/LVGL/GUI/lvgl/src/misc/lv_text.c **** #endif
 1626              		.loc 1 318 12 view .LVU532
 1627 0176 F7E7     		b	.L94
 1628              	.L127:
 1629              		.align	2
 1630              	.L126:
 1631 0178 00000000 		.word	.LC0
 1632              		.cfi_endproc
 1633              	.LFE24:
 1635              		.section	.text.lv_text_get_next_line,"ax",%progbits
 1636              		.align	1
 1637              		.global	lv_text_get_next_line
 1638              		.syntax unified
 1639              		.thumb
 1640              		.thumb_func
 1642              	lv_text_get_next_line:
 1643              	.LVL177:
 1644              	.LFB25:
ARM GAS  C:\Users\28576\AppData\Local\Temp\ccMimN1K.s 			page 53


 325:../../Middlewares/LVGL/GUI/lvgl/src/misc/lv_text.c ****     if(used_width) *used_width = 0;
 1645              		.loc 1 325 1 is_stmt 1 view -0
 1646              		.cfi_startproc
 1647              		@ args = 12, pretend = 0, frame = 16
 1648              		@ frame_needed = 0, uses_anonymous_args = 0
 325:../../Middlewares/LVGL/GUI/lvgl/src/misc/lv_text.c ****     if(used_width) *used_width = 0;
 1649              		.loc 1 325 1 is_stmt 0 view .LVU534
 1650 0000 2DE9F047 		push	{r4, r5, r6, r7, r8, r9, r10, lr}
 1651              	.LCFI26:
 1652              		.cfi_def_cfa_offset 32
 1653              		.cfi_offset 4, -32
 1654              		.cfi_offset 5, -28
 1655              		.cfi_offset 6, -24
 1656              		.cfi_offset 7, -20
 1657              		.cfi_offset 8, -16
 1658              		.cfi_offset 9, -12
 1659              		.cfi_offset 10, -8
 1660              		.cfi_offset 14, -4
 1661 0004 88B0     		sub	sp, sp, #32
 1662              	.LCFI27:
 1663              		.cfi_def_cfa_offset 64
 1664 0006 0446     		mov	r4, r0
 1665 0008 0E46     		mov	r6, r1
 1666 000a 1746     		mov	r7, r2
 1667 000c 9A46     		mov	r10, r3
 1668 000e 109D     		ldr	r5, [sp, #64]
 1669 0010 9DF84890 		ldrb	r9, [sp, #72]	@ zero_extendqisi2
 326:../../Middlewares/LVGL/GUI/lvgl/src/misc/lv_text.c **** 
 1670              		.loc 1 326 5 is_stmt 1 view .LVU535
 326:../../Middlewares/LVGL/GUI/lvgl/src/misc/lv_text.c **** 
 1671              		.loc 1 326 7 is_stmt 0 view .LVU536
 1672 0014 119B     		ldr	r3, [sp, #68]
 1673              	.LVL178:
 326:../../Middlewares/LVGL/GUI/lvgl/src/misc/lv_text.c **** 
 1674              		.loc 1 326 7 view .LVU537
 1675 0016 13B1     		cbz	r3, .L129
 326:../../Middlewares/LVGL/GUI/lvgl/src/misc/lv_text.c **** 
 1676              		.loc 1 326 20 is_stmt 1 discriminator 1 view .LVU538
 326:../../Middlewares/LVGL/GUI/lvgl/src/misc/lv_text.c **** 
 1677              		.loc 1 326 32 is_stmt 0 discriminator 1 view .LVU539
 1678 0018 0023     		movs	r3, #0
 1679 001a 119A     		ldr	r2, [sp, #68]
 1680              	.LVL179:
 326:../../Middlewares/LVGL/GUI/lvgl/src/misc/lv_text.c **** 
 1681              		.loc 1 326 32 discriminator 1 view .LVU540
 1682 001c 1360     		str	r3, [r2]
 1683              	.L129:
 328:../../Middlewares/LVGL/GUI/lvgl/src/misc/lv_text.c ****     if(txt[0] == '\0') return 0;
 1684              		.loc 1 328 5 is_stmt 1 view .LVU541
 328:../../Middlewares/LVGL/GUI/lvgl/src/misc/lv_text.c ****     if(txt[0] == '\0') return 0;
 1685              		.loc 1 328 7 is_stmt 0 view .LVU542
 1686 001e 002C     		cmp	r4, #0
 1687 0020 70D0     		beq	.L146
 329:../../Middlewares/LVGL/GUI/lvgl/src/misc/lv_text.c ****     if(font == NULL) return 0;
 1688              		.loc 1 329 5 is_stmt 1 view .LVU543
 329:../../Middlewares/LVGL/GUI/lvgl/src/misc/lv_text.c ****     if(font == NULL) return 0;
 1689              		.loc 1 329 11 is_stmt 0 view .LVU544
ARM GAS  C:\Users\28576\AppData\Local\Temp\ccMimN1K.s 			page 54


 1690 0022 2378     		ldrb	r3, [r4]	@ zero_extendqisi2
 329:../../Middlewares/LVGL/GUI/lvgl/src/misc/lv_text.c ****     if(font == NULL) return 0;
 1691              		.loc 1 329 7 view .LVU545
 1692 0024 002B     		cmp	r3, #0
 1693 0026 6FD0     		beq	.L147
 330:../../Middlewares/LVGL/GUI/lvgl/src/misc/lv_text.c **** 
 1694              		.loc 1 330 5 is_stmt 1 view .LVU546
 330:../../Middlewares/LVGL/GUI/lvgl/src/misc/lv_text.c **** 
 1695              		.loc 1 330 7 is_stmt 0 view .LVU547
 1696 0028 002F     		cmp	r7, #0
 1697 002a 71D0     		beq	.L148
 332:../../Middlewares/LVGL/GUI/lvgl/src/misc/lv_text.c **** 
 1698              		.loc 1 332 5 is_stmt 1 view .LVU548
 1699              	.LVL180:
 336:../../Middlewares/LVGL/GUI/lvgl/src/misc/lv_text.c ****         uint32_t i;
 1700              		.loc 1 336 5 view .LVU549
 336:../../Middlewares/LVGL/GUI/lvgl/src/misc/lv_text.c ****         uint32_t i;
 1701              		.loc 1 336 7 is_stmt 0 view .LVU550
 1702 002c 19F0010F 		tst	r9, #1
 1703 0030 1FD1     		bne	.L149
 336:../../Middlewares/LVGL/GUI/lvgl/src/misc/lv_text.c ****         uint32_t i;
 1704              		.loc 1 336 37 discriminator 1 view .LVU551
 1705 0032 19F0020F 		tst	r9, #2
 1706 0036 1ED1     		bne	.L154
 346:../../Middlewares/LVGL/GUI/lvgl/src/misc/lv_text.c ****     lv_text_cmd_state_t cmd_state = LV_TEXT_CMD_STATE_WAIT;
 1707              		.loc 1 346 5 is_stmt 1 view .LVU552
 1708              	.LVL181:
 347:../../Middlewares/LVGL/GUI/lvgl/src/misc/lv_text.c **** 
 1709              		.loc 1 347 5 view .LVU553
 347:../../Middlewares/LVGL/GUI/lvgl/src/misc/lv_text.c **** 
 1710              		.loc 1 347 25 is_stmt 0 view .LVU554
 1711 0038 0023     		movs	r3, #0
 1712 003a 8DF81F30 		strb	r3, [sp, #31]
 349:../../Middlewares/LVGL/GUI/lvgl/src/misc/lv_text.c **** 
 1713              		.loc 1 349 5 is_stmt 1 view .LVU555
 349:../../Middlewares/LVGL/GUI/lvgl/src/misc/lv_text.c **** 
 1714              		.loc 1 349 14 is_stmt 0 view .LVU556
 1715 003e 0693     		str	r3, [sp, #24]
 351:../../Middlewares/LVGL/GUI/lvgl/src/misc/lv_text.c ****         lv_text_flag_t word_flag = flag;
 1716              		.loc 1 351 5 is_stmt 1 view .LVU557
 332:../../Middlewares/LVGL/GUI/lvgl/src/misc/lv_text.c **** 
 1717              		.loc 1 332 13 is_stmt 0 view .LVU558
 1718 0040 9846     		mov	r8, r3
 351:../../Middlewares/LVGL/GUI/lvgl/src/misc/lv_text.c ****         lv_text_flag_t word_flag = flag;
 1719              		.loc 1 351 10 view .LVU559
 1720 0042 3AE0     		b	.L138
 1721              	.LVL182:
 1722              	.L135:
 1723              	.LBB13:
 340:../../Middlewares/LVGL/GUI/lvgl/src/misc/lv_text.c ****         if(i < len && txt[i] != '\0') i++;    /*To go beyond `\n`*/
 1724              		.loc 1 340 9 is_stmt 1 view .LVU560
 338:../../Middlewares/LVGL/GUI/lvgl/src/misc/lv_text.c ****             /*Just find the new line chars or string ends by incrementing `i`*/
 1725              		.loc 1 338 84 discriminator 6 view .LVU561
 1726 0044 0130     		adds	r0, r0, #1
 1727              	.LVL183:
 1728              	.L133:
 338:../../Middlewares/LVGL/GUI/lvgl/src/misc/lv_text.c ****             /*Just find the new line chars or string ends by incrementing `i`*/
ARM GAS  C:\Users\28576\AppData\Local\Temp\ccMimN1K.s 			page 55


 1729              		.loc 1 338 64 discriminator 1 view .LVU562
 1730 0046 B042     		cmp	r0, r6
 1731 0048 06D2     		bcs	.L134
 338:../../Middlewares/LVGL/GUI/lvgl/src/misc/lv_text.c ****             /*Just find the new line chars or string ends by incrementing `i`*/
 1732              		.loc 1 338 34 is_stmt 0 discriminator 3 view .LVU563
 1733 004a 235C     		ldrb	r3, [r4, r0]	@ zero_extendqisi2
 338:../../Middlewares/LVGL/GUI/lvgl/src/misc/lv_text.c ****             /*Just find the new line chars or string ends by incrementing `i`*/
 1734              		.loc 1 338 28 discriminator 3 view .LVU564
 1735 004c 0A2B     		cmp	r3, #10
 1736 004e 03D0     		beq	.L134
 338:../../Middlewares/LVGL/GUI/lvgl/src/misc/lv_text.c ****             /*Just find the new line chars or string ends by incrementing `i`*/
 1737              		.loc 1 338 46 discriminator 4 view .LVU565
 1738 0050 0D2B     		cmp	r3, #13
 1739 0052 01D0     		beq	.L134
 338:../../Middlewares/LVGL/GUI/lvgl/src/misc/lv_text.c ****             /*Just find the new line chars or string ends by incrementing `i`*/
 1740              		.loc 1 338 64 discriminator 5 view .LVU566
 1741 0054 002B     		cmp	r3, #0
 1742 0056 F5D1     		bne	.L135
 1743              	.L134:
 341:../../Middlewares/LVGL/GUI/lvgl/src/misc/lv_text.c ****         if(used_width) *used_width = -1;
 1744              		.loc 1 341 9 is_stmt 1 view .LVU567
 341:../../Middlewares/LVGL/GUI/lvgl/src/misc/lv_text.c ****         if(used_width) *used_width = -1;
 1745              		.loc 1 341 11 is_stmt 0 view .LVU568
 1746 0058 B042     		cmp	r0, r6
 1747 005a 02D2     		bcs	.L136
 341:../../Middlewares/LVGL/GUI/lvgl/src/misc/lv_text.c ****         if(used_width) *used_width = -1;
 1748              		.loc 1 341 26 discriminator 1 view .LVU569
 1749 005c 235C     		ldrb	r3, [r4, r0]	@ zero_extendqisi2
 341:../../Middlewares/LVGL/GUI/lvgl/src/misc/lv_text.c ****         if(used_width) *used_width = -1;
 1750              		.loc 1 341 20 discriminator 1 view .LVU570
 1751 005e 03B1     		cbz	r3, .L136
 341:../../Middlewares/LVGL/GUI/lvgl/src/misc/lv_text.c ****         if(used_width) *used_width = -1;
 1752              		.loc 1 341 39 is_stmt 1 discriminator 2 view .LVU571
 341:../../Middlewares/LVGL/GUI/lvgl/src/misc/lv_text.c ****         if(used_width) *used_width = -1;
 1753              		.loc 1 341 40 is_stmt 0 discriminator 2 view .LVU572
 1754 0060 0130     		adds	r0, r0, #1
 1755              	.LVL184:
 1756              	.L136:
 342:../../Middlewares/LVGL/GUI/lvgl/src/misc/lv_text.c ****         return i;
 1757              		.loc 1 342 9 is_stmt 1 view .LVU573
 342:../../Middlewares/LVGL/GUI/lvgl/src/misc/lv_text.c ****         return i;
 1758              		.loc 1 342 11 is_stmt 0 view .LVU574
 1759 0062 119B     		ldr	r3, [sp, #68]
 1760 0064 002B     		cmp	r3, #0
 1761 0066 50D0     		beq	.L128
 342:../../Middlewares/LVGL/GUI/lvgl/src/misc/lv_text.c ****         return i;
 1762              		.loc 1 342 24 is_stmt 1 discriminator 1 view .LVU575
 342:../../Middlewares/LVGL/GUI/lvgl/src/misc/lv_text.c ****         return i;
 1763              		.loc 1 342 36 is_stmt 0 discriminator 1 view .LVU576
 1764 0068 4FF0FF33 		mov	r3, #-1
 1765 006c 119A     		ldr	r2, [sp, #68]
 1766 006e 1360     		str	r3, [r2]
 343:../../Middlewares/LVGL/GUI/lvgl/src/misc/lv_text.c ****     }
 1767              		.loc 1 343 9 is_stmt 1 view .LVU577
 343:../../Middlewares/LVGL/GUI/lvgl/src/misc/lv_text.c ****     }
 1768              		.loc 1 343 16 is_stmt 0 view .LVU578
 1769 0070 4BE0     		b	.L128
ARM GAS  C:\Users\28576\AppData\Local\Temp\ccMimN1K.s 			page 56


 1770              	.LVL185:
 1771              	.L149:
 343:../../Middlewares/LVGL/GUI/lvgl/src/misc/lv_text.c ****     }
 1772              		.loc 1 343 16 view .LVU579
 1773              	.LBE13:
 1774 0072 0020     		movs	r0, #0
 1775              	.LVL186:
 343:../../Middlewares/LVGL/GUI/lvgl/src/misc/lv_text.c ****     }
 1776              		.loc 1 343 16 view .LVU580
 1777 0074 E7E7     		b	.L133
 1778              	.LVL187:
 1779              	.L154:
 343:../../Middlewares/LVGL/GUI/lvgl/src/misc/lv_text.c ****     }
 1780              		.loc 1 343 16 view .LVU581
 1781 0076 0020     		movs	r0, #0
 1782              	.LVL188:
 343:../../Middlewares/LVGL/GUI/lvgl/src/misc/lv_text.c ****     }
 1783              		.loc 1 343 16 view .LVU582
 1784 0078 E5E7     		b	.L133
 1785              	.LVL189:
 1786              	.L151:
 1787              	.LBB14:
 352:../../Middlewares/LVGL/GUI/lvgl/src/misc/lv_text.c ****         if(i == 0) word_flag |= LV_TEXT_FLAG_BREAK_ALL;
 1788              		.loc 1 352 24 view .LVU583
 1789 007a 4A46     		mov	r2, r9
 1790              	.LVL190:
 1791              	.L139:
 355:../../Middlewares/LVGL/GUI/lvgl/src/misc/lv_text.c ****         uint32_t advance = lv_text_get_next_word(&txt[i], font, letter_space, max_width, word_flag,
 1792              		.loc 1 355 9 is_stmt 1 view .LVU584
 355:../../Middlewares/LVGL/GUI/lvgl/src/misc/lv_text.c ****         uint32_t advance = lv_text_get_next_word(&txt[i], font, letter_space, max_width, word_flag,
 1793              		.loc 1 355 18 is_stmt 0 view .LVU585
 1794 007c 0023     		movs	r3, #0
 1795 007e 0593     		str	r3, [sp, #20]
 356:../../Middlewares/LVGL/GUI/lvgl/src/misc/lv_text.c ****         max_width -= word_w;
 1796              		.loc 1 356 9 is_stmt 1 view .LVU586
 356:../../Middlewares/LVGL/GUI/lvgl/src/misc/lv_text.c ****         max_width -= word_w;
 1797              		.loc 1 356 28 is_stmt 0 view .LVU587
 1798 0080 0DF11F03 		add	r3, sp, #31
 1799 0084 0293     		str	r3, [sp, #8]
 1800 0086 05AB     		add	r3, sp, #20
 1801 0088 0193     		str	r3, [sp, #4]
 1802 008a 0092     		str	r2, [sp]
 1803 008c 2B46     		mov	r3, r5
 1804 008e 5246     		mov	r2, r10
 1805              	.LVL191:
 356:../../Middlewares/LVGL/GUI/lvgl/src/misc/lv_text.c ****         max_width -= word_w;
 1806              		.loc 1 356 28 view .LVU588
 1807 0090 3946     		mov	r1, r7
 1808 0092 FFF7FEFF 		bl	lv_text_get_next_word
 1809              	.LVL192:
 357:../../Middlewares/LVGL/GUI/lvgl/src/misc/lv_text.c ****         line_w += word_w;
 1810              		.loc 1 357 9 is_stmt 1 view .LVU589
 357:../../Middlewares/LVGL/GUI/lvgl/src/misc/lv_text.c ****         line_w += word_w;
 1811              		.loc 1 357 19 is_stmt 0 view .LVU590
 1812 0096 059B     		ldr	r3, [sp, #20]
 1813 0098 ED1A     		subs	r5, r5, r3
 1814              	.LVL193:
ARM GAS  C:\Users\28576\AppData\Local\Temp\ccMimN1K.s 			page 57


 358:../../Middlewares/LVGL/GUI/lvgl/src/misc/lv_text.c **** 
 1815              		.loc 1 358 9 is_stmt 1 view .LVU591
 358:../../Middlewares/LVGL/GUI/lvgl/src/misc/lv_text.c **** 
 1816              		.loc 1 358 16 is_stmt 0 view .LVU592
 1817 009a 9844     		add	r8, r8, r3
 1818              	.LVL194:
 360:../../Middlewares/LVGL/GUI/lvgl/src/misc/lv_text.c ****             break;
 1819              		.loc 1 360 9 is_stmt 1 view .LVU593
 360:../../Middlewares/LVGL/GUI/lvgl/src/misc/lv_text.c ****             break;
 1820              		.loc 1 360 11 is_stmt 0 view .LVU594
 1821 009c 0346     		mov	r3, r0
 1822 009e D8B1     		cbz	r0, .L142
 364:../../Middlewares/LVGL/GUI/lvgl/src/misc/lv_text.c **** 
 1823              		.loc 1 364 9 is_stmt 1 view .LVU595
 364:../../Middlewares/LVGL/GUI/lvgl/src/misc/lv_text.c **** 
 1824              		.loc 1 364 11 is_stmt 0 view .LVU596
 1825 00a0 069A     		ldr	r2, [sp, #24]
 1826 00a2 1344     		add	r3, r3, r2
 1827 00a4 0693     		str	r3, [sp, #24]
 366:../../Middlewares/LVGL/GUI/lvgl/src/misc/lv_text.c **** 
 1828              		.loc 1 366 9 is_stmt 1 view .LVU597
 366:../../Middlewares/LVGL/GUI/lvgl/src/misc/lv_text.c **** 
 1829              		.loc 1 366 15 is_stmt 0 view .LVU598
 1830 00a6 2278     		ldrb	r2, [r4]	@ zero_extendqisi2
 366:../../Middlewares/LVGL/GUI/lvgl/src/misc/lv_text.c **** 
 1831              		.loc 1 366 11 view .LVU599
 1832 00a8 0D2A     		cmp	r2, #13
 1833 00aa 18BF     		it	ne
 1834 00ac 0A2A     		cmpne	r2, #10
 1835 00ae 13D0     		beq	.L142
 368:../../Middlewares/LVGL/GUI/lvgl/src/misc/lv_text.c ****             i++;  /*Include the following newline in the current line*/
 1836              		.loc 1 368 9 is_stmt 1 view .LVU600
 368:../../Middlewares/LVGL/GUI/lvgl/src/misc/lv_text.c ****             i++;  /*Include the following newline in the current line*/
 1837              		.loc 1 368 15 is_stmt 0 view .LVU601
 1838 00b0 E25C     		ldrb	r2, [r4, r3]	@ zero_extendqisi2
 368:../../Middlewares/LVGL/GUI/lvgl/src/misc/lv_text.c ****             i++;  /*Include the following newline in the current line*/
 1839              		.loc 1 368 11 view .LVU602
 1840 00b2 0D2A     		cmp	r2, #13
 1841 00b4 18BF     		it	ne
 1842 00b6 0A2A     		cmpne	r2, #10
 1843 00b8 0CD0     		beq	.L155
 1844              	.LVL195:
 1845              	.L138:
 368:../../Middlewares/LVGL/GUI/lvgl/src/misc/lv_text.c ****             i++;  /*Include the following newline in the current line*/
 1846              		.loc 1 368 11 view .LVU603
 1847              	.LBE14:
 351:../../Middlewares/LVGL/GUI/lvgl/src/misc/lv_text.c ****         lv_text_flag_t word_flag = flag;
 1848              		.loc 1 351 37 is_stmt 1 view .LVU604
 351:../../Middlewares/LVGL/GUI/lvgl/src/misc/lv_text.c ****         lv_text_flag_t word_flag = flag;
 1849              		.loc 1 351 13 is_stmt 0 view .LVU605
 1850 00ba 069B     		ldr	r3, [sp, #24]
 351:../../Middlewares/LVGL/GUI/lvgl/src/misc/lv_text.c ****         lv_text_flag_t word_flag = flag;
 1851              		.loc 1 351 37 view .LVU606
 1852 00bc B342     		cmp	r3, r6
 1853 00be 0BD2     		bcs	.L142
 351:../../Middlewares/LVGL/GUI/lvgl/src/misc/lv_text.c ****         lv_text_flag_t word_flag = flag;
 1854              		.loc 1 351 25 discriminator 1 view .LVU607
ARM GAS  C:\Users\28576\AppData\Local\Temp\ccMimN1K.s 			page 58


 1855 00c0 E018     		adds	r0, r4, r3
 1856 00c2 E25C     		ldrb	r2, [r4, r3]	@ zero_extendqisi2
 351:../../Middlewares/LVGL/GUI/lvgl/src/misc/lv_text.c ****         lv_text_flag_t word_flag = flag;
 1857              		.loc 1 351 19 discriminator 1 view .LVU608
 1858 00c4 42B1     		cbz	r2, .L142
 351:../../Middlewares/LVGL/GUI/lvgl/src/misc/lv_text.c ****         lv_text_flag_t word_flag = flag;
 1859              		.loc 1 351 37 discriminator 2 view .LVU609
 1860 00c6 002D     		cmp	r5, #0
 1861 00c8 06DD     		ble	.L142
 1862              	.LBB15:
 352:../../Middlewares/LVGL/GUI/lvgl/src/misc/lv_text.c ****         if(i == 0) word_flag |= LV_TEXT_FLAG_BREAK_ALL;
 1863              		.loc 1 352 9 is_stmt 1 view .LVU610
 1864              	.LVL196:
 353:../../Middlewares/LVGL/GUI/lvgl/src/misc/lv_text.c **** 
 1865              		.loc 1 353 9 view .LVU611
 353:../../Middlewares/LVGL/GUI/lvgl/src/misc/lv_text.c **** 
 1866              		.loc 1 353 11 is_stmt 0 view .LVU612
 1867 00ca 002B     		cmp	r3, #0
 1868 00cc D5D1     		bne	.L151
 353:../../Middlewares/LVGL/GUI/lvgl/src/misc/lv_text.c **** 
 1869              		.loc 1 353 20 is_stmt 1 discriminator 1 view .LVU613
 353:../../Middlewares/LVGL/GUI/lvgl/src/misc/lv_text.c **** 
 1870              		.loc 1 353 30 is_stmt 0 discriminator 1 view .LVU614
 1871 00ce 49F00402 		orr	r2, r9, #4
 1872              	.LVL197:
 353:../../Middlewares/LVGL/GUI/lvgl/src/misc/lv_text.c **** 
 1873              		.loc 1 353 30 discriminator 1 view .LVU615
 1874 00d2 D3E7     		b	.L139
 1875              	.LVL198:
 1876              	.L155:
 369:../../Middlewares/LVGL/GUI/lvgl/src/misc/lv_text.c ****             break;
 1877              		.loc 1 369 13 is_stmt 1 view .LVU616
 369:../../Middlewares/LVGL/GUI/lvgl/src/misc/lv_text.c ****             break;
 1878              		.loc 1 369 14 is_stmt 0 view .LVU617
 1879 00d4 0133     		adds	r3, r3, #1
 1880 00d6 0693     		str	r3, [sp, #24]
 370:../../Middlewares/LVGL/GUI/lvgl/src/misc/lv_text.c ****         }
 1881              		.loc 1 370 13 is_stmt 1 view .LVU618
 1882              	.LVL199:
 1883              	.L142:
 370:../../Middlewares/LVGL/GUI/lvgl/src/misc/lv_text.c ****         }
 1884              		.loc 1 370 13 is_stmt 0 view .LVU619
 1885              	.LBE15:
 376:../../Middlewares/LVGL/GUI/lvgl/src/misc/lv_text.c ****         uint32_t letter = lv_text_encoded_next(txt, &i);
 1886              		.loc 1 376 5 is_stmt 1 view .LVU620
 376:../../Middlewares/LVGL/GUI/lvgl/src/misc/lv_text.c ****         uint32_t letter = lv_text_encoded_next(txt, &i);
 1887              		.loc 1 376 10 is_stmt 0 view .LVU621
 1888 00d8 069B     		ldr	r3, [sp, #24]
 376:../../Middlewares/LVGL/GUI/lvgl/src/misc/lv_text.c ****         uint32_t letter = lv_text_encoded_next(txt, &i);
 1889              		.loc 1 376 7 view .LVU622
 1890 00da 2BB1     		cbz	r3, .L156
 1891              	.LVL200:
 1892              	.L144:
 383:../../Middlewares/LVGL/GUI/lvgl/src/misc/lv_text.c ****         *used_width = line_w;
 1893              		.loc 1 383 5 is_stmt 1 view .LVU623
 383:../../Middlewares/LVGL/GUI/lvgl/src/misc/lv_text.c ****         *used_width = line_w;
 1894              		.loc 1 383 7 is_stmt 0 view .LVU624
ARM GAS  C:\Users\28576\AppData\Local\Temp\ccMimN1K.s 			page 59


 1895 00dc 119B     		ldr	r3, [sp, #68]
 1896 00de 0BB1     		cbz	r3, .L145
 384:../../Middlewares/LVGL/GUI/lvgl/src/misc/lv_text.c ****     }
 1897              		.loc 1 384 9 is_stmt 1 view .LVU625
 384:../../Middlewares/LVGL/GUI/lvgl/src/misc/lv_text.c ****     }
 1898              		.loc 1 384 21 is_stmt 0 view .LVU626
 1899 00e0 C3F80080 		str	r8, [r3]
 1900              	.L145:
 1901              	.LVL201:
 387:../../Middlewares/LVGL/GUI/lvgl/src/misc/lv_text.c **** }
 1902              		.loc 1 387 5 is_stmt 1 view .LVU627
 387:../../Middlewares/LVGL/GUI/lvgl/src/misc/lv_text.c **** }
 1903              		.loc 1 387 12 is_stmt 0 view .LVU628
 1904 00e4 0698     		ldr	r0, [sp, #24]
 1905 00e6 10E0     		b	.L128
 1906              	.LVL202:
 1907              	.L156:
 1908              	.LBB16:
 377:../../Middlewares/LVGL/GUI/lvgl/src/misc/lv_text.c ****         if(used_width != NULL) {
 1909              		.loc 1 377 9 is_stmt 1 view .LVU629
 377:../../Middlewares/LVGL/GUI/lvgl/src/misc/lv_text.c ****         if(used_width != NULL) {
 1910              		.loc 1 377 27 is_stmt 0 view .LVU630
 1911 00e8 06A9     		add	r1, sp, #24
 1912 00ea 2046     		mov	r0, r4
 1913 00ec FFF7FEFF 		bl	lv_text_utf8_next
 1914              	.LVL203:
 1915 00f0 0146     		mov	r1, r0
 1916              	.LVL204:
 378:../../Middlewares/LVGL/GUI/lvgl/src/misc/lv_text.c ****             line_w = lv_font_get_glyph_width(font, letter, '\0');
 1917              		.loc 1 378 9 is_stmt 1 view .LVU631
 378:../../Middlewares/LVGL/GUI/lvgl/src/misc/lv_text.c ****             line_w = lv_font_get_glyph_width(font, letter, '\0');
 1918              		.loc 1 378 11 is_stmt 0 view .LVU632
 1919 00f2 119B     		ldr	r3, [sp, #68]
 1920 00f4 002B     		cmp	r3, #0
 1921 00f6 F5D0     		beq	.L145
 379:../../Middlewares/LVGL/GUI/lvgl/src/misc/lv_text.c ****         }
 1922              		.loc 1 379 13 is_stmt 1 view .LVU633
 379:../../Middlewares/LVGL/GUI/lvgl/src/misc/lv_text.c ****         }
 1923              		.loc 1 379 22 is_stmt 0 view .LVU634
 1924 00f8 0022     		movs	r2, #0
 1925 00fa 3846     		mov	r0, r7
 1926              	.LVL205:
 379:../../Middlewares/LVGL/GUI/lvgl/src/misc/lv_text.c ****         }
 1927              		.loc 1 379 22 view .LVU635
 1928 00fc FFF7FEFF 		bl	lv_font_get_glyph_width
 1929              	.LVL206:
 379:../../Middlewares/LVGL/GUI/lvgl/src/misc/lv_text.c ****         }
 1930              		.loc 1 379 20 discriminator 1 view .LVU636
 1931 0100 8046     		mov	r8, r0
 1932              	.LVL207:
 379:../../Middlewares/LVGL/GUI/lvgl/src/misc/lv_text.c ****         }
 1933              		.loc 1 379 20 discriminator 1 view .LVU637
 1934 0102 EBE7     		b	.L144
 1935              	.LVL208:
 1936              	.L146:
 379:../../Middlewares/LVGL/GUI/lvgl/src/misc/lv_text.c ****         }
 1937              		.loc 1 379 20 discriminator 1 view .LVU638
ARM GAS  C:\Users\28576\AppData\Local\Temp\ccMimN1K.s 			page 60


 1938              	.LBE16:
 328:../../Middlewares/LVGL/GUI/lvgl/src/misc/lv_text.c ****     if(txt[0] == '\0') return 0;
 1939              		.loc 1 328 28 discriminator 1 view .LVU639
 1940 0104 2046     		mov	r0, r4
 1941              	.LVL209:
 328:../../Middlewares/LVGL/GUI/lvgl/src/misc/lv_text.c ****     if(txt[0] == '\0') return 0;
 1942              		.loc 1 328 28 discriminator 1 view .LVU640
 1943 0106 00E0     		b	.L128
 1944              	.LVL210:
 1945              	.L147:
 329:../../Middlewares/LVGL/GUI/lvgl/src/misc/lv_text.c ****     if(font == NULL) return 0;
 1946              		.loc 1 329 31 discriminator 1 view .LVU641
 1947 0108 1846     		mov	r0, r3
 1948              	.LVL211:
 1949              	.L128:
 388:../../Middlewares/LVGL/GUI/lvgl/src/misc/lv_text.c **** 
 1950              		.loc 1 388 1 view .LVU642
 1951 010a 08B0     		add	sp, sp, #32
 1952              	.LCFI28:
 1953              		.cfi_remember_state
 1954              		.cfi_def_cfa_offset 32
 1955              		@ sp needed
 1956 010c BDE8F087 		pop	{r4, r5, r6, r7, r8, r9, r10, pc}
 1957              	.LVL212:
 1958              	.L148:
 1959              	.LCFI29:
 1960              		.cfi_restore_state
 330:../../Middlewares/LVGL/GUI/lvgl/src/misc/lv_text.c **** 
 1961              		.loc 1 330 29 discriminator 1 view .LVU643
 1962 0110 3846     		mov	r0, r7
 1963              	.LVL213:
 330:../../Middlewares/LVGL/GUI/lvgl/src/misc/lv_text.c **** 
 1964              		.loc 1 330 29 discriminator 1 view .LVU644
 1965 0112 FAE7     		b	.L128
 1966              		.cfi_endproc
 1967              	.LFE25:
 1969              		.section	.text.lv_text_ins,"ax",%progbits
 1970              		.align	1
 1971              		.global	lv_text_ins
 1972              		.syntax unified
 1973              		.thumb
 1974              		.thumb_func
 1976              	lv_text_ins:
 1977              	.LVL214:
 1978              	.LFB28:
 461:../../Middlewares/LVGL/GUI/lvgl/src/misc/lv_text.c ****     if(txt_buf == NULL || ins_txt == NULL) return;
 1979              		.loc 1 461 1 is_stmt 1 view -0
 1980              		.cfi_startproc
 1981              		@ args = 0, pretend = 0, frame = 0
 1982              		@ frame_needed = 0, uses_anonymous_args = 0
 462:../../Middlewares/LVGL/GUI/lvgl/src/misc/lv_text.c **** 
 1983              		.loc 1 462 5 view .LVU646
 462:../../Middlewares/LVGL/GUI/lvgl/src/misc/lv_text.c **** 
 1984              		.loc 1 462 7 is_stmt 0 view .LVU647
 1985 0000 002A     		cmp	r2, #0
 1986 0002 18BF     		it	ne
 1987 0004 0028     		cmpne	r0, #0
ARM GAS  C:\Users\28576\AppData\Local\Temp\ccMimN1K.s 			page 61


 1988 0006 00D1     		bne	.L165
 1989 0008 7047     		bx	lr
 1990              	.L165:
 461:../../Middlewares/LVGL/GUI/lvgl/src/misc/lv_text.c ****     if(txt_buf == NULL || ins_txt == NULL) return;
 1991              		.loc 1 461 1 view .LVU648
 1992 000a 2DE9F041 		push	{r4, r5, r6, r7, r8, lr}
 1993              	.LCFI30:
 1994              		.cfi_def_cfa_offset 24
 1995              		.cfi_offset 4, -24
 1996              		.cfi_offset 5, -20
 1997              		.cfi_offset 6, -16
 1998              		.cfi_offset 7, -12
 1999              		.cfi_offset 8, -8
 2000              		.cfi_offset 14, -4
 2001 000e 0F46     		mov	r7, r1
 2002 0010 0546     		mov	r5, r0
 2003 0012 1646     		mov	r6, r2
 2004 0014 9046     		mov	r8, r2
 464:../../Middlewares/LVGL/GUI/lvgl/src/misc/lv_text.c ****     size_t ins_len = lv_strlen(ins_txt);
 2005              		.loc 1 464 5 is_stmt 1 view .LVU649
 464:../../Middlewares/LVGL/GUI/lvgl/src/misc/lv_text.c ****     size_t ins_len = lv_strlen(ins_txt);
 2006              		.loc 1 464 22 is_stmt 0 view .LVU650
 2007 0016 FFF7FEFF 		bl	lv_strlen
 2008              	.LVL215:
 464:../../Middlewares/LVGL/GUI/lvgl/src/misc/lv_text.c ****     size_t ins_len = lv_strlen(ins_txt);
 2009              		.loc 1 464 22 view .LVU651
 2010 001a 0446     		mov	r4, r0
 2011              	.LVL216:
 465:../../Middlewares/LVGL/GUI/lvgl/src/misc/lv_text.c ****     if(ins_len == 0) return;
 2012              		.loc 1 465 5 is_stmt 1 view .LVU652
 465:../../Middlewares/LVGL/GUI/lvgl/src/misc/lv_text.c ****     if(ins_len == 0) return;
 2013              		.loc 1 465 22 is_stmt 0 view .LVU653
 2014 001c 3046     		mov	r0, r6
 2015              	.LVL217:
 465:../../Middlewares/LVGL/GUI/lvgl/src/misc/lv_text.c ****     if(ins_len == 0) return;
 2016              		.loc 1 465 22 view .LVU654
 2017 001e FFF7FEFF 		bl	lv_strlen
 2018              	.LVL218:
 466:../../Middlewares/LVGL/GUI/lvgl/src/misc/lv_text.c **** 
 2019              		.loc 1 466 5 is_stmt 1 view .LVU655
 466:../../Middlewares/LVGL/GUI/lvgl/src/misc/lv_text.c **** 
 2020              		.loc 1 466 7 is_stmt 0 view .LVU656
 2021 0022 0646     		mov	r6, r0
 2022              	.LVL219:
 466:../../Middlewares/LVGL/GUI/lvgl/src/misc/lv_text.c **** 
 2023              		.loc 1 466 7 view .LVU657
 2024 0024 88B1     		cbz	r0, .L157
 468:../../Middlewares/LVGL/GUI/lvgl/src/misc/lv_text.c ****     pos              = lv_text_encoded_get_byte_id(txt_buf, pos); /*Convert to byte index instead o
 2025              		.loc 1 468 5 is_stmt 1 view .LVU658
 468:../../Middlewares/LVGL/GUI/lvgl/src/misc/lv_text.c ****     pos              = lv_text_encoded_get_byte_id(txt_buf, pos); /*Convert to byte index instead o
 2026              		.loc 1 468 12 is_stmt 0 view .LVU659
 2027 0026 0444     		add	r4, r4, r0
 2028              	.LVL220:
 469:../../Middlewares/LVGL/GUI/lvgl/src/misc/lv_text.c **** 
 2029              		.loc 1 469 5 is_stmt 1 view .LVU660
 469:../../Middlewares/LVGL/GUI/lvgl/src/misc/lv_text.c **** 
 2030              		.loc 1 469 24 is_stmt 0 view .LVU661
ARM GAS  C:\Users\28576\AppData\Local\Temp\ccMimN1K.s 			page 62


 2031 0028 3946     		mov	r1, r7
 2032 002a 2846     		mov	r0, r5
 2033              	.LVL221:
 469:../../Middlewares/LVGL/GUI/lvgl/src/misc/lv_text.c **** 
 2034              		.loc 1 469 24 view .LVU662
 2035 002c FFF7FEFF 		bl	lv_text_utf8_get_byte_id
 2036              	.LVL222:
 472:../../Middlewares/LVGL/GUI/lvgl/src/misc/lv_text.c ****     for(i = new_len; i >= pos + ins_len; i--) {
 2037              		.loc 1 472 5 is_stmt 1 view .LVU663
 473:../../Middlewares/LVGL/GUI/lvgl/src/misc/lv_text.c ****         txt_buf[i] = txt_buf[i - ins_len];
 2038              		.loc 1 473 5 view .LVU664
 473:../../Middlewares/LVGL/GUI/lvgl/src/misc/lv_text.c ****         txt_buf[i] = txt_buf[i - ins_len];
 2039              		.loc 1 473 5 is_stmt 0 view .LVU665
 2040 0030 03E0     		b	.L159
 2041              	.LVL223:
 2042              	.L160:
 474:../../Middlewares/LVGL/GUI/lvgl/src/misc/lv_text.c ****     }
 2043              		.loc 1 474 9 is_stmt 1 view .LVU666
 474:../../Middlewares/LVGL/GUI/lvgl/src/misc/lv_text.c ****     }
 2044              		.loc 1 474 32 is_stmt 0 view .LVU667
 2045 0032 A31B     		subs	r3, r4, r6
 474:../../Middlewares/LVGL/GUI/lvgl/src/misc/lv_text.c ****     }
 2046              		.loc 1 474 29 view .LVU668
 2047 0034 EB5C     		ldrb	r3, [r5, r3]	@ zero_extendqisi2
 474:../../Middlewares/LVGL/GUI/lvgl/src/misc/lv_text.c ****     }
 2048              		.loc 1 474 20 view .LVU669
 2049 0036 2B55     		strb	r3, [r5, r4]
 473:../../Middlewares/LVGL/GUI/lvgl/src/misc/lv_text.c ****         txt_buf[i] = txt_buf[i - ins_len];
 2050              		.loc 1 473 43 is_stmt 1 discriminator 3 view .LVU670
 2051 0038 013C     		subs	r4, r4, #1
 2052              	.LVL224:
 2053              	.L159:
 473:../../Middlewares/LVGL/GUI/lvgl/src/misc/lv_text.c ****         txt_buf[i] = txt_buf[i - ins_len];
 2054              		.loc 1 473 24 discriminator 1 view .LVU671
 473:../../Middlewares/LVGL/GUI/lvgl/src/misc/lv_text.c ****         txt_buf[i] = txt_buf[i - ins_len];
 2055              		.loc 1 473 31 is_stmt 0 discriminator 1 view .LVU672
 2056 003a 3318     		adds	r3, r6, r0
 473:../../Middlewares/LVGL/GUI/lvgl/src/misc/lv_text.c ****         txt_buf[i] = txt_buf[i - ins_len];
 2057              		.loc 1 473 24 discriminator 1 view .LVU673
 2058 003c A342     		cmp	r3, r4
 2059 003e F8D9     		bls	.L160
 478:../../Middlewares/LVGL/GUI/lvgl/src/misc/lv_text.c **** }
 2060              		.loc 1 478 5 is_stmt 1 view .LVU674
 2061 0040 3246     		mov	r2, r6
 2062 0042 4146     		mov	r1, r8
 2063 0044 2844     		add	r0, r0, r5
 2064              	.LVL225:
 478:../../Middlewares/LVGL/GUI/lvgl/src/misc/lv_text.c **** }
 2065              		.loc 1 478 5 is_stmt 0 view .LVU675
 2066 0046 FFF7FEFF 		bl	lv_memcpy
 2067              	.LVL226:
 2068              	.L157:
 479:../../Middlewares/LVGL/GUI/lvgl/src/misc/lv_text.c **** 
 2069              		.loc 1 479 1 view .LVU676
 2070 004a BDE8F081 		pop	{r4, r5, r6, r7, r8, pc}
 479:../../Middlewares/LVGL/GUI/lvgl/src/misc/lv_text.c **** 
 2071              		.loc 1 479 1 view .LVU677
ARM GAS  C:\Users\28576\AppData\Local\Temp\ccMimN1K.s 			page 63


 2072              		.cfi_endproc
 2073              	.LFE28:
 2075              		.section	.text.lv_text_cut,"ax",%progbits
 2076              		.align	1
 2077              		.global	lv_text_cut
 2078              		.syntax unified
 2079              		.thumb
 2080              		.thumb_func
 2082              	lv_text_cut:
 2083              	.LVL227:
 2084              	.LFB29:
 482:../../Middlewares/LVGL/GUI/lvgl/src/misc/lv_text.c ****     if(txt == NULL) return;
 2085              		.loc 1 482 1 is_stmt 1 view -0
 2086              		.cfi_startproc
 2087              		@ args = 0, pretend = 0, frame = 0
 2088              		@ frame_needed = 0, uses_anonymous_args = 0
 483:../../Middlewares/LVGL/GUI/lvgl/src/misc/lv_text.c **** 
 2089              		.loc 1 483 5 view .LVU679
 483:../../Middlewares/LVGL/GUI/lvgl/src/misc/lv_text.c **** 
 2090              		.loc 1 483 7 is_stmt 0 view .LVU680
 2091 0000 C0B1     		cbz	r0, .L171
 482:../../Middlewares/LVGL/GUI/lvgl/src/misc/lv_text.c ****     if(txt == NULL) return;
 2092              		.loc 1 482 1 view .LVU681
 2093 0002 F8B5     		push	{r3, r4, r5, r6, r7, lr}
 2094              	.LCFI31:
 2095              		.cfi_def_cfa_offset 24
 2096              		.cfi_offset 3, -24
 2097              		.cfi_offset 4, -20
 2098              		.cfi_offset 5, -16
 2099              		.cfi_offset 6, -12
 2100              		.cfi_offset 7, -8
 2101              		.cfi_offset 14, -4
 2102 0004 0C46     		mov	r4, r1
 2103 0006 1746     		mov	r7, r2
 2104 0008 0546     		mov	r5, r0
 485:../../Middlewares/LVGL/GUI/lvgl/src/misc/lv_text.c **** 
 2105              		.loc 1 485 5 is_stmt 1 view .LVU682
 485:../../Middlewares/LVGL/GUI/lvgl/src/misc/lv_text.c **** 
 2106              		.loc 1 485 22 is_stmt 0 view .LVU683
 2107 000a FFF7FEFF 		bl	lv_strlen
 2108              	.LVL228:
 485:../../Middlewares/LVGL/GUI/lvgl/src/misc/lv_text.c **** 
 2109              		.loc 1 485 22 view .LVU684
 2110 000e 0646     		mov	r6, r0
 2111              	.LVL229:
 487:../../Middlewares/LVGL/GUI/lvgl/src/misc/lv_text.c ****     len = lv_text_encoded_get_byte_id(&txt[pos], len);
 2112              		.loc 1 487 5 is_stmt 1 view .LVU685
 487:../../Middlewares/LVGL/GUI/lvgl/src/misc/lv_text.c ****     len = lv_text_encoded_get_byte_id(&txt[pos], len);
 2113              		.loc 1 487 11 is_stmt 0 view .LVU686
 2114 0010 2146     		mov	r1, r4
 2115 0012 2846     		mov	r0, r5
 2116              	.LVL230:
 487:../../Middlewares/LVGL/GUI/lvgl/src/misc/lv_text.c ****     len = lv_text_encoded_get_byte_id(&txt[pos], len);
 2117              		.loc 1 487 11 view .LVU687
 2118 0014 FFF7FEFF 		bl	lv_text_utf8_get_byte_id
 2119              	.LVL231:
 2120 0018 0446     		mov	r4, r0
ARM GAS  C:\Users\28576\AppData\Local\Temp\ccMimN1K.s 			page 64


 2121              	.LVL232:
 488:../../Middlewares/LVGL/GUI/lvgl/src/misc/lv_text.c **** 
 2122              		.loc 1 488 5 is_stmt 1 view .LVU688
 488:../../Middlewares/LVGL/GUI/lvgl/src/misc/lv_text.c **** 
 2123              		.loc 1 488 11 is_stmt 0 view .LVU689
 2124 001a 3946     		mov	r1, r7
 2125 001c 2818     		adds	r0, r5, r0
 2126              	.LVL233:
 488:../../Middlewares/LVGL/GUI/lvgl/src/misc/lv_text.c **** 
 2127              		.loc 1 488 11 view .LVU690
 2128 001e FFF7FEFF 		bl	lv_text_utf8_get_byte_id
 2129              	.LVL234:
 491:../../Middlewares/LVGL/GUI/lvgl/src/misc/lv_text.c ****     for(i = pos; i <= old_len - len; i++) {
 2130              		.loc 1 491 5 is_stmt 1 view .LVU691
 492:../../Middlewares/LVGL/GUI/lvgl/src/misc/lv_text.c ****         txt[i] = txt[i + len];
 2131              		.loc 1 492 5 view .LVU692
 492:../../Middlewares/LVGL/GUI/lvgl/src/misc/lv_text.c ****         txt[i] = txt[i + len];
 2132              		.loc 1 492 5 is_stmt 0 view .LVU693
 2133 0022 03E0     		b	.L168
 2134              	.LVL235:
 2135              	.L169:
 493:../../Middlewares/LVGL/GUI/lvgl/src/misc/lv_text.c ****     }
 2136              		.loc 1 493 9 is_stmt 1 view .LVU694
 493:../../Middlewares/LVGL/GUI/lvgl/src/misc/lv_text.c ****     }
 2137              		.loc 1 493 24 is_stmt 0 view .LVU695
 2138 0024 2318     		adds	r3, r4, r0
 493:../../Middlewares/LVGL/GUI/lvgl/src/misc/lv_text.c ****     }
 2139              		.loc 1 493 21 view .LVU696
 2140 0026 EB5C     		ldrb	r3, [r5, r3]	@ zero_extendqisi2
 493:../../Middlewares/LVGL/GUI/lvgl/src/misc/lv_text.c ****     }
 2141              		.loc 1 493 16 view .LVU697
 2142 0028 2B55     		strb	r3, [r5, r4]
 492:../../Middlewares/LVGL/GUI/lvgl/src/misc/lv_text.c ****         txt[i] = txt[i + len];
 2143              		.loc 1 492 39 is_stmt 1 discriminator 3 view .LVU698
 2144 002a 0134     		adds	r4, r4, #1
 2145              	.LVL236:
 2146              	.L168:
 492:../../Middlewares/LVGL/GUI/lvgl/src/misc/lv_text.c ****         txt[i] = txt[i + len];
 2147              		.loc 1 492 20 discriminator 1 view .LVU699
 492:../../Middlewares/LVGL/GUI/lvgl/src/misc/lv_text.c ****         txt[i] = txt[i + len];
 2148              		.loc 1 492 31 is_stmt 0 discriminator 1 view .LVU700
 2149 002c 331A     		subs	r3, r6, r0
 492:../../Middlewares/LVGL/GUI/lvgl/src/misc/lv_text.c ****         txt[i] = txt[i + len];
 2150              		.loc 1 492 20 discriminator 1 view .LVU701
 2151 002e A342     		cmp	r3, r4
 2152 0030 F8D2     		bcs	.L169
 495:../../Middlewares/LVGL/GUI/lvgl/src/misc/lv_text.c **** 
 2153              		.loc 1 495 1 view .LVU702
 2154 0032 F8BD     		pop	{r3, r4, r5, r6, r7, pc}
 2155              	.LVL237:
 2156              	.L171:
 2157              	.LCFI32:
 2158              		.cfi_def_cfa_offset 0
 2159              		.cfi_restore 3
 2160              		.cfi_restore 4
 2161              		.cfi_restore 5
 2162              		.cfi_restore 6
ARM GAS  C:\Users\28576\AppData\Local\Temp\ccMimN1K.s 			page 65


 2163              		.cfi_restore 7
 2164              		.cfi_restore 14
 495:../../Middlewares/LVGL/GUI/lvgl/src/misc/lv_text.c **** 
 2165              		.loc 1 495 1 view .LVU703
 2166 0034 7047     		bx	lr
 2167              		.cfi_endproc
 2168              	.LFE29:
 2170              		.section	.text.lv_text_set_text_vfmt,"ax",%progbits
 2171              		.align	1
 2172              		.global	lv_text_set_text_vfmt
 2173              		.syntax unified
 2174              		.thumb
 2175              		.thumb_func
 2177              	lv_text_set_text_vfmt:
 2178              	.LVL238:
 2179              	.LFB30:
 498:../../Middlewares/LVGL/GUI/lvgl/src/misc/lv_text.c ****     /*Allocate space for the new text by using trick from C99 standard section 7.19.6.12*/
 2180              		.loc 1 498 1 is_stmt 1 view -0
 2181              		.cfi_startproc
 2182              		@ args = 0, pretend = 0, frame = 8
 2183              		@ frame_needed = 0, uses_anonymous_args = 0
 498:../../Middlewares/LVGL/GUI/lvgl/src/misc/lv_text.c ****     /*Allocate space for the new text by using trick from C99 standard section 7.19.6.12*/
 2184              		.loc 1 498 1 is_stmt 0 view .LVU705
 2185 0000 70B5     		push	{r4, r5, r6, lr}
 2186              	.LCFI33:
 2187              		.cfi_def_cfa_offset 16
 2188              		.cfi_offset 4, -16
 2189              		.cfi_offset 5, -12
 2190              		.cfi_offset 6, -8
 2191              		.cfi_offset 14, -4
 2192 0002 82B0     		sub	sp, sp, #8
 2193              	.LCFI34:
 2194              		.cfi_def_cfa_offset 24
 2195 0004 0246     		mov	r2, r0
 2196 0006 0646     		mov	r6, r0
 2197 0008 0C46     		mov	r4, r1
 500:../../Middlewares/LVGL/GUI/lvgl/src/misc/lv_text.c ****     va_copy(ap_copy, ap);
 2198              		.loc 1 500 5 is_stmt 1 view .LVU706
 501:../../Middlewares/LVGL/GUI/lvgl/src/misc/lv_text.c ****     uint32_t len = lv_vsnprintf(NULL, 0, fmt, ap_copy);
 2199              		.loc 1 501 5 view .LVU707
 2200 000a 0191     		str	r1, [sp, #4]
 502:../../Middlewares/LVGL/GUI/lvgl/src/misc/lv_text.c ****     va_end(ap_copy);
 2201              		.loc 1 502 5 view .LVU708
 502:../../Middlewares/LVGL/GUI/lvgl/src/misc/lv_text.c ****     va_end(ap_copy);
 2202              		.loc 1 502 20 is_stmt 0 view .LVU709
 2203 000c 0B46     		mov	r3, r1
 2204 000e 0021     		movs	r1, #0
 2205              	.LVL239:
 502:../../Middlewares/LVGL/GUI/lvgl/src/misc/lv_text.c ****     va_end(ap_copy);
 2206              		.loc 1 502 20 view .LVU710
 2207 0010 0846     		mov	r0, r1
 2208              	.LVL240:
 502:../../Middlewares/LVGL/GUI/lvgl/src/misc/lv_text.c ****     va_end(ap_copy);
 2209              		.loc 1 502 20 view .LVU711
 2210 0012 FFF7FEFF 		bl	lv_vsnprintf
 2211              	.LVL241:
 503:../../Middlewares/LVGL/GUI/lvgl/src/misc/lv_text.c **** 
ARM GAS  C:\Users\28576\AppData\Local\Temp\ccMimN1K.s 			page 66


 2212              		.loc 1 503 5 is_stmt 1 view .LVU712
 505:../../Middlewares/LVGL/GUI/lvgl/src/misc/lv_text.c **** #if LV_USE_ARABIC_PERSIAN_CHARS
 2213              		.loc 1 505 5 view .LVU713
 527:../../Middlewares/LVGL/GUI/lvgl/src/misc/lv_text.c ****     LV_ASSERT_MALLOC(text);
 2214              		.loc 1 527 5 view .LVU714
 527:../../Middlewares/LVGL/GUI/lvgl/src/misc/lv_text.c ****     LV_ASSERT_MALLOC(text);
 2215              		.loc 1 527 26 is_stmt 0 view .LVU715
 2216 0016 451C     		adds	r5, r0, #1
 527:../../Middlewares/LVGL/GUI/lvgl/src/misc/lv_text.c ****     LV_ASSERT_MALLOC(text);
 2217              		.loc 1 527 12 view .LVU716
 2218 0018 2846     		mov	r0, r5
 2219              	.LVL242:
 527:../../Middlewares/LVGL/GUI/lvgl/src/misc/lv_text.c ****     LV_ASSERT_MALLOC(text);
 2220              		.loc 1 527 12 view .LVU717
 2221 001a FFF7FEFF 		bl	lv_malloc
 2222              	.LVL243:
 528:../../Middlewares/LVGL/GUI/lvgl/src/misc/lv_text.c ****     if(text == NULL) {
 2223              		.loc 1 528 5 is_stmt 1 view .LVU718
 528:../../Middlewares/LVGL/GUI/lvgl/src/misc/lv_text.c ****     if(text == NULL) {
 2224              		.loc 1 528 5 view .LVU719
 2225 001e 40B1     		cbz	r0, .L176
 528:../../Middlewares/LVGL/GUI/lvgl/src/misc/lv_text.c ****     if(text == NULL) {
 2226              		.loc 1 528 5 view .LVU720
 528:../../Middlewares/LVGL/GUI/lvgl/src/misc/lv_text.c ****     if(text == NULL) {
 2227              		.loc 1 528 27 view .LVU721
 529:../../Middlewares/LVGL/GUI/lvgl/src/misc/lv_text.c ****         return NULL;
 2228              		.loc 1 529 5 view .LVU722
 533:../../Middlewares/LVGL/GUI/lvgl/src/misc/lv_text.c **** #endif
 2229              		.loc 1 533 5 view .LVU723
 2230              	.LVL244:
 533:../../Middlewares/LVGL/GUI/lvgl/src/misc/lv_text.c **** #endif
 2231              		.loc 1 533 5 is_stmt 0 view .LVU724
 2232 0020 2346     		mov	r3, r4
 2233 0022 3246     		mov	r2, r6
 2234 0024 2946     		mov	r1, r5
 2235 0026 0446     		mov	r4, r0
 2236              	.LVL245:
 533:../../Middlewares/LVGL/GUI/lvgl/src/misc/lv_text.c **** #endif
 2237              		.loc 1 533 5 view .LVU725
 2238 0028 FFF7FEFF 		bl	lv_vsnprintf
 2239              	.LVL246:
 536:../../Middlewares/LVGL/GUI/lvgl/src/misc/lv_text.c **** }
 2240              		.loc 1 536 5 is_stmt 1 view .LVU726
 537:../../Middlewares/LVGL/GUI/lvgl/src/misc/lv_text.c **** 
 2241              		.loc 1 537 1 is_stmt 0 view .LVU727
 2242 002c 2046     		mov	r0, r4
 2243 002e 02B0     		add	sp, sp, #8
 2244              	.LCFI35:
 2245              		.cfi_remember_state
 2246              		.cfi_def_cfa_offset 16
 2247              		@ sp needed
 2248 0030 70BD     		pop	{r4, r5, r6, pc}
 2249              	.LVL247:
 2250              	.L176:
 2251              	.LCFI36:
 2252              		.cfi_restore_state
 528:../../Middlewares/LVGL/GUI/lvgl/src/misc/lv_text.c ****     if(text == NULL) {
ARM GAS  C:\Users\28576\AppData\Local\Temp\ccMimN1K.s 			page 67


 2253              		.loc 1 528 5 is_stmt 1 view .LVU728
 528:../../Middlewares/LVGL/GUI/lvgl/src/misc/lv_text.c ****     if(text == NULL) {
 2254              		.loc 1 528 5 view .LVU729
 528:../../Middlewares/LVGL/GUI/lvgl/src/misc/lv_text.c ****     if(text == NULL) {
 2255              		.loc 1 528 5 view .LVU730
 528:../../Middlewares/LVGL/GUI/lvgl/src/misc/lv_text.c ****     if(text == NULL) {
 2256              		.loc 1 528 5 view .LVU731
 528:../../Middlewares/LVGL/GUI/lvgl/src/misc/lv_text.c ****     if(text == NULL) {
 2257              		.loc 1 528 5 view .LVU732
 2258 0032 FEE7     		b	.L176
 2259              		.cfi_endproc
 2260              	.LFE30:
 2262              		.section	.text.lv_text_encoded_letter_next_2,"ax",%progbits
 2263              		.align	1
 2264              		.global	lv_text_encoded_letter_next_2
 2265              		.syntax unified
 2266              		.thumb
 2267              		.thumb_func
 2269              	lv_text_encoded_letter_next_2:
 2270              	.LVL248:
 2271              	.LFB31:
 540:../../Middlewares/LVGL/GUI/lvgl/src/misc/lv_text.c ****     *letter = lv_text_encoded_next(txt, ofs);
 2272              		.loc 1 540 1 view -0
 2273              		.cfi_startproc
 2274              		@ args = 0, pretend = 0, frame = 0
 2275              		@ frame_needed = 0, uses_anonymous_args = 0
 540:../../Middlewares/LVGL/GUI/lvgl/src/misc/lv_text.c ****     *letter = lv_text_encoded_next(txt, ofs);
 2276              		.loc 1 540 1 is_stmt 0 view .LVU734
 2277 0000 F8B5     		push	{r3, r4, r5, r6, r7, lr}
 2278              	.LCFI37:
 2279              		.cfi_def_cfa_offset 24
 2280              		.cfi_offset 3, -24
 2281              		.cfi_offset 4, -20
 2282              		.cfi_offset 5, -16
 2283              		.cfi_offset 6, -12
 2284              		.cfi_offset 7, -8
 2285              		.cfi_offset 14, -4
 2286 0002 0646     		mov	r6, r0
 2287 0004 0C46     		mov	r4, r1
 2288 0006 1546     		mov	r5, r2
 2289 0008 1F46     		mov	r7, r3
 541:../../Middlewares/LVGL/GUI/lvgl/src/misc/lv_text.c ****     *letter_next = *letter != '\0' ? lv_text_encoded_next(&txt[*ofs], NULL) : 0;
 2290              		.loc 1 541 5 is_stmt 1 view .LVU735
 541:../../Middlewares/LVGL/GUI/lvgl/src/misc/lv_text.c ****     *letter_next = *letter != '\0' ? lv_text_encoded_next(&txt[*ofs], NULL) : 0;
 2291              		.loc 1 541 15 is_stmt 0 view .LVU736
 2292 000a 1946     		mov	r1, r3
 2293              	.LVL249:
 541:../../Middlewares/LVGL/GUI/lvgl/src/misc/lv_text.c ****     *letter_next = *letter != '\0' ? lv_text_encoded_next(&txt[*ofs], NULL) : 0;
 2294              		.loc 1 541 15 view .LVU737
 2295 000c FFF7FEFF 		bl	lv_text_utf8_next
 2296              	.LVL250:
 541:../../Middlewares/LVGL/GUI/lvgl/src/misc/lv_text.c ****     *letter_next = *letter != '\0' ? lv_text_encoded_next(&txt[*ofs], NULL) : 0;
 2297              		.loc 1 541 13 discriminator 1 view .LVU738
 2298 0010 2060     		str	r0, [r4]
 542:../../Middlewares/LVGL/GUI/lvgl/src/misc/lv_text.c **** }
 2299              		.loc 1 542 5 is_stmt 1 view .LVU739
 542:../../Middlewares/LVGL/GUI/lvgl/src/misc/lv_text.c **** }
ARM GAS  C:\Users\28576\AppData\Local\Temp\ccMimN1K.s 			page 68


 2300              		.loc 1 542 77 is_stmt 0 view .LVU740
 2301 0012 08B9     		cbnz	r0, .L181
 2302              	.L179:
 542:../../Middlewares/LVGL/GUI/lvgl/src/misc/lv_text.c **** }
 2303              		.loc 1 542 18 discriminator 5 view .LVU741
 2304 0014 2860     		str	r0, [r5]
 543:../../Middlewares/LVGL/GUI/lvgl/src/misc/lv_text.c **** 
 2305              		.loc 1 543 1 view .LVU742
 2306 0016 F8BD     		pop	{r3, r4, r5, r6, r7, pc}
 2307              	.LVL251:
 2308              	.L181:
 542:../../Middlewares/LVGL/GUI/lvgl/src/misc/lv_text.c **** }
 2309              		.loc 1 542 64 discriminator 1 view .LVU743
 2310 0018 3868     		ldr	r0, [r7]
 542:../../Middlewares/LVGL/GUI/lvgl/src/misc/lv_text.c **** }
 2311              		.loc 1 542 38 discriminator 1 view .LVU744
 2312 001a 0021     		movs	r1, #0
 2313 001c 3346     		mov	r3, r6
 2314 001e 0344     		add	r3, r3, r0
 2315 0020 1846     		mov	r0, r3
 2316 0022 FFF7FEFF 		bl	lv_text_utf8_next
 2317              	.LVL252:
 2318 0026 F5E7     		b	.L179
 2319              		.cfi_endproc
 2320              	.LFE31:
 2322              		.section	.text.lv_text_get_width,"ax",%progbits
 2323              		.align	1
 2324              		.global	lv_text_get_width
 2325              		.syntax unified
 2326              		.thumb
 2327              		.thumb_func
 2329              	lv_text_get_width:
 2330              	.LVL253:
 2331              	.LFB26:
 391:../../Middlewares/LVGL/GUI/lvgl/src/misc/lv_text.c ****     if(txt == NULL) return 0;
 2332              		.loc 1 391 1 is_stmt 1 view -0
 2333              		.cfi_startproc
 2334              		@ args = 0, pretend = 0, frame = 16
 2335              		@ frame_needed = 0, uses_anonymous_args = 0
 391:../../Middlewares/LVGL/GUI/lvgl/src/misc/lv_text.c ****     if(txt == NULL) return 0;
 2336              		.loc 1 391 1 is_stmt 0 view .LVU746
 2337 0000 2DE9F041 		push	{r4, r5, r6, r7, r8, lr}
 2338              	.LCFI38:
 2339              		.cfi_def_cfa_offset 24
 2340              		.cfi_offset 4, -24
 2341              		.cfi_offset 5, -20
 2342              		.cfi_offset 6, -16
 2343              		.cfi_offset 7, -12
 2344              		.cfi_offset 8, -8
 2345              		.cfi_offset 14, -4
 2346 0004 84B0     		sub	sp, sp, #16
 2347              	.LCFI39:
 2348              		.cfi_def_cfa_offset 40
 392:../../Middlewares/LVGL/GUI/lvgl/src/misc/lv_text.c ****     if(font == NULL) return 0;
 2349              		.loc 1 392 5 is_stmt 1 view .LVU747
 392:../../Middlewares/LVGL/GUI/lvgl/src/misc/lv_text.c ****     if(font == NULL) return 0;
 2350              		.loc 1 392 7 is_stmt 0 view .LVU748
ARM GAS  C:\Users\28576\AppData\Local\Temp\ccMimN1K.s 			page 69


 2351 0006 20B3     		cbz	r0, .L187
 2352 0008 0E46     		mov	r6, r1
 2353 000a 1546     		mov	r5, r2
 2354 000c 9846     		mov	r8, r3
 2355 000e 0746     		mov	r7, r0
 393:../../Middlewares/LVGL/GUI/lvgl/src/misc/lv_text.c ****     if(txt[0] == '\0') return 0;
 2356              		.loc 1 393 5 is_stmt 1 view .LVU749
 393:../../Middlewares/LVGL/GUI/lvgl/src/misc/lv_text.c ****     if(txt[0] == '\0') return 0;
 2357              		.loc 1 393 7 is_stmt 0 view .LVU750
 2358 0010 0AB3     		cbz	r2, .L188
 394:../../Middlewares/LVGL/GUI/lvgl/src/misc/lv_text.c **** 
 2359              		.loc 1 394 5 is_stmt 1 view .LVU751
 394:../../Middlewares/LVGL/GUI/lvgl/src/misc/lv_text.c **** 
 2360              		.loc 1 394 11 is_stmt 0 view .LVU752
 2361 0012 0378     		ldrb	r3, [r0]	@ zero_extendqisi2
 2362              	.LVL254:
 394:../../Middlewares/LVGL/GUI/lvgl/src/misc/lv_text.c **** 
 2363              		.loc 1 394 7 view .LVU753
 2364 0014 0BB3     		cbz	r3, .L189
 396:../../Middlewares/LVGL/GUI/lvgl/src/misc/lv_text.c ****     int32_t width             = 0;
 2365              		.loc 1 396 5 is_stmt 1 view .LVU754
 396:../../Middlewares/LVGL/GUI/lvgl/src/misc/lv_text.c ****     int32_t width             = 0;
 2366              		.loc 1 396 14 is_stmt 0 view .LVU755
 2367 0016 0023     		movs	r3, #0
 2368 0018 0393     		str	r3, [sp, #12]
 397:../../Middlewares/LVGL/GUI/lvgl/src/misc/lv_text.c **** 
 2369              		.loc 1 397 5 is_stmt 1 view .LVU756
 2370              	.LVL255:
 399:../../Middlewares/LVGL/GUI/lvgl/src/misc/lv_text.c ****         while(i < length) {
 2371              		.loc 1 399 5 view .LVU757
 399:../../Middlewares/LVGL/GUI/lvgl/src/misc/lv_text.c ****         while(i < length) {
 2372              		.loc 1 399 7 is_stmt 0 view .LVU758
 2373 001a 09B9     		cbnz	r1, .L190
 397:../../Middlewares/LVGL/GUI/lvgl/src/misc/lv_text.c **** 
 2374              		.loc 1 397 13 view .LVU759
 2375 001c 0C46     		mov	r4, r1
 2376 001e 1DE0     		b	.L182
 2377              	.L190:
 397:../../Middlewares/LVGL/GUI/lvgl/src/misc/lv_text.c **** 
 2378              		.loc 1 397 13 view .LVU760
 2379 0020 0024     		movs	r4, #0
 2380              	.LVL256:
 2381              	.L184:
 400:../../Middlewares/LVGL/GUI/lvgl/src/misc/lv_text.c ****             uint32_t letter;
 2382              		.loc 1 400 17 is_stmt 1 view .LVU761
 2383 0022 039B     		ldr	r3, [sp, #12]
 2384 0024 B342     		cmp	r3, r6
 2385 0026 0FD2     		bcs	.L192
 2386              	.LBB17:
 401:../../Middlewares/LVGL/GUI/lvgl/src/misc/lv_text.c ****             uint32_t letter_next;
 2387              		.loc 1 401 13 view .LVU762
 402:../../Middlewares/LVGL/GUI/lvgl/src/misc/lv_text.c ****             lv_text_encoded_letter_next_2(txt, &letter, &letter_next, &i);
 2388              		.loc 1 402 13 view .LVU763
 403:../../Middlewares/LVGL/GUI/lvgl/src/misc/lv_text.c **** 
 2389              		.loc 1 403 13 view .LVU764
 2390 0028 03AB     		add	r3, sp, #12
 2391 002a 02AA     		add	r2, sp, #8
ARM GAS  C:\Users\28576\AppData\Local\Temp\ccMimN1K.s 			page 70


 2392 002c 01A9     		add	r1, sp, #4
 2393 002e 3846     		mov	r0, r7
 2394 0030 FFF7FEFF 		bl	lv_text_encoded_letter_next_2
 2395              	.LVL257:
 405:../../Middlewares/LVGL/GUI/lvgl/src/misc/lv_text.c ****             if(char_width > 0) {
 2396              		.loc 1 405 13 view .LVU765
 405:../../Middlewares/LVGL/GUI/lvgl/src/misc/lv_text.c ****             if(char_width > 0) {
 2397              		.loc 1 405 34 is_stmt 0 view .LVU766
 2398 0034 029A     		ldr	r2, [sp, #8]
 2399 0036 0199     		ldr	r1, [sp, #4]
 2400 0038 2846     		mov	r0, r5
 2401 003a FFF7FEFF 		bl	lv_font_get_glyph_width
 2402              	.LVL258:
 406:../../Middlewares/LVGL/GUI/lvgl/src/misc/lv_text.c ****                 width += char_width;
 2403              		.loc 1 406 13 is_stmt 1 view .LVU767
 406:../../Middlewares/LVGL/GUI/lvgl/src/misc/lv_text.c ****                 width += char_width;
 2404              		.loc 1 406 15 is_stmt 0 view .LVU768
 2405 003e 0028     		cmp	r0, #0
 406:../../Middlewares/LVGL/GUI/lvgl/src/misc/lv_text.c ****                 width += char_width;
 2406              		.loc 1 406 15 view .LVU769
 2407 0040 EFDD     		ble	.L184
 407:../../Middlewares/LVGL/GUI/lvgl/src/misc/lv_text.c ****                 width += letter_space;
 2408              		.loc 1 407 17 is_stmt 1 view .LVU770
 407:../../Middlewares/LVGL/GUI/lvgl/src/misc/lv_text.c ****                 width += letter_space;
 2409              		.loc 1 407 23 is_stmt 0 view .LVU771
 2410 0042 0444     		add	r4, r4, r0
 2411              	.LVL259:
 408:../../Middlewares/LVGL/GUI/lvgl/src/misc/lv_text.c ****             }
 2412              		.loc 1 408 17 is_stmt 1 view .LVU772
