ARM GAS  C:\Users\28576\AppData\Local\Temp\ccCAaWBI.s 			page 1


   1              		.cpu cortex-m7
   2              		.arch armv7e-m
   3              		.fpu fpv5-d16
   4              		.eabi_attribute 28, 1
   5              		.eabi_attribute 20, 1
   6              		.eabi_attribute 21, 1
   7              		.eabi_attribute 23, 3
   8              		.eabi_attribute 24, 1
   9              		.eabi_attribute 25, 1
  10              		.eabi_attribute 26, 1
  11              		.eabi_attribute 30, 1
  12              		.eabi_attribute 34, 1
  13              		.eabi_attribute 18, 4
  14              		.file	"lv_tabview.c"
  15              		.text
  16              	.Ltext0:
  17              		.cfi_sections	.debug_frame
  18              		.file 1 "../../Middlewares/LVGL/GUI/lvgl/src/widgets/tabview/lv_tabview.c"
  19              		.section	.text.lv_tabview_create,"ax",%progbits
  20              		.align	1
  21              		.global	lv_tabview_create
  22              		.syntax unified
  23              		.thumb
  24              		.thumb_func
  26              	lv_tabview_create:
  27              	.LVL0:
  28              	.LFB196:
   1:../../Middlewares/LVGL/GUI/lvgl/src/widgets/tabview/lv_tabview.c **** /**
   2:../../Middlewares/LVGL/GUI/lvgl/src/widgets/tabview/lv_tabview.c ****  * @file lv_tabview.c
   3:../../Middlewares/LVGL/GUI/lvgl/src/widgets/tabview/lv_tabview.c ****  *
   4:../../Middlewares/LVGL/GUI/lvgl/src/widgets/tabview/lv_tabview.c ****  */
   5:../../Middlewares/LVGL/GUI/lvgl/src/widgets/tabview/lv_tabview.c **** 
   6:../../Middlewares/LVGL/GUI/lvgl/src/widgets/tabview/lv_tabview.c **** /*********************
   7:../../Middlewares/LVGL/GUI/lvgl/src/widgets/tabview/lv_tabview.c ****  *      INCLUDES
   8:../../Middlewares/LVGL/GUI/lvgl/src/widgets/tabview/lv_tabview.c ****  *********************/
   9:../../Middlewares/LVGL/GUI/lvgl/src/widgets/tabview/lv_tabview.c **** #include "lv_tabview_private.h"
  10:../../Middlewares/LVGL/GUI/lvgl/src/widgets/tabview/lv_tabview.c **** #include "../../core/lv_obj_class_private.h"
  11:../../Middlewares/LVGL/GUI/lvgl/src/widgets/tabview/lv_tabview.c **** #include "../../lvgl.h"
  12:../../Middlewares/LVGL/GUI/lvgl/src/widgets/tabview/lv_tabview.c **** 
  13:../../Middlewares/LVGL/GUI/lvgl/src/widgets/tabview/lv_tabview.c **** #if LV_USE_TABVIEW
  14:../../Middlewares/LVGL/GUI/lvgl/src/widgets/tabview/lv_tabview.c **** 
  15:../../Middlewares/LVGL/GUI/lvgl/src/widgets/tabview/lv_tabview.c **** #include "../../misc/lv_assert.h"
  16:../../Middlewares/LVGL/GUI/lvgl/src/widgets/tabview/lv_tabview.c **** #include "../../indev/lv_indev_private.h"
  17:../../Middlewares/LVGL/GUI/lvgl/src/widgets/tabview/lv_tabview.c **** 
  18:../../Middlewares/LVGL/GUI/lvgl/src/widgets/tabview/lv_tabview.c **** /*********************
  19:../../Middlewares/LVGL/GUI/lvgl/src/widgets/tabview/lv_tabview.c ****  *      DEFINES
  20:../../Middlewares/LVGL/GUI/lvgl/src/widgets/tabview/lv_tabview.c ****  *********************/
  21:../../Middlewares/LVGL/GUI/lvgl/src/widgets/tabview/lv_tabview.c **** #define MY_CLASS (&lv_tabview_class)
  22:../../Middlewares/LVGL/GUI/lvgl/src/widgets/tabview/lv_tabview.c **** 
  23:../../Middlewares/LVGL/GUI/lvgl/src/widgets/tabview/lv_tabview.c **** /**********************
  24:../../Middlewares/LVGL/GUI/lvgl/src/widgets/tabview/lv_tabview.c ****  *      TYPEDEFS
  25:../../Middlewares/LVGL/GUI/lvgl/src/widgets/tabview/lv_tabview.c ****  **********************/
  26:../../Middlewares/LVGL/GUI/lvgl/src/widgets/tabview/lv_tabview.c **** 
  27:../../Middlewares/LVGL/GUI/lvgl/src/widgets/tabview/lv_tabview.c **** /**********************
  28:../../Middlewares/LVGL/GUI/lvgl/src/widgets/tabview/lv_tabview.c ****  *  STATIC PROTOTYPES
  29:../../Middlewares/LVGL/GUI/lvgl/src/widgets/tabview/lv_tabview.c ****  **********************/
  30:../../Middlewares/LVGL/GUI/lvgl/src/widgets/tabview/lv_tabview.c **** static void lv_tabview_constructor(const lv_obj_class_t * class_p, lv_obj_t * obj);
ARM GAS  C:\Users\28576\AppData\Local\Temp\ccCAaWBI.s 			page 2


  31:../../Middlewares/LVGL/GUI/lvgl/src/widgets/tabview/lv_tabview.c **** static void lv_tabview_event(const lv_obj_class_t * class_p, lv_event_t * e);
  32:../../Middlewares/LVGL/GUI/lvgl/src/widgets/tabview/lv_tabview.c **** static void button_clicked_event_cb(lv_event_t * e);
  33:../../Middlewares/LVGL/GUI/lvgl/src/widgets/tabview/lv_tabview.c **** static void cont_scroll_end_event_cb(lv_event_t * e);
  34:../../Middlewares/LVGL/GUI/lvgl/src/widgets/tabview/lv_tabview.c **** 
  35:../../Middlewares/LVGL/GUI/lvgl/src/widgets/tabview/lv_tabview.c **** /**********************
  36:../../Middlewares/LVGL/GUI/lvgl/src/widgets/tabview/lv_tabview.c ****  *  STATIC VARIABLES
  37:../../Middlewares/LVGL/GUI/lvgl/src/widgets/tabview/lv_tabview.c ****  **********************/
  38:../../Middlewares/LVGL/GUI/lvgl/src/widgets/tabview/lv_tabview.c **** const lv_obj_class_t lv_tabview_class = {
  39:../../Middlewares/LVGL/GUI/lvgl/src/widgets/tabview/lv_tabview.c ****     .constructor_cb = lv_tabview_constructor,
  40:../../Middlewares/LVGL/GUI/lvgl/src/widgets/tabview/lv_tabview.c ****     .event_cb = lv_tabview_event,
  41:../../Middlewares/LVGL/GUI/lvgl/src/widgets/tabview/lv_tabview.c ****     .width_def = LV_PCT(100),
  42:../../Middlewares/LVGL/GUI/lvgl/src/widgets/tabview/lv_tabview.c ****     .height_def = LV_PCT(100),
  43:../../Middlewares/LVGL/GUI/lvgl/src/widgets/tabview/lv_tabview.c ****     .base_class = &lv_obj_class,
  44:../../Middlewares/LVGL/GUI/lvgl/src/widgets/tabview/lv_tabview.c ****     .instance_size = sizeof(lv_tabview_t),
  45:../../Middlewares/LVGL/GUI/lvgl/src/widgets/tabview/lv_tabview.c ****     .name = "lv_tabview",
  46:../../Middlewares/LVGL/GUI/lvgl/src/widgets/tabview/lv_tabview.c **** };
  47:../../Middlewares/LVGL/GUI/lvgl/src/widgets/tabview/lv_tabview.c **** 
  48:../../Middlewares/LVGL/GUI/lvgl/src/widgets/tabview/lv_tabview.c **** typedef struct {
  49:../../Middlewares/LVGL/GUI/lvgl/src/widgets/tabview/lv_tabview.c ****     lv_dir_t tab_pos;
  50:../../Middlewares/LVGL/GUI/lvgl/src/widgets/tabview/lv_tabview.c ****     int32_t tab_size;
  51:../../Middlewares/LVGL/GUI/lvgl/src/widgets/tabview/lv_tabview.c **** } lv_tabview_create_info_t;
  52:../../Middlewares/LVGL/GUI/lvgl/src/widgets/tabview/lv_tabview.c **** 
  53:../../Middlewares/LVGL/GUI/lvgl/src/widgets/tabview/lv_tabview.c **** /**********************
  54:../../Middlewares/LVGL/GUI/lvgl/src/widgets/tabview/lv_tabview.c ****  *      MACROS
  55:../../Middlewares/LVGL/GUI/lvgl/src/widgets/tabview/lv_tabview.c ****  **********************/
  56:../../Middlewares/LVGL/GUI/lvgl/src/widgets/tabview/lv_tabview.c **** 
  57:../../Middlewares/LVGL/GUI/lvgl/src/widgets/tabview/lv_tabview.c **** /**********************
  58:../../Middlewares/LVGL/GUI/lvgl/src/widgets/tabview/lv_tabview.c ****  *   GLOBAL FUNCTIONS
  59:../../Middlewares/LVGL/GUI/lvgl/src/widgets/tabview/lv_tabview.c ****  **********************/
  60:../../Middlewares/LVGL/GUI/lvgl/src/widgets/tabview/lv_tabview.c **** 
  61:../../Middlewares/LVGL/GUI/lvgl/src/widgets/tabview/lv_tabview.c **** lv_obj_t * lv_tabview_create(lv_obj_t * parent)
  62:../../Middlewares/LVGL/GUI/lvgl/src/widgets/tabview/lv_tabview.c **** {
  29              		.loc 1 62 1 view -0
  30              		.cfi_startproc
  31              		@ args = 0, pretend = 0, frame = 0
  32              		@ frame_needed = 0, uses_anonymous_args = 0
  33              		.loc 1 62 1 is_stmt 0 view .LVU1
  34 0000 10B5     		push	{r4, lr}
  35              	.LCFI0:
  36              		.cfi_def_cfa_offset 8
  37              		.cfi_offset 4, -8
  38              		.cfi_offset 14, -4
  39 0002 0146     		mov	r1, r0
  63:../../Middlewares/LVGL/GUI/lvgl/src/widgets/tabview/lv_tabview.c ****     LV_LOG_INFO("begin");
  40              		.loc 1 63 5 is_stmt 1 view .LVU2
  41              		.loc 1 63 5 view .LVU3
  42              		.loc 1 63 5 view .LVU4
  64:../../Middlewares/LVGL/GUI/lvgl/src/widgets/tabview/lv_tabview.c **** 
  65:../../Middlewares/LVGL/GUI/lvgl/src/widgets/tabview/lv_tabview.c ****     lv_obj_t * obj = lv_obj_class_create_obj(&lv_tabview_class, parent);
  43              		.loc 1 65 5 view .LVU5
  44              		.loc 1 65 22 is_stmt 0 view .LVU6
  45 0004 0348     		ldr	r0, .L3
  46              	.LVL1:
  47              		.loc 1 65 22 view .LVU7
  48 0006 FFF7FEFF 		bl	lv_obj_class_create_obj
  49              	.LVL2:
  50              		.loc 1 65 22 view .LVU8
ARM GAS  C:\Users\28576\AppData\Local\Temp\ccCAaWBI.s 			page 3


  51 000a 0446     		mov	r4, r0
  52              	.LVL3:
  66:../../Middlewares/LVGL/GUI/lvgl/src/widgets/tabview/lv_tabview.c ****     lv_obj_class_init_obj(obj);
  53              		.loc 1 66 5 is_stmt 1 view .LVU9
  54 000c FFF7FEFF 		bl	lv_obj_class_init_obj
  55              	.LVL4:
  67:../../Middlewares/LVGL/GUI/lvgl/src/widgets/tabview/lv_tabview.c ****     return obj;
  56              		.loc 1 67 5 view .LVU10
  68:../../Middlewares/LVGL/GUI/lvgl/src/widgets/tabview/lv_tabview.c **** }
  57              		.loc 1 68 1 is_stmt 0 view .LVU11
  58 0010 2046     		mov	r0, r4
  59 0012 10BD     		pop	{r4, pc}
  60              	.LVL5:
  61              	.L4:
  62              		.loc 1 68 1 view .LVU12
  63              		.align	2
  64              	.L3:
  65 0014 00000000 		.word	lv_tabview_class
  66              		.cfi_endproc
  67              	.LFE196:
  69              		.section	.text.lv_tabview_get_tab_active,"ax",%progbits
  70              		.align	1
  71              		.global	lv_tabview_get_tab_active
  72              		.syntax unified
  73              		.thumb
  74              		.thumb_func
  76              	lv_tabview_get_tab_active:
  77              	.LVL6:
  78              	.LFB202:
  69:../../Middlewares/LVGL/GUI/lvgl/src/widgets/tabview/lv_tabview.c **** 
  70:../../Middlewares/LVGL/GUI/lvgl/src/widgets/tabview/lv_tabview.c **** lv_obj_t * lv_tabview_add_tab(lv_obj_t * obj, const char * name)
  71:../../Middlewares/LVGL/GUI/lvgl/src/widgets/tabview/lv_tabview.c **** {
  72:../../Middlewares/LVGL/GUI/lvgl/src/widgets/tabview/lv_tabview.c ****     LV_ASSERT_OBJ(obj, MY_CLASS);
  73:../../Middlewares/LVGL/GUI/lvgl/src/widgets/tabview/lv_tabview.c ****     lv_obj_t * cont = lv_tabview_get_content(obj);
  74:../../Middlewares/LVGL/GUI/lvgl/src/widgets/tabview/lv_tabview.c **** 
  75:../../Middlewares/LVGL/GUI/lvgl/src/widgets/tabview/lv_tabview.c ****     lv_obj_t * page = lv_obj_create(cont);
  76:../../Middlewares/LVGL/GUI/lvgl/src/widgets/tabview/lv_tabview.c ****     lv_obj_set_size(page, lv_pct(100), lv_pct(100));
  77:../../Middlewares/LVGL/GUI/lvgl/src/widgets/tabview/lv_tabview.c **** 
  78:../../Middlewares/LVGL/GUI/lvgl/src/widgets/tabview/lv_tabview.c ****     lv_obj_t * tab_bar = lv_tabview_get_tab_bar(obj);
  79:../../Middlewares/LVGL/GUI/lvgl/src/widgets/tabview/lv_tabview.c **** 
  80:../../Middlewares/LVGL/GUI/lvgl/src/widgets/tabview/lv_tabview.c ****     lv_obj_t * button = lv_button_create(tab_bar);
  81:../../Middlewares/LVGL/GUI/lvgl/src/widgets/tabview/lv_tabview.c ****     lv_obj_set_flex_grow(button, 1);
  82:../../Middlewares/LVGL/GUI/lvgl/src/widgets/tabview/lv_tabview.c ****     lv_obj_set_size(button, lv_pct(100), lv_pct(100));
  83:../../Middlewares/LVGL/GUI/lvgl/src/widgets/tabview/lv_tabview.c ****     lv_obj_add_event_cb(button, button_clicked_event_cb, LV_EVENT_CLICKED, NULL);
  84:../../Middlewares/LVGL/GUI/lvgl/src/widgets/tabview/lv_tabview.c ****     lv_group_t * g = lv_group_get_default();
  85:../../Middlewares/LVGL/GUI/lvgl/src/widgets/tabview/lv_tabview.c ****     if(g) lv_group_add_obj(g, button);
  86:../../Middlewares/LVGL/GUI/lvgl/src/widgets/tabview/lv_tabview.c **** 
  87:../../Middlewares/LVGL/GUI/lvgl/src/widgets/tabview/lv_tabview.c ****     lv_obj_t * label = lv_label_create(button);
  88:../../Middlewares/LVGL/GUI/lvgl/src/widgets/tabview/lv_tabview.c ****     lv_label_set_text(label, name);
  89:../../Middlewares/LVGL/GUI/lvgl/src/widgets/tabview/lv_tabview.c ****     lv_obj_center(label);
  90:../../Middlewares/LVGL/GUI/lvgl/src/widgets/tabview/lv_tabview.c **** 
  91:../../Middlewares/LVGL/GUI/lvgl/src/widgets/tabview/lv_tabview.c ****     uint32_t tab_idx = lv_obj_get_child_count(cont) - 1;
  92:../../Middlewares/LVGL/GUI/lvgl/src/widgets/tabview/lv_tabview.c ****     lv_tabview_t * tabview = (lv_tabview_t *)obj;
  93:../../Middlewares/LVGL/GUI/lvgl/src/widgets/tabview/lv_tabview.c ****     if(tab_idx == tabview->tab_cur) {
  94:../../Middlewares/LVGL/GUI/lvgl/src/widgets/tabview/lv_tabview.c ****         lv_tabview_set_active(obj, tab_idx, LV_ANIM_OFF);
  95:../../Middlewares/LVGL/GUI/lvgl/src/widgets/tabview/lv_tabview.c ****     }
  96:../../Middlewares/LVGL/GUI/lvgl/src/widgets/tabview/lv_tabview.c **** 
ARM GAS  C:\Users\28576\AppData\Local\Temp\ccCAaWBI.s 			page 4


  97:../../Middlewares/LVGL/GUI/lvgl/src/widgets/tabview/lv_tabview.c ****     return page;
  98:../../Middlewares/LVGL/GUI/lvgl/src/widgets/tabview/lv_tabview.c **** }
  99:../../Middlewares/LVGL/GUI/lvgl/src/widgets/tabview/lv_tabview.c **** 
 100:../../Middlewares/LVGL/GUI/lvgl/src/widgets/tabview/lv_tabview.c **** void lv_tabview_rename_tab(lv_obj_t * obj, uint32_t idx, const char * new_name)
 101:../../Middlewares/LVGL/GUI/lvgl/src/widgets/tabview/lv_tabview.c **** {
 102:../../Middlewares/LVGL/GUI/lvgl/src/widgets/tabview/lv_tabview.c ****     LV_ASSERT_OBJ(obj, MY_CLASS);
 103:../../Middlewares/LVGL/GUI/lvgl/src/widgets/tabview/lv_tabview.c **** 
 104:../../Middlewares/LVGL/GUI/lvgl/src/widgets/tabview/lv_tabview.c ****     lv_obj_t * tab_bar = lv_tabview_get_tab_bar(obj);
 105:../../Middlewares/LVGL/GUI/lvgl/src/widgets/tabview/lv_tabview.c ****     lv_obj_t * button = lv_obj_get_child_by_type(tab_bar, idx, &lv_button_class);
 106:../../Middlewares/LVGL/GUI/lvgl/src/widgets/tabview/lv_tabview.c ****     lv_obj_t * label = lv_obj_get_child_by_type(button, 0, &lv_label_class);
 107:../../Middlewares/LVGL/GUI/lvgl/src/widgets/tabview/lv_tabview.c ****     lv_label_set_text(label, new_name);
 108:../../Middlewares/LVGL/GUI/lvgl/src/widgets/tabview/lv_tabview.c **** }
 109:../../Middlewares/LVGL/GUI/lvgl/src/widgets/tabview/lv_tabview.c **** 
 110:../../Middlewares/LVGL/GUI/lvgl/src/widgets/tabview/lv_tabview.c **** void lv_tabview_set_active(lv_obj_t * obj, uint32_t idx, lv_anim_enable_t anim_en)
 111:../../Middlewares/LVGL/GUI/lvgl/src/widgets/tabview/lv_tabview.c **** {
 112:../../Middlewares/LVGL/GUI/lvgl/src/widgets/tabview/lv_tabview.c ****     LV_ASSERT_OBJ(obj, MY_CLASS);
 113:../../Middlewares/LVGL/GUI/lvgl/src/widgets/tabview/lv_tabview.c ****     lv_tabview_t * tabview = (lv_tabview_t *)obj;
 114:../../Middlewares/LVGL/GUI/lvgl/src/widgets/tabview/lv_tabview.c **** 
 115:../../Middlewares/LVGL/GUI/lvgl/src/widgets/tabview/lv_tabview.c ****     tabview->tab_cur = idx;
 116:../../Middlewares/LVGL/GUI/lvgl/src/widgets/tabview/lv_tabview.c **** 
 117:../../Middlewares/LVGL/GUI/lvgl/src/widgets/tabview/lv_tabview.c ****     lv_obj_t * cont = lv_tabview_get_content(obj);
 118:../../Middlewares/LVGL/GUI/lvgl/src/widgets/tabview/lv_tabview.c ****     lv_obj_t * tab_bar = lv_tabview_get_tab_bar(obj);
 119:../../Middlewares/LVGL/GUI/lvgl/src/widgets/tabview/lv_tabview.c **** 
 120:../../Middlewares/LVGL/GUI/lvgl/src/widgets/tabview/lv_tabview.c ****     uint32_t tab_cnt = lv_tabview_get_tab_count(obj);
 121:../../Middlewares/LVGL/GUI/lvgl/src/widgets/tabview/lv_tabview.c ****     if(idx >= tab_cnt) return;
 122:../../Middlewares/LVGL/GUI/lvgl/src/widgets/tabview/lv_tabview.c **** 
 123:../../Middlewares/LVGL/GUI/lvgl/src/widgets/tabview/lv_tabview.c ****     /*To be sure lv_obj_get_content_width will return valid value*/
 124:../../Middlewares/LVGL/GUI/lvgl/src/widgets/tabview/lv_tabview.c ****     if(cont == NULL) return;
 125:../../Middlewares/LVGL/GUI/lvgl/src/widgets/tabview/lv_tabview.c **** 
 126:../../Middlewares/LVGL/GUI/lvgl/src/widgets/tabview/lv_tabview.c ****     lv_obj_update_layout(obj);
 127:../../Middlewares/LVGL/GUI/lvgl/src/widgets/tabview/lv_tabview.c **** 
 128:../../Middlewares/LVGL/GUI/lvgl/src/widgets/tabview/lv_tabview.c ****     if((tabview->tab_pos & LV_DIR_VER) != 0) {
 129:../../Middlewares/LVGL/GUI/lvgl/src/widgets/tabview/lv_tabview.c ****         int32_t gap = lv_obj_get_style_pad_column(cont, LV_PART_MAIN);
 130:../../Middlewares/LVGL/GUI/lvgl/src/widgets/tabview/lv_tabview.c ****         int32_t w = lv_obj_get_content_width(cont);
 131:../../Middlewares/LVGL/GUI/lvgl/src/widgets/tabview/lv_tabview.c ****         if(lv_obj_get_style_base_dir(obj, LV_PART_MAIN) != LV_BASE_DIR_RTL) {
 132:../../Middlewares/LVGL/GUI/lvgl/src/widgets/tabview/lv_tabview.c ****             lv_obj_scroll_to_x(cont, idx * (gap + w), anim_en);
 133:../../Middlewares/LVGL/GUI/lvgl/src/widgets/tabview/lv_tabview.c ****         }
 134:../../Middlewares/LVGL/GUI/lvgl/src/widgets/tabview/lv_tabview.c ****         else {
 135:../../Middlewares/LVGL/GUI/lvgl/src/widgets/tabview/lv_tabview.c ****             int32_t id_rtl = -(int32_t)idx;
 136:../../Middlewares/LVGL/GUI/lvgl/src/widgets/tabview/lv_tabview.c ****             lv_obj_scroll_to_x(cont, (gap + w) * id_rtl, anim_en);
 137:../../Middlewares/LVGL/GUI/lvgl/src/widgets/tabview/lv_tabview.c ****         }
 138:../../Middlewares/LVGL/GUI/lvgl/src/widgets/tabview/lv_tabview.c ****     }
 139:../../Middlewares/LVGL/GUI/lvgl/src/widgets/tabview/lv_tabview.c ****     else {
 140:../../Middlewares/LVGL/GUI/lvgl/src/widgets/tabview/lv_tabview.c ****         int32_t gap = lv_obj_get_style_pad_row(cont, LV_PART_MAIN);
 141:../../Middlewares/LVGL/GUI/lvgl/src/widgets/tabview/lv_tabview.c ****         int32_t h = lv_obj_get_content_height(cont);
 142:../../Middlewares/LVGL/GUI/lvgl/src/widgets/tabview/lv_tabview.c ****         lv_obj_scroll_to_y(cont, idx * (gap + h), anim_en);
 143:../../Middlewares/LVGL/GUI/lvgl/src/widgets/tabview/lv_tabview.c ****     }
 144:../../Middlewares/LVGL/GUI/lvgl/src/widgets/tabview/lv_tabview.c **** 
 145:../../Middlewares/LVGL/GUI/lvgl/src/widgets/tabview/lv_tabview.c ****     uint32_t i = 0;
 146:../../Middlewares/LVGL/GUI/lvgl/src/widgets/tabview/lv_tabview.c ****     lv_obj_t * button = lv_obj_get_child_by_type(tab_bar, i, &lv_button_class);
 147:../../Middlewares/LVGL/GUI/lvgl/src/widgets/tabview/lv_tabview.c ****     while(button) {
 148:../../Middlewares/LVGL/GUI/lvgl/src/widgets/tabview/lv_tabview.c ****         lv_obj_set_state(button, LV_STATE_CHECKED, i == idx);
 149:../../Middlewares/LVGL/GUI/lvgl/src/widgets/tabview/lv_tabview.c ****         i++;
 150:../../Middlewares/LVGL/GUI/lvgl/src/widgets/tabview/lv_tabview.c ****         button = lv_obj_get_child_by_type(tab_bar, (int32_t)i, &lv_button_class);
 151:../../Middlewares/LVGL/GUI/lvgl/src/widgets/tabview/lv_tabview.c ****     }
 152:../../Middlewares/LVGL/GUI/lvgl/src/widgets/tabview/lv_tabview.c **** 
 153:../../Middlewares/LVGL/GUI/lvgl/src/widgets/tabview/lv_tabview.c **** }
ARM GAS  C:\Users\28576\AppData\Local\Temp\ccCAaWBI.s 			page 5


 154:../../Middlewares/LVGL/GUI/lvgl/src/widgets/tabview/lv_tabview.c **** 
 155:../../Middlewares/LVGL/GUI/lvgl/src/widgets/tabview/lv_tabview.c **** void lv_tabview_set_tab_bar_position(lv_obj_t * obj, lv_dir_t dir)
 156:../../Middlewares/LVGL/GUI/lvgl/src/widgets/tabview/lv_tabview.c **** {
 157:../../Middlewares/LVGL/GUI/lvgl/src/widgets/tabview/lv_tabview.c ****     LV_ASSERT_OBJ(obj, MY_CLASS);
 158:../../Middlewares/LVGL/GUI/lvgl/src/widgets/tabview/lv_tabview.c ****     lv_tabview_t * tabview = (lv_tabview_t *)obj;
 159:../../Middlewares/LVGL/GUI/lvgl/src/widgets/tabview/lv_tabview.c **** 
 160:../../Middlewares/LVGL/GUI/lvgl/src/widgets/tabview/lv_tabview.c ****     switch(dir) {
 161:../../Middlewares/LVGL/GUI/lvgl/src/widgets/tabview/lv_tabview.c ****         case LV_DIR_TOP:
 162:../../Middlewares/LVGL/GUI/lvgl/src/widgets/tabview/lv_tabview.c ****             lv_obj_set_flex_flow(obj, LV_FLEX_FLOW_COLUMN);
 163:../../Middlewares/LVGL/GUI/lvgl/src/widgets/tabview/lv_tabview.c ****             break;
 164:../../Middlewares/LVGL/GUI/lvgl/src/widgets/tabview/lv_tabview.c ****         case LV_DIR_BOTTOM:
 165:../../Middlewares/LVGL/GUI/lvgl/src/widgets/tabview/lv_tabview.c ****             lv_obj_set_flex_flow(obj, LV_FLEX_FLOW_COLUMN_REVERSE);
 166:../../Middlewares/LVGL/GUI/lvgl/src/widgets/tabview/lv_tabview.c ****             break;
 167:../../Middlewares/LVGL/GUI/lvgl/src/widgets/tabview/lv_tabview.c ****         case LV_DIR_LEFT:
 168:../../Middlewares/LVGL/GUI/lvgl/src/widgets/tabview/lv_tabview.c ****             lv_obj_set_flex_flow(obj, LV_FLEX_FLOW_ROW);
 169:../../Middlewares/LVGL/GUI/lvgl/src/widgets/tabview/lv_tabview.c ****             break;
 170:../../Middlewares/LVGL/GUI/lvgl/src/widgets/tabview/lv_tabview.c ****         case LV_DIR_RIGHT:
 171:../../Middlewares/LVGL/GUI/lvgl/src/widgets/tabview/lv_tabview.c ****             lv_obj_set_flex_flow(obj, LV_FLEX_FLOW_ROW_REVERSE);
 172:../../Middlewares/LVGL/GUI/lvgl/src/widgets/tabview/lv_tabview.c ****             break;
 173:../../Middlewares/LVGL/GUI/lvgl/src/widgets/tabview/lv_tabview.c ****         case LV_DIR_HOR:
 174:../../Middlewares/LVGL/GUI/lvgl/src/widgets/tabview/lv_tabview.c ****         case LV_DIR_VER:
 175:../../Middlewares/LVGL/GUI/lvgl/src/widgets/tabview/lv_tabview.c ****         case LV_DIR_ALL:
 176:../../Middlewares/LVGL/GUI/lvgl/src/widgets/tabview/lv_tabview.c ****         case LV_DIR_NONE:
 177:../../Middlewares/LVGL/GUI/lvgl/src/widgets/tabview/lv_tabview.c ****             break;
 178:../../Middlewares/LVGL/GUI/lvgl/src/widgets/tabview/lv_tabview.c ****     }
 179:../../Middlewares/LVGL/GUI/lvgl/src/widgets/tabview/lv_tabview.c **** 
 180:../../Middlewares/LVGL/GUI/lvgl/src/widgets/tabview/lv_tabview.c ****     lv_obj_t * tab_bar = lv_tabview_get_tab_bar(obj);
 181:../../Middlewares/LVGL/GUI/lvgl/src/widgets/tabview/lv_tabview.c ****     lv_obj_t * cont = lv_tabview_get_content(obj);
 182:../../Middlewares/LVGL/GUI/lvgl/src/widgets/tabview/lv_tabview.c **** 
 183:../../Middlewares/LVGL/GUI/lvgl/src/widgets/tabview/lv_tabview.c ****     switch(dir) {
 184:../../Middlewares/LVGL/GUI/lvgl/src/widgets/tabview/lv_tabview.c ****         case LV_DIR_TOP:
 185:../../Middlewares/LVGL/GUI/lvgl/src/widgets/tabview/lv_tabview.c ****         case LV_DIR_BOTTOM:
 186:../../Middlewares/LVGL/GUI/lvgl/src/widgets/tabview/lv_tabview.c ****             lv_obj_set_width(cont, LV_PCT(100));
 187:../../Middlewares/LVGL/GUI/lvgl/src/widgets/tabview/lv_tabview.c ****             lv_obj_set_flex_grow(cont, 1);
 188:../../Middlewares/LVGL/GUI/lvgl/src/widgets/tabview/lv_tabview.c ****             lv_obj_set_flex_flow(tab_bar, LV_FLEX_FLOW_ROW);
 189:../../Middlewares/LVGL/GUI/lvgl/src/widgets/tabview/lv_tabview.c ****             lv_obj_set_flex_flow(cont, LV_FLEX_FLOW_ROW);
 190:../../Middlewares/LVGL/GUI/lvgl/src/widgets/tabview/lv_tabview.c ****             lv_obj_set_scroll_snap_x(cont, LV_SCROLL_SNAP_CENTER);
 191:../../Middlewares/LVGL/GUI/lvgl/src/widgets/tabview/lv_tabview.c ****             lv_obj_set_scroll_snap_y(cont, LV_SCROLL_SNAP_NONE);
 192:../../Middlewares/LVGL/GUI/lvgl/src/widgets/tabview/lv_tabview.c ****             break;
 193:../../Middlewares/LVGL/GUI/lvgl/src/widgets/tabview/lv_tabview.c ****         case LV_DIR_LEFT:
 194:../../Middlewares/LVGL/GUI/lvgl/src/widgets/tabview/lv_tabview.c ****         case LV_DIR_RIGHT:
 195:../../Middlewares/LVGL/GUI/lvgl/src/widgets/tabview/lv_tabview.c ****             lv_obj_set_height(cont, LV_PCT(100));
 196:../../Middlewares/LVGL/GUI/lvgl/src/widgets/tabview/lv_tabview.c ****             lv_obj_set_flex_grow(cont, 1);
 197:../../Middlewares/LVGL/GUI/lvgl/src/widgets/tabview/lv_tabview.c ****             lv_obj_set_flex_flow(tab_bar, LV_FLEX_FLOW_COLUMN);
 198:../../Middlewares/LVGL/GUI/lvgl/src/widgets/tabview/lv_tabview.c ****             lv_obj_set_flex_flow(cont, LV_FLEX_FLOW_COLUMN);
 199:../../Middlewares/LVGL/GUI/lvgl/src/widgets/tabview/lv_tabview.c ****             lv_obj_set_scroll_snap_x(cont, LV_SCROLL_SNAP_NONE);
 200:../../Middlewares/LVGL/GUI/lvgl/src/widgets/tabview/lv_tabview.c ****             lv_obj_set_scroll_snap_y(cont, LV_SCROLL_SNAP_CENTER);
 201:../../Middlewares/LVGL/GUI/lvgl/src/widgets/tabview/lv_tabview.c ****             break;
 202:../../Middlewares/LVGL/GUI/lvgl/src/widgets/tabview/lv_tabview.c ****         case LV_DIR_HOR:
 203:../../Middlewares/LVGL/GUI/lvgl/src/widgets/tabview/lv_tabview.c ****         case LV_DIR_VER:
 204:../../Middlewares/LVGL/GUI/lvgl/src/widgets/tabview/lv_tabview.c ****         case LV_DIR_ALL:
 205:../../Middlewares/LVGL/GUI/lvgl/src/widgets/tabview/lv_tabview.c ****         case LV_DIR_NONE:
 206:../../Middlewares/LVGL/GUI/lvgl/src/widgets/tabview/lv_tabview.c ****             break;
 207:../../Middlewares/LVGL/GUI/lvgl/src/widgets/tabview/lv_tabview.c ****     }
 208:../../Middlewares/LVGL/GUI/lvgl/src/widgets/tabview/lv_tabview.c **** 
 209:../../Middlewares/LVGL/GUI/lvgl/src/widgets/tabview/lv_tabview.c ****     bool was_ver = tabview->tab_pos & LV_DIR_VER;
 210:../../Middlewares/LVGL/GUI/lvgl/src/widgets/tabview/lv_tabview.c ****     bool now_ver = dir & LV_DIR_VER;
ARM GAS  C:\Users\28576\AppData\Local\Temp\ccCAaWBI.s 			page 6


 211:../../Middlewares/LVGL/GUI/lvgl/src/widgets/tabview/lv_tabview.c **** 
 212:../../Middlewares/LVGL/GUI/lvgl/src/widgets/tabview/lv_tabview.c ****     if(was_ver != now_ver) {
 213:../../Middlewares/LVGL/GUI/lvgl/src/widgets/tabview/lv_tabview.c ****         int32_t dpi = lv_display_get_dpi(lv_obj_get_display(obj));
 214:../../Middlewares/LVGL/GUI/lvgl/src/widgets/tabview/lv_tabview.c ****         if(now_ver) {
 215:../../Middlewares/LVGL/GUI/lvgl/src/widgets/tabview/lv_tabview.c ****             lv_obj_set_size(tab_bar, lv_pct(100), dpi / 2);
 216:../../Middlewares/LVGL/GUI/lvgl/src/widgets/tabview/lv_tabview.c ****         }
 217:../../Middlewares/LVGL/GUI/lvgl/src/widgets/tabview/lv_tabview.c ****         else {
 218:../../Middlewares/LVGL/GUI/lvgl/src/widgets/tabview/lv_tabview.c ****             lv_obj_set_size(tab_bar, dpi, lv_pct(100));
 219:../../Middlewares/LVGL/GUI/lvgl/src/widgets/tabview/lv_tabview.c ****         }
 220:../../Middlewares/LVGL/GUI/lvgl/src/widgets/tabview/lv_tabview.c ****     }
 221:../../Middlewares/LVGL/GUI/lvgl/src/widgets/tabview/lv_tabview.c ****     tabview->tab_pos = dir;
 222:../../Middlewares/LVGL/GUI/lvgl/src/widgets/tabview/lv_tabview.c **** }
 223:../../Middlewares/LVGL/GUI/lvgl/src/widgets/tabview/lv_tabview.c **** 
 224:../../Middlewares/LVGL/GUI/lvgl/src/widgets/tabview/lv_tabview.c **** void lv_tabview_set_tab_bar_size(lv_obj_t * obj, int32_t size)
 225:../../Middlewares/LVGL/GUI/lvgl/src/widgets/tabview/lv_tabview.c **** {
 226:../../Middlewares/LVGL/GUI/lvgl/src/widgets/tabview/lv_tabview.c ****     LV_ASSERT_OBJ(obj, MY_CLASS);
 227:../../Middlewares/LVGL/GUI/lvgl/src/widgets/tabview/lv_tabview.c ****     lv_tabview_t * tabview = (lv_tabview_t *)obj;
 228:../../Middlewares/LVGL/GUI/lvgl/src/widgets/tabview/lv_tabview.c **** 
 229:../../Middlewares/LVGL/GUI/lvgl/src/widgets/tabview/lv_tabview.c ****     lv_obj_t * tab_bar = lv_tabview_get_tab_bar(obj);
 230:../../Middlewares/LVGL/GUI/lvgl/src/widgets/tabview/lv_tabview.c ****     if(tabview->tab_pos & LV_DIR_VER) {
 231:../../Middlewares/LVGL/GUI/lvgl/src/widgets/tabview/lv_tabview.c ****         lv_obj_set_height(tab_bar, size);
 232:../../Middlewares/LVGL/GUI/lvgl/src/widgets/tabview/lv_tabview.c ****     }
 233:../../Middlewares/LVGL/GUI/lvgl/src/widgets/tabview/lv_tabview.c ****     else {
 234:../../Middlewares/LVGL/GUI/lvgl/src/widgets/tabview/lv_tabview.c ****         lv_obj_set_width(tab_bar, size);
 235:../../Middlewares/LVGL/GUI/lvgl/src/widgets/tabview/lv_tabview.c ****     }
 236:../../Middlewares/LVGL/GUI/lvgl/src/widgets/tabview/lv_tabview.c **** }
 237:../../Middlewares/LVGL/GUI/lvgl/src/widgets/tabview/lv_tabview.c **** 
 238:../../Middlewares/LVGL/GUI/lvgl/src/widgets/tabview/lv_tabview.c **** uint32_t lv_tabview_get_tab_active(lv_obj_t * obj)
 239:../../Middlewares/LVGL/GUI/lvgl/src/widgets/tabview/lv_tabview.c **** {
  79              		.loc 1 239 1 is_stmt 1 view -0
  80              		.cfi_startproc
  81              		@ args = 0, pretend = 0, frame = 0
  82              		@ frame_needed = 0, uses_anonymous_args = 0
  83              		@ link register save eliminated.
 240:../../Middlewares/LVGL/GUI/lvgl/src/widgets/tabview/lv_tabview.c ****     LV_ASSERT_OBJ(obj, MY_CLASS);
  84              		.loc 1 240 5 view .LVU14
  85              		.loc 1 240 5 view .LVU15
  86 0000 08B1     		cbz	r0, .L7
  87              		.loc 1 240 5 view .LVU16
  88              		.loc 1 240 33 view .LVU17
 241:../../Middlewares/LVGL/GUI/lvgl/src/widgets/tabview/lv_tabview.c ****     lv_tabview_t * tabview = (lv_tabview_t *)obj;
  89              		.loc 1 241 5 view .LVU18
  90              	.LVL7:
 242:../../Middlewares/LVGL/GUI/lvgl/src/widgets/tabview/lv_tabview.c ****     return tabview->tab_cur;
  91              		.loc 1 242 5 view .LVU19
 243:../../Middlewares/LVGL/GUI/lvgl/src/widgets/tabview/lv_tabview.c **** }
  92              		.loc 1 243 1 is_stmt 0 view .LVU20
  93 0002 C06A     		ldr	r0, [r0, #44]
  94              	.LVL8:
  95              		.loc 1 243 1 view .LVU21
  96 0004 7047     		bx	lr
  97              	.LVL9:
  98              	.L7:
 240:../../Middlewares/LVGL/GUI/lvgl/src/widgets/tabview/lv_tabview.c ****     lv_tabview_t * tabview = (lv_tabview_t *)obj;
  99              		.loc 1 240 5 is_stmt 1 view .LVU22
 240:../../Middlewares/LVGL/GUI/lvgl/src/widgets/tabview/lv_tabview.c ****     lv_tabview_t * tabview = (lv_tabview_t *)obj;
 100              		.loc 1 240 5 view .LVU23
ARM GAS  C:\Users\28576\AppData\Local\Temp\ccCAaWBI.s 			page 7


 240:../../Middlewares/LVGL/GUI/lvgl/src/widgets/tabview/lv_tabview.c ****     lv_tabview_t * tabview = (lv_tabview_t *)obj;
 101              		.loc 1 240 5 view .LVU24
 240:../../Middlewares/LVGL/GUI/lvgl/src/widgets/tabview/lv_tabview.c ****     lv_tabview_t * tabview = (lv_tabview_t *)obj;
 102              		.loc 1 240 5 view .LVU25
 240:../../Middlewares/LVGL/GUI/lvgl/src/widgets/tabview/lv_tabview.c ****     lv_tabview_t * tabview = (lv_tabview_t *)obj;
 103              		.loc 1 240 5 view .LVU26
 104 0006 FEE7     		b	.L7
 105              		.cfi_endproc
 106              	.LFE202:
 108              		.section	.text.lv_tabview_get_content,"ax",%progbits
 109              		.align	1
 110              		.global	lv_tabview_get_content
 111              		.syntax unified
 112              		.thumb
 113              		.thumb_func
 115              	lv_tabview_get_content:
 116              	.LVL10:
 117              	.LFB204:
 244:../../Middlewares/LVGL/GUI/lvgl/src/widgets/tabview/lv_tabview.c **** 
 245:../../Middlewares/LVGL/GUI/lvgl/src/widgets/tabview/lv_tabview.c **** uint32_t lv_tabview_get_tab_count(lv_obj_t * obj)
 246:../../Middlewares/LVGL/GUI/lvgl/src/widgets/tabview/lv_tabview.c **** {
 247:../../Middlewares/LVGL/GUI/lvgl/src/widgets/tabview/lv_tabview.c ****     LV_ASSERT_OBJ(obj, MY_CLASS);
 248:../../Middlewares/LVGL/GUI/lvgl/src/widgets/tabview/lv_tabview.c ****     lv_obj_t * tab_bar = lv_tabview_get_tab_bar(obj);
 249:../../Middlewares/LVGL/GUI/lvgl/src/widgets/tabview/lv_tabview.c ****     return lv_obj_get_child_count_by_type(tab_bar, &lv_button_class);
 250:../../Middlewares/LVGL/GUI/lvgl/src/widgets/tabview/lv_tabview.c **** }
 251:../../Middlewares/LVGL/GUI/lvgl/src/widgets/tabview/lv_tabview.c **** 
 252:../../Middlewares/LVGL/GUI/lvgl/src/widgets/tabview/lv_tabview.c **** lv_obj_t * lv_tabview_get_content(lv_obj_t * tv)
 253:../../Middlewares/LVGL/GUI/lvgl/src/widgets/tabview/lv_tabview.c **** {
 118              		.loc 1 253 1 view -0
 119              		.cfi_startproc
 120              		@ args = 0, pretend = 0, frame = 0
 121              		@ frame_needed = 0, uses_anonymous_args = 0
 122              		.loc 1 253 1 is_stmt 0 view .LVU28
 123 0000 08B5     		push	{r3, lr}
 124              	.LCFI1:
 125              		.cfi_def_cfa_offset 8
 126              		.cfi_offset 3, -8
 127              		.cfi_offset 14, -4
 254:../../Middlewares/LVGL/GUI/lvgl/src/widgets/tabview/lv_tabview.c ****     return lv_obj_get_child(tv, 1);
 128              		.loc 1 254 5 is_stmt 1 view .LVU29
 129              		.loc 1 254 12 is_stmt 0 view .LVU30
 130 0002 0121     		movs	r1, #1
 131 0004 FFF7FEFF 		bl	lv_obj_get_child
 132              	.LVL11:
 255:../../Middlewares/LVGL/GUI/lvgl/src/widgets/tabview/lv_tabview.c **** }
 133              		.loc 1 255 1 view .LVU31
 134 0008 08BD     		pop	{r3, pc}
 135              		.cfi_endproc
 136              	.LFE204:
 138              		.section	.text.lv_tabview_get_tab_bar,"ax",%progbits
 139              		.align	1
 140              		.global	lv_tabview_get_tab_bar
 141              		.syntax unified
 142              		.thumb
 143              		.thumb_func
 145              	lv_tabview_get_tab_bar:
 146              	.LVL12:
ARM GAS  C:\Users\28576\AppData\Local\Temp\ccCAaWBI.s 			page 8


 147              	.LFB205:
 256:../../Middlewares/LVGL/GUI/lvgl/src/widgets/tabview/lv_tabview.c **** 
 257:../../Middlewares/LVGL/GUI/lvgl/src/widgets/tabview/lv_tabview.c **** lv_obj_t * lv_tabview_get_tab_bar(lv_obj_t * tv)
 258:../../Middlewares/LVGL/GUI/lvgl/src/widgets/tabview/lv_tabview.c **** {
 148              		.loc 1 258 1 is_stmt 1 view -0
 149              		.cfi_startproc
 150              		@ args = 0, pretend = 0, frame = 0
 151              		@ frame_needed = 0, uses_anonymous_args = 0
 152              		.loc 1 258 1 is_stmt 0 view .LVU33
 153 0000 08B5     		push	{r3, lr}
 154              	.LCFI2:
 155              		.cfi_def_cfa_offset 8
 156              		.cfi_offset 3, -8
 157              		.cfi_offset 14, -4
 259:../../Middlewares/LVGL/GUI/lvgl/src/widgets/tabview/lv_tabview.c ****     return lv_obj_get_child(tv, 0);
 158              		.loc 1 259 5 is_stmt 1 view .LVU34
 159              		.loc 1 259 12 is_stmt 0 view .LVU35
 160 0002 0021     		movs	r1, #0
 161 0004 FFF7FEFF 		bl	lv_obj_get_child
 162              	.LVL13:
 260:../../Middlewares/LVGL/GUI/lvgl/src/widgets/tabview/lv_tabview.c **** }
 163              		.loc 1 260 1 view .LVU36
 164 0008 08BD     		pop	{r3, pc}
 165              		.cfi_endproc
 166              	.LFE205:
 168              		.section	.text.lv_tabview_rename_tab,"ax",%progbits
 169              		.align	1
 170              		.global	lv_tabview_rename_tab
 171              		.syntax unified
 172              		.thumb
 173              		.thumb_func
 175              	lv_tabview_rename_tab:
 176              	.LVL14:
 177              	.LFB198:
 101:../../Middlewares/LVGL/GUI/lvgl/src/widgets/tabview/lv_tabview.c ****     LV_ASSERT_OBJ(obj, MY_CLASS);
 178              		.loc 1 101 1 is_stmt 1 view -0
 179              		.cfi_startproc
 180              		@ args = 0, pretend = 0, frame = 0
 181              		@ frame_needed = 0, uses_anonymous_args = 0
 102:../../Middlewares/LVGL/GUI/lvgl/src/widgets/tabview/lv_tabview.c **** 
 182              		.loc 1 102 5 view .LVU38
 102:../../Middlewares/LVGL/GUI/lvgl/src/widgets/tabview/lv_tabview.c **** 
 183              		.loc 1 102 5 view .LVU39
 184 0000 80B1     		cbz	r0, .L14
 101:../../Middlewares/LVGL/GUI/lvgl/src/widgets/tabview/lv_tabview.c ****     LV_ASSERT_OBJ(obj, MY_CLASS);
 185              		.loc 1 101 1 is_stmt 0 view .LVU40
 186 0002 38B5     		push	{r3, r4, r5, lr}
 187              	.LCFI3:
 188              		.cfi_def_cfa_offset 16
 189              		.cfi_offset 3, -16
 190              		.cfi_offset 4, -12
 191              		.cfi_offset 5, -8
 192              		.cfi_offset 14, -4
 193 0004 0C46     		mov	r4, r1
 194 0006 1546     		mov	r5, r2
 102:../../Middlewares/LVGL/GUI/lvgl/src/widgets/tabview/lv_tabview.c **** 
 195              		.loc 1 102 5 is_stmt 1 view .LVU41
ARM GAS  C:\Users\28576\AppData\Local\Temp\ccCAaWBI.s 			page 9


 102:../../Middlewares/LVGL/GUI/lvgl/src/widgets/tabview/lv_tabview.c **** 
 196              		.loc 1 102 33 view .LVU42
 104:../../Middlewares/LVGL/GUI/lvgl/src/widgets/tabview/lv_tabview.c ****     lv_obj_t * button = lv_obj_get_child_by_type(tab_bar, idx, &lv_button_class);
 197              		.loc 1 104 5 view .LVU43
 104:../../Middlewares/LVGL/GUI/lvgl/src/widgets/tabview/lv_tabview.c ****     lv_obj_t * button = lv_obj_get_child_by_type(tab_bar, idx, &lv_button_class);
 198              		.loc 1 104 26 is_stmt 0 view .LVU44
 199 0008 FFF7FEFF 		bl	lv_tabview_get_tab_bar
 200              	.LVL15:
 105:../../Middlewares/LVGL/GUI/lvgl/src/widgets/tabview/lv_tabview.c ****     lv_obj_t * label = lv_obj_get_child_by_type(button, 0, &lv_label_class);
 201              		.loc 1 105 5 is_stmt 1 view .LVU45
 105:../../Middlewares/LVGL/GUI/lvgl/src/widgets/tabview/lv_tabview.c ****     lv_obj_t * label = lv_obj_get_child_by_type(button, 0, &lv_label_class);
 202              		.loc 1 105 25 is_stmt 0 view .LVU46
 203 000c 064A     		ldr	r2, .L17
 204 000e 2146     		mov	r1, r4
 205 0010 FFF7FEFF 		bl	lv_obj_get_child_by_type
 206              	.LVL16:
 106:../../Middlewares/LVGL/GUI/lvgl/src/widgets/tabview/lv_tabview.c ****     lv_label_set_text(label, new_name);
 207              		.loc 1 106 5 is_stmt 1 view .LVU47
 106:../../Middlewares/LVGL/GUI/lvgl/src/widgets/tabview/lv_tabview.c ****     lv_label_set_text(label, new_name);
 208              		.loc 1 106 24 is_stmt 0 view .LVU48
 209 0014 054A     		ldr	r2, .L17+4
 210 0016 0021     		movs	r1, #0
 211 0018 FFF7FEFF 		bl	lv_obj_get_child_by_type
 212              	.LVL17:
 107:../../Middlewares/LVGL/GUI/lvgl/src/widgets/tabview/lv_tabview.c **** }
 213              		.loc 1 107 5 is_stmt 1 view .LVU49
 214 001c 2946     		mov	r1, r5
 215 001e FFF7FEFF 		bl	lv_label_set_text
 216              	.LVL18:
 108:../../Middlewares/LVGL/GUI/lvgl/src/widgets/tabview/lv_tabview.c **** 
 217              		.loc 1 108 1 is_stmt 0 view .LVU50
 218 0022 38BD     		pop	{r3, r4, r5, pc}
 219              	.LVL19:
 220              	.L14:
 221              	.LCFI4:
 222              		.cfi_def_cfa_offset 0
 223              		.cfi_restore 3
 224              		.cfi_restore 4
 225              		.cfi_restore 5
 226              		.cfi_restore 14
 102:../../Middlewares/LVGL/GUI/lvgl/src/widgets/tabview/lv_tabview.c **** 
 227              		.loc 1 102 5 is_stmt 1 view .LVU51
 102:../../Middlewares/LVGL/GUI/lvgl/src/widgets/tabview/lv_tabview.c **** 
 228              		.loc 1 102 5 view .LVU52
 102:../../Middlewares/LVGL/GUI/lvgl/src/widgets/tabview/lv_tabview.c **** 
 229              		.loc 1 102 5 view .LVU53
 102:../../Middlewares/LVGL/GUI/lvgl/src/widgets/tabview/lv_tabview.c **** 
 230              		.loc 1 102 5 view .LVU54
 102:../../Middlewares/LVGL/GUI/lvgl/src/widgets/tabview/lv_tabview.c **** 
 231              		.loc 1 102 5 view .LVU55
 232 0024 FEE7     		b	.L14
 233              	.L18:
 234 0026 00BF     		.align	2
 235              	.L17:
 236 0028 00000000 		.word	lv_button_class
 237 002c 00000000 		.word	lv_label_class
 238              		.cfi_endproc
ARM GAS  C:\Users\28576\AppData\Local\Temp\ccCAaWBI.s 			page 10


 239              	.LFE198:
 241              		.section	.text.lv_tabview_set_tab_bar_position,"ax",%progbits
 242              		.align	1
 243              		.global	lv_tabview_set_tab_bar_position
 244              		.syntax unified
 245              		.thumb
 246              		.thumb_func
 248              	lv_tabview_set_tab_bar_position:
 249              	.LVL20:
 250              	.LFB200:
 156:../../Middlewares/LVGL/GUI/lvgl/src/widgets/tabview/lv_tabview.c ****     LV_ASSERT_OBJ(obj, MY_CLASS);
 251              		.loc 1 156 1 view -0
 252              		.cfi_startproc
 253              		@ args = 0, pretend = 0, frame = 0
 254              		@ frame_needed = 0, uses_anonymous_args = 0
 157:../../Middlewares/LVGL/GUI/lvgl/src/widgets/tabview/lv_tabview.c ****     lv_tabview_t * tabview = (lv_tabview_t *)obj;
 255              		.loc 1 157 5 view .LVU57
 157:../../Middlewares/LVGL/GUI/lvgl/src/widgets/tabview/lv_tabview.c ****     lv_tabview_t * tabview = (lv_tabview_t *)obj;
 256              		.loc 1 157 5 view .LVU58
 257 0000 70B1     		cbz	r0, .L21
 156:../../Middlewares/LVGL/GUI/lvgl/src/widgets/tabview/lv_tabview.c ****     LV_ASSERT_OBJ(obj, MY_CLASS);
 258              		.loc 1 156 1 is_stmt 0 view .LVU59
 259 0002 2DE9F041 		push	{r4, r5, r6, r7, r8, lr}
 260              	.LCFI5:
 261              		.cfi_def_cfa_offset 24
 262              		.cfi_offset 4, -24
 263              		.cfi_offset 5, -20
 264              		.cfi_offset 6, -16
 265              		.cfi_offset 7, -12
 266              		.cfi_offset 8, -8
 267              		.cfi_offset 14, -4
 268 0006 0C46     		mov	r4, r1
 269 0008 0546     		mov	r5, r0
 157:../../Middlewares/LVGL/GUI/lvgl/src/widgets/tabview/lv_tabview.c ****     lv_tabview_t * tabview = (lv_tabview_t *)obj;
 270              		.loc 1 157 5 is_stmt 1 view .LVU60
 157:../../Middlewares/LVGL/GUI/lvgl/src/widgets/tabview/lv_tabview.c ****     lv_tabview_t * tabview = (lv_tabview_t *)obj;
 271              		.loc 1 157 33 view .LVU61
 158:../../Middlewares/LVGL/GUI/lvgl/src/widgets/tabview/lv_tabview.c **** 
 272              		.loc 1 158 5 view .LVU62
 273              	.LVL21:
 160:../../Middlewares/LVGL/GUI/lvgl/src/widgets/tabview/lv_tabview.c ****         case LV_DIR_TOP:
 274              		.loc 1 160 5 view .LVU63
 275 000a 0429     		cmp	r1, #4
 276 000c 0FD0     		beq	.L22
 277 000e 08D8     		bhi	.L23
 278 0010 0129     		cmp	r1, #1
 279 0012 36D0     		beq	.L24
 280 0014 0229     		cmp	r1, #2
 281 0016 0DD1     		bne	.L26
 171:../../Middlewares/LVGL/GUI/lvgl/src/widgets/tabview/lv_tabview.c ****             break;
 282              		.loc 1 171 13 view .LVU64
 283 0018 0821     		movs	r1, #8
 284              	.LVL22:
 171:../../Middlewares/LVGL/GUI/lvgl/src/widgets/tabview/lv_tabview.c ****             break;
 285              		.loc 1 171 13 is_stmt 0 view .LVU65
 286 001a FFF7FEFF 		bl	lv_obj_set_flex_flow
 287              	.LVL23:
ARM GAS  C:\Users\28576\AppData\Local\Temp\ccCAaWBI.s 			page 11


 172:../../Middlewares/LVGL/GUI/lvgl/src/widgets/tabview/lv_tabview.c ****         case LV_DIR_HOR:
 288              		.loc 1 172 13 is_stmt 1 view .LVU66
 289 001e 09E0     		b	.L26
 290              	.LVL24:
 291              	.L21:
 292              	.LCFI6:
 293              		.cfi_def_cfa_offset 0
 294              		.cfi_restore 4
 295              		.cfi_restore 5
 296              		.cfi_restore 6
 297              		.cfi_restore 7
 298              		.cfi_restore 8
 299              		.cfi_restore 14
 157:../../Middlewares/LVGL/GUI/lvgl/src/widgets/tabview/lv_tabview.c ****     lv_tabview_t * tabview = (lv_tabview_t *)obj;
 300              		.loc 1 157 5 view .LVU67
 157:../../Middlewares/LVGL/GUI/lvgl/src/widgets/tabview/lv_tabview.c ****     lv_tabview_t * tabview = (lv_tabview_t *)obj;
 301              		.loc 1 157 5 view .LVU68
 157:../../Middlewares/LVGL/GUI/lvgl/src/widgets/tabview/lv_tabview.c ****     lv_tabview_t * tabview = (lv_tabview_t *)obj;
 302              		.loc 1 157 5 view .LVU69
 157:../../Middlewares/LVGL/GUI/lvgl/src/widgets/tabview/lv_tabview.c ****     lv_tabview_t * tabview = (lv_tabview_t *)obj;
 303              		.loc 1 157 5 view .LVU70
 157:../../Middlewares/LVGL/GUI/lvgl/src/widgets/tabview/lv_tabview.c ****     lv_tabview_t * tabview = (lv_tabview_t *)obj;
 304              		.loc 1 157 5 view .LVU71
 305 0020 FEE7     		b	.L21
 306              	.LVL25:
 307              	.L23:
 308              	.LCFI7:
 309              		.cfi_def_cfa_offset 24
 310              		.cfi_offset 4, -24
 311              		.cfi_offset 5, -20
 312              		.cfi_offset 6, -16
 313              		.cfi_offset 7, -12
 314              		.cfi_offset 8, -8
 315              		.cfi_offset 14, -4
 160:../../Middlewares/LVGL/GUI/lvgl/src/widgets/tabview/lv_tabview.c ****         case LV_DIR_TOP:
 316              		.loc 1 160 5 is_stmt 0 view .LVU72
 317 0022 0829     		cmp	r1, #8
 318 0024 06D1     		bne	.L26
 165:../../Middlewares/LVGL/GUI/lvgl/src/widgets/tabview/lv_tabview.c ****             break;
 319              		.loc 1 165 13 is_stmt 1 view .LVU73
 320 0026 0921     		movs	r1, #9
 321              	.LVL26:
 165:../../Middlewares/LVGL/GUI/lvgl/src/widgets/tabview/lv_tabview.c ****             break;
 322              		.loc 1 165 13 is_stmt 0 view .LVU74
 323 0028 FFF7FEFF 		bl	lv_obj_set_flex_flow
 324              	.LVL27:
 166:../../Middlewares/LVGL/GUI/lvgl/src/widgets/tabview/lv_tabview.c ****         case LV_DIR_LEFT:
 325              		.loc 1 166 13 is_stmt 1 view .LVU75
 326 002c 02E0     		b	.L26
 327              	.LVL28:
 328              	.L22:
 162:../../Middlewares/LVGL/GUI/lvgl/src/widgets/tabview/lv_tabview.c ****             break;
 329              		.loc 1 162 13 view .LVU76
 330 002e 0121     		movs	r1, #1
 331              	.LVL29:
 162:../../Middlewares/LVGL/GUI/lvgl/src/widgets/tabview/lv_tabview.c ****             break;
 332              		.loc 1 162 13 is_stmt 0 view .LVU77
ARM GAS  C:\Users\28576\AppData\Local\Temp\ccCAaWBI.s 			page 12


 333 0030 FFF7FEFF 		bl	lv_obj_set_flex_flow
 334              	.LVL30:
 163:../../Middlewares/LVGL/GUI/lvgl/src/widgets/tabview/lv_tabview.c ****         case LV_DIR_BOTTOM:
 335              		.loc 1 163 13 is_stmt 1 view .LVU78
 336              	.L26:
 180:../../Middlewares/LVGL/GUI/lvgl/src/widgets/tabview/lv_tabview.c ****     lv_obj_t * cont = lv_tabview_get_content(obj);
 337              		.loc 1 180 5 view .LVU79
 180:../../Middlewares/LVGL/GUI/lvgl/src/widgets/tabview/lv_tabview.c ****     lv_obj_t * cont = lv_tabview_get_content(obj);
 338              		.loc 1 180 26 is_stmt 0 view .LVU80
 339 0034 2846     		mov	r0, r5
 340 0036 FFF7FEFF 		bl	lv_tabview_get_tab_bar
 341              	.LVL31:
 342 003a 8046     		mov	r8, r0
 343              	.LVL32:
 181:../../Middlewares/LVGL/GUI/lvgl/src/widgets/tabview/lv_tabview.c **** 
 344              		.loc 1 181 5 is_stmt 1 view .LVU81
 181:../../Middlewares/LVGL/GUI/lvgl/src/widgets/tabview/lv_tabview.c **** 
 345              		.loc 1 181 23 is_stmt 0 view .LVU82
 346 003c 2846     		mov	r0, r5
 347              	.LVL33:
 181:../../Middlewares/LVGL/GUI/lvgl/src/widgets/tabview/lv_tabview.c **** 
 348              		.loc 1 181 23 view .LVU83
 349 003e FFF7FEFF 		bl	lv_tabview_get_content
 350              	.LVL34:
 351 0042 0646     		mov	r6, r0
 352              	.LVL35:
 183:../../Middlewares/LVGL/GUI/lvgl/src/widgets/tabview/lv_tabview.c ****         case LV_DIR_TOP:
 353              		.loc 1 183 5 is_stmt 1 view .LVU84
 354 0044 042C     		cmp	r4, #4
 355 0046 22D0     		beq	.L28
 356 0048 1FD8     		bhi	.L29
 357 004a 631E     		subs	r3, r4, #1
 358 004c DBB2     		uxtb	r3, r3
 359 004e 012B     		cmp	r3, #1
 360 0050 35D8     		bhi	.L30
 195:../../Middlewares/LVGL/GUI/lvgl/src/widgets/tabview/lv_tabview.c ****             lv_obj_set_flex_grow(cont, 1);
 361              		.loc 1 195 13 view .LVU85
 362 0052 3349     		ldr	r1, .L40
 363 0054 FFF7FEFF 		bl	lv_obj_set_height
 364              	.LVL36:
 196:../../Middlewares/LVGL/GUI/lvgl/src/widgets/tabview/lv_tabview.c ****             lv_obj_set_flex_flow(tab_bar, LV_FLEX_FLOW_COLUMN);
 365              		.loc 1 196 13 view .LVU86
 366 0058 0121     		movs	r1, #1
 367 005a 3046     		mov	r0, r6
 368 005c FFF7FEFF 		bl	lv_obj_set_flex_grow
 369              	.LVL37:
 197:../../Middlewares/LVGL/GUI/lvgl/src/widgets/tabview/lv_tabview.c ****             lv_obj_set_flex_flow(cont, LV_FLEX_FLOW_COLUMN);
 370              		.loc 1 197 13 view .LVU87
 371 0060 0121     		movs	r1, #1
 372 0062 4046     		mov	r0, r8
 373 0064 FFF7FEFF 		bl	lv_obj_set_flex_flow
 374              	.LVL38:
 198:../../Middlewares/LVGL/GUI/lvgl/src/widgets/tabview/lv_tabview.c ****             lv_obj_set_scroll_snap_x(cont, LV_SCROLL_SNAP_NONE);
 375              		.loc 1 198 13 view .LVU88
 376 0068 0121     		movs	r1, #1
 377 006a 3046     		mov	r0, r6
 378 006c FFF7FEFF 		bl	lv_obj_set_flex_flow
ARM GAS  C:\Users\28576\AppData\Local\Temp\ccCAaWBI.s 			page 13


 379              	.LVL39:
 199:../../Middlewares/LVGL/GUI/lvgl/src/widgets/tabview/lv_tabview.c ****             lv_obj_set_scroll_snap_y(cont, LV_SCROLL_SNAP_CENTER);
 380              		.loc 1 199 13 view .LVU89
 381 0070 0021     		movs	r1, #0
 382 0072 3046     		mov	r0, r6
 383 0074 FFF7FEFF 		bl	lv_obj_set_scroll_snap_x
 384              	.LVL40:
 200:../../Middlewares/LVGL/GUI/lvgl/src/widgets/tabview/lv_tabview.c ****             break;
 385              		.loc 1 200 13 view .LVU90
 386 0078 0321     		movs	r1, #3
 387 007a 3046     		mov	r0, r6
 388 007c FFF7FEFF 		bl	lv_obj_set_scroll_snap_y
 389              	.LVL41:
 201:../../Middlewares/LVGL/GUI/lvgl/src/widgets/tabview/lv_tabview.c ****         case LV_DIR_HOR:
 390              		.loc 1 201 13 view .LVU91
 391 0080 1DE0     		b	.L30
 392              	.LVL42:
 393              	.L24:
 168:../../Middlewares/LVGL/GUI/lvgl/src/widgets/tabview/lv_tabview.c ****             break;
 394              		.loc 1 168 13 view .LVU92
 395 0082 0021     		movs	r1, #0
 396              	.LVL43:
 168:../../Middlewares/LVGL/GUI/lvgl/src/widgets/tabview/lv_tabview.c ****             break;
 397              		.loc 1 168 13 is_stmt 0 view .LVU93
 398 0084 FFF7FEFF 		bl	lv_obj_set_flex_flow
 399              	.LVL44:
 169:../../Middlewares/LVGL/GUI/lvgl/src/widgets/tabview/lv_tabview.c ****         case LV_DIR_RIGHT:
 400              		.loc 1 169 13 is_stmt 1 view .LVU94
 401 0088 D4E7     		b	.L26
 402              	.LVL45:
 403              	.L29:
 183:../../Middlewares/LVGL/GUI/lvgl/src/widgets/tabview/lv_tabview.c ****         case LV_DIR_TOP:
 404              		.loc 1 183 5 is_stmt 0 view .LVU95
 405 008a 082C     		cmp	r4, #8
 406 008c 17D1     		bne	.L30
 407              	.L28:
 186:../../Middlewares/LVGL/GUI/lvgl/src/widgets/tabview/lv_tabview.c ****             lv_obj_set_flex_grow(cont, 1);
 408              		.loc 1 186 13 is_stmt 1 view .LVU96
 409 008e 2449     		ldr	r1, .L40
 410 0090 3046     		mov	r0, r6
 411              	.LVL46:
 186:../../Middlewares/LVGL/GUI/lvgl/src/widgets/tabview/lv_tabview.c ****             lv_obj_set_flex_grow(cont, 1);
 412              		.loc 1 186 13 is_stmt 0 view .LVU97
 413 0092 FFF7FEFF 		bl	lv_obj_set_width
 414              	.LVL47:
 187:../../Middlewares/LVGL/GUI/lvgl/src/widgets/tabview/lv_tabview.c ****             lv_obj_set_flex_flow(tab_bar, LV_FLEX_FLOW_ROW);
 415              		.loc 1 187 13 is_stmt 1 view .LVU98
 416 0096 0121     		movs	r1, #1
 417 0098 3046     		mov	r0, r6
 418 009a FFF7FEFF 		bl	lv_obj_set_flex_grow
 419              	.LVL48:
 188:../../Middlewares/LVGL/GUI/lvgl/src/widgets/tabview/lv_tabview.c ****             lv_obj_set_flex_flow(cont, LV_FLEX_FLOW_ROW);
 420              		.loc 1 188 13 view .LVU99
 421 009e 0021     		movs	r1, #0
 422 00a0 4046     		mov	r0, r8
 423 00a2 FFF7FEFF 		bl	lv_obj_set_flex_flow
 424              	.LVL49:
ARM GAS  C:\Users\28576\AppData\Local\Temp\ccCAaWBI.s 			page 14


 189:../../Middlewares/LVGL/GUI/lvgl/src/widgets/tabview/lv_tabview.c ****             lv_obj_set_scroll_snap_x(cont, LV_SCROLL_SNAP_CENTER);
 425              		.loc 1 189 13 view .LVU100
 426 00a6 0021     		movs	r1, #0
 427 00a8 3046     		mov	r0, r6
 428 00aa FFF7FEFF 		bl	lv_obj_set_flex_flow
 429              	.LVL50:
 190:../../Middlewares/LVGL/GUI/lvgl/src/widgets/tabview/lv_tabview.c ****             lv_obj_set_scroll_snap_y(cont, LV_SCROLL_SNAP_NONE);
 430              		.loc 1 190 13 view .LVU101
 431 00ae 0321     		movs	r1, #3
 432 00b0 3046     		mov	r0, r6
 433 00b2 FFF7FEFF 		bl	lv_obj_set_scroll_snap_x
 434              	.LVL51:
 191:../../Middlewares/LVGL/GUI/lvgl/src/widgets/tabview/lv_tabview.c ****             break;
 435              		.loc 1 191 13 view .LVU102
 436 00b6 0021     		movs	r1, #0
 437 00b8 3046     		mov	r0, r6
 438 00ba FFF7FEFF 		bl	lv_obj_set_scroll_snap_y
 439              	.LVL52:
 192:../../Middlewares/LVGL/GUI/lvgl/src/widgets/tabview/lv_tabview.c ****         case LV_DIR_LEFT:
 440              		.loc 1 192 13 view .LVU103
 441              	.L30:
 209:../../Middlewares/LVGL/GUI/lvgl/src/widgets/tabview/lv_tabview.c ****     bool now_ver = dir & LV_DIR_VER;
 442              		.loc 1 209 5 view .LVU104
 209:../../Middlewares/LVGL/GUI/lvgl/src/widgets/tabview/lv_tabview.c ****     bool now_ver = dir & LV_DIR_VER;
 443              		.loc 1 209 27 is_stmt 0 view .LVU105
 444 00be 95F83030 		ldrb	r3, [r5, #48]	@ zero_extendqisi2
 209:../../Middlewares/LVGL/GUI/lvgl/src/widgets/tabview/lv_tabview.c ****     bool now_ver = dir & LV_DIR_VER;
 445              		.loc 1 209 10 view .LVU106
 446 00c2 13F00C0F 		tst	r3, #12
 447 00c6 14BF     		ite	ne
 448 00c8 0122     		movne	r2, #1
 449 00ca 0022     		moveq	r2, #0
 450              	.LVL53:
 210:../../Middlewares/LVGL/GUI/lvgl/src/widgets/tabview/lv_tabview.c **** 
 451              		.loc 1 210 5 is_stmt 1 view .LVU107
 210:../../Middlewares/LVGL/GUI/lvgl/src/widgets/tabview/lv_tabview.c **** 
 452              		.loc 1 210 10 is_stmt 0 view .LVU108
 453 00cc 14F00C06 		ands	r6, r4, #12
 454              	.LVL54:
 210:../../Middlewares/LVGL/GUI/lvgl/src/widgets/tabview/lv_tabview.c **** 
 455              		.loc 1 210 10 view .LVU109
 456 00d0 14BF     		ite	ne
 457 00d2 0123     		movne	r3, #1
 458 00d4 0023     		moveq	r3, #0
 459              	.LVL55:
 212:../../Middlewares/LVGL/GUI/lvgl/src/widgets/tabview/lv_tabview.c ****         int32_t dpi = lv_display_get_dpi(lv_obj_get_display(obj));
 460              		.loc 1 212 5 is_stmt 1 view .LVU110
 212:../../Middlewares/LVGL/GUI/lvgl/src/widgets/tabview/lv_tabview.c ****         int32_t dpi = lv_display_get_dpi(lv_obj_get_display(obj));
 461              		.loc 1 212 7 is_stmt 0 view .LVU111
 462 00d6 9A42     		cmp	r2, r3
 463 00d8 03D1     		bne	.L38
 464              	.LVL56:
 465              	.L32:
 221:../../Middlewares/LVGL/GUI/lvgl/src/widgets/tabview/lv_tabview.c **** }
 466              		.loc 1 221 5 is_stmt 1 view .LVU112
 221:../../Middlewares/LVGL/GUI/lvgl/src/widgets/tabview/lv_tabview.c **** }
 467              		.loc 1 221 22 is_stmt 0 view .LVU113
ARM GAS  C:\Users\28576\AppData\Local\Temp\ccCAaWBI.s 			page 15


 468 00da 85F83040 		strb	r4, [r5, #48]
 222:../../Middlewares/LVGL/GUI/lvgl/src/widgets/tabview/lv_tabview.c **** 
 469              		.loc 1 222 1 view .LVU114
 470 00de BDE8F081 		pop	{r4, r5, r6, r7, r8, pc}
 471              	.LVL57:
 472              	.L38:
 473              	.LBB16:
 213:../../Middlewares/LVGL/GUI/lvgl/src/widgets/tabview/lv_tabview.c ****         if(now_ver) {
 474              		.loc 1 213 9 is_stmt 1 view .LVU115
 213:../../Middlewares/LVGL/GUI/lvgl/src/widgets/tabview/lv_tabview.c ****         if(now_ver) {
 475              		.loc 1 213 42 is_stmt 0 view .LVU116
 476 00e2 2846     		mov	r0, r5
 477 00e4 FFF7FEFF 		bl	lv_obj_get_display
 478              	.LVL58:
 213:../../Middlewares/LVGL/GUI/lvgl/src/widgets/tabview/lv_tabview.c ****         if(now_ver) {
 479              		.loc 1 213 23 discriminator 1 view .LVU117
 480 00e8 FFF7FEFF 		bl	lv_display_get_dpi
 481              	.LVL59:
 482 00ec 0746     		mov	r7, r0
 483              	.LVL60:
 214:../../Middlewares/LVGL/GUI/lvgl/src/widgets/tabview/lv_tabview.c ****             lv_obj_set_size(tab_bar, lv_pct(100), dpi / 2);
 484              		.loc 1 214 9 is_stmt 1 view .LVU118
 214:../../Middlewares/LVGL/GUI/lvgl/src/widgets/tabview/lv_tabview.c ****             lv_obj_set_size(tab_bar, lv_pct(100), dpi / 2);
 485              		.loc 1 214 11 is_stmt 0 view .LVU119
 486 00ee 6EB1     		cbz	r6, .L33
 215:../../Middlewares/LVGL/GUI/lvgl/src/widgets/tabview/lv_tabview.c ****         }
 487              		.loc 1 215 13 is_stmt 1 view .LVU120
 488 00f0 6420     		movs	r0, #100
 489              	.LVL61:
 215:../../Middlewares/LVGL/GUI/lvgl/src/widgets/tabview/lv_tabview.c ****         }
 490              		.loc 1 215 13 is_stmt 0 view .LVU121
 491 00f2 FFF7FEFF 		bl	lv_pct
 492              	.LVL62:
 493 00f6 0146     		mov	r1, r0
 215:../../Middlewares/LVGL/GUI/lvgl/src/widgets/tabview/lv_tabview.c ****         }
 494              		.loc 1 215 55 discriminator 1 view .LVU122
 495 00f8 3A46     		mov	r2, r7
 496 00fa 002F     		cmp	r7, #0
 497 00fc 04DB     		blt	.L39
 498              	.L34:
 215:../../Middlewares/LVGL/GUI/lvgl/src/widgets/tabview/lv_tabview.c ****         }
 499              		.loc 1 215 13 discriminator 1 view .LVU123
 500 00fe 5210     		asrs	r2, r2, #1
 501 0100 4046     		mov	r0, r8
 502 0102 FFF7FEFF 		bl	lv_obj_set_size
 503              	.LVL63:
 504 0106 E8E7     		b	.L32
 505              	.LVL64:
 506              	.L39:
 215:../../Middlewares/LVGL/GUI/lvgl/src/widgets/tabview/lv_tabview.c ****         }
 507              		.loc 1 215 55 discriminator 1 view .LVU124
 508 0108 0132     		adds	r2, r2, #1
 509              	.LVL65:
 215:../../Middlewares/LVGL/GUI/lvgl/src/widgets/tabview/lv_tabview.c ****         }
 510              		.loc 1 215 55 discriminator 1 view .LVU125
 511 010a F8E7     		b	.L34
 512              	.LVL66:
ARM GAS  C:\Users\28576\AppData\Local\Temp\ccCAaWBI.s 			page 16


 513              	.L33:
 218:../../Middlewares/LVGL/GUI/lvgl/src/widgets/tabview/lv_tabview.c ****         }
 514              		.loc 1 218 13 is_stmt 1 view .LVU126
 515 010c 6420     		movs	r0, #100
 516              	.LVL67:
 218:../../Middlewares/LVGL/GUI/lvgl/src/widgets/tabview/lv_tabview.c ****         }
 517              		.loc 1 218 13 is_stmt 0 view .LVU127
 518 010e FFF7FEFF 		bl	lv_pct
 519              	.LVL68:
 520 0112 0246     		mov	r2, r0
 218:../../Middlewares/LVGL/GUI/lvgl/src/widgets/tabview/lv_tabview.c ****         }
 521              		.loc 1 218 13 discriminator 1 view .LVU128
 522 0114 3946     		mov	r1, r7
 523 0116 4046     		mov	r0, r8
 524 0118 FFF7FEFF 		bl	lv_obj_set_size
 525              	.LVL69:
 526 011c DDE7     		b	.L32
 527              	.L41:
 528 011e 00BF     		.align	2
 529              	.L40:
 530 0120 64000020 		.word	536871012
 531              	.LBE16:
 532              		.cfi_endproc
 533              	.LFE200:
 535              		.section	.text.lv_tabview_constructor,"ax",%progbits
 536              		.align	1
 537              		.syntax unified
 538              		.thumb
 539              		.thumb_func
 541              	lv_tabview_constructor:
 542              	.LVL70:
 543              	.LFB206:
 261:../../Middlewares/LVGL/GUI/lvgl/src/widgets/tabview/lv_tabview.c **** 
 262:../../Middlewares/LVGL/GUI/lvgl/src/widgets/tabview/lv_tabview.c **** /**********************
 263:../../Middlewares/LVGL/GUI/lvgl/src/widgets/tabview/lv_tabview.c ****  *   STATIC FUNCTIONS
 264:../../Middlewares/LVGL/GUI/lvgl/src/widgets/tabview/lv_tabview.c ****  **********************/
 265:../../Middlewares/LVGL/GUI/lvgl/src/widgets/tabview/lv_tabview.c **** 
 266:../../Middlewares/LVGL/GUI/lvgl/src/widgets/tabview/lv_tabview.c **** static void lv_tabview_constructor(const lv_obj_class_t * class_p, lv_obj_t * obj)
 267:../../Middlewares/LVGL/GUI/lvgl/src/widgets/tabview/lv_tabview.c **** {
 544              		.loc 1 267 1 is_stmt 1 view -0
 545              		.cfi_startproc
 546              		@ args = 0, pretend = 0, frame = 0
 547              		@ frame_needed = 0, uses_anonymous_args = 0
 548              		.loc 1 267 1 is_stmt 0 view .LVU130
 549 0000 F8B5     		push	{r3, r4, r5, r6, r7, lr}
 550              	.LCFI8:
 551              		.cfi_def_cfa_offset 24
 552              		.cfi_offset 3, -24
 553              		.cfi_offset 4, -20
 554              		.cfi_offset 5, -16
 555              		.cfi_offset 6, -12
 556              		.cfi_offset 7, -8
 557              		.cfi_offset 14, -4
 558 0002 0D46     		mov	r5, r1
 268:../../Middlewares/LVGL/GUI/lvgl/src/widgets/tabview/lv_tabview.c ****     LV_UNUSED(class_p);
 559              		.loc 1 268 5 is_stmt 1 view .LVU131
 269:../../Middlewares/LVGL/GUI/lvgl/src/widgets/tabview/lv_tabview.c ****     lv_tabview_t * tabview = (lv_tabview_t *)obj;
ARM GAS  C:\Users\28576\AppData\Local\Temp\ccCAaWBI.s 			page 17


 560              		.loc 1 269 5 view .LVU132
 561              	.LVL71:
 270:../../Middlewares/LVGL/GUI/lvgl/src/widgets/tabview/lv_tabview.c ****     tabview->tab_pos = LV_DIR_NONE;  /*Invalid value to apply the default TOP direction correctly*/
 562              		.loc 1 270 5 view .LVU133
 563              		.loc 1 270 22 is_stmt 0 view .LVU134
 564 0004 0026     		movs	r6, #0
 565 0006 81F83060 		strb	r6, [r1, #48]
 271:../../Middlewares/LVGL/GUI/lvgl/src/widgets/tabview/lv_tabview.c **** 
 272:../../Middlewares/LVGL/GUI/lvgl/src/widgets/tabview/lv_tabview.c ****     lv_obj_set_size(obj, LV_PCT(100), LV_PCT(100));
 566              		.loc 1 272 5 is_stmt 1 view .LVU135
 567 000a 1749     		ldr	r1, .L44
 568              	.LVL72:
 569              		.loc 1 272 5 is_stmt 0 view .LVU136
 570 000c 0A46     		mov	r2, r1
 571 000e 2846     		mov	r0, r5
 572              	.LVL73:
 573              		.loc 1 272 5 view .LVU137
 574 0010 FFF7FEFF 		bl	lv_obj_set_size
 575              	.LVL74:
 273:../../Middlewares/LVGL/GUI/lvgl/src/widgets/tabview/lv_tabview.c **** 
 274:../../Middlewares/LVGL/GUI/lvgl/src/widgets/tabview/lv_tabview.c ****     lv_obj_t * cont;
 576              		.loc 1 274 5 is_stmt 1 view .LVU138
 275:../../Middlewares/LVGL/GUI/lvgl/src/widgets/tabview/lv_tabview.c **** 
 276:../../Middlewares/LVGL/GUI/lvgl/src/widgets/tabview/lv_tabview.c ****     lv_obj_create(obj);
 577              		.loc 1 276 5 view .LVU139
 578 0014 2846     		mov	r0, r5
 579 0016 FFF7FEFF 		bl	lv_obj_create
 580              	.LVL75:
 277:../../Middlewares/LVGL/GUI/lvgl/src/widgets/tabview/lv_tabview.c ****     cont = lv_obj_create(obj);
 581              		.loc 1 277 5 view .LVU140
 582              		.loc 1 277 12 is_stmt 0 view .LVU141
 583 001a 2846     		mov	r0, r5
 584 001c FFF7FEFF 		bl	lv_obj_create
 585              	.LVL76:
 586 0020 0446     		mov	r4, r0
 587              	.LVL77:
 278:../../Middlewares/LVGL/GUI/lvgl/src/widgets/tabview/lv_tabview.c ****     lv_obj_set_flex_flow(cont, LV_FLEX_FLOW_ROW);
 588              		.loc 1 278 5 is_stmt 1 view .LVU142
 589 0022 3146     		mov	r1, r6
 590 0024 FFF7FEFF 		bl	lv_obj_set_flex_flow
 591              	.LVL78:
 279:../../Middlewares/LVGL/GUI/lvgl/src/widgets/tabview/lv_tabview.c **** 
 280:../../Middlewares/LVGL/GUI/lvgl/src/widgets/tabview/lv_tabview.c ****     lv_obj_add_event_cb(cont, cont_scroll_end_event_cb, LV_EVENT_LAYOUT_CHANGED, NULL);
 592              		.loc 1 280 5 view .LVU143
 593 0028 104F     		ldr	r7, .L44+4
 594 002a 3346     		mov	r3, r6
 595 002c 3322     		movs	r2, #51
 596 002e 3946     		mov	r1, r7
 597 0030 2046     		mov	r0, r4
 598 0032 FFF7FEFF 		bl	lv_obj_add_event_cb
 599              	.LVL79:
 281:../../Middlewares/LVGL/GUI/lvgl/src/widgets/tabview/lv_tabview.c ****     lv_obj_add_event_cb(cont, cont_scroll_end_event_cb, LV_EVENT_SCROLL_END, NULL);
 600              		.loc 1 281 5 view .LVU144
 601 0036 3346     		mov	r3, r6
 602 0038 0E22     		movs	r2, #14
 603 003a 3946     		mov	r1, r7
 604 003c 2046     		mov	r0, r4
ARM GAS  C:\Users\28576\AppData\Local\Temp\ccCAaWBI.s 			page 18


 605 003e FFF7FEFF 		bl	lv_obj_add_event_cb
 606              	.LVL80:
 282:../../Middlewares/LVGL/GUI/lvgl/src/widgets/tabview/lv_tabview.c ****     lv_obj_set_scrollbar_mode(cont, LV_SCROLLBAR_MODE_OFF);
 607              		.loc 1 282 5 view .LVU145
 608 0042 3146     		mov	r1, r6
 609 0044 2046     		mov	r0, r4
 610 0046 FFF7FEFF 		bl	lv_obj_set_scrollbar_mode
 611              	.LVL81:
 283:../../Middlewares/LVGL/GUI/lvgl/src/widgets/tabview/lv_tabview.c ****     lv_tabview_set_tab_bar_position(obj, LV_DIR_TOP);
 612              		.loc 1 283 5 view .LVU146
 613 004a 0421     		movs	r1, #4
 614 004c 2846     		mov	r0, r5
 615 004e FFF7FEFF 		bl	lv_tabview_set_tab_bar_position
 616              	.LVL82:
 284:../../Middlewares/LVGL/GUI/lvgl/src/widgets/tabview/lv_tabview.c **** 
 285:../../Middlewares/LVGL/GUI/lvgl/src/widgets/tabview/lv_tabview.c ****     lv_obj_add_flag(cont, LV_OBJ_FLAG_SCROLL_ONE);
 617              		.loc 1 285 5 view .LVU147
 618 0052 8021     		movs	r1, #128
 619 0054 2046     		mov	r0, r4
 620 0056 FFF7FEFF 		bl	lv_obj_add_flag
 621              	.LVL83:
 286:../../Middlewares/LVGL/GUI/lvgl/src/widgets/tabview/lv_tabview.c ****     lv_obj_remove_flag(cont, LV_OBJ_FLAG_SCROLL_ON_FOCUS);
 622              		.loc 1 286 5 view .LVU148
 623 005a 4FF48061 		mov	r1, #1024
 624 005e 2046     		mov	r0, r4
 625 0060 FFF7FEFF 		bl	lv_obj_remove_flag
 626              	.LVL84:
 287:../../Middlewares/LVGL/GUI/lvgl/src/widgets/tabview/lv_tabview.c **** }
 627              		.loc 1 287 1 is_stmt 0 view .LVU149
 628 0064 F8BD     		pop	{r3, r4, r5, r6, r7, pc}
 629              	.LVL85:
 630              	.L45:
 631              		.loc 1 287 1 view .LVU150
 632 0066 00BF     		.align	2
 633              	.L44:
 634 0068 64000020 		.word	536871012
 635 006c 00000000 		.word	cont_scroll_end_event_cb
 636              		.cfi_endproc
 637              	.LFE206:
 639              		.section	.text.lv_tabview_set_tab_bar_size,"ax",%progbits
 640              		.align	1
 641              		.global	lv_tabview_set_tab_bar_size
 642              		.syntax unified
 643              		.thumb
 644              		.thumb_func
 646              	lv_tabview_set_tab_bar_size:
 647              	.LVL86:
 648              	.LFB201:
 225:../../Middlewares/LVGL/GUI/lvgl/src/widgets/tabview/lv_tabview.c ****     LV_ASSERT_OBJ(obj, MY_CLASS);
 649              		.loc 1 225 1 is_stmt 1 view -0
 650              		.cfi_startproc
 651              		@ args = 0, pretend = 0, frame = 0
 652              		@ frame_needed = 0, uses_anonymous_args = 0
 226:../../Middlewares/LVGL/GUI/lvgl/src/widgets/tabview/lv_tabview.c ****     lv_tabview_t * tabview = (lv_tabview_t *)obj;
 653              		.loc 1 226 5 view .LVU152
 226:../../Middlewares/LVGL/GUI/lvgl/src/widgets/tabview/lv_tabview.c ****     lv_tabview_t * tabview = (lv_tabview_t *)obj;
 654              		.loc 1 226 5 view .LVU153
ARM GAS  C:\Users\28576\AppData\Local\Temp\ccCAaWBI.s 			page 19


 655 0000 68B1     		cbz	r0, .L48
 225:../../Middlewares/LVGL/GUI/lvgl/src/widgets/tabview/lv_tabview.c ****     LV_ASSERT_OBJ(obj, MY_CLASS);
 656              		.loc 1 225 1 is_stmt 0 view .LVU154
 657 0002 38B5     		push	{r3, r4, r5, lr}
 658              	.LCFI9:
 659              		.cfi_def_cfa_offset 16
 660              		.cfi_offset 3, -16
 661              		.cfi_offset 4, -12
 662              		.cfi_offset 5, -8
 663              		.cfi_offset 14, -4
 664 0004 0D46     		mov	r5, r1
 226:../../Middlewares/LVGL/GUI/lvgl/src/widgets/tabview/lv_tabview.c ****     lv_tabview_t * tabview = (lv_tabview_t *)obj;
 665              		.loc 1 226 5 is_stmt 1 view .LVU155
 226:../../Middlewares/LVGL/GUI/lvgl/src/widgets/tabview/lv_tabview.c ****     lv_tabview_t * tabview = (lv_tabview_t *)obj;
 666              		.loc 1 226 33 view .LVU156
 227:../../Middlewares/LVGL/GUI/lvgl/src/widgets/tabview/lv_tabview.c **** 
 667              		.loc 1 227 5 view .LVU157
 668              	.LVL87:
 229:../../Middlewares/LVGL/GUI/lvgl/src/widgets/tabview/lv_tabview.c ****     if(tabview->tab_pos & LV_DIR_VER) {
 669              		.loc 1 229 5 view .LVU158
 229:../../Middlewares/LVGL/GUI/lvgl/src/widgets/tabview/lv_tabview.c ****     if(tabview->tab_pos & LV_DIR_VER) {
 670              		.loc 1 229 26 is_stmt 0 view .LVU159
 671 0006 0446     		mov	r4, r0
 672 0008 FFF7FEFF 		bl	lv_tabview_get_tab_bar
 673              	.LVL88:
 230:../../Middlewares/LVGL/GUI/lvgl/src/widgets/tabview/lv_tabview.c ****         lv_obj_set_height(tab_bar, size);
 674              		.loc 1 230 5 is_stmt 1 view .LVU160
 230:../../Middlewares/LVGL/GUI/lvgl/src/widgets/tabview/lv_tabview.c ****         lv_obj_set_height(tab_bar, size);
 675              		.loc 1 230 15 is_stmt 0 view .LVU161
 676 000c 94F83030 		ldrb	r3, [r4, #48]	@ zero_extendqisi2
 230:../../Middlewares/LVGL/GUI/lvgl/src/widgets/tabview/lv_tabview.c ****         lv_obj_set_height(tab_bar, size);
 677              		.loc 1 230 7 view .LVU162
 678 0010 13F00C0F 		tst	r3, #12
 679 0014 04D0     		beq	.L49
 231:../../Middlewares/LVGL/GUI/lvgl/src/widgets/tabview/lv_tabview.c ****     }
 680              		.loc 1 231 9 is_stmt 1 view .LVU163
 681 0016 2946     		mov	r1, r5
 682 0018 FFF7FEFF 		bl	lv_obj_set_height
 683              	.LVL89:
 684              	.L46:
 236:../../Middlewares/LVGL/GUI/lvgl/src/widgets/tabview/lv_tabview.c **** 
 685              		.loc 1 236 1 is_stmt 0 view .LVU164
 686 001c 38BD     		pop	{r3, r4, r5, pc}
 687              	.LVL90:
 688              	.L48:
 689              	.LCFI10:
 690              		.cfi_def_cfa_offset 0
 691              		.cfi_restore 3
 692              		.cfi_restore 4
 693              		.cfi_restore 5
 694              		.cfi_restore 14
 226:../../Middlewares/LVGL/GUI/lvgl/src/widgets/tabview/lv_tabview.c ****     lv_tabview_t * tabview = (lv_tabview_t *)obj;
 695              		.loc 1 226 5 is_stmt 1 view .LVU165
 226:../../Middlewares/LVGL/GUI/lvgl/src/widgets/tabview/lv_tabview.c ****     lv_tabview_t * tabview = (lv_tabview_t *)obj;
 696              		.loc 1 226 5 view .LVU166
 226:../../Middlewares/LVGL/GUI/lvgl/src/widgets/tabview/lv_tabview.c ****     lv_tabview_t * tabview = (lv_tabview_t *)obj;
 697              		.loc 1 226 5 view .LVU167
ARM GAS  C:\Users\28576\AppData\Local\Temp\ccCAaWBI.s 			page 20


 226:../../Middlewares/LVGL/GUI/lvgl/src/widgets/tabview/lv_tabview.c ****     lv_tabview_t * tabview = (lv_tabview_t *)obj;
 698              		.loc 1 226 5 view .LVU168
 226:../../Middlewares/LVGL/GUI/lvgl/src/widgets/tabview/lv_tabview.c ****     lv_tabview_t * tabview = (lv_tabview_t *)obj;
 699              		.loc 1 226 5 view .LVU169
 700 001e FEE7     		b	.L48
 701              	.LVL91:
 702              	.L49:
 703              	.LCFI11:
 704              		.cfi_def_cfa_offset 16
 705              		.cfi_offset 3, -16
 706              		.cfi_offset 4, -12
 707              		.cfi_offset 5, -8
 708              		.cfi_offset 14, -4
 234:../../Middlewares/LVGL/GUI/lvgl/src/widgets/tabview/lv_tabview.c ****     }
 709              		.loc 1 234 9 view .LVU170
 710 0020 2946     		mov	r1, r5
 711 0022 FFF7FEFF 		bl	lv_obj_set_width
 712              	.LVL92:
 236:../../Middlewares/LVGL/GUI/lvgl/src/widgets/tabview/lv_tabview.c **** 
 713              		.loc 1 236 1 is_stmt 0 view .LVU171
 714 0026 F9E7     		b	.L46
 715              		.cfi_endproc
 716              	.LFE201:
 718              		.section	.text.lv_tabview_get_tab_count,"ax",%progbits
 719              		.align	1
 720              		.global	lv_tabview_get_tab_count
 721              		.syntax unified
 722              		.thumb
 723              		.thumb_func
 725              	lv_tabview_get_tab_count:
 726              	.LVL93:
 727              	.LFB203:
 246:../../Middlewares/LVGL/GUI/lvgl/src/widgets/tabview/lv_tabview.c ****     LV_ASSERT_OBJ(obj, MY_CLASS);
 728              		.loc 1 246 1 is_stmt 1 view -0
 729              		.cfi_startproc
 730              		@ args = 0, pretend = 0, frame = 0
 731              		@ frame_needed = 0, uses_anonymous_args = 0
 247:../../Middlewares/LVGL/GUI/lvgl/src/widgets/tabview/lv_tabview.c ****     lv_obj_t * tab_bar = lv_tabview_get_tab_bar(obj);
 732              		.loc 1 247 5 view .LVU173
 247:../../Middlewares/LVGL/GUI/lvgl/src/widgets/tabview/lv_tabview.c ****     lv_obj_t * tab_bar = lv_tabview_get_tab_bar(obj);
 733              		.loc 1 247 5 view .LVU174
 734 0000 30B1     		cbz	r0, .L55
 246:../../Middlewares/LVGL/GUI/lvgl/src/widgets/tabview/lv_tabview.c ****     LV_ASSERT_OBJ(obj, MY_CLASS);
 735              		.loc 1 246 1 is_stmt 0 view .LVU175
 736 0002 08B5     		push	{r3, lr}
 737              	.LCFI12:
 738              		.cfi_def_cfa_offset 8
 739              		.cfi_offset 3, -8
 740              		.cfi_offset 14, -4
 247:../../Middlewares/LVGL/GUI/lvgl/src/widgets/tabview/lv_tabview.c ****     lv_obj_t * tab_bar = lv_tabview_get_tab_bar(obj);
 741              		.loc 1 247 5 is_stmt 1 view .LVU176
 247:../../Middlewares/LVGL/GUI/lvgl/src/widgets/tabview/lv_tabview.c ****     lv_obj_t * tab_bar = lv_tabview_get_tab_bar(obj);
 742              		.loc 1 247 33 view .LVU177
 248:../../Middlewares/LVGL/GUI/lvgl/src/widgets/tabview/lv_tabview.c ****     return lv_obj_get_child_count_by_type(tab_bar, &lv_button_class);
 743              		.loc 1 248 5 view .LVU178
 248:../../Middlewares/LVGL/GUI/lvgl/src/widgets/tabview/lv_tabview.c ****     return lv_obj_get_child_count_by_type(tab_bar, &lv_button_class);
 744              		.loc 1 248 26 is_stmt 0 view .LVU179
ARM GAS  C:\Users\28576\AppData\Local\Temp\ccCAaWBI.s 			page 21


 745 0004 FFF7FEFF 		bl	lv_tabview_get_tab_bar
 746              	.LVL94:
 249:../../Middlewares/LVGL/GUI/lvgl/src/widgets/tabview/lv_tabview.c **** }
 747              		.loc 1 249 5 is_stmt 1 view .LVU180
 249:../../Middlewares/LVGL/GUI/lvgl/src/widgets/tabview/lv_tabview.c **** }
 748              		.loc 1 249 12 is_stmt 0 view .LVU181
 749 0008 0249     		ldr	r1, .L58
 750 000a FFF7FEFF 		bl	lv_obj_get_child_count_by_type
 751              	.LVL95:
 250:../../Middlewares/LVGL/GUI/lvgl/src/widgets/tabview/lv_tabview.c **** 
 752              		.loc 1 250 1 view .LVU182
 753 000e 08BD     		pop	{r3, pc}
 754              	.LVL96:
 755              	.L55:
 756              	.LCFI13:
 757              		.cfi_def_cfa_offset 0
 758              		.cfi_restore 3
 759              		.cfi_restore 14
 247:../../Middlewares/LVGL/GUI/lvgl/src/widgets/tabview/lv_tabview.c ****     lv_obj_t * tab_bar = lv_tabview_get_tab_bar(obj);
 760              		.loc 1 247 5 is_stmt 1 view .LVU183
 247:../../Middlewares/LVGL/GUI/lvgl/src/widgets/tabview/lv_tabview.c ****     lv_obj_t * tab_bar = lv_tabview_get_tab_bar(obj);
 761              		.loc 1 247 5 view .LVU184
 247:../../Middlewares/LVGL/GUI/lvgl/src/widgets/tabview/lv_tabview.c ****     lv_obj_t * tab_bar = lv_tabview_get_tab_bar(obj);
 762              		.loc 1 247 5 view .LVU185
 247:../../Middlewares/LVGL/GUI/lvgl/src/widgets/tabview/lv_tabview.c ****     lv_obj_t * tab_bar = lv_tabview_get_tab_bar(obj);
 763              		.loc 1 247 5 view .LVU186
 247:../../Middlewares/LVGL/GUI/lvgl/src/widgets/tabview/lv_tabview.c ****     lv_obj_t * tab_bar = lv_tabview_get_tab_bar(obj);
 764              		.loc 1 247 5 view .LVU187
 765 0010 FEE7     		b	.L55
 766              	.L59:
 767 0012 00BF     		.align	2
 768              	.L58:
 769 0014 00000000 		.word	lv_button_class
 770              		.cfi_endproc
 771              	.LFE203:
 773              		.section	.text.lv_tabview_set_active,"ax",%progbits
 774              		.align	1
 775              		.global	lv_tabview_set_active
 776              		.syntax unified
 777              		.thumb
 778              		.thumb_func
 780              	lv_tabview_set_active:
 781              	.LVL97:
 782              	.LFB199:
 111:../../Middlewares/LVGL/GUI/lvgl/src/widgets/tabview/lv_tabview.c ****     LV_ASSERT_OBJ(obj, MY_CLASS);
 783              		.loc 1 111 1 view -0
 784              		.cfi_startproc
 785              		@ args = 0, pretend = 0, frame = 8
 786              		@ frame_needed = 0, uses_anonymous_args = 0
 112:../../Middlewares/LVGL/GUI/lvgl/src/widgets/tabview/lv_tabview.c ****     lv_tabview_t * tabview = (lv_tabview_t *)obj;
 787              		.loc 1 112 5 view .LVU189
 112:../../Middlewares/LVGL/GUI/lvgl/src/widgets/tabview/lv_tabview.c ****     lv_tabview_t * tabview = (lv_tabview_t *)obj;
 788              		.loc 1 112 5 view .LVU190
 789 0000 0028     		cmp	r0, #0
 790 0002 3AD0     		beq	.L62
 111:../../Middlewares/LVGL/GUI/lvgl/src/widgets/tabview/lv_tabview.c ****     LV_ASSERT_OBJ(obj, MY_CLASS);
 791              		.loc 1 111 1 is_stmt 0 view .LVU191
ARM GAS  C:\Users\28576\AppData\Local\Temp\ccCAaWBI.s 			page 22


 792 0004 2DE9F047 		push	{r4, r5, r6, r7, r8, r9, r10, lr}
 793              	.LCFI14:
 794              		.cfi_def_cfa_offset 32
 795              		.cfi_offset 4, -32
 796              		.cfi_offset 5, -28
 797              		.cfi_offset 6, -24
 798              		.cfi_offset 7, -20
 799              		.cfi_offset 8, -16
 800              		.cfi_offset 9, -12
 801              		.cfi_offset 10, -8
 802              		.cfi_offset 14, -4
 803 0008 82B0     		sub	sp, sp, #8
 804              	.LCFI15:
 805              		.cfi_def_cfa_offset 40
 806 000a 0D46     		mov	r5, r1
 807 000c 9246     		mov	r10, r2
 808 000e 0446     		mov	r4, r0
 112:../../Middlewares/LVGL/GUI/lvgl/src/widgets/tabview/lv_tabview.c ****     lv_tabview_t * tabview = (lv_tabview_t *)obj;
 809              		.loc 1 112 5 is_stmt 1 view .LVU192
 112:../../Middlewares/LVGL/GUI/lvgl/src/widgets/tabview/lv_tabview.c ****     lv_tabview_t * tabview = (lv_tabview_t *)obj;
 810              		.loc 1 112 33 view .LVU193
 113:../../Middlewares/LVGL/GUI/lvgl/src/widgets/tabview/lv_tabview.c **** 
 811              		.loc 1 113 5 view .LVU194
 812              	.LVL98:
 115:../../Middlewares/LVGL/GUI/lvgl/src/widgets/tabview/lv_tabview.c **** 
 813              		.loc 1 115 5 view .LVU195
 115:../../Middlewares/LVGL/GUI/lvgl/src/widgets/tabview/lv_tabview.c **** 
 814              		.loc 1 115 22 is_stmt 0 view .LVU196
 815 0010 C162     		str	r1, [r0, #44]
 117:../../Middlewares/LVGL/GUI/lvgl/src/widgets/tabview/lv_tabview.c ****     lv_obj_t * tab_bar = lv_tabview_get_tab_bar(obj);
 816              		.loc 1 117 5 is_stmt 1 view .LVU197
 117:../../Middlewares/LVGL/GUI/lvgl/src/widgets/tabview/lv_tabview.c ****     lv_obj_t * tab_bar = lv_tabview_get_tab_bar(obj);
 817              		.loc 1 117 23 is_stmt 0 view .LVU198
 818 0012 FFF7FEFF 		bl	lv_tabview_get_content
 819              	.LVL99:
 117:../../Middlewares/LVGL/GUI/lvgl/src/widgets/tabview/lv_tabview.c ****     lv_obj_t * tab_bar = lv_tabview_get_tab_bar(obj);
 820              		.loc 1 117 23 view .LVU199
 821 0016 0746     		mov	r7, r0
 822 0018 8046     		mov	r8, r0
 823              	.LVL100:
 118:../../Middlewares/LVGL/GUI/lvgl/src/widgets/tabview/lv_tabview.c **** 
 824              		.loc 1 118 5 is_stmt 1 view .LVU200
 118:../../Middlewares/LVGL/GUI/lvgl/src/widgets/tabview/lv_tabview.c **** 
 825              		.loc 1 118 26 is_stmt 0 view .LVU201
 826 001a 2046     		mov	r0, r4
 827              	.LVL101:
 118:../../Middlewares/LVGL/GUI/lvgl/src/widgets/tabview/lv_tabview.c **** 
 828              		.loc 1 118 26 view .LVU202
 829 001c FFF7FEFF 		bl	lv_tabview_get_tab_bar
 830              	.LVL102:
 831 0020 0646     		mov	r6, r0
 832              	.LVL103:
 120:../../Middlewares/LVGL/GUI/lvgl/src/widgets/tabview/lv_tabview.c ****     if(idx >= tab_cnt) return;
 833              		.loc 1 120 5 is_stmt 1 view .LVU203
 120:../../Middlewares/LVGL/GUI/lvgl/src/widgets/tabview/lv_tabview.c ****     if(idx >= tab_cnt) return;
 834              		.loc 1 120 24 is_stmt 0 view .LVU204
 835 0022 2046     		mov	r0, r4
ARM GAS  C:\Users\28576\AppData\Local\Temp\ccCAaWBI.s 			page 23


 836              	.LVL104:
 120:../../Middlewares/LVGL/GUI/lvgl/src/widgets/tabview/lv_tabview.c ****     if(idx >= tab_cnt) return;
 837              		.loc 1 120 24 view .LVU205
 838 0024 FFF7FEFF 		bl	lv_tabview_get_tab_count
 839              	.LVL105:
 121:../../Middlewares/LVGL/GUI/lvgl/src/widgets/tabview/lv_tabview.c **** 
 840              		.loc 1 121 5 is_stmt 1 view .LVU206
 121:../../Middlewares/LVGL/GUI/lvgl/src/widgets/tabview/lv_tabview.c **** 
 841              		.loc 1 121 7 is_stmt 0 view .LVU207
 842 0028 8542     		cmp	r5, r0
 843 002a 58D2     		bcs	.L60
 124:../../Middlewares/LVGL/GUI/lvgl/src/widgets/tabview/lv_tabview.c **** 
 844              		.loc 1 124 5 is_stmt 1 view .LVU208
 124:../../Middlewares/LVGL/GUI/lvgl/src/widgets/tabview/lv_tabview.c **** 
 845              		.loc 1 124 7 is_stmt 0 view .LVU209
 846 002c 002F     		cmp	r7, #0
 847 002e 56D0     		beq	.L60
 126:../../Middlewares/LVGL/GUI/lvgl/src/widgets/tabview/lv_tabview.c **** 
 848              		.loc 1 126 5 is_stmt 1 view .LVU210
 849 0030 2046     		mov	r0, r4
 850              	.LVL106:
 126:../../Middlewares/LVGL/GUI/lvgl/src/widgets/tabview/lv_tabview.c **** 
 851              		.loc 1 126 5 is_stmt 0 view .LVU211
 852 0032 FFF7FEFF 		bl	lv_obj_update_layout
 853              	.LVL107:
 128:../../Middlewares/LVGL/GUI/lvgl/src/widgets/tabview/lv_tabview.c ****         int32_t gap = lv_obj_get_style_pad_column(cont, LV_PART_MAIN);
 854              		.loc 1 128 5 is_stmt 1 view .LVU212
 128:../../Middlewares/LVGL/GUI/lvgl/src/widgets/tabview/lv_tabview.c ****         int32_t gap = lv_obj_get_style_pad_column(cont, LV_PART_MAIN);
 855              		.loc 1 128 16 is_stmt 0 view .LVU213
 856 0036 94F83030 		ldrb	r3, [r4, #48]	@ zero_extendqisi2
 128:../../Middlewares/LVGL/GUI/lvgl/src/widgets/tabview/lv_tabview.c ****         int32_t gap = lv_obj_get_style_pad_column(cont, LV_PART_MAIN);
 857              		.loc 1 128 7 view .LVU214
 858 003a 13F00C0F 		tst	r3, #12
 859 003e 27D0     		beq	.L64
 860              	.LBB17:
 129:../../Middlewares/LVGL/GUI/lvgl/src/widgets/tabview/lv_tabview.c ****         int32_t w = lv_obj_get_content_width(cont);
 861              		.loc 1 129 9 is_stmt 1 view .LVU215
 862              	.LVL108:
 863              	.LBB18:
 864              	.LBI18:
 865              		.file 2 "H:/STM32H7/RGB_LVGL/Middlewares/LVGL/GUI/lvgl/src/core/lv_obj_style_gen.h"
   1:H:/STM32H7/RGB_LVGL/Middlewares/LVGL/GUI/lvgl/src/core\lv_obj_style_gen.h **** 
   2:H:/STM32H7/RGB_LVGL/Middlewares/LVGL/GUI/lvgl/src/core\lv_obj_style_gen.h **** /*
   3:H:/STM32H7/RGB_LVGL/Middlewares/LVGL/GUI/lvgl/src/core\lv_obj_style_gen.h ****  **********************************************************************
   4:H:/STM32H7/RGB_LVGL/Middlewares/LVGL/GUI/lvgl/src/core\lv_obj_style_gen.h ****  *                            DO NOT EDIT
   5:H:/STM32H7/RGB_LVGL/Middlewares/LVGL/GUI/lvgl/src/core\lv_obj_style_gen.h ****  * This file is automatically generated by "style_api_gen.py"
   6:H:/STM32H7/RGB_LVGL/Middlewares/LVGL/GUI/lvgl/src/core\lv_obj_style_gen.h ****  **********************************************************************
   7:H:/STM32H7/RGB_LVGL/Middlewares/LVGL/GUI/lvgl/src/core\lv_obj_style_gen.h ****  */
   8:H:/STM32H7/RGB_LVGL/Middlewares/LVGL/GUI/lvgl/src/core\lv_obj_style_gen.h **** 
   9:H:/STM32H7/RGB_LVGL/Middlewares/LVGL/GUI/lvgl/src/core\lv_obj_style_gen.h **** 
  10:H:/STM32H7/RGB_LVGL/Middlewares/LVGL/GUI/lvgl/src/core\lv_obj_style_gen.h **** #ifndef LV_OBJ_STYLE_GEN_H
  11:H:/STM32H7/RGB_LVGL/Middlewares/LVGL/GUI/lvgl/src/core\lv_obj_style_gen.h **** #define LV_OBJ_STYLE_GEN_H
  12:H:/STM32H7/RGB_LVGL/Middlewares/LVGL/GUI/lvgl/src/core\lv_obj_style_gen.h **** 
  13:H:/STM32H7/RGB_LVGL/Middlewares/LVGL/GUI/lvgl/src/core\lv_obj_style_gen.h **** #ifdef __cplusplus
  14:H:/STM32H7/RGB_LVGL/Middlewares/LVGL/GUI/lvgl/src/core\lv_obj_style_gen.h **** extern "C" {
  15:H:/STM32H7/RGB_LVGL/Middlewares/LVGL/GUI/lvgl/src/core\lv_obj_style_gen.h **** #endif
  16:H:/STM32H7/RGB_LVGL/Middlewares/LVGL/GUI/lvgl/src/core\lv_obj_style_gen.h **** 
ARM GAS  C:\Users\28576\AppData\Local\Temp\ccCAaWBI.s 			page 24


  17:H:/STM32H7/RGB_LVGL/Middlewares/LVGL/GUI/lvgl/src/core\lv_obj_style_gen.h **** #include "../misc/lv_area.h"
  18:H:/STM32H7/RGB_LVGL/Middlewares/LVGL/GUI/lvgl/src/core\lv_obj_style_gen.h **** #include "../misc/lv_style.h"
  19:H:/STM32H7/RGB_LVGL/Middlewares/LVGL/GUI/lvgl/src/core\lv_obj_style_gen.h **** #include "../core/lv_obj_style.h"
  20:H:/STM32H7/RGB_LVGL/Middlewares/LVGL/GUI/lvgl/src/core\lv_obj_style_gen.h **** #include "../misc/lv_types.h"
  21:H:/STM32H7/RGB_LVGL/Middlewares/LVGL/GUI/lvgl/src/core\lv_obj_style_gen.h **** 
  22:H:/STM32H7/RGB_LVGL/Middlewares/LVGL/GUI/lvgl/src/core\lv_obj_style_gen.h **** static inline int32_t lv_obj_get_style_width(const lv_obj_t * obj, lv_part_t part)
  23:H:/STM32H7/RGB_LVGL/Middlewares/LVGL/GUI/lvgl/src/core\lv_obj_style_gen.h **** {
  24:H:/STM32H7/RGB_LVGL/Middlewares/LVGL/GUI/lvgl/src/core\lv_obj_style_gen.h ****     lv_style_value_t v = lv_obj_get_style_prop(obj, part, LV_STYLE_WIDTH);
  25:H:/STM32H7/RGB_LVGL/Middlewares/LVGL/GUI/lvgl/src/core\lv_obj_style_gen.h ****     return (int32_t)v.num;
  26:H:/STM32H7/RGB_LVGL/Middlewares/LVGL/GUI/lvgl/src/core\lv_obj_style_gen.h **** }
  27:H:/STM32H7/RGB_LVGL/Middlewares/LVGL/GUI/lvgl/src/core\lv_obj_style_gen.h **** 
  28:H:/STM32H7/RGB_LVGL/Middlewares/LVGL/GUI/lvgl/src/core\lv_obj_style_gen.h **** static inline int32_t lv_obj_get_style_min_width(const lv_obj_t * obj, lv_part_t part)
  29:H:/STM32H7/RGB_LVGL/Middlewares/LVGL/GUI/lvgl/src/core\lv_obj_style_gen.h **** {
  30:H:/STM32H7/RGB_LVGL/Middlewares/LVGL/GUI/lvgl/src/core\lv_obj_style_gen.h ****     lv_style_value_t v = lv_obj_get_style_prop(obj, part, LV_STYLE_MIN_WIDTH);
  31:H:/STM32H7/RGB_LVGL/Middlewares/LVGL/GUI/lvgl/src/core\lv_obj_style_gen.h ****     return (int32_t)v.num;
  32:H:/STM32H7/RGB_LVGL/Middlewares/LVGL/GUI/lvgl/src/core\lv_obj_style_gen.h **** }
  33:H:/STM32H7/RGB_LVGL/Middlewares/LVGL/GUI/lvgl/src/core\lv_obj_style_gen.h **** 
  34:H:/STM32H7/RGB_LVGL/Middlewares/LVGL/GUI/lvgl/src/core\lv_obj_style_gen.h **** static inline int32_t lv_obj_get_style_max_width(const lv_obj_t * obj, lv_part_t part)
  35:H:/STM32H7/RGB_LVGL/Middlewares/LVGL/GUI/lvgl/src/core\lv_obj_style_gen.h **** {
  36:H:/STM32H7/RGB_LVGL/Middlewares/LVGL/GUI/lvgl/src/core\lv_obj_style_gen.h ****     lv_style_value_t v = lv_obj_get_style_prop(obj, part, LV_STYLE_MAX_WIDTH);
  37:H:/STM32H7/RGB_LVGL/Middlewares/LVGL/GUI/lvgl/src/core\lv_obj_style_gen.h ****     return (int32_t)v.num;
  38:H:/STM32H7/RGB_LVGL/Middlewares/LVGL/GUI/lvgl/src/core\lv_obj_style_gen.h **** }
  39:H:/STM32H7/RGB_LVGL/Middlewares/LVGL/GUI/lvgl/src/core\lv_obj_style_gen.h **** 
  40:H:/STM32H7/RGB_LVGL/Middlewares/LVGL/GUI/lvgl/src/core\lv_obj_style_gen.h **** static inline int32_t lv_obj_get_style_height(const lv_obj_t * obj, lv_part_t part)
  41:H:/STM32H7/RGB_LVGL/Middlewares/LVGL/GUI/lvgl/src/core\lv_obj_style_gen.h **** {
  42:H:/STM32H7/RGB_LVGL/Middlewares/LVGL/GUI/lvgl/src/core\lv_obj_style_gen.h ****     lv_style_value_t v = lv_obj_get_style_prop(obj, part, LV_STYLE_HEIGHT);
  43:H:/STM32H7/RGB_LVGL/Middlewares/LVGL/GUI/lvgl/src/core\lv_obj_style_gen.h ****     return (int32_t)v.num;
  44:H:/STM32H7/RGB_LVGL/Middlewares/LVGL/GUI/lvgl/src/core\lv_obj_style_gen.h **** }
  45:H:/STM32H7/RGB_LVGL/Middlewares/LVGL/GUI/lvgl/src/core\lv_obj_style_gen.h **** 
  46:H:/STM32H7/RGB_LVGL/Middlewares/LVGL/GUI/lvgl/src/core\lv_obj_style_gen.h **** static inline int32_t lv_obj_get_style_min_height(const lv_obj_t * obj, lv_part_t part)
  47:H:/STM32H7/RGB_LVGL/Middlewares/LVGL/GUI/lvgl/src/core\lv_obj_style_gen.h **** {
  48:H:/STM32H7/RGB_LVGL/Middlewares/LVGL/GUI/lvgl/src/core\lv_obj_style_gen.h ****     lv_style_value_t v = lv_obj_get_style_prop(obj, part, LV_STYLE_MIN_HEIGHT);
  49:H:/STM32H7/RGB_LVGL/Middlewares/LVGL/GUI/lvgl/src/core\lv_obj_style_gen.h ****     return (int32_t)v.num;
  50:H:/STM32H7/RGB_LVGL/Middlewares/LVGL/GUI/lvgl/src/core\lv_obj_style_gen.h **** }
  51:H:/STM32H7/RGB_LVGL/Middlewares/LVGL/GUI/lvgl/src/core\lv_obj_style_gen.h **** 
  52:H:/STM32H7/RGB_LVGL/Middlewares/LVGL/GUI/lvgl/src/core\lv_obj_style_gen.h **** static inline int32_t lv_obj_get_style_max_height(const lv_obj_t * obj, lv_part_t part)
  53:H:/STM32H7/RGB_LVGL/Middlewares/LVGL/GUI/lvgl/src/core\lv_obj_style_gen.h **** {
  54:H:/STM32H7/RGB_LVGL/Middlewares/LVGL/GUI/lvgl/src/core\lv_obj_style_gen.h ****     lv_style_value_t v = lv_obj_get_style_prop(obj, part, LV_STYLE_MAX_HEIGHT);
  55:H:/STM32H7/RGB_LVGL/Middlewares/LVGL/GUI/lvgl/src/core\lv_obj_style_gen.h ****     return (int32_t)v.num;
  56:H:/STM32H7/RGB_LVGL/Middlewares/LVGL/GUI/lvgl/src/core\lv_obj_style_gen.h **** }
  57:H:/STM32H7/RGB_LVGL/Middlewares/LVGL/GUI/lvgl/src/core\lv_obj_style_gen.h **** 
  58:H:/STM32H7/RGB_LVGL/Middlewares/LVGL/GUI/lvgl/src/core\lv_obj_style_gen.h **** static inline int32_t lv_obj_get_style_length(const lv_obj_t * obj, lv_part_t part)
  59:H:/STM32H7/RGB_LVGL/Middlewares/LVGL/GUI/lvgl/src/core\lv_obj_style_gen.h **** {
  60:H:/STM32H7/RGB_LVGL/Middlewares/LVGL/GUI/lvgl/src/core\lv_obj_style_gen.h ****     lv_style_value_t v = lv_obj_get_style_prop(obj, part, LV_STYLE_LENGTH);
  61:H:/STM32H7/RGB_LVGL/Middlewares/LVGL/GUI/lvgl/src/core\lv_obj_style_gen.h ****     return (int32_t)v.num;
  62:H:/STM32H7/RGB_LVGL/Middlewares/LVGL/GUI/lvgl/src/core\lv_obj_style_gen.h **** }
  63:H:/STM32H7/RGB_LVGL/Middlewares/LVGL/GUI/lvgl/src/core\lv_obj_style_gen.h **** 
  64:H:/STM32H7/RGB_LVGL/Middlewares/LVGL/GUI/lvgl/src/core\lv_obj_style_gen.h **** static inline int32_t lv_obj_get_style_x(const lv_obj_t * obj, lv_part_t part)
  65:H:/STM32H7/RGB_LVGL/Middlewares/LVGL/GUI/lvgl/src/core\lv_obj_style_gen.h **** {
  66:H:/STM32H7/RGB_LVGL/Middlewares/LVGL/GUI/lvgl/src/core\lv_obj_style_gen.h ****     lv_style_value_t v = lv_obj_get_style_prop(obj, part, LV_STYLE_X);
  67:H:/STM32H7/RGB_LVGL/Middlewares/LVGL/GUI/lvgl/src/core\lv_obj_style_gen.h ****     return (int32_t)v.num;
  68:H:/STM32H7/RGB_LVGL/Middlewares/LVGL/GUI/lvgl/src/core\lv_obj_style_gen.h **** }
  69:H:/STM32H7/RGB_LVGL/Middlewares/LVGL/GUI/lvgl/src/core\lv_obj_style_gen.h **** 
  70:H:/STM32H7/RGB_LVGL/Middlewares/LVGL/GUI/lvgl/src/core\lv_obj_style_gen.h **** static inline int32_t lv_obj_get_style_y(const lv_obj_t * obj, lv_part_t part)
  71:H:/STM32H7/RGB_LVGL/Middlewares/LVGL/GUI/lvgl/src/core\lv_obj_style_gen.h **** {
  72:H:/STM32H7/RGB_LVGL/Middlewares/LVGL/GUI/lvgl/src/core\lv_obj_style_gen.h ****     lv_style_value_t v = lv_obj_get_style_prop(obj, part, LV_STYLE_Y);
  73:H:/STM32H7/RGB_LVGL/Middlewares/LVGL/GUI/lvgl/src/core\lv_obj_style_gen.h ****     return (int32_t)v.num;
ARM GAS  C:\Users\28576\AppData\Local\Temp\ccCAaWBI.s 			page 25


  74:H:/STM32H7/RGB_LVGL/Middlewares/LVGL/GUI/lvgl/src/core\lv_obj_style_gen.h **** }
  75:H:/STM32H7/RGB_LVGL/Middlewares/LVGL/GUI/lvgl/src/core\lv_obj_style_gen.h **** 
  76:H:/STM32H7/RGB_LVGL/Middlewares/LVGL/GUI/lvgl/src/core\lv_obj_style_gen.h **** static inline lv_align_t lv_obj_get_style_align(const lv_obj_t * obj, lv_part_t part)
  77:H:/STM32H7/RGB_LVGL/Middlewares/LVGL/GUI/lvgl/src/core\lv_obj_style_gen.h **** {
  78:H:/STM32H7/RGB_LVGL/Middlewares/LVGL/GUI/lvgl/src/core\lv_obj_style_gen.h ****     lv_style_value_t v = lv_obj_get_style_prop(obj, part, LV_STYLE_ALIGN);
  79:H:/STM32H7/RGB_LVGL/Middlewares/LVGL/GUI/lvgl/src/core\lv_obj_style_gen.h ****     return (lv_align_t)v.num;
  80:H:/STM32H7/RGB_LVGL/Middlewares/LVGL/GUI/lvgl/src/core\lv_obj_style_gen.h **** }
  81:H:/STM32H7/RGB_LVGL/Middlewares/LVGL/GUI/lvgl/src/core\lv_obj_style_gen.h **** 
  82:H:/STM32H7/RGB_LVGL/Middlewares/LVGL/GUI/lvgl/src/core\lv_obj_style_gen.h **** static inline int32_t lv_obj_get_style_transform_width(const lv_obj_t * obj, lv_part_t part)
  83:H:/STM32H7/RGB_LVGL/Middlewares/LVGL/GUI/lvgl/src/core\lv_obj_style_gen.h **** {
  84:H:/STM32H7/RGB_LVGL/Middlewares/LVGL/GUI/lvgl/src/core\lv_obj_style_gen.h ****     lv_style_value_t v = lv_obj_get_style_prop(obj, part, LV_STYLE_TRANSFORM_WIDTH);
  85:H:/STM32H7/RGB_LVGL/Middlewares/LVGL/GUI/lvgl/src/core\lv_obj_style_gen.h ****     return (int32_t)v.num;
  86:H:/STM32H7/RGB_LVGL/Middlewares/LVGL/GUI/lvgl/src/core\lv_obj_style_gen.h **** }
  87:H:/STM32H7/RGB_LVGL/Middlewares/LVGL/GUI/lvgl/src/core\lv_obj_style_gen.h **** 
  88:H:/STM32H7/RGB_LVGL/Middlewares/LVGL/GUI/lvgl/src/core\lv_obj_style_gen.h **** static inline int32_t lv_obj_get_style_transform_height(const lv_obj_t * obj, lv_part_t part)
  89:H:/STM32H7/RGB_LVGL/Middlewares/LVGL/GUI/lvgl/src/core\lv_obj_style_gen.h **** {
  90:H:/STM32H7/RGB_LVGL/Middlewares/LVGL/GUI/lvgl/src/core\lv_obj_style_gen.h ****     lv_style_value_t v = lv_obj_get_style_prop(obj, part, LV_STYLE_TRANSFORM_HEIGHT);
  91:H:/STM32H7/RGB_LVGL/Middlewares/LVGL/GUI/lvgl/src/core\lv_obj_style_gen.h ****     return (int32_t)v.num;
  92:H:/STM32H7/RGB_LVGL/Middlewares/LVGL/GUI/lvgl/src/core\lv_obj_style_gen.h **** }
  93:H:/STM32H7/RGB_LVGL/Middlewares/LVGL/GUI/lvgl/src/core\lv_obj_style_gen.h **** 
  94:H:/STM32H7/RGB_LVGL/Middlewares/LVGL/GUI/lvgl/src/core\lv_obj_style_gen.h **** static inline int32_t lv_obj_get_style_translate_x(const lv_obj_t * obj, lv_part_t part)
  95:H:/STM32H7/RGB_LVGL/Middlewares/LVGL/GUI/lvgl/src/core\lv_obj_style_gen.h **** {
  96:H:/STM32H7/RGB_LVGL/Middlewares/LVGL/GUI/lvgl/src/core\lv_obj_style_gen.h ****     lv_style_value_t v = lv_obj_get_style_prop(obj, part, LV_STYLE_TRANSLATE_X);
  97:H:/STM32H7/RGB_LVGL/Middlewares/LVGL/GUI/lvgl/src/core\lv_obj_style_gen.h ****     return (int32_t)v.num;
  98:H:/STM32H7/RGB_LVGL/Middlewares/LVGL/GUI/lvgl/src/core\lv_obj_style_gen.h **** }
  99:H:/STM32H7/RGB_LVGL/Middlewares/LVGL/GUI/lvgl/src/core\lv_obj_style_gen.h **** 
 100:H:/STM32H7/RGB_LVGL/Middlewares/LVGL/GUI/lvgl/src/core\lv_obj_style_gen.h **** static inline int32_t lv_obj_get_style_translate_y(const lv_obj_t * obj, lv_part_t part)
 101:H:/STM32H7/RGB_LVGL/Middlewares/LVGL/GUI/lvgl/src/core\lv_obj_style_gen.h **** {
 102:H:/STM32H7/RGB_LVGL/Middlewares/LVGL/GUI/lvgl/src/core\lv_obj_style_gen.h ****     lv_style_value_t v = lv_obj_get_style_prop(obj, part, LV_STYLE_TRANSLATE_Y);
 103:H:/STM32H7/RGB_LVGL/Middlewares/LVGL/GUI/lvgl/src/core\lv_obj_style_gen.h ****     return (int32_t)v.num;
 104:H:/STM32H7/RGB_LVGL/Middlewares/LVGL/GUI/lvgl/src/core\lv_obj_style_gen.h **** }
 105:H:/STM32H7/RGB_LVGL/Middlewares/LVGL/GUI/lvgl/src/core\lv_obj_style_gen.h **** 
 106:H:/STM32H7/RGB_LVGL/Middlewares/LVGL/GUI/lvgl/src/core\lv_obj_style_gen.h **** static inline int32_t lv_obj_get_style_translate_radial(const lv_obj_t * obj, lv_part_t part)
 107:H:/STM32H7/RGB_LVGL/Middlewares/LVGL/GUI/lvgl/src/core\lv_obj_style_gen.h **** {
 108:H:/STM32H7/RGB_LVGL/Middlewares/LVGL/GUI/lvgl/src/core\lv_obj_style_gen.h ****     lv_style_value_t v = lv_obj_get_style_prop(obj, part, LV_STYLE_TRANSLATE_RADIAL);
 109:H:/STM32H7/RGB_LVGL/Middlewares/LVGL/GUI/lvgl/src/core\lv_obj_style_gen.h ****     return (int32_t)v.num;
 110:H:/STM32H7/RGB_LVGL/Middlewares/LVGL/GUI/lvgl/src/core\lv_obj_style_gen.h **** }
 111:H:/STM32H7/RGB_LVGL/Middlewares/LVGL/GUI/lvgl/src/core\lv_obj_style_gen.h **** 
 112:H:/STM32H7/RGB_LVGL/Middlewares/LVGL/GUI/lvgl/src/core\lv_obj_style_gen.h **** static inline int32_t lv_obj_get_style_transform_scale_x(const lv_obj_t * obj, lv_part_t part)
 113:H:/STM32H7/RGB_LVGL/Middlewares/LVGL/GUI/lvgl/src/core\lv_obj_style_gen.h **** {
 114:H:/STM32H7/RGB_LVGL/Middlewares/LVGL/GUI/lvgl/src/core\lv_obj_style_gen.h ****     lv_style_value_t v = lv_obj_get_style_prop(obj, part, LV_STYLE_TRANSFORM_SCALE_X);
 115:H:/STM32H7/RGB_LVGL/Middlewares/LVGL/GUI/lvgl/src/core\lv_obj_style_gen.h ****     return (int32_t)v.num;
 116:H:/STM32H7/RGB_LVGL/Middlewares/LVGL/GUI/lvgl/src/core\lv_obj_style_gen.h **** }
 117:H:/STM32H7/RGB_LVGL/Middlewares/LVGL/GUI/lvgl/src/core\lv_obj_style_gen.h **** 
 118:H:/STM32H7/RGB_LVGL/Middlewares/LVGL/GUI/lvgl/src/core\lv_obj_style_gen.h **** static inline int32_t lv_obj_get_style_transform_scale_y(const lv_obj_t * obj, lv_part_t part)
 119:H:/STM32H7/RGB_LVGL/Middlewares/LVGL/GUI/lvgl/src/core\lv_obj_style_gen.h **** {
 120:H:/STM32H7/RGB_LVGL/Middlewares/LVGL/GUI/lvgl/src/core\lv_obj_style_gen.h ****     lv_style_value_t v = lv_obj_get_style_prop(obj, part, LV_STYLE_TRANSFORM_SCALE_Y);
 121:H:/STM32H7/RGB_LVGL/Middlewares/LVGL/GUI/lvgl/src/core\lv_obj_style_gen.h ****     return (int32_t)v.num;
 122:H:/STM32H7/RGB_LVGL/Middlewares/LVGL/GUI/lvgl/src/core\lv_obj_style_gen.h **** }
 123:H:/STM32H7/RGB_LVGL/Middlewares/LVGL/GUI/lvgl/src/core\lv_obj_style_gen.h **** 
 124:H:/STM32H7/RGB_LVGL/Middlewares/LVGL/GUI/lvgl/src/core\lv_obj_style_gen.h **** static inline int32_t lv_obj_get_style_transform_rotation(const lv_obj_t * obj, lv_part_t part)
 125:H:/STM32H7/RGB_LVGL/Middlewares/LVGL/GUI/lvgl/src/core\lv_obj_style_gen.h **** {
 126:H:/STM32H7/RGB_LVGL/Middlewares/LVGL/GUI/lvgl/src/core\lv_obj_style_gen.h ****     lv_style_value_t v = lv_obj_get_style_prop(obj, part, LV_STYLE_TRANSFORM_ROTATION);
 127:H:/STM32H7/RGB_LVGL/Middlewares/LVGL/GUI/lvgl/src/core\lv_obj_style_gen.h ****     return (int32_t)v.num;
 128:H:/STM32H7/RGB_LVGL/Middlewares/LVGL/GUI/lvgl/src/core\lv_obj_style_gen.h **** }
 129:H:/STM32H7/RGB_LVGL/Middlewares/LVGL/GUI/lvgl/src/core\lv_obj_style_gen.h **** 
 130:H:/STM32H7/RGB_LVGL/Middlewares/LVGL/GUI/lvgl/src/core\lv_obj_style_gen.h **** static inline int32_t lv_obj_get_style_transform_pivot_x(const lv_obj_t * obj, lv_part_t part)
ARM GAS  C:\Users\28576\AppData\Local\Temp\ccCAaWBI.s 			page 26


 131:H:/STM32H7/RGB_LVGL/Middlewares/LVGL/GUI/lvgl/src/core\lv_obj_style_gen.h **** {
 132:H:/STM32H7/RGB_LVGL/Middlewares/LVGL/GUI/lvgl/src/core\lv_obj_style_gen.h ****     lv_style_value_t v = lv_obj_get_style_prop(obj, part, LV_STYLE_TRANSFORM_PIVOT_X);
 133:H:/STM32H7/RGB_LVGL/Middlewares/LVGL/GUI/lvgl/src/core\lv_obj_style_gen.h ****     return (int32_t)v.num;
 134:H:/STM32H7/RGB_LVGL/Middlewares/LVGL/GUI/lvgl/src/core\lv_obj_style_gen.h **** }
 135:H:/STM32H7/RGB_LVGL/Middlewares/LVGL/GUI/lvgl/src/core\lv_obj_style_gen.h **** 
 136:H:/STM32H7/RGB_LVGL/Middlewares/LVGL/GUI/lvgl/src/core\lv_obj_style_gen.h **** static inline int32_t lv_obj_get_style_transform_pivot_y(const lv_obj_t * obj, lv_part_t part)
 137:H:/STM32H7/RGB_LVGL/Middlewares/LVGL/GUI/lvgl/src/core\lv_obj_style_gen.h **** {
 138:H:/STM32H7/RGB_LVGL/Middlewares/LVGL/GUI/lvgl/src/core\lv_obj_style_gen.h ****     lv_style_value_t v = lv_obj_get_style_prop(obj, part, LV_STYLE_TRANSFORM_PIVOT_Y);
 139:H:/STM32H7/RGB_LVGL/Middlewares/LVGL/GUI/lvgl/src/core\lv_obj_style_gen.h ****     return (int32_t)v.num;
 140:H:/STM32H7/RGB_LVGL/Middlewares/LVGL/GUI/lvgl/src/core\lv_obj_style_gen.h **** }
 141:H:/STM32H7/RGB_LVGL/Middlewares/LVGL/GUI/lvgl/src/core\lv_obj_style_gen.h **** 
 142:H:/STM32H7/RGB_LVGL/Middlewares/LVGL/GUI/lvgl/src/core\lv_obj_style_gen.h **** static inline int32_t lv_obj_get_style_transform_skew_x(const lv_obj_t * obj, lv_part_t part)
 143:H:/STM32H7/RGB_LVGL/Middlewares/LVGL/GUI/lvgl/src/core\lv_obj_style_gen.h **** {
 144:H:/STM32H7/RGB_LVGL/Middlewares/LVGL/GUI/lvgl/src/core\lv_obj_style_gen.h ****     lv_style_value_t v = lv_obj_get_style_prop(obj, part, LV_STYLE_TRANSFORM_SKEW_X);
 145:H:/STM32H7/RGB_LVGL/Middlewares/LVGL/GUI/lvgl/src/core\lv_obj_style_gen.h ****     return (int32_t)v.num;
 146:H:/STM32H7/RGB_LVGL/Middlewares/LVGL/GUI/lvgl/src/core\lv_obj_style_gen.h **** }
 147:H:/STM32H7/RGB_LVGL/Middlewares/LVGL/GUI/lvgl/src/core\lv_obj_style_gen.h **** 
 148:H:/STM32H7/RGB_LVGL/Middlewares/LVGL/GUI/lvgl/src/core\lv_obj_style_gen.h **** static inline int32_t lv_obj_get_style_transform_skew_y(const lv_obj_t * obj, lv_part_t part)
 149:H:/STM32H7/RGB_LVGL/Middlewares/LVGL/GUI/lvgl/src/core\lv_obj_style_gen.h **** {
 150:H:/STM32H7/RGB_LVGL/Middlewares/LVGL/GUI/lvgl/src/core\lv_obj_style_gen.h ****     lv_style_value_t v = lv_obj_get_style_prop(obj, part, LV_STYLE_TRANSFORM_SKEW_Y);
 151:H:/STM32H7/RGB_LVGL/Middlewares/LVGL/GUI/lvgl/src/core\lv_obj_style_gen.h ****     return (int32_t)v.num;
 152:H:/STM32H7/RGB_LVGL/Middlewares/LVGL/GUI/lvgl/src/core\lv_obj_style_gen.h **** }
 153:H:/STM32H7/RGB_LVGL/Middlewares/LVGL/GUI/lvgl/src/core\lv_obj_style_gen.h **** 
 154:H:/STM32H7/RGB_LVGL/Middlewares/LVGL/GUI/lvgl/src/core\lv_obj_style_gen.h **** static inline int32_t lv_obj_get_style_pad_top(const lv_obj_t * obj, lv_part_t part)
 155:H:/STM32H7/RGB_LVGL/Middlewares/LVGL/GUI/lvgl/src/core\lv_obj_style_gen.h **** {
 156:H:/STM32H7/RGB_LVGL/Middlewares/LVGL/GUI/lvgl/src/core\lv_obj_style_gen.h ****     lv_style_value_t v = lv_obj_get_style_prop(obj, part, LV_STYLE_PAD_TOP);
 157:H:/STM32H7/RGB_LVGL/Middlewares/LVGL/GUI/lvgl/src/core\lv_obj_style_gen.h ****     return (int32_t)v.num;
 158:H:/STM32H7/RGB_LVGL/Middlewares/LVGL/GUI/lvgl/src/core\lv_obj_style_gen.h **** }
 159:H:/STM32H7/RGB_LVGL/Middlewares/LVGL/GUI/lvgl/src/core\lv_obj_style_gen.h **** 
 160:H:/STM32H7/RGB_LVGL/Middlewares/LVGL/GUI/lvgl/src/core\lv_obj_style_gen.h **** static inline int32_t lv_obj_get_style_pad_bottom(const lv_obj_t * obj, lv_part_t part)
 161:H:/STM32H7/RGB_LVGL/Middlewares/LVGL/GUI/lvgl/src/core\lv_obj_style_gen.h **** {
 162:H:/STM32H7/RGB_LVGL/Middlewares/LVGL/GUI/lvgl/src/core\lv_obj_style_gen.h ****     lv_style_value_t v = lv_obj_get_style_prop(obj, part, LV_STYLE_PAD_BOTTOM);
 163:H:/STM32H7/RGB_LVGL/Middlewares/LVGL/GUI/lvgl/src/core\lv_obj_style_gen.h ****     return (int32_t)v.num;
 164:H:/STM32H7/RGB_LVGL/Middlewares/LVGL/GUI/lvgl/src/core\lv_obj_style_gen.h **** }
 165:H:/STM32H7/RGB_LVGL/Middlewares/LVGL/GUI/lvgl/src/core\lv_obj_style_gen.h **** 
 166:H:/STM32H7/RGB_LVGL/Middlewares/LVGL/GUI/lvgl/src/core\lv_obj_style_gen.h **** static inline int32_t lv_obj_get_style_pad_left(const lv_obj_t * obj, lv_part_t part)
 167:H:/STM32H7/RGB_LVGL/Middlewares/LVGL/GUI/lvgl/src/core\lv_obj_style_gen.h **** {
 168:H:/STM32H7/RGB_LVGL/Middlewares/LVGL/GUI/lvgl/src/core\lv_obj_style_gen.h ****     lv_style_value_t v = lv_obj_get_style_prop(obj, part, LV_STYLE_PAD_LEFT);
 169:H:/STM32H7/RGB_LVGL/Middlewares/LVGL/GUI/lvgl/src/core\lv_obj_style_gen.h ****     return (int32_t)v.num;
 170:H:/STM32H7/RGB_LVGL/Middlewares/LVGL/GUI/lvgl/src/core\lv_obj_style_gen.h **** }
 171:H:/STM32H7/RGB_LVGL/Middlewares/LVGL/GUI/lvgl/src/core\lv_obj_style_gen.h **** 
 172:H:/STM32H7/RGB_LVGL/Middlewares/LVGL/GUI/lvgl/src/core\lv_obj_style_gen.h **** static inline int32_t lv_obj_get_style_pad_right(const lv_obj_t * obj, lv_part_t part)
 173:H:/STM32H7/RGB_LVGL/Middlewares/LVGL/GUI/lvgl/src/core\lv_obj_style_gen.h **** {
 174:H:/STM32H7/RGB_LVGL/Middlewares/LVGL/GUI/lvgl/src/core\lv_obj_style_gen.h ****     lv_style_value_t v = lv_obj_get_style_prop(obj, part, LV_STYLE_PAD_RIGHT);
 175:H:/STM32H7/RGB_LVGL/Middlewares/LVGL/GUI/lvgl/src/core\lv_obj_style_gen.h ****     return (int32_t)v.num;
 176:H:/STM32H7/RGB_LVGL/Middlewares/LVGL/GUI/lvgl/src/core\lv_obj_style_gen.h **** }
 177:H:/STM32H7/RGB_LVGL/Middlewares/LVGL/GUI/lvgl/src/core\lv_obj_style_gen.h **** 
 178:H:/STM32H7/RGB_LVGL/Middlewares/LVGL/GUI/lvgl/src/core\lv_obj_style_gen.h **** static inline int32_t lv_obj_get_style_pad_row(const lv_obj_t * obj, lv_part_t part)
 179:H:/STM32H7/RGB_LVGL/Middlewares/LVGL/GUI/lvgl/src/core\lv_obj_style_gen.h **** {
 180:H:/STM32H7/RGB_LVGL/Middlewares/LVGL/GUI/lvgl/src/core\lv_obj_style_gen.h ****     lv_style_value_t v = lv_obj_get_style_prop(obj, part, LV_STYLE_PAD_ROW);
 181:H:/STM32H7/RGB_LVGL/Middlewares/LVGL/GUI/lvgl/src/core\lv_obj_style_gen.h ****     return (int32_t)v.num;
 182:H:/STM32H7/RGB_LVGL/Middlewares/LVGL/GUI/lvgl/src/core\lv_obj_style_gen.h **** }
 183:H:/STM32H7/RGB_LVGL/Middlewares/LVGL/GUI/lvgl/src/core\lv_obj_style_gen.h **** 
 184:H:/STM32H7/RGB_LVGL/Middlewares/LVGL/GUI/lvgl/src/core\lv_obj_style_gen.h **** static inline int32_t lv_obj_get_style_pad_column(const lv_obj_t * obj, lv_part_t part)
 866              		.loc 2 184 23 view .LVU216
 867              	.LBB19:
 185:H:/STM32H7/RGB_LVGL/Middlewares/LVGL/GUI/lvgl/src/core\lv_obj_style_gen.h **** {
ARM GAS  C:\Users\28576\AppData\Local\Temp\ccCAaWBI.s 			page 27


 186:H:/STM32H7/RGB_LVGL/Middlewares/LVGL/GUI/lvgl/src/core\lv_obj_style_gen.h ****     lv_style_value_t v = lv_obj_get_style_prop(obj, part, LV_STYLE_PAD_COLUMN);
 868              		.loc 2 186 5 view .LVU217
 869              		.loc 2 186 26 is_stmt 0 view .LVU218
 870 0040 1522     		movs	r2, #21
 871 0042 0021     		movs	r1, #0
 872 0044 3846     		mov	r0, r7
 873 0046 FFF7FEFF 		bl	lv_obj_get_style_prop
 874              	.LVL109:
 875 004a 0746     		mov	r7, r0
 876              	.LVL110:
 877              		.loc 2 186 26 view .LVU219
 878 004c 0190     		str	r0, [sp, #4]
 187:H:/STM32H7/RGB_LVGL/Middlewares/LVGL/GUI/lvgl/src/core\lv_obj_style_gen.h ****     return (int32_t)v.num;
 879              		.loc 2 187 5 is_stmt 1 view .LVU220
 880              	.LVL111:
 881              		.loc 2 187 5 is_stmt 0 view .LVU221
 882              	.LBE19:
 883              	.LBE18:
 130:../../Middlewares/LVGL/GUI/lvgl/src/widgets/tabview/lv_tabview.c ****         if(lv_obj_get_style_base_dir(obj, LV_PART_MAIN) != LV_BASE_DIR_RTL) {
 884              		.loc 1 130 9 is_stmt 1 view .LVU222
 130:../../Middlewares/LVGL/GUI/lvgl/src/widgets/tabview/lv_tabview.c ****         if(lv_obj_get_style_base_dir(obj, LV_PART_MAIN) != LV_BASE_DIR_RTL) {
 885              		.loc 1 130 21 is_stmt 0 view .LVU223
 886 004e 4046     		mov	r0, r8
 887              	.LVL112:
 130:../../Middlewares/LVGL/GUI/lvgl/src/widgets/tabview/lv_tabview.c ****         if(lv_obj_get_style_base_dir(obj, LV_PART_MAIN) != LV_BASE_DIR_RTL) {
 888              		.loc 1 130 21 view .LVU224
 889 0050 FFF7FEFF 		bl	lv_obj_get_content_width
 890              	.LVL113:
 891 0054 8146     		mov	r9, r0
 892              	.LVL114:
 131:../../Middlewares/LVGL/GUI/lvgl/src/widgets/tabview/lv_tabview.c ****             lv_obj_scroll_to_x(cont, idx * (gap + w), anim_en);
 893              		.loc 1 131 9 is_stmt 1 view .LVU225
 894              	.LBB20:
 895              	.LBI20:
 188:H:/STM32H7/RGB_LVGL/Middlewares/LVGL/GUI/lvgl/src/core\lv_obj_style_gen.h **** }
 189:H:/STM32H7/RGB_LVGL/Middlewares/LVGL/GUI/lvgl/src/core\lv_obj_style_gen.h **** 
 190:H:/STM32H7/RGB_LVGL/Middlewares/LVGL/GUI/lvgl/src/core\lv_obj_style_gen.h **** static inline int32_t lv_obj_get_style_pad_radial(const lv_obj_t * obj, lv_part_t part)
 191:H:/STM32H7/RGB_LVGL/Middlewares/LVGL/GUI/lvgl/src/core\lv_obj_style_gen.h **** {
 192:H:/STM32H7/RGB_LVGL/Middlewares/LVGL/GUI/lvgl/src/core\lv_obj_style_gen.h ****     lv_style_value_t v = lv_obj_get_style_prop(obj, part, LV_STYLE_PAD_RADIAL);
 193:H:/STM32H7/RGB_LVGL/Middlewares/LVGL/GUI/lvgl/src/core\lv_obj_style_gen.h ****     return (int32_t)v.num;
 194:H:/STM32H7/RGB_LVGL/Middlewares/LVGL/GUI/lvgl/src/core\lv_obj_style_gen.h **** }
 195:H:/STM32H7/RGB_LVGL/Middlewares/LVGL/GUI/lvgl/src/core\lv_obj_style_gen.h **** 
 196:H:/STM32H7/RGB_LVGL/Middlewares/LVGL/GUI/lvgl/src/core\lv_obj_style_gen.h **** static inline int32_t lv_obj_get_style_margin_top(const lv_obj_t * obj, lv_part_t part)
 197:H:/STM32H7/RGB_LVGL/Middlewares/LVGL/GUI/lvgl/src/core\lv_obj_style_gen.h **** {
 198:H:/STM32H7/RGB_LVGL/Middlewares/LVGL/GUI/lvgl/src/core\lv_obj_style_gen.h ****     lv_style_value_t v = lv_obj_get_style_prop(obj, part, LV_STYLE_MARGIN_TOP);
 199:H:/STM32H7/RGB_LVGL/Middlewares/LVGL/GUI/lvgl/src/core\lv_obj_style_gen.h ****     return (int32_t)v.num;
 200:H:/STM32H7/RGB_LVGL/Middlewares/LVGL/GUI/lvgl/src/core\lv_obj_style_gen.h **** }
 201:H:/STM32H7/RGB_LVGL/Middlewares/LVGL/GUI/lvgl/src/core\lv_obj_style_gen.h **** 
 202:H:/STM32H7/RGB_LVGL/Middlewares/LVGL/GUI/lvgl/src/core\lv_obj_style_gen.h **** static inline int32_t lv_obj_get_style_margin_bottom(const lv_obj_t * obj, lv_part_t part)
 203:H:/STM32H7/RGB_LVGL/Middlewares/LVGL/GUI/lvgl/src/core\lv_obj_style_gen.h **** {
 204:H:/STM32H7/RGB_LVGL/Middlewares/LVGL/GUI/lvgl/src/core\lv_obj_style_gen.h ****     lv_style_value_t v = lv_obj_get_style_prop(obj, part, LV_STYLE_MARGIN_BOTTOM);
 205:H:/STM32H7/RGB_LVGL/Middlewares/LVGL/GUI/lvgl/src/core\lv_obj_style_gen.h ****     return (int32_t)v.num;
 206:H:/STM32H7/RGB_LVGL/Middlewares/LVGL/GUI/lvgl/src/core\lv_obj_style_gen.h **** }
 207:H:/STM32H7/RGB_LVGL/Middlewares/LVGL/GUI/lvgl/src/core\lv_obj_style_gen.h **** 
 208:H:/STM32H7/RGB_LVGL/Middlewares/LVGL/GUI/lvgl/src/core\lv_obj_style_gen.h **** static inline int32_t lv_obj_get_style_margin_left(const lv_obj_t * obj, lv_part_t part)
 209:H:/STM32H7/RGB_LVGL/Middlewares/LVGL/GUI/lvgl/src/core\lv_obj_style_gen.h **** {
 210:H:/STM32H7/RGB_LVGL/Middlewares/LVGL/GUI/lvgl/src/core\lv_obj_style_gen.h ****     lv_style_value_t v = lv_obj_get_style_prop(obj, part, LV_STYLE_MARGIN_LEFT);
ARM GAS  C:\Users\28576\AppData\Local\Temp\ccCAaWBI.s 			page 28


 211:H:/STM32H7/RGB_LVGL/Middlewares/LVGL/GUI/lvgl/src/core\lv_obj_style_gen.h ****     return (int32_t)v.num;
 212:H:/STM32H7/RGB_LVGL/Middlewares/LVGL/GUI/lvgl/src/core\lv_obj_style_gen.h **** }
 213:H:/STM32H7/RGB_LVGL/Middlewares/LVGL/GUI/lvgl/src/core\lv_obj_style_gen.h **** 
 214:H:/STM32H7/RGB_LVGL/Middlewares/LVGL/GUI/lvgl/src/core\lv_obj_style_gen.h **** static inline int32_t lv_obj_get_style_margin_right(const lv_obj_t * obj, lv_part_t part)
 215:H:/STM32H7/RGB_LVGL/Middlewares/LVGL/GUI/lvgl/src/core\lv_obj_style_gen.h **** {
 216:H:/STM32H7/RGB_LVGL/Middlewares/LVGL/GUI/lvgl/src/core\lv_obj_style_gen.h ****     lv_style_value_t v = lv_obj_get_style_prop(obj, part, LV_STYLE_MARGIN_RIGHT);
 217:H:/STM32H7/RGB_LVGL/Middlewares/LVGL/GUI/lvgl/src/core\lv_obj_style_gen.h ****     return (int32_t)v.num;
 218:H:/STM32H7/RGB_LVGL/Middlewares/LVGL/GUI/lvgl/src/core\lv_obj_style_gen.h **** }
 219:H:/STM32H7/RGB_LVGL/Middlewares/LVGL/GUI/lvgl/src/core\lv_obj_style_gen.h **** 
 220:H:/STM32H7/RGB_LVGL/Middlewares/LVGL/GUI/lvgl/src/core\lv_obj_style_gen.h **** static inline lv_color_t lv_obj_get_style_bg_color(const lv_obj_t * obj, lv_part_t part)
 221:H:/STM32H7/RGB_LVGL/Middlewares/LVGL/GUI/lvgl/src/core\lv_obj_style_gen.h **** {
 222:H:/STM32H7/RGB_LVGL/Middlewares/LVGL/GUI/lvgl/src/core\lv_obj_style_gen.h ****     lv_style_value_t v = lv_obj_get_style_prop(obj, part, LV_STYLE_BG_COLOR);
 223:H:/STM32H7/RGB_LVGL/Middlewares/LVGL/GUI/lvgl/src/core\lv_obj_style_gen.h ****     return v.color;
 224:H:/STM32H7/RGB_LVGL/Middlewares/LVGL/GUI/lvgl/src/core\lv_obj_style_gen.h **** }
 225:H:/STM32H7/RGB_LVGL/Middlewares/LVGL/GUI/lvgl/src/core\lv_obj_style_gen.h **** 
 226:H:/STM32H7/RGB_LVGL/Middlewares/LVGL/GUI/lvgl/src/core\lv_obj_style_gen.h **** static inline lv_color_t lv_obj_get_style_bg_color_filtered(const lv_obj_t * obj, lv_part_t part)
 227:H:/STM32H7/RGB_LVGL/Middlewares/LVGL/GUI/lvgl/src/core\lv_obj_style_gen.h **** {
 228:H:/STM32H7/RGB_LVGL/Middlewares/LVGL/GUI/lvgl/src/core\lv_obj_style_gen.h ****     lv_style_value_t v = lv_obj_style_apply_color_filter(obj, part, lv_obj_get_style_prop(obj, part
 229:H:/STM32H7/RGB_LVGL/Middlewares/LVGL/GUI/lvgl/src/core\lv_obj_style_gen.h ****     return v.color;
 230:H:/STM32H7/RGB_LVGL/Middlewares/LVGL/GUI/lvgl/src/core\lv_obj_style_gen.h **** }
 231:H:/STM32H7/RGB_LVGL/Middlewares/LVGL/GUI/lvgl/src/core\lv_obj_style_gen.h **** 
 232:H:/STM32H7/RGB_LVGL/Middlewares/LVGL/GUI/lvgl/src/core\lv_obj_style_gen.h **** static inline lv_opa_t lv_obj_get_style_bg_opa(const lv_obj_t * obj, lv_part_t part)
 233:H:/STM32H7/RGB_LVGL/Middlewares/LVGL/GUI/lvgl/src/core\lv_obj_style_gen.h **** {
 234:H:/STM32H7/RGB_LVGL/Middlewares/LVGL/GUI/lvgl/src/core\lv_obj_style_gen.h ****     lv_style_value_t v = lv_obj_get_style_prop(obj, part, LV_STYLE_BG_OPA);
 235:H:/STM32H7/RGB_LVGL/Middlewares/LVGL/GUI/lvgl/src/core\lv_obj_style_gen.h ****     return (lv_opa_t)v.num;
 236:H:/STM32H7/RGB_LVGL/Middlewares/LVGL/GUI/lvgl/src/core\lv_obj_style_gen.h **** }
 237:H:/STM32H7/RGB_LVGL/Middlewares/LVGL/GUI/lvgl/src/core\lv_obj_style_gen.h **** 
 238:H:/STM32H7/RGB_LVGL/Middlewares/LVGL/GUI/lvgl/src/core\lv_obj_style_gen.h **** static inline lv_color_t lv_obj_get_style_bg_grad_color(const lv_obj_t * obj, lv_part_t part)
 239:H:/STM32H7/RGB_LVGL/Middlewares/LVGL/GUI/lvgl/src/core\lv_obj_style_gen.h **** {
 240:H:/STM32H7/RGB_LVGL/Middlewares/LVGL/GUI/lvgl/src/core\lv_obj_style_gen.h ****     lv_style_value_t v = lv_obj_get_style_prop(obj, part, LV_STYLE_BG_GRAD_COLOR);
 241:H:/STM32H7/RGB_LVGL/Middlewares/LVGL/GUI/lvgl/src/core\lv_obj_style_gen.h ****     return v.color;
 242:H:/STM32H7/RGB_LVGL/Middlewares/LVGL/GUI/lvgl/src/core\lv_obj_style_gen.h **** }
 243:H:/STM32H7/RGB_LVGL/Middlewares/LVGL/GUI/lvgl/src/core\lv_obj_style_gen.h **** 
 244:H:/STM32H7/RGB_LVGL/Middlewares/LVGL/GUI/lvgl/src/core\lv_obj_style_gen.h **** static inline lv_color_t lv_obj_get_style_bg_grad_color_filtered(const lv_obj_t * obj, lv_part_t pa
 245:H:/STM32H7/RGB_LVGL/Middlewares/LVGL/GUI/lvgl/src/core\lv_obj_style_gen.h **** {
 246:H:/STM32H7/RGB_LVGL/Middlewares/LVGL/GUI/lvgl/src/core\lv_obj_style_gen.h ****     lv_style_value_t v = lv_obj_style_apply_color_filter(obj, part, lv_obj_get_style_prop(obj, part
 247:H:/STM32H7/RGB_LVGL/Middlewares/LVGL/GUI/lvgl/src/core\lv_obj_style_gen.h ****     return v.color;
 248:H:/STM32H7/RGB_LVGL/Middlewares/LVGL/GUI/lvgl/src/core\lv_obj_style_gen.h **** }
 249:H:/STM32H7/RGB_LVGL/Middlewares/LVGL/GUI/lvgl/src/core\lv_obj_style_gen.h **** 
 250:H:/STM32H7/RGB_LVGL/Middlewares/LVGL/GUI/lvgl/src/core\lv_obj_style_gen.h **** static inline lv_grad_dir_t lv_obj_get_style_bg_grad_dir(const lv_obj_t * obj, lv_part_t part)
 251:H:/STM32H7/RGB_LVGL/Middlewares/LVGL/GUI/lvgl/src/core\lv_obj_style_gen.h **** {
 252:H:/STM32H7/RGB_LVGL/Middlewares/LVGL/GUI/lvgl/src/core\lv_obj_style_gen.h ****     lv_style_value_t v = lv_obj_get_style_prop(obj, part, LV_STYLE_BG_GRAD_DIR);
 253:H:/STM32H7/RGB_LVGL/Middlewares/LVGL/GUI/lvgl/src/core\lv_obj_style_gen.h ****     return (lv_grad_dir_t)v.num;
 254:H:/STM32H7/RGB_LVGL/Middlewares/LVGL/GUI/lvgl/src/core\lv_obj_style_gen.h **** }
 255:H:/STM32H7/RGB_LVGL/Middlewares/LVGL/GUI/lvgl/src/core\lv_obj_style_gen.h **** 
 256:H:/STM32H7/RGB_LVGL/Middlewares/LVGL/GUI/lvgl/src/core\lv_obj_style_gen.h **** static inline int32_t lv_obj_get_style_bg_main_stop(const lv_obj_t * obj, lv_part_t part)
 257:H:/STM32H7/RGB_LVGL/Middlewares/LVGL/GUI/lvgl/src/core\lv_obj_style_gen.h **** {
 258:H:/STM32H7/RGB_LVGL/Middlewares/LVGL/GUI/lvgl/src/core\lv_obj_style_gen.h ****     lv_style_value_t v = lv_obj_get_style_prop(obj, part, LV_STYLE_BG_MAIN_STOP);
 259:H:/STM32H7/RGB_LVGL/Middlewares/LVGL/GUI/lvgl/src/core\lv_obj_style_gen.h ****     return (int32_t)v.num;
 260:H:/STM32H7/RGB_LVGL/Middlewares/LVGL/GUI/lvgl/src/core\lv_obj_style_gen.h **** }
 261:H:/STM32H7/RGB_LVGL/Middlewares/LVGL/GUI/lvgl/src/core\lv_obj_style_gen.h **** 
 262:H:/STM32H7/RGB_LVGL/Middlewares/LVGL/GUI/lvgl/src/core\lv_obj_style_gen.h **** static inline int32_t lv_obj_get_style_bg_grad_stop(const lv_obj_t * obj, lv_part_t part)
 263:H:/STM32H7/RGB_LVGL/Middlewares/LVGL/GUI/lvgl/src/core\lv_obj_style_gen.h **** {
 264:H:/STM32H7/RGB_LVGL/Middlewares/LVGL/GUI/lvgl/src/core\lv_obj_style_gen.h ****     lv_style_value_t v = lv_obj_get_style_prop(obj, part, LV_STYLE_BG_GRAD_STOP);
 265:H:/STM32H7/RGB_LVGL/Middlewares/LVGL/GUI/lvgl/src/core\lv_obj_style_gen.h ****     return (int32_t)v.num;
 266:H:/STM32H7/RGB_LVGL/Middlewares/LVGL/GUI/lvgl/src/core\lv_obj_style_gen.h **** }
 267:H:/STM32H7/RGB_LVGL/Middlewares/LVGL/GUI/lvgl/src/core\lv_obj_style_gen.h **** 
ARM GAS  C:\Users\28576\AppData\Local\Temp\ccCAaWBI.s 			page 29


 268:H:/STM32H7/RGB_LVGL/Middlewares/LVGL/GUI/lvgl/src/core\lv_obj_style_gen.h **** static inline lv_opa_t lv_obj_get_style_bg_main_opa(const lv_obj_t * obj, lv_part_t part)
 269:H:/STM32H7/RGB_LVGL/Middlewares/LVGL/GUI/lvgl/src/core\lv_obj_style_gen.h **** {
 270:H:/STM32H7/RGB_LVGL/Middlewares/LVGL/GUI/lvgl/src/core\lv_obj_style_gen.h ****     lv_style_value_t v = lv_obj_get_style_prop(obj, part, LV_STYLE_BG_MAIN_OPA);
 271:H:/STM32H7/RGB_LVGL/Middlewares/LVGL/GUI/lvgl/src/core\lv_obj_style_gen.h ****     return (lv_opa_t)v.num;
 272:H:/STM32H7/RGB_LVGL/Middlewares/LVGL/GUI/lvgl/src/core\lv_obj_style_gen.h **** }
 273:H:/STM32H7/RGB_LVGL/Middlewares/LVGL/GUI/lvgl/src/core\lv_obj_style_gen.h **** 
 274:H:/STM32H7/RGB_LVGL/Middlewares/LVGL/GUI/lvgl/src/core\lv_obj_style_gen.h **** static inline lv_opa_t lv_obj_get_style_bg_grad_opa(const lv_obj_t * obj, lv_part_t part)
 275:H:/STM32H7/RGB_LVGL/Middlewares/LVGL/GUI/lvgl/src/core\lv_obj_style_gen.h **** {
 276:H:/STM32H7/RGB_LVGL/Middlewares/LVGL/GUI/lvgl/src/core\lv_obj_style_gen.h ****     lv_style_value_t v = lv_obj_get_style_prop(obj, part, LV_STYLE_BG_GRAD_OPA);
 277:H:/STM32H7/RGB_LVGL/Middlewares/LVGL/GUI/lvgl/src/core\lv_obj_style_gen.h ****     return (lv_opa_t)v.num;
 278:H:/STM32H7/RGB_LVGL/Middlewares/LVGL/GUI/lvgl/src/core\lv_obj_style_gen.h **** }
 279:H:/STM32H7/RGB_LVGL/Middlewares/LVGL/GUI/lvgl/src/core\lv_obj_style_gen.h **** 
 280:H:/STM32H7/RGB_LVGL/Middlewares/LVGL/GUI/lvgl/src/core\lv_obj_style_gen.h **** static inline const lv_grad_dsc_t * lv_obj_get_style_bg_grad(const lv_obj_t * obj, lv_part_t part)
 281:H:/STM32H7/RGB_LVGL/Middlewares/LVGL/GUI/lvgl/src/core\lv_obj_style_gen.h **** {
 282:H:/STM32H7/RGB_LVGL/Middlewares/LVGL/GUI/lvgl/src/core\lv_obj_style_gen.h ****     lv_style_value_t v = lv_obj_get_style_prop(obj, part, LV_STYLE_BG_GRAD);
 283:H:/STM32H7/RGB_LVGL/Middlewares/LVGL/GUI/lvgl/src/core\lv_obj_style_gen.h ****     return (const lv_grad_dsc_t *)v.ptr;
 284:H:/STM32H7/RGB_LVGL/Middlewares/LVGL/GUI/lvgl/src/core\lv_obj_style_gen.h **** }
 285:H:/STM32H7/RGB_LVGL/Middlewares/LVGL/GUI/lvgl/src/core\lv_obj_style_gen.h **** 
 286:H:/STM32H7/RGB_LVGL/Middlewares/LVGL/GUI/lvgl/src/core\lv_obj_style_gen.h **** static inline const void * lv_obj_get_style_bg_image_src(const lv_obj_t * obj, lv_part_t part)
 287:H:/STM32H7/RGB_LVGL/Middlewares/LVGL/GUI/lvgl/src/core\lv_obj_style_gen.h **** {
 288:H:/STM32H7/RGB_LVGL/Middlewares/LVGL/GUI/lvgl/src/core\lv_obj_style_gen.h ****     lv_style_value_t v = lv_obj_get_style_prop(obj, part, LV_STYLE_BG_IMAGE_SRC);
 289:H:/STM32H7/RGB_LVGL/Middlewares/LVGL/GUI/lvgl/src/core\lv_obj_style_gen.h ****     return (const void *)v.ptr;
 290:H:/STM32H7/RGB_LVGL/Middlewares/LVGL/GUI/lvgl/src/core\lv_obj_style_gen.h **** }
 291:H:/STM32H7/RGB_LVGL/Middlewares/LVGL/GUI/lvgl/src/core\lv_obj_style_gen.h **** 
 292:H:/STM32H7/RGB_LVGL/Middlewares/LVGL/GUI/lvgl/src/core\lv_obj_style_gen.h **** static inline lv_opa_t lv_obj_get_style_bg_image_opa(const lv_obj_t * obj, lv_part_t part)
 293:H:/STM32H7/RGB_LVGL/Middlewares/LVGL/GUI/lvgl/src/core\lv_obj_style_gen.h **** {
 294:H:/STM32H7/RGB_LVGL/Middlewares/LVGL/GUI/lvgl/src/core\lv_obj_style_gen.h ****     lv_style_value_t v = lv_obj_get_style_prop(obj, part, LV_STYLE_BG_IMAGE_OPA);
 295:H:/STM32H7/RGB_LVGL/Middlewares/LVGL/GUI/lvgl/src/core\lv_obj_style_gen.h ****     return (lv_opa_t)v.num;
 296:H:/STM32H7/RGB_LVGL/Middlewares/LVGL/GUI/lvgl/src/core\lv_obj_style_gen.h **** }
 297:H:/STM32H7/RGB_LVGL/Middlewares/LVGL/GUI/lvgl/src/core\lv_obj_style_gen.h **** 
 298:H:/STM32H7/RGB_LVGL/Middlewares/LVGL/GUI/lvgl/src/core\lv_obj_style_gen.h **** static inline lv_color_t lv_obj_get_style_bg_image_recolor(const lv_obj_t * obj, lv_part_t part)
 299:H:/STM32H7/RGB_LVGL/Middlewares/LVGL/GUI/lvgl/src/core\lv_obj_style_gen.h **** {
 300:H:/STM32H7/RGB_LVGL/Middlewares/LVGL/GUI/lvgl/src/core\lv_obj_style_gen.h ****     lv_style_value_t v = lv_obj_get_style_prop(obj, part, LV_STYLE_BG_IMAGE_RECOLOR);
 301:H:/STM32H7/RGB_LVGL/Middlewares/LVGL/GUI/lvgl/src/core\lv_obj_style_gen.h ****     return v.color;
 302:H:/STM32H7/RGB_LVGL/Middlewares/LVGL/GUI/lvgl/src/core\lv_obj_style_gen.h **** }
 303:H:/STM32H7/RGB_LVGL/Middlewares/LVGL/GUI/lvgl/src/core\lv_obj_style_gen.h **** 
 304:H:/STM32H7/RGB_LVGL/Middlewares/LVGL/GUI/lvgl/src/core\lv_obj_style_gen.h **** static inline lv_color_t lv_obj_get_style_bg_image_recolor_filtered(const lv_obj_t * obj, lv_part_t
 305:H:/STM32H7/RGB_LVGL/Middlewares/LVGL/GUI/lvgl/src/core\lv_obj_style_gen.h **** {
 306:H:/STM32H7/RGB_LVGL/Middlewares/LVGL/GUI/lvgl/src/core\lv_obj_style_gen.h ****     lv_style_value_t v = lv_obj_style_apply_color_filter(obj, part, lv_obj_get_style_prop(obj, part
 307:H:/STM32H7/RGB_LVGL/Middlewares/LVGL/GUI/lvgl/src/core\lv_obj_style_gen.h ****     return v.color;
 308:H:/STM32H7/RGB_LVGL/Middlewares/LVGL/GUI/lvgl/src/core\lv_obj_style_gen.h **** }
 309:H:/STM32H7/RGB_LVGL/Middlewares/LVGL/GUI/lvgl/src/core\lv_obj_style_gen.h **** 
 310:H:/STM32H7/RGB_LVGL/Middlewares/LVGL/GUI/lvgl/src/core\lv_obj_style_gen.h **** static inline lv_opa_t lv_obj_get_style_bg_image_recolor_opa(const lv_obj_t * obj, lv_part_t part)
 311:H:/STM32H7/RGB_LVGL/Middlewares/LVGL/GUI/lvgl/src/core\lv_obj_style_gen.h **** {
 312:H:/STM32H7/RGB_LVGL/Middlewares/LVGL/GUI/lvgl/src/core\lv_obj_style_gen.h ****     lv_style_value_t v = lv_obj_get_style_prop(obj, part, LV_STYLE_BG_IMAGE_RECOLOR_OPA);
 313:H:/STM32H7/RGB_LVGL/Middlewares/LVGL/GUI/lvgl/src/core\lv_obj_style_gen.h ****     return (lv_opa_t)v.num;
 314:H:/STM32H7/RGB_LVGL/Middlewares/LVGL/GUI/lvgl/src/core\lv_obj_style_gen.h **** }
 315:H:/STM32H7/RGB_LVGL/Middlewares/LVGL/GUI/lvgl/src/core\lv_obj_style_gen.h **** 
 316:H:/STM32H7/RGB_LVGL/Middlewares/LVGL/GUI/lvgl/src/core\lv_obj_style_gen.h **** static inline bool lv_obj_get_style_bg_image_tiled(const lv_obj_t * obj, lv_part_t part)
 317:H:/STM32H7/RGB_LVGL/Middlewares/LVGL/GUI/lvgl/src/core\lv_obj_style_gen.h **** {
 318:H:/STM32H7/RGB_LVGL/Middlewares/LVGL/GUI/lvgl/src/core\lv_obj_style_gen.h ****     lv_style_value_t v = lv_obj_get_style_prop(obj, part, LV_STYLE_BG_IMAGE_TILED);
 319:H:/STM32H7/RGB_LVGL/Middlewares/LVGL/GUI/lvgl/src/core\lv_obj_style_gen.h ****     return (bool)v.num;
 320:H:/STM32H7/RGB_LVGL/Middlewares/LVGL/GUI/lvgl/src/core\lv_obj_style_gen.h **** }
 321:H:/STM32H7/RGB_LVGL/Middlewares/LVGL/GUI/lvgl/src/core\lv_obj_style_gen.h **** 
 322:H:/STM32H7/RGB_LVGL/Middlewares/LVGL/GUI/lvgl/src/core\lv_obj_style_gen.h **** static inline lv_color_t lv_obj_get_style_border_color(const lv_obj_t * obj, lv_part_t part)
 323:H:/STM32H7/RGB_LVGL/Middlewares/LVGL/GUI/lvgl/src/core\lv_obj_style_gen.h **** {
 324:H:/STM32H7/RGB_LVGL/Middlewares/LVGL/GUI/lvgl/src/core\lv_obj_style_gen.h ****     lv_style_value_t v = lv_obj_get_style_prop(obj, part, LV_STYLE_BORDER_COLOR);
ARM GAS  C:\Users\28576\AppData\Local\Temp\ccCAaWBI.s 			page 30


 325:H:/STM32H7/RGB_LVGL/Middlewares/LVGL/GUI/lvgl/src/core\lv_obj_style_gen.h ****     return v.color;
 326:H:/STM32H7/RGB_LVGL/Middlewares/LVGL/GUI/lvgl/src/core\lv_obj_style_gen.h **** }
 327:H:/STM32H7/RGB_LVGL/Middlewares/LVGL/GUI/lvgl/src/core\lv_obj_style_gen.h **** 
 328:H:/STM32H7/RGB_LVGL/Middlewares/LVGL/GUI/lvgl/src/core\lv_obj_style_gen.h **** static inline lv_color_t lv_obj_get_style_border_color_filtered(const lv_obj_t * obj, lv_part_t par
 329:H:/STM32H7/RGB_LVGL/Middlewares/LVGL/GUI/lvgl/src/core\lv_obj_style_gen.h **** {
 330:H:/STM32H7/RGB_LVGL/Middlewares/LVGL/GUI/lvgl/src/core\lv_obj_style_gen.h ****     lv_style_value_t v = lv_obj_style_apply_color_filter(obj, part, lv_obj_get_style_prop(obj, part
 331:H:/STM32H7/RGB_LVGL/Middlewares/LVGL/GUI/lvgl/src/core\lv_obj_style_gen.h ****     return v.color;
 332:H:/STM32H7/RGB_LVGL/Middlewares/LVGL/GUI/lvgl/src/core\lv_obj_style_gen.h **** }
 333:H:/STM32H7/RGB_LVGL/Middlewares/LVGL/GUI/lvgl/src/core\lv_obj_style_gen.h **** 
 334:H:/STM32H7/RGB_LVGL/Middlewares/LVGL/GUI/lvgl/src/core\lv_obj_style_gen.h **** static inline lv_opa_t lv_obj_get_style_border_opa(const lv_obj_t * obj, lv_part_t part)
 335:H:/STM32H7/RGB_LVGL/Middlewares/LVGL/GUI/lvgl/src/core\lv_obj_style_gen.h **** {
 336:H:/STM32H7/RGB_LVGL/Middlewares/LVGL/GUI/lvgl/src/core\lv_obj_style_gen.h ****     lv_style_value_t v = lv_obj_get_style_prop(obj, part, LV_STYLE_BORDER_OPA);
 337:H:/STM32H7/RGB_LVGL/Middlewares/LVGL/GUI/lvgl/src/core\lv_obj_style_gen.h ****     return (lv_opa_t)v.num;
 338:H:/STM32H7/RGB_LVGL/Middlewares/LVGL/GUI/lvgl/src/core\lv_obj_style_gen.h **** }
 339:H:/STM32H7/RGB_LVGL/Middlewares/LVGL/GUI/lvgl/src/core\lv_obj_style_gen.h **** 
 340:H:/STM32H7/RGB_LVGL/Middlewares/LVGL/GUI/lvgl/src/core\lv_obj_style_gen.h **** static inline int32_t lv_obj_get_style_border_width(const lv_obj_t * obj, lv_part_t part)
 341:H:/STM32H7/RGB_LVGL/Middlewares/LVGL/GUI/lvgl/src/core\lv_obj_style_gen.h **** {
 342:H:/STM32H7/RGB_LVGL/Middlewares/LVGL/GUI/lvgl/src/core\lv_obj_style_gen.h ****     lv_style_value_t v = lv_obj_get_style_prop(obj, part, LV_STYLE_BORDER_WIDTH);
 343:H:/STM32H7/RGB_LVGL/Middlewares/LVGL/GUI/lvgl/src/core\lv_obj_style_gen.h ****     return (int32_t)v.num;
 344:H:/STM32H7/RGB_LVGL/Middlewares/LVGL/GUI/lvgl/src/core\lv_obj_style_gen.h **** }
 345:H:/STM32H7/RGB_LVGL/Middlewares/LVGL/GUI/lvgl/src/core\lv_obj_style_gen.h **** 
 346:H:/STM32H7/RGB_LVGL/Middlewares/LVGL/GUI/lvgl/src/core\lv_obj_style_gen.h **** static inline lv_border_side_t lv_obj_get_style_border_side(const lv_obj_t * obj, lv_part_t part)
 347:H:/STM32H7/RGB_LVGL/Middlewares/LVGL/GUI/lvgl/src/core\lv_obj_style_gen.h **** {
 348:H:/STM32H7/RGB_LVGL/Middlewares/LVGL/GUI/lvgl/src/core\lv_obj_style_gen.h ****     lv_style_value_t v = lv_obj_get_style_prop(obj, part, LV_STYLE_BORDER_SIDE);
 349:H:/STM32H7/RGB_LVGL/Middlewares/LVGL/GUI/lvgl/src/core\lv_obj_style_gen.h ****     return (lv_border_side_t)v.num;
 350:H:/STM32H7/RGB_LVGL/Middlewares/LVGL/GUI/lvgl/src/core\lv_obj_style_gen.h **** }
 351:H:/STM32H7/RGB_LVGL/Middlewares/LVGL/GUI/lvgl/src/core\lv_obj_style_gen.h **** 
 352:H:/STM32H7/RGB_LVGL/Middlewares/LVGL/GUI/lvgl/src/core\lv_obj_style_gen.h **** static inline bool lv_obj_get_style_border_post(const lv_obj_t * obj, lv_part_t part)
 353:H:/STM32H7/RGB_LVGL/Middlewares/LVGL/GUI/lvgl/src/core\lv_obj_style_gen.h **** {
 354:H:/STM32H7/RGB_LVGL/Middlewares/LVGL/GUI/lvgl/src/core\lv_obj_style_gen.h ****     lv_style_value_t v = lv_obj_get_style_prop(obj, part, LV_STYLE_BORDER_POST);
 355:H:/STM32H7/RGB_LVGL/Middlewares/LVGL/GUI/lvgl/src/core\lv_obj_style_gen.h ****     return (bool)v.num;
 356:H:/STM32H7/RGB_LVGL/Middlewares/LVGL/GUI/lvgl/src/core\lv_obj_style_gen.h **** }
 357:H:/STM32H7/RGB_LVGL/Middlewares/LVGL/GUI/lvgl/src/core\lv_obj_style_gen.h **** 
 358:H:/STM32H7/RGB_LVGL/Middlewares/LVGL/GUI/lvgl/src/core\lv_obj_style_gen.h **** static inline int32_t lv_obj_get_style_outline_width(const lv_obj_t * obj, lv_part_t part)
 359:H:/STM32H7/RGB_LVGL/Middlewares/LVGL/GUI/lvgl/src/core\lv_obj_style_gen.h **** {
 360:H:/STM32H7/RGB_LVGL/Middlewares/LVGL/GUI/lvgl/src/core\lv_obj_style_gen.h ****     lv_style_value_t v = lv_obj_get_style_prop(obj, part, LV_STYLE_OUTLINE_WIDTH);
 361:H:/STM32H7/RGB_LVGL/Middlewares/LVGL/GUI/lvgl/src/core\lv_obj_style_gen.h ****     return (int32_t)v.num;
 362:H:/STM32H7/RGB_LVGL/Middlewares/LVGL/GUI/lvgl/src/core\lv_obj_style_gen.h **** }
 363:H:/STM32H7/RGB_LVGL/Middlewares/LVGL/GUI/lvgl/src/core\lv_obj_style_gen.h **** 
 364:H:/STM32H7/RGB_LVGL/Middlewares/LVGL/GUI/lvgl/src/core\lv_obj_style_gen.h **** static inline lv_color_t lv_obj_get_style_outline_color(const lv_obj_t * obj, lv_part_t part)
 365:H:/STM32H7/RGB_LVGL/Middlewares/LVGL/GUI/lvgl/src/core\lv_obj_style_gen.h **** {
 366:H:/STM32H7/RGB_LVGL/Middlewares/LVGL/GUI/lvgl/src/core\lv_obj_style_gen.h ****     lv_style_value_t v = lv_obj_get_style_prop(obj, part, LV_STYLE_OUTLINE_COLOR);
 367:H:/STM32H7/RGB_LVGL/Middlewares/LVGL/GUI/lvgl/src/core\lv_obj_style_gen.h ****     return v.color;
 368:H:/STM32H7/RGB_LVGL/Middlewares/LVGL/GUI/lvgl/src/core\lv_obj_style_gen.h **** }
 369:H:/STM32H7/RGB_LVGL/Middlewares/LVGL/GUI/lvgl/src/core\lv_obj_style_gen.h **** 
 370:H:/STM32H7/RGB_LVGL/Middlewares/LVGL/GUI/lvgl/src/core\lv_obj_style_gen.h **** static inline lv_color_t lv_obj_get_style_outline_color_filtered(const lv_obj_t * obj, lv_part_t pa
 371:H:/STM32H7/RGB_LVGL/Middlewares/LVGL/GUI/lvgl/src/core\lv_obj_style_gen.h **** {
 372:H:/STM32H7/RGB_LVGL/Middlewares/LVGL/GUI/lvgl/src/core\lv_obj_style_gen.h ****     lv_style_value_t v = lv_obj_style_apply_color_filter(obj, part, lv_obj_get_style_prop(obj, part
 373:H:/STM32H7/RGB_LVGL/Middlewares/LVGL/GUI/lvgl/src/core\lv_obj_style_gen.h ****     return v.color;
 374:H:/STM32H7/RGB_LVGL/Middlewares/LVGL/GUI/lvgl/src/core\lv_obj_style_gen.h **** }
 375:H:/STM32H7/RGB_LVGL/Middlewares/LVGL/GUI/lvgl/src/core\lv_obj_style_gen.h **** 
 376:H:/STM32H7/RGB_LVGL/Middlewares/LVGL/GUI/lvgl/src/core\lv_obj_style_gen.h **** static inline lv_opa_t lv_obj_get_style_outline_opa(const lv_obj_t * obj, lv_part_t part)
 377:H:/STM32H7/RGB_LVGL/Middlewares/LVGL/GUI/lvgl/src/core\lv_obj_style_gen.h **** {
 378:H:/STM32H7/RGB_LVGL/Middlewares/LVGL/GUI/lvgl/src/core\lv_obj_style_gen.h ****     lv_style_value_t v = lv_obj_get_style_prop(obj, part, LV_STYLE_OUTLINE_OPA);
 379:H:/STM32H7/RGB_LVGL/Middlewares/LVGL/GUI/lvgl/src/core\lv_obj_style_gen.h ****     return (lv_opa_t)v.num;
 380:H:/STM32H7/RGB_LVGL/Middlewares/LVGL/GUI/lvgl/src/core\lv_obj_style_gen.h **** }
 381:H:/STM32H7/RGB_LVGL/Middlewares/LVGL/GUI/lvgl/src/core\lv_obj_style_gen.h **** 
ARM GAS  C:\Users\28576\AppData\Local\Temp\ccCAaWBI.s 			page 31


 382:H:/STM32H7/RGB_LVGL/Middlewares/LVGL/GUI/lvgl/src/core\lv_obj_style_gen.h **** static inline int32_t lv_obj_get_style_outline_pad(const lv_obj_t * obj, lv_part_t part)
 383:H:/STM32H7/RGB_LVGL/Middlewares/LVGL/GUI/lvgl/src/core\lv_obj_style_gen.h **** {
 384:H:/STM32H7/RGB_LVGL/Middlewares/LVGL/GUI/lvgl/src/core\lv_obj_style_gen.h ****     lv_style_value_t v = lv_obj_get_style_prop(obj, part, LV_STYLE_OUTLINE_PAD);
 385:H:/STM32H7/RGB_LVGL/Middlewares/LVGL/GUI/lvgl/src/core\lv_obj_style_gen.h ****     return (int32_t)v.num;
 386:H:/STM32H7/RGB_LVGL/Middlewares/LVGL/GUI/lvgl/src/core\lv_obj_style_gen.h **** }
 387:H:/STM32H7/RGB_LVGL/Middlewares/LVGL/GUI/lvgl/src/core\lv_obj_style_gen.h **** 
 388:H:/STM32H7/RGB_LVGL/Middlewares/LVGL/GUI/lvgl/src/core\lv_obj_style_gen.h **** static inline int32_t lv_obj_get_style_shadow_width(const lv_obj_t * obj, lv_part_t part)
 389:H:/STM32H7/RGB_LVGL/Middlewares/LVGL/GUI/lvgl/src/core\lv_obj_style_gen.h **** {
 390:H:/STM32H7/RGB_LVGL/Middlewares/LVGL/GUI/lvgl/src/core\lv_obj_style_gen.h ****     lv_style_value_t v = lv_obj_get_style_prop(obj, part, LV_STYLE_SHADOW_WIDTH);
 391:H:/STM32H7/RGB_LVGL/Middlewares/LVGL/GUI/lvgl/src/core\lv_obj_style_gen.h ****     return (int32_t)v.num;
 392:H:/STM32H7/RGB_LVGL/Middlewares/LVGL/GUI/lvgl/src/core\lv_obj_style_gen.h **** }
 393:H:/STM32H7/RGB_LVGL/Middlewares/LVGL/GUI/lvgl/src/core\lv_obj_style_gen.h **** 
 394:H:/STM32H7/RGB_LVGL/Middlewares/LVGL/GUI/lvgl/src/core\lv_obj_style_gen.h **** static inline int32_t lv_obj_get_style_shadow_offset_x(const lv_obj_t * obj, lv_part_t part)
 395:H:/STM32H7/RGB_LVGL/Middlewares/LVGL/GUI/lvgl/src/core\lv_obj_style_gen.h **** {
 396:H:/STM32H7/RGB_LVGL/Middlewares/LVGL/GUI/lvgl/src/core\lv_obj_style_gen.h ****     lv_style_value_t v = lv_obj_get_style_prop(obj, part, LV_STYLE_SHADOW_OFFSET_X);
 397:H:/STM32H7/RGB_LVGL/Middlewares/LVGL/GUI/lvgl/src/core\lv_obj_style_gen.h ****     return (int32_t)v.num;
 398:H:/STM32H7/RGB_LVGL/Middlewares/LVGL/GUI/lvgl/src/core\lv_obj_style_gen.h **** }
 399:H:/STM32H7/RGB_LVGL/Middlewares/LVGL/GUI/lvgl/src/core\lv_obj_style_gen.h **** 
 400:H:/STM32H7/RGB_LVGL/Middlewares/LVGL/GUI/lvgl/src/core\lv_obj_style_gen.h **** static inline int32_t lv_obj_get_style_shadow_offset_y(const lv_obj_t * obj, lv_part_t part)
 401:H:/STM32H7/RGB_LVGL/Middlewares/LVGL/GUI/lvgl/src/core\lv_obj_style_gen.h **** {
 402:H:/STM32H7/RGB_LVGL/Middlewares/LVGL/GUI/lvgl/src/core\lv_obj_style_gen.h ****     lv_style_value_t v = lv_obj_get_style_prop(obj, part, LV_STYLE_SHADOW_OFFSET_Y);
 403:H:/STM32H7/RGB_LVGL/Middlewares/LVGL/GUI/lvgl/src/core\lv_obj_style_gen.h ****     return (int32_t)v.num;
 404:H:/STM32H7/RGB_LVGL/Middlewares/LVGL/GUI/lvgl/src/core\lv_obj_style_gen.h **** }
 405:H:/STM32H7/RGB_LVGL/Middlewares/LVGL/GUI/lvgl/src/core\lv_obj_style_gen.h **** 
 406:H:/STM32H7/RGB_LVGL/Middlewares/LVGL/GUI/lvgl/src/core\lv_obj_style_gen.h **** static inline int32_t lv_obj_get_style_shadow_spread(const lv_obj_t * obj, lv_part_t part)
 407:H:/STM32H7/RGB_LVGL/Middlewares/LVGL/GUI/lvgl/src/core\lv_obj_style_gen.h **** {
 408:H:/STM32H7/RGB_LVGL/Middlewares/LVGL/GUI/lvgl/src/core\lv_obj_style_gen.h ****     lv_style_value_t v = lv_obj_get_style_prop(obj, part, LV_STYLE_SHADOW_SPREAD);
 409:H:/STM32H7/RGB_LVGL/Middlewares/LVGL/GUI/lvgl/src/core\lv_obj_style_gen.h ****     return (int32_t)v.num;
 410:H:/STM32H7/RGB_LVGL/Middlewares/LVGL/GUI/lvgl/src/core\lv_obj_style_gen.h **** }
 411:H:/STM32H7/RGB_LVGL/Middlewares/LVGL/GUI/lvgl/src/core\lv_obj_style_gen.h **** 
 412:H:/STM32H7/RGB_LVGL/Middlewares/LVGL/GUI/lvgl/src/core\lv_obj_style_gen.h **** static inline lv_color_t lv_obj_get_style_shadow_color(const lv_obj_t * obj, lv_part_t part)
 413:H:/STM32H7/RGB_LVGL/Middlewares/LVGL/GUI/lvgl/src/core\lv_obj_style_gen.h **** {
 414:H:/STM32H7/RGB_LVGL/Middlewares/LVGL/GUI/lvgl/src/core\lv_obj_style_gen.h ****     lv_style_value_t v = lv_obj_get_style_prop(obj, part, LV_STYLE_SHADOW_COLOR);
 415:H:/STM32H7/RGB_LVGL/Middlewares/LVGL/GUI/lvgl/src/core\lv_obj_style_gen.h ****     return v.color;
 416:H:/STM32H7/RGB_LVGL/Middlewares/LVGL/GUI/lvgl/src/core\lv_obj_style_gen.h **** }
 417:H:/STM32H7/RGB_LVGL/Middlewares/LVGL/GUI/lvgl/src/core\lv_obj_style_gen.h **** 
 418:H:/STM32H7/RGB_LVGL/Middlewares/LVGL/GUI/lvgl/src/core\lv_obj_style_gen.h **** static inline lv_color_t lv_obj_get_style_shadow_color_filtered(const lv_obj_t * obj, lv_part_t par
 419:H:/STM32H7/RGB_LVGL/Middlewares/LVGL/GUI/lvgl/src/core\lv_obj_style_gen.h **** {
 420:H:/STM32H7/RGB_LVGL/Middlewares/LVGL/GUI/lvgl/src/core\lv_obj_style_gen.h ****     lv_style_value_t v = lv_obj_style_apply_color_filter(obj, part, lv_obj_get_style_prop(obj, part
 421:H:/STM32H7/RGB_LVGL/Middlewares/LVGL/GUI/lvgl/src/core\lv_obj_style_gen.h ****     return v.color;
 422:H:/STM32H7/RGB_LVGL/Middlewares/LVGL/GUI/lvgl/src/core\lv_obj_style_gen.h **** }
 423:H:/STM32H7/RGB_LVGL/Middlewares/LVGL/GUI/lvgl/src/core\lv_obj_style_gen.h **** 
 424:H:/STM32H7/RGB_LVGL/Middlewares/LVGL/GUI/lvgl/src/core\lv_obj_style_gen.h **** static inline lv_opa_t lv_obj_get_style_shadow_opa(const lv_obj_t * obj, lv_part_t part)
 425:H:/STM32H7/RGB_LVGL/Middlewares/LVGL/GUI/lvgl/src/core\lv_obj_style_gen.h **** {
 426:H:/STM32H7/RGB_LVGL/Middlewares/LVGL/GUI/lvgl/src/core\lv_obj_style_gen.h ****     lv_style_value_t v = lv_obj_get_style_prop(obj, part, LV_STYLE_SHADOW_OPA);
 427:H:/STM32H7/RGB_LVGL/Middlewares/LVGL/GUI/lvgl/src/core\lv_obj_style_gen.h ****     return (lv_opa_t)v.num;
 428:H:/STM32H7/RGB_LVGL/Middlewares/LVGL/GUI/lvgl/src/core\lv_obj_style_gen.h **** }
 429:H:/STM32H7/RGB_LVGL/Middlewares/LVGL/GUI/lvgl/src/core\lv_obj_style_gen.h **** 
 430:H:/STM32H7/RGB_LVGL/Middlewares/LVGL/GUI/lvgl/src/core\lv_obj_style_gen.h **** static inline lv_opa_t lv_obj_get_style_image_opa(const lv_obj_t * obj, lv_part_t part)
 431:H:/STM32H7/RGB_LVGL/Middlewares/LVGL/GUI/lvgl/src/core\lv_obj_style_gen.h **** {
 432:H:/STM32H7/RGB_LVGL/Middlewares/LVGL/GUI/lvgl/src/core\lv_obj_style_gen.h ****     lv_style_value_t v = lv_obj_get_style_prop(obj, part, LV_STYLE_IMAGE_OPA);
 433:H:/STM32H7/RGB_LVGL/Middlewares/LVGL/GUI/lvgl/src/core\lv_obj_style_gen.h ****     return (lv_opa_t)v.num;
 434:H:/STM32H7/RGB_LVGL/Middlewares/LVGL/GUI/lvgl/src/core\lv_obj_style_gen.h **** }
 435:H:/STM32H7/RGB_LVGL/Middlewares/LVGL/GUI/lvgl/src/core\lv_obj_style_gen.h **** 
 436:H:/STM32H7/RGB_LVGL/Middlewares/LVGL/GUI/lvgl/src/core\lv_obj_style_gen.h **** static inline lv_color_t lv_obj_get_style_image_recolor(const lv_obj_t * obj, lv_part_t part)
 437:H:/STM32H7/RGB_LVGL/Middlewares/LVGL/GUI/lvgl/src/core\lv_obj_style_gen.h **** {
 438:H:/STM32H7/RGB_LVGL/Middlewares/LVGL/GUI/lvgl/src/core\lv_obj_style_gen.h ****     lv_style_value_t v = lv_obj_get_style_prop(obj, part, LV_STYLE_IMAGE_RECOLOR);
ARM GAS  C:\Users\28576\AppData\Local\Temp\ccCAaWBI.s 			page 32


 439:H:/STM32H7/RGB_LVGL/Middlewares/LVGL/GUI/lvgl/src/core\lv_obj_style_gen.h ****     return v.color;
 440:H:/STM32H7/RGB_LVGL/Middlewares/LVGL/GUI/lvgl/src/core\lv_obj_style_gen.h **** }
 441:H:/STM32H7/RGB_LVGL/Middlewares/LVGL/GUI/lvgl/src/core\lv_obj_style_gen.h **** 
 442:H:/STM32H7/RGB_LVGL/Middlewares/LVGL/GUI/lvgl/src/core\lv_obj_style_gen.h **** static inline lv_color_t lv_obj_get_style_image_recolor_filtered(const lv_obj_t * obj, lv_part_t pa
 443:H:/STM32H7/RGB_LVGL/Middlewares/LVGL/GUI/lvgl/src/core\lv_obj_style_gen.h **** {
 444:H:/STM32H7/RGB_LVGL/Middlewares/LVGL/GUI/lvgl/src/core\lv_obj_style_gen.h ****     lv_style_value_t v = lv_obj_style_apply_color_filter(obj, part, lv_obj_get_style_prop(obj, part
 445:H:/STM32H7/RGB_LVGL/Middlewares/LVGL/GUI/lvgl/src/core\lv_obj_style_gen.h ****     return v.color;
 446:H:/STM32H7/RGB_LVGL/Middlewares/LVGL/GUI/lvgl/src/core\lv_obj_style_gen.h **** }
 447:H:/STM32H7/RGB_LVGL/Middlewares/LVGL/GUI/lvgl/src/core\lv_obj_style_gen.h **** 
 448:H:/STM32H7/RGB_LVGL/Middlewares/LVGL/GUI/lvgl/src/core\lv_obj_style_gen.h **** static inline lv_opa_t lv_obj_get_style_image_recolor_opa(const lv_obj_t * obj, lv_part_t part)
 449:H:/STM32H7/RGB_LVGL/Middlewares/LVGL/GUI/lvgl/src/core\lv_obj_style_gen.h **** {
 450:H:/STM32H7/RGB_LVGL/Middlewares/LVGL/GUI/lvgl/src/core\lv_obj_style_gen.h ****     lv_style_value_t v = lv_obj_get_style_prop(obj, part, LV_STYLE_IMAGE_RECOLOR_OPA);
 451:H:/STM32H7/RGB_LVGL/Middlewares/LVGL/GUI/lvgl/src/core\lv_obj_style_gen.h ****     return (lv_opa_t)v.num;
 452:H:/STM32H7/RGB_LVGL/Middlewares/LVGL/GUI/lvgl/src/core\lv_obj_style_gen.h **** }
 453:H:/STM32H7/RGB_LVGL/Middlewares/LVGL/GUI/lvgl/src/core\lv_obj_style_gen.h **** 
 454:H:/STM32H7/RGB_LVGL/Middlewares/LVGL/GUI/lvgl/src/core\lv_obj_style_gen.h **** static inline int32_t lv_obj_get_style_line_width(const lv_obj_t * obj, lv_part_t part)
 455:H:/STM32H7/RGB_LVGL/Middlewares/LVGL/GUI/lvgl/src/core\lv_obj_style_gen.h **** {
 456:H:/STM32H7/RGB_LVGL/Middlewares/LVGL/GUI/lvgl/src/core\lv_obj_style_gen.h ****     lv_style_value_t v = lv_obj_get_style_prop(obj, part, LV_STYLE_LINE_WIDTH);
 457:H:/STM32H7/RGB_LVGL/Middlewares/LVGL/GUI/lvgl/src/core\lv_obj_style_gen.h ****     return (int32_t)v.num;
 458:H:/STM32H7/RGB_LVGL/Middlewares/LVGL/GUI/lvgl/src/core\lv_obj_style_gen.h **** }
 459:H:/STM32H7/RGB_LVGL/Middlewares/LVGL/GUI/lvgl/src/core\lv_obj_style_gen.h **** 
 460:H:/STM32H7/RGB_LVGL/Middlewares/LVGL/GUI/lvgl/src/core\lv_obj_style_gen.h **** static inline int32_t lv_obj_get_style_line_dash_width(const lv_obj_t * obj, lv_part_t part)
 461:H:/STM32H7/RGB_LVGL/Middlewares/LVGL/GUI/lvgl/src/core\lv_obj_style_gen.h **** {
 462:H:/STM32H7/RGB_LVGL/Middlewares/LVGL/GUI/lvgl/src/core\lv_obj_style_gen.h ****     lv_style_value_t v = lv_obj_get_style_prop(obj, part, LV_STYLE_LINE_DASH_WIDTH);
 463:H:/STM32H7/RGB_LVGL/Middlewares/LVGL/GUI/lvgl/src/core\lv_obj_style_gen.h ****     return (int32_t)v.num;
 464:H:/STM32H7/RGB_LVGL/Middlewares/LVGL/GUI/lvgl/src/core\lv_obj_style_gen.h **** }
 465:H:/STM32H7/RGB_LVGL/Middlewares/LVGL/GUI/lvgl/src/core\lv_obj_style_gen.h **** 
 466:H:/STM32H7/RGB_LVGL/Middlewares/LVGL/GUI/lvgl/src/core\lv_obj_style_gen.h **** static inline int32_t lv_obj_get_style_line_dash_gap(const lv_obj_t * obj, lv_part_t part)
 467:H:/STM32H7/RGB_LVGL/Middlewares/LVGL/GUI/lvgl/src/core\lv_obj_style_gen.h **** {
 468:H:/STM32H7/RGB_LVGL/Middlewares/LVGL/GUI/lvgl/src/core\lv_obj_style_gen.h ****     lv_style_value_t v = lv_obj_get_style_prop(obj, part, LV_STYLE_LINE_DASH_GAP);
 469:H:/STM32H7/RGB_LVGL/Middlewares/LVGL/GUI/lvgl/src/core\lv_obj_style_gen.h ****     return (int32_t)v.num;
 470:H:/STM32H7/RGB_LVGL/Middlewares/LVGL/GUI/lvgl/src/core\lv_obj_style_gen.h **** }
 471:H:/STM32H7/RGB_LVGL/Middlewares/LVGL/GUI/lvgl/src/core\lv_obj_style_gen.h **** 
 472:H:/STM32H7/RGB_LVGL/Middlewares/LVGL/GUI/lvgl/src/core\lv_obj_style_gen.h **** static inline bool lv_obj_get_style_line_rounded(const lv_obj_t * obj, lv_part_t part)
 473:H:/STM32H7/RGB_LVGL/Middlewares/LVGL/GUI/lvgl/src/core\lv_obj_style_gen.h **** {
 474:H:/STM32H7/RGB_LVGL/Middlewares/LVGL/GUI/lvgl/src/core\lv_obj_style_gen.h ****     lv_style_value_t v = lv_obj_get_style_prop(obj, part, LV_STYLE_LINE_ROUNDED);
 475:H:/STM32H7/RGB_LVGL/Middlewares/LVGL/GUI/lvgl/src/core\lv_obj_style_gen.h ****     return (bool)v.num;
 476:H:/STM32H7/RGB_LVGL/Middlewares/LVGL/GUI/lvgl/src/core\lv_obj_style_gen.h **** }
 477:H:/STM32H7/RGB_LVGL/Middlewares/LVGL/GUI/lvgl/src/core\lv_obj_style_gen.h **** 
 478:H:/STM32H7/RGB_LVGL/Middlewares/LVGL/GUI/lvgl/src/core\lv_obj_style_gen.h **** static inline lv_color_t lv_obj_get_style_line_color(const lv_obj_t * obj, lv_part_t part)
 479:H:/STM32H7/RGB_LVGL/Middlewares/LVGL/GUI/lvgl/src/core\lv_obj_style_gen.h **** {
 480:H:/STM32H7/RGB_LVGL/Middlewares/LVGL/GUI/lvgl/src/core\lv_obj_style_gen.h ****     lv_style_value_t v = lv_obj_get_style_prop(obj, part, LV_STYLE_LINE_COLOR);
 481:H:/STM32H7/RGB_LVGL/Middlewares/LVGL/GUI/lvgl/src/core\lv_obj_style_gen.h ****     return v.color;
 482:H:/STM32H7/RGB_LVGL/Middlewares/LVGL/GUI/lvgl/src/core\lv_obj_style_gen.h **** }
 483:H:/STM32H7/RGB_LVGL/Middlewares/LVGL/GUI/lvgl/src/core\lv_obj_style_gen.h **** 
 484:H:/STM32H7/RGB_LVGL/Middlewares/LVGL/GUI/lvgl/src/core\lv_obj_style_gen.h **** static inline lv_color_t lv_obj_get_style_line_color_filtered(const lv_obj_t * obj, lv_part_t part)
 485:H:/STM32H7/RGB_LVGL/Middlewares/LVGL/GUI/lvgl/src/core\lv_obj_style_gen.h **** {
 486:H:/STM32H7/RGB_LVGL/Middlewares/LVGL/GUI/lvgl/src/core\lv_obj_style_gen.h ****     lv_style_value_t v = lv_obj_style_apply_color_filter(obj, part, lv_obj_get_style_prop(obj, part
 487:H:/STM32H7/RGB_LVGL/Middlewares/LVGL/GUI/lvgl/src/core\lv_obj_style_gen.h ****     return v.color;
 488:H:/STM32H7/RGB_LVGL/Middlewares/LVGL/GUI/lvgl/src/core\lv_obj_style_gen.h **** }
 489:H:/STM32H7/RGB_LVGL/Middlewares/LVGL/GUI/lvgl/src/core\lv_obj_style_gen.h **** 
 490:H:/STM32H7/RGB_LVGL/Middlewares/LVGL/GUI/lvgl/src/core\lv_obj_style_gen.h **** static inline lv_opa_t lv_obj_get_style_line_opa(const lv_obj_t * obj, lv_part_t part)
 491:H:/STM32H7/RGB_LVGL/Middlewares/LVGL/GUI/lvgl/src/core\lv_obj_style_gen.h **** {
 492:H:/STM32H7/RGB_LVGL/Middlewares/LVGL/GUI/lvgl/src/core\lv_obj_style_gen.h ****     lv_style_value_t v = lv_obj_get_style_prop(obj, part, LV_STYLE_LINE_OPA);
 493:H:/STM32H7/RGB_LVGL/Middlewares/LVGL/GUI/lvgl/src/core\lv_obj_style_gen.h ****     return (lv_opa_t)v.num;
 494:H:/STM32H7/RGB_LVGL/Middlewares/LVGL/GUI/lvgl/src/core\lv_obj_style_gen.h **** }
 495:H:/STM32H7/RGB_LVGL/Middlewares/LVGL/GUI/lvgl/src/core\lv_obj_style_gen.h **** 
ARM GAS  C:\Users\28576\AppData\Local\Temp\ccCAaWBI.s 			page 33


 496:H:/STM32H7/RGB_LVGL/Middlewares/LVGL/GUI/lvgl/src/core\lv_obj_style_gen.h **** static inline int32_t lv_obj_get_style_arc_width(const lv_obj_t * obj, lv_part_t part)
 497:H:/STM32H7/RGB_LVGL/Middlewares/LVGL/GUI/lvgl/src/core\lv_obj_style_gen.h **** {
 498:H:/STM32H7/RGB_LVGL/Middlewares/LVGL/GUI/lvgl/src/core\lv_obj_style_gen.h ****     lv_style_value_t v = lv_obj_get_style_prop(obj, part, LV_STYLE_ARC_WIDTH);
 499:H:/STM32H7/RGB_LVGL/Middlewares/LVGL/GUI/lvgl/src/core\lv_obj_style_gen.h ****     return (int32_t)v.num;
 500:H:/STM32H7/RGB_LVGL/Middlewares/LVGL/GUI/lvgl/src/core\lv_obj_style_gen.h **** }
 501:H:/STM32H7/RGB_LVGL/Middlewares/LVGL/GUI/lvgl/src/core\lv_obj_style_gen.h **** 
 502:H:/STM32H7/RGB_LVGL/Middlewares/LVGL/GUI/lvgl/src/core\lv_obj_style_gen.h **** static inline bool lv_obj_get_style_arc_rounded(const lv_obj_t * obj, lv_part_t part)
 503:H:/STM32H7/RGB_LVGL/Middlewares/LVGL/GUI/lvgl/src/core\lv_obj_style_gen.h **** {
 504:H:/STM32H7/RGB_LVGL/Middlewares/LVGL/GUI/lvgl/src/core\lv_obj_style_gen.h ****     lv_style_value_t v = lv_obj_get_style_prop(obj, part, LV_STYLE_ARC_ROUNDED);
 505:H:/STM32H7/RGB_LVGL/Middlewares/LVGL/GUI/lvgl/src/core\lv_obj_style_gen.h ****     return (bool)v.num;
 506:H:/STM32H7/RGB_LVGL/Middlewares/LVGL/GUI/lvgl/src/core\lv_obj_style_gen.h **** }
 507:H:/STM32H7/RGB_LVGL/Middlewares/LVGL/GUI/lvgl/src/core\lv_obj_style_gen.h **** 
 508:H:/STM32H7/RGB_LVGL/Middlewares/LVGL/GUI/lvgl/src/core\lv_obj_style_gen.h **** static inline lv_color_t lv_obj_get_style_arc_color(const lv_obj_t * obj, lv_part_t part)
 509:H:/STM32H7/RGB_LVGL/Middlewares/LVGL/GUI/lvgl/src/core\lv_obj_style_gen.h **** {
 510:H:/STM32H7/RGB_LVGL/Middlewares/LVGL/GUI/lvgl/src/core\lv_obj_style_gen.h ****     lv_style_value_t v = lv_obj_get_style_prop(obj, part, LV_STYLE_ARC_COLOR);
 511:H:/STM32H7/RGB_LVGL/Middlewares/LVGL/GUI/lvgl/src/core\lv_obj_style_gen.h ****     return v.color;
 512:H:/STM32H7/RGB_LVGL/Middlewares/LVGL/GUI/lvgl/src/core\lv_obj_style_gen.h **** }
 513:H:/STM32H7/RGB_LVGL/Middlewares/LVGL/GUI/lvgl/src/core\lv_obj_style_gen.h **** 
 514:H:/STM32H7/RGB_LVGL/Middlewares/LVGL/GUI/lvgl/src/core\lv_obj_style_gen.h **** static inline lv_color_t lv_obj_get_style_arc_color_filtered(const lv_obj_t * obj, lv_part_t part)
 515:H:/STM32H7/RGB_LVGL/Middlewares/LVGL/GUI/lvgl/src/core\lv_obj_style_gen.h **** {
 516:H:/STM32H7/RGB_LVGL/Middlewares/LVGL/GUI/lvgl/src/core\lv_obj_style_gen.h ****     lv_style_value_t v = lv_obj_style_apply_color_filter(obj, part, lv_obj_get_style_prop(obj, part
 517:H:/STM32H7/RGB_LVGL/Middlewares/LVGL/GUI/lvgl/src/core\lv_obj_style_gen.h ****     return v.color;
 518:H:/STM32H7/RGB_LVGL/Middlewares/LVGL/GUI/lvgl/src/core\lv_obj_style_gen.h **** }
 519:H:/STM32H7/RGB_LVGL/Middlewares/LVGL/GUI/lvgl/src/core\lv_obj_style_gen.h **** 
 520:H:/STM32H7/RGB_LVGL/Middlewares/LVGL/GUI/lvgl/src/core\lv_obj_style_gen.h **** static inline lv_opa_t lv_obj_get_style_arc_opa(const lv_obj_t * obj, lv_part_t part)
 521:H:/STM32H7/RGB_LVGL/Middlewares/LVGL/GUI/lvgl/src/core\lv_obj_style_gen.h **** {
 522:H:/STM32H7/RGB_LVGL/Middlewares/LVGL/GUI/lvgl/src/core\lv_obj_style_gen.h ****     lv_style_value_t v = lv_obj_get_style_prop(obj, part, LV_STYLE_ARC_OPA);
 523:H:/STM32H7/RGB_LVGL/Middlewares/LVGL/GUI/lvgl/src/core\lv_obj_style_gen.h ****     return (lv_opa_t)v.num;
 524:H:/STM32H7/RGB_LVGL/Middlewares/LVGL/GUI/lvgl/src/core\lv_obj_style_gen.h **** }
 525:H:/STM32H7/RGB_LVGL/Middlewares/LVGL/GUI/lvgl/src/core\lv_obj_style_gen.h **** 
 526:H:/STM32H7/RGB_LVGL/Middlewares/LVGL/GUI/lvgl/src/core\lv_obj_style_gen.h **** static inline const void * lv_obj_get_style_arc_image_src(const lv_obj_t * obj, lv_part_t part)
 527:H:/STM32H7/RGB_LVGL/Middlewares/LVGL/GUI/lvgl/src/core\lv_obj_style_gen.h **** {
 528:H:/STM32H7/RGB_LVGL/Middlewares/LVGL/GUI/lvgl/src/core\lv_obj_style_gen.h ****     lv_style_value_t v = lv_obj_get_style_prop(obj, part, LV_STYLE_ARC_IMAGE_SRC);
 529:H:/STM32H7/RGB_LVGL/Middlewares/LVGL/GUI/lvgl/src/core\lv_obj_style_gen.h ****     return (const void *)v.ptr;
 530:H:/STM32H7/RGB_LVGL/Middlewares/LVGL/GUI/lvgl/src/core\lv_obj_style_gen.h **** }
 531:H:/STM32H7/RGB_LVGL/Middlewares/LVGL/GUI/lvgl/src/core\lv_obj_style_gen.h **** 
 532:H:/STM32H7/RGB_LVGL/Middlewares/LVGL/GUI/lvgl/src/core\lv_obj_style_gen.h **** static inline lv_color_t lv_obj_get_style_text_color(const lv_obj_t * obj, lv_part_t part)
 533:H:/STM32H7/RGB_LVGL/Middlewares/LVGL/GUI/lvgl/src/core\lv_obj_style_gen.h **** {
 534:H:/STM32H7/RGB_LVGL/Middlewares/LVGL/GUI/lvgl/src/core\lv_obj_style_gen.h ****     lv_style_value_t v = lv_obj_get_style_prop(obj, part, LV_STYLE_TEXT_COLOR);
 535:H:/STM32H7/RGB_LVGL/Middlewares/LVGL/GUI/lvgl/src/core\lv_obj_style_gen.h ****     return v.color;
 536:H:/STM32H7/RGB_LVGL/Middlewares/LVGL/GUI/lvgl/src/core\lv_obj_style_gen.h **** }
 537:H:/STM32H7/RGB_LVGL/Middlewares/LVGL/GUI/lvgl/src/core\lv_obj_style_gen.h **** 
 538:H:/STM32H7/RGB_LVGL/Middlewares/LVGL/GUI/lvgl/src/core\lv_obj_style_gen.h **** static inline lv_color_t lv_obj_get_style_text_color_filtered(const lv_obj_t * obj, lv_part_t part)
 539:H:/STM32H7/RGB_LVGL/Middlewares/LVGL/GUI/lvgl/src/core\lv_obj_style_gen.h **** {
 540:H:/STM32H7/RGB_LVGL/Middlewares/LVGL/GUI/lvgl/src/core\lv_obj_style_gen.h ****     lv_style_value_t v = lv_obj_style_apply_color_filter(obj, part, lv_obj_get_style_prop(obj, part
 541:H:/STM32H7/RGB_LVGL/Middlewares/LVGL/GUI/lvgl/src/core\lv_obj_style_gen.h ****     return v.color;
 542:H:/STM32H7/RGB_LVGL/Middlewares/LVGL/GUI/lvgl/src/core\lv_obj_style_gen.h **** }
 543:H:/STM32H7/RGB_LVGL/Middlewares/LVGL/GUI/lvgl/src/core\lv_obj_style_gen.h **** 
 544:H:/STM32H7/RGB_LVGL/Middlewares/LVGL/GUI/lvgl/src/core\lv_obj_style_gen.h **** static inline lv_opa_t lv_obj_get_style_text_opa(const lv_obj_t * obj, lv_part_t part)
 545:H:/STM32H7/RGB_LVGL/Middlewares/LVGL/GUI/lvgl/src/core\lv_obj_style_gen.h **** {
 546:H:/STM32H7/RGB_LVGL/Middlewares/LVGL/GUI/lvgl/src/core\lv_obj_style_gen.h ****     lv_style_value_t v = lv_obj_get_style_prop(obj, part, LV_STYLE_TEXT_OPA);
 547:H:/STM32H7/RGB_LVGL/Middlewares/LVGL/GUI/lvgl/src/core\lv_obj_style_gen.h ****     return (lv_opa_t)v.num;
 548:H:/STM32H7/RGB_LVGL/Middlewares/LVGL/GUI/lvgl/src/core\lv_obj_style_gen.h **** }
 549:H:/STM32H7/RGB_LVGL/Middlewares/LVGL/GUI/lvgl/src/core\lv_obj_style_gen.h **** 
 550:H:/STM32H7/RGB_LVGL/Middlewares/LVGL/GUI/lvgl/src/core\lv_obj_style_gen.h **** static inline const lv_font_t * lv_obj_get_style_text_font(const lv_obj_t * obj, lv_part_t part)
 551:H:/STM32H7/RGB_LVGL/Middlewares/LVGL/GUI/lvgl/src/core\lv_obj_style_gen.h **** {
 552:H:/STM32H7/RGB_LVGL/Middlewares/LVGL/GUI/lvgl/src/core\lv_obj_style_gen.h ****     lv_style_value_t v = lv_obj_get_style_prop(obj, part, LV_STYLE_TEXT_FONT);
ARM GAS  C:\Users\28576\AppData\Local\Temp\ccCAaWBI.s 			page 34


 553:H:/STM32H7/RGB_LVGL/Middlewares/LVGL/GUI/lvgl/src/core\lv_obj_style_gen.h ****     return (const lv_font_t *)v.ptr;
 554:H:/STM32H7/RGB_LVGL/Middlewares/LVGL/GUI/lvgl/src/core\lv_obj_style_gen.h **** }
 555:H:/STM32H7/RGB_LVGL/Middlewares/LVGL/GUI/lvgl/src/core\lv_obj_style_gen.h **** 
 556:H:/STM32H7/RGB_LVGL/Middlewares/LVGL/GUI/lvgl/src/core\lv_obj_style_gen.h **** static inline int32_t lv_obj_get_style_text_letter_space(const lv_obj_t * obj, lv_part_t part)
 557:H:/STM32H7/RGB_LVGL/Middlewares/LVGL/GUI/lvgl/src/core\lv_obj_style_gen.h **** {
 558:H:/STM32H7/RGB_LVGL/Middlewares/LVGL/GUI/lvgl/src/core\lv_obj_style_gen.h ****     lv_style_value_t v = lv_obj_get_style_prop(obj, part, LV_STYLE_TEXT_LETTER_SPACE);
 559:H:/STM32H7/RGB_LVGL/Middlewares/LVGL/GUI/lvgl/src/core\lv_obj_style_gen.h ****     return (int32_t)v.num;
 560:H:/STM32H7/RGB_LVGL/Middlewares/LVGL/GUI/lvgl/src/core\lv_obj_style_gen.h **** }
 561:H:/STM32H7/RGB_LVGL/Middlewares/LVGL/GUI/lvgl/src/core\lv_obj_style_gen.h **** 
 562:H:/STM32H7/RGB_LVGL/Middlewares/LVGL/GUI/lvgl/src/core\lv_obj_style_gen.h **** static inline int32_t lv_obj_get_style_text_line_space(const lv_obj_t * obj, lv_part_t part)
 563:H:/STM32H7/RGB_LVGL/Middlewares/LVGL/GUI/lvgl/src/core\lv_obj_style_gen.h **** {
 564:H:/STM32H7/RGB_LVGL/Middlewares/LVGL/GUI/lvgl/src/core\lv_obj_style_gen.h ****     lv_style_value_t v = lv_obj_get_style_prop(obj, part, LV_STYLE_TEXT_LINE_SPACE);
 565:H:/STM32H7/RGB_LVGL/Middlewares/LVGL/GUI/lvgl/src/core\lv_obj_style_gen.h ****     return (int32_t)v.num;
 566:H:/STM32H7/RGB_LVGL/Middlewares/LVGL/GUI/lvgl/src/core\lv_obj_style_gen.h **** }
 567:H:/STM32H7/RGB_LVGL/Middlewares/LVGL/GUI/lvgl/src/core\lv_obj_style_gen.h **** 
 568:H:/STM32H7/RGB_LVGL/Middlewares/LVGL/GUI/lvgl/src/core\lv_obj_style_gen.h **** static inline lv_text_decor_t lv_obj_get_style_text_decor(const lv_obj_t * obj, lv_part_t part)
 569:H:/STM32H7/RGB_LVGL/Middlewares/LVGL/GUI/lvgl/src/core\lv_obj_style_gen.h **** {
 570:H:/STM32H7/RGB_LVGL/Middlewares/LVGL/GUI/lvgl/src/core\lv_obj_style_gen.h ****     lv_style_value_t v = lv_obj_get_style_prop(obj, part, LV_STYLE_TEXT_DECOR);
 571:H:/STM32H7/RGB_LVGL/Middlewares/LVGL/GUI/lvgl/src/core\lv_obj_style_gen.h ****     return (lv_text_decor_t)v.num;
 572:H:/STM32H7/RGB_LVGL/Middlewares/LVGL/GUI/lvgl/src/core\lv_obj_style_gen.h **** }
 573:H:/STM32H7/RGB_LVGL/Middlewares/LVGL/GUI/lvgl/src/core\lv_obj_style_gen.h **** 
 574:H:/STM32H7/RGB_LVGL/Middlewares/LVGL/GUI/lvgl/src/core\lv_obj_style_gen.h **** static inline lv_text_align_t lv_obj_get_style_text_align(const lv_obj_t * obj, lv_part_t part)
 575:H:/STM32H7/RGB_LVGL/Middlewares/LVGL/GUI/lvgl/src/core\lv_obj_style_gen.h **** {
 576:H:/STM32H7/RGB_LVGL/Middlewares/LVGL/GUI/lvgl/src/core\lv_obj_style_gen.h ****     lv_style_value_t v = lv_obj_get_style_prop(obj, part, LV_STYLE_TEXT_ALIGN);
 577:H:/STM32H7/RGB_LVGL/Middlewares/LVGL/GUI/lvgl/src/core\lv_obj_style_gen.h ****     return (lv_text_align_t)v.num;
 578:H:/STM32H7/RGB_LVGL/Middlewares/LVGL/GUI/lvgl/src/core\lv_obj_style_gen.h **** }
 579:H:/STM32H7/RGB_LVGL/Middlewares/LVGL/GUI/lvgl/src/core\lv_obj_style_gen.h **** 
 580:H:/STM32H7/RGB_LVGL/Middlewares/LVGL/GUI/lvgl/src/core\lv_obj_style_gen.h **** static inline lv_color_t lv_obj_get_style_text_outline_stroke_color(const lv_obj_t * obj, lv_part_t
 581:H:/STM32H7/RGB_LVGL/Middlewares/LVGL/GUI/lvgl/src/core\lv_obj_style_gen.h **** {
 582:H:/STM32H7/RGB_LVGL/Middlewares/LVGL/GUI/lvgl/src/core\lv_obj_style_gen.h ****     lv_style_value_t v = lv_obj_get_style_prop(obj, part, LV_STYLE_TEXT_OUTLINE_STROKE_COLOR);
 583:H:/STM32H7/RGB_LVGL/Middlewares/LVGL/GUI/lvgl/src/core\lv_obj_style_gen.h ****     return v.color;
 584:H:/STM32H7/RGB_LVGL/Middlewares/LVGL/GUI/lvgl/src/core\lv_obj_style_gen.h **** }
 585:H:/STM32H7/RGB_LVGL/Middlewares/LVGL/GUI/lvgl/src/core\lv_obj_style_gen.h **** 
 586:H:/STM32H7/RGB_LVGL/Middlewares/LVGL/GUI/lvgl/src/core\lv_obj_style_gen.h **** static inline lv_color_t lv_obj_get_style_text_outline_stroke_color_filtered(const lv_obj_t * obj, 
 587:H:/STM32H7/RGB_LVGL/Middlewares/LVGL/GUI/lvgl/src/core\lv_obj_style_gen.h **** {
 588:H:/STM32H7/RGB_LVGL/Middlewares/LVGL/GUI/lvgl/src/core\lv_obj_style_gen.h ****     lv_style_value_t v = lv_obj_style_apply_color_filter(obj, part, lv_obj_get_style_prop(obj, part
 589:H:/STM32H7/RGB_LVGL/Middlewares/LVGL/GUI/lvgl/src/core\lv_obj_style_gen.h ****     return v.color;
 590:H:/STM32H7/RGB_LVGL/Middlewares/LVGL/GUI/lvgl/src/core\lv_obj_style_gen.h **** }
 591:H:/STM32H7/RGB_LVGL/Middlewares/LVGL/GUI/lvgl/src/core\lv_obj_style_gen.h **** 
 592:H:/STM32H7/RGB_LVGL/Middlewares/LVGL/GUI/lvgl/src/core\lv_obj_style_gen.h **** static inline int32_t lv_obj_get_style_text_outline_stroke_width(const lv_obj_t * obj, lv_part_t pa
 593:H:/STM32H7/RGB_LVGL/Middlewares/LVGL/GUI/lvgl/src/core\lv_obj_style_gen.h **** {
 594:H:/STM32H7/RGB_LVGL/Middlewares/LVGL/GUI/lvgl/src/core\lv_obj_style_gen.h ****     lv_style_value_t v = lv_obj_get_style_prop(obj, part, LV_STYLE_TEXT_OUTLINE_STROKE_WIDTH);
 595:H:/STM32H7/RGB_LVGL/Middlewares/LVGL/GUI/lvgl/src/core\lv_obj_style_gen.h ****     return (int32_t)v.num;
 596:H:/STM32H7/RGB_LVGL/Middlewares/LVGL/GUI/lvgl/src/core\lv_obj_style_gen.h **** }
 597:H:/STM32H7/RGB_LVGL/Middlewares/LVGL/GUI/lvgl/src/core\lv_obj_style_gen.h **** 
 598:H:/STM32H7/RGB_LVGL/Middlewares/LVGL/GUI/lvgl/src/core\lv_obj_style_gen.h **** static inline lv_opa_t lv_obj_get_style_text_outline_stroke_opa(const lv_obj_t * obj, lv_part_t par
 599:H:/STM32H7/RGB_LVGL/Middlewares/LVGL/GUI/lvgl/src/core\lv_obj_style_gen.h **** {
 600:H:/STM32H7/RGB_LVGL/Middlewares/LVGL/GUI/lvgl/src/core\lv_obj_style_gen.h ****     lv_style_value_t v = lv_obj_get_style_prop(obj, part, LV_STYLE_TEXT_OUTLINE_STROKE_OPA);
 601:H:/STM32H7/RGB_LVGL/Middlewares/LVGL/GUI/lvgl/src/core\lv_obj_style_gen.h ****     return (lv_opa_t)v.num;
 602:H:/STM32H7/RGB_LVGL/Middlewares/LVGL/GUI/lvgl/src/core\lv_obj_style_gen.h **** }
 603:H:/STM32H7/RGB_LVGL/Middlewares/LVGL/GUI/lvgl/src/core\lv_obj_style_gen.h **** 
 604:H:/STM32H7/RGB_LVGL/Middlewares/LVGL/GUI/lvgl/src/core\lv_obj_style_gen.h **** static inline int32_t lv_obj_get_style_radius(const lv_obj_t * obj, lv_part_t part)
 605:H:/STM32H7/RGB_LVGL/Middlewares/LVGL/GUI/lvgl/src/core\lv_obj_style_gen.h **** {
 606:H:/STM32H7/RGB_LVGL/Middlewares/LVGL/GUI/lvgl/src/core\lv_obj_style_gen.h ****     lv_style_value_t v = lv_obj_get_style_prop(obj, part, LV_STYLE_RADIUS);
 607:H:/STM32H7/RGB_LVGL/Middlewares/LVGL/GUI/lvgl/src/core\lv_obj_style_gen.h ****     return (int32_t)v.num;
 608:H:/STM32H7/RGB_LVGL/Middlewares/LVGL/GUI/lvgl/src/core\lv_obj_style_gen.h **** }
 609:H:/STM32H7/RGB_LVGL/Middlewares/LVGL/GUI/lvgl/src/core\lv_obj_style_gen.h **** 
ARM GAS  C:\Users\28576\AppData\Local\Temp\ccCAaWBI.s 			page 35


 610:H:/STM32H7/RGB_LVGL/Middlewares/LVGL/GUI/lvgl/src/core\lv_obj_style_gen.h **** static inline int32_t lv_obj_get_style_radial_offset(const lv_obj_t * obj, lv_part_t part)
 611:H:/STM32H7/RGB_LVGL/Middlewares/LVGL/GUI/lvgl/src/core\lv_obj_style_gen.h **** {
 612:H:/STM32H7/RGB_LVGL/Middlewares/LVGL/GUI/lvgl/src/core\lv_obj_style_gen.h ****     lv_style_value_t v = lv_obj_get_style_prop(obj, part, LV_STYLE_RADIAL_OFFSET);
 613:H:/STM32H7/RGB_LVGL/Middlewares/LVGL/GUI/lvgl/src/core\lv_obj_style_gen.h ****     return (int32_t)v.num;
 614:H:/STM32H7/RGB_LVGL/Middlewares/LVGL/GUI/lvgl/src/core\lv_obj_style_gen.h **** }
 615:H:/STM32H7/RGB_LVGL/Middlewares/LVGL/GUI/lvgl/src/core\lv_obj_style_gen.h **** 
 616:H:/STM32H7/RGB_LVGL/Middlewares/LVGL/GUI/lvgl/src/core\lv_obj_style_gen.h **** static inline bool lv_obj_get_style_clip_corner(const lv_obj_t * obj, lv_part_t part)
 617:H:/STM32H7/RGB_LVGL/Middlewares/LVGL/GUI/lvgl/src/core\lv_obj_style_gen.h **** {
 618:H:/STM32H7/RGB_LVGL/Middlewares/LVGL/GUI/lvgl/src/core\lv_obj_style_gen.h ****     lv_style_value_t v = lv_obj_get_style_prop(obj, part, LV_STYLE_CLIP_CORNER);
 619:H:/STM32H7/RGB_LVGL/Middlewares/LVGL/GUI/lvgl/src/core\lv_obj_style_gen.h ****     return (bool)v.num;
 620:H:/STM32H7/RGB_LVGL/Middlewares/LVGL/GUI/lvgl/src/core\lv_obj_style_gen.h **** }
 621:H:/STM32H7/RGB_LVGL/Middlewares/LVGL/GUI/lvgl/src/core\lv_obj_style_gen.h **** 
 622:H:/STM32H7/RGB_LVGL/Middlewares/LVGL/GUI/lvgl/src/core\lv_obj_style_gen.h **** static inline lv_opa_t lv_obj_get_style_opa(const lv_obj_t * obj, lv_part_t part)
 623:H:/STM32H7/RGB_LVGL/Middlewares/LVGL/GUI/lvgl/src/core\lv_obj_style_gen.h **** {
 624:H:/STM32H7/RGB_LVGL/Middlewares/LVGL/GUI/lvgl/src/core\lv_obj_style_gen.h ****     lv_style_value_t v = lv_obj_get_style_prop(obj, part, LV_STYLE_OPA);
 625:H:/STM32H7/RGB_LVGL/Middlewares/LVGL/GUI/lvgl/src/core\lv_obj_style_gen.h ****     return (lv_opa_t)v.num;
 626:H:/STM32H7/RGB_LVGL/Middlewares/LVGL/GUI/lvgl/src/core\lv_obj_style_gen.h **** }
 627:H:/STM32H7/RGB_LVGL/Middlewares/LVGL/GUI/lvgl/src/core\lv_obj_style_gen.h **** 
 628:H:/STM32H7/RGB_LVGL/Middlewares/LVGL/GUI/lvgl/src/core\lv_obj_style_gen.h **** static inline lv_opa_t lv_obj_get_style_opa_layered(const lv_obj_t * obj, lv_part_t part)
 629:H:/STM32H7/RGB_LVGL/Middlewares/LVGL/GUI/lvgl/src/core\lv_obj_style_gen.h **** {
 630:H:/STM32H7/RGB_LVGL/Middlewares/LVGL/GUI/lvgl/src/core\lv_obj_style_gen.h ****     lv_style_value_t v = lv_obj_get_style_prop(obj, part, LV_STYLE_OPA_LAYERED);
 631:H:/STM32H7/RGB_LVGL/Middlewares/LVGL/GUI/lvgl/src/core\lv_obj_style_gen.h ****     return (lv_opa_t)v.num;
 632:H:/STM32H7/RGB_LVGL/Middlewares/LVGL/GUI/lvgl/src/core\lv_obj_style_gen.h **** }
 633:H:/STM32H7/RGB_LVGL/Middlewares/LVGL/GUI/lvgl/src/core\lv_obj_style_gen.h **** 
 634:H:/STM32H7/RGB_LVGL/Middlewares/LVGL/GUI/lvgl/src/core\lv_obj_style_gen.h **** static inline const lv_color_filter_dsc_t * lv_obj_get_style_color_filter_dsc(const lv_obj_t * obj,
 635:H:/STM32H7/RGB_LVGL/Middlewares/LVGL/GUI/lvgl/src/core\lv_obj_style_gen.h **** {
 636:H:/STM32H7/RGB_LVGL/Middlewares/LVGL/GUI/lvgl/src/core\lv_obj_style_gen.h ****     lv_style_value_t v = lv_obj_get_style_prop(obj, part, LV_STYLE_COLOR_FILTER_DSC);
 637:H:/STM32H7/RGB_LVGL/Middlewares/LVGL/GUI/lvgl/src/core\lv_obj_style_gen.h ****     return (const lv_color_filter_dsc_t *)v.ptr;
 638:H:/STM32H7/RGB_LVGL/Middlewares/LVGL/GUI/lvgl/src/core\lv_obj_style_gen.h **** }
 639:H:/STM32H7/RGB_LVGL/Middlewares/LVGL/GUI/lvgl/src/core\lv_obj_style_gen.h **** 
 640:H:/STM32H7/RGB_LVGL/Middlewares/LVGL/GUI/lvgl/src/core\lv_obj_style_gen.h **** static inline lv_opa_t lv_obj_get_style_color_filter_opa(const lv_obj_t * obj, lv_part_t part)
 641:H:/STM32H7/RGB_LVGL/Middlewares/LVGL/GUI/lvgl/src/core\lv_obj_style_gen.h **** {
 642:H:/STM32H7/RGB_LVGL/Middlewares/LVGL/GUI/lvgl/src/core\lv_obj_style_gen.h ****     lv_style_value_t v = lv_obj_get_style_prop(obj, part, LV_STYLE_COLOR_FILTER_OPA);
 643:H:/STM32H7/RGB_LVGL/Middlewares/LVGL/GUI/lvgl/src/core\lv_obj_style_gen.h ****     return (lv_opa_t)v.num;
 644:H:/STM32H7/RGB_LVGL/Middlewares/LVGL/GUI/lvgl/src/core\lv_obj_style_gen.h **** }
 645:H:/STM32H7/RGB_LVGL/Middlewares/LVGL/GUI/lvgl/src/core\lv_obj_style_gen.h **** 
 646:H:/STM32H7/RGB_LVGL/Middlewares/LVGL/GUI/lvgl/src/core\lv_obj_style_gen.h **** static inline lv_color_t lv_obj_get_style_recolor(const lv_obj_t * obj, lv_part_t part)
 647:H:/STM32H7/RGB_LVGL/Middlewares/LVGL/GUI/lvgl/src/core\lv_obj_style_gen.h **** {
 648:H:/STM32H7/RGB_LVGL/Middlewares/LVGL/GUI/lvgl/src/core\lv_obj_style_gen.h ****     lv_style_value_t v = lv_obj_get_style_prop(obj, part, LV_STYLE_RECOLOR);
 649:H:/STM32H7/RGB_LVGL/Middlewares/LVGL/GUI/lvgl/src/core\lv_obj_style_gen.h ****     return v.color;
 650:H:/STM32H7/RGB_LVGL/Middlewares/LVGL/GUI/lvgl/src/core\lv_obj_style_gen.h **** }
 651:H:/STM32H7/RGB_LVGL/Middlewares/LVGL/GUI/lvgl/src/core\lv_obj_style_gen.h **** 
 652:H:/STM32H7/RGB_LVGL/Middlewares/LVGL/GUI/lvgl/src/core\lv_obj_style_gen.h **** static inline lv_opa_t lv_obj_get_style_recolor_opa(const lv_obj_t * obj, lv_part_t part)
 653:H:/STM32H7/RGB_LVGL/Middlewares/LVGL/GUI/lvgl/src/core\lv_obj_style_gen.h **** {
 654:H:/STM32H7/RGB_LVGL/Middlewares/LVGL/GUI/lvgl/src/core\lv_obj_style_gen.h ****     lv_style_value_t v = lv_obj_get_style_prop(obj, part, LV_STYLE_RECOLOR_OPA);
 655:H:/STM32H7/RGB_LVGL/Middlewares/LVGL/GUI/lvgl/src/core\lv_obj_style_gen.h ****     return (lv_opa_t)v.num;
 656:H:/STM32H7/RGB_LVGL/Middlewares/LVGL/GUI/lvgl/src/core\lv_obj_style_gen.h **** }
 657:H:/STM32H7/RGB_LVGL/Middlewares/LVGL/GUI/lvgl/src/core\lv_obj_style_gen.h **** 
 658:H:/STM32H7/RGB_LVGL/Middlewares/LVGL/GUI/lvgl/src/core\lv_obj_style_gen.h **** static inline const lv_anim_t * lv_obj_get_style_anim(const lv_obj_t * obj, lv_part_t part)
 659:H:/STM32H7/RGB_LVGL/Middlewares/LVGL/GUI/lvgl/src/core\lv_obj_style_gen.h **** {
 660:H:/STM32H7/RGB_LVGL/Middlewares/LVGL/GUI/lvgl/src/core\lv_obj_style_gen.h ****     lv_style_value_t v = lv_obj_get_style_prop(obj, part, LV_STYLE_ANIM);
 661:H:/STM32H7/RGB_LVGL/Middlewares/LVGL/GUI/lvgl/src/core\lv_obj_style_gen.h ****     return (const lv_anim_t *)v.ptr;
 662:H:/STM32H7/RGB_LVGL/Middlewares/LVGL/GUI/lvgl/src/core\lv_obj_style_gen.h **** }
 663:H:/STM32H7/RGB_LVGL/Middlewares/LVGL/GUI/lvgl/src/core\lv_obj_style_gen.h **** 
 664:H:/STM32H7/RGB_LVGL/Middlewares/LVGL/GUI/lvgl/src/core\lv_obj_style_gen.h **** static inline uint32_t lv_obj_get_style_anim_duration(const lv_obj_t * obj, lv_part_t part)
 665:H:/STM32H7/RGB_LVGL/Middlewares/LVGL/GUI/lvgl/src/core\lv_obj_style_gen.h **** {
 666:H:/STM32H7/RGB_LVGL/Middlewares/LVGL/GUI/lvgl/src/core\lv_obj_style_gen.h ****     lv_style_value_t v = lv_obj_get_style_prop(obj, part, LV_STYLE_ANIM_DURATION);
ARM GAS  C:\Users\28576\AppData\Local\Temp\ccCAaWBI.s 			page 36


 667:H:/STM32H7/RGB_LVGL/Middlewares/LVGL/GUI/lvgl/src/core\lv_obj_style_gen.h ****     return (uint32_t)v.num;
 668:H:/STM32H7/RGB_LVGL/Middlewares/LVGL/GUI/lvgl/src/core\lv_obj_style_gen.h **** }
 669:H:/STM32H7/RGB_LVGL/Middlewares/LVGL/GUI/lvgl/src/core\lv_obj_style_gen.h **** 
 670:H:/STM32H7/RGB_LVGL/Middlewares/LVGL/GUI/lvgl/src/core\lv_obj_style_gen.h **** static inline const lv_style_transition_dsc_t * lv_obj_get_style_transition(const lv_obj_t * obj, l
 671:H:/STM32H7/RGB_LVGL/Middlewares/LVGL/GUI/lvgl/src/core\lv_obj_style_gen.h **** {
 672:H:/STM32H7/RGB_LVGL/Middlewares/LVGL/GUI/lvgl/src/core\lv_obj_style_gen.h ****     lv_style_value_t v = lv_obj_get_style_prop(obj, part, LV_STYLE_TRANSITION);
 673:H:/STM32H7/RGB_LVGL/Middlewares/LVGL/GUI/lvgl/src/core\lv_obj_style_gen.h ****     return (const lv_style_transition_dsc_t *)v.ptr;
 674:H:/STM32H7/RGB_LVGL/Middlewares/LVGL/GUI/lvgl/src/core\lv_obj_style_gen.h **** }
 675:H:/STM32H7/RGB_LVGL/Middlewares/LVGL/GUI/lvgl/src/core\lv_obj_style_gen.h **** 
 676:H:/STM32H7/RGB_LVGL/Middlewares/LVGL/GUI/lvgl/src/core\lv_obj_style_gen.h **** static inline lv_blend_mode_t lv_obj_get_style_blend_mode(const lv_obj_t * obj, lv_part_t part)
 677:H:/STM32H7/RGB_LVGL/Middlewares/LVGL/GUI/lvgl/src/core\lv_obj_style_gen.h **** {
 678:H:/STM32H7/RGB_LVGL/Middlewares/LVGL/GUI/lvgl/src/core\lv_obj_style_gen.h ****     lv_style_value_t v = lv_obj_get_style_prop(obj, part, LV_STYLE_BLEND_MODE);
 679:H:/STM32H7/RGB_LVGL/Middlewares/LVGL/GUI/lvgl/src/core\lv_obj_style_gen.h ****     return (lv_blend_mode_t)v.num;
 680:H:/STM32H7/RGB_LVGL/Middlewares/LVGL/GUI/lvgl/src/core\lv_obj_style_gen.h **** }
 681:H:/STM32H7/RGB_LVGL/Middlewares/LVGL/GUI/lvgl/src/core\lv_obj_style_gen.h **** 
 682:H:/STM32H7/RGB_LVGL/Middlewares/LVGL/GUI/lvgl/src/core\lv_obj_style_gen.h **** static inline uint16_t lv_obj_get_style_layout(const lv_obj_t * obj, lv_part_t part)
 683:H:/STM32H7/RGB_LVGL/Middlewares/LVGL/GUI/lvgl/src/core\lv_obj_style_gen.h **** {
 684:H:/STM32H7/RGB_LVGL/Middlewares/LVGL/GUI/lvgl/src/core\lv_obj_style_gen.h ****     lv_style_value_t v = lv_obj_get_style_prop(obj, part, LV_STYLE_LAYOUT);
 685:H:/STM32H7/RGB_LVGL/Middlewares/LVGL/GUI/lvgl/src/core\lv_obj_style_gen.h ****     return (uint16_t)v.num;
 686:H:/STM32H7/RGB_LVGL/Middlewares/LVGL/GUI/lvgl/src/core\lv_obj_style_gen.h **** }
 687:H:/STM32H7/RGB_LVGL/Middlewares/LVGL/GUI/lvgl/src/core\lv_obj_style_gen.h **** 
 688:H:/STM32H7/RGB_LVGL/Middlewares/LVGL/GUI/lvgl/src/core\lv_obj_style_gen.h **** static inline lv_base_dir_t lv_obj_get_style_base_dir(const lv_obj_t * obj, lv_part_t part)
 896              		.loc 2 688 29 view .LVU226
 897              	.LBB21:
 689:H:/STM32H7/RGB_LVGL/Middlewares/LVGL/GUI/lvgl/src/core\lv_obj_style_gen.h **** {
 690:H:/STM32H7/RGB_LVGL/Middlewares/LVGL/GUI/lvgl/src/core\lv_obj_style_gen.h ****     lv_style_value_t v = lv_obj_get_style_prop(obj, part, LV_STYLE_BASE_DIR);
 898              		.loc 2 690 5 view .LVU227
 899              		.loc 2 690 26 is_stmt 0 view .LVU228
 900 0056 2722     		movs	r2, #39
 901 0058 0021     		movs	r1, #0
 902 005a 2046     		mov	r0, r4
 903              	.LVL115:
 904              		.loc 2 690 26 view .LVU229
 905 005c FFF7FEFF 		bl	lv_obj_get_style_prop
 906              	.LVL116:
 907 0060 0190     		str	r0, [sp, #4]
 691:H:/STM32H7/RGB_LVGL/Middlewares/LVGL/GUI/lvgl/src/core\lv_obj_style_gen.h ****     return (lv_base_dir_t)v.num;
 908              		.loc 2 691 5 is_stmt 1 view .LVU230
 909              		.loc 2 691 12 is_stmt 0 view .LVU231
 910 0062 C3B2     		uxtb	r3, r0
 911              	.LVL117:
 912              		.loc 2 691 12 view .LVU232
 913              	.LBE21:
 914              	.LBE20:
 131:../../Middlewares/LVGL/GUI/lvgl/src/widgets/tabview/lv_tabview.c ****             lv_obj_scroll_to_x(cont, idx * (gap + w), anim_en);
 915              		.loc 1 131 11 discriminator 1 view .LVU233
 916 0064 012B     		cmp	r3, #1
 917 0066 09D0     		beq	.L65
 132:../../Middlewares/LVGL/GUI/lvgl/src/widgets/tabview/lv_tabview.c ****         }
 918              		.loc 1 132 13 is_stmt 1 view .LVU234
 132:../../Middlewares/LVGL/GUI/lvgl/src/widgets/tabview/lv_tabview.c ****         }
 919              		.loc 1 132 49 is_stmt 0 view .LVU235
 920 0068 4946     		mov	r1, r9
 921 006a 3944     		add	r1, r1, r7
 132:../../Middlewares/LVGL/GUI/lvgl/src/widgets/tabview/lv_tabview.c ****         }
 922              		.loc 1 132 13 view .LVU236
 923 006c 5246     		mov	r2, r10
ARM GAS  C:\Users\28576\AppData\Local\Temp\ccCAaWBI.s 			page 37


 924 006e 05FB01F1 		mul	r1, r5, r1
 925 0072 4046     		mov	r0, r8
 926 0074 FFF7FEFF 		bl	lv_obj_scroll_to_x
 927              	.LVL118:
 928 0078 1BE0     		b	.L66
 929              	.LVL119:
 930              	.L62:
 931              	.LCFI16:
 932              		.cfi_def_cfa_offset 0
 933              		.cfi_restore 4
 934              		.cfi_restore 5
 935              		.cfi_restore 6
 936              		.cfi_restore 7
 937              		.cfi_restore 8
 938              		.cfi_restore 9
 939              		.cfi_restore 10
 940              		.cfi_restore 14
 132:../../Middlewares/LVGL/GUI/lvgl/src/widgets/tabview/lv_tabview.c ****         }
 941              		.loc 1 132 13 view .LVU237
 942              	.LBE17:
 112:../../Middlewares/LVGL/GUI/lvgl/src/widgets/tabview/lv_tabview.c ****     lv_tabview_t * tabview = (lv_tabview_t *)obj;
 943              		.loc 1 112 5 is_stmt 1 view .LVU238
 112:../../Middlewares/LVGL/GUI/lvgl/src/widgets/tabview/lv_tabview.c ****     lv_tabview_t * tabview = (lv_tabview_t *)obj;
 944              		.loc 1 112 5 view .LVU239
 112:../../Middlewares/LVGL/GUI/lvgl/src/widgets/tabview/lv_tabview.c ****     lv_tabview_t * tabview = (lv_tabview_t *)obj;
 945              		.loc 1 112 5 view .LVU240
 112:../../Middlewares/LVGL/GUI/lvgl/src/widgets/tabview/lv_tabview.c ****     lv_tabview_t * tabview = (lv_tabview_t *)obj;
 946              		.loc 1 112 5 view .LVU241
 112:../../Middlewares/LVGL/GUI/lvgl/src/widgets/tabview/lv_tabview.c ****     lv_tabview_t * tabview = (lv_tabview_t *)obj;
 947              		.loc 1 112 5 view .LVU242
 948 007a FEE7     		b	.L62
 949              	.LVL120:
 950              	.L65:
 951              	.LCFI17:
 952              		.cfi_def_cfa_offset 40
 953              		.cfi_offset 4, -32
 954              		.cfi_offset 5, -28
 955              		.cfi_offset 6, -24
 956              		.cfi_offset 7, -20
 957              		.cfi_offset 8, -16
 958              		.cfi_offset 9, -12
 959              		.cfi_offset 10, -8
 960              		.cfi_offset 14, -4
 961              	.LBB23:
 962              	.LBB22:
 135:../../Middlewares/LVGL/GUI/lvgl/src/widgets/tabview/lv_tabview.c ****             lv_obj_scroll_to_x(cont, (gap + w) * id_rtl, anim_en);
 963              		.loc 1 135 13 view .LVU243
 135:../../Middlewares/LVGL/GUI/lvgl/src/widgets/tabview/lv_tabview.c ****             lv_obj_scroll_to_x(cont, (gap + w) * id_rtl, anim_en);
 964              		.loc 1 135 21 is_stmt 0 view .LVU244
 965 007c 6942     		rsbs	r1, r5, #0
 136:../../Middlewares/LVGL/GUI/lvgl/src/widgets/tabview/lv_tabview.c ****         }
 966              		.loc 1 136 13 is_stmt 1 view .LVU245
 136:../../Middlewares/LVGL/GUI/lvgl/src/widgets/tabview/lv_tabview.c ****         }
 967              		.loc 1 136 43 is_stmt 0 view .LVU246
 968 007e 4B46     		mov	r3, r9
 969 0080 3B44     		add	r3, r3, r7
 136:../../Middlewares/LVGL/GUI/lvgl/src/widgets/tabview/lv_tabview.c ****         }
ARM GAS  C:\Users\28576\AppData\Local\Temp\ccCAaWBI.s 			page 38


 970              		.loc 1 136 13 view .LVU247
 971 0082 5246     		mov	r2, r10
 972 0084 03FB01F1 		mul	r1, r3, r1
 973 0088 4046     		mov	r0, r8
 974 008a FFF7FEFF 		bl	lv_obj_scroll_to_x
 975              	.LVL121:
 976 008e 10E0     		b	.L66
 977              	.LVL122:
 978              	.L64:
 136:../../Middlewares/LVGL/GUI/lvgl/src/widgets/tabview/lv_tabview.c ****         }
 979              		.loc 1 136 13 view .LVU248
 980              	.LBE22:
 981              	.LBE23:
 982              	.LBB24:
 140:../../Middlewares/LVGL/GUI/lvgl/src/widgets/tabview/lv_tabview.c ****         int32_t h = lv_obj_get_content_height(cont);
 983              		.loc 1 140 9 is_stmt 1 view .LVU249
 984              	.LBB25:
 985              	.LBI25:
 178:H:/STM32H7/RGB_LVGL/Middlewares/LVGL/GUI/lvgl/src/core\lv_obj_style_gen.h **** {
 986              		.loc 2 178 23 view .LVU250
 987              	.LBB26:
 180:H:/STM32H7/RGB_LVGL/Middlewares/LVGL/GUI/lvgl/src/core\lv_obj_style_gen.h ****     return (int32_t)v.num;
 988              		.loc 2 180 5 view .LVU251
 180:H:/STM32H7/RGB_LVGL/Middlewares/LVGL/GUI/lvgl/src/core\lv_obj_style_gen.h ****     return (int32_t)v.num;
 989              		.loc 2 180 26 is_stmt 0 view .LVU252
 990 0090 1422     		movs	r2, #20
 991 0092 0021     		movs	r1, #0
 992 0094 3846     		mov	r0, r7
 993 0096 FFF7FEFF 		bl	lv_obj_get_style_prop
 994              	.LVL123:
 995 009a 0446     		mov	r4, r0
 996              	.LVL124:
 180:H:/STM32H7/RGB_LVGL/Middlewares/LVGL/GUI/lvgl/src/core\lv_obj_style_gen.h ****     return (int32_t)v.num;
 997              		.loc 2 180 26 view .LVU253
 998 009c 0190     		str	r0, [sp, #4]
 181:H:/STM32H7/RGB_LVGL/Middlewares/LVGL/GUI/lvgl/src/core\lv_obj_style_gen.h **** }
 999              		.loc 2 181 5 is_stmt 1 view .LVU254
 1000              	.LVL125:
 181:H:/STM32H7/RGB_LVGL/Middlewares/LVGL/GUI/lvgl/src/core\lv_obj_style_gen.h **** }
 1001              		.loc 2 181 5 is_stmt 0 view .LVU255
 1002              	.LBE26:
 1003              	.LBE25:
 141:../../Middlewares/LVGL/GUI/lvgl/src/widgets/tabview/lv_tabview.c ****         lv_obj_scroll_to_y(cont, idx * (gap + h), anim_en);
 1004              		.loc 1 141 9 is_stmt 1 view .LVU256
 141:../../Middlewares/LVGL/GUI/lvgl/src/widgets/tabview/lv_tabview.c ****         lv_obj_scroll_to_y(cont, idx * (gap + h), anim_en);
 1005              		.loc 1 141 21 is_stmt 0 view .LVU257
 1006 009e 3846     		mov	r0, r7
 1007              	.LVL126:
 141:../../Middlewares/LVGL/GUI/lvgl/src/widgets/tabview/lv_tabview.c ****         lv_obj_scroll_to_y(cont, idx * (gap + h), anim_en);
 1008              		.loc 1 141 21 view .LVU258
 1009 00a0 FFF7FEFF 		bl	lv_obj_get_content_height
 1010              	.LVL127:
 142:../../Middlewares/LVGL/GUI/lvgl/src/widgets/tabview/lv_tabview.c ****     }
 1011              		.loc 1 142 9 is_stmt 1 view .LVU259
 142:../../Middlewares/LVGL/GUI/lvgl/src/widgets/tabview/lv_tabview.c ****     }
 1012              		.loc 1 142 45 is_stmt 0 view .LVU260
 1013 00a4 0119     		adds	r1, r0, r4
ARM GAS  C:\Users\28576\AppData\Local\Temp\ccCAaWBI.s 			page 39


 142:../../Middlewares/LVGL/GUI/lvgl/src/widgets/tabview/lv_tabview.c ****     }
 1014              		.loc 1 142 9 view .LVU261
 1015 00a6 5246     		mov	r2, r10
 1016 00a8 05FB01F1 		mul	r1, r5, r1
 1017 00ac 3846     		mov	r0, r7
 1018              	.LVL128:
 142:../../Middlewares/LVGL/GUI/lvgl/src/widgets/tabview/lv_tabview.c ****     }
 1019              		.loc 1 142 9 view .LVU262
 1020 00ae FFF7FEFF 		bl	lv_obj_scroll_to_y
 1021              	.LVL129:
 1022              	.L66:
 142:../../Middlewares/LVGL/GUI/lvgl/src/widgets/tabview/lv_tabview.c ****     }
 1023              		.loc 1 142 9 view .LVU263
 1024              	.LBE24:
 145:../../Middlewares/LVGL/GUI/lvgl/src/widgets/tabview/lv_tabview.c ****     lv_obj_t * button = lv_obj_get_child_by_type(tab_bar, i, &lv_button_class);
 1025              		.loc 1 145 5 is_stmt 1 view .LVU264
 146:../../Middlewares/LVGL/GUI/lvgl/src/widgets/tabview/lv_tabview.c ****     while(button) {
 1026              		.loc 1 146 5 view .LVU265
 146:../../Middlewares/LVGL/GUI/lvgl/src/widgets/tabview/lv_tabview.c ****     while(button) {
 1027              		.loc 1 146 25 is_stmt 0 view .LVU266
 1028 00b2 0C4A     		ldr	r2, .L71
 1029 00b4 0021     		movs	r1, #0
 1030 00b6 3046     		mov	r0, r6
 1031 00b8 FFF7FEFF 		bl	lv_obj_get_child_by_type
 1032              	.LVL130:
 147:../../Middlewares/LVGL/GUI/lvgl/src/widgets/tabview/lv_tabview.c ****         lv_obj_set_state(button, LV_STATE_CHECKED, i == idx);
 1033              		.loc 1 147 5 is_stmt 1 view .LVU267
 145:../../Middlewares/LVGL/GUI/lvgl/src/widgets/tabview/lv_tabview.c ****     lv_obj_t * button = lv_obj_get_child_by_type(tab_bar, i, &lv_button_class);
 1034              		.loc 1 145 14 is_stmt 0 view .LVU268
 1035 00bc 0024     		movs	r4, #0
 147:../../Middlewares/LVGL/GUI/lvgl/src/widgets/tabview/lv_tabview.c ****         lv_obj_set_state(button, LV_STATE_CHECKED, i == idx);
 1036              		.loc 1 147 10 view .LVU269
 1037 00be 0CE0     		b	.L67
 1038              	.LVL131:
 1039              	.L68:
 148:../../Middlewares/LVGL/GUI/lvgl/src/widgets/tabview/lv_tabview.c ****         i++;
 1040              		.loc 1 148 9 is_stmt 1 view .LVU270
 1041 00c0 AC42     		cmp	r4, r5
 1042 00c2 14BF     		ite	ne
 1043 00c4 0022     		movne	r2, #0
 1044 00c6 0122     		moveq	r2, #1
 1045 00c8 0121     		movs	r1, #1
 1046 00ca FFF7FEFF 		bl	lv_obj_set_state
 1047              	.LVL132:
 149:../../Middlewares/LVGL/GUI/lvgl/src/widgets/tabview/lv_tabview.c ****         button = lv_obj_get_child_by_type(tab_bar, (int32_t)i, &lv_button_class);
 1048              		.loc 1 149 9 view .LVU271
 149:../../Middlewares/LVGL/GUI/lvgl/src/widgets/tabview/lv_tabview.c ****         button = lv_obj_get_child_by_type(tab_bar, (int32_t)i, &lv_button_class);
 1049              		.loc 1 149 10 is_stmt 0 view .LVU272
 1050 00ce 0134     		adds	r4, r4, #1
 1051              	.LVL133:
 150:../../Middlewares/LVGL/GUI/lvgl/src/widgets/tabview/lv_tabview.c ****     }
 1052              		.loc 1 150 9 is_stmt 1 view .LVU273
 150:../../Middlewares/LVGL/GUI/lvgl/src/widgets/tabview/lv_tabview.c ****     }
 1053              		.loc 1 150 18 is_stmt 0 view .LVU274
 1054 00d0 044A     		ldr	r2, .L71
 1055 00d2 2146     		mov	r1, r4
 1056 00d4 3046     		mov	r0, r6
ARM GAS  C:\Users\28576\AppData\Local\Temp\ccCAaWBI.s 			page 40


 1057 00d6 FFF7FEFF 		bl	lv_obj_get_child_by_type
 1058              	.LVL134:
 1059              	.L67:
 147:../../Middlewares/LVGL/GUI/lvgl/src/widgets/tabview/lv_tabview.c ****         lv_obj_set_state(button, LV_STATE_CHECKED, i == idx);
 1060              		.loc 1 147 11 is_stmt 1 view .LVU275
 1061 00da 0028     		cmp	r0, #0
 1062 00dc F0D1     		bne	.L68
 1063              	.LVL135:
 1064              	.L60:
 153:../../Middlewares/LVGL/GUI/lvgl/src/widgets/tabview/lv_tabview.c **** 
 1065              		.loc 1 153 1 is_stmt 0 view .LVU276
 1066 00de 02B0     		add	sp, sp, #8
 1067              	.LCFI18:
 1068              		.cfi_def_cfa_offset 32
 1069              		@ sp needed
 1070 00e0 BDE8F087 		pop	{r4, r5, r6, r7, r8, r9, r10, pc}
 1071              	.LVL136:
 1072              	.L72:
 153:../../Middlewares/LVGL/GUI/lvgl/src/widgets/tabview/lv_tabview.c **** 
 1073              		.loc 1 153 1 view .LVU277
 1074              		.align	2
 1075              	.L71:
 1076 00e4 00000000 		.word	lv_button_class
 1077              		.cfi_endproc
 1078              	.LFE199:
 1080              		.section	.text.lv_tabview_event,"ax",%progbits
 1081              		.align	1
 1082              		.syntax unified
 1083              		.thumb
 1084              		.thumb_func
 1086              	lv_tabview_event:
 1087              	.LVL137:
 1088              	.LFB207:
 288:../../Middlewares/LVGL/GUI/lvgl/src/widgets/tabview/lv_tabview.c **** 
 289:../../Middlewares/LVGL/GUI/lvgl/src/widgets/tabview/lv_tabview.c **** static void lv_tabview_event(const lv_obj_class_t * class_p, lv_event_t * e)
 290:../../Middlewares/LVGL/GUI/lvgl/src/widgets/tabview/lv_tabview.c **** {
 1089              		.loc 1 290 1 is_stmt 1 view -0
 1090              		.cfi_startproc
 1091              		@ args = 0, pretend = 0, frame = 0
 1092              		@ frame_needed = 0, uses_anonymous_args = 0
 1093              		.loc 1 290 1 is_stmt 0 view .LVU279
 1094 0000 38B5     		push	{r3, r4, r5, lr}
 1095              	.LCFI19:
 1096              		.cfi_def_cfa_offset 16
 1097              		.cfi_offset 3, -16
 1098              		.cfi_offset 4, -12
 1099              		.cfi_offset 5, -8
 1100              		.cfi_offset 14, -4
 1101 0002 0C46     		mov	r4, r1
 291:../../Middlewares/LVGL/GUI/lvgl/src/widgets/tabview/lv_tabview.c ****     LV_UNUSED(class_p);
 1102              		.loc 1 291 5 is_stmt 1 view .LVU280
 292:../../Middlewares/LVGL/GUI/lvgl/src/widgets/tabview/lv_tabview.c ****     lv_result_t res = lv_obj_event_base(&lv_tabview_class, e);
 1103              		.loc 1 292 5 view .LVU281
 1104              		.loc 1 292 23 is_stmt 0 view .LVU282
 1105 0004 0B48     		ldr	r0, .L77
 1106              	.LVL138:
 1107              		.loc 1 292 23 view .LVU283
ARM GAS  C:\Users\28576\AppData\Local\Temp\ccCAaWBI.s 			page 41


 1108 0006 FFF7FEFF 		bl	lv_obj_event_base
 1109              	.LVL139:
 293:../../Middlewares/LVGL/GUI/lvgl/src/widgets/tabview/lv_tabview.c ****     if(res != LV_RESULT_OK) return;
 1110              		.loc 1 293 5 is_stmt 1 view .LVU284
 1111              		.loc 1 293 7 is_stmt 0 view .LVU285
 1112 000a 0128     		cmp	r0, #1
 1113 000c 00D0     		beq	.L76
 1114              	.LVL140:
 1115              	.L73:
 294:../../Middlewares/LVGL/GUI/lvgl/src/widgets/tabview/lv_tabview.c **** 
 295:../../Middlewares/LVGL/GUI/lvgl/src/widgets/tabview/lv_tabview.c ****     lv_event_code_t code = lv_event_get_code(e);
 296:../../Middlewares/LVGL/GUI/lvgl/src/widgets/tabview/lv_tabview.c ****     lv_obj_t * target = lv_event_get_current_target(e);
 297:../../Middlewares/LVGL/GUI/lvgl/src/widgets/tabview/lv_tabview.c **** 
 298:../../Middlewares/LVGL/GUI/lvgl/src/widgets/tabview/lv_tabview.c ****     if(code == LV_EVENT_SIZE_CHANGED) {
 299:../../Middlewares/LVGL/GUI/lvgl/src/widgets/tabview/lv_tabview.c ****         lv_tabview_set_active(target, lv_tabview_get_tab_active(target), LV_ANIM_OFF);
 300:../../Middlewares/LVGL/GUI/lvgl/src/widgets/tabview/lv_tabview.c ****     }
 301:../../Middlewares/LVGL/GUI/lvgl/src/widgets/tabview/lv_tabview.c **** }
 1116              		.loc 1 301 1 view .LVU286
 1117 000e 38BD     		pop	{r3, r4, r5, pc}
 1118              	.LVL141:
 1119              	.L76:
 295:../../Middlewares/LVGL/GUI/lvgl/src/widgets/tabview/lv_tabview.c ****     lv_obj_t * target = lv_event_get_current_target(e);
 1120              		.loc 1 295 5 is_stmt 1 view .LVU287
 295:../../Middlewares/LVGL/GUI/lvgl/src/widgets/tabview/lv_tabview.c ****     lv_obj_t * target = lv_event_get_current_target(e);
 1121              		.loc 1 295 28 is_stmt 0 view .LVU288
 1122 0010 2046     		mov	r0, r4
 1123              	.LVL142:
 295:../../Middlewares/LVGL/GUI/lvgl/src/widgets/tabview/lv_tabview.c ****     lv_obj_t * target = lv_event_get_current_target(e);
 1124              		.loc 1 295 28 view .LVU289
 1125 0012 FFF7FEFF 		bl	lv_event_get_code
 1126              	.LVL143:
 1127 0016 0546     		mov	r5, r0
 1128              	.LVL144:
 296:../../Middlewares/LVGL/GUI/lvgl/src/widgets/tabview/lv_tabview.c **** 
 1129              		.loc 1 296 5 is_stmt 1 view .LVU290
 296:../../Middlewares/LVGL/GUI/lvgl/src/widgets/tabview/lv_tabview.c **** 
 1130              		.loc 1 296 25 is_stmt 0 view .LVU291
 1131 0018 2046     		mov	r0, r4
 1132              	.LVL145:
 296:../../Middlewares/LVGL/GUI/lvgl/src/widgets/tabview/lv_tabview.c **** 
 1133              		.loc 1 296 25 view .LVU292
 1134 001a FFF7FEFF 		bl	lv_event_get_current_target
 1135              	.LVL146:
 298:../../Middlewares/LVGL/GUI/lvgl/src/widgets/tabview/lv_tabview.c ****         lv_tabview_set_active(target, lv_tabview_get_tab_active(target), LV_ANIM_OFF);
 1136              		.loc 1 298 5 is_stmt 1 view .LVU293
 298:../../Middlewares/LVGL/GUI/lvgl/src/widgets/tabview/lv_tabview.c ****         lv_tabview_set_active(target, lv_tabview_get_tab_active(target), LV_ANIM_OFF);
 1137              		.loc 1 298 7 is_stmt 0 view .LVU294
 1138 001e 312D     		cmp	r5, #49
 1139 0020 F5D1     		bne	.L73
 299:../../Middlewares/LVGL/GUI/lvgl/src/widgets/tabview/lv_tabview.c ****     }
 1140              		.loc 1 299 9 is_stmt 1 view .LVU295
 1141 0022 0446     		mov	r4, r0
 1142              	.LVL147:
 299:../../Middlewares/LVGL/GUI/lvgl/src/widgets/tabview/lv_tabview.c ****     }
 1143              		.loc 1 299 9 is_stmt 0 view .LVU296
 1144 0024 FFF7FEFF 		bl	lv_tabview_get_tab_active
 1145              	.LVL148:
ARM GAS  C:\Users\28576\AppData\Local\Temp\ccCAaWBI.s 			page 42


 299:../../Middlewares/LVGL/GUI/lvgl/src/widgets/tabview/lv_tabview.c ****     }
 1146              		.loc 1 299 9 view .LVU297
 1147 0028 0146     		mov	r1, r0
 299:../../Middlewares/LVGL/GUI/lvgl/src/widgets/tabview/lv_tabview.c ****     }
 1148              		.loc 1 299 9 discriminator 1 view .LVU298
 1149 002a 0022     		movs	r2, #0
 1150 002c 2046     		mov	r0, r4
 1151 002e FFF7FEFF 		bl	lv_tabview_set_active
 1152              	.LVL149:
 1153 0032 ECE7     		b	.L73
 1154              	.L78:
 1155              		.align	2
 1156              	.L77:
 1157 0034 00000000 		.word	lv_tabview_class
 1158              		.cfi_endproc
 1159              	.LFE207:
 1161              		.section	.text.cont_scroll_end_event_cb,"ax",%progbits
 1162              		.align	1
 1163              		.syntax unified
 1164              		.thumb
 1165              		.thumb_func
 1167              	cont_scroll_end_event_cb:
 1168              	.LVL150:
 1169              	.LFB209:
 302:../../Middlewares/LVGL/GUI/lvgl/src/widgets/tabview/lv_tabview.c **** 
 303:../../Middlewares/LVGL/GUI/lvgl/src/widgets/tabview/lv_tabview.c **** static void button_clicked_event_cb(lv_event_t * e)
 304:../../Middlewares/LVGL/GUI/lvgl/src/widgets/tabview/lv_tabview.c **** {
 305:../../Middlewares/LVGL/GUI/lvgl/src/widgets/tabview/lv_tabview.c ****     lv_obj_t * button = lv_event_get_current_target(e);
 306:../../Middlewares/LVGL/GUI/lvgl/src/widgets/tabview/lv_tabview.c **** 
 307:../../Middlewares/LVGL/GUI/lvgl/src/widgets/tabview/lv_tabview.c ****     lv_obj_t * tv = lv_obj_get_parent(lv_obj_get_parent(button));
 308:../../Middlewares/LVGL/GUI/lvgl/src/widgets/tabview/lv_tabview.c ****     int32_t idx = lv_obj_get_index_by_type(button, &lv_button_class);
 309:../../Middlewares/LVGL/GUI/lvgl/src/widgets/tabview/lv_tabview.c ****     lv_tabview_set_active(tv, idx, LV_ANIM_OFF);
 310:../../Middlewares/LVGL/GUI/lvgl/src/widgets/tabview/lv_tabview.c **** }
 311:../../Middlewares/LVGL/GUI/lvgl/src/widgets/tabview/lv_tabview.c **** 
 312:../../Middlewares/LVGL/GUI/lvgl/src/widgets/tabview/lv_tabview.c **** static void cont_scroll_end_event_cb(lv_event_t * e)
 313:../../Middlewares/LVGL/GUI/lvgl/src/widgets/tabview/lv_tabview.c **** {
 1170              		.loc 1 313 1 is_stmt 1 view -0
 1171              		.cfi_startproc
 1172              		@ args = 0, pretend = 0, frame = 16
 1173              		@ frame_needed = 0, uses_anonymous_args = 0
 1174              		.loc 1 313 1 is_stmt 0 view .LVU300
 1175 0000 70B5     		push	{r4, r5, r6, lr}
 1176              	.LCFI20:
 1177              		.cfi_def_cfa_offset 16
 1178              		.cfi_offset 4, -16
 1179              		.cfi_offset 5, -12
 1180              		.cfi_offset 6, -8
 1181              		.cfi_offset 14, -4
 1182 0002 84B0     		sub	sp, sp, #16
 1183              	.LCFI21:
 1184              		.cfi_def_cfa_offset 32
 1185 0004 0446     		mov	r4, r0
 314:../../Middlewares/LVGL/GUI/lvgl/src/widgets/tabview/lv_tabview.c ****     lv_obj_t * cont = lv_event_get_current_target(e);
 1186              		.loc 1 314 5 is_stmt 1 view .LVU301
 1187              		.loc 1 314 23 is_stmt 0 view .LVU302
 1188 0006 FFF7FEFF 		bl	lv_event_get_current_target
 1189              	.LVL151:
ARM GAS  C:\Users\28576\AppData\Local\Temp\ccCAaWBI.s 			page 43


 1190              		.loc 1 314 23 view .LVU303
 1191 000a 0546     		mov	r5, r0
 1192              	.LVL152:
 315:../../Middlewares/LVGL/GUI/lvgl/src/widgets/tabview/lv_tabview.c ****     lv_event_code_t code = lv_event_get_code(e);
 1193              		.loc 1 315 5 is_stmt 1 view .LVU304
 1194              		.loc 1 315 28 is_stmt 0 view .LVU305
 1195 000c 2046     		mov	r0, r4
 1196              	.LVL153:
 1197              		.loc 1 315 28 view .LVU306
 1198 000e FFF7FEFF 		bl	lv_event_get_code
 1199              	.LVL154:
 1200 0012 0446     		mov	r4, r0
 1201              	.LVL155:
 316:../../Middlewares/LVGL/GUI/lvgl/src/widgets/tabview/lv_tabview.c **** 
 317:../../Middlewares/LVGL/GUI/lvgl/src/widgets/tabview/lv_tabview.c ****     lv_obj_t * tv = lv_obj_get_parent(cont);
 1202              		.loc 1 317 5 is_stmt 1 view .LVU307
 1203              		.loc 1 317 21 is_stmt 0 view .LVU308
 1204 0014 2846     		mov	r0, r5
 1205              	.LVL156:
 1206              		.loc 1 317 21 view .LVU309
 1207 0016 FFF7FEFF 		bl	lv_obj_get_parent
 1208              	.LVL157:
 1209 001a 0646     		mov	r6, r0
 1210              	.LVL158:
 318:../../Middlewares/LVGL/GUI/lvgl/src/widgets/tabview/lv_tabview.c ****     lv_tabview_t * tv_obj = (lv_tabview_t *)tv;
 1211              		.loc 1 318 5 is_stmt 1 view .LVU310
 319:../../Middlewares/LVGL/GUI/lvgl/src/widgets/tabview/lv_tabview.c ****     if(code == LV_EVENT_LAYOUT_CHANGED) {
 1212              		.loc 1 319 5 view .LVU311
 1213              		.loc 1 319 7 is_stmt 0 view .LVU312
 1214 001c 332C     		cmp	r4, #51
 1215 001e 03D0     		beq	.L97
 320:../../Middlewares/LVGL/GUI/lvgl/src/widgets/tabview/lv_tabview.c ****         lv_tabview_set_active(tv, lv_tabview_get_tab_active(tv), LV_ANIM_OFF);
 321:../../Middlewares/LVGL/GUI/lvgl/src/widgets/tabview/lv_tabview.c ****     }
 322:../../Middlewares/LVGL/GUI/lvgl/src/widgets/tabview/lv_tabview.c ****     else if(code == LV_EVENT_SCROLL_END) {
 1216              		.loc 1 322 10 is_stmt 1 view .LVU313
 1217              		.loc 1 322 12 is_stmt 0 view .LVU314
 1218 0020 0E2C     		cmp	r4, #14
 1219 0022 09D0     		beq	.L98
 1220              	.LVL159:
 1221              	.L79:
 323:../../Middlewares/LVGL/GUI/lvgl/src/widgets/tabview/lv_tabview.c ****         lv_indev_t * indev = lv_indev_active();
 324:../../Middlewares/LVGL/GUI/lvgl/src/widgets/tabview/lv_tabview.c ****         if(indev && indev->state == LV_INDEV_STATE_PRESSED) {
 325:../../Middlewares/LVGL/GUI/lvgl/src/widgets/tabview/lv_tabview.c ****             return;
 326:../../Middlewares/LVGL/GUI/lvgl/src/widgets/tabview/lv_tabview.c ****         }
 327:../../Middlewares/LVGL/GUI/lvgl/src/widgets/tabview/lv_tabview.c **** 
 328:../../Middlewares/LVGL/GUI/lvgl/src/widgets/tabview/lv_tabview.c ****         lv_point_t p;
 329:../../Middlewares/LVGL/GUI/lvgl/src/widgets/tabview/lv_tabview.c ****         lv_obj_get_scroll_end(cont, &p);
 330:../../Middlewares/LVGL/GUI/lvgl/src/widgets/tabview/lv_tabview.c **** 
 331:../../Middlewares/LVGL/GUI/lvgl/src/widgets/tabview/lv_tabview.c ****         int32_t t;
 332:../../Middlewares/LVGL/GUI/lvgl/src/widgets/tabview/lv_tabview.c ****         if((tv_obj->tab_pos & LV_DIR_VER) != 0) {
 333:../../Middlewares/LVGL/GUI/lvgl/src/widgets/tabview/lv_tabview.c ****             int32_t w = lv_obj_get_content_width(cont);
 334:../../Middlewares/LVGL/GUI/lvgl/src/widgets/tabview/lv_tabview.c ****             if(lv_obj_get_style_base_dir(tv, LV_PART_MAIN) == LV_BASE_DIR_RTL)  t = -(p.x - w / 2) 
 335:../../Middlewares/LVGL/GUI/lvgl/src/widgets/tabview/lv_tabview.c ****             else t = (p.x + w / 2) / w;
 336:../../Middlewares/LVGL/GUI/lvgl/src/widgets/tabview/lv_tabview.c ****         }
 337:../../Middlewares/LVGL/GUI/lvgl/src/widgets/tabview/lv_tabview.c ****         else {
 338:../../Middlewares/LVGL/GUI/lvgl/src/widgets/tabview/lv_tabview.c ****             int32_t h = lv_obj_get_content_height(cont);
 339:../../Middlewares/LVGL/GUI/lvgl/src/widgets/tabview/lv_tabview.c ****             t = (p.y + h / 2) / h;
ARM GAS  C:\Users\28576\AppData\Local\Temp\ccCAaWBI.s 			page 44


 340:../../Middlewares/LVGL/GUI/lvgl/src/widgets/tabview/lv_tabview.c ****         }
 341:../../Middlewares/LVGL/GUI/lvgl/src/widgets/tabview/lv_tabview.c **** 
 342:../../Middlewares/LVGL/GUI/lvgl/src/widgets/tabview/lv_tabview.c ****         if(t < 0) t = 0;
 343:../../Middlewares/LVGL/GUI/lvgl/src/widgets/tabview/lv_tabview.c ****         bool new_tab = false;
 344:../../Middlewares/LVGL/GUI/lvgl/src/widgets/tabview/lv_tabview.c ****         if(t != (int32_t)lv_tabview_get_tab_active(tv)) new_tab = true;
 345:../../Middlewares/LVGL/GUI/lvgl/src/widgets/tabview/lv_tabview.c **** 
 346:../../Middlewares/LVGL/GUI/lvgl/src/widgets/tabview/lv_tabview.c ****         /*If not scrolled by an indev set the tab immediately*/
 347:../../Middlewares/LVGL/GUI/lvgl/src/widgets/tabview/lv_tabview.c ****         if(lv_indev_active()) {
 348:../../Middlewares/LVGL/GUI/lvgl/src/widgets/tabview/lv_tabview.c ****             lv_tabview_set_active(tv, t, LV_ANIM_ON);
 349:../../Middlewares/LVGL/GUI/lvgl/src/widgets/tabview/lv_tabview.c ****         }
 350:../../Middlewares/LVGL/GUI/lvgl/src/widgets/tabview/lv_tabview.c ****         else {
 351:../../Middlewares/LVGL/GUI/lvgl/src/widgets/tabview/lv_tabview.c ****             lv_tabview_set_active(tv, t, LV_ANIM_OFF);
 352:../../Middlewares/LVGL/GUI/lvgl/src/widgets/tabview/lv_tabview.c ****         }
 353:../../Middlewares/LVGL/GUI/lvgl/src/widgets/tabview/lv_tabview.c **** 
 354:../../Middlewares/LVGL/GUI/lvgl/src/widgets/tabview/lv_tabview.c ****         if(new_tab) lv_obj_send_event(tv, LV_EVENT_VALUE_CHANGED, NULL);
 355:../../Middlewares/LVGL/GUI/lvgl/src/widgets/tabview/lv_tabview.c ****     }
 356:../../Middlewares/LVGL/GUI/lvgl/src/widgets/tabview/lv_tabview.c **** }
 1222              		.loc 1 356 1 view .LVU315
 1223 0024 04B0     		add	sp, sp, #16
 1224              	.LCFI22:
 1225              		.cfi_remember_state
 1226              		.cfi_def_cfa_offset 16
 1227              		@ sp needed
 1228 0026 70BD     		pop	{r4, r5, r6, pc}
 1229              	.LVL160:
 1230              	.L97:
 1231              	.LCFI23:
 1232              		.cfi_restore_state
 320:../../Middlewares/LVGL/GUI/lvgl/src/widgets/tabview/lv_tabview.c ****         lv_tabview_set_active(tv, lv_tabview_get_tab_active(tv), LV_ANIM_OFF);
 1233              		.loc 1 320 9 is_stmt 1 view .LVU316
 1234 0028 FFF7FEFF 		bl	lv_tabview_get_tab_active
 1235              	.LVL161:
 320:../../Middlewares/LVGL/GUI/lvgl/src/widgets/tabview/lv_tabview.c ****         lv_tabview_set_active(tv, lv_tabview_get_tab_active(tv), LV_ANIM_OFF);
 1236              		.loc 1 320 9 is_stmt 0 view .LVU317
 1237 002c 0146     		mov	r1, r0
 320:../../Middlewares/LVGL/GUI/lvgl/src/widgets/tabview/lv_tabview.c ****         lv_tabview_set_active(tv, lv_tabview_get_tab_active(tv), LV_ANIM_OFF);
 1238              		.loc 1 320 9 discriminator 1 view .LVU318
 1239 002e 0022     		movs	r2, #0
 1240 0030 3046     		mov	r0, r6
 1241 0032 FFF7FEFF 		bl	lv_tabview_set_active
 1242              	.LVL162:
 1243 0036 F5E7     		b	.L79
 1244              	.LVL163:
 1245              	.L98:
 1246              	.LBB27:
 323:../../Middlewares/LVGL/GUI/lvgl/src/widgets/tabview/lv_tabview.c ****         lv_indev_t * indev = lv_indev_active();
 1247              		.loc 1 323 9 is_stmt 1 view .LVU319
 323:../../Middlewares/LVGL/GUI/lvgl/src/widgets/tabview/lv_tabview.c ****         lv_indev_t * indev = lv_indev_active();
 1248              		.loc 1 323 30 is_stmt 0 view .LVU320
 1249 0038 FFF7FEFF 		bl	lv_indev_active
 1250              	.LVL164:
 324:../../Middlewares/LVGL/GUI/lvgl/src/widgets/tabview/lv_tabview.c ****             return;
 1251              		.loc 1 324 9 is_stmt 1 view .LVU321
 324:../../Middlewares/LVGL/GUI/lvgl/src/widgets/tabview/lv_tabview.c ****             return;
 1252              		.loc 1 324 11 is_stmt 0 view .LVU322
 1253 003c 10B1     		cbz	r0, .L82
 324:../../Middlewares/LVGL/GUI/lvgl/src/widgets/tabview/lv_tabview.c ****             return;
ARM GAS  C:\Users\28576\AppData\Local\Temp\ccCAaWBI.s 			page 45


 1254              		.loc 1 324 26 discriminator 1 view .LVU323
 1255 003e 037A     		ldrb	r3, [r0, #8]	@ zero_extendqisi2
 324:../../Middlewares/LVGL/GUI/lvgl/src/widgets/tabview/lv_tabview.c ****             return;
 1256              		.loc 1 324 18 discriminator 1 view .LVU324
 1257 0040 012B     		cmp	r3, #1
 1258 0042 EFD0     		beq	.L79
 1259              	.L82:
 328:../../Middlewares/LVGL/GUI/lvgl/src/widgets/tabview/lv_tabview.c ****         lv_obj_get_scroll_end(cont, &p);
 1260              		.loc 1 328 9 is_stmt 1 view .LVU325
 329:../../Middlewares/LVGL/GUI/lvgl/src/widgets/tabview/lv_tabview.c **** 
 1261              		.loc 1 329 9 view .LVU326
 1262 0044 02A9     		add	r1, sp, #8
 1263 0046 2846     		mov	r0, r5
 1264              	.LVL165:
 329:../../Middlewares/LVGL/GUI/lvgl/src/widgets/tabview/lv_tabview.c **** 
 1265              		.loc 1 329 9 is_stmt 0 view .LVU327
 1266 0048 FFF7FEFF 		bl	lv_obj_get_scroll_end
 1267              	.LVL166:
 331:../../Middlewares/LVGL/GUI/lvgl/src/widgets/tabview/lv_tabview.c ****         if((tv_obj->tab_pos & LV_DIR_VER) != 0) {
 1268              		.loc 1 331 9 is_stmt 1 view .LVU328
 332:../../Middlewares/LVGL/GUI/lvgl/src/widgets/tabview/lv_tabview.c ****             int32_t w = lv_obj_get_content_width(cont);
 1269              		.loc 1 332 9 view .LVU329
 332:../../Middlewares/LVGL/GUI/lvgl/src/widgets/tabview/lv_tabview.c ****             int32_t w = lv_obj_get_content_width(cont);
 1270              		.loc 1 332 19 is_stmt 0 view .LVU330
 1271 004c 96F83030 		ldrb	r3, [r6, #48]	@ zero_extendqisi2
 332:../../Middlewares/LVGL/GUI/lvgl/src/widgets/tabview/lv_tabview.c ****             int32_t w = lv_obj_get_content_width(cont);
 1272              		.loc 1 332 11 view .LVU331
 1273 0050 13F00C0F 		tst	r3, #12
 1274 0054 24D0     		beq	.L83
 1275              	.LBB28:
 333:../../Middlewares/LVGL/GUI/lvgl/src/widgets/tabview/lv_tabview.c ****             if(lv_obj_get_style_base_dir(tv, LV_PART_MAIN) == LV_BASE_DIR_RTL)  t = -(p.x - w / 2) 
 1276              		.loc 1 333 13 is_stmt 1 view .LVU332
 333:../../Middlewares/LVGL/GUI/lvgl/src/widgets/tabview/lv_tabview.c ****             if(lv_obj_get_style_base_dir(tv, LV_PART_MAIN) == LV_BASE_DIR_RTL)  t = -(p.x - w / 2) 
 1277              		.loc 1 333 25 is_stmt 0 view .LVU333
 1278 0056 2846     		mov	r0, r5
 1279 0058 FFF7FEFF 		bl	lv_obj_get_content_width
 1280              	.LVL167:
 1281 005c 0546     		mov	r5, r0
 1282              	.LVL168:
 334:../../Middlewares/LVGL/GUI/lvgl/src/widgets/tabview/lv_tabview.c ****             else t = (p.x + w / 2) / w;
 1283              		.loc 1 334 13 is_stmt 1 view .LVU334
 1284              	.LBB29:
 1285              	.LBI29:
 688:H:/STM32H7/RGB_LVGL/Middlewares/LVGL/GUI/lvgl/src/core\lv_obj_style_gen.h **** {
 1286              		.loc 2 688 29 view .LVU335
 1287              	.LBB30:
 690:H:/STM32H7/RGB_LVGL/Middlewares/LVGL/GUI/lvgl/src/core\lv_obj_style_gen.h ****     return (lv_base_dir_t)v.num;
 1288              		.loc 2 690 5 view .LVU336
 690:H:/STM32H7/RGB_LVGL/Middlewares/LVGL/GUI/lvgl/src/core\lv_obj_style_gen.h ****     return (lv_base_dir_t)v.num;
 1289              		.loc 2 690 26 is_stmt 0 view .LVU337
 1290 005e 2722     		movs	r2, #39
 1291 0060 0021     		movs	r1, #0
 1292 0062 3046     		mov	r0, r6
 1293              	.LVL169:
 690:H:/STM32H7/RGB_LVGL/Middlewares/LVGL/GUI/lvgl/src/core\lv_obj_style_gen.h ****     return (lv_base_dir_t)v.num;
 1294              		.loc 2 690 26 view .LVU338
 1295 0064 FFF7FEFF 		bl	lv_obj_get_style_prop
ARM GAS  C:\Users\28576\AppData\Local\Temp\ccCAaWBI.s 			page 46


 1296              	.LVL170:
 1297 0068 0190     		str	r0, [sp, #4]
 1298              		.loc 2 691 5 is_stmt 1 view .LVU339
 1299              		.loc 2 691 12 is_stmt 0 view .LVU340
 1300 006a C0B2     		uxtb	r0, r0
 1301              	.LVL171:
 1302              		.loc 2 691 12 view .LVU341
 1303              	.LBE30:
 1304              	.LBE29:
 334:../../Middlewares/LVGL/GUI/lvgl/src/widgets/tabview/lv_tabview.c ****             else t = (p.x + w / 2) / w;
 1305              		.loc 1 334 15 discriminator 1 view .LVU342
 1306 006c 0128     		cmp	r0, #1
 1307 006e 09D0     		beq	.L99
 335:../../Middlewares/LVGL/GUI/lvgl/src/widgets/tabview/lv_tabview.c ****         }
 1308              		.loc 1 335 18 is_stmt 1 view .LVU343
 335:../../Middlewares/LVGL/GUI/lvgl/src/widgets/tabview/lv_tabview.c ****         }
 1309              		.loc 1 335 24 is_stmt 0 view .LVU344
 1310 0070 029B     		ldr	r3, [sp, #8]
 335:../../Middlewares/LVGL/GUI/lvgl/src/widgets/tabview/lv_tabview.c ****         }
 1311              		.loc 1 335 31 view .LVU345
 1312 0072 2A46     		mov	r2, r5
 1313 0074 002D     		cmp	r5, #0
 1314 0076 11DB     		blt	.L100
 1315              	.L87:
 335:../../Middlewares/LVGL/GUI/lvgl/src/widgets/tabview/lv_tabview.c ****         }
 1316              		.loc 1 335 27 view .LVU346
 1317 0078 03EB6203 		add	r3, r3, r2, asr #1
 335:../../Middlewares/LVGL/GUI/lvgl/src/widgets/tabview/lv_tabview.c ****         }
 1318              		.loc 1 335 20 view .LVU347
 1319 007c 93FBF5F3 		sdiv	r3, r3, r5
 1320 0080 1C46     		mov	r4, r3
 1321              	.LVL172:
 335:../../Middlewares/LVGL/GUI/lvgl/src/widgets/tabview/lv_tabview.c ****         }
 1322              		.loc 1 335 20 view .LVU348
 1323 0082 19E0     		b	.L86
 1324              	.LVL173:
 1325              	.L99:
 334:../../Middlewares/LVGL/GUI/lvgl/src/widgets/tabview/lv_tabview.c ****             else t = (p.x + w / 2) / w;
 1326              		.loc 1 334 81 is_stmt 1 discriminator 2 view .LVU349
 334:../../Middlewares/LVGL/GUI/lvgl/src/widgets/tabview/lv_tabview.c ****             else t = (p.x + w / 2) / w;
 1327              		.loc 1 334 95 is_stmt 0 discriminator 2 view .LVU350
 1328 0084 2A46     		mov	r2, r5
 1329 0086 002D     		cmp	r5, #0
 1330 0088 06DB     		blt	.L101
 1331              	.L85:
 334:../../Middlewares/LVGL/GUI/lvgl/src/widgets/tabview/lv_tabview.c ****             else t = (p.x + w / 2) / w;
 1332              		.loc 1 334 88 discriminator 2 view .LVU351
 1333 008a 029B     		ldr	r3, [sp, #8]
 334:../../Middlewares/LVGL/GUI/lvgl/src/widgets/tabview/lv_tabview.c ****             else t = (p.x + w / 2) / w;
 1334              		.loc 1 334 85 discriminator 2 view .LVU352
 1335 008c C3EB6203 		rsb	r3, r3, r2, asr #1
 334:../../Middlewares/LVGL/GUI/lvgl/src/widgets/tabview/lv_tabview.c ****             else t = (p.x + w / 2) / w;
 1336              		.loc 1 334 83 discriminator 2 view .LVU353
 1337 0090 93FBF5F3 		sdiv	r3, r3, r5
 1338 0094 1C46     		mov	r4, r3
 1339              	.LVL174:
 334:../../Middlewares/LVGL/GUI/lvgl/src/widgets/tabview/lv_tabview.c ****             else t = (p.x + w / 2) / w;
ARM GAS  C:\Users\28576\AppData\Local\Temp\ccCAaWBI.s 			page 47


 1340              		.loc 1 334 83 discriminator 2 view .LVU354
 1341 0096 0FE0     		b	.L86
 1342              	.LVL175:
 1343              	.L101:
 334:../../Middlewares/LVGL/GUI/lvgl/src/widgets/tabview/lv_tabview.c ****             else t = (p.x + w / 2) / w;
 1344              		.loc 1 334 95 discriminator 2 view .LVU355
 1345 0098 6A1C     		adds	r2, r5, #1
 1346              	.LVL176:
 334:../../Middlewares/LVGL/GUI/lvgl/src/widgets/tabview/lv_tabview.c ****             else t = (p.x + w / 2) / w;
 1347              		.loc 1 334 95 discriminator 2 view .LVU356
 1348 009a F6E7     		b	.L85
 1349              	.LVL177:
 1350              	.L100:
 335:../../Middlewares/LVGL/GUI/lvgl/src/widgets/tabview/lv_tabview.c ****         }
 1351              		.loc 1 335 31 view .LVU357
 1352 009c 6A1C     		adds	r2, r5, #1
 1353              	.LVL178:
 335:../../Middlewares/LVGL/GUI/lvgl/src/widgets/tabview/lv_tabview.c ****         }
 1354              		.loc 1 335 31 view .LVU358
 1355 009e EBE7     		b	.L87
 1356              	.LVL179:
 1357              	.L83:
 335:../../Middlewares/LVGL/GUI/lvgl/src/widgets/tabview/lv_tabview.c ****         }
 1358              		.loc 1 335 31 view .LVU359
 1359              	.LBE28:
 1360              	.LBB31:
 338:../../Middlewares/LVGL/GUI/lvgl/src/widgets/tabview/lv_tabview.c ****             t = (p.y + h / 2) / h;
 1361              		.loc 1 338 13 is_stmt 1 view .LVU360
 338:../../Middlewares/LVGL/GUI/lvgl/src/widgets/tabview/lv_tabview.c ****             t = (p.y + h / 2) / h;
 1362              		.loc 1 338 25 is_stmt 0 view .LVU361
 1363 00a0 2846     		mov	r0, r5
 1364 00a2 FFF7FEFF 		bl	lv_obj_get_content_height
 1365              	.LVL180:
 339:../../Middlewares/LVGL/GUI/lvgl/src/widgets/tabview/lv_tabview.c ****         }
 1366              		.loc 1 339 13 is_stmt 1 view .LVU362
 339:../../Middlewares/LVGL/GUI/lvgl/src/widgets/tabview/lv_tabview.c ****         }
 1367              		.loc 1 339 19 is_stmt 0 view .LVU363
 1368 00a6 039B     		ldr	r3, [sp, #12]
 339:../../Middlewares/LVGL/GUI/lvgl/src/widgets/tabview/lv_tabview.c ****         }
 1369              		.loc 1 339 26 view .LVU364
 1370 00a8 0246     		mov	r2, r0
 1371 00aa 0028     		cmp	r0, #0
 1372 00ac 1DDB     		blt	.L102
 1373              	.L88:
 339:../../Middlewares/LVGL/GUI/lvgl/src/widgets/tabview/lv_tabview.c ****         }
 1374              		.loc 1 339 22 view .LVU365
 1375 00ae 03EB6203 		add	r3, r3, r2, asr #1
 339:../../Middlewares/LVGL/GUI/lvgl/src/widgets/tabview/lv_tabview.c ****         }
 1376              		.loc 1 339 15 view .LVU366
 1377 00b2 93FBF0F3 		sdiv	r3, r3, r0
 1378 00b6 1C46     		mov	r4, r3
 1379              	.LVL181:
 1380              	.L86:
 339:../../Middlewares/LVGL/GUI/lvgl/src/widgets/tabview/lv_tabview.c ****         }
 1381              		.loc 1 339 15 view .LVU367
 1382              	.LBE31:
 342:../../Middlewares/LVGL/GUI/lvgl/src/widgets/tabview/lv_tabview.c ****         bool new_tab = false;
ARM GAS  C:\Users\28576\AppData\Local\Temp\ccCAaWBI.s 			page 48


 1383              		.loc 1 342 9 is_stmt 1 view .LVU368
 342:../../Middlewares/LVGL/GUI/lvgl/src/widgets/tabview/lv_tabview.c ****         bool new_tab = false;
 1384              		.loc 1 342 11 is_stmt 0 view .LVU369
 1385 00b8 002C     		cmp	r4, #0
 1386 00ba 18DB     		blt	.L103
 1387              	.LVL182:
 1388              	.L89:
 343:../../Middlewares/LVGL/GUI/lvgl/src/widgets/tabview/lv_tabview.c ****         if(t != (int32_t)lv_tabview_get_tab_active(tv)) new_tab = true;
 1389              		.loc 1 343 9 is_stmt 1 view .LVU370
 344:../../Middlewares/LVGL/GUI/lvgl/src/widgets/tabview/lv_tabview.c **** 
 1390              		.loc 1 344 9 view .LVU371
 344:../../Middlewares/LVGL/GUI/lvgl/src/widgets/tabview/lv_tabview.c **** 
 1391              		.loc 1 344 26 is_stmt 0 view .LVU372
 1392 00bc 3046     		mov	r0, r6
 1393 00be FFF7FEFF 		bl	lv_tabview_get_tab_active
 1394              	.LVL183:
 344:../../Middlewares/LVGL/GUI/lvgl/src/widgets/tabview/lv_tabview.c **** 
 1395              		.loc 1 344 11 discriminator 1 view .LVU373
 1396 00c2 A042     		cmp	r0, r4
 1397 00c4 16D0     		beq	.L104
 344:../../Middlewares/LVGL/GUI/lvgl/src/widgets/tabview/lv_tabview.c **** 
 1398              		.loc 1 344 65 discriminator 2 view .LVU374
 1399 00c6 0123     		movs	r3, #1
 1400 00c8 1D46     		mov	r5, r3
 1401              	.L90:
 1402              	.LVL184:
 347:../../Middlewares/LVGL/GUI/lvgl/src/widgets/tabview/lv_tabview.c ****             lv_tabview_set_active(tv, t, LV_ANIM_ON);
 1403              		.loc 1 347 9 is_stmt 1 view .LVU375
 347:../../Middlewares/LVGL/GUI/lvgl/src/widgets/tabview/lv_tabview.c ****             lv_tabview_set_active(tv, t, LV_ANIM_ON);
 1404              		.loc 1 347 12 is_stmt 0 view .LVU376
 1405 00ca FFF7FEFF 		bl	lv_indev_active
 1406              	.LVL185:
 347:../../Middlewares/LVGL/GUI/lvgl/src/widgets/tabview/lv_tabview.c ****             lv_tabview_set_active(tv, t, LV_ANIM_ON);
 1407              		.loc 1 347 11 discriminator 1 view .LVU377
 1408 00ce A0B1     		cbz	r0, .L91
 348:../../Middlewares/LVGL/GUI/lvgl/src/widgets/tabview/lv_tabview.c ****         }
 1409              		.loc 1 348 13 is_stmt 1 view .LVU378
 1410 00d0 0122     		movs	r2, #1
 1411 00d2 2146     		mov	r1, r4
 1412 00d4 3046     		mov	r0, r6
 1413 00d6 FFF7FEFF 		bl	lv_tabview_set_active
 1414              	.LVL186:
 1415              	.L92:
 354:../../Middlewares/LVGL/GUI/lvgl/src/widgets/tabview/lv_tabview.c ****     }
 1416              		.loc 1 354 9 view .LVU379
 354:../../Middlewares/LVGL/GUI/lvgl/src/widgets/tabview/lv_tabview.c ****     }
 1417              		.loc 1 354 11 is_stmt 0 view .LVU380
 1418 00da 002D     		cmp	r5, #0
 1419 00dc A2D0     		beq	.L79
 354:../../Middlewares/LVGL/GUI/lvgl/src/widgets/tabview/lv_tabview.c ****     }
 1420              		.loc 1 354 21 is_stmt 1 discriminator 1 view .LVU381
 1421 00de 0022     		movs	r2, #0
 1422 00e0 2321     		movs	r1, #35
 1423 00e2 3046     		mov	r0, r6
 1424 00e4 FFF7FEFF 		bl	lv_obj_send_event
 1425              	.LVL187:
 1426 00e8 9CE7     		b	.L79
ARM GAS  C:\Users\28576\AppData\Local\Temp\ccCAaWBI.s 			page 49


 1427              	.LVL188:
 1428              	.L102:
 1429              	.LBB32:
 339:../../Middlewares/LVGL/GUI/lvgl/src/widgets/tabview/lv_tabview.c ****         }
 1430              		.loc 1 339 26 is_stmt 0 view .LVU382
 1431 00ea 421C     		adds	r2, r0, #1
 1432 00ec DFE7     		b	.L88
 1433              	.LVL189:
 1434              	.L103:
 339:../../Middlewares/LVGL/GUI/lvgl/src/widgets/tabview/lv_tabview.c ****         }
 1435              		.loc 1 339 26 view .LVU383
 1436              	.LBE32:
 342:../../Middlewares/LVGL/GUI/lvgl/src/widgets/tabview/lv_tabview.c ****         bool new_tab = false;
 1437              		.loc 1 342 21 discriminator 1 view .LVU384
 1438 00ee 0023     		movs	r3, #0
 1439 00f0 1C46     		mov	r4, r3
 1440              	.LVL190:
 342:../../Middlewares/LVGL/GUI/lvgl/src/widgets/tabview/lv_tabview.c ****         bool new_tab = false;
 1441              		.loc 1 342 21 discriminator 1 view .LVU385
 1442 00f2 E3E7     		b	.L89
 1443              	.LVL191:
 1444              	.L104:
 343:../../Middlewares/LVGL/GUI/lvgl/src/widgets/tabview/lv_tabview.c ****         if(t != (int32_t)lv_tabview_get_tab_active(tv)) new_tab = true;
 1445              		.loc 1 343 14 view .LVU386
 1446 00f4 0023     		movs	r3, #0
 1447 00f6 1D46     		mov	r5, r3
 1448 00f8 E7E7     		b	.L90
 1449              	.LVL192:
 1450              	.L91:
 351:../../Middlewares/LVGL/GUI/lvgl/src/widgets/tabview/lv_tabview.c ****         }
 1451              		.loc 1 351 13 is_stmt 1 view .LVU387
 1452 00fa 0246     		mov	r2, r0
 1453 00fc 2146     		mov	r1, r4
 1454 00fe 3046     		mov	r0, r6
 1455 0100 FFF7FEFF 		bl	lv_tabview_set_active
 1456              	.LVL193:
 1457 0104 E9E7     		b	.L92
 1458              	.LBE27:
 1459              		.cfi_endproc
 1460              	.LFE209:
 1462              		.section	.text.button_clicked_event_cb,"ax",%progbits
 1463              		.align	1
 1464              		.syntax unified
 1465              		.thumb
 1466              		.thumb_func
 1468              	button_clicked_event_cb:
 1469              	.LVL194:
 1470              	.LFB208:
 304:../../Middlewares/LVGL/GUI/lvgl/src/widgets/tabview/lv_tabview.c ****     lv_obj_t * button = lv_event_get_current_target(e);
 1471              		.loc 1 304 1 view -0
 1472              		.cfi_startproc
 1473              		@ args = 0, pretend = 0, frame = 0
 1474              		@ frame_needed = 0, uses_anonymous_args = 0
 304:../../Middlewares/LVGL/GUI/lvgl/src/widgets/tabview/lv_tabview.c ****     lv_obj_t * button = lv_event_get_current_target(e);
 1475              		.loc 1 304 1 is_stmt 0 view .LVU389
 1476 0000 38B5     		push	{r3, r4, r5, lr}
 1477              	.LCFI24:
ARM GAS  C:\Users\28576\AppData\Local\Temp\ccCAaWBI.s 			page 50


 1478              		.cfi_def_cfa_offset 16
 1479              		.cfi_offset 3, -16
 1480              		.cfi_offset 4, -12
 1481              		.cfi_offset 5, -8
 1482              		.cfi_offset 14, -4
 305:../../Middlewares/LVGL/GUI/lvgl/src/widgets/tabview/lv_tabview.c **** 
 1483              		.loc 1 305 5 is_stmt 1 view .LVU390
 305:../../Middlewares/LVGL/GUI/lvgl/src/widgets/tabview/lv_tabview.c **** 
 1484              		.loc 1 305 25 is_stmt 0 view .LVU391
 1485 0002 FFF7FEFF 		bl	lv_event_get_current_target
 1486              	.LVL195:
 305:../../Middlewares/LVGL/GUI/lvgl/src/widgets/tabview/lv_tabview.c **** 
 1487              		.loc 1 305 25 view .LVU392
 1488 0006 0546     		mov	r5, r0
 1489              	.LVL196:
 307:../../Middlewares/LVGL/GUI/lvgl/src/widgets/tabview/lv_tabview.c ****     int32_t idx = lv_obj_get_index_by_type(button, &lv_button_class);
 1490              		.loc 1 307 5 is_stmt 1 view .LVU393
 307:../../Middlewares/LVGL/GUI/lvgl/src/widgets/tabview/lv_tabview.c ****     int32_t idx = lv_obj_get_index_by_type(button, &lv_button_class);
 1491              		.loc 1 307 39 is_stmt 0 view .LVU394
 1492 0008 FFF7FEFF 		bl	lv_obj_get_parent
 1493              	.LVL197:
 307:../../Middlewares/LVGL/GUI/lvgl/src/widgets/tabview/lv_tabview.c ****     int32_t idx = lv_obj_get_index_by_type(button, &lv_button_class);
 1494              		.loc 1 307 21 discriminator 1 view .LVU395
 1495 000c FFF7FEFF 		bl	lv_obj_get_parent
 1496              	.LVL198:
 1497 0010 0446     		mov	r4, r0
 1498              	.LVL199:
 308:../../Middlewares/LVGL/GUI/lvgl/src/widgets/tabview/lv_tabview.c ****     lv_tabview_set_active(tv, idx, LV_ANIM_OFF);
 1499              		.loc 1 308 5 is_stmt 1 view .LVU396
 308:../../Middlewares/LVGL/GUI/lvgl/src/widgets/tabview/lv_tabview.c ****     lv_tabview_set_active(tv, idx, LV_ANIM_OFF);
 1500              		.loc 1 308 19 is_stmt 0 view .LVU397
 1501 0012 0549     		ldr	r1, .L107
 1502 0014 2846     		mov	r0, r5
 1503              	.LVL200:
 308:../../Middlewares/LVGL/GUI/lvgl/src/widgets/tabview/lv_tabview.c ****     lv_tabview_set_active(tv, idx, LV_ANIM_OFF);
 1504              		.loc 1 308 19 view .LVU398
 1505 0016 FFF7FEFF 		bl	lv_obj_get_index_by_type
 1506              	.LVL201:
 1507 001a 0146     		mov	r1, r0
 1508              	.LVL202:
 309:../../Middlewares/LVGL/GUI/lvgl/src/widgets/tabview/lv_tabview.c **** }
 1509              		.loc 1 309 5 is_stmt 1 view .LVU399
 1510 001c 0022     		movs	r2, #0
 1511 001e 2046     		mov	r0, r4
 1512              	.LVL203:
 309:../../Middlewares/LVGL/GUI/lvgl/src/widgets/tabview/lv_tabview.c **** }
 1513              		.loc 1 309 5 is_stmt 0 view .LVU400
 1514 0020 FFF7FEFF 		bl	lv_tabview_set_active
 1515              	.LVL204:
 310:../../Middlewares/LVGL/GUI/lvgl/src/widgets/tabview/lv_tabview.c **** 
 1516              		.loc 1 310 1 view .LVU401
 1517 0024 38BD     		pop	{r3, r4, r5, pc}
 1518              	.LVL205:
 1519              	.L108:
 310:../../Middlewares/LVGL/GUI/lvgl/src/widgets/tabview/lv_tabview.c **** 
 1520              		.loc 1 310 1 view .LVU402
 1521 0026 00BF     		.align	2
ARM GAS  C:\Users\28576\AppData\Local\Temp\ccCAaWBI.s 			page 51


 1522              	.L107:
 1523 0028 00000000 		.word	lv_button_class
 1524              		.cfi_endproc
 1525              	.LFE208:
 1527              		.section	.text.lv_tabview_add_tab,"ax",%progbits
 1528              		.align	1
 1529              		.global	lv_tabview_add_tab
 1530              		.syntax unified
 1531              		.thumb
 1532              		.thumb_func
 1534              	lv_tabview_add_tab:
 1535              	.LVL206:
 1536              	.LFB197:
  71:../../Middlewares/LVGL/GUI/lvgl/src/widgets/tabview/lv_tabview.c ****     LV_ASSERT_OBJ(obj, MY_CLASS);
 1537              		.loc 1 71 1 is_stmt 1 view -0
 1538              		.cfi_startproc
 1539              		@ args = 0, pretend = 0, frame = 0
 1540              		@ frame_needed = 0, uses_anonymous_args = 0
  72:../../Middlewares/LVGL/GUI/lvgl/src/widgets/tabview/lv_tabview.c ****     lv_obj_t * cont = lv_tabview_get_content(obj);
 1541              		.loc 1 72 5 view .LVU404
  72:../../Middlewares/LVGL/GUI/lvgl/src/widgets/tabview/lv_tabview.c ****     lv_obj_t * cont = lv_tabview_get_content(obj);
 1542              		.loc 1 72 5 view .LVU405
 1543 0000 0028     		cmp	r0, #0
 1544 0002 4BD0     		beq	.L111
  71:../../Middlewares/LVGL/GUI/lvgl/src/widgets/tabview/lv_tabview.c ****     LV_ASSERT_OBJ(obj, MY_CLASS);
 1545              		.loc 1 71 1 is_stmt 0 view .LVU406
 1546 0004 2DE9F843 		push	{r3, r4, r5, r6, r7, r8, r9, lr}
 1547              	.LCFI25:
 1548              		.cfi_def_cfa_offset 32
 1549              		.cfi_offset 3, -32
 1550              		.cfi_offset 4, -28
 1551              		.cfi_offset 5, -24
 1552              		.cfi_offset 6, -20
 1553              		.cfi_offset 7, -16
 1554              		.cfi_offset 8, -12
 1555              		.cfi_offset 9, -8
 1556              		.cfi_offset 14, -4
 1557 0008 0F46     		mov	r7, r1
 1558 000a 0546     		mov	r5, r0
  72:../../Middlewares/LVGL/GUI/lvgl/src/widgets/tabview/lv_tabview.c ****     lv_obj_t * cont = lv_tabview_get_content(obj);
 1559              		.loc 1 72 5 is_stmt 1 view .LVU407
  72:../../Middlewares/LVGL/GUI/lvgl/src/widgets/tabview/lv_tabview.c ****     lv_obj_t * cont = lv_tabview_get_content(obj);
 1560              		.loc 1 72 33 view .LVU408
  73:../../Middlewares/LVGL/GUI/lvgl/src/widgets/tabview/lv_tabview.c **** 
 1561              		.loc 1 73 5 view .LVU409
  73:../../Middlewares/LVGL/GUI/lvgl/src/widgets/tabview/lv_tabview.c **** 
 1562              		.loc 1 73 23 is_stmt 0 view .LVU410
 1563 000c FFF7FEFF 		bl	lv_tabview_get_content
 1564              	.LVL207:
  73:../../Middlewares/LVGL/GUI/lvgl/src/widgets/tabview/lv_tabview.c **** 
 1565              		.loc 1 73 23 view .LVU411
 1566 0010 8046     		mov	r8, r0
 1567              	.LVL208:
  75:../../Middlewares/LVGL/GUI/lvgl/src/widgets/tabview/lv_tabview.c ****     lv_obj_set_size(page, lv_pct(100), lv_pct(100));
 1568              		.loc 1 75 5 is_stmt 1 view .LVU412
  75:../../Middlewares/LVGL/GUI/lvgl/src/widgets/tabview/lv_tabview.c ****     lv_obj_set_size(page, lv_pct(100), lv_pct(100));
 1569              		.loc 1 75 23 is_stmt 0 view .LVU413
ARM GAS  C:\Users\28576\AppData\Local\Temp\ccCAaWBI.s 			page 52


 1570 0012 FFF7FEFF 		bl	lv_obj_create
 1571              	.LVL209:
  75:../../Middlewares/LVGL/GUI/lvgl/src/widgets/tabview/lv_tabview.c ****     lv_obj_set_size(page, lv_pct(100), lv_pct(100));
 1572              		.loc 1 75 23 view .LVU414
 1573 0016 0646     		mov	r6, r0
 1574 0018 8146     		mov	r9, r0
 1575              	.LVL210:
  76:../../Middlewares/LVGL/GUI/lvgl/src/widgets/tabview/lv_tabview.c **** 
 1576              		.loc 1 76 5 is_stmt 1 view .LVU415
 1577 001a 6420     		movs	r0, #100
 1578              	.LVL211:
  76:../../Middlewares/LVGL/GUI/lvgl/src/widgets/tabview/lv_tabview.c **** 
 1579              		.loc 1 76 5 is_stmt 0 view .LVU416
 1580 001c FFF7FEFF 		bl	lv_pct
 1581              	.LVL212:
 1582 0020 0446     		mov	r4, r0
  76:../../Middlewares/LVGL/GUI/lvgl/src/widgets/tabview/lv_tabview.c **** 
 1583              		.loc 1 76 5 discriminator 1 view .LVU417
 1584 0022 6420     		movs	r0, #100
 1585 0024 FFF7FEFF 		bl	lv_pct
 1586              	.LVL213:
 1587 0028 0246     		mov	r2, r0
  76:../../Middlewares/LVGL/GUI/lvgl/src/widgets/tabview/lv_tabview.c **** 
 1588              		.loc 1 76 5 discriminator 2 view .LVU418
 1589 002a 2146     		mov	r1, r4
 1590 002c 3046     		mov	r0, r6
 1591 002e FFF7FEFF 		bl	lv_obj_set_size
 1592              	.LVL214:
  78:../../Middlewares/LVGL/GUI/lvgl/src/widgets/tabview/lv_tabview.c **** 
 1593              		.loc 1 78 5 is_stmt 1 view .LVU419
  78:../../Middlewares/LVGL/GUI/lvgl/src/widgets/tabview/lv_tabview.c **** 
 1594              		.loc 1 78 26 is_stmt 0 view .LVU420
 1595 0032 2846     		mov	r0, r5
 1596 0034 FFF7FEFF 		bl	lv_tabview_get_tab_bar
 1597              	.LVL215:
  80:../../Middlewares/LVGL/GUI/lvgl/src/widgets/tabview/lv_tabview.c ****     lv_obj_set_flex_grow(button, 1);
 1598              		.loc 1 80 5 is_stmt 1 view .LVU421
  80:../../Middlewares/LVGL/GUI/lvgl/src/widgets/tabview/lv_tabview.c ****     lv_obj_set_flex_grow(button, 1);
 1599              		.loc 1 80 25 is_stmt 0 view .LVU422
 1600 0038 FFF7FEFF 		bl	lv_button_create
 1601              	.LVL216:
  80:../../Middlewares/LVGL/GUI/lvgl/src/widgets/tabview/lv_tabview.c ****     lv_obj_set_flex_grow(button, 1);
 1602              		.loc 1 80 25 view .LVU423
 1603 003c 0446     		mov	r4, r0
 1604              	.LVL217:
  81:../../Middlewares/LVGL/GUI/lvgl/src/widgets/tabview/lv_tabview.c ****     lv_obj_set_size(button, lv_pct(100), lv_pct(100));
 1605              		.loc 1 81 5 is_stmt 1 view .LVU424
 1606 003e 0121     		movs	r1, #1
 1607 0040 FFF7FEFF 		bl	lv_obj_set_flex_grow
 1608              	.LVL218:
  82:../../Middlewares/LVGL/GUI/lvgl/src/widgets/tabview/lv_tabview.c ****     lv_obj_add_event_cb(button, button_clicked_event_cb, LV_EVENT_CLICKED, NULL);
 1609              		.loc 1 82 5 view .LVU425
 1610 0044 6420     		movs	r0, #100
 1611 0046 FFF7FEFF 		bl	lv_pct
 1612              	.LVL219:
 1613 004a 0646     		mov	r6, r0
 1614              	.LVL220:
ARM GAS  C:\Users\28576\AppData\Local\Temp\ccCAaWBI.s 			page 53


  82:../../Middlewares/LVGL/GUI/lvgl/src/widgets/tabview/lv_tabview.c ****     lv_obj_add_event_cb(button, button_clicked_event_cb, LV_EVENT_CLICKED, NULL);
 1615              		.loc 1 82 5 is_stmt 0 discriminator 1 view .LVU426
 1616 004c 6420     		movs	r0, #100
 1617 004e FFF7FEFF 		bl	lv_pct
 1618              	.LVL221:
 1619 0052 0246     		mov	r2, r0
  82:../../Middlewares/LVGL/GUI/lvgl/src/widgets/tabview/lv_tabview.c ****     lv_obj_add_event_cb(button, button_clicked_event_cb, LV_EVENT_CLICKED, NULL);
 1620              		.loc 1 82 5 discriminator 2 view .LVU427
 1621 0054 3146     		mov	r1, r6
 1622 0056 2046     		mov	r0, r4
 1623 0058 FFF7FEFF 		bl	lv_obj_set_size
 1624              	.LVL222:
  83:../../Middlewares/LVGL/GUI/lvgl/src/widgets/tabview/lv_tabview.c ****     lv_group_t * g = lv_group_get_default();
 1625              		.loc 1 83 5 is_stmt 1 view .LVU428
 1626 005c 0023     		movs	r3, #0
 1627 005e 0A22     		movs	r2, #10
 1628 0060 1149     		ldr	r1, .L117
 1629 0062 2046     		mov	r0, r4
 1630 0064 FFF7FEFF 		bl	lv_obj_add_event_cb
 1631              	.LVL223:
  84:../../Middlewares/LVGL/GUI/lvgl/src/widgets/tabview/lv_tabview.c ****     if(g) lv_group_add_obj(g, button);
 1632              		.loc 1 84 5 view .LVU429
  84:../../Middlewares/LVGL/GUI/lvgl/src/widgets/tabview/lv_tabview.c ****     if(g) lv_group_add_obj(g, button);
 1633              		.loc 1 84 22 is_stmt 0 view .LVU430
 1634 0068 FFF7FEFF 		bl	lv_group_get_default
 1635              	.LVL224:
  85:../../Middlewares/LVGL/GUI/lvgl/src/widgets/tabview/lv_tabview.c **** 
 1636              		.loc 1 85 5 is_stmt 1 view .LVU431
  85:../../Middlewares/LVGL/GUI/lvgl/src/widgets/tabview/lv_tabview.c **** 
 1637              		.loc 1 85 7 is_stmt 0 view .LVU432
 1638 006c 10B1     		cbz	r0, .L112
  85:../../Middlewares/LVGL/GUI/lvgl/src/widgets/tabview/lv_tabview.c **** 
 1639              		.loc 1 85 11 is_stmt 1 discriminator 1 view .LVU433
 1640 006e 2146     		mov	r1, r4
 1641 0070 FFF7FEFF 		bl	lv_group_add_obj
 1642              	.LVL225:
 1643              	.L112:
  87:../../Middlewares/LVGL/GUI/lvgl/src/widgets/tabview/lv_tabview.c ****     lv_label_set_text(label, name);
 1644              		.loc 1 87 5 view .LVU434
  87:../../Middlewares/LVGL/GUI/lvgl/src/widgets/tabview/lv_tabview.c ****     lv_label_set_text(label, name);
 1645              		.loc 1 87 24 is_stmt 0 view .LVU435
 1646 0074 2046     		mov	r0, r4
 1647 0076 FFF7FEFF 		bl	lv_label_create
 1648              	.LVL226:
 1649 007a 0446     		mov	r4, r0
 1650              	.LVL227:
  88:../../Middlewares/LVGL/GUI/lvgl/src/widgets/tabview/lv_tabview.c ****     lv_obj_center(label);
 1651              		.loc 1 88 5 is_stmt 1 view .LVU436
 1652 007c 3946     		mov	r1, r7
 1653 007e FFF7FEFF 		bl	lv_label_set_text
 1654              	.LVL228:
  89:../../Middlewares/LVGL/GUI/lvgl/src/widgets/tabview/lv_tabview.c **** 
 1655              		.loc 1 89 5 view .LVU437
 1656 0082 2046     		mov	r0, r4
 1657 0084 FFF7FEFF 		bl	lv_obj_center
 1658              	.LVL229:
  91:../../Middlewares/LVGL/GUI/lvgl/src/widgets/tabview/lv_tabview.c ****     lv_tabview_t * tabview = (lv_tabview_t *)obj;
ARM GAS  C:\Users\28576\AppData\Local\Temp\ccCAaWBI.s 			page 54


 1659              		.loc 1 91 5 view .LVU438
  91:../../Middlewares/LVGL/GUI/lvgl/src/widgets/tabview/lv_tabview.c ****     lv_tabview_t * tabview = (lv_tabview_t *)obj;
 1660              		.loc 1 91 24 is_stmt 0 view .LVU439
 1661 0088 4046     		mov	r0, r8
 1662 008a FFF7FEFF 		bl	lv_obj_get_child_count
 1663              	.LVL230:
  91:../../Middlewares/LVGL/GUI/lvgl/src/widgets/tabview/lv_tabview.c ****     lv_tabview_t * tabview = (lv_tabview_t *)obj;
 1664              		.loc 1 91 14 discriminator 1 view .LVU440
 1665 008e 411E     		subs	r1, r0, #1
 1666              	.LVL231:
  92:../../Middlewares/LVGL/GUI/lvgl/src/widgets/tabview/lv_tabview.c ****     if(tab_idx == tabview->tab_cur) {
 1667              		.loc 1 92 5 is_stmt 1 view .LVU441
  93:../../Middlewares/LVGL/GUI/lvgl/src/widgets/tabview/lv_tabview.c ****         lv_tabview_set_active(obj, tab_idx, LV_ANIM_OFF);
 1668              		.loc 1 93 5 view .LVU442
  93:../../Middlewares/LVGL/GUI/lvgl/src/widgets/tabview/lv_tabview.c ****         lv_tabview_set_active(obj, tab_idx, LV_ANIM_OFF);
 1669              		.loc 1 93 26 is_stmt 0 view .LVU443
 1670 0090 EB6A     		ldr	r3, [r5, #44]
  93:../../Middlewares/LVGL/GUI/lvgl/src/widgets/tabview/lv_tabview.c ****         lv_tabview_set_active(obj, tab_idx, LV_ANIM_OFF);
 1671              		.loc 1 93 7 view .LVU444
 1672 0092 8B42     		cmp	r3, r1
 1673 0094 03D0     		beq	.L116
 1674              	.LVL232:
 1675              	.L109:
  98:../../Middlewares/LVGL/GUI/lvgl/src/widgets/tabview/lv_tabview.c **** 
 1676              		.loc 1 98 1 view .LVU445
 1677 0096 4846     		mov	r0, r9
 1678 0098 BDE8F883 		pop	{r3, r4, r5, r6, r7, r8, r9, pc}
 1679              	.LVL233:
 1680              	.L111:
 1681              	.LCFI26:
 1682              		.cfi_def_cfa_offset 0
 1683              		.cfi_restore 3
 1684              		.cfi_restore 4
 1685              		.cfi_restore 5
 1686              		.cfi_restore 6
 1687              		.cfi_restore 7
 1688              		.cfi_restore 8
 1689              		.cfi_restore 9
 1690              		.cfi_restore 14
  72:../../Middlewares/LVGL/GUI/lvgl/src/widgets/tabview/lv_tabview.c ****     lv_obj_t * cont = lv_tabview_get_content(obj);
 1691              		.loc 1 72 5 is_stmt 1 view .LVU446
  72:../../Middlewares/LVGL/GUI/lvgl/src/widgets/tabview/lv_tabview.c ****     lv_obj_t * cont = lv_tabview_get_content(obj);
 1692              		.loc 1 72 5 view .LVU447
  72:../../Middlewares/LVGL/GUI/lvgl/src/widgets/tabview/lv_tabview.c ****     lv_obj_t * cont = lv_tabview_get_content(obj);
 1693              		.loc 1 72 5 view .LVU448
  72:../../Middlewares/LVGL/GUI/lvgl/src/widgets/tabview/lv_tabview.c ****     lv_obj_t * cont = lv_tabview_get_content(obj);
 1694              		.loc 1 72 5 view .LVU449
  72:../../Middlewares/LVGL/GUI/lvgl/src/widgets/tabview/lv_tabview.c ****     lv_obj_t * cont = lv_tabview_get_content(obj);
 1695              		.loc 1 72 5 view .LVU450
 1696 009c FEE7     		b	.L111
 1697              	.LVL234:
 1698              	.L116:
 1699              	.LCFI27:
 1700              		.cfi_def_cfa_offset 32
 1701              		.cfi_offset 3, -32
 1702              		.cfi_offset 4, -28
 1703              		.cfi_offset 5, -24
ARM GAS  C:\Users\28576\AppData\Local\Temp\ccCAaWBI.s 			page 55


 1704              		.cfi_offset 6, -20
 1705              		.cfi_offset 7, -16
 1706              		.cfi_offset 8, -12
 1707              		.cfi_offset 9, -8
 1708              		.cfi_offset 14, -4
  94:../../Middlewares/LVGL/GUI/lvgl/src/widgets/tabview/lv_tabview.c ****     }
 1709              		.loc 1 94 9 view .LVU451
 1710 009e 0022     		movs	r2, #0
 1711 00a0 2846     		mov	r0, r5
 1712 00a2 FFF7FEFF 		bl	lv_tabview_set_active
 1713              	.LVL235:
  97:../../Middlewares/LVGL/GUI/lvgl/src/widgets/tabview/lv_tabview.c **** }
 1714              		.loc 1 97 5 view .LVU452
  97:../../Middlewares/LVGL/GUI/lvgl/src/widgets/tabview/lv_tabview.c **** }
 1715              		.loc 1 97 12 is_stmt 0 view .LVU453
 1716 00a6 F6E7     		b	.L109
 1717              	.L118:
 1718              		.align	2
 1719              	.L117:
 1720 00a8 00000000 		.word	button_clicked_event_cb
 1721              		.cfi_endproc
 1722              	.LFE197:
 1724              		.global	lv_tabview_class
 1725              		.section	.rodata.str1.4,"aMS",%progbits,1
 1726              		.align	2
 1727              	.LC0:
 1728 0000 6C765F74 		.ascii	"lv_tabview\000"
 1728      61627669 
 1728      657700
 1729              		.section	.rodata.lv_tabview_class,"a"
 1730              		.align	2
 1733              	lv_tabview_class:
 1734 0000 00000000 		.word	lv_obj_class
 1735 0004 00000000 		.word	lv_tabview_constructor
 1736 0008 00000000 		.space	4
 1737 000c 00000000 		.word	lv_tabview_event
 1738 0010 00000000 		.space	4
 1739 0014 00000000 		.word	.LC0
 1740 0018 64000020 		.word	536871012
 1741 001c 64000020 		.word	536871012
 1742 0020 40       		.byte	64
 1743 0021 03       		.byte	3
 1744 0022 00       		.byte	0
 1745 0023 00       		.space	1
 1746              		.text
 1747              	.Letext0:
 1748              		.file 3 "C:/Users/28576/AppData/Roaming/xPacks/@xpack-dev-tools/arm-none-eabi-gcc/15.2.1-1.1.1/.co
 1749              		.file 4 "C:/Users/28576/AppData/Roaming/xPacks/@xpack-dev-tools/arm-none-eabi-gcc/15.2.1-1.1.1/.co
 1750              		.file 5 "H:/STM32H7/RGB_LVGL/Middlewares/LVGL/GUI/lvgl/src/misc/lv_types.h"
 1751              		.file 6 "H:/STM32H7/RGB_LVGL/Middlewares/LVGL/GUI/lvgl/src/core/lv_obj_private.h"
 1752              		.file 7 "H:/STM32H7/RGB_LVGL/Middlewares/LVGL/GUI/lvgl/src/core/lv_obj_class_private.h"
 1753              		.file 8 "H:/STM32H7/RGB_LVGL/Middlewares/LVGL/GUI/lvgl/src/indev/lv_indev_private.h"
 1754              		.file 9 "H:/STM32H7/RGB_LVGL/Middlewares/LVGL/GUI/lvgl/src/misc/lv_anim.h"
 1755              		.file 10 "../../Middlewares/LVGL/GUI/lvgl/src/widgets/tabview/lv_tabview_private.h"
 1756              		.file 11 "H:/STM32H7/RGB_LVGL/Middlewares/LVGL/GUI/lvgl/src/misc/lv_array.h"
 1757              		.file 12 "H:/STM32H7/RGB_LVGL/Middlewares/LVGL/GUI/lvgl/src/misc/lv_area.h"
 1758              		.file 13 "H:/STM32H7/RGB_LVGL/Middlewares/LVGL/GUI/lvgl/src/misc/lv_color.h"
ARM GAS  C:\Users\28576\AppData\Local\Temp\ccCAaWBI.s 			page 56


 1759              		.file 14 "H:/STM32H7/RGB_LVGL/Middlewares/LVGL/GUI/lvgl/src/misc/lv_bidi.h"
 1760              		.file 15 "H:/STM32H7/RGB_LVGL/Middlewares/LVGL/GUI/lvgl/src/layouts/flex/lv_flex.h"
 1761              		.file 16 "H:/STM32H7/RGB_LVGL/Middlewares/LVGL/GUI/lvgl/src/misc/lv_style.h"
 1762              		.file 17 "H:/STM32H7/RGB_LVGL/Middlewares/LVGL/GUI/lvgl/src/misc/lv_event.h"
 1763              		.file 18 "H:/STM32H7/RGB_LVGL/Middlewares/LVGL/GUI/lvgl/src/core/lv_obj_scroll.h"
 1764              		.file 19 "H:/STM32H7/RGB_LVGL/Middlewares/LVGL/GUI/lvgl/src/indev/lv_indev.h"
 1765              		.file 20 "H:/STM32H7/RGB_LVGL/Middlewares/LVGL/GUI/lvgl/src/core/lv_obj.h"
 1766              		.file 21 "../../Middlewares/LVGL/GUI/lvgl/src/widgets/tabview/lv_tabview.h"
 1767              		.file 22 "H:/STM32H7/RGB_LVGL/Middlewares/LVGL/GUI/lvgl/src/widgets/label/lv_label.h"
 1768              		.file 23 "H:/STM32H7/RGB_LVGL/Middlewares/LVGL/GUI/lvgl/src/widgets/bar/lv_bar.h"
 1769              		.file 24 "H:/STM32H7/RGB_LVGL/Middlewares/LVGL/GUI/lvgl/src/widgets/button/lv_button.h"
 1770              		.file 25 "H:/STM32H7/RGB_LVGL/Middlewares/LVGL/GUI/lvgl/src/core/lv_obj_tree.h"
 1771              		.file 26 "H:/STM32H7/RGB_LVGL/Middlewares/LVGL/GUI/lvgl/src/display/lv_display.h"
 1772              		.file 27 "H:/STM32H7/RGB_LVGL/Middlewares/LVGL/GUI/lvgl/src/core/lv_obj_pos.h"
 1773              		.file 28 "H:/STM32H7/RGB_LVGL/Middlewares/LVGL/GUI/lvgl/src/core/lv_group.h"
 1774              		.file 29 "H:/STM32H7/RGB_LVGL/Middlewares/LVGL/GUI/lvgl/src/core/lv_obj_class.h"
 1775              		.file 30 "H:/STM32H7/RGB_LVGL/Middlewares/LVGL/GUI/lvgl/src/core/lv_obj_style.h"
 1776              		.file 31 "H:/STM32H7/RGB_LVGL/Middlewares/LVGL/GUI/lvgl/src/core/lv_obj_event.h"
ARM GAS  C:\Users\28576\AppData\Local\Temp\ccCAaWBI.s 			page 57

