ARM GAS  C:\Users\28576\AppData\Local\Temp\ccik0xCO.s 			page 1


   1              		.cpu cortex-m7
   2              		.arch armv7e-m
   3              		.fpu fpv5-d16
   4              		.eabi_attribute 28, 1
   5              		.eabi_attribute 20, 1
   6              		.eabi_attribute 21, 1
   7              		.eabi_attribute 23, 3
   8              		.eabi_attribute 24, 1
   9              		.eabi_attribute 25, 1
  10              		.eabi_attribute 26, 1
  11              		.eabi_attribute 30, 1
  12              		.eabi_attribute 34, 1
  13              		.eabi_attribute 18, 4
  14              		.file	"lv_win.c"
  15              		.text
  16              	.Ltext0:
  17              		.cfi_sections	.debug_frame
  18              		.file 1 "../../Middlewares/LVGL/GUI/lvgl/src/widgets/win/lv_win.c"
  19              		.section	.text.lv_win_constructor,"ax",%progbits
  20              		.align	1
  21              		.syntax unified
  22              		.thumb
  23              		.thumb_func
  25              	lv_win_constructor:
  26              	.LVL0:
  27              	.LFB201:
   1:../../Middlewares/LVGL/GUI/lvgl/src/widgets/win/lv_win.c **** /**
   2:../../Middlewares/LVGL/GUI/lvgl/src/widgets/win/lv_win.c ****  * @file lv_win.c
   3:../../Middlewares/LVGL/GUI/lvgl/src/widgets/win/lv_win.c ****  *
   4:../../Middlewares/LVGL/GUI/lvgl/src/widgets/win/lv_win.c ****  */
   5:../../Middlewares/LVGL/GUI/lvgl/src/widgets/win/lv_win.c **** 
   6:../../Middlewares/LVGL/GUI/lvgl/src/widgets/win/lv_win.c **** /*********************
   7:../../Middlewares/LVGL/GUI/lvgl/src/widgets/win/lv_win.c ****  *      INCLUDES
   8:../../Middlewares/LVGL/GUI/lvgl/src/widgets/win/lv_win.c ****  *********************/
   9:../../Middlewares/LVGL/GUI/lvgl/src/widgets/win/lv_win.c **** #include "lv_win_private.h"
  10:../../Middlewares/LVGL/GUI/lvgl/src/widgets/win/lv_win.c **** #include "../../core/lv_obj_class_private.h"
  11:../../Middlewares/LVGL/GUI/lvgl/src/widgets/win/lv_win.c **** #include "../../lvgl.h"
  12:../../Middlewares/LVGL/GUI/lvgl/src/widgets/win/lv_win.c **** #if LV_USE_WIN
  13:../../Middlewares/LVGL/GUI/lvgl/src/widgets/win/lv_win.c **** 
  14:../../Middlewares/LVGL/GUI/lvgl/src/widgets/win/lv_win.c **** /*********************
  15:../../Middlewares/LVGL/GUI/lvgl/src/widgets/win/lv_win.c ****  *      DEFINES
  16:../../Middlewares/LVGL/GUI/lvgl/src/widgets/win/lv_win.c ****  *********************/
  17:../../Middlewares/LVGL/GUI/lvgl/src/widgets/win/lv_win.c **** 
  18:../../Middlewares/LVGL/GUI/lvgl/src/widgets/win/lv_win.c **** /**********************
  19:../../Middlewares/LVGL/GUI/lvgl/src/widgets/win/lv_win.c ****  *      TYPEDEFS
  20:../../Middlewares/LVGL/GUI/lvgl/src/widgets/win/lv_win.c ****  **********************/
  21:../../Middlewares/LVGL/GUI/lvgl/src/widgets/win/lv_win.c **** 
  22:../../Middlewares/LVGL/GUI/lvgl/src/widgets/win/lv_win.c **** /**********************
  23:../../Middlewares/LVGL/GUI/lvgl/src/widgets/win/lv_win.c ****  *  STATIC PROTOTYPES
  24:../../Middlewares/LVGL/GUI/lvgl/src/widgets/win/lv_win.c ****  **********************/
  25:../../Middlewares/LVGL/GUI/lvgl/src/widgets/win/lv_win.c **** static void lv_win_constructor(const lv_obj_class_t * class_p, lv_obj_t * obj);
  26:../../Middlewares/LVGL/GUI/lvgl/src/widgets/win/lv_win.c **** 
  27:../../Middlewares/LVGL/GUI/lvgl/src/widgets/win/lv_win.c **** /**********************
  28:../../Middlewares/LVGL/GUI/lvgl/src/widgets/win/lv_win.c ****  *  STATIC VARIABLES
  29:../../Middlewares/LVGL/GUI/lvgl/src/widgets/win/lv_win.c ****  **********************/
  30:../../Middlewares/LVGL/GUI/lvgl/src/widgets/win/lv_win.c **** const lv_obj_class_t lv_win_class = {
  31:../../Middlewares/LVGL/GUI/lvgl/src/widgets/win/lv_win.c ****     .constructor_cb = lv_win_constructor,
ARM GAS  C:\Users\28576\AppData\Local\Temp\ccik0xCO.s 			page 2


  32:../../Middlewares/LVGL/GUI/lvgl/src/widgets/win/lv_win.c ****     .width_def = LV_PCT(100),
  33:../../Middlewares/LVGL/GUI/lvgl/src/widgets/win/lv_win.c ****     .height_def = LV_PCT(100),
  34:../../Middlewares/LVGL/GUI/lvgl/src/widgets/win/lv_win.c ****     .base_class = &lv_obj_class,
  35:../../Middlewares/LVGL/GUI/lvgl/src/widgets/win/lv_win.c ****     .instance_size = sizeof(lv_win_t),
  36:../../Middlewares/LVGL/GUI/lvgl/src/widgets/win/lv_win.c ****     .name = "lv_win",
  37:../../Middlewares/LVGL/GUI/lvgl/src/widgets/win/lv_win.c **** };
  38:../../Middlewares/LVGL/GUI/lvgl/src/widgets/win/lv_win.c **** /**********************
  39:../../Middlewares/LVGL/GUI/lvgl/src/widgets/win/lv_win.c ****  *      MACROS
  40:../../Middlewares/LVGL/GUI/lvgl/src/widgets/win/lv_win.c ****  **********************/
  41:../../Middlewares/LVGL/GUI/lvgl/src/widgets/win/lv_win.c **** 
  42:../../Middlewares/LVGL/GUI/lvgl/src/widgets/win/lv_win.c **** /**********************
  43:../../Middlewares/LVGL/GUI/lvgl/src/widgets/win/lv_win.c ****  *   GLOBAL FUNCTIONS
  44:../../Middlewares/LVGL/GUI/lvgl/src/widgets/win/lv_win.c ****  **********************/
  45:../../Middlewares/LVGL/GUI/lvgl/src/widgets/win/lv_win.c **** 
  46:../../Middlewares/LVGL/GUI/lvgl/src/widgets/win/lv_win.c **** lv_obj_t * lv_win_create(lv_obj_t * parent)
  47:../../Middlewares/LVGL/GUI/lvgl/src/widgets/win/lv_win.c **** {
  48:../../Middlewares/LVGL/GUI/lvgl/src/widgets/win/lv_win.c ****     LV_LOG_INFO("begin");
  49:../../Middlewares/LVGL/GUI/lvgl/src/widgets/win/lv_win.c ****     lv_obj_t * obj = lv_obj_class_create_obj(&lv_win_class, parent);
  50:../../Middlewares/LVGL/GUI/lvgl/src/widgets/win/lv_win.c ****     lv_obj_class_init_obj(obj);
  51:../../Middlewares/LVGL/GUI/lvgl/src/widgets/win/lv_win.c ****     return obj;
  52:../../Middlewares/LVGL/GUI/lvgl/src/widgets/win/lv_win.c **** }
  53:../../Middlewares/LVGL/GUI/lvgl/src/widgets/win/lv_win.c **** 
  54:../../Middlewares/LVGL/GUI/lvgl/src/widgets/win/lv_win.c **** lv_obj_t * lv_win_add_title(lv_obj_t * win, const char * txt)
  55:../../Middlewares/LVGL/GUI/lvgl/src/widgets/win/lv_win.c **** {
  56:../../Middlewares/LVGL/GUI/lvgl/src/widgets/win/lv_win.c ****     lv_obj_t * header = lv_win_get_header(win);
  57:../../Middlewares/LVGL/GUI/lvgl/src/widgets/win/lv_win.c ****     lv_obj_t * title = lv_label_create(header);
  58:../../Middlewares/LVGL/GUI/lvgl/src/widgets/win/lv_win.c ****     lv_label_set_long_mode(title, LV_LABEL_LONG_MODE_DOTS);
  59:../../Middlewares/LVGL/GUI/lvgl/src/widgets/win/lv_win.c ****     lv_label_set_text(title, txt);
  60:../../Middlewares/LVGL/GUI/lvgl/src/widgets/win/lv_win.c ****     lv_obj_set_flex_grow(title, 1);
  61:../../Middlewares/LVGL/GUI/lvgl/src/widgets/win/lv_win.c ****     return title;
  62:../../Middlewares/LVGL/GUI/lvgl/src/widgets/win/lv_win.c **** }
  63:../../Middlewares/LVGL/GUI/lvgl/src/widgets/win/lv_win.c **** 
  64:../../Middlewares/LVGL/GUI/lvgl/src/widgets/win/lv_win.c **** lv_obj_t * lv_win_add_button(lv_obj_t * win, const void * icon, int32_t btn_w)
  65:../../Middlewares/LVGL/GUI/lvgl/src/widgets/win/lv_win.c **** {
  66:../../Middlewares/LVGL/GUI/lvgl/src/widgets/win/lv_win.c ****     lv_obj_t * header = lv_win_get_header(win);
  67:../../Middlewares/LVGL/GUI/lvgl/src/widgets/win/lv_win.c ****     lv_obj_t * btn = lv_button_create(header);
  68:../../Middlewares/LVGL/GUI/lvgl/src/widgets/win/lv_win.c ****     lv_obj_set_size(btn, btn_w, LV_PCT(100));
  69:../../Middlewares/LVGL/GUI/lvgl/src/widgets/win/lv_win.c **** 
  70:../../Middlewares/LVGL/GUI/lvgl/src/widgets/win/lv_win.c ****     if(icon) {
  71:../../Middlewares/LVGL/GUI/lvgl/src/widgets/win/lv_win.c ****         lv_obj_t * img = lv_image_create(btn);
  72:../../Middlewares/LVGL/GUI/lvgl/src/widgets/win/lv_win.c ****         lv_image_set_src(img, icon);
  73:../../Middlewares/LVGL/GUI/lvgl/src/widgets/win/lv_win.c ****         lv_obj_align(img, LV_ALIGN_CENTER, 0, 0);
  74:../../Middlewares/LVGL/GUI/lvgl/src/widgets/win/lv_win.c ****     }
  75:../../Middlewares/LVGL/GUI/lvgl/src/widgets/win/lv_win.c **** 
  76:../../Middlewares/LVGL/GUI/lvgl/src/widgets/win/lv_win.c ****     return btn;
  77:../../Middlewares/LVGL/GUI/lvgl/src/widgets/win/lv_win.c **** }
  78:../../Middlewares/LVGL/GUI/lvgl/src/widgets/win/lv_win.c **** 
  79:../../Middlewares/LVGL/GUI/lvgl/src/widgets/win/lv_win.c **** lv_obj_t * lv_win_get_header(lv_obj_t * win)
  80:../../Middlewares/LVGL/GUI/lvgl/src/widgets/win/lv_win.c **** {
  81:../../Middlewares/LVGL/GUI/lvgl/src/widgets/win/lv_win.c ****     return lv_obj_get_child(win, 0);
  82:../../Middlewares/LVGL/GUI/lvgl/src/widgets/win/lv_win.c **** }
  83:../../Middlewares/LVGL/GUI/lvgl/src/widgets/win/lv_win.c **** 
  84:../../Middlewares/LVGL/GUI/lvgl/src/widgets/win/lv_win.c **** lv_obj_t * lv_win_get_content(lv_obj_t * win)
  85:../../Middlewares/LVGL/GUI/lvgl/src/widgets/win/lv_win.c **** {
  86:../../Middlewares/LVGL/GUI/lvgl/src/widgets/win/lv_win.c ****     return lv_obj_get_child(win, 1);
  87:../../Middlewares/LVGL/GUI/lvgl/src/widgets/win/lv_win.c **** }
  88:../../Middlewares/LVGL/GUI/lvgl/src/widgets/win/lv_win.c **** 
ARM GAS  C:\Users\28576\AppData\Local\Temp\ccik0xCO.s 			page 3


  89:../../Middlewares/LVGL/GUI/lvgl/src/widgets/win/lv_win.c **** /**********************
  90:../../Middlewares/LVGL/GUI/lvgl/src/widgets/win/lv_win.c ****  *   STATIC FUNCTIONS
  91:../../Middlewares/LVGL/GUI/lvgl/src/widgets/win/lv_win.c ****  **********************/
  92:../../Middlewares/LVGL/GUI/lvgl/src/widgets/win/lv_win.c **** 
  93:../../Middlewares/LVGL/GUI/lvgl/src/widgets/win/lv_win.c **** static void lv_win_constructor(const lv_obj_class_t * class_p, lv_obj_t * obj)
  94:../../Middlewares/LVGL/GUI/lvgl/src/widgets/win/lv_win.c **** {
  28              		.loc 1 94 1 view -0
  29              		.cfi_startproc
  30              		@ args = 0, pretend = 0, frame = 0
  31              		@ frame_needed = 0, uses_anonymous_args = 0
  32              		.loc 1 94 1 is_stmt 0 view .LVU1
  33 0000 70B5     		push	{r4, r5, r6, lr}
  34              	.LCFI0:
  35              		.cfi_def_cfa_offset 16
  36              		.cfi_offset 4, -16
  37              		.cfi_offset 5, -12
  38              		.cfi_offset 6, -8
  39              		.cfi_offset 14, -4
  40 0002 0C46     		mov	r4, r1
  95:../../Middlewares/LVGL/GUI/lvgl/src/widgets/win/lv_win.c ****     LV_UNUSED(class_p);
  41              		.loc 1 95 5 is_stmt 1 view .LVU2
  96:../../Middlewares/LVGL/GUI/lvgl/src/widgets/win/lv_win.c ****     lv_obj_t * parent = lv_obj_get_parent(obj);
  42              		.loc 1 96 5 view .LVU3
  43              		.loc 1 96 25 is_stmt 0 view .LVU4
  44 0004 0846     		mov	r0, r1
  45              	.LVL1:
  46              		.loc 1 96 25 view .LVU5
  47 0006 FFF7FEFF 		bl	lv_obj_get_parent
  48              	.LVL2:
  49              		.loc 1 96 25 view .LVU6
  50 000a 0646     		mov	r6, r0
  51              	.LVL3:
  97:../../Middlewares/LVGL/GUI/lvgl/src/widgets/win/lv_win.c ****     lv_obj_set_size(obj, lv_obj_get_width(parent), lv_obj_get_height(parent));
  52              		.loc 1 97 5 is_stmt 1 view .LVU7
  53 000c FFF7FEFF 		bl	lv_obj_get_width
  54              	.LVL4:
  55              		.loc 1 97 5 is_stmt 0 view .LVU8
  56 0010 0546     		mov	r5, r0
  57              		.loc 1 97 5 discriminator 1 view .LVU9
  58 0012 3046     		mov	r0, r6
  59 0014 FFF7FEFF 		bl	lv_obj_get_height
  60              	.LVL5:
  61 0018 0246     		mov	r2, r0
  62              		.loc 1 97 5 discriminator 2 view .LVU10
  63 001a 2946     		mov	r1, r5
  64 001c 2046     		mov	r0, r4
  65 001e FFF7FEFF 		bl	lv_obj_set_size
  66              	.LVL6:
  98:../../Middlewares/LVGL/GUI/lvgl/src/widgets/win/lv_win.c ****     lv_obj_set_flex_flow(obj, LV_FLEX_FLOW_COLUMN);
  67              		.loc 1 98 5 is_stmt 1 view .LVU11
  68 0022 0121     		movs	r1, #1
  69 0024 2046     		mov	r0, r4
  70 0026 FFF7FEFF 		bl	lv_obj_set_flex_flow
  71              	.LVL7:
  99:../../Middlewares/LVGL/GUI/lvgl/src/widgets/win/lv_win.c **** 
 100:../../Middlewares/LVGL/GUI/lvgl/src/widgets/win/lv_win.c ****     lv_obj_t * header = lv_obj_create(obj);
  72              		.loc 1 100 5 view .LVU12
ARM GAS  C:\Users\28576\AppData\Local\Temp\ccik0xCO.s 			page 4


  73              		.loc 1 100 25 is_stmt 0 view .LVU13
  74 002a 2046     		mov	r0, r4
  75 002c FFF7FEFF 		bl	lv_obj_create
  76              	.LVL8:
  77 0030 0546     		mov	r5, r0
  78              	.LVL9:
 101:../../Middlewares/LVGL/GUI/lvgl/src/widgets/win/lv_win.c ****     lv_obj_set_size(header, LV_PCT(100), lv_display_get_dpi(lv_obj_get_display(obj)) / 2);
  79              		.loc 1 101 5 is_stmt 1 view .LVU14
  80              		.loc 1 101 61 is_stmt 0 view .LVU15
  81 0032 2046     		mov	r0, r4
  82              	.LVL10:
  83              		.loc 1 101 61 view .LVU16
  84 0034 FFF7FEFF 		bl	lv_obj_get_display
  85              	.LVL11:
  86              		.loc 1 101 42 discriminator 1 view .LVU17
  87 0038 FFF7FEFF 		bl	lv_display_get_dpi
  88              	.LVL12:
  89              		.loc 1 101 86 discriminator 2 view .LVU18
  90 003c 021E     		subs	r2, r0, #0
  91 003e 1BDB     		blt	.L4
  92              	.L2:
  93              		.loc 1 101 5 discriminator 2 view .LVU19
  94 0040 0E4E     		ldr	r6, .L5
  95              	.LVL13:
  96              		.loc 1 101 5 discriminator 2 view .LVU20
  97 0042 5210     		asrs	r2, r2, #1
  98 0044 3146     		mov	r1, r6
  99 0046 2846     		mov	r0, r5
 100 0048 FFF7FEFF 		bl	lv_obj_set_size
 101              	.LVL14:
 102:../../Middlewares/LVGL/GUI/lvgl/src/widgets/win/lv_win.c ****     lv_obj_set_flex_flow(header, LV_FLEX_FLOW_ROW);
 102              		.loc 1 102 5 is_stmt 1 view .LVU21
 103 004c 0021     		movs	r1, #0
 104 004e 2846     		mov	r0, r5
 105 0050 FFF7FEFF 		bl	lv_obj_set_flex_flow
 106              	.LVL15:
 103:../../Middlewares/LVGL/GUI/lvgl/src/widgets/win/lv_win.c ****     lv_obj_set_flex_align(header, LV_FLEX_ALIGN_START, LV_FLEX_ALIGN_CENTER, LV_FLEX_ALIGN_CENTER);
 107              		.loc 1 103 5 view .LVU22
 108 0054 0223     		movs	r3, #2
 109 0056 1A46     		mov	r2, r3
 110 0058 0021     		movs	r1, #0
 111 005a 2846     		mov	r0, r5
 112 005c FFF7FEFF 		bl	lv_obj_set_flex_align
 113              	.LVL16:
 104:../../Middlewares/LVGL/GUI/lvgl/src/widgets/win/lv_win.c **** 
 105:../../Middlewares/LVGL/GUI/lvgl/src/widgets/win/lv_win.c ****     lv_obj_t * cont = lv_obj_create(obj);
 114              		.loc 1 105 5 view .LVU23
 115              		.loc 1 105 23 is_stmt 0 view .LVU24
 116 0060 2046     		mov	r0, r4
 117 0062 FFF7FEFF 		bl	lv_obj_create
 118              	.LVL17:
 119 0066 0446     		mov	r4, r0
 120              	.LVL18:
 106:../../Middlewares/LVGL/GUI/lvgl/src/widgets/win/lv_win.c ****     lv_obj_set_flex_grow(cont, 1);
 121              		.loc 1 106 5 is_stmt 1 view .LVU25
 122 0068 0121     		movs	r1, #1
 123 006a FFF7FEFF 		bl	lv_obj_set_flex_grow
ARM GAS  C:\Users\28576\AppData\Local\Temp\ccik0xCO.s 			page 5


 124              	.LVL19:
 107:../../Middlewares/LVGL/GUI/lvgl/src/widgets/win/lv_win.c ****     lv_obj_set_width(cont, LV_PCT(100));
 125              		.loc 1 107 5 view .LVU26
 126 006e 3146     		mov	r1, r6
 127 0070 2046     		mov	r0, r4
 128 0072 FFF7FEFF 		bl	lv_obj_set_width
 129              	.LVL20:
 108:../../Middlewares/LVGL/GUI/lvgl/src/widgets/win/lv_win.c **** }
 130              		.loc 1 108 1 is_stmt 0 view .LVU27
 131 0076 70BD     		pop	{r4, r5, r6, pc}
 132              	.LVL21:
 133              	.L4:
 101:../../Middlewares/LVGL/GUI/lvgl/src/widgets/win/lv_win.c ****     lv_obj_set_flex_flow(header, LV_FLEX_FLOW_ROW);
 134              		.loc 1 101 86 discriminator 2 view .LVU28
 135 0078 0132     		adds	r2, r2, #1
 136 007a E1E7     		b	.L2
 137              	.L6:
 138              		.align	2
 139              	.L5:
 140 007c 64000020 		.word	536871012
 141              		.cfi_endproc
 142              	.LFE201:
 144              		.section	.text.lv_win_create,"ax",%progbits
 145              		.align	1
 146              		.global	lv_win_create
 147              		.syntax unified
 148              		.thumb
 149              		.thumb_func
 151              	lv_win_create:
 152              	.LVL22:
 153              	.LFB196:
  47:../../Middlewares/LVGL/GUI/lvgl/src/widgets/win/lv_win.c ****     LV_LOG_INFO("begin");
 154              		.loc 1 47 1 is_stmt 1 view -0
 155              		.cfi_startproc
 156              		@ args = 0, pretend = 0, frame = 0
 157              		@ frame_needed = 0, uses_anonymous_args = 0
  47:../../Middlewares/LVGL/GUI/lvgl/src/widgets/win/lv_win.c ****     LV_LOG_INFO("begin");
 158              		.loc 1 47 1 is_stmt 0 view .LVU30
 159 0000 10B5     		push	{r4, lr}
 160              	.LCFI1:
 161              		.cfi_def_cfa_offset 8
 162              		.cfi_offset 4, -8
 163              		.cfi_offset 14, -4
 164 0002 0146     		mov	r1, r0
  48:../../Middlewares/LVGL/GUI/lvgl/src/widgets/win/lv_win.c ****     lv_obj_t * obj = lv_obj_class_create_obj(&lv_win_class, parent);
 165              		.loc 1 48 5 is_stmt 1 view .LVU31
  48:../../Middlewares/LVGL/GUI/lvgl/src/widgets/win/lv_win.c ****     lv_obj_t * obj = lv_obj_class_create_obj(&lv_win_class, parent);
 166              		.loc 1 48 5 view .LVU32
  48:../../Middlewares/LVGL/GUI/lvgl/src/widgets/win/lv_win.c ****     lv_obj_t * obj = lv_obj_class_create_obj(&lv_win_class, parent);
 167              		.loc 1 48 5 view .LVU33
  49:../../Middlewares/LVGL/GUI/lvgl/src/widgets/win/lv_win.c ****     lv_obj_class_init_obj(obj);
 168              		.loc 1 49 5 view .LVU34
  49:../../Middlewares/LVGL/GUI/lvgl/src/widgets/win/lv_win.c ****     lv_obj_class_init_obj(obj);
 169              		.loc 1 49 22 is_stmt 0 view .LVU35
 170 0004 0348     		ldr	r0, .L9
 171              	.LVL23:
  49:../../Middlewares/LVGL/GUI/lvgl/src/widgets/win/lv_win.c ****     lv_obj_class_init_obj(obj);
ARM GAS  C:\Users\28576\AppData\Local\Temp\ccik0xCO.s 			page 6


 172              		.loc 1 49 22 view .LVU36
 173 0006 FFF7FEFF 		bl	lv_obj_class_create_obj
 174              	.LVL24:
  49:../../Middlewares/LVGL/GUI/lvgl/src/widgets/win/lv_win.c ****     lv_obj_class_init_obj(obj);
 175              		.loc 1 49 22 view .LVU37
 176 000a 0446     		mov	r4, r0
 177              	.LVL25:
  50:../../Middlewares/LVGL/GUI/lvgl/src/widgets/win/lv_win.c ****     return obj;
 178              		.loc 1 50 5 is_stmt 1 view .LVU38
 179 000c FFF7FEFF 		bl	lv_obj_class_init_obj
 180              	.LVL26:
  51:../../Middlewares/LVGL/GUI/lvgl/src/widgets/win/lv_win.c **** }
 181              		.loc 1 51 5 view .LVU39
  52:../../Middlewares/LVGL/GUI/lvgl/src/widgets/win/lv_win.c **** 
 182              		.loc 1 52 1 is_stmt 0 view .LVU40
 183 0010 2046     		mov	r0, r4
 184 0012 10BD     		pop	{r4, pc}
 185              	.LVL27:
 186              	.L10:
  52:../../Middlewares/LVGL/GUI/lvgl/src/widgets/win/lv_win.c **** 
 187              		.loc 1 52 1 view .LVU41
 188              		.align	2
 189              	.L9:
 190 0014 00000000 		.word	lv_win_class
 191              		.cfi_endproc
 192              	.LFE196:
 194              		.section	.text.lv_win_get_header,"ax",%progbits
 195              		.align	1
 196              		.global	lv_win_get_header
 197              		.syntax unified
 198              		.thumb
 199              		.thumb_func
 201              	lv_win_get_header:
 202              	.LVL28:
 203              	.LFB199:
  80:../../Middlewares/LVGL/GUI/lvgl/src/widgets/win/lv_win.c ****     return lv_obj_get_child(win, 0);
 204              		.loc 1 80 1 is_stmt 1 view -0
 205              		.cfi_startproc
 206              		@ args = 0, pretend = 0, frame = 0
 207              		@ frame_needed = 0, uses_anonymous_args = 0
  80:../../Middlewares/LVGL/GUI/lvgl/src/widgets/win/lv_win.c ****     return lv_obj_get_child(win, 0);
 208              		.loc 1 80 1 is_stmt 0 view .LVU43
 209 0000 08B5     		push	{r3, lr}
 210              	.LCFI2:
 211              		.cfi_def_cfa_offset 8
 212              		.cfi_offset 3, -8
 213              		.cfi_offset 14, -4
  81:../../Middlewares/LVGL/GUI/lvgl/src/widgets/win/lv_win.c **** }
 214              		.loc 1 81 5 is_stmt 1 view .LVU44
  81:../../Middlewares/LVGL/GUI/lvgl/src/widgets/win/lv_win.c **** }
 215              		.loc 1 81 12 is_stmt 0 view .LVU45
 216 0002 0021     		movs	r1, #0
 217 0004 FFF7FEFF 		bl	lv_obj_get_child
 218              	.LVL29:
  82:../../Middlewares/LVGL/GUI/lvgl/src/widgets/win/lv_win.c **** 
 219              		.loc 1 82 1 view .LVU46
 220 0008 08BD     		pop	{r3, pc}
ARM GAS  C:\Users\28576\AppData\Local\Temp\ccik0xCO.s 			page 7


 221              		.cfi_endproc
 222              	.LFE199:
 224              		.section	.text.lv_win_add_title,"ax",%progbits
 225              		.align	1
 226              		.global	lv_win_add_title
 227              		.syntax unified
 228              		.thumb
 229              		.thumb_func
 231              	lv_win_add_title:
 232              	.LVL30:
 233              	.LFB197:
  55:../../Middlewares/LVGL/GUI/lvgl/src/widgets/win/lv_win.c ****     lv_obj_t * header = lv_win_get_header(win);
 234              		.loc 1 55 1 is_stmt 1 view -0
 235              		.cfi_startproc
 236              		@ args = 0, pretend = 0, frame = 0
 237              		@ frame_needed = 0, uses_anonymous_args = 0
  55:../../Middlewares/LVGL/GUI/lvgl/src/widgets/win/lv_win.c ****     lv_obj_t * header = lv_win_get_header(win);
 238              		.loc 1 55 1 is_stmt 0 view .LVU48
 239 0000 38B5     		push	{r3, r4, r5, lr}
 240              	.LCFI3:
 241              		.cfi_def_cfa_offset 16
 242              		.cfi_offset 3, -16
 243              		.cfi_offset 4, -12
 244              		.cfi_offset 5, -8
 245              		.cfi_offset 14, -4
 246 0002 0D46     		mov	r5, r1
  56:../../Middlewares/LVGL/GUI/lvgl/src/widgets/win/lv_win.c ****     lv_obj_t * title = lv_label_create(header);
 247              		.loc 1 56 5 is_stmt 1 view .LVU49
  56:../../Middlewares/LVGL/GUI/lvgl/src/widgets/win/lv_win.c ****     lv_obj_t * title = lv_label_create(header);
 248              		.loc 1 56 25 is_stmt 0 view .LVU50
 249 0004 FFF7FEFF 		bl	lv_win_get_header
 250              	.LVL31:
  57:../../Middlewares/LVGL/GUI/lvgl/src/widgets/win/lv_win.c ****     lv_label_set_long_mode(title, LV_LABEL_LONG_MODE_DOTS);
 251              		.loc 1 57 5 is_stmt 1 view .LVU51
  57:../../Middlewares/LVGL/GUI/lvgl/src/widgets/win/lv_win.c ****     lv_label_set_long_mode(title, LV_LABEL_LONG_MODE_DOTS);
 252              		.loc 1 57 24 is_stmt 0 view .LVU52
 253 0008 FFF7FEFF 		bl	lv_label_create
 254              	.LVL32:
  57:../../Middlewares/LVGL/GUI/lvgl/src/widgets/win/lv_win.c ****     lv_label_set_long_mode(title, LV_LABEL_LONG_MODE_DOTS);
 255              		.loc 1 57 24 view .LVU53
 256 000c 0446     		mov	r4, r0
 257              	.LVL33:
  58:../../Middlewares/LVGL/GUI/lvgl/src/widgets/win/lv_win.c ****     lv_label_set_text(title, txt);
 258              		.loc 1 58 5 is_stmt 1 view .LVU54
 259 000e 0121     		movs	r1, #1
 260 0010 FFF7FEFF 		bl	lv_label_set_long_mode
 261              	.LVL34:
  59:../../Middlewares/LVGL/GUI/lvgl/src/widgets/win/lv_win.c ****     lv_obj_set_flex_grow(title, 1);
 262              		.loc 1 59 5 view .LVU55
 263 0014 2946     		mov	r1, r5
 264 0016 2046     		mov	r0, r4
 265 0018 FFF7FEFF 		bl	lv_label_set_text
 266              	.LVL35:
  60:../../Middlewares/LVGL/GUI/lvgl/src/widgets/win/lv_win.c ****     return title;
 267              		.loc 1 60 5 view .LVU56
 268 001c 0121     		movs	r1, #1
 269 001e 2046     		mov	r0, r4
ARM GAS  C:\Users\28576\AppData\Local\Temp\ccik0xCO.s 			page 8


 270 0020 FFF7FEFF 		bl	lv_obj_set_flex_grow
 271              	.LVL36:
  61:../../Middlewares/LVGL/GUI/lvgl/src/widgets/win/lv_win.c **** }
 272              		.loc 1 61 5 view .LVU57
  62:../../Middlewares/LVGL/GUI/lvgl/src/widgets/win/lv_win.c **** 
 273              		.loc 1 62 1 is_stmt 0 view .LVU58
 274 0024 2046     		mov	r0, r4
 275 0026 38BD     		pop	{r3, r4, r5, pc}
  62:../../Middlewares/LVGL/GUI/lvgl/src/widgets/win/lv_win.c **** 
 276              		.loc 1 62 1 view .LVU59
 277              		.cfi_endproc
 278              	.LFE197:
 280              		.section	.text.lv_win_add_button,"ax",%progbits
 281              		.align	1
 282              		.global	lv_win_add_button
 283              		.syntax unified
 284              		.thumb
 285              		.thumb_func
 287              	lv_win_add_button:
 288              	.LVL37:
 289              	.LFB198:
  65:../../Middlewares/LVGL/GUI/lvgl/src/widgets/win/lv_win.c ****     lv_obj_t * header = lv_win_get_header(win);
 290              		.loc 1 65 1 is_stmt 1 view -0
 291              		.cfi_startproc
 292              		@ args = 0, pretend = 0, frame = 0
 293              		@ frame_needed = 0, uses_anonymous_args = 0
  65:../../Middlewares/LVGL/GUI/lvgl/src/widgets/win/lv_win.c ****     lv_obj_t * header = lv_win_get_header(win);
 294              		.loc 1 65 1 is_stmt 0 view .LVU61
 295 0000 F8B5     		push	{r3, r4, r5, r6, r7, lr}
 296              	.LCFI4:
 297              		.cfi_def_cfa_offset 24
 298              		.cfi_offset 3, -24
 299              		.cfi_offset 4, -20
 300              		.cfi_offset 5, -16
 301              		.cfi_offset 6, -12
 302              		.cfi_offset 7, -8
 303              		.cfi_offset 14, -4
 304 0002 0E46     		mov	r6, r1
 305 0004 1446     		mov	r4, r2
  66:../../Middlewares/LVGL/GUI/lvgl/src/widgets/win/lv_win.c ****     lv_obj_t * btn = lv_button_create(header);
 306              		.loc 1 66 5 is_stmt 1 view .LVU62
  66:../../Middlewares/LVGL/GUI/lvgl/src/widgets/win/lv_win.c ****     lv_obj_t * btn = lv_button_create(header);
 307              		.loc 1 66 25 is_stmt 0 view .LVU63
 308 0006 FFF7FEFF 		bl	lv_win_get_header
 309              	.LVL38:
  67:../../Middlewares/LVGL/GUI/lvgl/src/widgets/win/lv_win.c ****     lv_obj_set_size(btn, btn_w, LV_PCT(100));
 310              		.loc 1 67 5 is_stmt 1 view .LVU64
  67:../../Middlewares/LVGL/GUI/lvgl/src/widgets/win/lv_win.c ****     lv_obj_set_size(btn, btn_w, LV_PCT(100));
 311              		.loc 1 67 22 is_stmt 0 view .LVU65
 312 000a FFF7FEFF 		bl	lv_button_create
 313              	.LVL39:
  67:../../Middlewares/LVGL/GUI/lvgl/src/widgets/win/lv_win.c ****     lv_obj_set_size(btn, btn_w, LV_PCT(100));
 314              		.loc 1 67 22 view .LVU66
 315 000e 0546     		mov	r5, r0
 316 0010 0746     		mov	r7, r0
 317              	.LVL40:
  68:../../Middlewares/LVGL/GUI/lvgl/src/widgets/win/lv_win.c **** 
ARM GAS  C:\Users\28576\AppData\Local\Temp\ccik0xCO.s 			page 9


 318              		.loc 1 68 5 is_stmt 1 view .LVU67
 319 0012 0A4A     		ldr	r2, .L18
 320 0014 2146     		mov	r1, r4
 321 0016 FFF7FEFF 		bl	lv_obj_set_size
 322              	.LVL41:
  70:../../Middlewares/LVGL/GUI/lvgl/src/widgets/win/lv_win.c ****         lv_obj_t * img = lv_image_create(btn);
 323              		.loc 1 70 5 view .LVU68
  70:../../Middlewares/LVGL/GUI/lvgl/src/widgets/win/lv_win.c ****         lv_obj_t * img = lv_image_create(btn);
 324              		.loc 1 70 7 is_stmt 0 view .LVU69
 325 001a 66B1     		cbz	r6, .L15
 326              	.LBB2:
  71:../../Middlewares/LVGL/GUI/lvgl/src/widgets/win/lv_win.c ****         lv_image_set_src(img, icon);
 327              		.loc 1 71 9 is_stmt 1 view .LVU70
  71:../../Middlewares/LVGL/GUI/lvgl/src/widgets/win/lv_win.c ****         lv_image_set_src(img, icon);
 328              		.loc 1 71 26 is_stmt 0 view .LVU71
 329 001c 2846     		mov	r0, r5
 330 001e FFF7FEFF 		bl	lv_image_create
 331              	.LVL42:
 332 0022 0546     		mov	r5, r0
 333              	.LVL43:
  72:../../Middlewares/LVGL/GUI/lvgl/src/widgets/win/lv_win.c ****         lv_obj_align(img, LV_ALIGN_CENTER, 0, 0);
 334              		.loc 1 72 9 is_stmt 1 view .LVU72
 335 0024 3146     		mov	r1, r6
 336 0026 FFF7FEFF 		bl	lv_image_set_src
 337              	.LVL44:
  73:../../Middlewares/LVGL/GUI/lvgl/src/widgets/win/lv_win.c ****     }
 338              		.loc 1 73 9 view .LVU73
 339 002a 0023     		movs	r3, #0
 340 002c 1A46     		mov	r2, r3
 341 002e 0921     		movs	r1, #9
 342 0030 2846     		mov	r0, r5
 343 0032 FFF7FEFF 		bl	lv_obj_align
 344              	.LVL45:
 345              	.LBE2:
  76:../../Middlewares/LVGL/GUI/lvgl/src/widgets/win/lv_win.c **** }
 346              		.loc 1 76 5 view .LVU74
 347              	.L15:
  77:../../Middlewares/LVGL/GUI/lvgl/src/widgets/win/lv_win.c **** 
 348              		.loc 1 77 1 is_stmt 0 view .LVU75
 349 0036 3846     		mov	r0, r7
 350 0038 F8BD     		pop	{r3, r4, r5, r6, r7, pc}
 351              	.LVL46:
 352              	.L19:
  77:../../Middlewares/LVGL/GUI/lvgl/src/widgets/win/lv_win.c **** 
 353              		.loc 1 77 1 view .LVU76
 354 003a 00BF     		.align	2
 355              	.L18:
 356 003c 64000020 		.word	536871012
 357              		.cfi_endproc
 358              	.LFE198:
 360              		.section	.text.lv_win_get_content,"ax",%progbits
 361              		.align	1
 362              		.global	lv_win_get_content
 363              		.syntax unified
 364              		.thumb
 365              		.thumb_func
 367              	lv_win_get_content:
ARM GAS  C:\Users\28576\AppData\Local\Temp\ccik0xCO.s 			page 10


 368              	.LVL47:
 369              	.LFB200:
  85:../../Middlewares/LVGL/GUI/lvgl/src/widgets/win/lv_win.c ****     return lv_obj_get_child(win, 1);
 370              		.loc 1 85 1 is_stmt 1 view -0
 371              		.cfi_startproc
 372              		@ args = 0, pretend = 0, frame = 0
 373              		@ frame_needed = 0, uses_anonymous_args = 0
  85:../../Middlewares/LVGL/GUI/lvgl/src/widgets/win/lv_win.c ****     return lv_obj_get_child(win, 1);
 374              		.loc 1 85 1 is_stmt 0 view .LVU78
 375 0000 08B5     		push	{r3, lr}
 376              	.LCFI5:
 377              		.cfi_def_cfa_offset 8
 378              		.cfi_offset 3, -8
 379              		.cfi_offset 14, -4
  86:../../Middlewares/LVGL/GUI/lvgl/src/widgets/win/lv_win.c **** }
 380              		.loc 1 86 5 is_stmt 1 view .LVU79
  86:../../Middlewares/LVGL/GUI/lvgl/src/widgets/win/lv_win.c **** }
 381              		.loc 1 86 12 is_stmt 0 view .LVU80
 382 0002 0121     		movs	r1, #1
 383 0004 FFF7FEFF 		bl	lv_obj_get_child
 384              	.LVL48:
  87:../../Middlewares/LVGL/GUI/lvgl/src/widgets/win/lv_win.c **** 
 385              		.loc 1 87 1 view .LVU81
 386 0008 08BD     		pop	{r3, pc}
 387              		.cfi_endproc
 388              	.LFE200:
 390              		.global	lv_win_class
 391              		.section	.rodata.str1.4,"aMS",%progbits,1
 392              		.align	2
 393              	.LC0:
 394 0000 6C765F77 		.ascii	"lv_win\000"
 394      696E00
 395              		.section	.rodata.lv_win_class,"a"
 396              		.align	2
 399              	lv_win_class:
 400 0000 00000000 		.word	lv_obj_class
 401 0004 00000000 		.word	lv_win_constructor
 402 0008 00000000 		.space	12
 402      00000000 
 402      00000000 
 403 0014 00000000 		.word	.LC0
 404 0018 64000020 		.word	536871012
 405 001c 64000020 		.word	536871012
 406 0020 C0       		.byte	192
 407 0021 02       		.byte	2
 408 0022 00       		.byte	0
 409 0023 00       		.space	1
 410              		.text
 411              	.Letext0:
 412              		.file 2 "C:/Users/28576/AppData/Roaming/xPacks/@xpack-dev-tools/arm-none-eabi-gcc/15.2.1-1.1.1/.co
 413              		.file 3 "C:/Users/28576/AppData/Roaming/xPacks/@xpack-dev-tools/arm-none-eabi-gcc/15.2.1-1.1.1/.co
 414              		.file 4 "H:/STM32H7/RGB_LVGL/Middlewares/LVGL/GUI/lvgl/src/misc/lv_types.h"
 415              		.file 5 "H:/STM32H7/RGB_LVGL/Middlewares/LVGL/GUI/lvgl/src/core/lv_obj_private.h"
 416              		.file 6 "H:/STM32H7/RGB_LVGL/Middlewares/LVGL/GUI/lvgl/src/core/lv_obj_class_private.h"
 417              		.file 7 "H:/STM32H7/RGB_LVGL/Middlewares/LVGL/GUI/lvgl/src/misc/lv_array.h"
 418              		.file 8 "H:/STM32H7/RGB_LVGL/Middlewares/LVGL/GUI/lvgl/src/misc/lv_area.h"
 419              		.file 9 "H:/STM32H7/RGB_LVGL/Middlewares/LVGL/GUI/lvgl/src/layouts/flex/lv_flex.h"
ARM GAS  C:\Users\28576\AppData\Local\Temp\ccik0xCO.s 			page 11


 420              		.file 10 "H:/STM32H7/RGB_LVGL/Middlewares/LVGL/GUI/lvgl/src/misc/lv_event.h"
 421              		.file 11 "H:/STM32H7/RGB_LVGL/Middlewares/LVGL/GUI/lvgl/src/indev/lv_indev.h"
 422              		.file 12 "H:/STM32H7/RGB_LVGL/Middlewares/LVGL/GUI/lvgl/src/core/lv_obj.h"
 423              		.file 13 "../../Middlewares/LVGL/GUI/lvgl/src/widgets/win/lv_win.h"
 424              		.file 14 "H:/STM32H7/RGB_LVGL/Middlewares/LVGL/GUI/lvgl/src/widgets/label/lv_label.h"
 425              		.file 15 "H:/STM32H7/RGB_LVGL/Middlewares/LVGL/GUI/lvgl/src/widgets/bar/lv_bar.h"
 426              		.file 16 "H:/STM32H7/RGB_LVGL/Middlewares/LVGL/GUI/lvgl/src/core/lv_obj_pos.h"
 427              		.file 17 "H:/STM32H7/RGB_LVGL/Middlewares/LVGL/GUI/lvgl/src/widgets/image/lv_image.h"
 428              		.file 18 "H:/STM32H7/RGB_LVGL/Middlewares/LVGL/GUI/lvgl/src/core/lv_obj_tree.h"
 429              		.file 19 "H:/STM32H7/RGB_LVGL/Middlewares/LVGL/GUI/lvgl/src/widgets/button/lv_button.h"
 430              		.file 20 "H:/STM32H7/RGB_LVGL/Middlewares/LVGL/GUI/lvgl/src/core/lv_obj_class.h"
 431              		.file 21 "H:/STM32H7/RGB_LVGL/Middlewares/LVGL/GUI/lvgl/src/display/lv_display.h"
ARM GAS  C:\Users\28576\AppData\Local\Temp\ccik0xCO.s 			page 12

