ARM GAS  C:\Users\27655\AppData\Local\Temp\ccjI14Jp.s 			page 1


   1              		.cpu cortex-m7
   2              		.arch armv7e-m
   3              		.fpu fpv5-d16
   4              		.eabi_attribute 28, 1
   5              		.eabi_attribute 20, 1
   6              		.eabi_attribute 21, 1
   7              		.eabi_attribute 23, 3
   8              		.eabi_attribute 24, 1
   9              		.eabi_attribute 25, 1
  10              		.eabi_attribute 26, 1
  11              		.eabi_attribute 30, 1
  12              		.eabi_attribute 34, 1
  13              		.eabi_attribute 18, 4
  14              		.file	"stm32h7xx_hal_dma_ex.c"
  15              		.text
  16              	.Ltext0:
  17              		.cfi_sections	.debug_frame
  18              		.file 1 "Drivers/STM32H7xx_HAL_Driver/Src/stm32h7xx_hal_dma_ex.c"
  19              		.section	.text.DMA_MultiBufferSetConfig,"ax",%progbits
  20              		.align	1
  21              		.syntax unified
  22              		.thumb
  23              		.thumb_func
  25              	DMA_MultiBufferSetConfig:
  26              	.LVL0:
  27              	.LFB154:
   1:Drivers/STM32H7xx_HAL_Driver/Src/stm32h7xx_hal_dma_ex.c **** /**
   2:Drivers/STM32H7xx_HAL_Driver/Src/stm32h7xx_hal_dma_ex.c ****   ******************************************************************************
   3:Drivers/STM32H7xx_HAL_Driver/Src/stm32h7xx_hal_dma_ex.c ****   * @file    stm32h7xx_hal_dma_ex.c
   4:Drivers/STM32H7xx_HAL_Driver/Src/stm32h7xx_hal_dma_ex.c ****   * @author  MCD Application Team
   5:Drivers/STM32H7xx_HAL_Driver/Src/stm32h7xx_hal_dma_ex.c ****   * @brief   DMA Extension HAL module driver
   6:Drivers/STM32H7xx_HAL_Driver/Src/stm32h7xx_hal_dma_ex.c ****   *          This file provides firmware functions to manage the following
   7:Drivers/STM32H7xx_HAL_Driver/Src/stm32h7xx_hal_dma_ex.c ****   *          functionalities of the DMA Extension peripheral:
   8:Drivers/STM32H7xx_HAL_Driver/Src/stm32h7xx_hal_dma_ex.c ****   *           + Extended features functions
   9:Drivers/STM32H7xx_HAL_Driver/Src/stm32h7xx_hal_dma_ex.c ****   *
  10:Drivers/STM32H7xx_HAL_Driver/Src/stm32h7xx_hal_dma_ex.c ****   @verbatim
  11:Drivers/STM32H7xx_HAL_Driver/Src/stm32h7xx_hal_dma_ex.c ****   ==============================================================================
  12:Drivers/STM32H7xx_HAL_Driver/Src/stm32h7xx_hal_dma_ex.c ****                         ##### How to use this driver #####
  13:Drivers/STM32H7xx_HAL_Driver/Src/stm32h7xx_hal_dma_ex.c ****   ==============================================================================
  14:Drivers/STM32H7xx_HAL_Driver/Src/stm32h7xx_hal_dma_ex.c ****   [..]
  15:Drivers/STM32H7xx_HAL_Driver/Src/stm32h7xx_hal_dma_ex.c ****   The DMA Extension HAL driver can be used as follows:
  16:Drivers/STM32H7xx_HAL_Driver/Src/stm32h7xx_hal_dma_ex.c ****    (+) Start a multi buffer transfer using the HAL_DMA_MultiBufferStart() function
  17:Drivers/STM32H7xx_HAL_Driver/Src/stm32h7xx_hal_dma_ex.c ****        for polling mode or HAL_DMA_MultiBufferStart_IT() for interrupt mode.
  18:Drivers/STM32H7xx_HAL_Driver/Src/stm32h7xx_hal_dma_ex.c **** 
  19:Drivers/STM32H7xx_HAL_Driver/Src/stm32h7xx_hal_dma_ex.c ****    (+) Configure the DMA_MUX Synchronization Block using HAL_DMAEx_ConfigMuxSync function.
  20:Drivers/STM32H7xx_HAL_Driver/Src/stm32h7xx_hal_dma_ex.c ****    (+) Configure the DMA_MUX Request Generator Block using HAL_DMAEx_ConfigMuxRequestGenerator func
  21:Drivers/STM32H7xx_HAL_Driver/Src/stm32h7xx_hal_dma_ex.c ****        Functions HAL_DMAEx_EnableMuxRequestGenerator and HAL_DMAEx_DisableMuxRequestGenerator can t
  22:Drivers/STM32H7xx_HAL_Driver/Src/stm32h7xx_hal_dma_ex.c ****        to respectively enable/disable the request generator.
  23:Drivers/STM32H7xx_HAL_Driver/Src/stm32h7xx_hal_dma_ex.c **** 
  24:Drivers/STM32H7xx_HAL_Driver/Src/stm32h7xx_hal_dma_ex.c ****    (+) To handle the DMAMUX Interrupts, the function  HAL_DMAEx_MUX_IRQHandler should be called fro
  25:Drivers/STM32H7xx_HAL_Driver/Src/stm32h7xx_hal_dma_ex.c ****        the DMAMUX IRQ handler i.e DMAMUX1_OVR_IRQHandler or DMAMUX2_OVR_IRQHandler .
  26:Drivers/STM32H7xx_HAL_Driver/Src/stm32h7xx_hal_dma_ex.c ****        As only one interrupt line is available for all DMAMUX channels and request generators , HAL
  27:Drivers/STM32H7xx_HAL_Driver/Src/stm32h7xx_hal_dma_ex.c ****        called with, as parameter, the appropriate DMA handle as many as used DMAs in the user proje
  28:Drivers/STM32H7xx_HAL_Driver/Src/stm32h7xx_hal_dma_ex.c ****       (exception done if a given DMA is not using the DMAMUX SYNC block neither a request generator
  29:Drivers/STM32H7xx_HAL_Driver/Src/stm32h7xx_hal_dma_ex.c **** 
  30:Drivers/STM32H7xx_HAL_Driver/Src/stm32h7xx_hal_dma_ex.c ****      -@-  In Memory-to-Memory transfer mode, Multi (Double) Buffer mode is not allowed.
  31:Drivers/STM32H7xx_HAL_Driver/Src/stm32h7xx_hal_dma_ex.c ****      -@-  When Multi (Double) Buffer mode is enabled, the transfer is circular by default.
ARM GAS  C:\Users\27655\AppData\Local\Temp\ccjI14Jp.s 			page 2


  32:Drivers/STM32H7xx_HAL_Driver/Src/stm32h7xx_hal_dma_ex.c ****      -@-  In Multi (Double) buffer mode, it is possible to update the base address for
  33:Drivers/STM32H7xx_HAL_Driver/Src/stm32h7xx_hal_dma_ex.c ****           the AHB memory port on the fly (DMA_SxM0AR or DMA_SxM1AR) when the stream is enabled.
  34:Drivers/STM32H7xx_HAL_Driver/Src/stm32h7xx_hal_dma_ex.c ****      -@-  Multi (Double) buffer mode is possible with DMA and BDMA instances.
  35:Drivers/STM32H7xx_HAL_Driver/Src/stm32h7xx_hal_dma_ex.c **** 
  36:Drivers/STM32H7xx_HAL_Driver/Src/stm32h7xx_hal_dma_ex.c ****   @endverbatim
  37:Drivers/STM32H7xx_HAL_Driver/Src/stm32h7xx_hal_dma_ex.c ****   ******************************************************************************
  38:Drivers/STM32H7xx_HAL_Driver/Src/stm32h7xx_hal_dma_ex.c ****   * @attention
  39:Drivers/STM32H7xx_HAL_Driver/Src/stm32h7xx_hal_dma_ex.c ****   *
  40:Drivers/STM32H7xx_HAL_Driver/Src/stm32h7xx_hal_dma_ex.c ****   * Copyright (c) 2017 STMicroelectronics.
  41:Drivers/STM32H7xx_HAL_Driver/Src/stm32h7xx_hal_dma_ex.c ****   * All rights reserved.
  42:Drivers/STM32H7xx_HAL_Driver/Src/stm32h7xx_hal_dma_ex.c ****   *
  43:Drivers/STM32H7xx_HAL_Driver/Src/stm32h7xx_hal_dma_ex.c ****   * This software is licensed under terms that can be found in the LICENSE file
  44:Drivers/STM32H7xx_HAL_Driver/Src/stm32h7xx_hal_dma_ex.c ****   * in the root directory of this software component.
  45:Drivers/STM32H7xx_HAL_Driver/Src/stm32h7xx_hal_dma_ex.c ****   * If no LICENSE file comes with this software, it is provided AS-IS.
  46:Drivers/STM32H7xx_HAL_Driver/Src/stm32h7xx_hal_dma_ex.c ****   *
  47:Drivers/STM32H7xx_HAL_Driver/Src/stm32h7xx_hal_dma_ex.c ****   ******************************************************************************
  48:Drivers/STM32H7xx_HAL_Driver/Src/stm32h7xx_hal_dma_ex.c ****   */
  49:Drivers/STM32H7xx_HAL_Driver/Src/stm32h7xx_hal_dma_ex.c **** 
  50:Drivers/STM32H7xx_HAL_Driver/Src/stm32h7xx_hal_dma_ex.c **** /* Includes ------------------------------------------------------------------*/
  51:Drivers/STM32H7xx_HAL_Driver/Src/stm32h7xx_hal_dma_ex.c **** #include "stm32h7xx_hal.h"
  52:Drivers/STM32H7xx_HAL_Driver/Src/stm32h7xx_hal_dma_ex.c **** 
  53:Drivers/STM32H7xx_HAL_Driver/Src/stm32h7xx_hal_dma_ex.c **** /** @addtogroup STM32H7xx_HAL_Driver
  54:Drivers/STM32H7xx_HAL_Driver/Src/stm32h7xx_hal_dma_ex.c ****   * @{
  55:Drivers/STM32H7xx_HAL_Driver/Src/stm32h7xx_hal_dma_ex.c ****   */
  56:Drivers/STM32H7xx_HAL_Driver/Src/stm32h7xx_hal_dma_ex.c **** 
  57:Drivers/STM32H7xx_HAL_Driver/Src/stm32h7xx_hal_dma_ex.c **** /** @defgroup DMAEx DMAEx
  58:Drivers/STM32H7xx_HAL_Driver/Src/stm32h7xx_hal_dma_ex.c ****   * @brief DMA Extended HAL module driver
  59:Drivers/STM32H7xx_HAL_Driver/Src/stm32h7xx_hal_dma_ex.c ****   * @{
  60:Drivers/STM32H7xx_HAL_Driver/Src/stm32h7xx_hal_dma_ex.c ****   */
  61:Drivers/STM32H7xx_HAL_Driver/Src/stm32h7xx_hal_dma_ex.c **** 
  62:Drivers/STM32H7xx_HAL_Driver/Src/stm32h7xx_hal_dma_ex.c **** #ifdef HAL_DMA_MODULE_ENABLED
  63:Drivers/STM32H7xx_HAL_Driver/Src/stm32h7xx_hal_dma_ex.c **** 
  64:Drivers/STM32H7xx_HAL_Driver/Src/stm32h7xx_hal_dma_ex.c **** /* Private types -------------------------------------------------------------*/
  65:Drivers/STM32H7xx_HAL_Driver/Src/stm32h7xx_hal_dma_ex.c **** /* Private variables ---------------------------------------------------------*/
  66:Drivers/STM32H7xx_HAL_Driver/Src/stm32h7xx_hal_dma_ex.c **** /* Private Constants ---------------------------------------------------------*/
  67:Drivers/STM32H7xx_HAL_Driver/Src/stm32h7xx_hal_dma_ex.c **** /* Private macros ------------------------------------------------------------*/
  68:Drivers/STM32H7xx_HAL_Driver/Src/stm32h7xx_hal_dma_ex.c **** /* Private functions ---------------------------------------------------------*/
  69:Drivers/STM32H7xx_HAL_Driver/Src/stm32h7xx_hal_dma_ex.c **** /** @addtogroup DMAEx_Private_Functions
  70:Drivers/STM32H7xx_HAL_Driver/Src/stm32h7xx_hal_dma_ex.c ****   * @{
  71:Drivers/STM32H7xx_HAL_Driver/Src/stm32h7xx_hal_dma_ex.c ****   */
  72:Drivers/STM32H7xx_HAL_Driver/Src/stm32h7xx_hal_dma_ex.c **** 
  73:Drivers/STM32H7xx_HAL_Driver/Src/stm32h7xx_hal_dma_ex.c **** static void DMA_MultiBufferSetConfig(DMA_HandleTypeDef *hdma, uint32_t SrcAddress, uint32_t DstAddr
  74:Drivers/STM32H7xx_HAL_Driver/Src/stm32h7xx_hal_dma_ex.c **** 
  75:Drivers/STM32H7xx_HAL_Driver/Src/stm32h7xx_hal_dma_ex.c **** /**
  76:Drivers/STM32H7xx_HAL_Driver/Src/stm32h7xx_hal_dma_ex.c ****   * @}
  77:Drivers/STM32H7xx_HAL_Driver/Src/stm32h7xx_hal_dma_ex.c ****   */
  78:Drivers/STM32H7xx_HAL_Driver/Src/stm32h7xx_hal_dma_ex.c **** 
  79:Drivers/STM32H7xx_HAL_Driver/Src/stm32h7xx_hal_dma_ex.c **** /* Exported functions ---------------------------------------------------------*/
  80:Drivers/STM32H7xx_HAL_Driver/Src/stm32h7xx_hal_dma_ex.c **** 
  81:Drivers/STM32H7xx_HAL_Driver/Src/stm32h7xx_hal_dma_ex.c **** /** @addtogroup DMAEx_Exported_Functions
  82:Drivers/STM32H7xx_HAL_Driver/Src/stm32h7xx_hal_dma_ex.c ****   * @{
  83:Drivers/STM32H7xx_HAL_Driver/Src/stm32h7xx_hal_dma_ex.c ****   */
  84:Drivers/STM32H7xx_HAL_Driver/Src/stm32h7xx_hal_dma_ex.c **** 
  85:Drivers/STM32H7xx_HAL_Driver/Src/stm32h7xx_hal_dma_ex.c **** 
  86:Drivers/STM32H7xx_HAL_Driver/Src/stm32h7xx_hal_dma_ex.c **** /** @addtogroup DMAEx_Exported_Functions_Group1
  87:Drivers/STM32H7xx_HAL_Driver/Src/stm32h7xx_hal_dma_ex.c ****   *
  88:Drivers/STM32H7xx_HAL_Driver/Src/stm32h7xx_hal_dma_ex.c **** @verbatim
ARM GAS  C:\Users\27655\AppData\Local\Temp\ccjI14Jp.s 			page 3


  89:Drivers/STM32H7xx_HAL_Driver/Src/stm32h7xx_hal_dma_ex.c ****  ===============================================================================
  90:Drivers/STM32H7xx_HAL_Driver/Src/stm32h7xx_hal_dma_ex.c ****                 #####  Extended features functions  #####
  91:Drivers/STM32H7xx_HAL_Driver/Src/stm32h7xx_hal_dma_ex.c ****  ===============================================================================
  92:Drivers/STM32H7xx_HAL_Driver/Src/stm32h7xx_hal_dma_ex.c ****     [..]  This section provides functions allowing to:
  93:Drivers/STM32H7xx_HAL_Driver/Src/stm32h7xx_hal_dma_ex.c ****       (+) Configure the source, destination address and data length and
  94:Drivers/STM32H7xx_HAL_Driver/Src/stm32h7xx_hal_dma_ex.c ****           Start MultiBuffer DMA transfer
  95:Drivers/STM32H7xx_HAL_Driver/Src/stm32h7xx_hal_dma_ex.c ****       (+) Configure the source, destination address and data length and
  96:Drivers/STM32H7xx_HAL_Driver/Src/stm32h7xx_hal_dma_ex.c ****           Start MultiBuffer DMA transfer with interrupt
  97:Drivers/STM32H7xx_HAL_Driver/Src/stm32h7xx_hal_dma_ex.c ****       (+) Change on the fly the memory0 or memory1 address.
  98:Drivers/STM32H7xx_HAL_Driver/Src/stm32h7xx_hal_dma_ex.c ****       (+) Configure the DMA_MUX Synchronization Block using HAL_DMAEx_ConfigMuxSync function.
  99:Drivers/STM32H7xx_HAL_Driver/Src/stm32h7xx_hal_dma_ex.c ****       (+) Configure the DMA_MUX Request Generator Block using HAL_DMAEx_ConfigMuxRequestGenerator f
 100:Drivers/STM32H7xx_HAL_Driver/Src/stm32h7xx_hal_dma_ex.c ****       (+) Functions HAL_DMAEx_EnableMuxRequestGenerator and HAL_DMAEx_DisableMuxRequestGenerator ca
 101:Drivers/STM32H7xx_HAL_Driver/Src/stm32h7xx_hal_dma_ex.c ****           to respectively enable/disable the request generator.
 102:Drivers/STM32H7xx_HAL_Driver/Src/stm32h7xx_hal_dma_ex.c ****       (+) Handle DMAMUX interrupts using HAL_DMAEx_MUX_IRQHandler : should be called from
 103:Drivers/STM32H7xx_HAL_Driver/Src/stm32h7xx_hal_dma_ex.c ****           the DMAMUX IRQ handler i.e DMAMUX1_OVR_IRQHandler or DMAMUX2_OVR_IRQHandler
 104:Drivers/STM32H7xx_HAL_Driver/Src/stm32h7xx_hal_dma_ex.c **** 
 105:Drivers/STM32H7xx_HAL_Driver/Src/stm32h7xx_hal_dma_ex.c **** @endverbatim
 106:Drivers/STM32H7xx_HAL_Driver/Src/stm32h7xx_hal_dma_ex.c ****   * @{
 107:Drivers/STM32H7xx_HAL_Driver/Src/stm32h7xx_hal_dma_ex.c ****   */
 108:Drivers/STM32H7xx_HAL_Driver/Src/stm32h7xx_hal_dma_ex.c **** 
 109:Drivers/STM32H7xx_HAL_Driver/Src/stm32h7xx_hal_dma_ex.c **** 
 110:Drivers/STM32H7xx_HAL_Driver/Src/stm32h7xx_hal_dma_ex.c **** /**
 111:Drivers/STM32H7xx_HAL_Driver/Src/stm32h7xx_hal_dma_ex.c ****   * @brief  Starts the multi_buffer DMA Transfer.
 112:Drivers/STM32H7xx_HAL_Driver/Src/stm32h7xx_hal_dma_ex.c ****   * @param  hdma      : pointer to a DMA_HandleTypeDef structure that contains
 113:Drivers/STM32H7xx_HAL_Driver/Src/stm32h7xx_hal_dma_ex.c ****   *                     the configuration information for the specified DMA Stream.
 114:Drivers/STM32H7xx_HAL_Driver/Src/stm32h7xx_hal_dma_ex.c ****   * @param  SrcAddress: The source memory Buffer address
 115:Drivers/STM32H7xx_HAL_Driver/Src/stm32h7xx_hal_dma_ex.c ****   * @param  DstAddress: The destination memory Buffer address
 116:Drivers/STM32H7xx_HAL_Driver/Src/stm32h7xx_hal_dma_ex.c ****   * @param  SecondMemAddress: The second memory Buffer address in case of multi buffer Transfer
 117:Drivers/STM32H7xx_HAL_Driver/Src/stm32h7xx_hal_dma_ex.c ****   * @param  DataLength: The length of data to be transferred from source to destination
 118:Drivers/STM32H7xx_HAL_Driver/Src/stm32h7xx_hal_dma_ex.c ****   * @retval HAL status
 119:Drivers/STM32H7xx_HAL_Driver/Src/stm32h7xx_hal_dma_ex.c ****   */
 120:Drivers/STM32H7xx_HAL_Driver/Src/stm32h7xx_hal_dma_ex.c **** HAL_StatusTypeDef HAL_DMAEx_MultiBufferStart(DMA_HandleTypeDef *hdma, uint32_t SrcAddress, uint32_t
 121:Drivers/STM32H7xx_HAL_Driver/Src/stm32h7xx_hal_dma_ex.c **** {
 122:Drivers/STM32H7xx_HAL_Driver/Src/stm32h7xx_hal_dma_ex.c ****   HAL_StatusTypeDef status = HAL_OK;
 123:Drivers/STM32H7xx_HAL_Driver/Src/stm32h7xx_hal_dma_ex.c ****   __IO uint32_t *ifcRegister_Base; /* DMA Stream Interrupt Clear register */
 124:Drivers/STM32H7xx_HAL_Driver/Src/stm32h7xx_hal_dma_ex.c **** 
 125:Drivers/STM32H7xx_HAL_Driver/Src/stm32h7xx_hal_dma_ex.c ****   /* Check the parameters */
 126:Drivers/STM32H7xx_HAL_Driver/Src/stm32h7xx_hal_dma_ex.c ****   assert_param(IS_DMA_BUFFER_SIZE(DataLength));
 127:Drivers/STM32H7xx_HAL_Driver/Src/stm32h7xx_hal_dma_ex.c ****   assert_param(IS_DMA_ALL_INSTANCE(hdma->Instance));
 128:Drivers/STM32H7xx_HAL_Driver/Src/stm32h7xx_hal_dma_ex.c **** 
 129:Drivers/STM32H7xx_HAL_Driver/Src/stm32h7xx_hal_dma_ex.c ****   /* Memory-to-memory transfer not supported in double buffering mode */
 130:Drivers/STM32H7xx_HAL_Driver/Src/stm32h7xx_hal_dma_ex.c ****   if (hdma->Init.Direction == DMA_MEMORY_TO_MEMORY)
 131:Drivers/STM32H7xx_HAL_Driver/Src/stm32h7xx_hal_dma_ex.c ****   {
 132:Drivers/STM32H7xx_HAL_Driver/Src/stm32h7xx_hal_dma_ex.c ****     hdma->ErrorCode = HAL_DMA_ERROR_NOT_SUPPORTED;
 133:Drivers/STM32H7xx_HAL_Driver/Src/stm32h7xx_hal_dma_ex.c ****     status = HAL_ERROR;
 134:Drivers/STM32H7xx_HAL_Driver/Src/stm32h7xx_hal_dma_ex.c ****   }
 135:Drivers/STM32H7xx_HAL_Driver/Src/stm32h7xx_hal_dma_ex.c ****   else
 136:Drivers/STM32H7xx_HAL_Driver/Src/stm32h7xx_hal_dma_ex.c ****   {
 137:Drivers/STM32H7xx_HAL_Driver/Src/stm32h7xx_hal_dma_ex.c ****     /* Process Locked */
 138:Drivers/STM32H7xx_HAL_Driver/Src/stm32h7xx_hal_dma_ex.c ****     __HAL_LOCK(hdma);
 139:Drivers/STM32H7xx_HAL_Driver/Src/stm32h7xx_hal_dma_ex.c **** 
 140:Drivers/STM32H7xx_HAL_Driver/Src/stm32h7xx_hal_dma_ex.c ****     if(HAL_DMA_STATE_READY == hdma->State)
 141:Drivers/STM32H7xx_HAL_Driver/Src/stm32h7xx_hal_dma_ex.c ****     {
 142:Drivers/STM32H7xx_HAL_Driver/Src/stm32h7xx_hal_dma_ex.c ****       /* Change DMA peripheral state */
 143:Drivers/STM32H7xx_HAL_Driver/Src/stm32h7xx_hal_dma_ex.c ****       hdma->State = HAL_DMA_STATE_BUSY;
 144:Drivers/STM32H7xx_HAL_Driver/Src/stm32h7xx_hal_dma_ex.c **** 
 145:Drivers/STM32H7xx_HAL_Driver/Src/stm32h7xx_hal_dma_ex.c ****       /* Initialize the error code */
ARM GAS  C:\Users\27655\AppData\Local\Temp\ccjI14Jp.s 			page 4


 146:Drivers/STM32H7xx_HAL_Driver/Src/stm32h7xx_hal_dma_ex.c ****       hdma->ErrorCode = HAL_DMA_ERROR_NONE;
 147:Drivers/STM32H7xx_HAL_Driver/Src/stm32h7xx_hal_dma_ex.c **** 
 148:Drivers/STM32H7xx_HAL_Driver/Src/stm32h7xx_hal_dma_ex.c ****       if(IS_DMA_STREAM_INSTANCE(hdma->Instance) != 0U) /* DMA1 or DMA2 instance */
 149:Drivers/STM32H7xx_HAL_Driver/Src/stm32h7xx_hal_dma_ex.c ****       {
 150:Drivers/STM32H7xx_HAL_Driver/Src/stm32h7xx_hal_dma_ex.c ****         /* Enable the Double buffer mode */
 151:Drivers/STM32H7xx_HAL_Driver/Src/stm32h7xx_hal_dma_ex.c ****         ((DMA_Stream_TypeDef   *)hdma->Instance)->CR |= DMA_SxCR_DBM;
 152:Drivers/STM32H7xx_HAL_Driver/Src/stm32h7xx_hal_dma_ex.c **** 
 153:Drivers/STM32H7xx_HAL_Driver/Src/stm32h7xx_hal_dma_ex.c ****         /* Configure DMA Stream destination address */
 154:Drivers/STM32H7xx_HAL_Driver/Src/stm32h7xx_hal_dma_ex.c ****         ((DMA_Stream_TypeDef   *)hdma->Instance)->M1AR = SecondMemAddress;
 155:Drivers/STM32H7xx_HAL_Driver/Src/stm32h7xx_hal_dma_ex.c **** 
 156:Drivers/STM32H7xx_HAL_Driver/Src/stm32h7xx_hal_dma_ex.c ****         /* Calculate the interrupt clear flag register (IFCR) base address  */
 157:Drivers/STM32H7xx_HAL_Driver/Src/stm32h7xx_hal_dma_ex.c ****         ifcRegister_Base = (uint32_t *)((uint32_t)(hdma->StreamBaseAddress + 8U));
 158:Drivers/STM32H7xx_HAL_Driver/Src/stm32h7xx_hal_dma_ex.c **** 
 159:Drivers/STM32H7xx_HAL_Driver/Src/stm32h7xx_hal_dma_ex.c ****         /* Clear all flags */
 160:Drivers/STM32H7xx_HAL_Driver/Src/stm32h7xx_hal_dma_ex.c ****         *ifcRegister_Base = 0x3FUL << (hdma->StreamIndex & 0x1FU);
 161:Drivers/STM32H7xx_HAL_Driver/Src/stm32h7xx_hal_dma_ex.c ****       }
 162:Drivers/STM32H7xx_HAL_Driver/Src/stm32h7xx_hal_dma_ex.c ****       else /* BDMA instance(s) */
 163:Drivers/STM32H7xx_HAL_Driver/Src/stm32h7xx_hal_dma_ex.c ****       {
 164:Drivers/STM32H7xx_HAL_Driver/Src/stm32h7xx_hal_dma_ex.c ****         /* Enable the Double buffer mode */
 165:Drivers/STM32H7xx_HAL_Driver/Src/stm32h7xx_hal_dma_ex.c ****         ((BDMA_Channel_TypeDef   *)hdma->Instance)->CCR |= (BDMA_CCR_DBM | BDMA_CCR_CIRC);
 166:Drivers/STM32H7xx_HAL_Driver/Src/stm32h7xx_hal_dma_ex.c **** 
 167:Drivers/STM32H7xx_HAL_Driver/Src/stm32h7xx_hal_dma_ex.c ****         /* Configure DMA Stream destination address */
 168:Drivers/STM32H7xx_HAL_Driver/Src/stm32h7xx_hal_dma_ex.c ****         ((BDMA_Channel_TypeDef   *)hdma->Instance)->CM1AR = SecondMemAddress;
 169:Drivers/STM32H7xx_HAL_Driver/Src/stm32h7xx_hal_dma_ex.c **** 
 170:Drivers/STM32H7xx_HAL_Driver/Src/stm32h7xx_hal_dma_ex.c ****         /* Calculate the interrupt clear flag register (IFCR) base address  */
 171:Drivers/STM32H7xx_HAL_Driver/Src/stm32h7xx_hal_dma_ex.c ****         ifcRegister_Base = (uint32_t *)((uint32_t)(hdma->StreamBaseAddress + 4U));
 172:Drivers/STM32H7xx_HAL_Driver/Src/stm32h7xx_hal_dma_ex.c **** 
 173:Drivers/STM32H7xx_HAL_Driver/Src/stm32h7xx_hal_dma_ex.c ****         /* Clear all flags */
 174:Drivers/STM32H7xx_HAL_Driver/Src/stm32h7xx_hal_dma_ex.c ****         *ifcRegister_Base = (BDMA_ISR_GIF0) << (hdma->StreamIndex & 0x1FU);
 175:Drivers/STM32H7xx_HAL_Driver/Src/stm32h7xx_hal_dma_ex.c ****       }
 176:Drivers/STM32H7xx_HAL_Driver/Src/stm32h7xx_hal_dma_ex.c **** 
 177:Drivers/STM32H7xx_HAL_Driver/Src/stm32h7xx_hal_dma_ex.c ****       if(IS_DMA_DMAMUX_ALL_INSTANCE(hdma->Instance) != 0U) /* No DMAMUX available for BDMA1 */
 178:Drivers/STM32H7xx_HAL_Driver/Src/stm32h7xx_hal_dma_ex.c ****       {
 179:Drivers/STM32H7xx_HAL_Driver/Src/stm32h7xx_hal_dma_ex.c ****         /* Configure the source, destination address and the data length */
 180:Drivers/STM32H7xx_HAL_Driver/Src/stm32h7xx_hal_dma_ex.c ****         DMA_MultiBufferSetConfig(hdma, SrcAddress, DstAddress, DataLength);
 181:Drivers/STM32H7xx_HAL_Driver/Src/stm32h7xx_hal_dma_ex.c **** 
 182:Drivers/STM32H7xx_HAL_Driver/Src/stm32h7xx_hal_dma_ex.c ****         /* Clear the DMAMUX synchro overrun flag */
 183:Drivers/STM32H7xx_HAL_Driver/Src/stm32h7xx_hal_dma_ex.c ****         hdma->DMAmuxChannelStatus->CFR = hdma->DMAmuxChannelStatusMask;
 184:Drivers/STM32H7xx_HAL_Driver/Src/stm32h7xx_hal_dma_ex.c **** 
 185:Drivers/STM32H7xx_HAL_Driver/Src/stm32h7xx_hal_dma_ex.c ****         if(hdma->DMAmuxRequestGen != 0U)
 186:Drivers/STM32H7xx_HAL_Driver/Src/stm32h7xx_hal_dma_ex.c ****         {
 187:Drivers/STM32H7xx_HAL_Driver/Src/stm32h7xx_hal_dma_ex.c ****           /* Clear the DMAMUX request generator overrun flag */
 188:Drivers/STM32H7xx_HAL_Driver/Src/stm32h7xx_hal_dma_ex.c ****           hdma->DMAmuxRequestGenStatus->RGCFR = hdma->DMAmuxRequestGenStatusMask;
 189:Drivers/STM32H7xx_HAL_Driver/Src/stm32h7xx_hal_dma_ex.c ****         }
 190:Drivers/STM32H7xx_HAL_Driver/Src/stm32h7xx_hal_dma_ex.c ****       }
 191:Drivers/STM32H7xx_HAL_Driver/Src/stm32h7xx_hal_dma_ex.c **** 
 192:Drivers/STM32H7xx_HAL_Driver/Src/stm32h7xx_hal_dma_ex.c ****       /* Enable the peripheral */
 193:Drivers/STM32H7xx_HAL_Driver/Src/stm32h7xx_hal_dma_ex.c ****       __HAL_DMA_ENABLE(hdma);
 194:Drivers/STM32H7xx_HAL_Driver/Src/stm32h7xx_hal_dma_ex.c ****     }
 195:Drivers/STM32H7xx_HAL_Driver/Src/stm32h7xx_hal_dma_ex.c ****     else
 196:Drivers/STM32H7xx_HAL_Driver/Src/stm32h7xx_hal_dma_ex.c ****     {
 197:Drivers/STM32H7xx_HAL_Driver/Src/stm32h7xx_hal_dma_ex.c ****       /* Set the error code to busy */
 198:Drivers/STM32H7xx_HAL_Driver/Src/stm32h7xx_hal_dma_ex.c ****       hdma->ErrorCode = HAL_DMA_ERROR_BUSY;
 199:Drivers/STM32H7xx_HAL_Driver/Src/stm32h7xx_hal_dma_ex.c **** 
 200:Drivers/STM32H7xx_HAL_Driver/Src/stm32h7xx_hal_dma_ex.c ****       /* Return error status */
 201:Drivers/STM32H7xx_HAL_Driver/Src/stm32h7xx_hal_dma_ex.c ****       status = HAL_ERROR;
 202:Drivers/STM32H7xx_HAL_Driver/Src/stm32h7xx_hal_dma_ex.c ****     }
ARM GAS  C:\Users\27655\AppData\Local\Temp\ccjI14Jp.s 			page 5


 203:Drivers/STM32H7xx_HAL_Driver/Src/stm32h7xx_hal_dma_ex.c ****   }
 204:Drivers/STM32H7xx_HAL_Driver/Src/stm32h7xx_hal_dma_ex.c ****   return status;
 205:Drivers/STM32H7xx_HAL_Driver/Src/stm32h7xx_hal_dma_ex.c **** }
 206:Drivers/STM32H7xx_HAL_Driver/Src/stm32h7xx_hal_dma_ex.c **** 
 207:Drivers/STM32H7xx_HAL_Driver/Src/stm32h7xx_hal_dma_ex.c **** /**
 208:Drivers/STM32H7xx_HAL_Driver/Src/stm32h7xx_hal_dma_ex.c ****   * @brief  Starts the multi_buffer DMA Transfer with interrupt enabled.
 209:Drivers/STM32H7xx_HAL_Driver/Src/stm32h7xx_hal_dma_ex.c ****   * @param  hdma:       pointer to a DMA_HandleTypeDef structure that contains
 210:Drivers/STM32H7xx_HAL_Driver/Src/stm32h7xx_hal_dma_ex.c ****   *                     the configuration information for the specified DMA Stream.
 211:Drivers/STM32H7xx_HAL_Driver/Src/stm32h7xx_hal_dma_ex.c ****   * @param  SrcAddress: The source memory Buffer address
 212:Drivers/STM32H7xx_HAL_Driver/Src/stm32h7xx_hal_dma_ex.c ****   * @param  DstAddress: The destination memory Buffer address
 213:Drivers/STM32H7xx_HAL_Driver/Src/stm32h7xx_hal_dma_ex.c ****   * @param  SecondMemAddress: The second memory Buffer address in case of multi buffer Transfer
 214:Drivers/STM32H7xx_HAL_Driver/Src/stm32h7xx_hal_dma_ex.c ****   * @param  DataLength: The length of data to be transferred from source to destination
 215:Drivers/STM32H7xx_HAL_Driver/Src/stm32h7xx_hal_dma_ex.c ****   * @retval HAL status
 216:Drivers/STM32H7xx_HAL_Driver/Src/stm32h7xx_hal_dma_ex.c ****   */
 217:Drivers/STM32H7xx_HAL_Driver/Src/stm32h7xx_hal_dma_ex.c **** HAL_StatusTypeDef HAL_DMAEx_MultiBufferStart_IT(DMA_HandleTypeDef *hdma, uint32_t SrcAddress, uint3
 218:Drivers/STM32H7xx_HAL_Driver/Src/stm32h7xx_hal_dma_ex.c **** {
 219:Drivers/STM32H7xx_HAL_Driver/Src/stm32h7xx_hal_dma_ex.c ****   HAL_StatusTypeDef status = HAL_OK;
 220:Drivers/STM32H7xx_HAL_Driver/Src/stm32h7xx_hal_dma_ex.c ****   __IO uint32_t *ifcRegister_Base; /* DMA Stream Interrupt Clear register */
 221:Drivers/STM32H7xx_HAL_Driver/Src/stm32h7xx_hal_dma_ex.c **** 
 222:Drivers/STM32H7xx_HAL_Driver/Src/stm32h7xx_hal_dma_ex.c ****   /* Check the parameters */
 223:Drivers/STM32H7xx_HAL_Driver/Src/stm32h7xx_hal_dma_ex.c ****   assert_param(IS_DMA_BUFFER_SIZE(DataLength));
 224:Drivers/STM32H7xx_HAL_Driver/Src/stm32h7xx_hal_dma_ex.c ****   assert_param(IS_DMA_ALL_INSTANCE(hdma->Instance));
 225:Drivers/STM32H7xx_HAL_Driver/Src/stm32h7xx_hal_dma_ex.c **** 
 226:Drivers/STM32H7xx_HAL_Driver/Src/stm32h7xx_hal_dma_ex.c ****   /* Memory-to-memory transfer not supported in double buffering mode */
 227:Drivers/STM32H7xx_HAL_Driver/Src/stm32h7xx_hal_dma_ex.c ****   if(hdma->Init.Direction == DMA_MEMORY_TO_MEMORY)
 228:Drivers/STM32H7xx_HAL_Driver/Src/stm32h7xx_hal_dma_ex.c ****   {
 229:Drivers/STM32H7xx_HAL_Driver/Src/stm32h7xx_hal_dma_ex.c ****     hdma->ErrorCode = HAL_DMA_ERROR_NOT_SUPPORTED;
 230:Drivers/STM32H7xx_HAL_Driver/Src/stm32h7xx_hal_dma_ex.c ****     return HAL_ERROR;
 231:Drivers/STM32H7xx_HAL_Driver/Src/stm32h7xx_hal_dma_ex.c ****   }
 232:Drivers/STM32H7xx_HAL_Driver/Src/stm32h7xx_hal_dma_ex.c **** 
 233:Drivers/STM32H7xx_HAL_Driver/Src/stm32h7xx_hal_dma_ex.c ****   /* Process locked */
 234:Drivers/STM32H7xx_HAL_Driver/Src/stm32h7xx_hal_dma_ex.c ****   __HAL_LOCK(hdma);
 235:Drivers/STM32H7xx_HAL_Driver/Src/stm32h7xx_hal_dma_ex.c **** 
 236:Drivers/STM32H7xx_HAL_Driver/Src/stm32h7xx_hal_dma_ex.c ****   if(HAL_DMA_STATE_READY == hdma->State)
 237:Drivers/STM32H7xx_HAL_Driver/Src/stm32h7xx_hal_dma_ex.c ****   {
 238:Drivers/STM32H7xx_HAL_Driver/Src/stm32h7xx_hal_dma_ex.c ****     /* Change DMA peripheral state */
 239:Drivers/STM32H7xx_HAL_Driver/Src/stm32h7xx_hal_dma_ex.c ****     hdma->State = HAL_DMA_STATE_BUSY;
 240:Drivers/STM32H7xx_HAL_Driver/Src/stm32h7xx_hal_dma_ex.c **** 
 241:Drivers/STM32H7xx_HAL_Driver/Src/stm32h7xx_hal_dma_ex.c ****     /* Initialize the error code */
 242:Drivers/STM32H7xx_HAL_Driver/Src/stm32h7xx_hal_dma_ex.c ****     hdma->ErrorCode = HAL_DMA_ERROR_NONE;
 243:Drivers/STM32H7xx_HAL_Driver/Src/stm32h7xx_hal_dma_ex.c **** 
 244:Drivers/STM32H7xx_HAL_Driver/Src/stm32h7xx_hal_dma_ex.c ****     if(IS_DMA_STREAM_INSTANCE(hdma->Instance) != 0U) /* DMA1 or DMA2 instance */
 245:Drivers/STM32H7xx_HAL_Driver/Src/stm32h7xx_hal_dma_ex.c ****     {
 246:Drivers/STM32H7xx_HAL_Driver/Src/stm32h7xx_hal_dma_ex.c ****       /* Enable the Double buffer mode */
 247:Drivers/STM32H7xx_HAL_Driver/Src/stm32h7xx_hal_dma_ex.c ****       ((DMA_Stream_TypeDef   *)hdma->Instance)->CR |= DMA_SxCR_DBM;
 248:Drivers/STM32H7xx_HAL_Driver/Src/stm32h7xx_hal_dma_ex.c **** 
 249:Drivers/STM32H7xx_HAL_Driver/Src/stm32h7xx_hal_dma_ex.c ****       /* Configure DMA Stream destination address */
 250:Drivers/STM32H7xx_HAL_Driver/Src/stm32h7xx_hal_dma_ex.c ****       ((DMA_Stream_TypeDef   *)hdma->Instance)->M1AR = SecondMemAddress;
 251:Drivers/STM32H7xx_HAL_Driver/Src/stm32h7xx_hal_dma_ex.c **** 
 252:Drivers/STM32H7xx_HAL_Driver/Src/stm32h7xx_hal_dma_ex.c ****       /* Calculate the interrupt clear flag register (IFCR) base address  */
 253:Drivers/STM32H7xx_HAL_Driver/Src/stm32h7xx_hal_dma_ex.c ****       ifcRegister_Base = (uint32_t *)((uint32_t)(hdma->StreamBaseAddress + 8U));
 254:Drivers/STM32H7xx_HAL_Driver/Src/stm32h7xx_hal_dma_ex.c **** 
 255:Drivers/STM32H7xx_HAL_Driver/Src/stm32h7xx_hal_dma_ex.c ****       /* Clear all flags */
 256:Drivers/STM32H7xx_HAL_Driver/Src/stm32h7xx_hal_dma_ex.c ****       *ifcRegister_Base = 0x3FUL << (hdma->StreamIndex & 0x1FU);
 257:Drivers/STM32H7xx_HAL_Driver/Src/stm32h7xx_hal_dma_ex.c ****     }
 258:Drivers/STM32H7xx_HAL_Driver/Src/stm32h7xx_hal_dma_ex.c ****     else /* BDMA instance(s) */
 259:Drivers/STM32H7xx_HAL_Driver/Src/stm32h7xx_hal_dma_ex.c ****     {
ARM GAS  C:\Users\27655\AppData\Local\Temp\ccjI14Jp.s 			page 6


 260:Drivers/STM32H7xx_HAL_Driver/Src/stm32h7xx_hal_dma_ex.c ****       /* Enable the Double buffer mode */
 261:Drivers/STM32H7xx_HAL_Driver/Src/stm32h7xx_hal_dma_ex.c ****       ((BDMA_Channel_TypeDef   *)hdma->Instance)->CCR |= (BDMA_CCR_DBM | BDMA_CCR_CIRC);
 262:Drivers/STM32H7xx_HAL_Driver/Src/stm32h7xx_hal_dma_ex.c **** 
 263:Drivers/STM32H7xx_HAL_Driver/Src/stm32h7xx_hal_dma_ex.c ****       /* Configure DMA Stream destination address */
 264:Drivers/STM32H7xx_HAL_Driver/Src/stm32h7xx_hal_dma_ex.c ****       ((BDMA_Channel_TypeDef   *)hdma->Instance)->CM1AR = SecondMemAddress;
 265:Drivers/STM32H7xx_HAL_Driver/Src/stm32h7xx_hal_dma_ex.c **** 
 266:Drivers/STM32H7xx_HAL_Driver/Src/stm32h7xx_hal_dma_ex.c ****       /* Calculate the interrupt clear flag register (IFCR) base address  */
 267:Drivers/STM32H7xx_HAL_Driver/Src/stm32h7xx_hal_dma_ex.c ****       ifcRegister_Base = (uint32_t *)((uint32_t)(hdma->StreamBaseAddress + 4U));
 268:Drivers/STM32H7xx_HAL_Driver/Src/stm32h7xx_hal_dma_ex.c **** 
 269:Drivers/STM32H7xx_HAL_Driver/Src/stm32h7xx_hal_dma_ex.c ****       /* Clear all flags */
 270:Drivers/STM32H7xx_HAL_Driver/Src/stm32h7xx_hal_dma_ex.c ****       *ifcRegister_Base = (BDMA_ISR_GIF0) << (hdma->StreamIndex & 0x1FU);
 271:Drivers/STM32H7xx_HAL_Driver/Src/stm32h7xx_hal_dma_ex.c ****     }
 272:Drivers/STM32H7xx_HAL_Driver/Src/stm32h7xx_hal_dma_ex.c **** 
 273:Drivers/STM32H7xx_HAL_Driver/Src/stm32h7xx_hal_dma_ex.c ****     /* Configure the source, destination address and the data length */
 274:Drivers/STM32H7xx_HAL_Driver/Src/stm32h7xx_hal_dma_ex.c ****     DMA_MultiBufferSetConfig(hdma, SrcAddress, DstAddress, DataLength);
 275:Drivers/STM32H7xx_HAL_Driver/Src/stm32h7xx_hal_dma_ex.c **** 
 276:Drivers/STM32H7xx_HAL_Driver/Src/stm32h7xx_hal_dma_ex.c ****     if(IS_DMA_DMAMUX_ALL_INSTANCE(hdma->Instance) != 0U) /* No DMAMUX available for BDMA1 */
 277:Drivers/STM32H7xx_HAL_Driver/Src/stm32h7xx_hal_dma_ex.c ****     {
 278:Drivers/STM32H7xx_HAL_Driver/Src/stm32h7xx_hal_dma_ex.c ****       /* Clear the DMAMUX synchro overrun flag */
 279:Drivers/STM32H7xx_HAL_Driver/Src/stm32h7xx_hal_dma_ex.c ****       hdma->DMAmuxChannelStatus->CFR = hdma->DMAmuxChannelStatusMask;
 280:Drivers/STM32H7xx_HAL_Driver/Src/stm32h7xx_hal_dma_ex.c **** 
 281:Drivers/STM32H7xx_HAL_Driver/Src/stm32h7xx_hal_dma_ex.c ****       if(hdma->DMAmuxRequestGen != 0U)
 282:Drivers/STM32H7xx_HAL_Driver/Src/stm32h7xx_hal_dma_ex.c ****       {
 283:Drivers/STM32H7xx_HAL_Driver/Src/stm32h7xx_hal_dma_ex.c ****         /* Clear the DMAMUX request generator overrun flag */
 284:Drivers/STM32H7xx_HAL_Driver/Src/stm32h7xx_hal_dma_ex.c ****         hdma->DMAmuxRequestGenStatus->RGCFR = hdma->DMAmuxRequestGenStatusMask;
 285:Drivers/STM32H7xx_HAL_Driver/Src/stm32h7xx_hal_dma_ex.c ****       }
 286:Drivers/STM32H7xx_HAL_Driver/Src/stm32h7xx_hal_dma_ex.c ****     }
 287:Drivers/STM32H7xx_HAL_Driver/Src/stm32h7xx_hal_dma_ex.c **** 
 288:Drivers/STM32H7xx_HAL_Driver/Src/stm32h7xx_hal_dma_ex.c ****     if(IS_DMA_STREAM_INSTANCE(hdma->Instance) != 0U) /* DMA1 or DMA2 instance */
 289:Drivers/STM32H7xx_HAL_Driver/Src/stm32h7xx_hal_dma_ex.c ****     {
 290:Drivers/STM32H7xx_HAL_Driver/Src/stm32h7xx_hal_dma_ex.c ****       /* Enable Common interrupts*/
 291:Drivers/STM32H7xx_HAL_Driver/Src/stm32h7xx_hal_dma_ex.c ****       MODIFY_REG(((DMA_Stream_TypeDef   *)hdma->Instance)->CR, (DMA_IT_TC | DMA_IT_TE | DMA_IT_DME 
 292:Drivers/STM32H7xx_HAL_Driver/Src/stm32h7xx_hal_dma_ex.c ****       ((DMA_Stream_TypeDef   *)hdma->Instance)->FCR |= DMA_IT_FE;
 293:Drivers/STM32H7xx_HAL_Driver/Src/stm32h7xx_hal_dma_ex.c **** 
 294:Drivers/STM32H7xx_HAL_Driver/Src/stm32h7xx_hal_dma_ex.c ****       if((hdma->XferHalfCpltCallback != NULL) || (hdma->XferM1HalfCpltCallback != NULL))
 295:Drivers/STM32H7xx_HAL_Driver/Src/stm32h7xx_hal_dma_ex.c ****       {
 296:Drivers/STM32H7xx_HAL_Driver/Src/stm32h7xx_hal_dma_ex.c ****         /*Enable Half Transfer IT if corresponding Callback is set*/
 297:Drivers/STM32H7xx_HAL_Driver/Src/stm32h7xx_hal_dma_ex.c ****         ((DMA_Stream_TypeDef   *)hdma->Instance)->CR  |= DMA_IT_HT;
 298:Drivers/STM32H7xx_HAL_Driver/Src/stm32h7xx_hal_dma_ex.c ****       }
 299:Drivers/STM32H7xx_HAL_Driver/Src/stm32h7xx_hal_dma_ex.c ****     }
 300:Drivers/STM32H7xx_HAL_Driver/Src/stm32h7xx_hal_dma_ex.c ****     else /* BDMA instance(s) */
 301:Drivers/STM32H7xx_HAL_Driver/Src/stm32h7xx_hal_dma_ex.c ****     {
 302:Drivers/STM32H7xx_HAL_Driver/Src/stm32h7xx_hal_dma_ex.c ****       /* Enable Common interrupts*/
 303:Drivers/STM32H7xx_HAL_Driver/Src/stm32h7xx_hal_dma_ex.c ****       MODIFY_REG(((BDMA_Channel_TypeDef   *)hdma->Instance)->CCR, (BDMA_CCR_TCIE | BDMA_CCR_HTIE | 
 304:Drivers/STM32H7xx_HAL_Driver/Src/stm32h7xx_hal_dma_ex.c **** 
 305:Drivers/STM32H7xx_HAL_Driver/Src/stm32h7xx_hal_dma_ex.c ****       if((hdma->XferHalfCpltCallback != NULL) || (hdma->XferM1HalfCpltCallback != NULL))
 306:Drivers/STM32H7xx_HAL_Driver/Src/stm32h7xx_hal_dma_ex.c ****       {
 307:Drivers/STM32H7xx_HAL_Driver/Src/stm32h7xx_hal_dma_ex.c ****         /*Enable Half Transfer IT if corresponding Callback is set*/
 308:Drivers/STM32H7xx_HAL_Driver/Src/stm32h7xx_hal_dma_ex.c ****         ((BDMA_Channel_TypeDef   *)hdma->Instance)->CCR  |= BDMA_CCR_HTIE;
 309:Drivers/STM32H7xx_HAL_Driver/Src/stm32h7xx_hal_dma_ex.c ****       }
 310:Drivers/STM32H7xx_HAL_Driver/Src/stm32h7xx_hal_dma_ex.c ****     }
 311:Drivers/STM32H7xx_HAL_Driver/Src/stm32h7xx_hal_dma_ex.c **** 
 312:Drivers/STM32H7xx_HAL_Driver/Src/stm32h7xx_hal_dma_ex.c ****     if(IS_DMA_DMAMUX_ALL_INSTANCE(hdma->Instance) != 0U) /* No DMAMUX available for BDMA1 */
 313:Drivers/STM32H7xx_HAL_Driver/Src/stm32h7xx_hal_dma_ex.c ****     {
 314:Drivers/STM32H7xx_HAL_Driver/Src/stm32h7xx_hal_dma_ex.c ****       /* Check if DMAMUX Synchronization is enabled*/
 315:Drivers/STM32H7xx_HAL_Driver/Src/stm32h7xx_hal_dma_ex.c ****       if((hdma->DMAmuxChannel->CCR & DMAMUX_CxCR_SE) != 0U)
 316:Drivers/STM32H7xx_HAL_Driver/Src/stm32h7xx_hal_dma_ex.c ****       {
ARM GAS  C:\Users\27655\AppData\Local\Temp\ccjI14Jp.s 			page 7


 317:Drivers/STM32H7xx_HAL_Driver/Src/stm32h7xx_hal_dma_ex.c ****         /* Enable DMAMUX sync overrun IT*/
 318:Drivers/STM32H7xx_HAL_Driver/Src/stm32h7xx_hal_dma_ex.c ****         hdma->DMAmuxChannel->CCR |= DMAMUX_CxCR_SOIE;
 319:Drivers/STM32H7xx_HAL_Driver/Src/stm32h7xx_hal_dma_ex.c ****       }
 320:Drivers/STM32H7xx_HAL_Driver/Src/stm32h7xx_hal_dma_ex.c **** 
 321:Drivers/STM32H7xx_HAL_Driver/Src/stm32h7xx_hal_dma_ex.c ****       if(hdma->DMAmuxRequestGen != 0U)
 322:Drivers/STM32H7xx_HAL_Driver/Src/stm32h7xx_hal_dma_ex.c ****       {
 323:Drivers/STM32H7xx_HAL_Driver/Src/stm32h7xx_hal_dma_ex.c ****         /* if using DMAMUX request generator, enable the DMAMUX request generator overrun IT*/
 324:Drivers/STM32H7xx_HAL_Driver/Src/stm32h7xx_hal_dma_ex.c ****         /* enable the request gen overrun IT*/
 325:Drivers/STM32H7xx_HAL_Driver/Src/stm32h7xx_hal_dma_ex.c ****         hdma->DMAmuxRequestGen->RGCR |= DMAMUX_RGxCR_OIE;
 326:Drivers/STM32H7xx_HAL_Driver/Src/stm32h7xx_hal_dma_ex.c ****       }
 327:Drivers/STM32H7xx_HAL_Driver/Src/stm32h7xx_hal_dma_ex.c ****     }
 328:Drivers/STM32H7xx_HAL_Driver/Src/stm32h7xx_hal_dma_ex.c **** 
 329:Drivers/STM32H7xx_HAL_Driver/Src/stm32h7xx_hal_dma_ex.c ****     /* Enable the peripheral */
 330:Drivers/STM32H7xx_HAL_Driver/Src/stm32h7xx_hal_dma_ex.c ****     __HAL_DMA_ENABLE(hdma);
 331:Drivers/STM32H7xx_HAL_Driver/Src/stm32h7xx_hal_dma_ex.c ****   }
 332:Drivers/STM32H7xx_HAL_Driver/Src/stm32h7xx_hal_dma_ex.c ****   else
 333:Drivers/STM32H7xx_HAL_Driver/Src/stm32h7xx_hal_dma_ex.c ****   {
 334:Drivers/STM32H7xx_HAL_Driver/Src/stm32h7xx_hal_dma_ex.c ****     /* Set the error code to busy */
 335:Drivers/STM32H7xx_HAL_Driver/Src/stm32h7xx_hal_dma_ex.c ****     hdma->ErrorCode = HAL_DMA_ERROR_BUSY;
 336:Drivers/STM32H7xx_HAL_Driver/Src/stm32h7xx_hal_dma_ex.c **** 
 337:Drivers/STM32H7xx_HAL_Driver/Src/stm32h7xx_hal_dma_ex.c ****     /* Return error status */
 338:Drivers/STM32H7xx_HAL_Driver/Src/stm32h7xx_hal_dma_ex.c ****     status = HAL_ERROR;
 339:Drivers/STM32H7xx_HAL_Driver/Src/stm32h7xx_hal_dma_ex.c ****   }
 340:Drivers/STM32H7xx_HAL_Driver/Src/stm32h7xx_hal_dma_ex.c ****   return status;
 341:Drivers/STM32H7xx_HAL_Driver/Src/stm32h7xx_hal_dma_ex.c **** }
 342:Drivers/STM32H7xx_HAL_Driver/Src/stm32h7xx_hal_dma_ex.c **** 
 343:Drivers/STM32H7xx_HAL_Driver/Src/stm32h7xx_hal_dma_ex.c **** /**
 344:Drivers/STM32H7xx_HAL_Driver/Src/stm32h7xx_hal_dma_ex.c ****   * @brief  Change the memory0 or memory1 address on the fly.
 345:Drivers/STM32H7xx_HAL_Driver/Src/stm32h7xx_hal_dma_ex.c ****   * @param  hdma:       pointer to a DMA_HandleTypeDef structure that contains
 346:Drivers/STM32H7xx_HAL_Driver/Src/stm32h7xx_hal_dma_ex.c ****   *                     the configuration information for the specified DMA Stream.
 347:Drivers/STM32H7xx_HAL_Driver/Src/stm32h7xx_hal_dma_ex.c ****   * @param  Address:    The new address
 348:Drivers/STM32H7xx_HAL_Driver/Src/stm32h7xx_hal_dma_ex.c ****   * @param  memory:     the memory to be changed, This parameter can be one of
 349:Drivers/STM32H7xx_HAL_Driver/Src/stm32h7xx_hal_dma_ex.c ****   *                     the following values:
 350:Drivers/STM32H7xx_HAL_Driver/Src/stm32h7xx_hal_dma_ex.c ****   *                      MEMORY0 /
 351:Drivers/STM32H7xx_HAL_Driver/Src/stm32h7xx_hal_dma_ex.c ****   *                      MEMORY1
 352:Drivers/STM32H7xx_HAL_Driver/Src/stm32h7xx_hal_dma_ex.c ****   * @note   The MEMORY0 address can be changed only when the current transfer use
 353:Drivers/STM32H7xx_HAL_Driver/Src/stm32h7xx_hal_dma_ex.c ****   *         MEMORY1 and the MEMORY1 address can be changed only when the current
 354:Drivers/STM32H7xx_HAL_Driver/Src/stm32h7xx_hal_dma_ex.c ****   *         transfer use MEMORY0.
 355:Drivers/STM32H7xx_HAL_Driver/Src/stm32h7xx_hal_dma_ex.c ****   * @retval HAL status
 356:Drivers/STM32H7xx_HAL_Driver/Src/stm32h7xx_hal_dma_ex.c ****   */
 357:Drivers/STM32H7xx_HAL_Driver/Src/stm32h7xx_hal_dma_ex.c **** HAL_StatusTypeDef HAL_DMAEx_ChangeMemory(DMA_HandleTypeDef *hdma, uint32_t Address, HAL_DMA_MemoryT
 358:Drivers/STM32H7xx_HAL_Driver/Src/stm32h7xx_hal_dma_ex.c **** {
 359:Drivers/STM32H7xx_HAL_Driver/Src/stm32h7xx_hal_dma_ex.c ****   if(IS_DMA_STREAM_INSTANCE(hdma->Instance) != 0U) /* DMA1 or DMA2 instance */
 360:Drivers/STM32H7xx_HAL_Driver/Src/stm32h7xx_hal_dma_ex.c ****   {
 361:Drivers/STM32H7xx_HAL_Driver/Src/stm32h7xx_hal_dma_ex.c ****     if(memory == MEMORY0)
 362:Drivers/STM32H7xx_HAL_Driver/Src/stm32h7xx_hal_dma_ex.c ****     {
 363:Drivers/STM32H7xx_HAL_Driver/Src/stm32h7xx_hal_dma_ex.c ****       /* change the memory0 address */
 364:Drivers/STM32H7xx_HAL_Driver/Src/stm32h7xx_hal_dma_ex.c ****       ((DMA_Stream_TypeDef   *)hdma->Instance)->M0AR = Address;
 365:Drivers/STM32H7xx_HAL_Driver/Src/stm32h7xx_hal_dma_ex.c ****     }
 366:Drivers/STM32H7xx_HAL_Driver/Src/stm32h7xx_hal_dma_ex.c ****     else
 367:Drivers/STM32H7xx_HAL_Driver/Src/stm32h7xx_hal_dma_ex.c ****     {
 368:Drivers/STM32H7xx_HAL_Driver/Src/stm32h7xx_hal_dma_ex.c ****       /* change the memory1 address */
 369:Drivers/STM32H7xx_HAL_Driver/Src/stm32h7xx_hal_dma_ex.c ****       ((DMA_Stream_TypeDef   *)hdma->Instance)->M1AR = Address;
 370:Drivers/STM32H7xx_HAL_Driver/Src/stm32h7xx_hal_dma_ex.c ****     }
 371:Drivers/STM32H7xx_HAL_Driver/Src/stm32h7xx_hal_dma_ex.c ****   }
 372:Drivers/STM32H7xx_HAL_Driver/Src/stm32h7xx_hal_dma_ex.c ****   else /* BDMA instance(s) */
 373:Drivers/STM32H7xx_HAL_Driver/Src/stm32h7xx_hal_dma_ex.c ****   {
ARM GAS  C:\Users\27655\AppData\Local\Temp\ccjI14Jp.s 			page 8


 374:Drivers/STM32H7xx_HAL_Driver/Src/stm32h7xx_hal_dma_ex.c ****     if(memory == MEMORY0)
 375:Drivers/STM32H7xx_HAL_Driver/Src/stm32h7xx_hal_dma_ex.c ****     {
 376:Drivers/STM32H7xx_HAL_Driver/Src/stm32h7xx_hal_dma_ex.c ****       /* change the memory0 address */
 377:Drivers/STM32H7xx_HAL_Driver/Src/stm32h7xx_hal_dma_ex.c ****       ((BDMA_Channel_TypeDef   *)hdma->Instance)->CM0AR = Address;
 378:Drivers/STM32H7xx_HAL_Driver/Src/stm32h7xx_hal_dma_ex.c ****     }
 379:Drivers/STM32H7xx_HAL_Driver/Src/stm32h7xx_hal_dma_ex.c ****     else
 380:Drivers/STM32H7xx_HAL_Driver/Src/stm32h7xx_hal_dma_ex.c ****     {
 381:Drivers/STM32H7xx_HAL_Driver/Src/stm32h7xx_hal_dma_ex.c ****       /* change the memory1 address */
 382:Drivers/STM32H7xx_HAL_Driver/Src/stm32h7xx_hal_dma_ex.c ****       ((BDMA_Channel_TypeDef   *)hdma->Instance)->CM1AR = Address;
 383:Drivers/STM32H7xx_HAL_Driver/Src/stm32h7xx_hal_dma_ex.c ****     }
 384:Drivers/STM32H7xx_HAL_Driver/Src/stm32h7xx_hal_dma_ex.c ****   }
 385:Drivers/STM32H7xx_HAL_Driver/Src/stm32h7xx_hal_dma_ex.c **** 
 386:Drivers/STM32H7xx_HAL_Driver/Src/stm32h7xx_hal_dma_ex.c ****   return HAL_OK;
 387:Drivers/STM32H7xx_HAL_Driver/Src/stm32h7xx_hal_dma_ex.c **** }
 388:Drivers/STM32H7xx_HAL_Driver/Src/stm32h7xx_hal_dma_ex.c **** 
 389:Drivers/STM32H7xx_HAL_Driver/Src/stm32h7xx_hal_dma_ex.c **** /**
 390:Drivers/STM32H7xx_HAL_Driver/Src/stm32h7xx_hal_dma_ex.c ****   * @brief  Configure the DMAMUX synchronization parameters for a given DMA stream (instance).
 391:Drivers/STM32H7xx_HAL_Driver/Src/stm32h7xx_hal_dma_ex.c ****   * @param  hdma:       pointer to a DMA_HandleTypeDef structure that contains
 392:Drivers/STM32H7xx_HAL_Driver/Src/stm32h7xx_hal_dma_ex.c ****   *                     the configuration information for the specified DMA Stream.
 393:Drivers/STM32H7xx_HAL_Driver/Src/stm32h7xx_hal_dma_ex.c ****   * @param  pSyncConfig : pointer to HAL_DMA_MuxSyncConfigTypeDef : contains the DMAMUX synchroniza
 394:Drivers/STM32H7xx_HAL_Driver/Src/stm32h7xx_hal_dma_ex.c ****   * @retval HAL status
 395:Drivers/STM32H7xx_HAL_Driver/Src/stm32h7xx_hal_dma_ex.c ****   */
 396:Drivers/STM32H7xx_HAL_Driver/Src/stm32h7xx_hal_dma_ex.c **** HAL_StatusTypeDef HAL_DMAEx_ConfigMuxSync(DMA_HandleTypeDef *hdma, HAL_DMA_MuxSyncConfigTypeDef *pS
 397:Drivers/STM32H7xx_HAL_Driver/Src/stm32h7xx_hal_dma_ex.c **** {
 398:Drivers/STM32H7xx_HAL_Driver/Src/stm32h7xx_hal_dma_ex.c ****   uint32_t syncSignalID = 0;
 399:Drivers/STM32H7xx_HAL_Driver/Src/stm32h7xx_hal_dma_ex.c ****   uint32_t syncPolarity = 0;
 400:Drivers/STM32H7xx_HAL_Driver/Src/stm32h7xx_hal_dma_ex.c **** 
 401:Drivers/STM32H7xx_HAL_Driver/Src/stm32h7xx_hal_dma_ex.c ****   /* Check the parameters */
 402:Drivers/STM32H7xx_HAL_Driver/Src/stm32h7xx_hal_dma_ex.c ****   assert_param(IS_DMA_DMAMUX_ALL_INSTANCE(hdma->Instance));
 403:Drivers/STM32H7xx_HAL_Driver/Src/stm32h7xx_hal_dma_ex.c ****   assert_param(IS_DMAMUX_SYNC_STATE(pSyncConfig->SyncEnable));
 404:Drivers/STM32H7xx_HAL_Driver/Src/stm32h7xx_hal_dma_ex.c ****   assert_param(IS_DMAMUX_SYNC_EVENT(pSyncConfig->EventEnable));
 405:Drivers/STM32H7xx_HAL_Driver/Src/stm32h7xx_hal_dma_ex.c ****   assert_param(IS_DMAMUX_SYNC_REQUEST_NUMBER(pSyncConfig->RequestNumber));
 406:Drivers/STM32H7xx_HAL_Driver/Src/stm32h7xx_hal_dma_ex.c **** 
 407:Drivers/STM32H7xx_HAL_Driver/Src/stm32h7xx_hal_dma_ex.c ****   if(pSyncConfig->SyncEnable == ENABLE)
 408:Drivers/STM32H7xx_HAL_Driver/Src/stm32h7xx_hal_dma_ex.c ****   {
 409:Drivers/STM32H7xx_HAL_Driver/Src/stm32h7xx_hal_dma_ex.c ****     assert_param(IS_DMAMUX_SYNC_POLARITY(pSyncConfig->SyncPolarity));
 410:Drivers/STM32H7xx_HAL_Driver/Src/stm32h7xx_hal_dma_ex.c **** 
 411:Drivers/STM32H7xx_HAL_Driver/Src/stm32h7xx_hal_dma_ex.c ****     if(IS_DMA_STREAM_INSTANCE(hdma->Instance) != 0U) /* DMA1 or DMA2 instance */
 412:Drivers/STM32H7xx_HAL_Driver/Src/stm32h7xx_hal_dma_ex.c ****     {
 413:Drivers/STM32H7xx_HAL_Driver/Src/stm32h7xx_hal_dma_ex.c ****       assert_param(IS_DMA_DMAMUX_SYNC_SIGNAL_ID(pSyncConfig->SyncSignalID));
 414:Drivers/STM32H7xx_HAL_Driver/Src/stm32h7xx_hal_dma_ex.c ****     }
 415:Drivers/STM32H7xx_HAL_Driver/Src/stm32h7xx_hal_dma_ex.c ****     else
 416:Drivers/STM32H7xx_HAL_Driver/Src/stm32h7xx_hal_dma_ex.c ****     {
 417:Drivers/STM32H7xx_HAL_Driver/Src/stm32h7xx_hal_dma_ex.c ****       assert_param(IS_BDMA_DMAMUX_SYNC_SIGNAL_ID(pSyncConfig->SyncSignalID));
 418:Drivers/STM32H7xx_HAL_Driver/Src/stm32h7xx_hal_dma_ex.c ****     }
 419:Drivers/STM32H7xx_HAL_Driver/Src/stm32h7xx_hal_dma_ex.c ****     syncSignalID = pSyncConfig->SyncSignalID;
 420:Drivers/STM32H7xx_HAL_Driver/Src/stm32h7xx_hal_dma_ex.c ****     syncPolarity = pSyncConfig->SyncPolarity;
 421:Drivers/STM32H7xx_HAL_Driver/Src/stm32h7xx_hal_dma_ex.c ****   }
 422:Drivers/STM32H7xx_HAL_Driver/Src/stm32h7xx_hal_dma_ex.c **** 
 423:Drivers/STM32H7xx_HAL_Driver/Src/stm32h7xx_hal_dma_ex.c ****   /*Check if the DMA state is ready */
 424:Drivers/STM32H7xx_HAL_Driver/Src/stm32h7xx_hal_dma_ex.c ****   if(hdma->State == HAL_DMA_STATE_READY)
 425:Drivers/STM32H7xx_HAL_Driver/Src/stm32h7xx_hal_dma_ex.c ****   {
 426:Drivers/STM32H7xx_HAL_Driver/Src/stm32h7xx_hal_dma_ex.c ****     /* Process Locked */
 427:Drivers/STM32H7xx_HAL_Driver/Src/stm32h7xx_hal_dma_ex.c ****     __HAL_LOCK(hdma);
 428:Drivers/STM32H7xx_HAL_Driver/Src/stm32h7xx_hal_dma_ex.c **** 
 429:Drivers/STM32H7xx_HAL_Driver/Src/stm32h7xx_hal_dma_ex.c ****     /* Disable the synchronization and event generation before applying a new config */
 430:Drivers/STM32H7xx_HAL_Driver/Src/stm32h7xx_hal_dma_ex.c ****     CLEAR_BIT(hdma->DMAmuxChannel->CCR,(DMAMUX_CxCR_SE | DMAMUX_CxCR_EGE));
ARM GAS  C:\Users\27655\AppData\Local\Temp\ccjI14Jp.s 			page 9


 431:Drivers/STM32H7xx_HAL_Driver/Src/stm32h7xx_hal_dma_ex.c **** 
 432:Drivers/STM32H7xx_HAL_Driver/Src/stm32h7xx_hal_dma_ex.c ****     /* Set the new synchronization parameters (and keep the request ID filled during the Init)*/
 433:Drivers/STM32H7xx_HAL_Driver/Src/stm32h7xx_hal_dma_ex.c ****     MODIFY_REG( hdma->DMAmuxChannel->CCR, \
 434:Drivers/STM32H7xx_HAL_Driver/Src/stm32h7xx_hal_dma_ex.c ****                (~DMAMUX_CxCR_DMAREQ_ID) , \
 435:Drivers/STM32H7xx_HAL_Driver/Src/stm32h7xx_hal_dma_ex.c ****                (syncSignalID << DMAMUX_CxCR_SYNC_ID_Pos)       | \
 436:Drivers/STM32H7xx_HAL_Driver/Src/stm32h7xx_hal_dma_ex.c ****                ((pSyncConfig->RequestNumber - 1U) << DMAMUX_CxCR_NBREQ_Pos) | \
 437:Drivers/STM32H7xx_HAL_Driver/Src/stm32h7xx_hal_dma_ex.c ****                syncPolarity | ((uint32_t)pSyncConfig->SyncEnable << DMAMUX_CxCR_SE_Pos)    | \
 438:Drivers/STM32H7xx_HAL_Driver/Src/stm32h7xx_hal_dma_ex.c ****                ((uint32_t)pSyncConfig->EventEnable << DMAMUX_CxCR_EGE_Pos));
 439:Drivers/STM32H7xx_HAL_Driver/Src/stm32h7xx_hal_dma_ex.c **** 
 440:Drivers/STM32H7xx_HAL_Driver/Src/stm32h7xx_hal_dma_ex.c ****       /* Process Locked */
 441:Drivers/STM32H7xx_HAL_Driver/Src/stm32h7xx_hal_dma_ex.c ****     __HAL_UNLOCK(hdma);
 442:Drivers/STM32H7xx_HAL_Driver/Src/stm32h7xx_hal_dma_ex.c **** 
 443:Drivers/STM32H7xx_HAL_Driver/Src/stm32h7xx_hal_dma_ex.c ****     return HAL_OK;
 444:Drivers/STM32H7xx_HAL_Driver/Src/stm32h7xx_hal_dma_ex.c ****   }
 445:Drivers/STM32H7xx_HAL_Driver/Src/stm32h7xx_hal_dma_ex.c ****   else
 446:Drivers/STM32H7xx_HAL_Driver/Src/stm32h7xx_hal_dma_ex.c ****   {
 447:Drivers/STM32H7xx_HAL_Driver/Src/stm32h7xx_hal_dma_ex.c ****     /* Set the error code to busy */
 448:Drivers/STM32H7xx_HAL_Driver/Src/stm32h7xx_hal_dma_ex.c ****     hdma->ErrorCode = HAL_DMA_ERROR_BUSY;
 449:Drivers/STM32H7xx_HAL_Driver/Src/stm32h7xx_hal_dma_ex.c **** 
 450:Drivers/STM32H7xx_HAL_Driver/Src/stm32h7xx_hal_dma_ex.c ****     /* Return error status */
 451:Drivers/STM32H7xx_HAL_Driver/Src/stm32h7xx_hal_dma_ex.c ****     return HAL_ERROR;
 452:Drivers/STM32H7xx_HAL_Driver/Src/stm32h7xx_hal_dma_ex.c ****   }
 453:Drivers/STM32H7xx_HAL_Driver/Src/stm32h7xx_hal_dma_ex.c **** }
 454:Drivers/STM32H7xx_HAL_Driver/Src/stm32h7xx_hal_dma_ex.c **** 
 455:Drivers/STM32H7xx_HAL_Driver/Src/stm32h7xx_hal_dma_ex.c **** /**
 456:Drivers/STM32H7xx_HAL_Driver/Src/stm32h7xx_hal_dma_ex.c ****   * @brief  Configure the DMAMUX request generator block used by the given DMA stream (instance).
 457:Drivers/STM32H7xx_HAL_Driver/Src/stm32h7xx_hal_dma_ex.c ****   * @param  hdma:       pointer to a DMA_HandleTypeDef structure that contains
 458:Drivers/STM32H7xx_HAL_Driver/Src/stm32h7xx_hal_dma_ex.c ****   *                     the configuration information for the specified DMA Stream.
 459:Drivers/STM32H7xx_HAL_Driver/Src/stm32h7xx_hal_dma_ex.c ****   * @param  pRequestGeneratorConfig : pointer to HAL_DMA_MuxRequestGeneratorConfigTypeDef :
 460:Drivers/STM32H7xx_HAL_Driver/Src/stm32h7xx_hal_dma_ex.c ****   *         contains the request generator parameters.
 461:Drivers/STM32H7xx_HAL_Driver/Src/stm32h7xx_hal_dma_ex.c ****   *
 462:Drivers/STM32H7xx_HAL_Driver/Src/stm32h7xx_hal_dma_ex.c ****   * @retval HAL status
 463:Drivers/STM32H7xx_HAL_Driver/Src/stm32h7xx_hal_dma_ex.c ****   */
 464:Drivers/STM32H7xx_HAL_Driver/Src/stm32h7xx_hal_dma_ex.c **** HAL_StatusTypeDef HAL_DMAEx_ConfigMuxRequestGenerator (DMA_HandleTypeDef *hdma, HAL_DMA_MuxRequestG
 465:Drivers/STM32H7xx_HAL_Driver/Src/stm32h7xx_hal_dma_ex.c **** {
 466:Drivers/STM32H7xx_HAL_Driver/Src/stm32h7xx_hal_dma_ex.c ****   HAL_StatusTypeDef status;
 467:Drivers/STM32H7xx_HAL_Driver/Src/stm32h7xx_hal_dma_ex.c ****   HAL_DMA_StateTypeDef temp_state = hdma->State;
 468:Drivers/STM32H7xx_HAL_Driver/Src/stm32h7xx_hal_dma_ex.c **** 
 469:Drivers/STM32H7xx_HAL_Driver/Src/stm32h7xx_hal_dma_ex.c ****   /* Check the parameters */
 470:Drivers/STM32H7xx_HAL_Driver/Src/stm32h7xx_hal_dma_ex.c ****   assert_param(IS_DMA_DMAMUX_ALL_INSTANCE(hdma->Instance));
 471:Drivers/STM32H7xx_HAL_Driver/Src/stm32h7xx_hal_dma_ex.c **** 
 472:Drivers/STM32H7xx_HAL_Driver/Src/stm32h7xx_hal_dma_ex.c ****   if(IS_DMA_STREAM_INSTANCE(hdma->Instance) != 0U) /* DMA1 or DMA2 instance */
 473:Drivers/STM32H7xx_HAL_Driver/Src/stm32h7xx_hal_dma_ex.c ****   {
 474:Drivers/STM32H7xx_HAL_Driver/Src/stm32h7xx_hal_dma_ex.c ****     assert_param(IS_DMA_DMAMUX_REQUEST_GEN_SIGNAL_ID(pRequestGeneratorConfig->SignalID));
 475:Drivers/STM32H7xx_HAL_Driver/Src/stm32h7xx_hal_dma_ex.c ****   }
 476:Drivers/STM32H7xx_HAL_Driver/Src/stm32h7xx_hal_dma_ex.c ****   else
 477:Drivers/STM32H7xx_HAL_Driver/Src/stm32h7xx_hal_dma_ex.c ****   {
 478:Drivers/STM32H7xx_HAL_Driver/Src/stm32h7xx_hal_dma_ex.c ****     assert_param(IS_BDMA_DMAMUX_REQUEST_GEN_SIGNAL_ID(pRequestGeneratorConfig->SignalID));
 479:Drivers/STM32H7xx_HAL_Driver/Src/stm32h7xx_hal_dma_ex.c ****   }
 480:Drivers/STM32H7xx_HAL_Driver/Src/stm32h7xx_hal_dma_ex.c **** 
 481:Drivers/STM32H7xx_HAL_Driver/Src/stm32h7xx_hal_dma_ex.c **** 
 482:Drivers/STM32H7xx_HAL_Driver/Src/stm32h7xx_hal_dma_ex.c ****   assert_param(IS_DMAMUX_REQUEST_GEN_POLARITY(pRequestGeneratorConfig->Polarity));
 483:Drivers/STM32H7xx_HAL_Driver/Src/stm32h7xx_hal_dma_ex.c ****   assert_param(IS_DMAMUX_REQUEST_GEN_REQUEST_NUMBER(pRequestGeneratorConfig->RequestNumber));
 484:Drivers/STM32H7xx_HAL_Driver/Src/stm32h7xx_hal_dma_ex.c **** 
 485:Drivers/STM32H7xx_HAL_Driver/Src/stm32h7xx_hal_dma_ex.c ****   /* check if the DMA state is ready
 486:Drivers/STM32H7xx_HAL_Driver/Src/stm32h7xx_hal_dma_ex.c ****      and DMA is using a DMAMUX request generator block
 487:Drivers/STM32H7xx_HAL_Driver/Src/stm32h7xx_hal_dma_ex.c ****   */
ARM GAS  C:\Users\27655\AppData\Local\Temp\ccjI14Jp.s 			page 10


 488:Drivers/STM32H7xx_HAL_Driver/Src/stm32h7xx_hal_dma_ex.c ****   if(hdma->DMAmuxRequestGen == 0U)
 489:Drivers/STM32H7xx_HAL_Driver/Src/stm32h7xx_hal_dma_ex.c ****   {
 490:Drivers/STM32H7xx_HAL_Driver/Src/stm32h7xx_hal_dma_ex.c ****     /* Set the error code to busy */
 491:Drivers/STM32H7xx_HAL_Driver/Src/stm32h7xx_hal_dma_ex.c ****     hdma->ErrorCode = HAL_DMA_ERROR_PARAM;
 492:Drivers/STM32H7xx_HAL_Driver/Src/stm32h7xx_hal_dma_ex.c **** 
 493:Drivers/STM32H7xx_HAL_Driver/Src/stm32h7xx_hal_dma_ex.c ****     /* error status */
 494:Drivers/STM32H7xx_HAL_Driver/Src/stm32h7xx_hal_dma_ex.c ****     status = HAL_ERROR;
 495:Drivers/STM32H7xx_HAL_Driver/Src/stm32h7xx_hal_dma_ex.c ****   }
 496:Drivers/STM32H7xx_HAL_Driver/Src/stm32h7xx_hal_dma_ex.c ****   else if(((hdma->DMAmuxRequestGen->RGCR & DMAMUX_RGxCR_GE) == 0U) && (temp_state == HAL_DMA_STATE_
 497:Drivers/STM32H7xx_HAL_Driver/Src/stm32h7xx_hal_dma_ex.c ****   {
 498:Drivers/STM32H7xx_HAL_Driver/Src/stm32h7xx_hal_dma_ex.c ****     /* RequestGenerator must be disable prior to the configuration i.e GE bit is 0 */
 499:Drivers/STM32H7xx_HAL_Driver/Src/stm32h7xx_hal_dma_ex.c **** 
 500:Drivers/STM32H7xx_HAL_Driver/Src/stm32h7xx_hal_dma_ex.c ****     /* Process Locked */
 501:Drivers/STM32H7xx_HAL_Driver/Src/stm32h7xx_hal_dma_ex.c ****     __HAL_LOCK(hdma);
 502:Drivers/STM32H7xx_HAL_Driver/Src/stm32h7xx_hal_dma_ex.c **** 
 503:Drivers/STM32H7xx_HAL_Driver/Src/stm32h7xx_hal_dma_ex.c ****     /* Set the request generator new parameters */
 504:Drivers/STM32H7xx_HAL_Driver/Src/stm32h7xx_hal_dma_ex.c ****     hdma->DMAmuxRequestGen->RGCR = pRequestGeneratorConfig->SignalID | \
 505:Drivers/STM32H7xx_HAL_Driver/Src/stm32h7xx_hal_dma_ex.c ****                                   ((pRequestGeneratorConfig->RequestNumber - 1U) << DMAMUX_RGxCR_GN
 506:Drivers/STM32H7xx_HAL_Driver/Src/stm32h7xx_hal_dma_ex.c ****                                   pRequestGeneratorConfig->Polarity;
 507:Drivers/STM32H7xx_HAL_Driver/Src/stm32h7xx_hal_dma_ex.c ****     /* Process Locked */
 508:Drivers/STM32H7xx_HAL_Driver/Src/stm32h7xx_hal_dma_ex.c ****     __HAL_UNLOCK(hdma);
 509:Drivers/STM32H7xx_HAL_Driver/Src/stm32h7xx_hal_dma_ex.c **** 
 510:Drivers/STM32H7xx_HAL_Driver/Src/stm32h7xx_hal_dma_ex.c ****     return HAL_OK;
 511:Drivers/STM32H7xx_HAL_Driver/Src/stm32h7xx_hal_dma_ex.c ****   }
 512:Drivers/STM32H7xx_HAL_Driver/Src/stm32h7xx_hal_dma_ex.c ****   else
 513:Drivers/STM32H7xx_HAL_Driver/Src/stm32h7xx_hal_dma_ex.c ****   {
 514:Drivers/STM32H7xx_HAL_Driver/Src/stm32h7xx_hal_dma_ex.c ****     /* Set the error code to busy */
 515:Drivers/STM32H7xx_HAL_Driver/Src/stm32h7xx_hal_dma_ex.c ****     hdma->ErrorCode = HAL_DMA_ERROR_BUSY;
 516:Drivers/STM32H7xx_HAL_Driver/Src/stm32h7xx_hal_dma_ex.c **** 
 517:Drivers/STM32H7xx_HAL_Driver/Src/stm32h7xx_hal_dma_ex.c ****     /* error status */
 518:Drivers/STM32H7xx_HAL_Driver/Src/stm32h7xx_hal_dma_ex.c ****     status = HAL_ERROR;
 519:Drivers/STM32H7xx_HAL_Driver/Src/stm32h7xx_hal_dma_ex.c ****   }
 520:Drivers/STM32H7xx_HAL_Driver/Src/stm32h7xx_hal_dma_ex.c **** 
 521:Drivers/STM32H7xx_HAL_Driver/Src/stm32h7xx_hal_dma_ex.c ****   return status;
 522:Drivers/STM32H7xx_HAL_Driver/Src/stm32h7xx_hal_dma_ex.c **** }
 523:Drivers/STM32H7xx_HAL_Driver/Src/stm32h7xx_hal_dma_ex.c **** 
 524:Drivers/STM32H7xx_HAL_Driver/Src/stm32h7xx_hal_dma_ex.c **** /**
 525:Drivers/STM32H7xx_HAL_Driver/Src/stm32h7xx_hal_dma_ex.c ****   * @brief  Enable the DMAMUX request generator block used by the given DMA stream (instance).
 526:Drivers/STM32H7xx_HAL_Driver/Src/stm32h7xx_hal_dma_ex.c ****   * @param  hdma:       pointer to a DMA_HandleTypeDef structure that contains
 527:Drivers/STM32H7xx_HAL_Driver/Src/stm32h7xx_hal_dma_ex.c ****   *                     the configuration information for the specified DMA Stream.
 528:Drivers/STM32H7xx_HAL_Driver/Src/stm32h7xx_hal_dma_ex.c ****   * @retval HAL status
 529:Drivers/STM32H7xx_HAL_Driver/Src/stm32h7xx_hal_dma_ex.c ****   */
 530:Drivers/STM32H7xx_HAL_Driver/Src/stm32h7xx_hal_dma_ex.c **** HAL_StatusTypeDef HAL_DMAEx_EnableMuxRequestGenerator (DMA_HandleTypeDef *hdma)
 531:Drivers/STM32H7xx_HAL_Driver/Src/stm32h7xx_hal_dma_ex.c **** {
 532:Drivers/STM32H7xx_HAL_Driver/Src/stm32h7xx_hal_dma_ex.c ****   /* Check the parameters */
 533:Drivers/STM32H7xx_HAL_Driver/Src/stm32h7xx_hal_dma_ex.c ****   assert_param(IS_DMA_DMAMUX_ALL_INSTANCE(hdma->Instance));
 534:Drivers/STM32H7xx_HAL_Driver/Src/stm32h7xx_hal_dma_ex.c **** 
 535:Drivers/STM32H7xx_HAL_Driver/Src/stm32h7xx_hal_dma_ex.c ****   /* check if the DMA state is ready
 536:Drivers/STM32H7xx_HAL_Driver/Src/stm32h7xx_hal_dma_ex.c ****      and DMA is using a DMAMUX request generator block */
 537:Drivers/STM32H7xx_HAL_Driver/Src/stm32h7xx_hal_dma_ex.c ****   if((hdma->State != HAL_DMA_STATE_RESET) && (hdma->DMAmuxRequestGen != 0U))
 538:Drivers/STM32H7xx_HAL_Driver/Src/stm32h7xx_hal_dma_ex.c ****   {
 539:Drivers/STM32H7xx_HAL_Driver/Src/stm32h7xx_hal_dma_ex.c ****     /* Enable the request generator*/
 540:Drivers/STM32H7xx_HAL_Driver/Src/stm32h7xx_hal_dma_ex.c ****     hdma->DMAmuxRequestGen->RGCR |= DMAMUX_RGxCR_GE;
 541:Drivers/STM32H7xx_HAL_Driver/Src/stm32h7xx_hal_dma_ex.c **** 
 542:Drivers/STM32H7xx_HAL_Driver/Src/stm32h7xx_hal_dma_ex.c ****    return HAL_OK;
 543:Drivers/STM32H7xx_HAL_Driver/Src/stm32h7xx_hal_dma_ex.c ****  }
 544:Drivers/STM32H7xx_HAL_Driver/Src/stm32h7xx_hal_dma_ex.c ****  else
ARM GAS  C:\Users\27655\AppData\Local\Temp\ccjI14Jp.s 			page 11


 545:Drivers/STM32H7xx_HAL_Driver/Src/stm32h7xx_hal_dma_ex.c ****  {
 546:Drivers/STM32H7xx_HAL_Driver/Src/stm32h7xx_hal_dma_ex.c ****    return HAL_ERROR;
 547:Drivers/STM32H7xx_HAL_Driver/Src/stm32h7xx_hal_dma_ex.c ****  }
 548:Drivers/STM32H7xx_HAL_Driver/Src/stm32h7xx_hal_dma_ex.c **** }
 549:Drivers/STM32H7xx_HAL_Driver/Src/stm32h7xx_hal_dma_ex.c **** 
 550:Drivers/STM32H7xx_HAL_Driver/Src/stm32h7xx_hal_dma_ex.c **** /**
 551:Drivers/STM32H7xx_HAL_Driver/Src/stm32h7xx_hal_dma_ex.c ****   * @brief  Disable the DMAMUX request generator block used by the given DMA stream (instance).
 552:Drivers/STM32H7xx_HAL_Driver/Src/stm32h7xx_hal_dma_ex.c ****   * @param  hdma:       pointer to a DMA_HandleTypeDef structure that contains
 553:Drivers/STM32H7xx_HAL_Driver/Src/stm32h7xx_hal_dma_ex.c ****   *                     the configuration information for the specified DMA Stream.
 554:Drivers/STM32H7xx_HAL_Driver/Src/stm32h7xx_hal_dma_ex.c ****   * @retval HAL status
 555:Drivers/STM32H7xx_HAL_Driver/Src/stm32h7xx_hal_dma_ex.c ****   */
 556:Drivers/STM32H7xx_HAL_Driver/Src/stm32h7xx_hal_dma_ex.c **** HAL_StatusTypeDef HAL_DMAEx_DisableMuxRequestGenerator (DMA_HandleTypeDef *hdma)
 557:Drivers/STM32H7xx_HAL_Driver/Src/stm32h7xx_hal_dma_ex.c **** {
 558:Drivers/STM32H7xx_HAL_Driver/Src/stm32h7xx_hal_dma_ex.c ****   /* Check the parameters */
 559:Drivers/STM32H7xx_HAL_Driver/Src/stm32h7xx_hal_dma_ex.c ****   assert_param(IS_DMA_DMAMUX_ALL_INSTANCE(hdma->Instance));
 560:Drivers/STM32H7xx_HAL_Driver/Src/stm32h7xx_hal_dma_ex.c **** 
 561:Drivers/STM32H7xx_HAL_Driver/Src/stm32h7xx_hal_dma_ex.c ****   /* check if the DMA state is ready
 562:Drivers/STM32H7xx_HAL_Driver/Src/stm32h7xx_hal_dma_ex.c ****      and DMA is using a DMAMUX request generator block */
 563:Drivers/STM32H7xx_HAL_Driver/Src/stm32h7xx_hal_dma_ex.c ****   if((hdma->State != HAL_DMA_STATE_RESET) && (hdma->DMAmuxRequestGen != 0U))
 564:Drivers/STM32H7xx_HAL_Driver/Src/stm32h7xx_hal_dma_ex.c ****   {
 565:Drivers/STM32H7xx_HAL_Driver/Src/stm32h7xx_hal_dma_ex.c ****     /* Disable the request generator*/
 566:Drivers/STM32H7xx_HAL_Driver/Src/stm32h7xx_hal_dma_ex.c ****     hdma->DMAmuxRequestGen->RGCR &= ~DMAMUX_RGxCR_GE;
 567:Drivers/STM32H7xx_HAL_Driver/Src/stm32h7xx_hal_dma_ex.c **** 
 568:Drivers/STM32H7xx_HAL_Driver/Src/stm32h7xx_hal_dma_ex.c ****    return HAL_OK;
 569:Drivers/STM32H7xx_HAL_Driver/Src/stm32h7xx_hal_dma_ex.c ****  }
 570:Drivers/STM32H7xx_HAL_Driver/Src/stm32h7xx_hal_dma_ex.c ****  else
 571:Drivers/STM32H7xx_HAL_Driver/Src/stm32h7xx_hal_dma_ex.c ****  {
 572:Drivers/STM32H7xx_HAL_Driver/Src/stm32h7xx_hal_dma_ex.c ****    return HAL_ERROR;
 573:Drivers/STM32H7xx_HAL_Driver/Src/stm32h7xx_hal_dma_ex.c ****  }
 574:Drivers/STM32H7xx_HAL_Driver/Src/stm32h7xx_hal_dma_ex.c **** }
 575:Drivers/STM32H7xx_HAL_Driver/Src/stm32h7xx_hal_dma_ex.c **** 
 576:Drivers/STM32H7xx_HAL_Driver/Src/stm32h7xx_hal_dma_ex.c **** /**
 577:Drivers/STM32H7xx_HAL_Driver/Src/stm32h7xx_hal_dma_ex.c ****   * @brief  Handles DMAMUX interrupt request.
 578:Drivers/STM32H7xx_HAL_Driver/Src/stm32h7xx_hal_dma_ex.c ****   * @param  hdma: pointer to a DMA_HandleTypeDef structure that contains
 579:Drivers/STM32H7xx_HAL_Driver/Src/stm32h7xx_hal_dma_ex.c ****   *               the configuration information for the specified DMA Stream.
 580:Drivers/STM32H7xx_HAL_Driver/Src/stm32h7xx_hal_dma_ex.c ****   * @retval None
 581:Drivers/STM32H7xx_HAL_Driver/Src/stm32h7xx_hal_dma_ex.c ****   */
 582:Drivers/STM32H7xx_HAL_Driver/Src/stm32h7xx_hal_dma_ex.c **** void HAL_DMAEx_MUX_IRQHandler(DMA_HandleTypeDef *hdma)
 583:Drivers/STM32H7xx_HAL_Driver/Src/stm32h7xx_hal_dma_ex.c **** {
 584:Drivers/STM32H7xx_HAL_Driver/Src/stm32h7xx_hal_dma_ex.c ****   /* Check for DMAMUX Synchronization overrun */
 585:Drivers/STM32H7xx_HAL_Driver/Src/stm32h7xx_hal_dma_ex.c ****   if((hdma->DMAmuxChannelStatus->CSR & hdma->DMAmuxChannelStatusMask) != 0U)
 586:Drivers/STM32H7xx_HAL_Driver/Src/stm32h7xx_hal_dma_ex.c ****   {
 587:Drivers/STM32H7xx_HAL_Driver/Src/stm32h7xx_hal_dma_ex.c ****     /* Disable the synchro overrun interrupt */
 588:Drivers/STM32H7xx_HAL_Driver/Src/stm32h7xx_hal_dma_ex.c ****     hdma->DMAmuxChannel->CCR &= ~DMAMUX_CxCR_SOIE;
 589:Drivers/STM32H7xx_HAL_Driver/Src/stm32h7xx_hal_dma_ex.c **** 
 590:Drivers/STM32H7xx_HAL_Driver/Src/stm32h7xx_hal_dma_ex.c ****     /* Clear the DMAMUX synchro overrun flag */
 591:Drivers/STM32H7xx_HAL_Driver/Src/stm32h7xx_hal_dma_ex.c ****     hdma->DMAmuxChannelStatus->CFR = hdma->DMAmuxChannelStatusMask;
 592:Drivers/STM32H7xx_HAL_Driver/Src/stm32h7xx_hal_dma_ex.c **** 
 593:Drivers/STM32H7xx_HAL_Driver/Src/stm32h7xx_hal_dma_ex.c ****     /* Update error code */
 594:Drivers/STM32H7xx_HAL_Driver/Src/stm32h7xx_hal_dma_ex.c ****     hdma->ErrorCode |= HAL_DMA_ERROR_SYNC;
 595:Drivers/STM32H7xx_HAL_Driver/Src/stm32h7xx_hal_dma_ex.c **** 
 596:Drivers/STM32H7xx_HAL_Driver/Src/stm32h7xx_hal_dma_ex.c ****     if(hdma->XferErrorCallback != NULL)
 597:Drivers/STM32H7xx_HAL_Driver/Src/stm32h7xx_hal_dma_ex.c ****     {
 598:Drivers/STM32H7xx_HAL_Driver/Src/stm32h7xx_hal_dma_ex.c ****       /* Transfer error callback */
 599:Drivers/STM32H7xx_HAL_Driver/Src/stm32h7xx_hal_dma_ex.c ****       hdma->XferErrorCallback(hdma);
 600:Drivers/STM32H7xx_HAL_Driver/Src/stm32h7xx_hal_dma_ex.c ****     }
 601:Drivers/STM32H7xx_HAL_Driver/Src/stm32h7xx_hal_dma_ex.c ****   }
ARM GAS  C:\Users\27655\AppData\Local\Temp\ccjI14Jp.s 			page 12


 602:Drivers/STM32H7xx_HAL_Driver/Src/stm32h7xx_hal_dma_ex.c **** 
 603:Drivers/STM32H7xx_HAL_Driver/Src/stm32h7xx_hal_dma_ex.c ****   if(hdma->DMAmuxRequestGen != 0)
 604:Drivers/STM32H7xx_HAL_Driver/Src/stm32h7xx_hal_dma_ex.c ****   {
 605:Drivers/STM32H7xx_HAL_Driver/Src/stm32h7xx_hal_dma_ex.c ****    /* if using a DMAMUX request generator block Check for DMAMUX request generator overrun */
 606:Drivers/STM32H7xx_HAL_Driver/Src/stm32h7xx_hal_dma_ex.c ****     if((hdma->DMAmuxRequestGenStatus->RGSR & hdma->DMAmuxRequestGenStatusMask) != 0U)
 607:Drivers/STM32H7xx_HAL_Driver/Src/stm32h7xx_hal_dma_ex.c ****     {
 608:Drivers/STM32H7xx_HAL_Driver/Src/stm32h7xx_hal_dma_ex.c ****       /* Disable the request gen overrun interrupt */
 609:Drivers/STM32H7xx_HAL_Driver/Src/stm32h7xx_hal_dma_ex.c ****       hdma->DMAmuxRequestGen->RGCR &= ~DMAMUX_RGxCR_OIE;
 610:Drivers/STM32H7xx_HAL_Driver/Src/stm32h7xx_hal_dma_ex.c **** 
 611:Drivers/STM32H7xx_HAL_Driver/Src/stm32h7xx_hal_dma_ex.c ****       /* Clear the DMAMUX request generator overrun flag */
 612:Drivers/STM32H7xx_HAL_Driver/Src/stm32h7xx_hal_dma_ex.c ****       hdma->DMAmuxRequestGenStatus->RGCFR = hdma->DMAmuxRequestGenStatusMask;
 613:Drivers/STM32H7xx_HAL_Driver/Src/stm32h7xx_hal_dma_ex.c **** 
 614:Drivers/STM32H7xx_HAL_Driver/Src/stm32h7xx_hal_dma_ex.c ****       /* Update error code */
 615:Drivers/STM32H7xx_HAL_Driver/Src/stm32h7xx_hal_dma_ex.c ****       hdma->ErrorCode |= HAL_DMA_ERROR_REQGEN;
 616:Drivers/STM32H7xx_HAL_Driver/Src/stm32h7xx_hal_dma_ex.c **** 
 617:Drivers/STM32H7xx_HAL_Driver/Src/stm32h7xx_hal_dma_ex.c ****       if(hdma->XferErrorCallback != NULL)
 618:Drivers/STM32H7xx_HAL_Driver/Src/stm32h7xx_hal_dma_ex.c ****       {
 619:Drivers/STM32H7xx_HAL_Driver/Src/stm32h7xx_hal_dma_ex.c ****         /* Transfer error callback */
 620:Drivers/STM32H7xx_HAL_Driver/Src/stm32h7xx_hal_dma_ex.c ****         hdma->XferErrorCallback(hdma);
 621:Drivers/STM32H7xx_HAL_Driver/Src/stm32h7xx_hal_dma_ex.c ****       }
 622:Drivers/STM32H7xx_HAL_Driver/Src/stm32h7xx_hal_dma_ex.c ****     }
 623:Drivers/STM32H7xx_HAL_Driver/Src/stm32h7xx_hal_dma_ex.c ****   }
 624:Drivers/STM32H7xx_HAL_Driver/Src/stm32h7xx_hal_dma_ex.c **** }
 625:Drivers/STM32H7xx_HAL_Driver/Src/stm32h7xx_hal_dma_ex.c **** 
 626:Drivers/STM32H7xx_HAL_Driver/Src/stm32h7xx_hal_dma_ex.c **** 
 627:Drivers/STM32H7xx_HAL_Driver/Src/stm32h7xx_hal_dma_ex.c **** /**
 628:Drivers/STM32H7xx_HAL_Driver/Src/stm32h7xx_hal_dma_ex.c ****   * @}
 629:Drivers/STM32H7xx_HAL_Driver/Src/stm32h7xx_hal_dma_ex.c ****   */
 630:Drivers/STM32H7xx_HAL_Driver/Src/stm32h7xx_hal_dma_ex.c **** 
 631:Drivers/STM32H7xx_HAL_Driver/Src/stm32h7xx_hal_dma_ex.c **** /**
 632:Drivers/STM32H7xx_HAL_Driver/Src/stm32h7xx_hal_dma_ex.c ****   * @}
 633:Drivers/STM32H7xx_HAL_Driver/Src/stm32h7xx_hal_dma_ex.c ****   */
 634:Drivers/STM32H7xx_HAL_Driver/Src/stm32h7xx_hal_dma_ex.c **** 
 635:Drivers/STM32H7xx_HAL_Driver/Src/stm32h7xx_hal_dma_ex.c **** /** @addtogroup DMAEx_Private_Functions
 636:Drivers/STM32H7xx_HAL_Driver/Src/stm32h7xx_hal_dma_ex.c ****   * @{
 637:Drivers/STM32H7xx_HAL_Driver/Src/stm32h7xx_hal_dma_ex.c ****   */
 638:Drivers/STM32H7xx_HAL_Driver/Src/stm32h7xx_hal_dma_ex.c **** 
 639:Drivers/STM32H7xx_HAL_Driver/Src/stm32h7xx_hal_dma_ex.c **** /**
 640:Drivers/STM32H7xx_HAL_Driver/Src/stm32h7xx_hal_dma_ex.c ****   * @brief  Set the DMA Transfer parameter.
 641:Drivers/STM32H7xx_HAL_Driver/Src/stm32h7xx_hal_dma_ex.c ****   * @param  hdma:       pointer to a DMA_HandleTypeDef structure that contains
 642:Drivers/STM32H7xx_HAL_Driver/Src/stm32h7xx_hal_dma_ex.c ****   *                     the configuration information for the specified DMA Stream.
 643:Drivers/STM32H7xx_HAL_Driver/Src/stm32h7xx_hal_dma_ex.c ****   * @param  SrcAddress: The source memory Buffer address
 644:Drivers/STM32H7xx_HAL_Driver/Src/stm32h7xx_hal_dma_ex.c ****   * @param  DstAddress: The destination memory Buffer address
 645:Drivers/STM32H7xx_HAL_Driver/Src/stm32h7xx_hal_dma_ex.c ****   * @param  DataLength: The length of data to be transferred from source to destination
 646:Drivers/STM32H7xx_HAL_Driver/Src/stm32h7xx_hal_dma_ex.c ****   * @retval HAL status
 647:Drivers/STM32H7xx_HAL_Driver/Src/stm32h7xx_hal_dma_ex.c ****   */
 648:Drivers/STM32H7xx_HAL_Driver/Src/stm32h7xx_hal_dma_ex.c **** static void DMA_MultiBufferSetConfig(DMA_HandleTypeDef *hdma, uint32_t SrcAddress, uint32_t DstAddr
 649:Drivers/STM32H7xx_HAL_Driver/Src/stm32h7xx_hal_dma_ex.c **** {
  28              		.loc 1 649 1 view -0
  29              		.cfi_startproc
  30              		@ args = 0, pretend = 0, frame = 0
  31              		@ frame_needed = 0, uses_anonymous_args = 0
  32              		.loc 1 649 1 is_stmt 0 view .LVU1
  33 0000 10B5     		push	{r4, lr}
  34              	.LCFI0:
  35              		.cfi_def_cfa_offset 8
  36              		.cfi_offset 4, -8
ARM GAS  C:\Users\27655\AppData\Local\Temp\ccjI14Jp.s 			page 13


  37              		.cfi_offset 14, -4
  38 0002 0C46     		mov	r4, r1
  39 0004 9646     		mov	lr, r2
  40 0006 9C46     		mov	ip, r3
 650:Drivers/STM32H7xx_HAL_Driver/Src/stm32h7xx_hal_dma_ex.c ****   if(IS_DMA_STREAM_INSTANCE(hdma->Instance) != 0U) /* DMA1 or DMA2 instance */
  41              		.loc 1 650 3 is_stmt 1 view .LVU2
  42              		.loc 1 650 6 is_stmt 0 view .LVU3
  43 0008 0368     		ldr	r3, [r0]
  44              	.LVL1:
  45              		.loc 1 650 6 view .LVU4
  46 000a 2949     		ldr	r1, .L11
  47              	.LVL2:
  48              		.loc 1 650 6 view .LVU5
  49 000c 294A     		ldr	r2, .L11+4
  50              	.LVL3:
  51              		.loc 1 650 6 view .LVU6
  52 000e 9342     		cmp	r3, r2
  53 0010 18BF     		it	ne
  54 0012 8B42     		cmpne	r3, r1
  55 0014 35D0     		beq	.L2
  56              		.loc 1 650 6 discriminator 2 view .LVU7
  57 0016 1832     		adds	r2, r2, #24
  58 0018 9342     		cmp	r3, r2
  59 001a 32D0     		beq	.L2
  60              		.loc 1 650 6 discriminator 4 view .LVU8
  61 001c 1832     		adds	r2, r2, #24
  62 001e 9342     		cmp	r3, r2
  63 0020 2FD0     		beq	.L2
  64              		.loc 1 650 6 discriminator 6 view .LVU9
  65 0022 1832     		adds	r2, r2, #24
  66 0024 9342     		cmp	r3, r2
  67 0026 2CD0     		beq	.L2
  68              		.loc 1 650 6 discriminator 8 view .LVU10
  69 0028 1832     		adds	r2, r2, #24
  70 002a 9342     		cmp	r3, r2
  71 002c 29D0     		beq	.L2
  72              		.loc 1 650 6 discriminator 10 view .LVU11
  73 002e 1832     		adds	r2, r2, #24
  74 0030 9342     		cmp	r3, r2
  75 0032 26D0     		beq	.L2
  76              		.loc 1 650 6 discriminator 12 view .LVU12
  77 0034 1832     		adds	r2, r2, #24
  78 0036 9342     		cmp	r3, r2
  79 0038 23D0     		beq	.L2
  80              		.loc 1 650 6 discriminator 14 view .LVU13
  81 003a 02F55672 		add	r2, r2, #856
  82 003e 9342     		cmp	r3, r2
  83 0040 1FD0     		beq	.L2
  84              		.loc 1 650 6 discriminator 16 view .LVU14
  85 0042 1832     		adds	r2, r2, #24
  86 0044 9342     		cmp	r3, r2
  87 0046 1CD0     		beq	.L2
  88              		.loc 1 650 6 discriminator 18 view .LVU15
  89 0048 1832     		adds	r2, r2, #24
  90 004a 9342     		cmp	r3, r2
  91 004c 19D0     		beq	.L2
  92              		.loc 1 650 6 discriminator 20 view .LVU16
ARM GAS  C:\Users\27655\AppData\Local\Temp\ccjI14Jp.s 			page 14


  93 004e 1832     		adds	r2, r2, #24
  94 0050 9342     		cmp	r3, r2
  95 0052 16D0     		beq	.L2
  96              		.loc 1 650 6 discriminator 22 view .LVU17
  97 0054 1832     		adds	r2, r2, #24
  98 0056 9342     		cmp	r3, r2
  99 0058 13D0     		beq	.L2
 100              		.loc 1 650 6 discriminator 24 view .LVU18
 101 005a 1832     		adds	r2, r2, #24
 102 005c 9342     		cmp	r3, r2
 103 005e 10D0     		beq	.L2
 104              		.loc 1 650 6 discriminator 26 view .LVU19
 105 0060 1832     		adds	r2, r2, #24
 106 0062 9342     		cmp	r3, r2
 107 0064 0DD0     		beq	.L2
 108              		.loc 1 650 6 discriminator 28 view .LVU20
 109 0066 1832     		adds	r2, r2, #24
 110 0068 9342     		cmp	r3, r2
 111 006a 0AD0     		beq	.L2
 651:Drivers/STM32H7xx_HAL_Driver/Src/stm32h7xx_hal_dma_ex.c ****   {
 652:Drivers/STM32H7xx_HAL_Driver/Src/stm32h7xx_hal_dma_ex.c ****     /* Configure DMA Stream data length */
 653:Drivers/STM32H7xx_HAL_Driver/Src/stm32h7xx_hal_dma_ex.c ****     ((DMA_Stream_TypeDef   *)hdma->Instance)->NDTR = DataLength;
 654:Drivers/STM32H7xx_HAL_Driver/Src/stm32h7xx_hal_dma_ex.c **** 
 655:Drivers/STM32H7xx_HAL_Driver/Src/stm32h7xx_hal_dma_ex.c ****     /* Peripheral to Memory */
 656:Drivers/STM32H7xx_HAL_Driver/Src/stm32h7xx_hal_dma_ex.c ****     if((hdma->Init.Direction) == DMA_MEMORY_TO_PERIPH)
 657:Drivers/STM32H7xx_HAL_Driver/Src/stm32h7xx_hal_dma_ex.c ****     {
 658:Drivers/STM32H7xx_HAL_Driver/Src/stm32h7xx_hal_dma_ex.c ****       /* Configure DMA Stream destination address */
 659:Drivers/STM32H7xx_HAL_Driver/Src/stm32h7xx_hal_dma_ex.c ****       ((DMA_Stream_TypeDef   *)hdma->Instance)->PAR = DstAddress;
 660:Drivers/STM32H7xx_HAL_Driver/Src/stm32h7xx_hal_dma_ex.c **** 
 661:Drivers/STM32H7xx_HAL_Driver/Src/stm32h7xx_hal_dma_ex.c ****       /* Configure DMA Stream source address */
 662:Drivers/STM32H7xx_HAL_Driver/Src/stm32h7xx_hal_dma_ex.c ****       ((DMA_Stream_TypeDef   *)hdma->Instance)->M0AR = SrcAddress;
 663:Drivers/STM32H7xx_HAL_Driver/Src/stm32h7xx_hal_dma_ex.c ****     }
 664:Drivers/STM32H7xx_HAL_Driver/Src/stm32h7xx_hal_dma_ex.c ****     /* Memory to Peripheral */
 665:Drivers/STM32H7xx_HAL_Driver/Src/stm32h7xx_hal_dma_ex.c ****     else
 666:Drivers/STM32H7xx_HAL_Driver/Src/stm32h7xx_hal_dma_ex.c ****     {
 667:Drivers/STM32H7xx_HAL_Driver/Src/stm32h7xx_hal_dma_ex.c ****       /* Configure DMA Stream source address */
 668:Drivers/STM32H7xx_HAL_Driver/Src/stm32h7xx_hal_dma_ex.c ****       ((DMA_Stream_TypeDef   *)hdma->Instance)->PAR = SrcAddress;
 669:Drivers/STM32H7xx_HAL_Driver/Src/stm32h7xx_hal_dma_ex.c **** 
 670:Drivers/STM32H7xx_HAL_Driver/Src/stm32h7xx_hal_dma_ex.c ****       /* Configure DMA Stream destination address */
 671:Drivers/STM32H7xx_HAL_Driver/Src/stm32h7xx_hal_dma_ex.c ****       ((DMA_Stream_TypeDef   *)hdma->Instance)->M0AR = DstAddress;
 672:Drivers/STM32H7xx_HAL_Driver/Src/stm32h7xx_hal_dma_ex.c ****     }
 673:Drivers/STM32H7xx_HAL_Driver/Src/stm32h7xx_hal_dma_ex.c ****   }
 674:Drivers/STM32H7xx_HAL_Driver/Src/stm32h7xx_hal_dma_ex.c ****   else /* BDMA instance(s) */
 675:Drivers/STM32H7xx_HAL_Driver/Src/stm32h7xx_hal_dma_ex.c ****   {
 676:Drivers/STM32H7xx_HAL_Driver/Src/stm32h7xx_hal_dma_ex.c ****     /* Configure DMA Stream data length */
 677:Drivers/STM32H7xx_HAL_Driver/Src/stm32h7xx_hal_dma_ex.c ****     ((BDMA_Channel_TypeDef   *)hdma->Instance)->CNDTR = DataLength;
 112              		.loc 1 677 5 is_stmt 1 view .LVU21
 113              		.loc 1 677 55 is_stmt 0 view .LVU22
 114 006c C3F804C0 		str	ip, [r3, #4]
 678:Drivers/STM32H7xx_HAL_Driver/Src/stm32h7xx_hal_dma_ex.c **** 
 679:Drivers/STM32H7xx_HAL_Driver/Src/stm32h7xx_hal_dma_ex.c ****     /* Peripheral to Memory */
 680:Drivers/STM32H7xx_HAL_Driver/Src/stm32h7xx_hal_dma_ex.c ****     if((hdma->Init.Direction) == DMA_MEMORY_TO_PERIPH)
 115              		.loc 1 680 5 is_stmt 1 view .LVU23
 116              		.loc 1 680 19 is_stmt 0 view .LVU24
 117 0070 8368     		ldr	r3, [r0, #8]
 118              		.loc 1 680 7 view .LVU25
 119 0072 402B     		cmp	r3, #64
ARM GAS  C:\Users\27655\AppData\Local\Temp\ccjI14Jp.s 			page 15


 120 0074 16D0     		beq	.L9
 681:Drivers/STM32H7xx_HAL_Driver/Src/stm32h7xx_hal_dma_ex.c ****     {
 682:Drivers/STM32H7xx_HAL_Driver/Src/stm32h7xx_hal_dma_ex.c ****       /* Configure DMA Stream destination address */
 683:Drivers/STM32H7xx_HAL_Driver/Src/stm32h7xx_hal_dma_ex.c ****       ((BDMA_Channel_TypeDef   *)hdma->Instance)->CPAR = DstAddress;
 684:Drivers/STM32H7xx_HAL_Driver/Src/stm32h7xx_hal_dma_ex.c **** 
 685:Drivers/STM32H7xx_HAL_Driver/Src/stm32h7xx_hal_dma_ex.c ****       /* Configure DMA Stream source address */
 686:Drivers/STM32H7xx_HAL_Driver/Src/stm32h7xx_hal_dma_ex.c ****       ((BDMA_Channel_TypeDef   *)hdma->Instance)->CM0AR = SrcAddress;
 687:Drivers/STM32H7xx_HAL_Driver/Src/stm32h7xx_hal_dma_ex.c ****     }
 688:Drivers/STM32H7xx_HAL_Driver/Src/stm32h7xx_hal_dma_ex.c ****     /* Memory to Peripheral */
 689:Drivers/STM32H7xx_HAL_Driver/Src/stm32h7xx_hal_dma_ex.c ****     else
 690:Drivers/STM32H7xx_HAL_Driver/Src/stm32h7xx_hal_dma_ex.c ****     {
 691:Drivers/STM32H7xx_HAL_Driver/Src/stm32h7xx_hal_dma_ex.c ****       /* Configure DMA Stream source address */
 692:Drivers/STM32H7xx_HAL_Driver/Src/stm32h7xx_hal_dma_ex.c ****       ((BDMA_Channel_TypeDef   *)hdma->Instance)->CPAR = SrcAddress;
 121              		.loc 1 692 7 is_stmt 1 view .LVU26
 122              		.loc 1 692 38 is_stmt 0 view .LVU27
 123 0076 0368     		ldr	r3, [r0]
 124              		.loc 1 692 56 view .LVU28
 125 0078 9C60     		str	r4, [r3, #8]
 693:Drivers/STM32H7xx_HAL_Driver/Src/stm32h7xx_hal_dma_ex.c **** 
 694:Drivers/STM32H7xx_HAL_Driver/Src/stm32h7xx_hal_dma_ex.c ****       /* Configure DMA Stream destination address */
 695:Drivers/STM32H7xx_HAL_Driver/Src/stm32h7xx_hal_dma_ex.c ****       ((BDMA_Channel_TypeDef   *)hdma->Instance)->CM0AR = DstAddress;
 126              		.loc 1 695 7 is_stmt 1 view .LVU29
 127              		.loc 1 695 38 is_stmt 0 view .LVU30
 128 007a 0368     		ldr	r3, [r0]
 129              		.loc 1 695 57 view .LVU31
 130 007c C3F80CE0 		str	lr, [r3, #12]
 696:Drivers/STM32H7xx_HAL_Driver/Src/stm32h7xx_hal_dma_ex.c ****     }
 697:Drivers/STM32H7xx_HAL_Driver/Src/stm32h7xx_hal_dma_ex.c ****   }
 698:Drivers/STM32H7xx_HAL_Driver/Src/stm32h7xx_hal_dma_ex.c **** }
 131              		.loc 1 698 1 view .LVU32
 132 0080 09E0     		b	.L1
 133              	.L2:
 653:Drivers/STM32H7xx_HAL_Driver/Src/stm32h7xx_hal_dma_ex.c **** 
 134              		.loc 1 653 5 is_stmt 1 view .LVU33
 653:Drivers/STM32H7xx_HAL_Driver/Src/stm32h7xx_hal_dma_ex.c **** 
 135              		.loc 1 653 52 is_stmt 0 view .LVU34
 136 0082 C3F804C0 		str	ip, [r3, #4]
 656:Drivers/STM32H7xx_HAL_Driver/Src/stm32h7xx_hal_dma_ex.c ****     {
 137              		.loc 1 656 5 is_stmt 1 view .LVU35
 656:Drivers/STM32H7xx_HAL_Driver/Src/stm32h7xx_hal_dma_ex.c ****     {
 138              		.loc 1 656 19 is_stmt 0 view .LVU36
 139 0086 8368     		ldr	r3, [r0, #8]
 656:Drivers/STM32H7xx_HAL_Driver/Src/stm32h7xx_hal_dma_ex.c ****     {
 140              		.loc 1 656 7 view .LVU37
 141 0088 402B     		cmp	r3, #64
 142 008a 05D0     		beq	.L10
 668:Drivers/STM32H7xx_HAL_Driver/Src/stm32h7xx_hal_dma_ex.c **** 
 143              		.loc 1 668 7 is_stmt 1 view .LVU38
 668:Drivers/STM32H7xx_HAL_Driver/Src/stm32h7xx_hal_dma_ex.c **** 
 144              		.loc 1 668 36 is_stmt 0 view .LVU39
 145 008c 0368     		ldr	r3, [r0]
 668:Drivers/STM32H7xx_HAL_Driver/Src/stm32h7xx_hal_dma_ex.c **** 
 146              		.loc 1 668 53 view .LVU40
 147 008e 9C60     		str	r4, [r3, #8]
 671:Drivers/STM32H7xx_HAL_Driver/Src/stm32h7xx_hal_dma_ex.c ****     }
 148              		.loc 1 671 7 is_stmt 1 view .LVU41
 671:Drivers/STM32H7xx_HAL_Driver/Src/stm32h7xx_hal_dma_ex.c ****     }
ARM GAS  C:\Users\27655\AppData\Local\Temp\ccjI14Jp.s 			page 16


 149              		.loc 1 671 36 is_stmt 0 view .LVU42
 150 0090 0368     		ldr	r3, [r0]
 671:Drivers/STM32H7xx_HAL_Driver/Src/stm32h7xx_hal_dma_ex.c ****     }
 151              		.loc 1 671 54 view .LVU43
 152 0092 C3F80CE0 		str	lr, [r3, #12]
 153              	.L1:
 154              		.loc 1 698 1 view .LVU44
 155 0096 10BD     		pop	{r4, pc}
 156              	.LVL4:
 157              	.L10:
 659:Drivers/STM32H7xx_HAL_Driver/Src/stm32h7xx_hal_dma_ex.c **** 
 158              		.loc 1 659 7 is_stmt 1 view .LVU45
 659:Drivers/STM32H7xx_HAL_Driver/Src/stm32h7xx_hal_dma_ex.c **** 
 159              		.loc 1 659 36 is_stmt 0 view .LVU46
 160 0098 0368     		ldr	r3, [r0]
 659:Drivers/STM32H7xx_HAL_Driver/Src/stm32h7xx_hal_dma_ex.c **** 
 161              		.loc 1 659 53 view .LVU47
 162 009a C3F808E0 		str	lr, [r3, #8]
 662:Drivers/STM32H7xx_HAL_Driver/Src/stm32h7xx_hal_dma_ex.c ****     }
 163              		.loc 1 662 7 is_stmt 1 view .LVU48
 662:Drivers/STM32H7xx_HAL_Driver/Src/stm32h7xx_hal_dma_ex.c ****     }
 164              		.loc 1 662 36 is_stmt 0 view .LVU49
 165 009e 0368     		ldr	r3, [r0]
 662:Drivers/STM32H7xx_HAL_Driver/Src/stm32h7xx_hal_dma_ex.c ****     }
 166              		.loc 1 662 54 view .LVU50
 167 00a0 DC60     		str	r4, [r3, #12]
 168 00a2 F8E7     		b	.L1
 169              	.L9:
 683:Drivers/STM32H7xx_HAL_Driver/Src/stm32h7xx_hal_dma_ex.c **** 
 170              		.loc 1 683 7 is_stmt 1 view .LVU51
 683:Drivers/STM32H7xx_HAL_Driver/Src/stm32h7xx_hal_dma_ex.c **** 
 171              		.loc 1 683 38 is_stmt 0 view .LVU52
 172 00a4 0368     		ldr	r3, [r0]
 683:Drivers/STM32H7xx_HAL_Driver/Src/stm32h7xx_hal_dma_ex.c **** 
 173              		.loc 1 683 56 view .LVU53
 174 00a6 C3F808E0 		str	lr, [r3, #8]
 686:Drivers/STM32H7xx_HAL_Driver/Src/stm32h7xx_hal_dma_ex.c ****     }
 175              		.loc 1 686 7 is_stmt 1 view .LVU54
 686:Drivers/STM32H7xx_HAL_Driver/Src/stm32h7xx_hal_dma_ex.c ****     }
 176              		.loc 1 686 38 is_stmt 0 view .LVU55
 177 00aa 0368     		ldr	r3, [r0]
 686:Drivers/STM32H7xx_HAL_Driver/Src/stm32h7xx_hal_dma_ex.c ****     }
 178              		.loc 1 686 57 view .LVU56
 179 00ac DC60     		str	r4, [r3, #12]
 180 00ae F2E7     		b	.L1
 181              	.L12:
 182              		.align	2
 183              	.L11:
 184 00b0 10000240 		.word	1073872912
 185 00b4 28000240 		.word	1073872936
 186              		.cfi_endproc
 187              	.LFE154:
 189              		.section	.text.HAL_DMAEx_MultiBufferStart,"ax",%progbits
 190              		.align	1
 191              		.global	HAL_DMAEx_MultiBufferStart
 192              		.syntax unified
 193              		.thumb
ARM GAS  C:\Users\27655\AppData\Local\Temp\ccjI14Jp.s 			page 17


 194              		.thumb_func
 196              	HAL_DMAEx_MultiBufferStart:
 197              	.LVL5:
 198              	.LFB146:
 121:Drivers/STM32H7xx_HAL_Driver/Src/stm32h7xx_hal_dma_ex.c ****   HAL_StatusTypeDef status = HAL_OK;
 199              		.loc 1 121 1 is_stmt 1 view -0
 200              		.cfi_startproc
 201              		@ args = 4, pretend = 0, frame = 0
 202              		@ frame_needed = 0, uses_anonymous_args = 0
 121:Drivers/STM32H7xx_HAL_Driver/Src/stm32h7xx_hal_dma_ex.c ****   HAL_StatusTypeDef status = HAL_OK;
 203              		.loc 1 121 1 is_stmt 0 view .LVU58
 204 0000 10B5     		push	{r4, lr}
 205              	.LCFI1:
 206              		.cfi_def_cfa_offset 8
 207              		.cfi_offset 4, -8
 208              		.cfi_offset 14, -4
 209 0002 0446     		mov	r4, r0
 122:Drivers/STM32H7xx_HAL_Driver/Src/stm32h7xx_hal_dma_ex.c ****   __IO uint32_t *ifcRegister_Base; /* DMA Stream Interrupt Clear register */
 210              		.loc 1 122 3 is_stmt 1 view .LVU59
 211              	.LVL6:
 123:Drivers/STM32H7xx_HAL_Driver/Src/stm32h7xx_hal_dma_ex.c **** 
 212              		.loc 1 123 3 view .LVU60
 126:Drivers/STM32H7xx_HAL_Driver/Src/stm32h7xx_hal_dma_ex.c ****   assert_param(IS_DMA_ALL_INSTANCE(hdma->Instance));
 213              		.loc 1 126 3 view .LVU61
 127:Drivers/STM32H7xx_HAL_Driver/Src/stm32h7xx_hal_dma_ex.c **** 
 214              		.loc 1 127 3 view .LVU62
 130:Drivers/STM32H7xx_HAL_Driver/Src/stm32h7xx_hal_dma_ex.c ****   {
 215              		.loc 1 130 3 view .LVU63
 130:Drivers/STM32H7xx_HAL_Driver/Src/stm32h7xx_hal_dma_ex.c ****   {
 216              		.loc 1 130 17 is_stmt 0 view .LVU64
 217 0004 8068     		ldr	r0, [r0, #8]
 218              	.LVL7:
 130:Drivers/STM32H7xx_HAL_Driver/Src/stm32h7xx_hal_dma_ex.c ****   {
 219              		.loc 1 130 6 view .LVU65
 220 0006 8028     		cmp	r0, #128
 221 0008 10D0     		beq	.L25
 138:Drivers/STM32H7xx_HAL_Driver/Src/stm32h7xx_hal_dma_ex.c **** 
 222              		.loc 1 138 5 is_stmt 1 view .LVU66
 138:Drivers/STM32H7xx_HAL_Driver/Src/stm32h7xx_hal_dma_ex.c **** 
 223              		.loc 1 138 5 view .LVU67
 224 000a 94F83400 		ldrb	r0, [r4, #52]	@ zero_extendqisi2
 225 000e 0128     		cmp	r0, #1
 226 0010 00F00D81 		beq	.L23
 138:Drivers/STM32H7xx_HAL_Driver/Src/stm32h7xx_hal_dma_ex.c **** 
 227              		.loc 1 138 5 discriminator 2 view .LVU68
 228 0014 0120     		movs	r0, #1
 229 0016 84F83400 		strb	r0, [r4, #52]
 138:Drivers/STM32H7xx_HAL_Driver/Src/stm32h7xx_hal_dma_ex.c **** 
 230              		.loc 1 138 5 view .LVU69
 140:Drivers/STM32H7xx_HAL_Driver/Src/stm32h7xx_hal_dma_ex.c ****     {
 231              		.loc 1 140 5 view .LVU70
 140:Drivers/STM32H7xx_HAL_Driver/Src/stm32h7xx_hal_dma_ex.c ****     {
 232              		.loc 1 140 35 is_stmt 0 view .LVU71
 233 001a 94F83500 		ldrb	r0, [r4, #53]	@ zero_extendqisi2
 140:Drivers/STM32H7xx_HAL_Driver/Src/stm32h7xx_hal_dma_ex.c ****     {
 234              		.loc 1 140 7 view .LVU72
 235 001e 0128     		cmp	r0, #1
ARM GAS  C:\Users\27655\AppData\Local\Temp\ccjI14Jp.s 			page 18


 236 0020 09D0     		beq	.L26
 198:Drivers/STM32H7xx_HAL_Driver/Src/stm32h7xx_hal_dma_ex.c **** 
 237              		.loc 1 198 7 is_stmt 1 view .LVU73
 198:Drivers/STM32H7xx_HAL_Driver/Src/stm32h7xx_hal_dma_ex.c **** 
 238              		.loc 1 198 23 is_stmt 0 view .LVU74
 239 0022 4FF40063 		mov	r3, #2048
 240              	.LVL8:
 198:Drivers/STM32H7xx_HAL_Driver/Src/stm32h7xx_hal_dma_ex.c **** 
 241              		.loc 1 198 23 view .LVU75
 242 0026 6365     		str	r3, [r4, #84]
 201:Drivers/STM32H7xx_HAL_Driver/Src/stm32h7xx_hal_dma_ex.c ****     }
 243              		.loc 1 201 7 is_stmt 1 view .LVU76
 244              	.LVL9:
 201:Drivers/STM32H7xx_HAL_Driver/Src/stm32h7xx_hal_dma_ex.c ****     }
 245              		.loc 1 201 14 is_stmt 0 view .LVU77
 246 0028 0120     		movs	r0, #1
 247              	.LVL10:
 248              	.L15:
 205:Drivers/STM32H7xx_HAL_Driver/Src/stm32h7xx_hal_dma_ex.c **** 
 249              		.loc 1 205 1 view .LVU78
 250 002a 10BD     		pop	{r4, pc}
 251              	.LVL11:
 252              	.L25:
 132:Drivers/STM32H7xx_HAL_Driver/Src/stm32h7xx_hal_dma_ex.c ****     status = HAL_ERROR;
 253              		.loc 1 132 5 is_stmt 1 view .LVU79
 132:Drivers/STM32H7xx_HAL_Driver/Src/stm32h7xx_hal_dma_ex.c ****     status = HAL_ERROR;
 254              		.loc 1 132 21 is_stmt 0 view .LVU80
 255 002c 4FF48073 		mov	r3, #256
 256              	.LVL12:
 132:Drivers/STM32H7xx_HAL_Driver/Src/stm32h7xx_hal_dma_ex.c ****     status = HAL_ERROR;
 257              		.loc 1 132 21 view .LVU81
 258 0030 6365     		str	r3, [r4, #84]
 133:Drivers/STM32H7xx_HAL_Driver/Src/stm32h7xx_hal_dma_ex.c ****   }
 259              		.loc 1 133 5 is_stmt 1 view .LVU82
 260              	.LVL13:
 133:Drivers/STM32H7xx_HAL_Driver/Src/stm32h7xx_hal_dma_ex.c ****   }
 261              		.loc 1 133 12 is_stmt 0 view .LVU83
 262 0032 0120     		movs	r0, #1
 263 0034 F9E7     		b	.L15
 264              	.LVL14:
 265              	.L26:
 143:Drivers/STM32H7xx_HAL_Driver/Src/stm32h7xx_hal_dma_ex.c **** 
 266              		.loc 1 143 7 is_stmt 1 view .LVU84
 143:Drivers/STM32H7xx_HAL_Driver/Src/stm32h7xx_hal_dma_ex.c **** 
 267              		.loc 1 143 19 is_stmt 0 view .LVU85
 268 0036 0220     		movs	r0, #2
 269 0038 84F83500 		strb	r0, [r4, #53]
 146:Drivers/STM32H7xx_HAL_Driver/Src/stm32h7xx_hal_dma_ex.c **** 
 270              		.loc 1 146 7 is_stmt 1 view .LVU86
 146:Drivers/STM32H7xx_HAL_Driver/Src/stm32h7xx_hal_dma_ex.c **** 
 271              		.loc 1 146 23 is_stmt 0 view .LVU87
 272 003c 0020     		movs	r0, #0
 273 003e 6065     		str	r0, [r4, #84]
 148:Drivers/STM32H7xx_HAL_Driver/Src/stm32h7xx_hal_dma_ex.c ****       {
 274              		.loc 1 148 7 is_stmt 1 view .LVU88
 148:Drivers/STM32H7xx_HAL_Driver/Src/stm32h7xx_hal_dma_ex.c ****       {
 275              		.loc 1 148 10 is_stmt 0 view .LVU89
ARM GAS  C:\Users\27655\AppData\Local\Temp\ccjI14Jp.s 			page 19


 276 0040 2068     		ldr	r0, [r4]
 277 0042 DFF8F8E1 		ldr	lr, .L27+8
 278 0046 DFF8ECC1 		ldr	ip, .L27
 279 004a 6045     		cmp	r0, ip
 280 004c 18BF     		it	ne
 281 004e 7045     		cmpne	r0, lr
 282 0050 49D0     		beq	.L17
 148:Drivers/STM32H7xx_HAL_Driver/Src/stm32h7xx_hal_dma_ex.c ****       {
 283              		.loc 1 148 10 discriminator 2 view .LVU90
 284 0052 0CF1180C 		add	ip, ip, #24
 285 0056 6045     		cmp	r0, ip
 286 0058 45D0     		beq	.L17
 148:Drivers/STM32H7xx_HAL_Driver/Src/stm32h7xx_hal_dma_ex.c ****       {
 287              		.loc 1 148 10 discriminator 4 view .LVU91
 288 005a 0CF1180C 		add	ip, ip, #24
 289 005e 6045     		cmp	r0, ip
 290 0060 41D0     		beq	.L17
 148:Drivers/STM32H7xx_HAL_Driver/Src/stm32h7xx_hal_dma_ex.c ****       {
 291              		.loc 1 148 10 discriminator 6 view .LVU92
 292 0062 0CF1180C 		add	ip, ip, #24
 293 0066 6045     		cmp	r0, ip
 294 0068 3DD0     		beq	.L17
 148:Drivers/STM32H7xx_HAL_Driver/Src/stm32h7xx_hal_dma_ex.c ****       {
 295              		.loc 1 148 10 discriminator 8 view .LVU93
 296 006a 0CF1180C 		add	ip, ip, #24
 297 006e 6045     		cmp	r0, ip
 298 0070 39D0     		beq	.L17
 148:Drivers/STM32H7xx_HAL_Driver/Src/stm32h7xx_hal_dma_ex.c ****       {
 299              		.loc 1 148 10 discriminator 10 view .LVU94
 300 0072 0CF1180C 		add	ip, ip, #24
 301 0076 6045     		cmp	r0, ip
 302 0078 35D0     		beq	.L17
 148:Drivers/STM32H7xx_HAL_Driver/Src/stm32h7xx_hal_dma_ex.c ****       {
 303              		.loc 1 148 10 discriminator 12 view .LVU95
 304 007a 0CF1180C 		add	ip, ip, #24
 305 007e 6045     		cmp	r0, ip
 306 0080 31D0     		beq	.L17
 148:Drivers/STM32H7xx_HAL_Driver/Src/stm32h7xx_hal_dma_ex.c ****       {
 307              		.loc 1 148 10 discriminator 14 view .LVU96
 308 0082 0CF5567C 		add	ip, ip, #856
 309 0086 6045     		cmp	r0, ip
 310 0088 2DD0     		beq	.L17
 148:Drivers/STM32H7xx_HAL_Driver/Src/stm32h7xx_hal_dma_ex.c ****       {
 311              		.loc 1 148 10 discriminator 16 view .LVU97
 312 008a 0CF1180C 		add	ip, ip, #24
 313 008e 6045     		cmp	r0, ip
 314 0090 29D0     		beq	.L17
 148:Drivers/STM32H7xx_HAL_Driver/Src/stm32h7xx_hal_dma_ex.c ****       {
 315              		.loc 1 148 10 discriminator 18 view .LVU98
 316 0092 0CF1180C 		add	ip, ip, #24
 317 0096 6045     		cmp	r0, ip
 318 0098 25D0     		beq	.L17
 148:Drivers/STM32H7xx_HAL_Driver/Src/stm32h7xx_hal_dma_ex.c ****       {
 319              		.loc 1 148 10 discriminator 20 view .LVU99
 320 009a 0CF1180C 		add	ip, ip, #24
 321 009e 6045     		cmp	r0, ip
 322 00a0 21D0     		beq	.L17
ARM GAS  C:\Users\27655\AppData\Local\Temp\ccjI14Jp.s 			page 20


 148:Drivers/STM32H7xx_HAL_Driver/Src/stm32h7xx_hal_dma_ex.c ****       {
 323              		.loc 1 148 10 discriminator 22 view .LVU100
 324 00a2 0CF1180C 		add	ip, ip, #24
 325 00a6 6045     		cmp	r0, ip
 326 00a8 1DD0     		beq	.L17
 148:Drivers/STM32H7xx_HAL_Driver/Src/stm32h7xx_hal_dma_ex.c ****       {
 327              		.loc 1 148 10 discriminator 24 view .LVU101
 328 00aa 0CF1180C 		add	ip, ip, #24
 329 00ae 6045     		cmp	r0, ip
 330 00b0 19D0     		beq	.L17
 148:Drivers/STM32H7xx_HAL_Driver/Src/stm32h7xx_hal_dma_ex.c ****       {
 331              		.loc 1 148 10 discriminator 26 view .LVU102
 332 00b2 0CF1180C 		add	ip, ip, #24
 333 00b6 6045     		cmp	r0, ip
 334 00b8 15D0     		beq	.L17
 148:Drivers/STM32H7xx_HAL_Driver/Src/stm32h7xx_hal_dma_ex.c ****       {
 335              		.loc 1 148 10 discriminator 28 view .LVU103
 336 00ba 0CF1180C 		add	ip, ip, #24
 337 00be 6045     		cmp	r0, ip
 338 00c0 11D0     		beq	.L17
 165:Drivers/STM32H7xx_HAL_Driver/Src/stm32h7xx_hal_dma_ex.c **** 
 339              		.loc 1 165 9 is_stmt 1 view .LVU104
 165:Drivers/STM32H7xx_HAL_Driver/Src/stm32h7xx_hal_dma_ex.c **** 
 340              		.loc 1 165 51 is_stmt 0 view .LVU105
 341 00c2 D0F800E0 		ldr	lr, [r0]
 165:Drivers/STM32H7xx_HAL_Driver/Src/stm32h7xx_hal_dma_ex.c **** 
 342              		.loc 1 165 57 view .LVU106
 343 00c6 48F2200C 		movw	ip, #32800
 344 00ca 4EEA0C0C 		orr	ip, lr, ip
 345 00ce C0F800C0 		str	ip, [r0]
 168:Drivers/STM32H7xx_HAL_Driver/Src/stm32h7xx_hal_dma_ex.c **** 
 346              		.loc 1 168 9 is_stmt 1 view .LVU107
 168:Drivers/STM32H7xx_HAL_Driver/Src/stm32h7xx_hal_dma_ex.c **** 
 347              		.loc 1 168 40 is_stmt 0 view .LVU108
 348 00d2 2068     		ldr	r0, [r4]
 168:Drivers/STM32H7xx_HAL_Driver/Src/stm32h7xx_hal_dma_ex.c **** 
 349              		.loc 1 168 59 view .LVU109
 350 00d4 0361     		str	r3, [r0, #16]
 171:Drivers/STM32H7xx_HAL_Driver/Src/stm32h7xx_hal_dma_ex.c **** 
 351              		.loc 1 171 9 is_stmt 1 view .LVU110
 352              	.LVL15:
 174:Drivers/STM32H7xx_HAL_Driver/Src/stm32h7xx_hal_dma_ex.c ****       }
 353              		.loc 1 174 9 view .LVU111
 174:Drivers/STM32H7xx_HAL_Driver/Src/stm32h7xx_hal_dma_ex.c ****       }
 354              		.loc 1 174 53 is_stmt 0 view .LVU112
 355 00d6 E36D     		ldr	r3, [r4, #92]
 356              	.LVL16:
 174:Drivers/STM32H7xx_HAL_Driver/Src/stm32h7xx_hal_dma_ex.c ****       }
 357              		.loc 1 174 67 view .LVU113
 358 00d8 03F01F00 		and	r0, r3, #31
 359              	.LVL17:
 174:Drivers/STM32H7xx_HAL_Driver/Src/stm32h7xx_hal_dma_ex.c ****       }
 360              		.loc 1 174 45 view .LVU114
 361 00dc 0123     		movs	r3, #1
 362 00de 8340     		lsls	r3, r3, r0
 174:Drivers/STM32H7xx_HAL_Driver/Src/stm32h7xx_hal_dma_ex.c ****       }
 363              		.loc 1 174 27 view .LVU115
ARM GAS  C:\Users\27655\AppData\Local\Temp\ccjI14Jp.s 			page 21


 364 00e0 A06D     		ldr	r0, [r4, #88]
 365 00e2 4360     		str	r3, [r0, #4]
 366              	.LVL18:
 174:Drivers/STM32H7xx_HAL_Driver/Src/stm32h7xx_hal_dma_ex.c ****       }
 367              		.loc 1 174 27 view .LVU116
 368 00e4 0EE0     		b	.L18
 369              	.LVL19:
 370              	.L17:
 151:Drivers/STM32H7xx_HAL_Driver/Src/stm32h7xx_hal_dma_ex.c **** 
 371              		.loc 1 151 9 is_stmt 1 view .LVU117
 151:Drivers/STM32H7xx_HAL_Driver/Src/stm32h7xx_hal_dma_ex.c **** 
 372              		.loc 1 151 49 is_stmt 0 view .LVU118
 373 00e6 D0F800C0 		ldr	ip, [r0]
 151:Drivers/STM32H7xx_HAL_Driver/Src/stm32h7xx_hal_dma_ex.c **** 
 374              		.loc 1 151 54 view .LVU119
 375 00ea 4CF4802C 		orr	ip, ip, #262144
 376 00ee C0F800C0 		str	ip, [r0]
 154:Drivers/STM32H7xx_HAL_Driver/Src/stm32h7xx_hal_dma_ex.c **** 
 377              		.loc 1 154 9 is_stmt 1 view .LVU120
 154:Drivers/STM32H7xx_HAL_Driver/Src/stm32h7xx_hal_dma_ex.c **** 
 378              		.loc 1 154 38 is_stmt 0 view .LVU121
 379 00f2 2068     		ldr	r0, [r4]
 154:Drivers/STM32H7xx_HAL_Driver/Src/stm32h7xx_hal_dma_ex.c **** 
 380              		.loc 1 154 56 view .LVU122
 381 00f4 0361     		str	r3, [r0, #16]
 157:Drivers/STM32H7xx_HAL_Driver/Src/stm32h7xx_hal_dma_ex.c **** 
 382              		.loc 1 157 9 is_stmt 1 view .LVU123
 383              	.LVL20:
 160:Drivers/STM32H7xx_HAL_Driver/Src/stm32h7xx_hal_dma_ex.c ****       }
 384              		.loc 1 160 9 view .LVU124
 160:Drivers/STM32H7xx_HAL_Driver/Src/stm32h7xx_hal_dma_ex.c ****       }
 385              		.loc 1 160 44 is_stmt 0 view .LVU125
 386 00f6 E36D     		ldr	r3, [r4, #92]
 387              	.LVL21:
 160:Drivers/STM32H7xx_HAL_Driver/Src/stm32h7xx_hal_dma_ex.c ****       }
 388              		.loc 1 160 58 view .LVU126
 389 00f8 03F01F00 		and	r0, r3, #31
 390              	.LVL22:
 160:Drivers/STM32H7xx_HAL_Driver/Src/stm32h7xx_hal_dma_ex.c ****       }
 391              		.loc 1 160 36 view .LVU127
 392 00fc 3F23     		movs	r3, #63
 393 00fe 8340     		lsls	r3, r3, r0
 160:Drivers/STM32H7xx_HAL_Driver/Src/stm32h7xx_hal_dma_ex.c ****       }
 394              		.loc 1 160 27 view .LVU128
 395 0100 A06D     		ldr	r0, [r4, #88]
 396 0102 8360     		str	r3, [r0, #8]
 397              	.LVL23:
 398              	.L18:
 177:Drivers/STM32H7xx_HAL_Driver/Src/stm32h7xx_hal_dma_ex.c ****       {
 399              		.loc 1 177 7 is_stmt 1 view .LVU129
 177:Drivers/STM32H7xx_HAL_Driver/Src/stm32h7xx_hal_dma_ex.c ****       {
 400              		.loc 1 177 10 is_stmt 0 view .LVU130
 401 0104 2368     		ldr	r3, [r4]
 402 0106 DFF834C1 		ldr	ip, .L27+8
 403 010a 4A48     		ldr	r0, .L27
 404 010c 8342     		cmp	r3, r0
 405 010e 18BF     		it	ne
ARM GAS  C:\Users\27655\AppData\Local\Temp\ccjI14Jp.s 			page 22


 406 0110 6345     		cmpne	r3, ip
 407 0112 42D0     		beq	.L19
 177:Drivers/STM32H7xx_HAL_Driver/Src/stm32h7xx_hal_dma_ex.c ****       {
 408              		.loc 1 177 10 discriminator 2 view .LVU131
 409 0114 1830     		adds	r0, r0, #24
 410 0116 8342     		cmp	r3, r0
 411 0118 3FD0     		beq	.L19
 177:Drivers/STM32H7xx_HAL_Driver/Src/stm32h7xx_hal_dma_ex.c ****       {
 412              		.loc 1 177 10 discriminator 4 view .LVU132
 413 011a 1830     		adds	r0, r0, #24
 414 011c 8342     		cmp	r3, r0
 415 011e 3CD0     		beq	.L19
 177:Drivers/STM32H7xx_HAL_Driver/Src/stm32h7xx_hal_dma_ex.c ****       {
 416              		.loc 1 177 10 discriminator 6 view .LVU133
 417 0120 1830     		adds	r0, r0, #24
 418 0122 8342     		cmp	r3, r0
 419 0124 39D0     		beq	.L19
 177:Drivers/STM32H7xx_HAL_Driver/Src/stm32h7xx_hal_dma_ex.c ****       {
 420              		.loc 1 177 10 discriminator 8 view .LVU134
 421 0126 1830     		adds	r0, r0, #24
 422 0128 8342     		cmp	r3, r0
 423 012a 36D0     		beq	.L19
 177:Drivers/STM32H7xx_HAL_Driver/Src/stm32h7xx_hal_dma_ex.c ****       {
 424              		.loc 1 177 10 discriminator 10 view .LVU135
 425 012c 1830     		adds	r0, r0, #24
 426 012e 8342     		cmp	r3, r0
 427 0130 33D0     		beq	.L19
 177:Drivers/STM32H7xx_HAL_Driver/Src/stm32h7xx_hal_dma_ex.c ****       {
 428              		.loc 1 177 10 discriminator 12 view .LVU136
 429 0132 1830     		adds	r0, r0, #24
 430 0134 8342     		cmp	r3, r0
 431 0136 30D0     		beq	.L19
 177:Drivers/STM32H7xx_HAL_Driver/Src/stm32h7xx_hal_dma_ex.c ****       {
 432              		.loc 1 177 10 discriminator 14 view .LVU137
 433 0138 00F55670 		add	r0, r0, #856
 434 013c 8342     		cmp	r3, r0
 435 013e 2CD0     		beq	.L19
 177:Drivers/STM32H7xx_HAL_Driver/Src/stm32h7xx_hal_dma_ex.c ****       {
 436              		.loc 1 177 10 discriminator 16 view .LVU138
 437 0140 1830     		adds	r0, r0, #24
 438 0142 8342     		cmp	r3, r0
 439 0144 29D0     		beq	.L19
 177:Drivers/STM32H7xx_HAL_Driver/Src/stm32h7xx_hal_dma_ex.c ****       {
 440              		.loc 1 177 10 discriminator 18 view .LVU139
 441 0146 1830     		adds	r0, r0, #24
 442 0148 8342     		cmp	r3, r0
 443 014a 26D0     		beq	.L19
 177:Drivers/STM32H7xx_HAL_Driver/Src/stm32h7xx_hal_dma_ex.c ****       {
 444              		.loc 1 177 10 discriminator 20 view .LVU140
 445 014c 1830     		adds	r0, r0, #24
 446 014e 8342     		cmp	r3, r0
 447 0150 23D0     		beq	.L19
 177:Drivers/STM32H7xx_HAL_Driver/Src/stm32h7xx_hal_dma_ex.c ****       {
 448              		.loc 1 177 10 discriminator 22 view .LVU141
 449 0152 1830     		adds	r0, r0, #24
 450 0154 8342     		cmp	r3, r0
 451 0156 20D0     		beq	.L19
ARM GAS  C:\Users\27655\AppData\Local\Temp\ccjI14Jp.s 			page 23


 177:Drivers/STM32H7xx_HAL_Driver/Src/stm32h7xx_hal_dma_ex.c ****       {
 452              		.loc 1 177 10 discriminator 24 view .LVU142
 453 0158 1830     		adds	r0, r0, #24
 454 015a 8342     		cmp	r3, r0
 455 015c 1DD0     		beq	.L19
 177:Drivers/STM32H7xx_HAL_Driver/Src/stm32h7xx_hal_dma_ex.c ****       {
 456              		.loc 1 177 10 discriminator 26 view .LVU143
 457 015e 1830     		adds	r0, r0, #24
 458 0160 8342     		cmp	r3, r0
 459 0162 1AD0     		beq	.L19
 177:Drivers/STM32H7xx_HAL_Driver/Src/stm32h7xx_hal_dma_ex.c ****       {
 460              		.loc 1 177 10 discriminator 28 view .LVU144
 461 0164 1830     		adds	r0, r0, #24
 462 0166 8342     		cmp	r3, r0
 463 0168 17D0     		beq	.L19
 177:Drivers/STM32H7xx_HAL_Driver/Src/stm32h7xx_hal_dma_ex.c ****       {
 464              		.loc 1 177 10 discriminator 30 view .LVU145
 465 016a 3348     		ldr	r0, .L27+4
 466 016c 8342     		cmp	r3, r0
 467 016e 14D0     		beq	.L19
 177:Drivers/STM32H7xx_HAL_Driver/Src/stm32h7xx_hal_dma_ex.c ****       {
 468              		.loc 1 177 10 discriminator 32 view .LVU146
 469 0170 1430     		adds	r0, r0, #20
 470 0172 8342     		cmp	r3, r0
 471 0174 11D0     		beq	.L19
 177:Drivers/STM32H7xx_HAL_Driver/Src/stm32h7xx_hal_dma_ex.c ****       {
 472              		.loc 1 177 10 discriminator 34 view .LVU147
 473 0176 1430     		adds	r0, r0, #20
 474 0178 8342     		cmp	r3, r0
 475 017a 0ED0     		beq	.L19
 177:Drivers/STM32H7xx_HAL_Driver/Src/stm32h7xx_hal_dma_ex.c ****       {
 476              		.loc 1 177 10 discriminator 36 view .LVU148
 477 017c 1430     		adds	r0, r0, #20
 478 017e 8342     		cmp	r3, r0
 479 0180 0BD0     		beq	.L19
 177:Drivers/STM32H7xx_HAL_Driver/Src/stm32h7xx_hal_dma_ex.c ****       {
 480              		.loc 1 177 10 discriminator 38 view .LVU149
 481 0182 1430     		adds	r0, r0, #20
 482 0184 8342     		cmp	r3, r0
 483 0186 08D0     		beq	.L19
 177:Drivers/STM32H7xx_HAL_Driver/Src/stm32h7xx_hal_dma_ex.c ****       {
 484              		.loc 1 177 10 discriminator 40 view .LVU150
 485 0188 1430     		adds	r0, r0, #20
 486 018a 8342     		cmp	r3, r0
 487 018c 05D0     		beq	.L19
 177:Drivers/STM32H7xx_HAL_Driver/Src/stm32h7xx_hal_dma_ex.c ****       {
 488              		.loc 1 177 10 discriminator 42 view .LVU151
 489 018e 1430     		adds	r0, r0, #20
 490 0190 8342     		cmp	r3, r0
 491 0192 02D0     		beq	.L19
 177:Drivers/STM32H7xx_HAL_Driver/Src/stm32h7xx_hal_dma_ex.c ****       {
 492              		.loc 1 177 10 discriminator 44 view .LVU152
 493 0194 1430     		adds	r0, r0, #20
 494 0196 8342     		cmp	r3, r0
 495 0198 0BD1     		bne	.L20
 496              	.L19:
 180:Drivers/STM32H7xx_HAL_Driver/Src/stm32h7xx_hal_dma_ex.c **** 
ARM GAS  C:\Users\27655\AppData\Local\Temp\ccjI14Jp.s 			page 24


 497              		.loc 1 180 9 is_stmt 1 view .LVU153
 498 019a 029B     		ldr	r3, [sp, #8]
 499 019c 2046     		mov	r0, r4
 500 019e FFF7FEFF 		bl	DMA_MultiBufferSetConfig
 501              	.LVL24:
 183:Drivers/STM32H7xx_HAL_Driver/Src/stm32h7xx_hal_dma_ex.c **** 
 502              		.loc 1 183 9 view .LVU154
 183:Drivers/STM32H7xx_HAL_Driver/Src/stm32h7xx_hal_dma_ex.c **** 
 503              		.loc 1 183 13 is_stmt 0 view .LVU155
 504 01a2 636E     		ldr	r3, [r4, #100]
 183:Drivers/STM32H7xx_HAL_Driver/Src/stm32h7xx_hal_dma_ex.c **** 
 505              		.loc 1 183 46 view .LVU156
 506 01a4 A26E     		ldr	r2, [r4, #104]
 183:Drivers/STM32H7xx_HAL_Driver/Src/stm32h7xx_hal_dma_ex.c **** 
 507              		.loc 1 183 40 view .LVU157
 508 01a6 5A60     		str	r2, [r3, #4]
 185:Drivers/STM32H7xx_HAL_Driver/Src/stm32h7xx_hal_dma_ex.c ****         {
 509              		.loc 1 185 9 is_stmt 1 view .LVU158
 185:Drivers/STM32H7xx_HAL_Driver/Src/stm32h7xx_hal_dma_ex.c ****         {
 510              		.loc 1 185 16 is_stmt 0 view .LVU159
 511 01a8 E36E     		ldr	r3, [r4, #108]
 185:Drivers/STM32H7xx_HAL_Driver/Src/stm32h7xx_hal_dma_ex.c ****         {
 512              		.loc 1 185 11 view .LVU160
 513 01aa 13B1     		cbz	r3, .L20
 188:Drivers/STM32H7xx_HAL_Driver/Src/stm32h7xx_hal_dma_ex.c ****         }
 514              		.loc 1 188 11 is_stmt 1 view .LVU161
 188:Drivers/STM32H7xx_HAL_Driver/Src/stm32h7xx_hal_dma_ex.c ****         }
 515              		.loc 1 188 15 is_stmt 0 view .LVU162
 516 01ac 236F     		ldr	r3, [r4, #112]
 188:Drivers/STM32H7xx_HAL_Driver/Src/stm32h7xx_hal_dma_ex.c ****         }
 517              		.loc 1 188 53 view .LVU163
 518 01ae 626F     		ldr	r2, [r4, #116]
 188:Drivers/STM32H7xx_HAL_Driver/Src/stm32h7xx_hal_dma_ex.c ****         }
 519              		.loc 1 188 47 view .LVU164
 520 01b0 5A60     		str	r2, [r3, #4]
 521              	.L20:
 193:Drivers/STM32H7xx_HAL_Driver/Src/stm32h7xx_hal_dma_ex.c ****     }
 522              		.loc 1 193 7 is_stmt 1 view .LVU165
 523 01b2 2368     		ldr	r3, [r4]
 524 01b4 2149     		ldr	r1, .L27+8
 525 01b6 1F4A     		ldr	r2, .L27
 526 01b8 9342     		cmp	r3, r2
 527 01ba 18BF     		it	ne
 528 01bc 8B42     		cmpne	r3, r1
 529 01be 30D0     		beq	.L21
 193:Drivers/STM32H7xx_HAL_Driver/Src/stm32h7xx_hal_dma_ex.c ****     }
 530              		.loc 1 193 7 is_stmt 0 discriminator 2 view .LVU166
 531 01c0 1832     		adds	r2, r2, #24
 532 01c2 9342     		cmp	r3, r2
 533 01c4 2DD0     		beq	.L21
 193:Drivers/STM32H7xx_HAL_Driver/Src/stm32h7xx_hal_dma_ex.c ****     }
 534              		.loc 1 193 7 discriminator 4 view .LVU167
 535 01c6 1832     		adds	r2, r2, #24
 536 01c8 9342     		cmp	r3, r2
 537 01ca 2AD0     		beq	.L21
 193:Drivers/STM32H7xx_HAL_Driver/Src/stm32h7xx_hal_dma_ex.c ****     }
 538              		.loc 1 193 7 discriminator 6 view .LVU168
ARM GAS  C:\Users\27655\AppData\Local\Temp\ccjI14Jp.s 			page 25


 539 01cc 1832     		adds	r2, r2, #24
 540 01ce 9342     		cmp	r3, r2
 541 01d0 27D0     		beq	.L21
 193:Drivers/STM32H7xx_HAL_Driver/Src/stm32h7xx_hal_dma_ex.c ****     }
 542              		.loc 1 193 7 discriminator 8 view .LVU169
 543 01d2 1832     		adds	r2, r2, #24
 544 01d4 9342     		cmp	r3, r2
 545 01d6 24D0     		beq	.L21
 193:Drivers/STM32H7xx_HAL_Driver/Src/stm32h7xx_hal_dma_ex.c ****     }
 546              		.loc 1 193 7 discriminator 10 view .LVU170
 547 01d8 1832     		adds	r2, r2, #24
 548 01da 9342     		cmp	r3, r2
 549 01dc 21D0     		beq	.L21
 193:Drivers/STM32H7xx_HAL_Driver/Src/stm32h7xx_hal_dma_ex.c ****     }
 550              		.loc 1 193 7 discriminator 12 view .LVU171
 551 01de 1832     		adds	r2, r2, #24
 552 01e0 9342     		cmp	r3, r2
 553 01e2 1ED0     		beq	.L21
 193:Drivers/STM32H7xx_HAL_Driver/Src/stm32h7xx_hal_dma_ex.c ****     }
 554              		.loc 1 193 7 discriminator 14 view .LVU172
 555 01e4 02F55672 		add	r2, r2, #856
 556 01e8 9342     		cmp	r3, r2
 557 01ea 1AD0     		beq	.L21
 193:Drivers/STM32H7xx_HAL_Driver/Src/stm32h7xx_hal_dma_ex.c ****     }
 558              		.loc 1 193 7 discriminator 16 view .LVU173
 559 01ec 1832     		adds	r2, r2, #24
 560 01ee 9342     		cmp	r3, r2
 561 01f0 17D0     		beq	.L21
 193:Drivers/STM32H7xx_HAL_Driver/Src/stm32h7xx_hal_dma_ex.c ****     }
 562              		.loc 1 193 7 discriminator 18 view .LVU174
 563 01f2 1832     		adds	r2, r2, #24
 564 01f4 9342     		cmp	r3, r2
 565 01f6 14D0     		beq	.L21
 193:Drivers/STM32H7xx_HAL_Driver/Src/stm32h7xx_hal_dma_ex.c ****     }
 566              		.loc 1 193 7 discriminator 20 view .LVU175
 567 01f8 1832     		adds	r2, r2, #24
 568 01fa 9342     		cmp	r3, r2
 569 01fc 11D0     		beq	.L21
 193:Drivers/STM32H7xx_HAL_Driver/Src/stm32h7xx_hal_dma_ex.c ****     }
 570              		.loc 1 193 7 discriminator 22 view .LVU176
 571 01fe 1832     		adds	r2, r2, #24
 572 0200 9342     		cmp	r3, r2
 573 0202 0ED0     		beq	.L21
 193:Drivers/STM32H7xx_HAL_Driver/Src/stm32h7xx_hal_dma_ex.c ****     }
 574              		.loc 1 193 7 discriminator 24 view .LVU177
 575 0204 1832     		adds	r2, r2, #24
 576 0206 9342     		cmp	r3, r2
 577 0208 0BD0     		beq	.L21
 193:Drivers/STM32H7xx_HAL_Driver/Src/stm32h7xx_hal_dma_ex.c ****     }
 578              		.loc 1 193 7 discriminator 26 view .LVU178
 579 020a 1832     		adds	r2, r2, #24
 580 020c 9342     		cmp	r3, r2
 581 020e 08D0     		beq	.L21
 193:Drivers/STM32H7xx_HAL_Driver/Src/stm32h7xx_hal_dma_ex.c ****     }
 582              		.loc 1 193 7 discriminator 28 view .LVU179
 583 0210 1832     		adds	r2, r2, #24
 584 0212 9342     		cmp	r3, r2
ARM GAS  C:\Users\27655\AppData\Local\Temp\ccjI14Jp.s 			page 26


 585 0214 05D0     		beq	.L21
 193:Drivers/STM32H7xx_HAL_Driver/Src/stm32h7xx_hal_dma_ex.c ****     }
 586              		.loc 1 193 7 discriminator 30 view .LVU180
 587 0216 1A68     		ldr	r2, [r3]
 588 0218 42F00102 		orr	r2, r2, #1
 589 021c 1A60     		str	r2, [r3]
 122:Drivers/STM32H7xx_HAL_Driver/Src/stm32h7xx_hal_dma_ex.c ****   __IO uint32_t *ifcRegister_Base; /* DMA Stream Interrupt Clear register */
 590              		.loc 1 122 21 view .LVU181
 591 021e 0020     		movs	r0, #0
 592 0220 03E7     		b	.L15
 593              	.L21:
 193:Drivers/STM32H7xx_HAL_Driver/Src/stm32h7xx_hal_dma_ex.c ****     }
 594              		.loc 1 193 7 discriminator 29 view .LVU182
 595 0222 1A68     		ldr	r2, [r3]
 596 0224 42F00102 		orr	r2, r2, #1
 597 0228 1A60     		str	r2, [r3]
 122:Drivers/STM32H7xx_HAL_Driver/Src/stm32h7xx_hal_dma_ex.c ****   __IO uint32_t *ifcRegister_Base; /* DMA Stream Interrupt Clear register */
 598              		.loc 1 122 21 view .LVU183
 599 022a 0020     		movs	r0, #0
 193:Drivers/STM32H7xx_HAL_Driver/Src/stm32h7xx_hal_dma_ex.c ****     }
 600              		.loc 1 193 7 view .LVU184
 601 022c FDE6     		b	.L15
 602              	.LVL25:
 603              	.L23:
 138:Drivers/STM32H7xx_HAL_Driver/Src/stm32h7xx_hal_dma_ex.c **** 
 604              		.loc 1 138 5 discriminator 1 view .LVU185
 605 022e 0220     		movs	r0, #2
 606 0230 FBE6     		b	.L15
 607              	.L28:
 608 0232 00BF     		.align	2
 609              	.L27:
 610 0234 28000240 		.word	1073872936
 611 0238 08540258 		.word	1476547592
 612 023c 10000240 		.word	1073872912
 613              		.cfi_endproc
 614              	.LFE146:
 616              		.section	.text.HAL_DMAEx_MultiBufferStart_IT,"ax",%progbits
 617              		.align	1
 618              		.global	HAL_DMAEx_MultiBufferStart_IT
 619              		.syntax unified
 620              		.thumb
 621              		.thumb_func
 623              	HAL_DMAEx_MultiBufferStart_IT:
 624              	.LVL26:
 625              	.LFB147:
 218:Drivers/STM32H7xx_HAL_Driver/Src/stm32h7xx_hal_dma_ex.c ****   HAL_StatusTypeDef status = HAL_OK;
 626              		.loc 1 218 1 is_stmt 1 view -0
 627              		.cfi_startproc
 628              		@ args = 4, pretend = 0, frame = 0
 629              		@ frame_needed = 0, uses_anonymous_args = 0
 218:Drivers/STM32H7xx_HAL_Driver/Src/stm32h7xx_hal_dma_ex.c ****   HAL_StatusTypeDef status = HAL_OK;
 630              		.loc 1 218 1 is_stmt 0 view .LVU187
 631 0000 10B5     		push	{r4, lr}
 632              	.LCFI2:
 633              		.cfi_def_cfa_offset 8
 634              		.cfi_offset 4, -8
 635              		.cfi_offset 14, -4
ARM GAS  C:\Users\27655\AppData\Local\Temp\ccjI14Jp.s 			page 27


 636 0002 0446     		mov	r4, r0
 219:Drivers/STM32H7xx_HAL_Driver/Src/stm32h7xx_hal_dma_ex.c ****   __IO uint32_t *ifcRegister_Base; /* DMA Stream Interrupt Clear register */
 637              		.loc 1 219 3 is_stmt 1 view .LVU188
 638              	.LVL27:
 220:Drivers/STM32H7xx_HAL_Driver/Src/stm32h7xx_hal_dma_ex.c **** 
 639              		.loc 1 220 3 view .LVU189
 223:Drivers/STM32H7xx_HAL_Driver/Src/stm32h7xx_hal_dma_ex.c ****   assert_param(IS_DMA_ALL_INSTANCE(hdma->Instance));
 640              		.loc 1 223 3 view .LVU190
 224:Drivers/STM32H7xx_HAL_Driver/Src/stm32h7xx_hal_dma_ex.c **** 
 641              		.loc 1 224 3 view .LVU191
 227:Drivers/STM32H7xx_HAL_Driver/Src/stm32h7xx_hal_dma_ex.c ****   {
 642              		.loc 1 227 3 view .LVU192
 227:Drivers/STM32H7xx_HAL_Driver/Src/stm32h7xx_hal_dma_ex.c ****   {
 643              		.loc 1 227 16 is_stmt 0 view .LVU193
 644 0004 8068     		ldr	r0, [r0, #8]
 645              	.LVL28:
 227:Drivers/STM32H7xx_HAL_Driver/Src/stm32h7xx_hal_dma_ex.c ****   {
 646              		.loc 1 227 5 view .LVU194
 647 0006 8028     		cmp	r0, #128
 648 0008 10D0     		beq	.L50
 234:Drivers/STM32H7xx_HAL_Driver/Src/stm32h7xx_hal_dma_ex.c **** 
 649              		.loc 1 234 3 is_stmt 1 view .LVU195
 234:Drivers/STM32H7xx_HAL_Driver/Src/stm32h7xx_hal_dma_ex.c **** 
 650              		.loc 1 234 3 view .LVU196
 651 000a 94F83400 		ldrb	r0, [r4, #52]	@ zero_extendqisi2
 652 000e 0128     		cmp	r0, #1
 653 0010 00F0CB81 		beq	.L47
 234:Drivers/STM32H7xx_HAL_Driver/Src/stm32h7xx_hal_dma_ex.c **** 
 654              		.loc 1 234 3 discriminator 2 view .LVU197
 655 0014 0120     		movs	r0, #1
 656 0016 84F83400 		strb	r0, [r4, #52]
 234:Drivers/STM32H7xx_HAL_Driver/Src/stm32h7xx_hal_dma_ex.c **** 
 657              		.loc 1 234 3 view .LVU198
 236:Drivers/STM32H7xx_HAL_Driver/Src/stm32h7xx_hal_dma_ex.c ****   {
 658              		.loc 1 236 3 view .LVU199
 236:Drivers/STM32H7xx_HAL_Driver/Src/stm32h7xx_hal_dma_ex.c ****   {
 659              		.loc 1 236 33 is_stmt 0 view .LVU200
 660 001a 94F83500 		ldrb	r0, [r4, #53]	@ zero_extendqisi2
 236:Drivers/STM32H7xx_HAL_Driver/Src/stm32h7xx_hal_dma_ex.c ****   {
 661              		.loc 1 236 5 view .LVU201
 662 001e 0128     		cmp	r0, #1
 663 0020 09D0     		beq	.L51
 335:Drivers/STM32H7xx_HAL_Driver/Src/stm32h7xx_hal_dma_ex.c **** 
 664              		.loc 1 335 5 is_stmt 1 view .LVU202
 335:Drivers/STM32H7xx_HAL_Driver/Src/stm32h7xx_hal_dma_ex.c **** 
 665              		.loc 1 335 21 is_stmt 0 view .LVU203
 666 0022 4FF40063 		mov	r3, #2048
 667              	.LVL29:
 335:Drivers/STM32H7xx_HAL_Driver/Src/stm32h7xx_hal_dma_ex.c **** 
 668              		.loc 1 335 21 view .LVU204
 669 0026 6365     		str	r3, [r4, #84]
 338:Drivers/STM32H7xx_HAL_Driver/Src/stm32h7xx_hal_dma_ex.c ****   }
 670              		.loc 1 338 5 is_stmt 1 view .LVU205
 671              	.LVL30:
 338:Drivers/STM32H7xx_HAL_Driver/Src/stm32h7xx_hal_dma_ex.c ****   }
 672              		.loc 1 338 12 is_stmt 0 view .LVU206
 673 0028 0120     		movs	r0, #1
ARM GAS  C:\Users\27655\AppData\Local\Temp\ccjI14Jp.s 			page 28


 674              	.LVL31:
 675              	.L31:
 341:Drivers/STM32H7xx_HAL_Driver/Src/stm32h7xx_hal_dma_ex.c **** 
 676              		.loc 1 341 1 view .LVU207
 677 002a 10BD     		pop	{r4, pc}
 678              	.LVL32:
 679              	.L50:
 229:Drivers/STM32H7xx_HAL_Driver/Src/stm32h7xx_hal_dma_ex.c ****     return HAL_ERROR;
 680              		.loc 1 229 5 is_stmt 1 view .LVU208
 229:Drivers/STM32H7xx_HAL_Driver/Src/stm32h7xx_hal_dma_ex.c ****     return HAL_ERROR;
 681              		.loc 1 229 21 is_stmt 0 view .LVU209
 682 002c 4FF48073 		mov	r3, #256
 683              	.LVL33:
 229:Drivers/STM32H7xx_HAL_Driver/Src/stm32h7xx_hal_dma_ex.c ****     return HAL_ERROR;
 684              		.loc 1 229 21 view .LVU210
 685 0030 6365     		str	r3, [r4, #84]
 230:Drivers/STM32H7xx_HAL_Driver/Src/stm32h7xx_hal_dma_ex.c ****   }
 686              		.loc 1 230 5 is_stmt 1 view .LVU211
 230:Drivers/STM32H7xx_HAL_Driver/Src/stm32h7xx_hal_dma_ex.c ****   }
 687              		.loc 1 230 12 is_stmt 0 view .LVU212
 688 0032 0120     		movs	r0, #1
 689 0034 F9E7     		b	.L31
 690              	.LVL34:
 691              	.L51:
 239:Drivers/STM32H7xx_HAL_Driver/Src/stm32h7xx_hal_dma_ex.c **** 
 692              		.loc 1 239 5 is_stmt 1 view .LVU213
 239:Drivers/STM32H7xx_HAL_Driver/Src/stm32h7xx_hal_dma_ex.c **** 
 693              		.loc 1 239 17 is_stmt 0 view .LVU214
 694 0036 0220     		movs	r0, #2
 695 0038 84F83500 		strb	r0, [r4, #53]
 242:Drivers/STM32H7xx_HAL_Driver/Src/stm32h7xx_hal_dma_ex.c **** 
 696              		.loc 1 242 5 is_stmt 1 view .LVU215
 242:Drivers/STM32H7xx_HAL_Driver/Src/stm32h7xx_hal_dma_ex.c **** 
 697              		.loc 1 242 21 is_stmt 0 view .LVU216
 698 003c 0020     		movs	r0, #0
 699 003e 6065     		str	r0, [r4, #84]
 244:Drivers/STM32H7xx_HAL_Driver/Src/stm32h7xx_hal_dma_ex.c ****     {
 700              		.loc 1 244 5 is_stmt 1 view .LVU217
 244:Drivers/STM32H7xx_HAL_Driver/Src/stm32h7xx_hal_dma_ex.c ****     {
 701              		.loc 1 244 8 is_stmt 0 view .LVU218
 702 0040 2068     		ldr	r0, [r4]
 703 0042 DFF8F0E1 		ldr	lr, .L54
 704 0046 DFF8F0C1 		ldr	ip, .L54+4
 705 004a 6045     		cmp	r0, ip
 706 004c 18BF     		it	ne
 707 004e 7045     		cmpne	r0, lr
 708 0050 49D0     		beq	.L33
 244:Drivers/STM32H7xx_HAL_Driver/Src/stm32h7xx_hal_dma_ex.c ****     {
 709              		.loc 1 244 8 discriminator 2 view .LVU219
 710 0052 0CF1180C 		add	ip, ip, #24
 711 0056 6045     		cmp	r0, ip
 712 0058 45D0     		beq	.L33
 244:Drivers/STM32H7xx_HAL_Driver/Src/stm32h7xx_hal_dma_ex.c ****     {
 713              		.loc 1 244 8 discriminator 4 view .LVU220
 714 005a 0CF1180C 		add	ip, ip, #24
 715 005e 6045     		cmp	r0, ip
 716 0060 41D0     		beq	.L33
ARM GAS  C:\Users\27655\AppData\Local\Temp\ccjI14Jp.s 			page 29


 244:Drivers/STM32H7xx_HAL_Driver/Src/stm32h7xx_hal_dma_ex.c ****     {
 717              		.loc 1 244 8 discriminator 6 view .LVU221
 718 0062 0CF1180C 		add	ip, ip, #24
 719 0066 6045     		cmp	r0, ip
 720 0068 3DD0     		beq	.L33
 244:Drivers/STM32H7xx_HAL_Driver/Src/stm32h7xx_hal_dma_ex.c ****     {
 721              		.loc 1 244 8 discriminator 8 view .LVU222
 722 006a 0CF1180C 		add	ip, ip, #24
 723 006e 6045     		cmp	r0, ip
 724 0070 39D0     		beq	.L33
 244:Drivers/STM32H7xx_HAL_Driver/Src/stm32h7xx_hal_dma_ex.c ****     {
 725              		.loc 1 244 8 discriminator 10 view .LVU223
 726 0072 0CF1180C 		add	ip, ip, #24
 727 0076 6045     		cmp	r0, ip
 728 0078 35D0     		beq	.L33
 244:Drivers/STM32H7xx_HAL_Driver/Src/stm32h7xx_hal_dma_ex.c ****     {
 729              		.loc 1 244 8 discriminator 12 view .LVU224
 730 007a 0CF1180C 		add	ip, ip, #24
 731 007e 6045     		cmp	r0, ip
 732 0080 31D0     		beq	.L33
 244:Drivers/STM32H7xx_HAL_Driver/Src/stm32h7xx_hal_dma_ex.c ****     {
 733              		.loc 1 244 8 discriminator 14 view .LVU225
 734 0082 0CF5567C 		add	ip, ip, #856
 735 0086 6045     		cmp	r0, ip
 736 0088 2DD0     		beq	.L33
 244:Drivers/STM32H7xx_HAL_Driver/Src/stm32h7xx_hal_dma_ex.c ****     {
 737              		.loc 1 244 8 discriminator 16 view .LVU226
 738 008a 0CF1180C 		add	ip, ip, #24
 739 008e 6045     		cmp	r0, ip
 740 0090 29D0     		beq	.L33
 244:Drivers/STM32H7xx_HAL_Driver/Src/stm32h7xx_hal_dma_ex.c ****     {
 741              		.loc 1 244 8 discriminator 18 view .LVU227
 742 0092 0CF1180C 		add	ip, ip, #24
 743 0096 6045     		cmp	r0, ip
 744 0098 25D0     		beq	.L33
 244:Drivers/STM32H7xx_HAL_Driver/Src/stm32h7xx_hal_dma_ex.c ****     {
 745              		.loc 1 244 8 discriminator 20 view .LVU228
 746 009a 0CF1180C 		add	ip, ip, #24
 747 009e 6045     		cmp	r0, ip
 748 00a0 21D0     		beq	.L33
 244:Drivers/STM32H7xx_HAL_Driver/Src/stm32h7xx_hal_dma_ex.c ****     {
 749              		.loc 1 244 8 discriminator 22 view .LVU229
 750 00a2 0CF1180C 		add	ip, ip, #24
 751 00a6 6045     		cmp	r0, ip
 752 00a8 1DD0     		beq	.L33
 244:Drivers/STM32H7xx_HAL_Driver/Src/stm32h7xx_hal_dma_ex.c ****     {
 753              		.loc 1 244 8 discriminator 24 view .LVU230
 754 00aa 0CF1180C 		add	ip, ip, #24
 755 00ae 6045     		cmp	r0, ip
 756 00b0 19D0     		beq	.L33
 244:Drivers/STM32H7xx_HAL_Driver/Src/stm32h7xx_hal_dma_ex.c ****     {
 757              		.loc 1 244 8 discriminator 26 view .LVU231
 758 00b2 0CF1180C 		add	ip, ip, #24
 759 00b6 6045     		cmp	r0, ip
 760 00b8 15D0     		beq	.L33
 244:Drivers/STM32H7xx_HAL_Driver/Src/stm32h7xx_hal_dma_ex.c ****     {
 761              		.loc 1 244 8 discriminator 28 view .LVU232
ARM GAS  C:\Users\27655\AppData\Local\Temp\ccjI14Jp.s 			page 30


 762 00ba 0CF1180C 		add	ip, ip, #24
 763 00be 6045     		cmp	r0, ip
 764 00c0 11D0     		beq	.L33
 261:Drivers/STM32H7xx_HAL_Driver/Src/stm32h7xx_hal_dma_ex.c **** 
 765              		.loc 1 261 7 is_stmt 1 view .LVU233
 261:Drivers/STM32H7xx_HAL_Driver/Src/stm32h7xx_hal_dma_ex.c **** 
 766              		.loc 1 261 49 is_stmt 0 view .LVU234
 767 00c2 D0F800E0 		ldr	lr, [r0]
 261:Drivers/STM32H7xx_HAL_Driver/Src/stm32h7xx_hal_dma_ex.c **** 
 768              		.loc 1 261 55 view .LVU235
 769 00c6 48F2200C 		movw	ip, #32800
 770 00ca 4EEA0C0C 		orr	ip, lr, ip
 771 00ce C0F800C0 		str	ip, [r0]
 264:Drivers/STM32H7xx_HAL_Driver/Src/stm32h7xx_hal_dma_ex.c **** 
 772              		.loc 1 264 7 is_stmt 1 view .LVU236
 264:Drivers/STM32H7xx_HAL_Driver/Src/stm32h7xx_hal_dma_ex.c **** 
 773              		.loc 1 264 38 is_stmt 0 view .LVU237
 774 00d2 2068     		ldr	r0, [r4]
 264:Drivers/STM32H7xx_HAL_Driver/Src/stm32h7xx_hal_dma_ex.c **** 
 775              		.loc 1 264 57 view .LVU238
 776 00d4 0361     		str	r3, [r0, #16]
 267:Drivers/STM32H7xx_HAL_Driver/Src/stm32h7xx_hal_dma_ex.c **** 
 777              		.loc 1 267 7 is_stmt 1 view .LVU239
 778              	.LVL35:
 270:Drivers/STM32H7xx_HAL_Driver/Src/stm32h7xx_hal_dma_ex.c ****     }
 779              		.loc 1 270 7 view .LVU240
 270:Drivers/STM32H7xx_HAL_Driver/Src/stm32h7xx_hal_dma_ex.c ****     }
 780              		.loc 1 270 51 is_stmt 0 view .LVU241
 781 00d6 E36D     		ldr	r3, [r4, #92]
 782              	.LVL36:
 270:Drivers/STM32H7xx_HAL_Driver/Src/stm32h7xx_hal_dma_ex.c ****     }
 783              		.loc 1 270 65 view .LVU242
 784 00d8 03F01F00 		and	r0, r3, #31
 785              	.LVL37:
 270:Drivers/STM32H7xx_HAL_Driver/Src/stm32h7xx_hal_dma_ex.c ****     }
 786              		.loc 1 270 43 view .LVU243
 787 00dc 0123     		movs	r3, #1
 788 00de 8340     		lsls	r3, r3, r0
 270:Drivers/STM32H7xx_HAL_Driver/Src/stm32h7xx_hal_dma_ex.c ****     }
 789              		.loc 1 270 25 view .LVU244
 790 00e0 A06D     		ldr	r0, [r4, #88]
 791 00e2 4360     		str	r3, [r0, #4]
 792              	.LVL38:
 270:Drivers/STM32H7xx_HAL_Driver/Src/stm32h7xx_hal_dma_ex.c ****     }
 793              		.loc 1 270 25 view .LVU245
 794 00e4 0EE0     		b	.L34
 795              	.LVL39:
 796              	.L33:
 247:Drivers/STM32H7xx_HAL_Driver/Src/stm32h7xx_hal_dma_ex.c **** 
 797              		.loc 1 247 7 is_stmt 1 view .LVU246
 247:Drivers/STM32H7xx_HAL_Driver/Src/stm32h7xx_hal_dma_ex.c **** 
 798              		.loc 1 247 47 is_stmt 0 view .LVU247
 799 00e6 D0F800C0 		ldr	ip, [r0]
 247:Drivers/STM32H7xx_HAL_Driver/Src/stm32h7xx_hal_dma_ex.c **** 
 800              		.loc 1 247 52 view .LVU248
 801 00ea 4CF4802C 		orr	ip, ip, #262144
 802 00ee C0F800C0 		str	ip, [r0]
ARM GAS  C:\Users\27655\AppData\Local\Temp\ccjI14Jp.s 			page 31


 250:Drivers/STM32H7xx_HAL_Driver/Src/stm32h7xx_hal_dma_ex.c **** 
 803              		.loc 1 250 7 is_stmt 1 view .LVU249
 250:Drivers/STM32H7xx_HAL_Driver/Src/stm32h7xx_hal_dma_ex.c **** 
 804              		.loc 1 250 36 is_stmt 0 view .LVU250
 805 00f2 2068     		ldr	r0, [r4]
 250:Drivers/STM32H7xx_HAL_Driver/Src/stm32h7xx_hal_dma_ex.c **** 
 806              		.loc 1 250 54 view .LVU251
 807 00f4 0361     		str	r3, [r0, #16]
 253:Drivers/STM32H7xx_HAL_Driver/Src/stm32h7xx_hal_dma_ex.c **** 
 808              		.loc 1 253 7 is_stmt 1 view .LVU252
 809              	.LVL40:
 256:Drivers/STM32H7xx_HAL_Driver/Src/stm32h7xx_hal_dma_ex.c ****     }
 810              		.loc 1 256 7 view .LVU253
 256:Drivers/STM32H7xx_HAL_Driver/Src/stm32h7xx_hal_dma_ex.c ****     }
 811              		.loc 1 256 42 is_stmt 0 view .LVU254
 812 00f6 E36D     		ldr	r3, [r4, #92]
 813              	.LVL41:
 256:Drivers/STM32H7xx_HAL_Driver/Src/stm32h7xx_hal_dma_ex.c ****     }
 814              		.loc 1 256 56 view .LVU255
 815 00f8 03F01F00 		and	r0, r3, #31
 816              	.LVL42:
 256:Drivers/STM32H7xx_HAL_Driver/Src/stm32h7xx_hal_dma_ex.c ****     }
 817              		.loc 1 256 34 view .LVU256
 818 00fc 3F23     		movs	r3, #63
 819 00fe 8340     		lsls	r3, r3, r0
 256:Drivers/STM32H7xx_HAL_Driver/Src/stm32h7xx_hal_dma_ex.c ****     }
 820              		.loc 1 256 25 view .LVU257
 821 0100 A06D     		ldr	r0, [r4, #88]
 822 0102 8360     		str	r3, [r0, #8]
 823              	.LVL43:
 824              	.L34:
 274:Drivers/STM32H7xx_HAL_Driver/Src/stm32h7xx_hal_dma_ex.c **** 
 825              		.loc 1 274 5 is_stmt 1 view .LVU258
 826 0104 029B     		ldr	r3, [sp, #8]
 827 0106 2046     		mov	r0, r4
 828 0108 FFF7FEFF 		bl	DMA_MultiBufferSetConfig
 829              	.LVL44:
 276:Drivers/STM32H7xx_HAL_Driver/Src/stm32h7xx_hal_dma_ex.c ****     {
 830              		.loc 1 276 5 view .LVU259
 276:Drivers/STM32H7xx_HAL_Driver/Src/stm32h7xx_hal_dma_ex.c ****     {
 831              		.loc 1 276 8 is_stmt 0 view .LVU260
 832 010c 2368     		ldr	r3, [r4]
 833 010e 4949     		ldr	r1, .L54
 834 0110 494A     		ldr	r2, .L54+4
 835 0112 9342     		cmp	r3, r2
 836 0114 18BF     		it	ne
 837 0116 8B42     		cmpne	r3, r1
 838 0118 42D0     		beq	.L35
 276:Drivers/STM32H7xx_HAL_Driver/Src/stm32h7xx_hal_dma_ex.c ****     {
 839              		.loc 1 276 8 discriminator 2 view .LVU261
 840 011a 1832     		adds	r2, r2, #24
 841 011c 9342     		cmp	r3, r2
 842 011e 3FD0     		beq	.L35
 276:Drivers/STM32H7xx_HAL_Driver/Src/stm32h7xx_hal_dma_ex.c ****     {
 843              		.loc 1 276 8 discriminator 4 view .LVU262
 844 0120 1832     		adds	r2, r2, #24
 845 0122 9342     		cmp	r3, r2
ARM GAS  C:\Users\27655\AppData\Local\Temp\ccjI14Jp.s 			page 32


 846 0124 3CD0     		beq	.L35
 276:Drivers/STM32H7xx_HAL_Driver/Src/stm32h7xx_hal_dma_ex.c ****     {
 847              		.loc 1 276 8 discriminator 6 view .LVU263
 848 0126 1832     		adds	r2, r2, #24
 849 0128 9342     		cmp	r3, r2
 850 012a 39D0     		beq	.L35
 276:Drivers/STM32H7xx_HAL_Driver/Src/stm32h7xx_hal_dma_ex.c ****     {
 851              		.loc 1 276 8 discriminator 8 view .LVU264
 852 012c 1832     		adds	r2, r2, #24
 853 012e 9342     		cmp	r3, r2
 854 0130 36D0     		beq	.L35
 276:Drivers/STM32H7xx_HAL_Driver/Src/stm32h7xx_hal_dma_ex.c ****     {
 855              		.loc 1 276 8 discriminator 10 view .LVU265
 856 0132 1832     		adds	r2, r2, #24
 857 0134 9342     		cmp	r3, r2
 858 0136 33D0     		beq	.L35
 276:Drivers/STM32H7xx_HAL_Driver/Src/stm32h7xx_hal_dma_ex.c ****     {
 859              		.loc 1 276 8 discriminator 12 view .LVU266
 860 0138 1832     		adds	r2, r2, #24
 861 013a 9342     		cmp	r3, r2
 862 013c 30D0     		beq	.L35
 276:Drivers/STM32H7xx_HAL_Driver/Src/stm32h7xx_hal_dma_ex.c ****     {
 863              		.loc 1 276 8 discriminator 14 view .LVU267
 864 013e 02F55672 		add	r2, r2, #856
 865 0142 9342     		cmp	r3, r2
 866 0144 2CD0     		beq	.L35
 276:Drivers/STM32H7xx_HAL_Driver/Src/stm32h7xx_hal_dma_ex.c ****     {
 867              		.loc 1 276 8 discriminator 16 view .LVU268
 868 0146 1832     		adds	r2, r2, #24
 869 0148 9342     		cmp	r3, r2
 870 014a 29D0     		beq	.L35
 276:Drivers/STM32H7xx_HAL_Driver/Src/stm32h7xx_hal_dma_ex.c ****     {
 871              		.loc 1 276 8 discriminator 18 view .LVU269
 872 014c 1832     		adds	r2, r2, #24
 873 014e 9342     		cmp	r3, r2
 874 0150 26D0     		beq	.L35
 276:Drivers/STM32H7xx_HAL_Driver/Src/stm32h7xx_hal_dma_ex.c ****     {
 875              		.loc 1 276 8 discriminator 20 view .LVU270
 876 0152 1832     		adds	r2, r2, #24
 877 0154 9342     		cmp	r3, r2
 878 0156 23D0     		beq	.L35
 276:Drivers/STM32H7xx_HAL_Driver/Src/stm32h7xx_hal_dma_ex.c ****     {
 879              		.loc 1 276 8 discriminator 22 view .LVU271
 880 0158 1832     		adds	r2, r2, #24
 881 015a 9342     		cmp	r3, r2
 882 015c 20D0     		beq	.L35
 276:Drivers/STM32H7xx_HAL_Driver/Src/stm32h7xx_hal_dma_ex.c ****     {
 883              		.loc 1 276 8 discriminator 24 view .LVU272
 884 015e 1832     		adds	r2, r2, #24
 885 0160 9342     		cmp	r3, r2
 886 0162 1DD0     		beq	.L35
 276:Drivers/STM32H7xx_HAL_Driver/Src/stm32h7xx_hal_dma_ex.c ****     {
 887              		.loc 1 276 8 discriminator 26 view .LVU273
 888 0164 1832     		adds	r2, r2, #24
 889 0166 9342     		cmp	r3, r2
 890 0168 1AD0     		beq	.L35
 276:Drivers/STM32H7xx_HAL_Driver/Src/stm32h7xx_hal_dma_ex.c ****     {
ARM GAS  C:\Users\27655\AppData\Local\Temp\ccjI14Jp.s 			page 33


 891              		.loc 1 276 8 discriminator 28 view .LVU274
 892 016a 1832     		adds	r2, r2, #24
 893 016c 9342     		cmp	r3, r2
 894 016e 17D0     		beq	.L35
 276:Drivers/STM32H7xx_HAL_Driver/Src/stm32h7xx_hal_dma_ex.c ****     {
 895              		.loc 1 276 8 discriminator 30 view .LVU275
 896 0170 324A     		ldr	r2, .L54+8
 897 0172 9342     		cmp	r3, r2
 898 0174 14D0     		beq	.L35
 276:Drivers/STM32H7xx_HAL_Driver/Src/stm32h7xx_hal_dma_ex.c ****     {
 899              		.loc 1 276 8 discriminator 32 view .LVU276
 900 0176 1432     		adds	r2, r2, #20
 901 0178 9342     		cmp	r3, r2
 902 017a 11D0     		beq	.L35
 276:Drivers/STM32H7xx_HAL_Driver/Src/stm32h7xx_hal_dma_ex.c ****     {
 903              		.loc 1 276 8 discriminator 34 view .LVU277
 904 017c 1432     		adds	r2, r2, #20
 905 017e 9342     		cmp	r3, r2
 906 0180 0ED0     		beq	.L35
 276:Drivers/STM32H7xx_HAL_Driver/Src/stm32h7xx_hal_dma_ex.c ****     {
 907              		.loc 1 276 8 discriminator 36 view .LVU278
 908 0182 1432     		adds	r2, r2, #20
 909 0184 9342     		cmp	r3, r2
 910 0186 0BD0     		beq	.L35
 276:Drivers/STM32H7xx_HAL_Driver/Src/stm32h7xx_hal_dma_ex.c ****     {
 911              		.loc 1 276 8 discriminator 38 view .LVU279
 912 0188 1432     		adds	r2, r2, #20
 913 018a 9342     		cmp	r3, r2
 914 018c 08D0     		beq	.L35
 276:Drivers/STM32H7xx_HAL_Driver/Src/stm32h7xx_hal_dma_ex.c ****     {
 915              		.loc 1 276 8 discriminator 40 view .LVU280
 916 018e 1432     		adds	r2, r2, #20
 917 0190 9342     		cmp	r3, r2
 918 0192 05D0     		beq	.L35
 276:Drivers/STM32H7xx_HAL_Driver/Src/stm32h7xx_hal_dma_ex.c ****     {
 919              		.loc 1 276 8 discriminator 42 view .LVU281
 920 0194 1432     		adds	r2, r2, #20
 921 0196 9342     		cmp	r3, r2
 922 0198 02D0     		beq	.L35
 276:Drivers/STM32H7xx_HAL_Driver/Src/stm32h7xx_hal_dma_ex.c ****     {
 923              		.loc 1 276 8 discriminator 44 view .LVU282
 924 019a 1432     		adds	r2, r2, #20
 925 019c 9342     		cmp	r3, r2
 926 019e 07D1     		bne	.L36
 927              	.L35:
 279:Drivers/STM32H7xx_HAL_Driver/Src/stm32h7xx_hal_dma_ex.c **** 
 928              		.loc 1 279 7 is_stmt 1 view .LVU283
 279:Drivers/STM32H7xx_HAL_Driver/Src/stm32h7xx_hal_dma_ex.c **** 
 929              		.loc 1 279 11 is_stmt 0 view .LVU284
 930 01a0 636E     		ldr	r3, [r4, #100]
 279:Drivers/STM32H7xx_HAL_Driver/Src/stm32h7xx_hal_dma_ex.c **** 
 931              		.loc 1 279 44 view .LVU285
 932 01a2 A26E     		ldr	r2, [r4, #104]
 279:Drivers/STM32H7xx_HAL_Driver/Src/stm32h7xx_hal_dma_ex.c **** 
 933              		.loc 1 279 38 view .LVU286
 934 01a4 5A60     		str	r2, [r3, #4]
 281:Drivers/STM32H7xx_HAL_Driver/Src/stm32h7xx_hal_dma_ex.c ****       {
ARM GAS  C:\Users\27655\AppData\Local\Temp\ccjI14Jp.s 			page 34


 935              		.loc 1 281 7 is_stmt 1 view .LVU287
 281:Drivers/STM32H7xx_HAL_Driver/Src/stm32h7xx_hal_dma_ex.c ****       {
 936              		.loc 1 281 14 is_stmt 0 view .LVU288
 937 01a6 E36E     		ldr	r3, [r4, #108]
 281:Drivers/STM32H7xx_HAL_Driver/Src/stm32h7xx_hal_dma_ex.c ****       {
 938              		.loc 1 281 9 view .LVU289
 939 01a8 13B1     		cbz	r3, .L36
 284:Drivers/STM32H7xx_HAL_Driver/Src/stm32h7xx_hal_dma_ex.c ****       }
 940              		.loc 1 284 9 is_stmt 1 view .LVU290
 284:Drivers/STM32H7xx_HAL_Driver/Src/stm32h7xx_hal_dma_ex.c ****       }
 941              		.loc 1 284 13 is_stmt 0 view .LVU291
 942 01aa 236F     		ldr	r3, [r4, #112]
 284:Drivers/STM32H7xx_HAL_Driver/Src/stm32h7xx_hal_dma_ex.c ****       }
 943              		.loc 1 284 51 view .LVU292
 944 01ac 626F     		ldr	r2, [r4, #116]
 284:Drivers/STM32H7xx_HAL_Driver/Src/stm32h7xx_hal_dma_ex.c ****       }
 945              		.loc 1 284 45 view .LVU293
 946 01ae 5A60     		str	r2, [r3, #4]
 947              	.L36:
 288:Drivers/STM32H7xx_HAL_Driver/Src/stm32h7xx_hal_dma_ex.c ****     {
 948              		.loc 1 288 5 is_stmt 1 view .LVU294
 288:Drivers/STM32H7xx_HAL_Driver/Src/stm32h7xx_hal_dma_ex.c ****     {
 949              		.loc 1 288 8 is_stmt 0 view .LVU295
 950 01b0 2368     		ldr	r3, [r4]
 951 01b2 2049     		ldr	r1, .L54
 952 01b4 204A     		ldr	r2, .L54+4
 953 01b6 9342     		cmp	r3, r2
 954 01b8 18BF     		it	ne
 955 01ba 8B42     		cmpne	r3, r1
 956 01bc 40D0     		beq	.L37
 288:Drivers/STM32H7xx_HAL_Driver/Src/stm32h7xx_hal_dma_ex.c ****     {
 957              		.loc 1 288 8 discriminator 2 view .LVU296
 958 01be 1832     		adds	r2, r2, #24
 959 01c0 9342     		cmp	r3, r2
 960 01c2 3DD0     		beq	.L37
 288:Drivers/STM32H7xx_HAL_Driver/Src/stm32h7xx_hal_dma_ex.c ****     {
 961              		.loc 1 288 8 discriminator 4 view .LVU297
 962 01c4 1832     		adds	r2, r2, #24
 963 01c6 9342     		cmp	r3, r2
 964 01c8 3AD0     		beq	.L37
 288:Drivers/STM32H7xx_HAL_Driver/Src/stm32h7xx_hal_dma_ex.c ****     {
 965              		.loc 1 288 8 discriminator 6 view .LVU298
 966 01ca 1832     		adds	r2, r2, #24
 967 01cc 9342     		cmp	r3, r2
 968 01ce 37D0     		beq	.L37
 288:Drivers/STM32H7xx_HAL_Driver/Src/stm32h7xx_hal_dma_ex.c ****     {
 969              		.loc 1 288 8 discriminator 8 view .LVU299
 970 01d0 1832     		adds	r2, r2, #24
 971 01d2 9342     		cmp	r3, r2
 972 01d4 34D0     		beq	.L37
 288:Drivers/STM32H7xx_HAL_Driver/Src/stm32h7xx_hal_dma_ex.c ****     {
 973              		.loc 1 288 8 discriminator 10 view .LVU300
 974 01d6 1832     		adds	r2, r2, #24
 975 01d8 9342     		cmp	r3, r2
 976 01da 31D0     		beq	.L37
 288:Drivers/STM32H7xx_HAL_Driver/Src/stm32h7xx_hal_dma_ex.c ****     {
 977              		.loc 1 288 8 discriminator 12 view .LVU301
ARM GAS  C:\Users\27655\AppData\Local\Temp\ccjI14Jp.s 			page 35


 978 01dc 1832     		adds	r2, r2, #24
 979 01de 9342     		cmp	r3, r2
 980 01e0 2ED0     		beq	.L37
 288:Drivers/STM32H7xx_HAL_Driver/Src/stm32h7xx_hal_dma_ex.c ****     {
 981              		.loc 1 288 8 discriminator 14 view .LVU302
 982 01e2 02F55672 		add	r2, r2, #856
 983 01e6 9342     		cmp	r3, r2
 984 01e8 2AD0     		beq	.L37
 288:Drivers/STM32H7xx_HAL_Driver/Src/stm32h7xx_hal_dma_ex.c ****     {
 985              		.loc 1 288 8 discriminator 16 view .LVU303
 986 01ea 1832     		adds	r2, r2, #24
 987 01ec 9342     		cmp	r3, r2
 988 01ee 27D0     		beq	.L37
 288:Drivers/STM32H7xx_HAL_Driver/Src/stm32h7xx_hal_dma_ex.c ****     {
 989              		.loc 1 288 8 discriminator 18 view .LVU304
 990 01f0 1832     		adds	r2, r2, #24
 991 01f2 9342     		cmp	r3, r2
 992 01f4 24D0     		beq	.L37
 288:Drivers/STM32H7xx_HAL_Driver/Src/stm32h7xx_hal_dma_ex.c ****     {
 993              		.loc 1 288 8 discriminator 20 view .LVU305
 994 01f6 1832     		adds	r2, r2, #24
 995 01f8 9342     		cmp	r3, r2
 996 01fa 21D0     		beq	.L37
 288:Drivers/STM32H7xx_HAL_Driver/Src/stm32h7xx_hal_dma_ex.c ****     {
 997              		.loc 1 288 8 discriminator 22 view .LVU306
 998 01fc 1832     		adds	r2, r2, #24
 999 01fe 9342     		cmp	r3, r2
 1000 0200 1ED0     		beq	.L37
 288:Drivers/STM32H7xx_HAL_Driver/Src/stm32h7xx_hal_dma_ex.c ****     {
 1001              		.loc 1 288 8 discriminator 24 view .LVU307
 1002 0202 1832     		adds	r2, r2, #24
 1003 0204 9342     		cmp	r3, r2
 1004 0206 1BD0     		beq	.L37
 288:Drivers/STM32H7xx_HAL_Driver/Src/stm32h7xx_hal_dma_ex.c ****     {
 1005              		.loc 1 288 8 discriminator 26 view .LVU308
 1006 0208 1832     		adds	r2, r2, #24
 1007 020a 9342     		cmp	r3, r2
 1008 020c 18D0     		beq	.L37
 288:Drivers/STM32H7xx_HAL_Driver/Src/stm32h7xx_hal_dma_ex.c ****     {
 1009              		.loc 1 288 8 discriminator 28 view .LVU309
 1010 020e 1832     		adds	r2, r2, #24
 1011 0210 9342     		cmp	r3, r2
 1012 0212 15D0     		beq	.L37
 303:Drivers/STM32H7xx_HAL_Driver/Src/stm32h7xx_hal_dma_ex.c **** 
 1013              		.loc 1 303 7 is_stmt 1 view .LVU310
 1014 0214 1A68     		ldr	r2, [r3]
 1015 0216 22F00E02 		bic	r2, r2, #14
 1016 021a 42F00A02 		orr	r2, r2, #10
 1017 021e 1A60     		str	r2, [r3]
 305:Drivers/STM32H7xx_HAL_Driver/Src/stm32h7xx_hal_dma_ex.c ****       {
 1018              		.loc 1 305 7 view .LVU311
 305:Drivers/STM32H7xx_HAL_Driver/Src/stm32h7xx_hal_dma_ex.c ****       {
 1019              		.loc 1 305 15 is_stmt 0 view .LVU312
 1020 0220 236C     		ldr	r3, [r4, #64]
 305:Drivers/STM32H7xx_HAL_Driver/Src/stm32h7xx_hal_dma_ex.c ****       {
 1021              		.loc 1 305 9 view .LVU313
 1022 0222 002B     		cmp	r3, #0
ARM GAS  C:\Users\27655\AppData\Local\Temp\ccjI14Jp.s 			page 36


 1023 0224 00F0B680 		beq	.L52
 1024              	.L38:
 308:Drivers/STM32H7xx_HAL_Driver/Src/stm32h7xx_hal_dma_ex.c ****       }
 1025              		.loc 1 308 9 is_stmt 1 view .LVU314
 308:Drivers/STM32H7xx_HAL_Driver/Src/stm32h7xx_hal_dma_ex.c ****       }
 1026              		.loc 1 308 40 is_stmt 0 view .LVU315
 1027 0228 2268     		ldr	r2, [r4]
 308:Drivers/STM32H7xx_HAL_Driver/Src/stm32h7xx_hal_dma_ex.c ****       }
 1028              		.loc 1 308 51 view .LVU316
 1029 022a 1368     		ldr	r3, [r2]
 308:Drivers/STM32H7xx_HAL_Driver/Src/stm32h7xx_hal_dma_ex.c ****       }
 1030              		.loc 1 308 58 view .LVU317
 1031 022c 43F00403 		orr	r3, r3, #4
 1032 0230 1360     		str	r3, [r2]
 1033 0232 19E0     		b	.L41
 1034              	.L55:
 1035              		.align	2
 1036              	.L54:
 1037 0234 10000240 		.word	1073872912
 1038 0238 28000240 		.word	1073872936
 1039 023c 08540258 		.word	1476547592
 1040              	.L37:
 291:Drivers/STM32H7xx_HAL_Driver/Src/stm32h7xx_hal_dma_ex.c ****       ((DMA_Stream_TypeDef   *)hdma->Instance)->FCR |= DMA_IT_FE;
 1041              		.loc 1 291 7 is_stmt 1 view .LVU318
 1042 0240 1A68     		ldr	r2, [r3]
 1043 0242 22F01E02 		bic	r2, r2, #30
 1044 0246 42F01602 		orr	r2, r2, #22
 1045 024a 1A60     		str	r2, [r3]
 292:Drivers/STM32H7xx_HAL_Driver/Src/stm32h7xx_hal_dma_ex.c **** 
 1046              		.loc 1 292 7 view .LVU319
 292:Drivers/STM32H7xx_HAL_Driver/Src/stm32h7xx_hal_dma_ex.c **** 
 1047              		.loc 1 292 36 is_stmt 0 view .LVU320
 1048 024c 2268     		ldr	r2, [r4]
 292:Drivers/STM32H7xx_HAL_Driver/Src/stm32h7xx_hal_dma_ex.c **** 
 1049              		.loc 1 292 47 view .LVU321
 1050 024e 5369     		ldr	r3, [r2, #20]
 292:Drivers/STM32H7xx_HAL_Driver/Src/stm32h7xx_hal_dma_ex.c **** 
 1051              		.loc 1 292 53 view .LVU322
 1052 0250 43F08003 		orr	r3, r3, #128
 1053 0254 5361     		str	r3, [r2, #20]
 294:Drivers/STM32H7xx_HAL_Driver/Src/stm32h7xx_hal_dma_ex.c ****       {
 1054              		.loc 1 294 7 is_stmt 1 view .LVU323
 294:Drivers/STM32H7xx_HAL_Driver/Src/stm32h7xx_hal_dma_ex.c ****       {
 1055              		.loc 1 294 15 is_stmt 0 view .LVU324
 1056 0256 236C     		ldr	r3, [r4, #64]
 294:Drivers/STM32H7xx_HAL_Driver/Src/stm32h7xx_hal_dma_ex.c ****       {
 1057              		.loc 1 294 9 view .LVU325
 1058 0258 002B     		cmp	r3, #0
 1059 025a 00F09680 		beq	.L53
 1060              	.L40:
 297:Drivers/STM32H7xx_HAL_Driver/Src/stm32h7xx_hal_dma_ex.c ****       }
 1061              		.loc 1 297 9 is_stmt 1 view .LVU326
 297:Drivers/STM32H7xx_HAL_Driver/Src/stm32h7xx_hal_dma_ex.c ****       }
 1062              		.loc 1 297 38 is_stmt 0 view .LVU327
 1063 025e 2268     		ldr	r2, [r4]
 297:Drivers/STM32H7xx_HAL_Driver/Src/stm32h7xx_hal_dma_ex.c ****       }
 1064              		.loc 1 297 49 view .LVU328
ARM GAS  C:\Users\27655\AppData\Local\Temp\ccjI14Jp.s 			page 37


 1065 0260 1368     		ldr	r3, [r2]
 297:Drivers/STM32H7xx_HAL_Driver/Src/stm32h7xx_hal_dma_ex.c ****       }
 1066              		.loc 1 297 55 view .LVU329
 1067 0262 43F00803 		orr	r3, r3, #8
 1068 0266 1360     		str	r3, [r2]
 1069              	.L41:
 312:Drivers/STM32H7xx_HAL_Driver/Src/stm32h7xx_hal_dma_ex.c ****     {
 1070              		.loc 1 312 5 is_stmt 1 view .LVU330
 312:Drivers/STM32H7xx_HAL_Driver/Src/stm32h7xx_hal_dma_ex.c ****     {
 1071              		.loc 1 312 8 is_stmt 0 view .LVU331
 1072 0268 2368     		ldr	r3, [r4]
 1073 026a 5149     		ldr	r1, .L56
 1074 026c 514A     		ldr	r2, .L56+4
 1075 026e 9342     		cmp	r3, r2
 1076 0270 18BF     		it	ne
 1077 0272 8B42     		cmpne	r3, r1
 1078 0274 42D0     		beq	.L42
 312:Drivers/STM32H7xx_HAL_Driver/Src/stm32h7xx_hal_dma_ex.c ****     {
 1079              		.loc 1 312 8 discriminator 2 view .LVU332
 1080 0276 1832     		adds	r2, r2, #24
 1081 0278 9342     		cmp	r3, r2
 1082 027a 3FD0     		beq	.L42
 312:Drivers/STM32H7xx_HAL_Driver/Src/stm32h7xx_hal_dma_ex.c ****     {
 1083              		.loc 1 312 8 discriminator 4 view .LVU333
 1084 027c 1832     		adds	r2, r2, #24
 1085 027e 9342     		cmp	r3, r2
 1086 0280 3CD0     		beq	.L42
 312:Drivers/STM32H7xx_HAL_Driver/Src/stm32h7xx_hal_dma_ex.c ****     {
 1087              		.loc 1 312 8 discriminator 6 view .LVU334
 1088 0282 1832     		adds	r2, r2, #24
 1089 0284 9342     		cmp	r3, r2
 1090 0286 39D0     		beq	.L42
 312:Drivers/STM32H7xx_HAL_Driver/Src/stm32h7xx_hal_dma_ex.c ****     {
 1091              		.loc 1 312 8 discriminator 8 view .LVU335
 1092 0288 1832     		adds	r2, r2, #24
 1093 028a 9342     		cmp	r3, r2
 1094 028c 36D0     		beq	.L42
 312:Drivers/STM32H7xx_HAL_Driver/Src/stm32h7xx_hal_dma_ex.c ****     {
 1095              		.loc 1 312 8 discriminator 10 view .LVU336
 1096 028e 1832     		adds	r2, r2, #24
 1097 0290 9342     		cmp	r3, r2
 1098 0292 33D0     		beq	.L42
 312:Drivers/STM32H7xx_HAL_Driver/Src/stm32h7xx_hal_dma_ex.c ****     {
 1099              		.loc 1 312 8 discriminator 12 view .LVU337
 1100 0294 1832     		adds	r2, r2, #24
 1101 0296 9342     		cmp	r3, r2
 1102 0298 30D0     		beq	.L42
 312:Drivers/STM32H7xx_HAL_Driver/Src/stm32h7xx_hal_dma_ex.c ****     {
 1103              		.loc 1 312 8 discriminator 14 view .LVU338
 1104 029a 02F55672 		add	r2, r2, #856
 1105 029e 9342     		cmp	r3, r2
 1106 02a0 2CD0     		beq	.L42
 312:Drivers/STM32H7xx_HAL_Driver/Src/stm32h7xx_hal_dma_ex.c ****     {
 1107              		.loc 1 312 8 discriminator 16 view .LVU339
 1108 02a2 1832     		adds	r2, r2, #24
 1109 02a4 9342     		cmp	r3, r2
 1110 02a6 29D0     		beq	.L42
ARM GAS  C:\Users\27655\AppData\Local\Temp\ccjI14Jp.s 			page 38


 312:Drivers/STM32H7xx_HAL_Driver/Src/stm32h7xx_hal_dma_ex.c ****     {
 1111              		.loc 1 312 8 discriminator 18 view .LVU340
 1112 02a8 1832     		adds	r2, r2, #24
 1113 02aa 9342     		cmp	r3, r2
 1114 02ac 26D0     		beq	.L42
 312:Drivers/STM32H7xx_HAL_Driver/Src/stm32h7xx_hal_dma_ex.c ****     {
 1115              		.loc 1 312 8 discriminator 20 view .LVU341
 1116 02ae 1832     		adds	r2, r2, #24
 1117 02b0 9342     		cmp	r3, r2
 1118 02b2 23D0     		beq	.L42
 312:Drivers/STM32H7xx_HAL_Driver/Src/stm32h7xx_hal_dma_ex.c ****     {
 1119              		.loc 1 312 8 discriminator 22 view .LVU342
 1120 02b4 1832     		adds	r2, r2, #24
 1121 02b6 9342     		cmp	r3, r2
 1122 02b8 20D0     		beq	.L42
 312:Drivers/STM32H7xx_HAL_Driver/Src/stm32h7xx_hal_dma_ex.c ****     {
 1123              		.loc 1 312 8 discriminator 24 view .LVU343
 1124 02ba 1832     		adds	r2, r2, #24
 1125 02bc 9342     		cmp	r3, r2
 1126 02be 1DD0     		beq	.L42
 312:Drivers/STM32H7xx_HAL_Driver/Src/stm32h7xx_hal_dma_ex.c ****     {
 1127              		.loc 1 312 8 discriminator 26 view .LVU344
 1128 02c0 1832     		adds	r2, r2, #24
 1129 02c2 9342     		cmp	r3, r2
 1130 02c4 1AD0     		beq	.L42
 312:Drivers/STM32H7xx_HAL_Driver/Src/stm32h7xx_hal_dma_ex.c ****     {
 1131              		.loc 1 312 8 discriminator 28 view .LVU345
 1132 02c6 1832     		adds	r2, r2, #24
 1133 02c8 9342     		cmp	r3, r2
 1134 02ca 17D0     		beq	.L42
 312:Drivers/STM32H7xx_HAL_Driver/Src/stm32h7xx_hal_dma_ex.c ****     {
 1135              		.loc 1 312 8 discriminator 30 view .LVU346
 1136 02cc 3A4A     		ldr	r2, .L56+8
 1137 02ce 9342     		cmp	r3, r2
 1138 02d0 14D0     		beq	.L42
 312:Drivers/STM32H7xx_HAL_Driver/Src/stm32h7xx_hal_dma_ex.c ****     {
 1139              		.loc 1 312 8 discriminator 32 view .LVU347
 1140 02d2 1432     		adds	r2, r2, #20
 1141 02d4 9342     		cmp	r3, r2
 1142 02d6 11D0     		beq	.L42
 312:Drivers/STM32H7xx_HAL_Driver/Src/stm32h7xx_hal_dma_ex.c ****     {
 1143              		.loc 1 312 8 discriminator 34 view .LVU348
 1144 02d8 1432     		adds	r2, r2, #20
 1145 02da 9342     		cmp	r3, r2
 1146 02dc 0ED0     		beq	.L42
 312:Drivers/STM32H7xx_HAL_Driver/Src/stm32h7xx_hal_dma_ex.c ****     {
 1147              		.loc 1 312 8 discriminator 36 view .LVU349
 1148 02de 1432     		adds	r2, r2, #20
 1149 02e0 9342     		cmp	r3, r2
 1150 02e2 0BD0     		beq	.L42
 312:Drivers/STM32H7xx_HAL_Driver/Src/stm32h7xx_hal_dma_ex.c ****     {
 1151              		.loc 1 312 8 discriminator 38 view .LVU350
 1152 02e4 1432     		adds	r2, r2, #20
 1153 02e6 9342     		cmp	r3, r2
 1154 02e8 08D0     		beq	.L42
 312:Drivers/STM32H7xx_HAL_Driver/Src/stm32h7xx_hal_dma_ex.c ****     {
 1155              		.loc 1 312 8 discriminator 40 view .LVU351
ARM GAS  C:\Users\27655\AppData\Local\Temp\ccjI14Jp.s 			page 39


 1156 02ea 1432     		adds	r2, r2, #20
 1157 02ec 9342     		cmp	r3, r2
 1158 02ee 05D0     		beq	.L42
 312:Drivers/STM32H7xx_HAL_Driver/Src/stm32h7xx_hal_dma_ex.c ****     {
 1159              		.loc 1 312 8 discriminator 42 view .LVU352
 1160 02f0 1432     		adds	r2, r2, #20
 1161 02f2 9342     		cmp	r3, r2
 1162 02f4 02D0     		beq	.L42
 312:Drivers/STM32H7xx_HAL_Driver/Src/stm32h7xx_hal_dma_ex.c ****     {
 1163              		.loc 1 312 8 discriminator 44 view .LVU353
 1164 02f6 1432     		adds	r2, r2, #20
 1165 02f8 9342     		cmp	r3, r2
 1166 02fa 0ED1     		bne	.L43
 1167              	.L42:
 315:Drivers/STM32H7xx_HAL_Driver/Src/stm32h7xx_hal_dma_ex.c ****       {
 1168              		.loc 1 315 7 is_stmt 1 view .LVU354
 315:Drivers/STM32H7xx_HAL_Driver/Src/stm32h7xx_hal_dma_ex.c ****       {
 1169              		.loc 1 315 15 is_stmt 0 view .LVU355
 1170 02fc 236E     		ldr	r3, [r4, #96]
 315:Drivers/STM32H7xx_HAL_Driver/Src/stm32h7xx_hal_dma_ex.c ****       {
 1171              		.loc 1 315 30 view .LVU356
 1172 02fe 1A68     		ldr	r2, [r3]
 315:Drivers/STM32H7xx_HAL_Driver/Src/stm32h7xx_hal_dma_ex.c ****       {
 1173              		.loc 1 315 9 view .LVU357
 1174 0300 12F4803F 		tst	r2, #65536
 1175 0304 03D0     		beq	.L44
 318:Drivers/STM32H7xx_HAL_Driver/Src/stm32h7xx_hal_dma_ex.c ****       }
 1176              		.loc 1 318 9 is_stmt 1 view .LVU358
 318:Drivers/STM32H7xx_HAL_Driver/Src/stm32h7xx_hal_dma_ex.c ****       }
 1177              		.loc 1 318 28 is_stmt 0 view .LVU359
 1178 0306 1A68     		ldr	r2, [r3]
 318:Drivers/STM32H7xx_HAL_Driver/Src/stm32h7xx_hal_dma_ex.c ****       }
 1179              		.loc 1 318 34 view .LVU360
 1180 0308 42F48072 		orr	r2, r2, #256
 1181 030c 1A60     		str	r2, [r3]
 1182              	.L44:
 321:Drivers/STM32H7xx_HAL_Driver/Src/stm32h7xx_hal_dma_ex.c ****       {
 1183              		.loc 1 321 7 is_stmt 1 view .LVU361
 321:Drivers/STM32H7xx_HAL_Driver/Src/stm32h7xx_hal_dma_ex.c ****       {
 1184              		.loc 1 321 14 is_stmt 0 view .LVU362
 1185 030e E36E     		ldr	r3, [r4, #108]
 321:Drivers/STM32H7xx_HAL_Driver/Src/stm32h7xx_hal_dma_ex.c ****       {
 1186              		.loc 1 321 9 view .LVU363
 1187 0310 1BB1     		cbz	r3, .L43
 325:Drivers/STM32H7xx_HAL_Driver/Src/stm32h7xx_hal_dma_ex.c ****       }
 1188              		.loc 1 325 9 is_stmt 1 view .LVU364
 325:Drivers/STM32H7xx_HAL_Driver/Src/stm32h7xx_hal_dma_ex.c ****       }
 1189              		.loc 1 325 31 is_stmt 0 view .LVU365
 1190 0312 1A68     		ldr	r2, [r3]
 325:Drivers/STM32H7xx_HAL_Driver/Src/stm32h7xx_hal_dma_ex.c ****       }
 1191              		.loc 1 325 38 view .LVU366
 1192 0314 42F48072 		orr	r2, r2, #256
 1193 0318 1A60     		str	r2, [r3]
 1194              	.L43:
 330:Drivers/STM32H7xx_HAL_Driver/Src/stm32h7xx_hal_dma_ex.c ****   }
 1195              		.loc 1 330 5 is_stmt 1 view .LVU367
 1196 031a 2368     		ldr	r3, [r4]
ARM GAS  C:\Users\27655\AppData\Local\Temp\ccjI14Jp.s 			page 40


 1197 031c 2449     		ldr	r1, .L56
 1198 031e 254A     		ldr	r2, .L56+4
 1199 0320 9342     		cmp	r3, r2
 1200 0322 18BF     		it	ne
 1201 0324 8B42     		cmpne	r3, r1
 1202 0326 3AD0     		beq	.L45
 330:Drivers/STM32H7xx_HAL_Driver/Src/stm32h7xx_hal_dma_ex.c ****   }
 1203              		.loc 1 330 5 is_stmt 0 discriminator 2 view .LVU368
 1204 0328 1832     		adds	r2, r2, #24
 1205 032a 9342     		cmp	r3, r2
 1206 032c 37D0     		beq	.L45
 330:Drivers/STM32H7xx_HAL_Driver/Src/stm32h7xx_hal_dma_ex.c ****   }
 1207              		.loc 1 330 5 discriminator 4 view .LVU369
 1208 032e 1832     		adds	r2, r2, #24
 1209 0330 9342     		cmp	r3, r2
 1210 0332 34D0     		beq	.L45
 330:Drivers/STM32H7xx_HAL_Driver/Src/stm32h7xx_hal_dma_ex.c ****   }
 1211              		.loc 1 330 5 discriminator 6 view .LVU370
 1212 0334 1832     		adds	r2, r2, #24
 1213 0336 9342     		cmp	r3, r2
 1214 0338 31D0     		beq	.L45
 330:Drivers/STM32H7xx_HAL_Driver/Src/stm32h7xx_hal_dma_ex.c ****   }
 1215              		.loc 1 330 5 discriminator 8 view .LVU371
 1216 033a 1832     		adds	r2, r2, #24
 1217 033c 9342     		cmp	r3, r2
 1218 033e 2ED0     		beq	.L45
 330:Drivers/STM32H7xx_HAL_Driver/Src/stm32h7xx_hal_dma_ex.c ****   }
 1219              		.loc 1 330 5 discriminator 10 view .LVU372
 1220 0340 1832     		adds	r2, r2, #24
 1221 0342 9342     		cmp	r3, r2
 1222 0344 2BD0     		beq	.L45
 330:Drivers/STM32H7xx_HAL_Driver/Src/stm32h7xx_hal_dma_ex.c ****   }
 1223              		.loc 1 330 5 discriminator 12 view .LVU373
 1224 0346 1832     		adds	r2, r2, #24
 1225 0348 9342     		cmp	r3, r2
 1226 034a 28D0     		beq	.L45
 330:Drivers/STM32H7xx_HAL_Driver/Src/stm32h7xx_hal_dma_ex.c ****   }
 1227              		.loc 1 330 5 discriminator 14 view .LVU374
 1228 034c 02F55672 		add	r2, r2, #856
 1229 0350 9342     		cmp	r3, r2
 1230 0352 24D0     		beq	.L45
 330:Drivers/STM32H7xx_HAL_Driver/Src/stm32h7xx_hal_dma_ex.c ****   }
 1231              		.loc 1 330 5 discriminator 16 view .LVU375
 1232 0354 1832     		adds	r2, r2, #24
 1233 0356 9342     		cmp	r3, r2
 1234 0358 21D0     		beq	.L45
 330:Drivers/STM32H7xx_HAL_Driver/Src/stm32h7xx_hal_dma_ex.c ****   }
 1235              		.loc 1 330 5 discriminator 18 view .LVU376
 1236 035a 1832     		adds	r2, r2, #24
 1237 035c 9342     		cmp	r3, r2
 1238 035e 1ED0     		beq	.L45
 330:Drivers/STM32H7xx_HAL_Driver/Src/stm32h7xx_hal_dma_ex.c ****   }
 1239              		.loc 1 330 5 discriminator 20 view .LVU377
 1240 0360 1832     		adds	r2, r2, #24
 1241 0362 9342     		cmp	r3, r2
 1242 0364 1BD0     		beq	.L45
 330:Drivers/STM32H7xx_HAL_Driver/Src/stm32h7xx_hal_dma_ex.c ****   }
ARM GAS  C:\Users\27655\AppData\Local\Temp\ccjI14Jp.s 			page 41


 1243              		.loc 1 330 5 discriminator 22 view .LVU378
 1244 0366 1832     		adds	r2, r2, #24
 1245 0368 9342     		cmp	r3, r2
 1246 036a 18D0     		beq	.L45
 330:Drivers/STM32H7xx_HAL_Driver/Src/stm32h7xx_hal_dma_ex.c ****   }
 1247              		.loc 1 330 5 discriminator 24 view .LVU379
 1248 036c 1832     		adds	r2, r2, #24
 1249 036e 9342     		cmp	r3, r2
 1250 0370 15D0     		beq	.L45
 330:Drivers/STM32H7xx_HAL_Driver/Src/stm32h7xx_hal_dma_ex.c ****   }
 1251              		.loc 1 330 5 discriminator 26 view .LVU380
 1252 0372 1832     		adds	r2, r2, #24
 1253 0374 9342     		cmp	r3, r2
 1254 0376 12D0     		beq	.L45
 330:Drivers/STM32H7xx_HAL_Driver/Src/stm32h7xx_hal_dma_ex.c ****   }
 1255              		.loc 1 330 5 discriminator 28 view .LVU381
 1256 0378 1832     		adds	r2, r2, #24
 1257 037a 9342     		cmp	r3, r2
 1258 037c 0FD0     		beq	.L45
 330:Drivers/STM32H7xx_HAL_Driver/Src/stm32h7xx_hal_dma_ex.c ****   }
 1259              		.loc 1 330 5 discriminator 30 view .LVU382
 1260 037e 1A68     		ldr	r2, [r3]
 1261 0380 42F00102 		orr	r2, r2, #1
 1262 0384 1A60     		str	r2, [r3]
 219:Drivers/STM32H7xx_HAL_Driver/Src/stm32h7xx_hal_dma_ex.c ****   __IO uint32_t *ifcRegister_Base; /* DMA Stream Interrupt Clear register */
 1263              		.loc 1 219 21 view .LVU383
 1264 0386 0020     		movs	r0, #0
 1265 0388 4FE6     		b	.L31
 1266              	.L53:
 294:Drivers/STM32H7xx_HAL_Driver/Src/stm32h7xx_hal_dma_ex.c ****       {
 1267              		.loc 1 294 55 discriminator 1 view .LVU384
 1268 038a A36C     		ldr	r3, [r4, #72]
 294:Drivers/STM32H7xx_HAL_Driver/Src/stm32h7xx_hal_dma_ex.c ****       {
 1269              		.loc 1 294 47 discriminator 1 view .LVU385
 1270 038c 002B     		cmp	r3, #0
 1271 038e 7FF466AF 		bne	.L40
 1272 0392 69E7     		b	.L41
 1273              	.L52:
 305:Drivers/STM32H7xx_HAL_Driver/Src/stm32h7xx_hal_dma_ex.c ****       {
 1274              		.loc 1 305 55 discriminator 1 view .LVU386
 1275 0394 A36C     		ldr	r3, [r4, #72]
 305:Drivers/STM32H7xx_HAL_Driver/Src/stm32h7xx_hal_dma_ex.c ****       {
 1276              		.loc 1 305 47 discriminator 1 view .LVU387
 1277 0396 002B     		cmp	r3, #0
 1278 0398 7FF446AF 		bne	.L38
 1279 039c 64E7     		b	.L41
 1280              	.L45:
 330:Drivers/STM32H7xx_HAL_Driver/Src/stm32h7xx_hal_dma_ex.c ****   }
 1281              		.loc 1 330 5 discriminator 29 view .LVU388
 1282 039e 1A68     		ldr	r2, [r3]
 1283 03a0 42F00102 		orr	r2, r2, #1
 1284 03a4 1A60     		str	r2, [r3]
 219:Drivers/STM32H7xx_HAL_Driver/Src/stm32h7xx_hal_dma_ex.c ****   __IO uint32_t *ifcRegister_Base; /* DMA Stream Interrupt Clear register */
 1285              		.loc 1 219 21 view .LVU389
 1286 03a6 0020     		movs	r0, #0
 330:Drivers/STM32H7xx_HAL_Driver/Src/stm32h7xx_hal_dma_ex.c ****   }
 1287              		.loc 1 330 5 view .LVU390
ARM GAS  C:\Users\27655\AppData\Local\Temp\ccjI14Jp.s 			page 42


 1288 03a8 3FE6     		b	.L31
 1289              	.LVL45:
 1290              	.L47:
 234:Drivers/STM32H7xx_HAL_Driver/Src/stm32h7xx_hal_dma_ex.c **** 
 1291              		.loc 1 234 3 discriminator 1 view .LVU391
 1292 03aa 0220     		movs	r0, #2
 1293 03ac 3DE6     		b	.L31
 1294              	.L57:
 1295 03ae 00BF     		.align	2
 1296              	.L56:
 1297 03b0 10000240 		.word	1073872912
 1298 03b4 28000240 		.word	1073872936
 1299 03b8 08540258 		.word	1476547592
 1300              		.cfi_endproc
 1301              	.LFE147:
 1303              		.section	.text.HAL_DMAEx_ChangeMemory,"ax",%progbits
 1304              		.align	1
 1305              		.global	HAL_DMAEx_ChangeMemory
 1306              		.syntax unified
 1307              		.thumb
 1308              		.thumb_func
 1310              	HAL_DMAEx_ChangeMemory:
 1311              	.LVL46:
 1312              	.LFB148:
 358:Drivers/STM32H7xx_HAL_Driver/Src/stm32h7xx_hal_dma_ex.c ****   if(IS_DMA_STREAM_INSTANCE(hdma->Instance) != 0U) /* DMA1 or DMA2 instance */
 1313              		.loc 1 358 1 is_stmt 1 view -0
 1314              		.cfi_startproc
 1315              		@ args = 0, pretend = 0, frame = 0
 1316              		@ frame_needed = 0, uses_anonymous_args = 0
 1317              		@ link register save eliminated.
 358:Drivers/STM32H7xx_HAL_Driver/Src/stm32h7xx_hal_dma_ex.c ****   if(IS_DMA_STREAM_INSTANCE(hdma->Instance) != 0U) /* DMA1 or DMA2 instance */
 1318              		.loc 1 358 1 is_stmt 0 view .LVU393
 1319 0000 8C46     		mov	ip, r1
 1320 0002 1146     		mov	r1, r2
 1321              	.LVL47:
 359:Drivers/STM32H7xx_HAL_Driver/Src/stm32h7xx_hal_dma_ex.c ****   {
 1322              		.loc 1 359 3 is_stmt 1 view .LVU394
 359:Drivers/STM32H7xx_HAL_Driver/Src/stm32h7xx_hal_dma_ex.c ****   {
 1323              		.loc 1 359 6 is_stmt 0 view .LVU395
 1324 0004 0368     		ldr	r3, [r0]
 1325 0006 204A     		ldr	r2, .L65
 1326              	.LVL48:
 359:Drivers/STM32H7xx_HAL_Driver/Src/stm32h7xx_hal_dma_ex.c ****   {
 1327              		.loc 1 359 6 view .LVU396
 1328 0008 2048     		ldr	r0, .L65+4
 1329              	.LVL49:
 359:Drivers/STM32H7xx_HAL_Driver/Src/stm32h7xx_hal_dma_ex.c ****   {
 1330              		.loc 1 359 6 view .LVU397
 1331 000a 8342     		cmp	r3, r0
 1332 000c 18BF     		it	ne
 1333 000e 9342     		cmpne	r3, r2
 1334 0010 2ED0     		beq	.L59
 359:Drivers/STM32H7xx_HAL_Driver/Src/stm32h7xx_hal_dma_ex.c ****   {
 1335              		.loc 1 359 6 discriminator 2 view .LVU398
 1336 0012 3032     		adds	r2, r2, #48
 1337 0014 9342     		cmp	r3, r2
 1338 0016 2BD0     		beq	.L59
ARM GAS  C:\Users\27655\AppData\Local\Temp\ccjI14Jp.s 			page 43


 359:Drivers/STM32H7xx_HAL_Driver/Src/stm32h7xx_hal_dma_ex.c ****   {
 1339              		.loc 1 359 6 discriminator 4 view .LVU399
 1340 0018 1832     		adds	r2, r2, #24
 1341 001a 9342     		cmp	r3, r2
 1342 001c 28D0     		beq	.L59
 359:Drivers/STM32H7xx_HAL_Driver/Src/stm32h7xx_hal_dma_ex.c ****   {
 1343              		.loc 1 359 6 discriminator 6 view .LVU400
 1344 001e 1832     		adds	r2, r2, #24
 1345 0020 9342     		cmp	r3, r2
 1346 0022 25D0     		beq	.L59
 359:Drivers/STM32H7xx_HAL_Driver/Src/stm32h7xx_hal_dma_ex.c ****   {
 1347              		.loc 1 359 6 discriminator 8 view .LVU401
 1348 0024 1832     		adds	r2, r2, #24
 1349 0026 9342     		cmp	r3, r2
 1350 0028 22D0     		beq	.L59
 359:Drivers/STM32H7xx_HAL_Driver/Src/stm32h7xx_hal_dma_ex.c ****   {
 1351              		.loc 1 359 6 discriminator 10 view .LVU402
 1352 002a 1832     		adds	r2, r2, #24
 1353 002c 9342     		cmp	r3, r2
 1354 002e 1FD0     		beq	.L59
 359:Drivers/STM32H7xx_HAL_Driver/Src/stm32h7xx_hal_dma_ex.c ****   {
 1355              		.loc 1 359 6 discriminator 12 view .LVU403
 1356 0030 1832     		adds	r2, r2, #24
 1357 0032 9342     		cmp	r3, r2
 1358 0034 1CD0     		beq	.L59
 359:Drivers/STM32H7xx_HAL_Driver/Src/stm32h7xx_hal_dma_ex.c ****   {
 1359              		.loc 1 359 6 discriminator 14 view .LVU404
 1360 0036 02F55672 		add	r2, r2, #856
 1361 003a 9342     		cmp	r3, r2
 1362 003c 18D0     		beq	.L59
 359:Drivers/STM32H7xx_HAL_Driver/Src/stm32h7xx_hal_dma_ex.c ****   {
 1363              		.loc 1 359 6 discriminator 16 view .LVU405
 1364 003e 1832     		adds	r2, r2, #24
 1365 0040 9342     		cmp	r3, r2
 1366 0042 15D0     		beq	.L59
 359:Drivers/STM32H7xx_HAL_Driver/Src/stm32h7xx_hal_dma_ex.c ****   {
 1367              		.loc 1 359 6 discriminator 18 view .LVU406
 1368 0044 1832     		adds	r2, r2, #24
 1369 0046 9342     		cmp	r3, r2
 1370 0048 12D0     		beq	.L59
 359:Drivers/STM32H7xx_HAL_Driver/Src/stm32h7xx_hal_dma_ex.c ****   {
 1371              		.loc 1 359 6 discriminator 20 view .LVU407
 1372 004a 1832     		adds	r2, r2, #24
 1373 004c 9342     		cmp	r3, r2
 1374 004e 0FD0     		beq	.L59
 359:Drivers/STM32H7xx_HAL_Driver/Src/stm32h7xx_hal_dma_ex.c ****   {
 1375              		.loc 1 359 6 discriminator 22 view .LVU408
 1376 0050 1832     		adds	r2, r2, #24
 1377 0052 9342     		cmp	r3, r2
 1378 0054 0CD0     		beq	.L59
 359:Drivers/STM32H7xx_HAL_Driver/Src/stm32h7xx_hal_dma_ex.c ****   {
 1379              		.loc 1 359 6 discriminator 24 view .LVU409
 1380 0056 1832     		adds	r2, r2, #24
 1381 0058 9342     		cmp	r3, r2
 1382 005a 09D0     		beq	.L59
 359:Drivers/STM32H7xx_HAL_Driver/Src/stm32h7xx_hal_dma_ex.c ****   {
 1383              		.loc 1 359 6 discriminator 26 view .LVU410
ARM GAS  C:\Users\27655\AppData\Local\Temp\ccjI14Jp.s 			page 44


 1384 005c 1832     		adds	r2, r2, #24
 1385 005e 9342     		cmp	r3, r2
 1386 0060 06D0     		beq	.L59
 359:Drivers/STM32H7xx_HAL_Driver/Src/stm32h7xx_hal_dma_ex.c ****   {
 1387              		.loc 1 359 6 discriminator 28 view .LVU411
 1388 0062 1832     		adds	r2, r2, #24
 1389 0064 9342     		cmp	r3, r2
 1390 0066 03D0     		beq	.L59
 374:Drivers/STM32H7xx_HAL_Driver/Src/stm32h7xx_hal_dma_ex.c ****     {
 1391              		.loc 1 374 5 is_stmt 1 view .LVU412
 374:Drivers/STM32H7xx_HAL_Driver/Src/stm32h7xx_hal_dma_ex.c ****     {
 1392              		.loc 1 374 7 is_stmt 0 view .LVU413
 1393 0068 51B1     		cbz	r1, .L60
 382:Drivers/STM32H7xx_HAL_Driver/Src/stm32h7xx_hal_dma_ex.c ****     }
 1394              		.loc 1 382 7 is_stmt 1 view .LVU414
 382:Drivers/STM32H7xx_HAL_Driver/Src/stm32h7xx_hal_dma_ex.c ****     }
 1395              		.loc 1 382 57 is_stmt 0 view .LVU415
 1396 006a C3F810C0 		str	ip, [r3, #16]
 1397 006e 02E0     		b	.L63
 1398              	.L59:
 361:Drivers/STM32H7xx_HAL_Driver/Src/stm32h7xx_hal_dma_ex.c ****     {
 1399              		.loc 1 361 5 is_stmt 1 view .LVU416
 361:Drivers/STM32H7xx_HAL_Driver/Src/stm32h7xx_hal_dma_ex.c ****     {
 1400              		.loc 1 361 7 is_stmt 0 view .LVU417
 1401 0070 19B9     		cbnz	r1, .L62
 364:Drivers/STM32H7xx_HAL_Driver/Src/stm32h7xx_hal_dma_ex.c ****     }
 1402              		.loc 1 364 7 is_stmt 1 view .LVU418
 364:Drivers/STM32H7xx_HAL_Driver/Src/stm32h7xx_hal_dma_ex.c ****     }
 1403              		.loc 1 364 54 is_stmt 0 view .LVU419
 1404 0072 C3F80CC0 		str	ip, [r3, #12]
 1405              	.L63:
 386:Drivers/STM32H7xx_HAL_Driver/Src/stm32h7xx_hal_dma_ex.c **** }
 1406              		.loc 1 386 3 is_stmt 1 view .LVU420
 387:Drivers/STM32H7xx_HAL_Driver/Src/stm32h7xx_hal_dma_ex.c **** 
 1407              		.loc 1 387 1 is_stmt 0 view .LVU421
 1408 0076 0020     		movs	r0, #0
 1409 0078 7047     		bx	lr
 1410              	.L62:
 369:Drivers/STM32H7xx_HAL_Driver/Src/stm32h7xx_hal_dma_ex.c ****     }
 1411              		.loc 1 369 7 is_stmt 1 view .LVU422
 369:Drivers/STM32H7xx_HAL_Driver/Src/stm32h7xx_hal_dma_ex.c ****     }
 1412              		.loc 1 369 54 is_stmt 0 view .LVU423
 1413 007a C3F810C0 		str	ip, [r3, #16]
 1414 007e FAE7     		b	.L63
 1415              	.L60:
 377:Drivers/STM32H7xx_HAL_Driver/Src/stm32h7xx_hal_dma_ex.c ****     }
 1416              		.loc 1 377 7 is_stmt 1 view .LVU424
 377:Drivers/STM32H7xx_HAL_Driver/Src/stm32h7xx_hal_dma_ex.c ****     }
 1417              		.loc 1 377 57 is_stmt 0 view .LVU425
 1418 0080 C3F80CC0 		str	ip, [r3, #12]
 1419 0084 F7E7     		b	.L63
 1420              	.L66:
 1421 0086 00BF     		.align	2
 1422              	.L65:
 1423 0088 10000240 		.word	1073872912
 1424 008c 28000240 		.word	1073872936
 1425              		.cfi_endproc
ARM GAS  C:\Users\27655\AppData\Local\Temp\ccjI14Jp.s 			page 45


 1426              	.LFE148:
 1428              		.section	.text.HAL_DMAEx_ConfigMuxSync,"ax",%progbits
 1429              		.align	1
 1430              		.global	HAL_DMAEx_ConfigMuxSync
 1431              		.syntax unified
 1432              		.thumb
 1433              		.thumb_func
 1435              	HAL_DMAEx_ConfigMuxSync:
 1436              	.LVL50:
 1437              	.LFB149:
 397:Drivers/STM32H7xx_HAL_Driver/Src/stm32h7xx_hal_dma_ex.c ****   uint32_t syncSignalID = 0;
 1438              		.loc 1 397 1 is_stmt 1 view -0
 1439              		.cfi_startproc
 1440              		@ args = 0, pretend = 0, frame = 0
 1441              		@ frame_needed = 0, uses_anonymous_args = 0
 397:Drivers/STM32H7xx_HAL_Driver/Src/stm32h7xx_hal_dma_ex.c ****   uint32_t syncSignalID = 0;
 1442              		.loc 1 397 1 is_stmt 0 view .LVU427
 1443 0000 00B5     		push	{lr}
 1444              	.LCFI3:
 1445              		.cfi_def_cfa_offset 4
 1446              		.cfi_offset 14, -4
 398:Drivers/STM32H7xx_HAL_Driver/Src/stm32h7xx_hal_dma_ex.c ****   uint32_t syncPolarity = 0;
 1447              		.loc 1 398 3 is_stmt 1 view .LVU428
 1448              	.LVL51:
 399:Drivers/STM32H7xx_HAL_Driver/Src/stm32h7xx_hal_dma_ex.c **** 
 1449              		.loc 1 399 3 view .LVU429
 402:Drivers/STM32H7xx_HAL_Driver/Src/stm32h7xx_hal_dma_ex.c ****   assert_param(IS_DMAMUX_SYNC_STATE(pSyncConfig->SyncEnable));
 1450              		.loc 1 402 3 view .LVU430
 403:Drivers/STM32H7xx_HAL_Driver/Src/stm32h7xx_hal_dma_ex.c ****   assert_param(IS_DMAMUX_SYNC_EVENT(pSyncConfig->EventEnable));
 1451              		.loc 1 403 3 view .LVU431
 404:Drivers/STM32H7xx_HAL_Driver/Src/stm32h7xx_hal_dma_ex.c ****   assert_param(IS_DMAMUX_SYNC_REQUEST_NUMBER(pSyncConfig->RequestNumber));
 1452              		.loc 1 404 3 view .LVU432
 405:Drivers/STM32H7xx_HAL_Driver/Src/stm32h7xx_hal_dma_ex.c **** 
 1453              		.loc 1 405 3 view .LVU433
 407:Drivers/STM32H7xx_HAL_Driver/Src/stm32h7xx_hal_dma_ex.c ****   {
 1454              		.loc 1 407 3 view .LVU434
 407:Drivers/STM32H7xx_HAL_Driver/Src/stm32h7xx_hal_dma_ex.c ****   {
 1455              		.loc 1 407 17 is_stmt 0 view .LVU435
 1456 0002 0B7A     		ldrb	r3, [r1, #8]	@ zero_extendqisi2
 407:Drivers/STM32H7xx_HAL_Driver/Src/stm32h7xx_hal_dma_ex.c ****   {
 1457              		.loc 1 407 5 view .LVU436
 1458 0004 012B     		cmp	r3, #1
 1459 0006 2BD0     		beq	.L74
 399:Drivers/STM32H7xx_HAL_Driver/Src/stm32h7xx_hal_dma_ex.c **** 
 1460              		.loc 1 399 12 view .LVU437
 1461 0008 4FF0000C 		mov	ip, #0
 398:Drivers/STM32H7xx_HAL_Driver/Src/stm32h7xx_hal_dma_ex.c ****   uint32_t syncPolarity = 0;
 1462              		.loc 1 398 12 view .LVU438
 1463 000c E646     		mov	lr, ip
 1464              	.LVL52:
 1465              	.L68:
 424:Drivers/STM32H7xx_HAL_Driver/Src/stm32h7xx_hal_dma_ex.c ****   {
 1466              		.loc 1 424 3 is_stmt 1 view .LVU439
 424:Drivers/STM32H7xx_HAL_Driver/Src/stm32h7xx_hal_dma_ex.c ****   {
 1467              		.loc 1 424 10 is_stmt 0 view .LVU440
 1468 000e 90F83530 		ldrb	r3, [r0, #53]	@ zero_extendqisi2
 424:Drivers/STM32H7xx_HAL_Driver/Src/stm32h7xx_hal_dma_ex.c ****   {
ARM GAS  C:\Users\27655\AppData\Local\Temp\ccjI14Jp.s 			page 46


 1469              		.loc 1 424 5 view .LVU441
 1470 0012 012B     		cmp	r3, #1
 1471 0014 29D1     		bne	.L69
 427:Drivers/STM32H7xx_HAL_Driver/Src/stm32h7xx_hal_dma_ex.c **** 
 1472              		.loc 1 427 5 is_stmt 1 view .LVU442
 427:Drivers/STM32H7xx_HAL_Driver/Src/stm32h7xx_hal_dma_ex.c **** 
 1473              		.loc 1 427 5 view .LVU443
 1474 0016 90F83430 		ldrb	r3, [r0, #52]	@ zero_extendqisi2
 1475 001a 012B     		cmp	r3, #1
 1476 001c 2AD0     		beq	.L72
 427:Drivers/STM32H7xx_HAL_Driver/Src/stm32h7xx_hal_dma_ex.c **** 
 1477              		.loc 1 427 5 discriminator 2 view .LVU444
 1478 001e 0123     		movs	r3, #1
 1479 0020 80F83430 		strb	r3, [r0, #52]
 427:Drivers/STM32H7xx_HAL_Driver/Src/stm32h7xx_hal_dma_ex.c **** 
 1480              		.loc 1 427 5 view .LVU445
 430:Drivers/STM32H7xx_HAL_Driver/Src/stm32h7xx_hal_dma_ex.c **** 
 1481              		.loc 1 430 5 view .LVU446
 1482 0024 026E     		ldr	r2, [r0, #96]
 1483 0026 1368     		ldr	r3, [r2]
 1484 0028 23F48133 		bic	r3, r3, #66048
 1485 002c 1360     		str	r3, [r2]
 433:Drivers/STM32H7xx_HAL_Driver/Src/stm32h7xx_hal_dma_ex.c ****                (~DMAMUX_CxCR_DMAREQ_ID) , \
 1486              		.loc 1 433 5 view .LVU447
 1487 002e 036E     		ldr	r3, [r0, #96]
 1488 0030 1A68     		ldr	r2, [r3]
 1489 0032 D2B2     		uxtb	r2, r2
 1490 0034 CB68     		ldr	r3, [r1, #12]
 1491 0036 013B     		subs	r3, r3, #1
 1492 0038 DB04     		lsls	r3, r3, #19
 1493 003a 43EA0E63 		orr	r3, r3, lr, lsl #24
 1494 003e 43EA0C03 		orr	r3, r3, ip
 1495 0042 91F808C0 		ldrb	ip, [r1, #8]	@ zero_extendqisi2
 1496              	.LVL53:
 433:Drivers/STM32H7xx_HAL_Driver/Src/stm32h7xx_hal_dma_ex.c ****                (~DMAMUX_CxCR_DMAREQ_ID) , \
 1497              		.loc 1 433 5 is_stmt 0 view .LVU448
 1498 0046 43EA0C43 		orr	r3, r3, ip, lsl #16
 1499 004a 497A     		ldrb	r1, [r1, #9]	@ zero_extendqisi2
 1500              	.LVL54:
 433:Drivers/STM32H7xx_HAL_Driver/Src/stm32h7xx_hal_dma_ex.c ****                (~DMAMUX_CxCR_DMAREQ_ID) , \
 1501              		.loc 1 433 5 view .LVU449
 1502 004c 43EA4123 		orr	r3, r3, r1, lsl #9
 1503 0050 1343     		orrs	r3, r3, r2
 1504 0052 026E     		ldr	r2, [r0, #96]
 1505 0054 1360     		str	r3, [r2]
 441:Drivers/STM32H7xx_HAL_Driver/Src/stm32h7xx_hal_dma_ex.c **** 
 1506              		.loc 1 441 5 is_stmt 1 view .LVU450
 441:Drivers/STM32H7xx_HAL_Driver/Src/stm32h7xx_hal_dma_ex.c **** 
 1507              		.loc 1 441 5 view .LVU451
 1508 0056 0023     		movs	r3, #0
 1509 0058 80F83430 		strb	r3, [r0, #52]
 441:Drivers/STM32H7xx_HAL_Driver/Src/stm32h7xx_hal_dma_ex.c **** 
 1510              		.loc 1 441 5 view .LVU452
 443:Drivers/STM32H7xx_HAL_Driver/Src/stm32h7xx_hal_dma_ex.c ****   }
 1511              		.loc 1 443 5 view .LVU453
 443:Drivers/STM32H7xx_HAL_Driver/Src/stm32h7xx_hal_dma_ex.c ****   }
 1512              		.loc 1 443 12 is_stmt 0 view .LVU454
ARM GAS  C:\Users\27655\AppData\Local\Temp\ccjI14Jp.s 			page 47


 1513 005c 1846     		mov	r0, r3
 1514              	.LVL55:
 443:Drivers/STM32H7xx_HAL_Driver/Src/stm32h7xx_hal_dma_ex.c ****   }
 1515              		.loc 1 443 12 view .LVU455
 1516 005e 08E0     		b	.L70
 1517              	.LVL56:
 1518              	.L74:
 409:Drivers/STM32H7xx_HAL_Driver/Src/stm32h7xx_hal_dma_ex.c **** 
 1519              		.loc 1 409 5 is_stmt 1 view .LVU456
 411:Drivers/STM32H7xx_HAL_Driver/Src/stm32h7xx_hal_dma_ex.c ****     {
 1520              		.loc 1 411 5 view .LVU457
 413:Drivers/STM32H7xx_HAL_Driver/Src/stm32h7xx_hal_dma_ex.c ****     }
 1521              		.loc 1 413 7 view .LVU458
 417:Drivers/STM32H7xx_HAL_Driver/Src/stm32h7xx_hal_dma_ex.c ****     }
 1522              		.loc 1 417 7 view .LVU459
 419:Drivers/STM32H7xx_HAL_Driver/Src/stm32h7xx_hal_dma_ex.c ****     syncPolarity = pSyncConfig->SyncPolarity;
 1523              		.loc 1 419 5 view .LVU460
 419:Drivers/STM32H7xx_HAL_Driver/Src/stm32h7xx_hal_dma_ex.c ****     syncPolarity = pSyncConfig->SyncPolarity;
 1524              		.loc 1 419 18 is_stmt 0 view .LVU461
 1525 0060 D1F800E0 		ldr	lr, [r1]
 1526              	.LVL57:
 420:Drivers/STM32H7xx_HAL_Driver/Src/stm32h7xx_hal_dma_ex.c ****   }
 1527              		.loc 1 420 5 is_stmt 1 view .LVU462
 420:Drivers/STM32H7xx_HAL_Driver/Src/stm32h7xx_hal_dma_ex.c ****   }
 1528              		.loc 1 420 18 is_stmt 0 view .LVU463
 1529 0064 D1F804C0 		ldr	ip, [r1, #4]
 1530              	.LVL58:
 420:Drivers/STM32H7xx_HAL_Driver/Src/stm32h7xx_hal_dma_ex.c ****   }
 1531              		.loc 1 420 18 view .LVU464
 1532 0068 D1E7     		b	.L68
 1533              	.L69:
 448:Drivers/STM32H7xx_HAL_Driver/Src/stm32h7xx_hal_dma_ex.c **** 
 1534              		.loc 1 448 5 is_stmt 1 view .LVU465
 448:Drivers/STM32H7xx_HAL_Driver/Src/stm32h7xx_hal_dma_ex.c **** 
 1535              		.loc 1 448 21 is_stmt 0 view .LVU466
 1536 006a 4FF40063 		mov	r3, #2048
 1537 006e 4365     		str	r3, [r0, #84]
 451:Drivers/STM32H7xx_HAL_Driver/Src/stm32h7xx_hal_dma_ex.c ****   }
 1538              		.loc 1 451 5 is_stmt 1 view .LVU467
 451:Drivers/STM32H7xx_HAL_Driver/Src/stm32h7xx_hal_dma_ex.c ****   }
 1539              		.loc 1 451 12 is_stmt 0 view .LVU468
 1540 0070 0120     		movs	r0, #1
 1541              	.LVL59:
 1542              	.L70:
 453:Drivers/STM32H7xx_HAL_Driver/Src/stm32h7xx_hal_dma_ex.c **** 
 1543              		.loc 1 453 1 view .LVU469
 1544 0072 00BD     		pop	{pc}
 1545              	.LVL60:
 1546              	.L72:
 427:Drivers/STM32H7xx_HAL_Driver/Src/stm32h7xx_hal_dma_ex.c **** 
 1547              		.loc 1 427 5 discriminator 1 view .LVU470
 1548 0074 0220     		movs	r0, #2
 1549              	.LVL61:
 427:Drivers/STM32H7xx_HAL_Driver/Src/stm32h7xx_hal_dma_ex.c **** 
 1550              		.loc 1 427 5 discriminator 1 view .LVU471
 1551 0076 FCE7     		b	.L70
 1552              		.cfi_endproc
ARM GAS  C:\Users\27655\AppData\Local\Temp\ccjI14Jp.s 			page 48


 1553              	.LFE149:
 1555              		.section	.text.HAL_DMAEx_ConfigMuxRequestGenerator,"ax",%progbits
 1556              		.align	1
 1557              		.global	HAL_DMAEx_ConfigMuxRequestGenerator
 1558              		.syntax unified
 1559              		.thumb
 1560              		.thumb_func
 1562              	HAL_DMAEx_ConfigMuxRequestGenerator:
 1563              	.LVL62:
 1564              	.LFB150:
 465:Drivers/STM32H7xx_HAL_Driver/Src/stm32h7xx_hal_dma_ex.c ****   HAL_StatusTypeDef status;
 1565              		.loc 1 465 1 is_stmt 1 view -0
 1566              		.cfi_startproc
 1567              		@ args = 0, pretend = 0, frame = 0
 1568              		@ frame_needed = 0, uses_anonymous_args = 0
 1569              		@ link register save eliminated.
 466:Drivers/STM32H7xx_HAL_Driver/Src/stm32h7xx_hal_dma_ex.c ****   HAL_DMA_StateTypeDef temp_state = hdma->State;
 1570              		.loc 1 466 3 view .LVU473
 467:Drivers/STM32H7xx_HAL_Driver/Src/stm32h7xx_hal_dma_ex.c **** 
 1571              		.loc 1 467 3 view .LVU474
 467:Drivers/STM32H7xx_HAL_Driver/Src/stm32h7xx_hal_dma_ex.c **** 
 1572              		.loc 1 467 24 is_stmt 0 view .LVU475
 1573 0000 90F83530 		ldrb	r3, [r0, #53]	@ zero_extendqisi2
 1574              	.LVL63:
 470:Drivers/STM32H7xx_HAL_Driver/Src/stm32h7xx_hal_dma_ex.c **** 
 1575              		.loc 1 470 3 is_stmt 1 view .LVU476
 472:Drivers/STM32H7xx_HAL_Driver/Src/stm32h7xx_hal_dma_ex.c ****   {
 1576              		.loc 1 472 3 view .LVU477
 474:Drivers/STM32H7xx_HAL_Driver/Src/stm32h7xx_hal_dma_ex.c ****   }
 1577              		.loc 1 474 5 view .LVU478
 478:Drivers/STM32H7xx_HAL_Driver/Src/stm32h7xx_hal_dma_ex.c ****   }
 1578              		.loc 1 478 5 view .LVU479
 482:Drivers/STM32H7xx_HAL_Driver/Src/stm32h7xx_hal_dma_ex.c ****   assert_param(IS_DMAMUX_REQUEST_GEN_REQUEST_NUMBER(pRequestGeneratorConfig->RequestNumber));
 1579              		.loc 1 482 3 view .LVU480
 483:Drivers/STM32H7xx_HAL_Driver/Src/stm32h7xx_hal_dma_ex.c **** 
 1580              		.loc 1 483 3 view .LVU481
 488:Drivers/STM32H7xx_HAL_Driver/Src/stm32h7xx_hal_dma_ex.c ****   {
 1581              		.loc 1 488 3 view .LVU482
 488:Drivers/STM32H7xx_HAL_Driver/Src/stm32h7xx_hal_dma_ex.c ****   {
 1582              		.loc 1 488 10 is_stmt 0 view .LVU483
 1583 0004 C26E     		ldr	r2, [r0, #108]
 488:Drivers/STM32H7xx_HAL_Driver/Src/stm32h7xx_hal_dma_ex.c ****   {
 1584              		.loc 1 488 5 view .LVU484
 1585 0006 62B1     		cbz	r2, .L84
 1586 0008 DBB2     		uxtb	r3, r3
 496:Drivers/STM32H7xx_HAL_Driver/Src/stm32h7xx_hal_dma_ex.c ****   {
 1587              		.loc 1 496 8 is_stmt 1 view .LVU485
 496:Drivers/STM32H7xx_HAL_Driver/Src/stm32h7xx_hal_dma_ex.c ****   {
 1588              		.loc 1 496 35 is_stmt 0 view .LVU486
 1589 000a D2F800C0 		ldr	ip, [r2]
 496:Drivers/STM32H7xx_HAL_Driver/Src/stm32h7xx_hal_dma_ex.c ****   {
 1590              		.loc 1 496 10 view .LVU487
 1591 000e 1CF4803F 		tst	ip, #65536
 1592 0012 01D1     		bne	.L78
 496:Drivers/STM32H7xx_HAL_Driver/Src/stm32h7xx_hal_dma_ex.c ****   {
 1593              		.loc 1 496 68 discriminator 1 view .LVU488
 1594 0014 012B     		cmp	r3, #1
ARM GAS  C:\Users\27655\AppData\Local\Temp\ccjI14Jp.s 			page 49


 1595 0016 08D0     		beq	.L85
 1596              	.L78:
 515:Drivers/STM32H7xx_HAL_Driver/Src/stm32h7xx_hal_dma_ex.c **** 
 1597              		.loc 1 515 5 is_stmt 1 view .LVU489
 515:Drivers/STM32H7xx_HAL_Driver/Src/stm32h7xx_hal_dma_ex.c **** 
 1598              		.loc 1 515 21 is_stmt 0 view .LVU490
 1599 0018 4FF40063 		mov	r3, #2048
 1600              	.LVL64:
 515:Drivers/STM32H7xx_HAL_Driver/Src/stm32h7xx_hal_dma_ex.c **** 
 1601              		.loc 1 515 21 view .LVU491
 1602 001c 4365     		str	r3, [r0, #84]
 518:Drivers/STM32H7xx_HAL_Driver/Src/stm32h7xx_hal_dma_ex.c ****   }
 1603              		.loc 1 518 5 is_stmt 1 view .LVU492
 1604              	.LVL65:
 521:Drivers/STM32H7xx_HAL_Driver/Src/stm32h7xx_hal_dma_ex.c **** }
 1605              		.loc 1 521 10 is_stmt 0 view .LVU493
 1606 001e 0120     		movs	r0, #1
 1607              	.LVL66:
 521:Drivers/STM32H7xx_HAL_Driver/Src/stm32h7xx_hal_dma_ex.c **** }
 1608              		.loc 1 521 10 view .LVU494
 1609 0020 7047     		bx	lr
 1610              	.LVL67:
 1611              	.L84:
 491:Drivers/STM32H7xx_HAL_Driver/Src/stm32h7xx_hal_dma_ex.c **** 
 1612              		.loc 1 491 5 is_stmt 1 view .LVU495
 491:Drivers/STM32H7xx_HAL_Driver/Src/stm32h7xx_hal_dma_ex.c **** 
 1613              		.loc 1 491 21 is_stmt 0 view .LVU496
 1614 0022 4023     		movs	r3, #64
 1615              	.LVL68:
 491:Drivers/STM32H7xx_HAL_Driver/Src/stm32h7xx_hal_dma_ex.c **** 
 1616              		.loc 1 491 21 view .LVU497
 1617 0024 4365     		str	r3, [r0, #84]
 494:Drivers/STM32H7xx_HAL_Driver/Src/stm32h7xx_hal_dma_ex.c ****   }
 1618              		.loc 1 494 5 is_stmt 1 view .LVU498
 1619              	.LVL69:
 521:Drivers/STM32H7xx_HAL_Driver/Src/stm32h7xx_hal_dma_ex.c **** }
 1620              		.loc 1 521 10 is_stmt 0 view .LVU499
 1621 0026 0120     		movs	r0, #1
 1622              	.LVL70:
 521:Drivers/STM32H7xx_HAL_Driver/Src/stm32h7xx_hal_dma_ex.c **** }
 1623              		.loc 1 521 10 view .LVU500
 1624 0028 7047     		bx	lr
 1625              	.LVL71:
 1626              	.L85:
 501:Drivers/STM32H7xx_HAL_Driver/Src/stm32h7xx_hal_dma_ex.c **** 
 1627              		.loc 1 501 5 is_stmt 1 view .LVU501
 501:Drivers/STM32H7xx_HAL_Driver/Src/stm32h7xx_hal_dma_ex.c **** 
 1628              		.loc 1 501 5 view .LVU502
 1629 002a 90F83430 		ldrb	r3, [r0, #52]	@ zero_extendqisi2
 1630              	.LVL72:
 501:Drivers/STM32H7xx_HAL_Driver/Src/stm32h7xx_hal_dma_ex.c **** 
 1631              		.loc 1 501 5 is_stmt 0 view .LVU503
 1632 002e 012B     		cmp	r3, #1
 1633 0030 12D0     		beq	.L79
 465:Drivers/STM32H7xx_HAL_Driver/Src/stm32h7xx_hal_dma_ex.c ****   HAL_StatusTypeDef status;
 1634              		.loc 1 465 1 view .LVU504
 1635 0032 10B4     		push	{r4}
ARM GAS  C:\Users\27655\AppData\Local\Temp\ccjI14Jp.s 			page 50


 1636              	.LCFI4:
 1637              		.cfi_def_cfa_offset 4
 1638              		.cfi_offset 4, -4
 501:Drivers/STM32H7xx_HAL_Driver/Src/stm32h7xx_hal_dma_ex.c **** 
 1639              		.loc 1 501 5 is_stmt 1 discriminator 2 view .LVU505
 1640 0034 0123     		movs	r3, #1
 1641 0036 80F83430 		strb	r3, [r0, #52]
 501:Drivers/STM32H7xx_HAL_Driver/Src/stm32h7xx_hal_dma_ex.c **** 
 1642              		.loc 1 501 5 view .LVU506
 504:Drivers/STM32H7xx_HAL_Driver/Src/stm32h7xx_hal_dma_ex.c ****                                   ((pRequestGeneratorConfig->RequestNumber - 1U) << DMAMUX_RGxCR_GN
 1643              		.loc 1 504 5 view .LVU507
 504:Drivers/STM32H7xx_HAL_Driver/Src/stm32h7xx_hal_dma_ex.c ****                                   ((pRequestGeneratorConfig->RequestNumber - 1U) << DMAMUX_RGxCR_GN
 1644              		.loc 1 504 59 is_stmt 0 view .LVU508
 1645 003a 0B68     		ldr	r3, [r1]
 505:Drivers/STM32H7xx_HAL_Driver/Src/stm32h7xx_hal_dma_ex.c ****                                   pRequestGeneratorConfig->Polarity;
 1646              		.loc 1 505 76 view .LVU509
 1647 003c 8C68     		ldr	r4, [r1, #8]
 1648 003e 04F1FF3C 		add	ip, r4, #-1
 504:Drivers/STM32H7xx_HAL_Driver/Src/stm32h7xx_hal_dma_ex.c ****                                   ((pRequestGeneratorConfig->RequestNumber - 1U) << DMAMUX_RGxCR_GN
 1649              		.loc 1 504 70 view .LVU510
 1650 0042 43EACC43 		orr	r3, r3, ip, lsl #19
 506:Drivers/STM32H7xx_HAL_Driver/Src/stm32h7xx_hal_dma_ex.c ****     /* Process Locked */
 1651              		.loc 1 506 58 view .LVU511
 1652 0046 4968     		ldr	r1, [r1, #4]
 1653              	.LVL73:
 505:Drivers/STM32H7xx_HAL_Driver/Src/stm32h7xx_hal_dma_ex.c ****                                   pRequestGeneratorConfig->Polarity;
 1654              		.loc 1 505 109 view .LVU512
 1655 0048 0B43     		orrs	r3, r3, r1
 504:Drivers/STM32H7xx_HAL_Driver/Src/stm32h7xx_hal_dma_ex.c ****                                   ((pRequestGeneratorConfig->RequestNumber - 1U) << DMAMUX_RGxCR_GN
 1656              		.loc 1 504 34 view .LVU513
 1657 004a 1360     		str	r3, [r2]
 508:Drivers/STM32H7xx_HAL_Driver/Src/stm32h7xx_hal_dma_ex.c **** 
 1658              		.loc 1 508 5 is_stmt 1 view .LVU514
 508:Drivers/STM32H7xx_HAL_Driver/Src/stm32h7xx_hal_dma_ex.c **** 
 1659              		.loc 1 508 5 view .LVU515
 1660 004c 0023     		movs	r3, #0
 1661 004e 80F83430 		strb	r3, [r0, #52]
 508:Drivers/STM32H7xx_HAL_Driver/Src/stm32h7xx_hal_dma_ex.c **** 
 1662              		.loc 1 508 5 view .LVU516
 510:Drivers/STM32H7xx_HAL_Driver/Src/stm32h7xx_hal_dma_ex.c ****   }
 1663              		.loc 1 510 5 view .LVU517
 510:Drivers/STM32H7xx_HAL_Driver/Src/stm32h7xx_hal_dma_ex.c ****   }
 1664              		.loc 1 510 12 is_stmt 0 view .LVU518
 1665 0052 1846     		mov	r0, r3
 1666              	.LVL74:
 522:Drivers/STM32H7xx_HAL_Driver/Src/stm32h7xx_hal_dma_ex.c **** 
 1667              		.loc 1 522 1 view .LVU519
 1668 0054 10BC     		pop	{r4}
 1669              	.LCFI5:
 1670              		.cfi_restore 4
 1671              		.cfi_def_cfa_offset 0
 1672 0056 7047     		bx	lr
 1673              	.LVL75:
 1674              	.L79:
 501:Drivers/STM32H7xx_HAL_Driver/Src/stm32h7xx_hal_dma_ex.c **** 
 1675              		.loc 1 501 5 discriminator 1 view .LVU520
 1676 0058 0220     		movs	r0, #2
ARM GAS  C:\Users\27655\AppData\Local\Temp\ccjI14Jp.s 			page 51


 1677              	.LVL76:
 522:Drivers/STM32H7xx_HAL_Driver/Src/stm32h7xx_hal_dma_ex.c **** 
 1678              		.loc 1 522 1 view .LVU521
 1679 005a 7047     		bx	lr
 1680              		.cfi_endproc
 1681              	.LFE150:
 1683              		.section	.text.HAL_DMAEx_EnableMuxRequestGenerator,"ax",%progbits
 1684              		.align	1
 1685              		.global	HAL_DMAEx_EnableMuxRequestGenerator
 1686              		.syntax unified
 1687              		.thumb
 1688              		.thumb_func
 1690              	HAL_DMAEx_EnableMuxRequestGenerator:
 1691              	.LVL77:
 1692              	.LFB151:
 531:Drivers/STM32H7xx_HAL_Driver/Src/stm32h7xx_hal_dma_ex.c ****   /* Check the parameters */
 1693              		.loc 1 531 1 is_stmt 1 view -0
 1694              		.cfi_startproc
 1695              		@ args = 0, pretend = 0, frame = 0
 1696              		@ frame_needed = 0, uses_anonymous_args = 0
 1697              		@ link register save eliminated.
 533:Drivers/STM32H7xx_HAL_Driver/Src/stm32h7xx_hal_dma_ex.c **** 
 1698              		.loc 1 533 3 view .LVU523
 537:Drivers/STM32H7xx_HAL_Driver/Src/stm32h7xx_hal_dma_ex.c ****   {
 1699              		.loc 1 537 3 view .LVU524
 537:Drivers/STM32H7xx_HAL_Driver/Src/stm32h7xx_hal_dma_ex.c ****   {
 1700              		.loc 1 537 11 is_stmt 0 view .LVU525
 1701 0000 90F83530 		ldrb	r3, [r0, #53]	@ zero_extendqisi2
 537:Drivers/STM32H7xx_HAL_Driver/Src/stm32h7xx_hal_dma_ex.c ****   {
 1702              		.loc 1 537 5 view .LVU526
 1703 0004 3BB1     		cbz	r3, .L88
 537:Drivers/STM32H7xx_HAL_Driver/Src/stm32h7xx_hal_dma_ex.c ****   {
 1704              		.loc 1 537 51 discriminator 1 view .LVU527
 1705 0006 C36E     		ldr	r3, [r0, #108]
 537:Drivers/STM32H7xx_HAL_Driver/Src/stm32h7xx_hal_dma_ex.c ****   {
 1706              		.loc 1 537 43 discriminator 1 view .LVU528
 1707 0008 3BB1     		cbz	r3, .L89
 540:Drivers/STM32H7xx_HAL_Driver/Src/stm32h7xx_hal_dma_ex.c **** 
 1708              		.loc 1 540 5 is_stmt 1 view .LVU529
 540:Drivers/STM32H7xx_HAL_Driver/Src/stm32h7xx_hal_dma_ex.c **** 
 1709              		.loc 1 540 27 is_stmt 0 view .LVU530
 1710 000a 1A68     		ldr	r2, [r3]
 540:Drivers/STM32H7xx_HAL_Driver/Src/stm32h7xx_hal_dma_ex.c **** 
 1711              		.loc 1 540 34 view .LVU531
 1712 000c 42F48032 		orr	r2, r2, #65536
 1713 0010 1A60     		str	r2, [r3]
 542:Drivers/STM32H7xx_HAL_Driver/Src/stm32h7xx_hal_dma_ex.c ****  }
 1714              		.loc 1 542 4 is_stmt 1 view .LVU532
 542:Drivers/STM32H7xx_HAL_Driver/Src/stm32h7xx_hal_dma_ex.c ****  }
 1715              		.loc 1 542 11 is_stmt 0 view .LVU533
 1716 0012 0020     		movs	r0, #0
 1717              	.LVL78:
 542:Drivers/STM32H7xx_HAL_Driver/Src/stm32h7xx_hal_dma_ex.c ****  }
 1718              		.loc 1 542 11 view .LVU534
 1719 0014 7047     		bx	lr
 1720              	.LVL79:
 1721              	.L88:
ARM GAS  C:\Users\27655\AppData\Local\Temp\ccjI14Jp.s 			page 52


 546:Drivers/STM32H7xx_HAL_Driver/Src/stm32h7xx_hal_dma_ex.c ****  }
 1722              		.loc 1 546 11 view .LVU535
 1723 0016 0120     		movs	r0, #1
 1724              	.LVL80:
 546:Drivers/STM32H7xx_HAL_Driver/Src/stm32h7xx_hal_dma_ex.c ****  }
 1725              		.loc 1 546 11 view .LVU536
 1726 0018 7047     		bx	lr
 1727              	.LVL81:
 1728              	.L89:
 546:Drivers/STM32H7xx_HAL_Driver/Src/stm32h7xx_hal_dma_ex.c ****  }
 1729              		.loc 1 546 11 view .LVU537
 1730 001a 0120     		movs	r0, #1
 1731              	.LVL82:
 548:Drivers/STM32H7xx_HAL_Driver/Src/stm32h7xx_hal_dma_ex.c **** 
 1732              		.loc 1 548 1 view .LVU538
 1733 001c 7047     		bx	lr
 1734              		.cfi_endproc
 1735              	.LFE151:
 1737              		.section	.text.HAL_DMAEx_DisableMuxRequestGenerator,"ax",%progbits
 1738              		.align	1
 1739              		.global	HAL_DMAEx_DisableMuxRequestGenerator
 1740              		.syntax unified
 1741              		.thumb
 1742              		.thumb_func
 1744              	HAL_DMAEx_DisableMuxRequestGenerator:
 1745              	.LVL83:
 1746              	.LFB152:
 557:Drivers/STM32H7xx_HAL_Driver/Src/stm32h7xx_hal_dma_ex.c ****   /* Check the parameters */
 1747              		.loc 1 557 1 is_stmt 1 view -0
 1748              		.cfi_startproc
 1749              		@ args = 0, pretend = 0, frame = 0
 1750              		@ frame_needed = 0, uses_anonymous_args = 0
 1751              		@ link register save eliminated.
 559:Drivers/STM32H7xx_HAL_Driver/Src/stm32h7xx_hal_dma_ex.c **** 
 1752              		.loc 1 559 3 view .LVU540
 563:Drivers/STM32H7xx_HAL_Driver/Src/stm32h7xx_hal_dma_ex.c ****   {
 1753              		.loc 1 563 3 view .LVU541
 563:Drivers/STM32H7xx_HAL_Driver/Src/stm32h7xx_hal_dma_ex.c ****   {
 1754              		.loc 1 563 11 is_stmt 0 view .LVU542
 1755 0000 90F83530 		ldrb	r3, [r0, #53]	@ zero_extendqisi2
 563:Drivers/STM32H7xx_HAL_Driver/Src/stm32h7xx_hal_dma_ex.c ****   {
 1756              		.loc 1 563 5 view .LVU543
 1757 0004 3BB1     		cbz	r3, .L92
 563:Drivers/STM32H7xx_HAL_Driver/Src/stm32h7xx_hal_dma_ex.c ****   {
 1758              		.loc 1 563 51 discriminator 1 view .LVU544
 1759 0006 C36E     		ldr	r3, [r0, #108]
 563:Drivers/STM32H7xx_HAL_Driver/Src/stm32h7xx_hal_dma_ex.c ****   {
 1760              		.loc 1 563 43 discriminator 1 view .LVU545
 1761 0008 3BB1     		cbz	r3, .L93
 566:Drivers/STM32H7xx_HAL_Driver/Src/stm32h7xx_hal_dma_ex.c **** 
 1762              		.loc 1 566 5 is_stmt 1 view .LVU546
 566:Drivers/STM32H7xx_HAL_Driver/Src/stm32h7xx_hal_dma_ex.c **** 
 1763              		.loc 1 566 27 is_stmt 0 view .LVU547
 1764 000a 1A68     		ldr	r2, [r3]
 566:Drivers/STM32H7xx_HAL_Driver/Src/stm32h7xx_hal_dma_ex.c **** 
 1765              		.loc 1 566 34 view .LVU548
 1766 000c 22F48032 		bic	r2, r2, #65536
ARM GAS  C:\Users\27655\AppData\Local\Temp\ccjI14Jp.s 			page 53


 1767 0010 1A60     		str	r2, [r3]
 568:Drivers/STM32H7xx_HAL_Driver/Src/stm32h7xx_hal_dma_ex.c ****  }
 1768              		.loc 1 568 4 is_stmt 1 view .LVU549
 568:Drivers/STM32H7xx_HAL_Driver/Src/stm32h7xx_hal_dma_ex.c ****  }
 1769              		.loc 1 568 11 is_stmt 0 view .LVU550
 1770 0012 0020     		movs	r0, #0
 1771              	.LVL84:
 568:Drivers/STM32H7xx_HAL_Driver/Src/stm32h7xx_hal_dma_ex.c ****  }
 1772              		.loc 1 568 11 view .LVU551
 1773 0014 7047     		bx	lr
 1774              	.LVL85:
 1775              	.L92:
 572:Drivers/STM32H7xx_HAL_Driver/Src/stm32h7xx_hal_dma_ex.c ****  }
 1776              		.loc 1 572 11 view .LVU552
 1777 0016 0120     		movs	r0, #1
 1778              	.LVL86:
 572:Drivers/STM32H7xx_HAL_Driver/Src/stm32h7xx_hal_dma_ex.c ****  }
 1779              		.loc 1 572 11 view .LVU553
 1780 0018 7047     		bx	lr
 1781              	.LVL87:
 1782              	.L93:
 572:Drivers/STM32H7xx_HAL_Driver/Src/stm32h7xx_hal_dma_ex.c ****  }
 1783              		.loc 1 572 11 view .LVU554
 1784 001a 0120     		movs	r0, #1
 1785              	.LVL88:
 574:Drivers/STM32H7xx_HAL_Driver/Src/stm32h7xx_hal_dma_ex.c **** 
 1786              		.loc 1 574 1 view .LVU555
 1787 001c 7047     		bx	lr
 1788              		.cfi_endproc
 1789              	.LFE152:
 1791              		.section	.text.HAL_DMAEx_MUX_IRQHandler,"ax",%progbits
 1792              		.align	1
 1793              		.global	HAL_DMAEx_MUX_IRQHandler
 1794              		.syntax unified
 1795              		.thumb
 1796              		.thumb_func
 1798              	HAL_DMAEx_MUX_IRQHandler:
 1799              	.LVL89:
 1800              	.LFB153:
 583:Drivers/STM32H7xx_HAL_Driver/Src/stm32h7xx_hal_dma_ex.c ****   /* Check for DMAMUX Synchronization overrun */
 1801              		.loc 1 583 1 is_stmt 1 view -0
 1802              		.cfi_startproc
 1803              		@ args = 0, pretend = 0, frame = 0
 1804              		@ frame_needed = 0, uses_anonymous_args = 0
 583:Drivers/STM32H7xx_HAL_Driver/Src/stm32h7xx_hal_dma_ex.c ****   /* Check for DMAMUX Synchronization overrun */
 1805              		.loc 1 583 1 is_stmt 0 view .LVU557
 1806 0000 10B5     		push	{r4, lr}
 1807              	.LCFI6:
 1808              		.cfi_def_cfa_offset 8
 1809              		.cfi_offset 4, -8
 1810              		.cfi_offset 14, -4
 1811 0002 0446     		mov	r4, r0
 585:Drivers/STM32H7xx_HAL_Driver/Src/stm32h7xx_hal_dma_ex.c ****   {
 1812              		.loc 1 585 3 is_stmt 1 view .LVU558
 585:Drivers/STM32H7xx_HAL_Driver/Src/stm32h7xx_hal_dma_ex.c ****   {
 1813              		.loc 1 585 11 is_stmt 0 view .LVU559
 1814 0004 436E     		ldr	r3, [r0, #100]
ARM GAS  C:\Users\27655\AppData\Local\Temp\ccjI14Jp.s 			page 54


 585:Drivers/STM32H7xx_HAL_Driver/Src/stm32h7xx_hal_dma_ex.c ****   {
 1815              		.loc 1 585 32 view .LVU560
 1816 0006 1A68     		ldr	r2, [r3]
 585:Drivers/STM32H7xx_HAL_Driver/Src/stm32h7xx_hal_dma_ex.c ****   {
 1817              		.loc 1 585 44 view .LVU561
 1818 0008 836E     		ldr	r3, [r0, #104]
 585:Drivers/STM32H7xx_HAL_Driver/Src/stm32h7xx_hal_dma_ex.c ****   {
 1819              		.loc 1 585 5 view .LVU562
 1820 000a 1A42     		tst	r2, r3
 1821 000c 0ED0     		beq	.L95
 588:Drivers/STM32H7xx_HAL_Driver/Src/stm32h7xx_hal_dma_ex.c **** 
 1822              		.loc 1 588 5 is_stmt 1 view .LVU563
 588:Drivers/STM32H7xx_HAL_Driver/Src/stm32h7xx_hal_dma_ex.c **** 
 1823              		.loc 1 588 9 is_stmt 0 view .LVU564
 1824 000e 026E     		ldr	r2, [r0, #96]
 588:Drivers/STM32H7xx_HAL_Driver/Src/stm32h7xx_hal_dma_ex.c **** 
 1825              		.loc 1 588 24 view .LVU565
 1826 0010 1368     		ldr	r3, [r2]
 588:Drivers/STM32H7xx_HAL_Driver/Src/stm32h7xx_hal_dma_ex.c **** 
 1827              		.loc 1 588 30 view .LVU566
 1828 0012 23F48073 		bic	r3, r3, #256
 1829 0016 1360     		str	r3, [r2]
 591:Drivers/STM32H7xx_HAL_Driver/Src/stm32h7xx_hal_dma_ex.c **** 
 1830              		.loc 1 591 5 is_stmt 1 view .LVU567
 591:Drivers/STM32H7xx_HAL_Driver/Src/stm32h7xx_hal_dma_ex.c **** 
 1831              		.loc 1 591 9 is_stmt 0 view .LVU568
 1832 0018 436E     		ldr	r3, [r0, #100]
 591:Drivers/STM32H7xx_HAL_Driver/Src/stm32h7xx_hal_dma_ex.c **** 
 1833              		.loc 1 591 42 view .LVU569
 1834 001a 826E     		ldr	r2, [r0, #104]
 591:Drivers/STM32H7xx_HAL_Driver/Src/stm32h7xx_hal_dma_ex.c **** 
 1835              		.loc 1 591 36 view .LVU570
 1836 001c 5A60     		str	r2, [r3, #4]
 594:Drivers/STM32H7xx_HAL_Driver/Src/stm32h7xx_hal_dma_ex.c **** 
 1837              		.loc 1 594 5 is_stmt 1 view .LVU571
 594:Drivers/STM32H7xx_HAL_Driver/Src/stm32h7xx_hal_dma_ex.c **** 
 1838              		.loc 1 594 9 is_stmt 0 view .LVU572
 1839 001e 436D     		ldr	r3, [r0, #84]
 594:Drivers/STM32H7xx_HAL_Driver/Src/stm32h7xx_hal_dma_ex.c **** 
 1840              		.loc 1 594 21 view .LVU573
 1841 0020 43F40073 		orr	r3, r3, #512
 1842 0024 4365     		str	r3, [r0, #84]
 596:Drivers/STM32H7xx_HAL_Driver/Src/stm32h7xx_hal_dma_ex.c ****     {
 1843              		.loc 1 596 5 is_stmt 1 view .LVU574
 596:Drivers/STM32H7xx_HAL_Driver/Src/stm32h7xx_hal_dma_ex.c ****     {
 1844              		.loc 1 596 12 is_stmt 0 view .LVU575
 1845 0026 C36C     		ldr	r3, [r0, #76]
 596:Drivers/STM32H7xx_HAL_Driver/Src/stm32h7xx_hal_dma_ex.c ****     {
 1846              		.loc 1 596 7 view .LVU576
 1847 0028 03B1     		cbz	r3, .L95
 599:Drivers/STM32H7xx_HAL_Driver/Src/stm32h7xx_hal_dma_ex.c ****     }
 1848              		.loc 1 599 7 is_stmt 1 view .LVU577
 1849 002a 9847     		blx	r3
 1850              	.LVL90:
 1851              	.L95:
 603:Drivers/STM32H7xx_HAL_Driver/Src/stm32h7xx_hal_dma_ex.c ****   {
 1852              		.loc 1 603 3 view .LVU578
ARM GAS  C:\Users\27655\AppData\Local\Temp\ccjI14Jp.s 			page 55


 603:Drivers/STM32H7xx_HAL_Driver/Src/stm32h7xx_hal_dma_ex.c ****   {
 1853              		.loc 1 603 10 is_stmt 0 view .LVU579
 1854 002c E36E     		ldr	r3, [r4, #108]
 603:Drivers/STM32H7xx_HAL_Driver/Src/stm32h7xx_hal_dma_ex.c ****   {
 1855              		.loc 1 603 5 view .LVU580
 1856 002e 9BB1     		cbz	r3, .L94
 606:Drivers/STM32H7xx_HAL_Driver/Src/stm32h7xx_hal_dma_ex.c ****     {
 1857              		.loc 1 606 5 is_stmt 1 view .LVU581
 606:Drivers/STM32H7xx_HAL_Driver/Src/stm32h7xx_hal_dma_ex.c ****     {
 1858              		.loc 1 606 13 is_stmt 0 view .LVU582
 1859 0030 226F     		ldr	r2, [r4, #112]
 606:Drivers/STM32H7xx_HAL_Driver/Src/stm32h7xx_hal_dma_ex.c ****     {
 1860              		.loc 1 606 37 view .LVU583
 1861 0032 1168     		ldr	r1, [r2]
 606:Drivers/STM32H7xx_HAL_Driver/Src/stm32h7xx_hal_dma_ex.c ****     {
 1862              		.loc 1 606 50 view .LVU584
 1863 0034 626F     		ldr	r2, [r4, #116]
 606:Drivers/STM32H7xx_HAL_Driver/Src/stm32h7xx_hal_dma_ex.c ****     {
 1864              		.loc 1 606 7 view .LVU585
 1865 0036 1142     		tst	r1, r2
 1866 0038 0ED0     		beq	.L94
 609:Drivers/STM32H7xx_HAL_Driver/Src/stm32h7xx_hal_dma_ex.c **** 
 1867              		.loc 1 609 7 is_stmt 1 view .LVU586
 609:Drivers/STM32H7xx_HAL_Driver/Src/stm32h7xx_hal_dma_ex.c **** 
 1868              		.loc 1 609 29 is_stmt 0 view .LVU587
 1869 003a 1A68     		ldr	r2, [r3]
 609:Drivers/STM32H7xx_HAL_Driver/Src/stm32h7xx_hal_dma_ex.c **** 
 1870              		.loc 1 609 36 view .LVU588
 1871 003c 22F48072 		bic	r2, r2, #256
 1872 0040 1A60     		str	r2, [r3]
 612:Drivers/STM32H7xx_HAL_Driver/Src/stm32h7xx_hal_dma_ex.c **** 
 1873              		.loc 1 612 7 is_stmt 1 view .LVU589
 612:Drivers/STM32H7xx_HAL_Driver/Src/stm32h7xx_hal_dma_ex.c **** 
 1874              		.loc 1 612 11 is_stmt 0 view .LVU590
 1875 0042 236F     		ldr	r3, [r4, #112]
 612:Drivers/STM32H7xx_HAL_Driver/Src/stm32h7xx_hal_dma_ex.c **** 
 1876              		.loc 1 612 49 view .LVU591
 1877 0044 626F     		ldr	r2, [r4, #116]
 612:Drivers/STM32H7xx_HAL_Driver/Src/stm32h7xx_hal_dma_ex.c **** 
 1878              		.loc 1 612 43 view .LVU592
 1879 0046 5A60     		str	r2, [r3, #4]
 615:Drivers/STM32H7xx_HAL_Driver/Src/stm32h7xx_hal_dma_ex.c **** 
 1880              		.loc 1 615 7 is_stmt 1 view .LVU593
 615:Drivers/STM32H7xx_HAL_Driver/Src/stm32h7xx_hal_dma_ex.c **** 
 1881              		.loc 1 615 11 is_stmt 0 view .LVU594
 1882 0048 636D     		ldr	r3, [r4, #84]
 615:Drivers/STM32H7xx_HAL_Driver/Src/stm32h7xx_hal_dma_ex.c **** 
 1883              		.loc 1 615 23 view .LVU595
 1884 004a 43F48063 		orr	r3, r3, #1024
 1885 004e 6365     		str	r3, [r4, #84]
 617:Drivers/STM32H7xx_HAL_Driver/Src/stm32h7xx_hal_dma_ex.c ****       {
 1886              		.loc 1 617 7 is_stmt 1 view .LVU596
 617:Drivers/STM32H7xx_HAL_Driver/Src/stm32h7xx_hal_dma_ex.c ****       {
 1887              		.loc 1 617 14 is_stmt 0 view .LVU597
 1888 0050 E36C     		ldr	r3, [r4, #76]
 617:Drivers/STM32H7xx_HAL_Driver/Src/stm32h7xx_hal_dma_ex.c ****       {
 1889              		.loc 1 617 9 view .LVU598
ARM GAS  C:\Users\27655\AppData\Local\Temp\ccjI14Jp.s 			page 56


 1890 0052 0BB1     		cbz	r3, .L94
 620:Drivers/STM32H7xx_HAL_Driver/Src/stm32h7xx_hal_dma_ex.c ****       }
 1891              		.loc 1 620 9 is_stmt 1 view .LVU599
 1892 0054 2046     		mov	r0, r4
 1893 0056 9847     		blx	r3
 1894              	.LVL91:
 1895              	.L94:
 624:Drivers/STM32H7xx_HAL_Driver/Src/stm32h7xx_hal_dma_ex.c **** 
 1896              		.loc 1 624 1 is_stmt 0 view .LVU600
 1897 0058 10BD     		pop	{r4, pc}
 624:Drivers/STM32H7xx_HAL_Driver/Src/stm32h7xx_hal_dma_ex.c **** 
 1898              		.loc 1 624 1 view .LVU601
 1899              		.cfi_endproc
 1900              	.LFE153:
 1902              		.text
 1903              	.Letext0:
 1904              		.file 2 "D:/TOOLS/xpack-arm-none-eabi-gcc/arm-none-eabi/include/machine/_default_types.h"
 1905              		.file 3 "D:/TOOLS/xpack-arm-none-eabi-gcc/arm-none-eabi/include/sys/_stdint.h"
 1906              		.file 4 "Drivers/CMSIS/Device/ST/STM32H7xx/Include/stm32h743xx.h"
 1907              		.file 5 "Drivers/CMSIS/Device/ST/STM32H7xx/Include/stm32h7xx.h"
 1908              		.file 6 "Drivers/STM32H7xx_HAL_Driver/Inc/stm32h7xx_hal_def.h"
 1909              		.file 7 "Drivers/STM32H7xx_HAL_Driver/Inc/stm32h7xx_hal_dma.h"
 1910              		.file 8 "Drivers/STM32H7xx_HAL_Driver/Inc/stm32h7xx_hal_dma_ex.h"
ARM GAS  C:\Users\27655\AppData\Local\Temp\ccjI14Jp.s 			page 57

