ARM GAS  C:\Users\27655\AppData\Local\Temp\ccShhaKP.s 			page 1


   1              		.cpu cortex-m7
   2              		.arch armv7e-m
   3              		.fpu fpv5-d16
   4              		.eabi_attribute 28, 1
   5              		.eabi_attribute 20, 1
   6              		.eabi_attribute 21, 1
   7              		.eabi_attribute 23, 3
   8              		.eabi_attribute 24, 1
   9              		.eabi_attribute 25, 1
  10              		.eabi_attribute 26, 1
  11              		.eabi_attribute 30, 1
  12              		.eabi_attribute 34, 1
  13              		.eabi_attribute 18, 4
  14              		.file	"stm32h7xx_hal.c"
  15              		.text
  16              	.Ltext0:
  17              		.cfi_sections	.debug_frame
  18              		.file 1 "Drivers/STM32H7xx_HAL_Driver/Src/stm32h7xx_hal.c"
  19              		.section	.text.HAL_MspInit,"ax",%progbits
  20              		.align	1
  21              		.weak	HAL_MspInit
  22              		.syntax unified
  23              		.thumb
  24              		.thumb_func
  26              	HAL_MspInit:
  27              	.LFB148:
   1:Drivers/STM32H7xx_HAL_Driver/Src/stm32h7xx_hal.c **** /**
   2:Drivers/STM32H7xx_HAL_Driver/Src/stm32h7xx_hal.c ****   ******************************************************************************
   3:Drivers/STM32H7xx_HAL_Driver/Src/stm32h7xx_hal.c ****   * @file    stm32h7xx_hal.c
   4:Drivers/STM32H7xx_HAL_Driver/Src/stm32h7xx_hal.c ****   * @author  MCD Application Team
   5:Drivers/STM32H7xx_HAL_Driver/Src/stm32h7xx_hal.c ****   * @brief   HAL module driver.
   6:Drivers/STM32H7xx_HAL_Driver/Src/stm32h7xx_hal.c ****   *          This is the common part of the HAL initialization
   7:Drivers/STM32H7xx_HAL_Driver/Src/stm32h7xx_hal.c ****   *
   8:Drivers/STM32H7xx_HAL_Driver/Src/stm32h7xx_hal.c ****   ******************************************************************************
   9:Drivers/STM32H7xx_HAL_Driver/Src/stm32h7xx_hal.c ****   * @attention
  10:Drivers/STM32H7xx_HAL_Driver/Src/stm32h7xx_hal.c ****   *
  11:Drivers/STM32H7xx_HAL_Driver/Src/stm32h7xx_hal.c ****   * Copyright (c) 2017 STMicroelectronics.
  12:Drivers/STM32H7xx_HAL_Driver/Src/stm32h7xx_hal.c ****   * All rights reserved.
  13:Drivers/STM32H7xx_HAL_Driver/Src/stm32h7xx_hal.c ****   *
  14:Drivers/STM32H7xx_HAL_Driver/Src/stm32h7xx_hal.c ****   * This software is licensed under terms that can be found in the LICENSE file
  15:Drivers/STM32H7xx_HAL_Driver/Src/stm32h7xx_hal.c ****   * in the root directory of this software component.
  16:Drivers/STM32H7xx_HAL_Driver/Src/stm32h7xx_hal.c ****   * If no LICENSE file comes with this software, it is provided AS-IS.
  17:Drivers/STM32H7xx_HAL_Driver/Src/stm32h7xx_hal.c ****   *
  18:Drivers/STM32H7xx_HAL_Driver/Src/stm32h7xx_hal.c ****   ******************************************************************************
  19:Drivers/STM32H7xx_HAL_Driver/Src/stm32h7xx_hal.c ****   @verbatim
  20:Drivers/STM32H7xx_HAL_Driver/Src/stm32h7xx_hal.c ****   ==============================================================================
  21:Drivers/STM32H7xx_HAL_Driver/Src/stm32h7xx_hal.c ****                      ##### How to use this driver #####
  22:Drivers/STM32H7xx_HAL_Driver/Src/stm32h7xx_hal.c ****   ==============================================================================
  23:Drivers/STM32H7xx_HAL_Driver/Src/stm32h7xx_hal.c ****     [..]
  24:Drivers/STM32H7xx_HAL_Driver/Src/stm32h7xx_hal.c ****     The common HAL driver contains a set of generic and common APIs that can be
  25:Drivers/STM32H7xx_HAL_Driver/Src/stm32h7xx_hal.c ****     used by the PPP peripheral drivers and the user to start using the HAL.
  26:Drivers/STM32H7xx_HAL_Driver/Src/stm32h7xx_hal.c ****     [..]
  27:Drivers/STM32H7xx_HAL_Driver/Src/stm32h7xx_hal.c ****     The HAL contains two APIs' categories:
  28:Drivers/STM32H7xx_HAL_Driver/Src/stm32h7xx_hal.c ****          (+) Common HAL APIs
  29:Drivers/STM32H7xx_HAL_Driver/Src/stm32h7xx_hal.c ****          (+) Services HAL APIs
  30:Drivers/STM32H7xx_HAL_Driver/Src/stm32h7xx_hal.c **** 
  31:Drivers/STM32H7xx_HAL_Driver/Src/stm32h7xx_hal.c ****   @endverbatim
ARM GAS  C:\Users\27655\AppData\Local\Temp\ccShhaKP.s 			page 2


  32:Drivers/STM32H7xx_HAL_Driver/Src/stm32h7xx_hal.c ****   ******************************************************************************
  33:Drivers/STM32H7xx_HAL_Driver/Src/stm32h7xx_hal.c ****   */
  34:Drivers/STM32H7xx_HAL_Driver/Src/stm32h7xx_hal.c **** 
  35:Drivers/STM32H7xx_HAL_Driver/Src/stm32h7xx_hal.c **** /* Includes ------------------------------------------------------------------*/
  36:Drivers/STM32H7xx_HAL_Driver/Src/stm32h7xx_hal.c **** #include "stm32h7xx_hal.h"
  37:Drivers/STM32H7xx_HAL_Driver/Src/stm32h7xx_hal.c **** 
  38:Drivers/STM32H7xx_HAL_Driver/Src/stm32h7xx_hal.c **** /** @addtogroup STM32H7xx_HAL_Driver
  39:Drivers/STM32H7xx_HAL_Driver/Src/stm32h7xx_hal.c ****   * @{
  40:Drivers/STM32H7xx_HAL_Driver/Src/stm32h7xx_hal.c ****   */
  41:Drivers/STM32H7xx_HAL_Driver/Src/stm32h7xx_hal.c **** 
  42:Drivers/STM32H7xx_HAL_Driver/Src/stm32h7xx_hal.c **** /** @defgroup HAL  HAL
  43:Drivers/STM32H7xx_HAL_Driver/Src/stm32h7xx_hal.c ****   * @brief HAL module driver.
  44:Drivers/STM32H7xx_HAL_Driver/Src/stm32h7xx_hal.c ****   * @{
  45:Drivers/STM32H7xx_HAL_Driver/Src/stm32h7xx_hal.c ****   */
  46:Drivers/STM32H7xx_HAL_Driver/Src/stm32h7xx_hal.c **** 
  47:Drivers/STM32H7xx_HAL_Driver/Src/stm32h7xx_hal.c **** /* Private typedef -----------------------------------------------------------*/
  48:Drivers/STM32H7xx_HAL_Driver/Src/stm32h7xx_hal.c **** /* Private define ------------------------------------------------------------*/
  49:Drivers/STM32H7xx_HAL_Driver/Src/stm32h7xx_hal.c **** /**
  50:Drivers/STM32H7xx_HAL_Driver/Src/stm32h7xx_hal.c ****  * @brief STM32H7xx HAL Driver version number
  51:Drivers/STM32H7xx_HAL_Driver/Src/stm32h7xx_hal.c ****    */
  52:Drivers/STM32H7xx_HAL_Driver/Src/stm32h7xx_hal.c **** #define __STM32H7xx_HAL_VERSION_MAIN   (0x01UL) /*!< [31:24] main version */
  53:Drivers/STM32H7xx_HAL_Driver/Src/stm32h7xx_hal.c **** #define __STM32H7xx_HAL_VERSION_SUB1   (0x0BUL) /*!< [23:16] sub1 version */
  54:Drivers/STM32H7xx_HAL_Driver/Src/stm32h7xx_hal.c **** #define __STM32H7xx_HAL_VERSION_SUB2   (0x06UL) /*!< [15:8]  sub2 version */
  55:Drivers/STM32H7xx_HAL_Driver/Src/stm32h7xx_hal.c **** #define __STM32H7xx_HAL_VERSION_RC     (0x00UL) /*!< [7:0]  release candidate */
  56:Drivers/STM32H7xx_HAL_Driver/Src/stm32h7xx_hal.c **** #define __STM32H7xx_HAL_VERSION         ((__STM32H7xx_HAL_VERSION_MAIN << 24)\
  57:Drivers/STM32H7xx_HAL_Driver/Src/stm32h7xx_hal.c ****                                         |(__STM32H7xx_HAL_VERSION_SUB1 << 16)\
  58:Drivers/STM32H7xx_HAL_Driver/Src/stm32h7xx_hal.c ****                                         |(__STM32H7xx_HAL_VERSION_SUB2 << 8 )\
  59:Drivers/STM32H7xx_HAL_Driver/Src/stm32h7xx_hal.c ****                                         |(__STM32H7xx_HAL_VERSION_RC))
  60:Drivers/STM32H7xx_HAL_Driver/Src/stm32h7xx_hal.c **** 
  61:Drivers/STM32H7xx_HAL_Driver/Src/stm32h7xx_hal.c **** #define IDCODE_DEVID_MASK    ((uint32_t)0x00000FFF)
  62:Drivers/STM32H7xx_HAL_Driver/Src/stm32h7xx_hal.c **** #define VREFBUF_TIMEOUT_VALUE     (uint32_t)10   /* 10 ms  */
  63:Drivers/STM32H7xx_HAL_Driver/Src/stm32h7xx_hal.c **** 
  64:Drivers/STM32H7xx_HAL_Driver/Src/stm32h7xx_hal.c **** /* Private macro -------------------------------------------------------------*/
  65:Drivers/STM32H7xx_HAL_Driver/Src/stm32h7xx_hal.c **** /* Private variables ---------------------------------------------------------*/
  66:Drivers/STM32H7xx_HAL_Driver/Src/stm32h7xx_hal.c **** /* Exported variables --------------------------------------------------------*/
  67:Drivers/STM32H7xx_HAL_Driver/Src/stm32h7xx_hal.c **** 
  68:Drivers/STM32H7xx_HAL_Driver/Src/stm32h7xx_hal.c **** /** @defgroup HAL_Exported_Variables HAL Exported Variables
  69:Drivers/STM32H7xx_HAL_Driver/Src/stm32h7xx_hal.c ****   * @{
  70:Drivers/STM32H7xx_HAL_Driver/Src/stm32h7xx_hal.c ****   */
  71:Drivers/STM32H7xx_HAL_Driver/Src/stm32h7xx_hal.c **** __IO uint32_t uwTick;
  72:Drivers/STM32H7xx_HAL_Driver/Src/stm32h7xx_hal.c **** uint32_t uwTickPrio   = (1UL << __NVIC_PRIO_BITS); /* Invalid PRIO */
  73:Drivers/STM32H7xx_HAL_Driver/Src/stm32h7xx_hal.c **** HAL_TickFreqTypeDef uwTickFreq = HAL_TICK_FREQ_DEFAULT;  /* 1KHz */
  74:Drivers/STM32H7xx_HAL_Driver/Src/stm32h7xx_hal.c **** /**
  75:Drivers/STM32H7xx_HAL_Driver/Src/stm32h7xx_hal.c ****   * @}
  76:Drivers/STM32H7xx_HAL_Driver/Src/stm32h7xx_hal.c ****   */
  77:Drivers/STM32H7xx_HAL_Driver/Src/stm32h7xx_hal.c **** 
  78:Drivers/STM32H7xx_HAL_Driver/Src/stm32h7xx_hal.c **** /* Private function prototypes -----------------------------------------------*/
  79:Drivers/STM32H7xx_HAL_Driver/Src/stm32h7xx_hal.c **** /* Private functions ---------------------------------------------------------*/
  80:Drivers/STM32H7xx_HAL_Driver/Src/stm32h7xx_hal.c **** 
  81:Drivers/STM32H7xx_HAL_Driver/Src/stm32h7xx_hal.c **** /** @addtogroup HAL_Exported_Functions
  82:Drivers/STM32H7xx_HAL_Driver/Src/stm32h7xx_hal.c ****   * @{
  83:Drivers/STM32H7xx_HAL_Driver/Src/stm32h7xx_hal.c ****   */
  84:Drivers/STM32H7xx_HAL_Driver/Src/stm32h7xx_hal.c **** 
  85:Drivers/STM32H7xx_HAL_Driver/Src/stm32h7xx_hal.c **** /** @addtogroup HAL_Group1
  86:Drivers/STM32H7xx_HAL_Driver/Src/stm32h7xx_hal.c ****  *  @brief    Initialization and de-initialization functions
  87:Drivers/STM32H7xx_HAL_Driver/Src/stm32h7xx_hal.c ****  *
  88:Drivers/STM32H7xx_HAL_Driver/Src/stm32h7xx_hal.c **** @verbatim
ARM GAS  C:\Users\27655\AppData\Local\Temp\ccShhaKP.s 			page 3


  89:Drivers/STM32H7xx_HAL_Driver/Src/stm32h7xx_hal.c ****  ===============================================================================
  90:Drivers/STM32H7xx_HAL_Driver/Src/stm32h7xx_hal.c ****               ##### Initialization and de-initialization functions #####
  91:Drivers/STM32H7xx_HAL_Driver/Src/stm32h7xx_hal.c ****  ===============================================================================
  92:Drivers/STM32H7xx_HAL_Driver/Src/stm32h7xx_hal.c ****     [..]  This section provides functions allowing to:
  93:Drivers/STM32H7xx_HAL_Driver/Src/stm32h7xx_hal.c ****       (+) Initializes the Flash interface the NVIC allocation and initial clock
  94:Drivers/STM32H7xx_HAL_Driver/Src/stm32h7xx_hal.c ****           configuration. It initializes the systick also when timeout is needed
  95:Drivers/STM32H7xx_HAL_Driver/Src/stm32h7xx_hal.c ****           and the backup domain when enabled.
  96:Drivers/STM32H7xx_HAL_Driver/Src/stm32h7xx_hal.c ****       (+) De-Initializes common part of the HAL.
  97:Drivers/STM32H7xx_HAL_Driver/Src/stm32h7xx_hal.c ****       (+) Configure The time base source to have 1ms time base with a dedicated
  98:Drivers/STM32H7xx_HAL_Driver/Src/stm32h7xx_hal.c ****           Tick interrupt priority.
  99:Drivers/STM32H7xx_HAL_Driver/Src/stm32h7xx_hal.c ****         (++) SysTick timer is used by default as source of time base, but user
 100:Drivers/STM32H7xx_HAL_Driver/Src/stm32h7xx_hal.c ****              can eventually implement his proper time base source (a general purpose
 101:Drivers/STM32H7xx_HAL_Driver/Src/stm32h7xx_hal.c ****              timer for example or other time source), keeping in mind that Time base
 102:Drivers/STM32H7xx_HAL_Driver/Src/stm32h7xx_hal.c ****              duration should be kept 1ms since PPP_TIMEOUT_VALUEs are defined and
 103:Drivers/STM32H7xx_HAL_Driver/Src/stm32h7xx_hal.c ****              handled in milliseconds basis.
 104:Drivers/STM32H7xx_HAL_Driver/Src/stm32h7xx_hal.c ****         (++) Time base configuration function (HAL_InitTick ()) is called automatically
 105:Drivers/STM32H7xx_HAL_Driver/Src/stm32h7xx_hal.c ****              at the beginning of the program after reset by HAL_Init() or at any time
 106:Drivers/STM32H7xx_HAL_Driver/Src/stm32h7xx_hal.c ****              when clock is configured, by HAL_RCC_ClockConfig().
 107:Drivers/STM32H7xx_HAL_Driver/Src/stm32h7xx_hal.c ****         (++) Source of time base is configured  to generate interrupts at regular
 108:Drivers/STM32H7xx_HAL_Driver/Src/stm32h7xx_hal.c ****              time intervals. Care must be taken if HAL_Delay() is called from a
 109:Drivers/STM32H7xx_HAL_Driver/Src/stm32h7xx_hal.c ****              peripheral ISR process, the Tick interrupt line must have higher priority
 110:Drivers/STM32H7xx_HAL_Driver/Src/stm32h7xx_hal.c ****             (numerically lower) than the peripheral interrupt. Otherwise the caller
 111:Drivers/STM32H7xx_HAL_Driver/Src/stm32h7xx_hal.c ****             ISR process will be blocked.
 112:Drivers/STM32H7xx_HAL_Driver/Src/stm32h7xx_hal.c ****        (++) functions affecting time base configurations are declared as __weak
 113:Drivers/STM32H7xx_HAL_Driver/Src/stm32h7xx_hal.c ****              to make  override possible  in case of other  implementations in user file.
 114:Drivers/STM32H7xx_HAL_Driver/Src/stm32h7xx_hal.c **** @endverbatim
 115:Drivers/STM32H7xx_HAL_Driver/Src/stm32h7xx_hal.c ****   * @{
 116:Drivers/STM32H7xx_HAL_Driver/Src/stm32h7xx_hal.c ****   */
 117:Drivers/STM32H7xx_HAL_Driver/Src/stm32h7xx_hal.c **** 
 118:Drivers/STM32H7xx_HAL_Driver/Src/stm32h7xx_hal.c **** /**
 119:Drivers/STM32H7xx_HAL_Driver/Src/stm32h7xx_hal.c ****   * @brief  This function is used to initialize the HAL Library; it must be the first
 120:Drivers/STM32H7xx_HAL_Driver/Src/stm32h7xx_hal.c ****   *         instruction to be executed in the main program (before to call any other
 121:Drivers/STM32H7xx_HAL_Driver/Src/stm32h7xx_hal.c ****   *         HAL function), it performs the following:
 122:Drivers/STM32H7xx_HAL_Driver/Src/stm32h7xx_hal.c ****   *           Configures the SysTick to generate an interrupt each 1 millisecond,
 123:Drivers/STM32H7xx_HAL_Driver/Src/stm32h7xx_hal.c ****   *           which is clocked by the HSI (at this stage, the clock is not yet
 124:Drivers/STM32H7xx_HAL_Driver/Src/stm32h7xx_hal.c ****   *           configured and thus the system is running from the internal HSI at 16 MHz).
 125:Drivers/STM32H7xx_HAL_Driver/Src/stm32h7xx_hal.c ****   *           Set NVIC Group Priority to 4.
 126:Drivers/STM32H7xx_HAL_Driver/Src/stm32h7xx_hal.c ****   *           Calls the HAL_MspInit() callback function defined in user file
 127:Drivers/STM32H7xx_HAL_Driver/Src/stm32h7xx_hal.c ****   *           "stm32h7xx_hal_msp.c" to do the global low level hardware initialization
 128:Drivers/STM32H7xx_HAL_Driver/Src/stm32h7xx_hal.c ****   *
 129:Drivers/STM32H7xx_HAL_Driver/Src/stm32h7xx_hal.c ****   * @note   SysTick is used as time base for the HAL_Delay() function, the application
 130:Drivers/STM32H7xx_HAL_Driver/Src/stm32h7xx_hal.c ****   *         need to ensure that the SysTick time base is always set to 1 millisecond
 131:Drivers/STM32H7xx_HAL_Driver/Src/stm32h7xx_hal.c ****   *         to have correct HAL operation.
 132:Drivers/STM32H7xx_HAL_Driver/Src/stm32h7xx_hal.c ****   * @retval HAL status
 133:Drivers/STM32H7xx_HAL_Driver/Src/stm32h7xx_hal.c ****   */
 134:Drivers/STM32H7xx_HAL_Driver/Src/stm32h7xx_hal.c **** HAL_StatusTypeDef HAL_Init(void)
 135:Drivers/STM32H7xx_HAL_Driver/Src/stm32h7xx_hal.c **** {
 136:Drivers/STM32H7xx_HAL_Driver/Src/stm32h7xx_hal.c **** 
 137:Drivers/STM32H7xx_HAL_Driver/Src/stm32h7xx_hal.c **** uint32_t common_system_clock;
 138:Drivers/STM32H7xx_HAL_Driver/Src/stm32h7xx_hal.c **** 
 139:Drivers/STM32H7xx_HAL_Driver/Src/stm32h7xx_hal.c **** #if defined(DUAL_CORE) && defined(CORE_CM4)
 140:Drivers/STM32H7xx_HAL_Driver/Src/stm32h7xx_hal.c ****    /* Configure Cortex-M4 Instruction cache through ART accelerator */
 141:Drivers/STM32H7xx_HAL_Driver/Src/stm32h7xx_hal.c ****    __HAL_RCC_ART_CLK_ENABLE();                   /* Enable the Cortex-M4 ART Clock */
 142:Drivers/STM32H7xx_HAL_Driver/Src/stm32h7xx_hal.c ****    __HAL_ART_CONFIG_BASE_ADDRESS(0x08100000UL);  /* Configure the Cortex-M4 ART Base address to the
 143:Drivers/STM32H7xx_HAL_Driver/Src/stm32h7xx_hal.c ****    __HAL_ART_ENABLE();                           /* Enable the Cortex-M4 ART */
 144:Drivers/STM32H7xx_HAL_Driver/Src/stm32h7xx_hal.c **** #endif /* DUAL_CORE &&  CORE_CM4 */
 145:Drivers/STM32H7xx_HAL_Driver/Src/stm32h7xx_hal.c **** 
ARM GAS  C:\Users\27655\AppData\Local\Temp\ccShhaKP.s 			page 4


 146:Drivers/STM32H7xx_HAL_Driver/Src/stm32h7xx_hal.c ****   /* Set Interrupt Group Priority */
 147:Drivers/STM32H7xx_HAL_Driver/Src/stm32h7xx_hal.c ****   HAL_NVIC_SetPriorityGrouping(NVIC_PRIORITYGROUP_4);
 148:Drivers/STM32H7xx_HAL_Driver/Src/stm32h7xx_hal.c **** 
 149:Drivers/STM32H7xx_HAL_Driver/Src/stm32h7xx_hal.c ****   /* Update the SystemCoreClock global variable */
 150:Drivers/STM32H7xx_HAL_Driver/Src/stm32h7xx_hal.c **** #if defined(RCC_D1CFGR_D1CPRE)
 151:Drivers/STM32H7xx_HAL_Driver/Src/stm32h7xx_hal.c ****   common_system_clock = HAL_RCC_GetSysClockFreq() >> ((D1CorePrescTable[(RCC->D1CFGR & RCC_D1CFGR_D
 152:Drivers/STM32H7xx_HAL_Driver/Src/stm32h7xx_hal.c **** #else
 153:Drivers/STM32H7xx_HAL_Driver/Src/stm32h7xx_hal.c ****   common_system_clock = HAL_RCC_GetSysClockFreq() >> ((D1CorePrescTable[(RCC->CDCFGR1 & RCC_CDCFGR1
 154:Drivers/STM32H7xx_HAL_Driver/Src/stm32h7xx_hal.c **** #endif
 155:Drivers/STM32H7xx_HAL_Driver/Src/stm32h7xx_hal.c **** 
 156:Drivers/STM32H7xx_HAL_Driver/Src/stm32h7xx_hal.c ****   /* Update the SystemD2Clock global variable */
 157:Drivers/STM32H7xx_HAL_Driver/Src/stm32h7xx_hal.c **** #if defined(RCC_D1CFGR_HPRE)
 158:Drivers/STM32H7xx_HAL_Driver/Src/stm32h7xx_hal.c ****   SystemD2Clock = (common_system_clock >> ((D1CorePrescTable[(RCC->D1CFGR & RCC_D1CFGR_HPRE)>> RCC_
 159:Drivers/STM32H7xx_HAL_Driver/Src/stm32h7xx_hal.c **** #else
 160:Drivers/STM32H7xx_HAL_Driver/Src/stm32h7xx_hal.c ****   SystemD2Clock = (common_system_clock >> ((D1CorePrescTable[(RCC->CDCFGR1 & RCC_CDCFGR1_HPRE)>> RC
 161:Drivers/STM32H7xx_HAL_Driver/Src/stm32h7xx_hal.c **** #endif
 162:Drivers/STM32H7xx_HAL_Driver/Src/stm32h7xx_hal.c **** 
 163:Drivers/STM32H7xx_HAL_Driver/Src/stm32h7xx_hal.c **** #if defined(DUAL_CORE) && defined(CORE_CM4)
 164:Drivers/STM32H7xx_HAL_Driver/Src/stm32h7xx_hal.c ****   SystemCoreClock = SystemD2Clock;
 165:Drivers/STM32H7xx_HAL_Driver/Src/stm32h7xx_hal.c **** #else
 166:Drivers/STM32H7xx_HAL_Driver/Src/stm32h7xx_hal.c ****   SystemCoreClock = common_system_clock;
 167:Drivers/STM32H7xx_HAL_Driver/Src/stm32h7xx_hal.c **** #endif /* DUAL_CORE && CORE_CM4 */
 168:Drivers/STM32H7xx_HAL_Driver/Src/stm32h7xx_hal.c **** 
 169:Drivers/STM32H7xx_HAL_Driver/Src/stm32h7xx_hal.c ****   /* Use systick as time base source and configure 1ms tick (default clock after Reset is HSI) */
 170:Drivers/STM32H7xx_HAL_Driver/Src/stm32h7xx_hal.c ****   if(HAL_InitTick(TICK_INT_PRIORITY) != HAL_OK)
 171:Drivers/STM32H7xx_HAL_Driver/Src/stm32h7xx_hal.c ****   {
 172:Drivers/STM32H7xx_HAL_Driver/Src/stm32h7xx_hal.c ****     return HAL_ERROR;
 173:Drivers/STM32H7xx_HAL_Driver/Src/stm32h7xx_hal.c ****   }
 174:Drivers/STM32H7xx_HAL_Driver/Src/stm32h7xx_hal.c **** 
 175:Drivers/STM32H7xx_HAL_Driver/Src/stm32h7xx_hal.c ****   /* Init the low level hardware */
 176:Drivers/STM32H7xx_HAL_Driver/Src/stm32h7xx_hal.c ****   HAL_MspInit();
 177:Drivers/STM32H7xx_HAL_Driver/Src/stm32h7xx_hal.c **** 
 178:Drivers/STM32H7xx_HAL_Driver/Src/stm32h7xx_hal.c ****   /* Return function status */
 179:Drivers/STM32H7xx_HAL_Driver/Src/stm32h7xx_hal.c ****   return HAL_OK;
 180:Drivers/STM32H7xx_HAL_Driver/Src/stm32h7xx_hal.c **** }
 181:Drivers/STM32H7xx_HAL_Driver/Src/stm32h7xx_hal.c **** 
 182:Drivers/STM32H7xx_HAL_Driver/Src/stm32h7xx_hal.c **** /**
 183:Drivers/STM32H7xx_HAL_Driver/Src/stm32h7xx_hal.c ****   * @brief  This function de-Initializes common part of the HAL and stops the systick.
 184:Drivers/STM32H7xx_HAL_Driver/Src/stm32h7xx_hal.c ****   *         This function is optional.
 185:Drivers/STM32H7xx_HAL_Driver/Src/stm32h7xx_hal.c ****   * @retval HAL status
 186:Drivers/STM32H7xx_HAL_Driver/Src/stm32h7xx_hal.c ****   */
 187:Drivers/STM32H7xx_HAL_Driver/Src/stm32h7xx_hal.c **** HAL_StatusTypeDef HAL_DeInit(void)
 188:Drivers/STM32H7xx_HAL_Driver/Src/stm32h7xx_hal.c **** {
 189:Drivers/STM32H7xx_HAL_Driver/Src/stm32h7xx_hal.c ****   /* Reset of all peripherals */
 190:Drivers/STM32H7xx_HAL_Driver/Src/stm32h7xx_hal.c ****   __HAL_RCC_AHB3_FORCE_RESET();
 191:Drivers/STM32H7xx_HAL_Driver/Src/stm32h7xx_hal.c ****   __HAL_RCC_AHB3_RELEASE_RESET();
 192:Drivers/STM32H7xx_HAL_Driver/Src/stm32h7xx_hal.c **** 
 193:Drivers/STM32H7xx_HAL_Driver/Src/stm32h7xx_hal.c ****   __HAL_RCC_AHB1_FORCE_RESET();
 194:Drivers/STM32H7xx_HAL_Driver/Src/stm32h7xx_hal.c ****   __HAL_RCC_AHB1_RELEASE_RESET();
 195:Drivers/STM32H7xx_HAL_Driver/Src/stm32h7xx_hal.c **** 
 196:Drivers/STM32H7xx_HAL_Driver/Src/stm32h7xx_hal.c ****   __HAL_RCC_AHB2_FORCE_RESET();
 197:Drivers/STM32H7xx_HAL_Driver/Src/stm32h7xx_hal.c ****   __HAL_RCC_AHB2_RELEASE_RESET();
 198:Drivers/STM32H7xx_HAL_Driver/Src/stm32h7xx_hal.c **** 
 199:Drivers/STM32H7xx_HAL_Driver/Src/stm32h7xx_hal.c ****   __HAL_RCC_AHB4_FORCE_RESET();
 200:Drivers/STM32H7xx_HAL_Driver/Src/stm32h7xx_hal.c ****  __HAL_RCC_AHB4_RELEASE_RESET();
 201:Drivers/STM32H7xx_HAL_Driver/Src/stm32h7xx_hal.c **** 
 202:Drivers/STM32H7xx_HAL_Driver/Src/stm32h7xx_hal.c ****   __HAL_RCC_APB3_FORCE_RESET();
ARM GAS  C:\Users\27655\AppData\Local\Temp\ccShhaKP.s 			page 5


 203:Drivers/STM32H7xx_HAL_Driver/Src/stm32h7xx_hal.c ****   __HAL_RCC_APB3_RELEASE_RESET();
 204:Drivers/STM32H7xx_HAL_Driver/Src/stm32h7xx_hal.c **** 
 205:Drivers/STM32H7xx_HAL_Driver/Src/stm32h7xx_hal.c ****   __HAL_RCC_APB1L_FORCE_RESET();
 206:Drivers/STM32H7xx_HAL_Driver/Src/stm32h7xx_hal.c ****   __HAL_RCC_APB1L_RELEASE_RESET();
 207:Drivers/STM32H7xx_HAL_Driver/Src/stm32h7xx_hal.c **** 
 208:Drivers/STM32H7xx_HAL_Driver/Src/stm32h7xx_hal.c ****   __HAL_RCC_APB1H_FORCE_RESET();
 209:Drivers/STM32H7xx_HAL_Driver/Src/stm32h7xx_hal.c ****   __HAL_RCC_APB1H_RELEASE_RESET();
 210:Drivers/STM32H7xx_HAL_Driver/Src/stm32h7xx_hal.c **** 
 211:Drivers/STM32H7xx_HAL_Driver/Src/stm32h7xx_hal.c ****    __HAL_RCC_APB2_FORCE_RESET();
 212:Drivers/STM32H7xx_HAL_Driver/Src/stm32h7xx_hal.c ****    __HAL_RCC_APB2_RELEASE_RESET();
 213:Drivers/STM32H7xx_HAL_Driver/Src/stm32h7xx_hal.c **** 
 214:Drivers/STM32H7xx_HAL_Driver/Src/stm32h7xx_hal.c ****   __HAL_RCC_APB4_FORCE_RESET();
 215:Drivers/STM32H7xx_HAL_Driver/Src/stm32h7xx_hal.c ****   __HAL_RCC_APB4_RELEASE_RESET();
 216:Drivers/STM32H7xx_HAL_Driver/Src/stm32h7xx_hal.c **** 
 217:Drivers/STM32H7xx_HAL_Driver/Src/stm32h7xx_hal.c ****   /* De-Init the low level hardware */
 218:Drivers/STM32H7xx_HAL_Driver/Src/stm32h7xx_hal.c ****   HAL_MspDeInit();
 219:Drivers/STM32H7xx_HAL_Driver/Src/stm32h7xx_hal.c **** 
 220:Drivers/STM32H7xx_HAL_Driver/Src/stm32h7xx_hal.c ****   /* Return function status */
 221:Drivers/STM32H7xx_HAL_Driver/Src/stm32h7xx_hal.c ****   return HAL_OK;
 222:Drivers/STM32H7xx_HAL_Driver/Src/stm32h7xx_hal.c **** }
 223:Drivers/STM32H7xx_HAL_Driver/Src/stm32h7xx_hal.c **** 
 224:Drivers/STM32H7xx_HAL_Driver/Src/stm32h7xx_hal.c **** /**
 225:Drivers/STM32H7xx_HAL_Driver/Src/stm32h7xx_hal.c ****   * @brief  Initializes the MSP.
 226:Drivers/STM32H7xx_HAL_Driver/Src/stm32h7xx_hal.c ****   * @retval None
 227:Drivers/STM32H7xx_HAL_Driver/Src/stm32h7xx_hal.c ****   */
 228:Drivers/STM32H7xx_HAL_Driver/Src/stm32h7xx_hal.c **** __weak void HAL_MspInit(void)
 229:Drivers/STM32H7xx_HAL_Driver/Src/stm32h7xx_hal.c **** {
  28              		.loc 1 229 1 view -0
  29              		.cfi_startproc
  30              		@ args = 0, pretend = 0, frame = 0
  31              		@ frame_needed = 0, uses_anonymous_args = 0
  32              		@ link register save eliminated.
 230:Drivers/STM32H7xx_HAL_Driver/Src/stm32h7xx_hal.c ****   /* NOTE : This function Should not be modified, when the callback is needed,
 231:Drivers/STM32H7xx_HAL_Driver/Src/stm32h7xx_hal.c ****             the HAL_MspInit could be implemented in the user file
 232:Drivers/STM32H7xx_HAL_Driver/Src/stm32h7xx_hal.c ****    */
 233:Drivers/STM32H7xx_HAL_Driver/Src/stm32h7xx_hal.c **** }
  33              		.loc 1 233 1 view .LVU1
  34 0000 7047     		bx	lr
  35              		.cfi_endproc
  36              	.LFE148:
  38              		.section	.text.HAL_MspDeInit,"ax",%progbits
  39              		.align	1
  40              		.weak	HAL_MspDeInit
  41              		.syntax unified
  42              		.thumb
  43              		.thumb_func
  45              	HAL_MspDeInit:
  46              	.LFB149:
 234:Drivers/STM32H7xx_HAL_Driver/Src/stm32h7xx_hal.c **** 
 235:Drivers/STM32H7xx_HAL_Driver/Src/stm32h7xx_hal.c **** /**
 236:Drivers/STM32H7xx_HAL_Driver/Src/stm32h7xx_hal.c ****   * @brief  DeInitializes the MSP.
 237:Drivers/STM32H7xx_HAL_Driver/Src/stm32h7xx_hal.c ****   * @retval None
 238:Drivers/STM32H7xx_HAL_Driver/Src/stm32h7xx_hal.c ****   */
 239:Drivers/STM32H7xx_HAL_Driver/Src/stm32h7xx_hal.c **** __weak void HAL_MspDeInit(void)
 240:Drivers/STM32H7xx_HAL_Driver/Src/stm32h7xx_hal.c **** {
  47              		.loc 1 240 1 view -0
  48              		.cfi_startproc
ARM GAS  C:\Users\27655\AppData\Local\Temp\ccShhaKP.s 			page 6


  49              		@ args = 0, pretend = 0, frame = 0
  50              		@ frame_needed = 0, uses_anonymous_args = 0
  51              		@ link register save eliminated.
 241:Drivers/STM32H7xx_HAL_Driver/Src/stm32h7xx_hal.c ****   /* NOTE : This function Should not be modified, when the callback is needed,
 242:Drivers/STM32H7xx_HAL_Driver/Src/stm32h7xx_hal.c ****             the HAL_MspDeInit could be implemented in the user file
 243:Drivers/STM32H7xx_HAL_Driver/Src/stm32h7xx_hal.c ****    */
 244:Drivers/STM32H7xx_HAL_Driver/Src/stm32h7xx_hal.c **** }
  52              		.loc 1 244 1 view .LVU3
  53 0000 7047     		bx	lr
  54              		.cfi_endproc
  55              	.LFE149:
  57              		.section	.text.HAL_DeInit,"ax",%progbits
  58              		.align	1
  59              		.global	HAL_DeInit
  60              		.syntax unified
  61              		.thumb
  62              		.thumb_func
  64              	HAL_DeInit:
  65              	.LFB147:
 188:Drivers/STM32H7xx_HAL_Driver/Src/stm32h7xx_hal.c ****   /* Reset of all peripherals */
  66              		.loc 1 188 1 view -0
  67              		.cfi_startproc
  68              		@ args = 0, pretend = 0, frame = 0
  69              		@ frame_needed = 0, uses_anonymous_args = 0
  70 0000 10B5     		push	{r4, lr}
  71              	.LCFI0:
  72              		.cfi_def_cfa_offset 8
  73              		.cfi_offset 4, -8
  74              		.cfi_offset 14, -4
 190:Drivers/STM32H7xx_HAL_Driver/Src/stm32h7xx_hal.c ****   __HAL_RCC_AHB3_RELEASE_RESET();
  75              		.loc 1 190 3 view .LVU5
  76 0002 194B     		ldr	r3, .L5
  77 0004 194A     		ldr	r2, .L5+4
  78 0006 DA67     		str	r2, [r3, #124]
 191:Drivers/STM32H7xx_HAL_Driver/Src/stm32h7xx_hal.c **** 
  79              		.loc 1 191 3 view .LVU6
  80 0008 0024     		movs	r4, #0
  81 000a DC67     		str	r4, [r3, #124]
 193:Drivers/STM32H7xx_HAL_Driver/Src/stm32h7xx_hal.c ****   __HAL_RCC_AHB1_RELEASE_RESET();
  82              		.loc 1 193 3 view .LVU7
  83 000c 184A     		ldr	r2, .L5+8
  84 000e C3F88020 		str	r2, [r3, #128]
 194:Drivers/STM32H7xx_HAL_Driver/Src/stm32h7xx_hal.c **** 
  85              		.loc 1 194 3 view .LVU8
  86 0012 C3F88040 		str	r4, [r3, #128]
 196:Drivers/STM32H7xx_HAL_Driver/Src/stm32h7xx_hal.c ****   __HAL_RCC_AHB2_RELEASE_RESET();
  87              		.loc 1 196 3 view .LVU9
  88 0016 40F27122 		movw	r2, #625
  89 001a C3F88420 		str	r2, [r3, #132]
 197:Drivers/STM32H7xx_HAL_Driver/Src/stm32h7xx_hal.c **** 
  90              		.loc 1 197 3 view .LVU10
  91 001e C3F88440 		str	r4, [r3, #132]
 199:Drivers/STM32H7xx_HAL_Driver/Src/stm32h7xx_hal.c ****  __HAL_RCC_AHB4_RELEASE_RESET();
  92              		.loc 1 199 3 view .LVU11
  93 0022 144A     		ldr	r2, .L5+12
  94 0024 C3F88820 		str	r2, [r3, #136]
 200:Drivers/STM32H7xx_HAL_Driver/Src/stm32h7xx_hal.c **** 
ARM GAS  C:\Users\27655\AppData\Local\Temp\ccShhaKP.s 			page 7


  95              		.loc 1 200 2 view .LVU12
  96 0028 C3F88840 		str	r4, [r3, #136]
 202:Drivers/STM32H7xx_HAL_Driver/Src/stm32h7xx_hal.c ****   __HAL_RCC_APB3_RELEASE_RESET();
  97              		.loc 1 202 3 view .LVU13
  98 002c 1822     		movs	r2, #24
  99 002e C3F88C20 		str	r2, [r3, #140]
 203:Drivers/STM32H7xx_HAL_Driver/Src/stm32h7xx_hal.c **** 
 100              		.loc 1 203 3 view .LVU14
 101 0032 C3F88C40 		str	r4, [r3, #140]
 205:Drivers/STM32H7xx_HAL_Driver/Src/stm32h7xx_hal.c ****   __HAL_RCC_APB1L_RELEASE_RESET();
 102              		.loc 1 205 3 view .LVU15
 103 0036 104A     		ldr	r2, .L5+16
 104 0038 C3F89020 		str	r2, [r3, #144]
 206:Drivers/STM32H7xx_HAL_Driver/Src/stm32h7xx_hal.c **** 
 105              		.loc 1 206 3 view .LVU16
 106 003c C3F89040 		str	r4, [r3, #144]
 208:Drivers/STM32H7xx_HAL_Driver/Src/stm32h7xx_hal.c ****   __HAL_RCC_APB1H_RELEASE_RESET();
 107              		.loc 1 208 3 view .LVU17
 108 0040 4FF49B72 		mov	r2, #310
 109 0044 C3F89420 		str	r2, [r3, #148]
 209:Drivers/STM32H7xx_HAL_Driver/Src/stm32h7xx_hal.c **** 
 110              		.loc 1 209 3 view .LVU18
 111 0048 C3F89440 		str	r4, [r3, #148]
 211:Drivers/STM32H7xx_HAL_Driver/Src/stm32h7xx_hal.c ****    __HAL_RCC_APB2_RELEASE_RESET();
 112              		.loc 1 211 4 view .LVU19
 113 004c 0B4A     		ldr	r2, .L5+20
 114 004e C3F89820 		str	r2, [r3, #152]
 212:Drivers/STM32H7xx_HAL_Driver/Src/stm32h7xx_hal.c **** 
 115              		.loc 1 212 4 view .LVU20
 116 0052 C3F89840 		str	r4, [r3, #152]
 214:Drivers/STM32H7xx_HAL_Driver/Src/stm32h7xx_hal.c ****   __HAL_RCC_APB4_RELEASE_RESET();
 117              		.loc 1 214 3 view .LVU21
 118 0056 0A4A     		ldr	r2, .L5+24
 119 0058 C3F89C20 		str	r2, [r3, #156]
 215:Drivers/STM32H7xx_HAL_Driver/Src/stm32h7xx_hal.c **** 
 120              		.loc 1 215 3 view .LVU22
 121 005c C3F89C40 		str	r4, [r3, #156]
 218:Drivers/STM32H7xx_HAL_Driver/Src/stm32h7xx_hal.c **** 
 122              		.loc 1 218 3 view .LVU23
 123 0060 FFF7FEFF 		bl	HAL_MspDeInit
 124              	.LVL0:
 221:Drivers/STM32H7xx_HAL_Driver/Src/stm32h7xx_hal.c **** }
 125              		.loc 1 221 3 view .LVU24
 222:Drivers/STM32H7xx_HAL_Driver/Src/stm32h7xx_hal.c **** 
 126              		.loc 1 222 1 is_stmt 0 view .LVU25
 127 0064 2046     		mov	r0, r4
 128 0066 10BD     		pop	{r4, pc}
 129              	.L6:
 130              		.align	2
 131              	.L5:
 132 0068 00440258 		.word	1476543488
 133 006c 31500100 		.word	86065
 134 0070 23C0000A 		.word	167821347
 135 0074 FF072803 		.word	52955135
 136 0078 FFC3FFE8 		.word	-385891329
 137 007c 3330D731 		.word	836186163
 138 0080 AADE2000 		.word	2154154
ARM GAS  C:\Users\27655\AppData\Local\Temp\ccShhaKP.s 			page 8


 139              		.cfi_endproc
 140              	.LFE147:
 142              		.section	.text.HAL_InitTick,"ax",%progbits
 143              		.align	1
 144              		.weak	HAL_InitTick
 145              		.syntax unified
 146              		.thumb
 147              		.thumb_func
 149              	HAL_InitTick:
 150              	.LVL1:
 151              	.LFB150:
 245:Drivers/STM32H7xx_HAL_Driver/Src/stm32h7xx_hal.c **** 
 246:Drivers/STM32H7xx_HAL_Driver/Src/stm32h7xx_hal.c **** /**
 247:Drivers/STM32H7xx_HAL_Driver/Src/stm32h7xx_hal.c ****   * @brief This function configures the source of the time base.
 248:Drivers/STM32H7xx_HAL_Driver/Src/stm32h7xx_hal.c ****   *        The time source is configured  to have 1ms time base with a dedicated
 249:Drivers/STM32H7xx_HAL_Driver/Src/stm32h7xx_hal.c ****   *        Tick interrupt priority.
 250:Drivers/STM32H7xx_HAL_Driver/Src/stm32h7xx_hal.c ****   * @note This function is called  automatically at the beginning of program after
 251:Drivers/STM32H7xx_HAL_Driver/Src/stm32h7xx_hal.c ****   *       reset by HAL_Init() or at any time when clock is reconfigured  by HAL_RCC_ClockConfig().
 252:Drivers/STM32H7xx_HAL_Driver/Src/stm32h7xx_hal.c ****   * @note In the default implementation, SysTick timer is the source of time base.
 253:Drivers/STM32H7xx_HAL_Driver/Src/stm32h7xx_hal.c ****   *       It is used to generate interrupts at regular time intervals.
 254:Drivers/STM32H7xx_HAL_Driver/Src/stm32h7xx_hal.c ****   *       Care must be taken if HAL_Delay() is called from a peripheral ISR process,
 255:Drivers/STM32H7xx_HAL_Driver/Src/stm32h7xx_hal.c ****   *       the SysTick interrupt must have higher priority (numerically lower)
 256:Drivers/STM32H7xx_HAL_Driver/Src/stm32h7xx_hal.c ****   *       than the peripheral interrupt. Otherwise the caller ISR process will be blocked.
 257:Drivers/STM32H7xx_HAL_Driver/Src/stm32h7xx_hal.c ****   *       The function is declared as __weak  to be overwritten  in case of other
 258:Drivers/STM32H7xx_HAL_Driver/Src/stm32h7xx_hal.c ****   *       implementation  in user file.
 259:Drivers/STM32H7xx_HAL_Driver/Src/stm32h7xx_hal.c ****   * @param TickPriority: Tick interrupt priority.
 260:Drivers/STM32H7xx_HAL_Driver/Src/stm32h7xx_hal.c ****   * @retval HAL status
 261:Drivers/STM32H7xx_HAL_Driver/Src/stm32h7xx_hal.c ****   */
 262:Drivers/STM32H7xx_HAL_Driver/Src/stm32h7xx_hal.c **** __weak HAL_StatusTypeDef HAL_InitTick(uint32_t TickPriority)
 263:Drivers/STM32H7xx_HAL_Driver/Src/stm32h7xx_hal.c **** {
 152              		.loc 1 263 1 is_stmt 1 view -0
 153              		.cfi_startproc
 154              		@ args = 0, pretend = 0, frame = 0
 155              		@ frame_needed = 0, uses_anonymous_args = 0
 264:Drivers/STM32H7xx_HAL_Driver/Src/stm32h7xx_hal.c ****   /* Check uwTickFreq for MisraC 2012 (even if uwTickFreq is a enum type that don't take the value 
 265:Drivers/STM32H7xx_HAL_Driver/Src/stm32h7xx_hal.c ****   if((uint32_t)uwTickFreq == 0UL)
 156              		.loc 1 265 3 view .LVU27
 157              		.loc 1 265 27 is_stmt 0 view .LVU28
 158 0000 104B     		ldr	r3, .L18
 159 0002 1B78     		ldrb	r3, [r3]	@ zero_extendqisi2
 160              		.loc 1 265 5 view .LVU29
 161 0004 0BB9     		cbnz	r3, .L16
 266:Drivers/STM32H7xx_HAL_Driver/Src/stm32h7xx_hal.c ****   {
 267:Drivers/STM32H7xx_HAL_Driver/Src/stm32h7xx_hal.c ****     return HAL_ERROR;
 162              		.loc 1 267 12 view .LVU30
 163 0006 0120     		movs	r0, #1
 164              	.LVL2:
 268:Drivers/STM32H7xx_HAL_Driver/Src/stm32h7xx_hal.c ****   }
 269:Drivers/STM32H7xx_HAL_Driver/Src/stm32h7xx_hal.c **** 
 270:Drivers/STM32H7xx_HAL_Driver/Src/stm32h7xx_hal.c ****   /* Configure the SysTick to have interrupt in 1ms time basis*/
 271:Drivers/STM32H7xx_HAL_Driver/Src/stm32h7xx_hal.c ****   if (HAL_SYSTICK_Config(SystemCoreClock / (1000UL / (uint32_t)uwTickFreq)) > 0U)
 272:Drivers/STM32H7xx_HAL_Driver/Src/stm32h7xx_hal.c ****   {
 273:Drivers/STM32H7xx_HAL_Driver/Src/stm32h7xx_hal.c ****     return HAL_ERROR;
 274:Drivers/STM32H7xx_HAL_Driver/Src/stm32h7xx_hal.c ****   }
 275:Drivers/STM32H7xx_HAL_Driver/Src/stm32h7xx_hal.c **** 
 276:Drivers/STM32H7xx_HAL_Driver/Src/stm32h7xx_hal.c ****   /* Configure the SysTick IRQ priority */
 277:Drivers/STM32H7xx_HAL_Driver/Src/stm32h7xx_hal.c ****   if (TickPriority < (1UL << __NVIC_PRIO_BITS))
ARM GAS  C:\Users\27655\AppData\Local\Temp\ccShhaKP.s 			page 9


 278:Drivers/STM32H7xx_HAL_Driver/Src/stm32h7xx_hal.c ****   {
 279:Drivers/STM32H7xx_HAL_Driver/Src/stm32h7xx_hal.c ****     HAL_NVIC_SetPriority(SysTick_IRQn, TickPriority, 0U);
 280:Drivers/STM32H7xx_HAL_Driver/Src/stm32h7xx_hal.c ****     uwTickPrio = TickPriority;
 281:Drivers/STM32H7xx_HAL_Driver/Src/stm32h7xx_hal.c ****   }
 282:Drivers/STM32H7xx_HAL_Driver/Src/stm32h7xx_hal.c ****   else
 283:Drivers/STM32H7xx_HAL_Driver/Src/stm32h7xx_hal.c ****   {
 284:Drivers/STM32H7xx_HAL_Driver/Src/stm32h7xx_hal.c ****     return HAL_ERROR;
 285:Drivers/STM32H7xx_HAL_Driver/Src/stm32h7xx_hal.c ****   }
 286:Drivers/STM32H7xx_HAL_Driver/Src/stm32h7xx_hal.c **** 
 287:Drivers/STM32H7xx_HAL_Driver/Src/stm32h7xx_hal.c ****   /* Return function status */
 288:Drivers/STM32H7xx_HAL_Driver/Src/stm32h7xx_hal.c ****   return HAL_OK;
 289:Drivers/STM32H7xx_HAL_Driver/Src/stm32h7xx_hal.c **** }
 165              		.loc 1 289 1 view .LVU31
 166 0008 7047     		bx	lr
 167              	.LVL3:
 168              	.L16:
 263:Drivers/STM32H7xx_HAL_Driver/Src/stm32h7xx_hal.c ****   /* Check uwTickFreq for MisraC 2012 (even if uwTickFreq is a enum type that don't take the value 
 169              		.loc 1 263 1 view .LVU32
 170 000a 10B5     		push	{r4, lr}
 171              	.LCFI1:
 172              		.cfi_def_cfa_offset 8
 173              		.cfi_offset 4, -8
 174              		.cfi_offset 14, -4
 175 000c 0446     		mov	r4, r0
 271:Drivers/STM32H7xx_HAL_Driver/Src/stm32h7xx_hal.c ****   {
 176              		.loc 1 271 3 is_stmt 1 view .LVU33
 271:Drivers/STM32H7xx_HAL_Driver/Src/stm32h7xx_hal.c ****   {
 177              		.loc 1 271 7 is_stmt 0 view .LVU34
 178 000e 0E4A     		ldr	r2, .L18+4
 179 0010 1068     		ldr	r0, [r2]
 180              	.LVL4:
 271:Drivers/STM32H7xx_HAL_Driver/Src/stm32h7xx_hal.c ****   {
 181              		.loc 1 271 52 view .LVU35
 182 0012 4FF47A72 		mov	r2, #1000
 183 0016 B2FBF3F3 		udiv	r3, r2, r3
 271:Drivers/STM32H7xx_HAL_Driver/Src/stm32h7xx_hal.c ****   {
 184              		.loc 1 271 7 view .LVU36
 185 001a B0FBF3F0 		udiv	r0, r0, r3
 186 001e FFF7FEFF 		bl	HAL_SYSTICK_Config
 187              	.LVL5:
 271:Drivers/STM32H7xx_HAL_Driver/Src/stm32h7xx_hal.c ****   {
 188              		.loc 1 271 6 discriminator 1 view .LVU37
 189 0022 68B9     		cbnz	r0, .L10
 277:Drivers/STM32H7xx_HAL_Driver/Src/stm32h7xx_hal.c ****   {
 190              		.loc 1 277 3 is_stmt 1 view .LVU38
 277:Drivers/STM32H7xx_HAL_Driver/Src/stm32h7xx_hal.c ****   {
 191              		.loc 1 277 6 is_stmt 0 view .LVU39
 192 0024 0F2C     		cmp	r4, #15
 193 0026 01D9     		bls	.L17
 284:Drivers/STM32H7xx_HAL_Driver/Src/stm32h7xx_hal.c ****   }
 194              		.loc 1 284 12 view .LVU40
 195 0028 0120     		movs	r0, #1
 196 002a 0AE0     		b	.L8
 197              	.L17:
 279:Drivers/STM32H7xx_HAL_Driver/Src/stm32h7xx_hal.c ****     uwTickPrio = TickPriority;
 198              		.loc 1 279 5 is_stmt 1 view .LVU41
 199 002c 0246     		mov	r2, r0
ARM GAS  C:\Users\27655\AppData\Local\Temp\ccShhaKP.s 			page 10


 200 002e 2146     		mov	r1, r4
 201 0030 4FF0FF30 		mov	r0, #-1
 202 0034 FFF7FEFF 		bl	HAL_NVIC_SetPriority
 203              	.LVL6:
 280:Drivers/STM32H7xx_HAL_Driver/Src/stm32h7xx_hal.c ****   }
 204              		.loc 1 280 5 view .LVU42
 280:Drivers/STM32H7xx_HAL_Driver/Src/stm32h7xx_hal.c ****   }
 205              		.loc 1 280 16 is_stmt 0 view .LVU43
 206 0038 044B     		ldr	r3, .L18+8
 207 003a 1C60     		str	r4, [r3]
 288:Drivers/STM32H7xx_HAL_Driver/Src/stm32h7xx_hal.c **** }
 208              		.loc 1 288 3 is_stmt 1 view .LVU44
 288:Drivers/STM32H7xx_HAL_Driver/Src/stm32h7xx_hal.c **** }
 209              		.loc 1 288 10 is_stmt 0 view .LVU45
 210 003c 0020     		movs	r0, #0
 211 003e 00E0     		b	.L8
 212              	.L10:
 273:Drivers/STM32H7xx_HAL_Driver/Src/stm32h7xx_hal.c ****   }
 213              		.loc 1 273 12 view .LVU46
 214 0040 0120     		movs	r0, #1
 215              	.L8:
 216              		.loc 1 289 1 view .LVU47
 217 0042 10BD     		pop	{r4, pc}
 218              	.LVL7:
 219              	.L19:
 220              		.loc 1 289 1 view .LVU48
 221              		.align	2
 222              	.L18:
 223 0044 00000000 		.word	uwTickFreq
 224 0048 00000000 		.word	SystemCoreClock
 225 004c 00000000 		.word	uwTickPrio
 226              		.cfi_endproc
 227              	.LFE150:
 229              		.section	.text.HAL_Init,"ax",%progbits
 230              		.align	1
 231              		.global	HAL_Init
 232              		.syntax unified
 233              		.thumb
 234              		.thumb_func
 236              	HAL_Init:
 237              	.LFB146:
 135:Drivers/STM32H7xx_HAL_Driver/Src/stm32h7xx_hal.c **** 
 238              		.loc 1 135 1 is_stmt 1 view -0
 239              		.cfi_startproc
 240              		@ args = 0, pretend = 0, frame = 0
 241              		@ frame_needed = 0, uses_anonymous_args = 0
 242 0000 10B5     		push	{r4, lr}
 243              	.LCFI2:
 244              		.cfi_def_cfa_offset 8
 245              		.cfi_offset 4, -8
 246              		.cfi_offset 14, -4
 137:Drivers/STM32H7xx_HAL_Driver/Src/stm32h7xx_hal.c **** 
 247              		.loc 1 137 1 view .LVU50
 147:Drivers/STM32H7xx_HAL_Driver/Src/stm32h7xx_hal.c **** 
 248              		.loc 1 147 3 view .LVU51
 249 0002 0320     		movs	r0, #3
 250 0004 FFF7FEFF 		bl	HAL_NVIC_SetPriorityGrouping
ARM GAS  C:\Users\27655\AppData\Local\Temp\ccShhaKP.s 			page 11


 251              	.LVL8:
 151:Drivers/STM32H7xx_HAL_Driver/Src/stm32h7xx_hal.c **** #else
 252              		.loc 1 151 3 view .LVU52
 151:Drivers/STM32H7xx_HAL_Driver/Src/stm32h7xx_hal.c **** #else
 253              		.loc 1 151 25 is_stmt 0 view .LVU53
 254 0008 FFF7FEFF 		bl	HAL_RCC_GetSysClockFreq
 255              	.LVL9:
 151:Drivers/STM32H7xx_HAL_Driver/Src/stm32h7xx_hal.c **** #else
 256              		.loc 1 151 77 discriminator 1 view .LVU54
 257 000c 1049     		ldr	r1, .L25
 258 000e 8B69     		ldr	r3, [r1, #24]
 151:Drivers/STM32H7xx_HAL_Driver/Src/stm32h7xx_hal.c **** #else
 259              		.loc 1 151 106 discriminator 1 view .LVU55
 260 0010 C3F30323 		ubfx	r3, r3, #8, #4
 151:Drivers/STM32H7xx_HAL_Driver/Src/stm32h7xx_hal.c **** #else
 261              		.loc 1 151 72 discriminator 1 view .LVU56
 262 0014 0F4A     		ldr	r2, .L25+4
 263 0016 D35C     		ldrb	r3, [r2, r3]	@ zero_extendqisi2
 151:Drivers/STM32H7xx_HAL_Driver/Src/stm32h7xx_hal.c **** #else
 264              		.loc 1 151 133 discriminator 1 view .LVU57
 265 0018 03F01F03 		and	r3, r3, #31
 151:Drivers/STM32H7xx_HAL_Driver/Src/stm32h7xx_hal.c **** #else
 266              		.loc 1 151 23 discriminator 1 view .LVU58
 267 001c D840     		lsrs	r0, r0, r3
 268              	.LVL10:
 158:Drivers/STM32H7xx_HAL_Driver/Src/stm32h7xx_hal.c **** #else
 269              		.loc 1 158 3 is_stmt 1 view .LVU59
 158:Drivers/STM32H7xx_HAL_Driver/Src/stm32h7xx_hal.c **** #else
 270              		.loc 1 158 66 is_stmt 0 view .LVU60
 271 001e 8B69     		ldr	r3, [r1, #24]
 158:Drivers/STM32H7xx_HAL_Driver/Src/stm32h7xx_hal.c **** #else
 272              		.loc 1 158 93 view .LVU61
 273 0020 03F00F03 		and	r3, r3, #15
 158:Drivers/STM32H7xx_HAL_Driver/Src/stm32h7xx_hal.c **** #else
 274              		.loc 1 158 61 view .LVU62
 275 0024 D35C     		ldrb	r3, [r2, r3]	@ zero_extendqisi2
 158:Drivers/STM32H7xx_HAL_Driver/Src/stm32h7xx_hal.c **** #else
 276              		.loc 1 158 118 view .LVU63
 277 0026 03F01F03 		and	r3, r3, #31
 158:Drivers/STM32H7xx_HAL_Driver/Src/stm32h7xx_hal.c **** #else
 278              		.loc 1 158 40 view .LVU64
 279 002a 20FA03F3 		lsr	r3, r0, r3
 158:Drivers/STM32H7xx_HAL_Driver/Src/stm32h7xx_hal.c **** #else
 280              		.loc 1 158 17 view .LVU65
 281 002e 0A4A     		ldr	r2, .L25+8
 282 0030 1360     		str	r3, [r2]
 166:Drivers/STM32H7xx_HAL_Driver/Src/stm32h7xx_hal.c **** #endif /* DUAL_CORE && CORE_CM4 */
 283              		.loc 1 166 3 is_stmt 1 view .LVU66
 166:Drivers/STM32H7xx_HAL_Driver/Src/stm32h7xx_hal.c **** #endif /* DUAL_CORE && CORE_CM4 */
 284              		.loc 1 166 19 is_stmt 0 view .LVU67
 285 0032 0A4B     		ldr	r3, .L25+12
 286 0034 1860     		str	r0, [r3]
 170:Drivers/STM32H7xx_HAL_Driver/Src/stm32h7xx_hal.c ****   {
 287              		.loc 1 170 3 is_stmt 1 view .LVU68
 170:Drivers/STM32H7xx_HAL_Driver/Src/stm32h7xx_hal.c ****   {
 288              		.loc 1 170 6 is_stmt 0 view .LVU69
 289 0036 0F20     		movs	r0, #15
ARM GAS  C:\Users\27655\AppData\Local\Temp\ccShhaKP.s 			page 12


 290              	.LVL11:
 170:Drivers/STM32H7xx_HAL_Driver/Src/stm32h7xx_hal.c ****   {
 291              		.loc 1 170 6 view .LVU70
 292 0038 FFF7FEFF 		bl	HAL_InitTick
 293              	.LVL12:
 170:Drivers/STM32H7xx_HAL_Driver/Src/stm32h7xx_hal.c ****   {
 294              		.loc 1 170 5 discriminator 1 view .LVU71
 295 003c 18B1     		cbz	r0, .L24
 172:Drivers/STM32H7xx_HAL_Driver/Src/stm32h7xx_hal.c ****   }
 296              		.loc 1 172 12 view .LVU72
 297 003e 0123     		movs	r3, #1
 298 0040 1C46     		mov	r4, r3
 299              	.L21:
 180:Drivers/STM32H7xx_HAL_Driver/Src/stm32h7xx_hal.c **** 
 300              		.loc 1 180 1 view .LVU73
 301 0042 2046     		mov	r0, r4
 302 0044 10BD     		pop	{r4, pc}
 303              	.L24:
 304 0046 0446     		mov	r4, r0
 176:Drivers/STM32H7xx_HAL_Driver/Src/stm32h7xx_hal.c **** 
 305              		.loc 1 176 3 is_stmt 1 view .LVU74
 306 0048 FFF7FEFF 		bl	HAL_MspInit
 307              	.LVL13:
 179:Drivers/STM32H7xx_HAL_Driver/Src/stm32h7xx_hal.c **** }
 308              		.loc 1 179 3 view .LVU75
 179:Drivers/STM32H7xx_HAL_Driver/Src/stm32h7xx_hal.c **** }
 309              		.loc 1 179 10 is_stmt 0 view .LVU76
 310 004c F9E7     		b	.L21
 311              	.L26:
 312 004e 00BF     		.align	2
 313              	.L25:
 314 0050 00440258 		.word	1476543488
 315 0054 00000000 		.word	D1CorePrescTable
 316 0058 00000000 		.word	SystemD2Clock
 317 005c 00000000 		.word	SystemCoreClock
 318              		.cfi_endproc
 319              	.LFE146:
 321              		.section	.text.HAL_IncTick,"ax",%progbits
 322              		.align	1
 323              		.weak	HAL_IncTick
 324              		.syntax unified
 325              		.thumb
 326              		.thumb_func
 328              	HAL_IncTick:
 329              	.LFB151:
 290:Drivers/STM32H7xx_HAL_Driver/Src/stm32h7xx_hal.c **** 
 291:Drivers/STM32H7xx_HAL_Driver/Src/stm32h7xx_hal.c **** /**
 292:Drivers/STM32H7xx_HAL_Driver/Src/stm32h7xx_hal.c ****   * @}
 293:Drivers/STM32H7xx_HAL_Driver/Src/stm32h7xx_hal.c ****   */
 294:Drivers/STM32H7xx_HAL_Driver/Src/stm32h7xx_hal.c **** 
 295:Drivers/STM32H7xx_HAL_Driver/Src/stm32h7xx_hal.c **** /** @addtogroup HAL_Group2
 296:Drivers/STM32H7xx_HAL_Driver/Src/stm32h7xx_hal.c ****  *  @brief    HAL Control functions
 297:Drivers/STM32H7xx_HAL_Driver/Src/stm32h7xx_hal.c ****  *
 298:Drivers/STM32H7xx_HAL_Driver/Src/stm32h7xx_hal.c **** @verbatim
 299:Drivers/STM32H7xx_HAL_Driver/Src/stm32h7xx_hal.c ****  ===============================================================================
 300:Drivers/STM32H7xx_HAL_Driver/Src/stm32h7xx_hal.c ****                       ##### HAL Control functions #####
 301:Drivers/STM32H7xx_HAL_Driver/Src/stm32h7xx_hal.c ****  ===============================================================================
ARM GAS  C:\Users\27655\AppData\Local\Temp\ccShhaKP.s 			page 13


 302:Drivers/STM32H7xx_HAL_Driver/Src/stm32h7xx_hal.c ****     [..]  This section provides functions allowing to:
 303:Drivers/STM32H7xx_HAL_Driver/Src/stm32h7xx_hal.c ****       (+) Provide a tick value in millisecond
 304:Drivers/STM32H7xx_HAL_Driver/Src/stm32h7xx_hal.c ****       (+) Provide a blocking delay in millisecond
 305:Drivers/STM32H7xx_HAL_Driver/Src/stm32h7xx_hal.c ****       (+) Suspend the time base source interrupt
 306:Drivers/STM32H7xx_HAL_Driver/Src/stm32h7xx_hal.c ****       (+) Resume the time base source interrupt
 307:Drivers/STM32H7xx_HAL_Driver/Src/stm32h7xx_hal.c ****       (+) Get the HAL API driver version
 308:Drivers/STM32H7xx_HAL_Driver/Src/stm32h7xx_hal.c ****       (+) Get the device identifier
 309:Drivers/STM32H7xx_HAL_Driver/Src/stm32h7xx_hal.c ****       (+) Get the device revision identifier
 310:Drivers/STM32H7xx_HAL_Driver/Src/stm32h7xx_hal.c ****       (+) Enable/Disable Debug module during SLEEP mode
 311:Drivers/STM32H7xx_HAL_Driver/Src/stm32h7xx_hal.c ****       (+) Enable/Disable Debug module during STOP mode
 312:Drivers/STM32H7xx_HAL_Driver/Src/stm32h7xx_hal.c ****       (+) Enable/Disable Debug module during STANDBY mode
 313:Drivers/STM32H7xx_HAL_Driver/Src/stm32h7xx_hal.c **** 
 314:Drivers/STM32H7xx_HAL_Driver/Src/stm32h7xx_hal.c **** @endverbatim
 315:Drivers/STM32H7xx_HAL_Driver/Src/stm32h7xx_hal.c ****   * @{
 316:Drivers/STM32H7xx_HAL_Driver/Src/stm32h7xx_hal.c ****   */
 317:Drivers/STM32H7xx_HAL_Driver/Src/stm32h7xx_hal.c **** 
 318:Drivers/STM32H7xx_HAL_Driver/Src/stm32h7xx_hal.c **** /**
 319:Drivers/STM32H7xx_HAL_Driver/Src/stm32h7xx_hal.c ****   * @brief This function is called to increment  a global variable "uwTick"
 320:Drivers/STM32H7xx_HAL_Driver/Src/stm32h7xx_hal.c ****   *        used as application time base.
 321:Drivers/STM32H7xx_HAL_Driver/Src/stm32h7xx_hal.c ****   * @note In the default implementation, this variable is incremented each 1ms
 322:Drivers/STM32H7xx_HAL_Driver/Src/stm32h7xx_hal.c ****   *       in Systick ISR.
 323:Drivers/STM32H7xx_HAL_Driver/Src/stm32h7xx_hal.c ****  * @note This function is declared as __weak to be overwritten in case of other
 324:Drivers/STM32H7xx_HAL_Driver/Src/stm32h7xx_hal.c ****   *      implementations in user file.
 325:Drivers/STM32H7xx_HAL_Driver/Src/stm32h7xx_hal.c ****   * @retval None
 326:Drivers/STM32H7xx_HAL_Driver/Src/stm32h7xx_hal.c ****   */
 327:Drivers/STM32H7xx_HAL_Driver/Src/stm32h7xx_hal.c **** __weak void HAL_IncTick(void)
 328:Drivers/STM32H7xx_HAL_Driver/Src/stm32h7xx_hal.c **** {
 330              		.loc 1 328 1 is_stmt 1 view -0
 331              		.cfi_startproc
 332              		@ args = 0, pretend = 0, frame = 0
 333              		@ frame_needed = 0, uses_anonymous_args = 0
 334              		@ link register save eliminated.
 329:Drivers/STM32H7xx_HAL_Driver/Src/stm32h7xx_hal.c ****   uwTick += (uint32_t)uwTickFreq;
 335              		.loc 1 329 3 view .LVU78
 336              		.loc 1 329 13 is_stmt 0 view .LVU79
 337 0000 034B     		ldr	r3, .L28
 338 0002 1B78     		ldrb	r3, [r3]	@ zero_extendqisi2
 339              		.loc 1 329 10 view .LVU80
 340 0004 034A     		ldr	r2, .L28+4
 341 0006 1168     		ldr	r1, [r2]
 342 0008 0B44     		add	r3, r3, r1
 343 000a 1360     		str	r3, [r2]
 330:Drivers/STM32H7xx_HAL_Driver/Src/stm32h7xx_hal.c **** }
 344              		.loc 1 330 1 view .LVU81
 345 000c 7047     		bx	lr
 346              	.L29:
 347 000e 00BF     		.align	2
 348              	.L28:
 349 0010 00000000 		.word	uwTickFreq
 350 0014 00000000 		.word	uwTick
 351              		.cfi_endproc
 352              	.LFE151:
 354              		.section	.text.HAL_GetTick,"ax",%progbits
 355              		.align	1
 356              		.weak	HAL_GetTick
 357              		.syntax unified
 358              		.thumb
ARM GAS  C:\Users\27655\AppData\Local\Temp\ccShhaKP.s 			page 14


 359              		.thumb_func
 361              	HAL_GetTick:
 362              	.LFB152:
 331:Drivers/STM32H7xx_HAL_Driver/Src/stm32h7xx_hal.c **** 
 332:Drivers/STM32H7xx_HAL_Driver/Src/stm32h7xx_hal.c **** /**
 333:Drivers/STM32H7xx_HAL_Driver/Src/stm32h7xx_hal.c ****   * @brief Provides a tick value in millisecond.
 334:Drivers/STM32H7xx_HAL_Driver/Src/stm32h7xx_hal.c ****   * @note This function is declared as __weak to be overwritten in case of other
 335:Drivers/STM32H7xx_HAL_Driver/Src/stm32h7xx_hal.c ****   *       implementations in user file.
 336:Drivers/STM32H7xx_HAL_Driver/Src/stm32h7xx_hal.c ****   * @retval tick value
 337:Drivers/STM32H7xx_HAL_Driver/Src/stm32h7xx_hal.c ****   */
 338:Drivers/STM32H7xx_HAL_Driver/Src/stm32h7xx_hal.c **** __weak uint32_t HAL_GetTick(void)
 339:Drivers/STM32H7xx_HAL_Driver/Src/stm32h7xx_hal.c **** {
 363              		.loc 1 339 1 is_stmt 1 view -0
 364              		.cfi_startproc
 365              		@ args = 0, pretend = 0, frame = 0
 366              		@ frame_needed = 0, uses_anonymous_args = 0
 367              		@ link register save eliminated.
 340:Drivers/STM32H7xx_HAL_Driver/Src/stm32h7xx_hal.c ****   return uwTick;
 368              		.loc 1 340 3 view .LVU83
 369              		.loc 1 340 10 is_stmt 0 view .LVU84
 370 0000 014B     		ldr	r3, .L31
 371 0002 1868     		ldr	r0, [r3]
 341:Drivers/STM32H7xx_HAL_Driver/Src/stm32h7xx_hal.c **** }
 372              		.loc 1 341 1 view .LVU85
 373 0004 7047     		bx	lr
 374              	.L32:
 375 0006 00BF     		.align	2
 376              	.L31:
 377 0008 00000000 		.word	uwTick
 378              		.cfi_endproc
 379              	.LFE152:
 381              		.section	.text.HAL_GetTickPrio,"ax",%progbits
 382              		.align	1
 383              		.global	HAL_GetTickPrio
 384              		.syntax unified
 385              		.thumb
 386              		.thumb_func
 388              	HAL_GetTickPrio:
 389              	.LFB153:
 342:Drivers/STM32H7xx_HAL_Driver/Src/stm32h7xx_hal.c **** 
 343:Drivers/STM32H7xx_HAL_Driver/Src/stm32h7xx_hal.c **** /**
 344:Drivers/STM32H7xx_HAL_Driver/Src/stm32h7xx_hal.c ****   * @brief This function returns a tick priority.
 345:Drivers/STM32H7xx_HAL_Driver/Src/stm32h7xx_hal.c ****   * @retval tick priority
 346:Drivers/STM32H7xx_HAL_Driver/Src/stm32h7xx_hal.c ****   */
 347:Drivers/STM32H7xx_HAL_Driver/Src/stm32h7xx_hal.c **** uint32_t HAL_GetTickPrio(void)
 348:Drivers/STM32H7xx_HAL_Driver/Src/stm32h7xx_hal.c **** {
 390              		.loc 1 348 1 is_stmt 1 view -0
 391              		.cfi_startproc
 392              		@ args = 0, pretend = 0, frame = 0
 393              		@ frame_needed = 0, uses_anonymous_args = 0
 394              		@ link register save eliminated.
 349:Drivers/STM32H7xx_HAL_Driver/Src/stm32h7xx_hal.c ****   return uwTickPrio;
 395              		.loc 1 349 3 view .LVU87
 350:Drivers/STM32H7xx_HAL_Driver/Src/stm32h7xx_hal.c **** }
 396              		.loc 1 350 1 is_stmt 0 view .LVU88
 397 0000 014B     		ldr	r3, .L34
 398 0002 1868     		ldr	r0, [r3]
ARM GAS  C:\Users\27655\AppData\Local\Temp\ccShhaKP.s 			page 15


 399 0004 7047     		bx	lr
 400              	.L35:
 401 0006 00BF     		.align	2
 402              	.L34:
 403 0008 00000000 		.word	uwTickPrio
 404              		.cfi_endproc
 405              	.LFE153:
 407              		.section	.text.HAL_SetTickFreq,"ax",%progbits
 408              		.align	1
 409              		.global	HAL_SetTickFreq
 410              		.syntax unified
 411              		.thumb
 412              		.thumb_func
 414              	HAL_SetTickFreq:
 415              	.LVL14:
 416              	.LFB154:
 351:Drivers/STM32H7xx_HAL_Driver/Src/stm32h7xx_hal.c **** 
 352:Drivers/STM32H7xx_HAL_Driver/Src/stm32h7xx_hal.c **** /**
 353:Drivers/STM32H7xx_HAL_Driver/Src/stm32h7xx_hal.c ****   * @brief Set new tick Freq.
 354:Drivers/STM32H7xx_HAL_Driver/Src/stm32h7xx_hal.c ****   * @retval Status
 355:Drivers/STM32H7xx_HAL_Driver/Src/stm32h7xx_hal.c ****   */
 356:Drivers/STM32H7xx_HAL_Driver/Src/stm32h7xx_hal.c **** HAL_StatusTypeDef HAL_SetTickFreq(HAL_TickFreqTypeDef Freq)
 357:Drivers/STM32H7xx_HAL_Driver/Src/stm32h7xx_hal.c **** {
 417              		.loc 1 357 1 is_stmt 1 view -0
 418              		.cfi_startproc
 419              		@ args = 0, pretend = 0, frame = 0
 420              		@ frame_needed = 0, uses_anonymous_args = 0
 421              		.loc 1 357 1 is_stmt 0 view .LVU90
 422 0000 10B5     		push	{r4, lr}
 423              	.LCFI3:
 424              		.cfi_def_cfa_offset 8
 425              		.cfi_offset 4, -8
 426              		.cfi_offset 14, -4
 358:Drivers/STM32H7xx_HAL_Driver/Src/stm32h7xx_hal.c ****   HAL_StatusTypeDef status  = HAL_OK;
 427              		.loc 1 358 3 is_stmt 1 view .LVU91
 428              	.LVL15:
 359:Drivers/STM32H7xx_HAL_Driver/Src/stm32h7xx_hal.c ****   HAL_TickFreqTypeDef prevTickFreq;
 429              		.loc 1 359 3 view .LVU92
 360:Drivers/STM32H7xx_HAL_Driver/Src/stm32h7xx_hal.c **** 
 361:Drivers/STM32H7xx_HAL_Driver/Src/stm32h7xx_hal.c ****   assert_param(IS_TICKFREQ(Freq));
 430              		.loc 1 361 3 view .LVU93
 362:Drivers/STM32H7xx_HAL_Driver/Src/stm32h7xx_hal.c **** 
 363:Drivers/STM32H7xx_HAL_Driver/Src/stm32h7xx_hal.c ****   if (uwTickFreq != Freq)
 431              		.loc 1 363 3 view .LVU94
 432              		.loc 1 363 18 is_stmt 0 view .LVU95
 433 0002 084B     		ldr	r3, .L41
 434 0004 1C78     		ldrb	r4, [r3]	@ zero_extendqisi2
 435              		.loc 1 363 6 view .LVU96
 436 0006 8442     		cmp	r4, r0
 437 0008 01D1     		bne	.L40
 358:Drivers/STM32H7xx_HAL_Driver/Src/stm32h7xx_hal.c ****   HAL_TickFreqTypeDef prevTickFreq;
 438              		.loc 1 358 21 view .LVU97
 439 000a 0020     		movs	r0, #0
 440              	.LVL16:
 441              	.L37:
 364:Drivers/STM32H7xx_HAL_Driver/Src/stm32h7xx_hal.c ****   {
 365:Drivers/STM32H7xx_HAL_Driver/Src/stm32h7xx_hal.c **** 
ARM GAS  C:\Users\27655\AppData\Local\Temp\ccShhaKP.s 			page 16


 366:Drivers/STM32H7xx_HAL_Driver/Src/stm32h7xx_hal.c ****     /* Back up uwTickFreq frequency */
 367:Drivers/STM32H7xx_HAL_Driver/Src/stm32h7xx_hal.c ****     prevTickFreq = uwTickFreq;
 368:Drivers/STM32H7xx_HAL_Driver/Src/stm32h7xx_hal.c **** 
 369:Drivers/STM32H7xx_HAL_Driver/Src/stm32h7xx_hal.c ****     /* Update uwTickFreq global variable used by HAL_InitTick() */
 370:Drivers/STM32H7xx_HAL_Driver/Src/stm32h7xx_hal.c ****     uwTickFreq = Freq;
 371:Drivers/STM32H7xx_HAL_Driver/Src/stm32h7xx_hal.c **** 
 372:Drivers/STM32H7xx_HAL_Driver/Src/stm32h7xx_hal.c ****     /* Apply the new tick Freq  */
 373:Drivers/STM32H7xx_HAL_Driver/Src/stm32h7xx_hal.c ****     status = HAL_InitTick(uwTickPrio);
 374:Drivers/STM32H7xx_HAL_Driver/Src/stm32h7xx_hal.c ****     if (status != HAL_OK)
 375:Drivers/STM32H7xx_HAL_Driver/Src/stm32h7xx_hal.c ****     {
 376:Drivers/STM32H7xx_HAL_Driver/Src/stm32h7xx_hal.c ****       /* Restore previous tick frequency */
 377:Drivers/STM32H7xx_HAL_Driver/Src/stm32h7xx_hal.c ****       uwTickFreq = prevTickFreq;
 378:Drivers/STM32H7xx_HAL_Driver/Src/stm32h7xx_hal.c ****     }
 379:Drivers/STM32H7xx_HAL_Driver/Src/stm32h7xx_hal.c ****   }
 380:Drivers/STM32H7xx_HAL_Driver/Src/stm32h7xx_hal.c **** 
 381:Drivers/STM32H7xx_HAL_Driver/Src/stm32h7xx_hal.c ****   return status;
 442              		.loc 1 381 3 is_stmt 1 view .LVU98
 382:Drivers/STM32H7xx_HAL_Driver/Src/stm32h7xx_hal.c **** }
 443              		.loc 1 382 1 is_stmt 0 view .LVU99
 444 000c 10BD     		pop	{r4, pc}
 445              	.LVL17:
 446              	.L40:
 367:Drivers/STM32H7xx_HAL_Driver/Src/stm32h7xx_hal.c **** 
 447              		.loc 1 367 5 is_stmt 1 view .LVU100
 370:Drivers/STM32H7xx_HAL_Driver/Src/stm32h7xx_hal.c **** 
 448              		.loc 1 370 5 view .LVU101
 370:Drivers/STM32H7xx_HAL_Driver/Src/stm32h7xx_hal.c **** 
 449              		.loc 1 370 16 is_stmt 0 view .LVU102
 450 000e 1870     		strb	r0, [r3]
 373:Drivers/STM32H7xx_HAL_Driver/Src/stm32h7xx_hal.c ****     if (status != HAL_OK)
 451              		.loc 1 373 5 is_stmt 1 view .LVU103
 373:Drivers/STM32H7xx_HAL_Driver/Src/stm32h7xx_hal.c ****     if (status != HAL_OK)
 452              		.loc 1 373 14 is_stmt 0 view .LVU104
 453 0010 054B     		ldr	r3, .L41+4
 454 0012 1868     		ldr	r0, [r3]
 455              	.LVL18:
 373:Drivers/STM32H7xx_HAL_Driver/Src/stm32h7xx_hal.c ****     if (status != HAL_OK)
 456              		.loc 1 373 14 view .LVU105
 457 0014 FFF7FEFF 		bl	HAL_InitTick
 458              	.LVL19:
 374:Drivers/STM32H7xx_HAL_Driver/Src/stm32h7xx_hal.c ****     {
 459              		.loc 1 374 5 is_stmt 1 view .LVU106
 374:Drivers/STM32H7xx_HAL_Driver/Src/stm32h7xx_hal.c ****     {
 460              		.loc 1 374 8 is_stmt 0 view .LVU107
 461 0018 0028     		cmp	r0, #0
 462 001a F7D0     		beq	.L37
 377:Drivers/STM32H7xx_HAL_Driver/Src/stm32h7xx_hal.c ****     }
 463              		.loc 1 377 7 is_stmt 1 view .LVU108
 377:Drivers/STM32H7xx_HAL_Driver/Src/stm32h7xx_hal.c ****     }
 464              		.loc 1 377 18 is_stmt 0 view .LVU109
 465 001c 014B     		ldr	r3, .L41
 466 001e 1C70     		strb	r4, [r3]
 467 0020 F4E7     		b	.L37
 468              	.L42:
 469 0022 00BF     		.align	2
 470              	.L41:
 471 0024 00000000 		.word	uwTickFreq
ARM GAS  C:\Users\27655\AppData\Local\Temp\ccShhaKP.s 			page 17


 472 0028 00000000 		.word	uwTickPrio
 473              		.cfi_endproc
 474              	.LFE154:
 476              		.section	.text.HAL_GetTickFreq,"ax",%progbits
 477              		.align	1
 478              		.global	HAL_GetTickFreq
 479              		.syntax unified
 480              		.thumb
 481              		.thumb_func
 483              	HAL_GetTickFreq:
 484              	.LFB155:
 383:Drivers/STM32H7xx_HAL_Driver/Src/stm32h7xx_hal.c **** 
 384:Drivers/STM32H7xx_HAL_Driver/Src/stm32h7xx_hal.c **** /**
 385:Drivers/STM32H7xx_HAL_Driver/Src/stm32h7xx_hal.c ****   * @brief Return tick frequency.
 386:Drivers/STM32H7xx_HAL_Driver/Src/stm32h7xx_hal.c ****   * @retval Tick frequency.
 387:Drivers/STM32H7xx_HAL_Driver/Src/stm32h7xx_hal.c ****   *         Value of @ref HAL_TickFreqTypeDef.
 388:Drivers/STM32H7xx_HAL_Driver/Src/stm32h7xx_hal.c ****   */
 389:Drivers/STM32H7xx_HAL_Driver/Src/stm32h7xx_hal.c **** HAL_TickFreqTypeDef HAL_GetTickFreq(void)
 390:Drivers/STM32H7xx_HAL_Driver/Src/stm32h7xx_hal.c **** {
 485              		.loc 1 390 1 is_stmt 1 view -0
 486              		.cfi_startproc
 487              		@ args = 0, pretend = 0, frame = 0
 488              		@ frame_needed = 0, uses_anonymous_args = 0
 489              		@ link register save eliminated.
 391:Drivers/STM32H7xx_HAL_Driver/Src/stm32h7xx_hal.c ****   return uwTickFreq;
 490              		.loc 1 391 3 view .LVU111
 392:Drivers/STM32H7xx_HAL_Driver/Src/stm32h7xx_hal.c **** }
 491              		.loc 1 392 1 is_stmt 0 view .LVU112
 492 0000 014B     		ldr	r3, .L44
 493 0002 1878     		ldrb	r0, [r3]	@ zero_extendqisi2
 494 0004 7047     		bx	lr
 495              	.L45:
 496 0006 00BF     		.align	2
 497              	.L44:
 498 0008 00000000 		.word	uwTickFreq
 499              		.cfi_endproc
 500              	.LFE155:
 502              		.section	.text.HAL_Delay,"ax",%progbits
 503              		.align	1
 504              		.weak	HAL_Delay
 505              		.syntax unified
 506              		.thumb
 507              		.thumb_func
 509              	HAL_Delay:
 510              	.LVL20:
 511              	.LFB156:
 393:Drivers/STM32H7xx_HAL_Driver/Src/stm32h7xx_hal.c **** 
 394:Drivers/STM32H7xx_HAL_Driver/Src/stm32h7xx_hal.c **** /**
 395:Drivers/STM32H7xx_HAL_Driver/Src/stm32h7xx_hal.c ****   * @brief This function provides minimum delay (in milliseconds) based
 396:Drivers/STM32H7xx_HAL_Driver/Src/stm32h7xx_hal.c ****   *        on variable incremented.
 397:Drivers/STM32H7xx_HAL_Driver/Src/stm32h7xx_hal.c ****   * @note In the default implementation , SysTick timer is the source of time base.
 398:Drivers/STM32H7xx_HAL_Driver/Src/stm32h7xx_hal.c ****   *       It is used to generate interrupts at regular time intervals where uwTick
 399:Drivers/STM32H7xx_HAL_Driver/Src/stm32h7xx_hal.c ****   *       is incremented.
 400:Drivers/STM32H7xx_HAL_Driver/Src/stm32h7xx_hal.c ****   * @note This function is declared as __weak to be overwritten in case of other
 401:Drivers/STM32H7xx_HAL_Driver/Src/stm32h7xx_hal.c ****   *       implementations in user file.
 402:Drivers/STM32H7xx_HAL_Driver/Src/stm32h7xx_hal.c ****   * @param Delay  specifies the delay time length, in milliseconds.
 403:Drivers/STM32H7xx_HAL_Driver/Src/stm32h7xx_hal.c ****   * @retval None
ARM GAS  C:\Users\27655\AppData\Local\Temp\ccShhaKP.s 			page 18


 404:Drivers/STM32H7xx_HAL_Driver/Src/stm32h7xx_hal.c ****   */
 405:Drivers/STM32H7xx_HAL_Driver/Src/stm32h7xx_hal.c **** __weak void HAL_Delay(uint32_t Delay)
 406:Drivers/STM32H7xx_HAL_Driver/Src/stm32h7xx_hal.c **** {
 512              		.loc 1 406 1 is_stmt 1 view -0
 513              		.cfi_startproc
 514              		@ args = 0, pretend = 0, frame = 0
 515              		@ frame_needed = 0, uses_anonymous_args = 0
 516              		.loc 1 406 1 is_stmt 0 view .LVU114
 517 0000 38B5     		push	{r3, r4, r5, lr}
 518              	.LCFI4:
 519              		.cfi_def_cfa_offset 16
 520              		.cfi_offset 3, -16
 521              		.cfi_offset 4, -12
 522              		.cfi_offset 5, -8
 523              		.cfi_offset 14, -4
 524 0002 0446     		mov	r4, r0
 407:Drivers/STM32H7xx_HAL_Driver/Src/stm32h7xx_hal.c ****   uint32_t tickstart = HAL_GetTick();
 525              		.loc 1 407 3 is_stmt 1 view .LVU115
 526              		.loc 1 407 24 is_stmt 0 view .LVU116
 527 0004 FFF7FEFF 		bl	HAL_GetTick
 528              	.LVL21:
 529              		.loc 1 407 24 view .LVU117
 530 0008 0546     		mov	r5, r0
 531              	.LVL22:
 408:Drivers/STM32H7xx_HAL_Driver/Src/stm32h7xx_hal.c ****   uint32_t wait = Delay;
 532              		.loc 1 408 3 is_stmt 1 view .LVU118
 409:Drivers/STM32H7xx_HAL_Driver/Src/stm32h7xx_hal.c **** 
 410:Drivers/STM32H7xx_HAL_Driver/Src/stm32h7xx_hal.c ****   /* Add a freq to guarantee minimum wait */
 411:Drivers/STM32H7xx_HAL_Driver/Src/stm32h7xx_hal.c ****   if (wait < HAL_MAX_DELAY)
 533              		.loc 1 411 3 view .LVU119
 534              		.loc 1 411 6 is_stmt 0 view .LVU120
 535 000a B4F1FF3F 		cmp	r4, #-1
 536 000e 02D0     		beq	.L48
 412:Drivers/STM32H7xx_HAL_Driver/Src/stm32h7xx_hal.c ****   {
 413:Drivers/STM32H7xx_HAL_Driver/Src/stm32h7xx_hal.c ****     wait += (uint32_t)(uwTickFreq);
 537              		.loc 1 413 5 is_stmt 1 view .LVU121
 538              		.loc 1 413 13 is_stmt 0 view .LVU122
 539 0010 044B     		ldr	r3, .L50
 540 0012 1B78     		ldrb	r3, [r3]	@ zero_extendqisi2
 541              		.loc 1 413 10 view .LVU123
 542 0014 1C44     		add	r4, r4, r3
 543              	.LVL23:
 544              	.L48:
 414:Drivers/STM32H7xx_HAL_Driver/Src/stm32h7xx_hal.c ****   }
 415:Drivers/STM32H7xx_HAL_Driver/Src/stm32h7xx_hal.c **** 
 416:Drivers/STM32H7xx_HAL_Driver/Src/stm32h7xx_hal.c ****   while ((HAL_GetTick() - tickstart) < wait)
 417:Drivers/STM32H7xx_HAL_Driver/Src/stm32h7xx_hal.c ****   {
 418:Drivers/STM32H7xx_HAL_Driver/Src/stm32h7xx_hal.c ****   }
 545              		.loc 1 418 3 is_stmt 1 view .LVU124
 416:Drivers/STM32H7xx_HAL_Driver/Src/stm32h7xx_hal.c ****   {
 546              		.loc 1 416 38 discriminator 2 view .LVU125
 416:Drivers/STM32H7xx_HAL_Driver/Src/stm32h7xx_hal.c ****   {
 547              		.loc 1 416 11 is_stmt 0 discriminator 2 view .LVU126
 548 0016 FFF7FEFF 		bl	HAL_GetTick
 549              	.LVL24:
 416:Drivers/STM32H7xx_HAL_Driver/Src/stm32h7xx_hal.c ****   {
 550              		.loc 1 416 25 discriminator 2 view .LVU127
ARM GAS  C:\Users\27655\AppData\Local\Temp\ccShhaKP.s 			page 19


 551 001a 401B     		subs	r0, r0, r5
 416:Drivers/STM32H7xx_HAL_Driver/Src/stm32h7xx_hal.c ****   {
 552              		.loc 1 416 38 discriminator 2 view .LVU128
 553 001c A042     		cmp	r0, r4
 554 001e FAD3     		bcc	.L48
 419:Drivers/STM32H7xx_HAL_Driver/Src/stm32h7xx_hal.c **** }
 555              		.loc 1 419 1 view .LVU129
 556 0020 38BD     		pop	{r3, r4, r5, pc}
 557              	.LVL25:
 558              	.L51:
 559              		.loc 1 419 1 view .LVU130
 560 0022 00BF     		.align	2
 561              	.L50:
 562 0024 00000000 		.word	uwTickFreq
 563              		.cfi_endproc
 564              	.LFE156:
 566              		.section	.text.HAL_SuspendTick,"ax",%progbits
 567              		.align	1
 568              		.weak	HAL_SuspendTick
 569              		.syntax unified
 570              		.thumb
 571              		.thumb_func
 573              	HAL_SuspendTick:
 574              	.LFB157:
 420:Drivers/STM32H7xx_HAL_Driver/Src/stm32h7xx_hal.c **** 
 421:Drivers/STM32H7xx_HAL_Driver/Src/stm32h7xx_hal.c **** /**
 422:Drivers/STM32H7xx_HAL_Driver/Src/stm32h7xx_hal.c ****   * @brief Suspend Tick increment.
 423:Drivers/STM32H7xx_HAL_Driver/Src/stm32h7xx_hal.c ****   * @note In the default implementation , SysTick timer is the source of time base. It is
 424:Drivers/STM32H7xx_HAL_Driver/Src/stm32h7xx_hal.c ****   *       used to generate interrupts at regular time intervals. Once HAL_SuspendTick()
 425:Drivers/STM32H7xx_HAL_Driver/Src/stm32h7xx_hal.c ****   *       is called, the SysTick interrupt will be disabled and so Tick increment
 426:Drivers/STM32H7xx_HAL_Driver/Src/stm32h7xx_hal.c ****   *       is suspended.
 427:Drivers/STM32H7xx_HAL_Driver/Src/stm32h7xx_hal.c ****   * @note This function is declared as __weak to be overwritten in case of other
 428:Drivers/STM32H7xx_HAL_Driver/Src/stm32h7xx_hal.c ****   *       implementations in user file.
 429:Drivers/STM32H7xx_HAL_Driver/Src/stm32h7xx_hal.c ****   * @retval None
 430:Drivers/STM32H7xx_HAL_Driver/Src/stm32h7xx_hal.c ****   */
 431:Drivers/STM32H7xx_HAL_Driver/Src/stm32h7xx_hal.c **** __weak void HAL_SuspendTick(void)
 432:Drivers/STM32H7xx_HAL_Driver/Src/stm32h7xx_hal.c **** {
 575              		.loc 1 432 1 is_stmt 1 view -0
 576              		.cfi_startproc
 577              		@ args = 0, pretend = 0, frame = 0
 578              		@ frame_needed = 0, uses_anonymous_args = 0
 579              		@ link register save eliminated.
 433:Drivers/STM32H7xx_HAL_Driver/Src/stm32h7xx_hal.c ****   /* Disable SysTick Interrupt */
 434:Drivers/STM32H7xx_HAL_Driver/Src/stm32h7xx_hal.c ****   SysTick->CTRL &= ~SysTick_CTRL_TICKINT_Msk;
 580              		.loc 1 434 3 view .LVU132
 581              		.loc 1 434 10 is_stmt 0 view .LVU133
 582 0000 4FF0E022 		mov	r2, #-536813568
 583 0004 1369     		ldr	r3, [r2, #16]
 584              		.loc 1 434 17 view .LVU134
 585 0006 23F00203 		bic	r3, r3, #2
 586 000a 1361     		str	r3, [r2, #16]
 435:Drivers/STM32H7xx_HAL_Driver/Src/stm32h7xx_hal.c **** }
 587              		.loc 1 435 1 view .LVU135
 588 000c 7047     		bx	lr
 589              		.cfi_endproc
 590              	.LFE157:
 592              		.section	.text.HAL_ResumeTick,"ax",%progbits
ARM GAS  C:\Users\27655\AppData\Local\Temp\ccShhaKP.s 			page 20


 593              		.align	1
 594              		.weak	HAL_ResumeTick
 595              		.syntax unified
 596              		.thumb
 597              		.thumb_func
 599              	HAL_ResumeTick:
 600              	.LFB158:
 436:Drivers/STM32H7xx_HAL_Driver/Src/stm32h7xx_hal.c **** 
 437:Drivers/STM32H7xx_HAL_Driver/Src/stm32h7xx_hal.c **** /**
 438:Drivers/STM32H7xx_HAL_Driver/Src/stm32h7xx_hal.c ****   * @brief Resume Tick increment.
 439:Drivers/STM32H7xx_HAL_Driver/Src/stm32h7xx_hal.c ****   * @note In the default implementation , SysTick timer is the source of time base. It is
 440:Drivers/STM32H7xx_HAL_Driver/Src/stm32h7xx_hal.c ****   *       used to generate interrupts at regular time intervals. Once HAL_ResumeTick()
 441:Drivers/STM32H7xx_HAL_Driver/Src/stm32h7xx_hal.c ****   *       is called, the SysTick interrupt will be enabled and so Tick increment
 442:Drivers/STM32H7xx_HAL_Driver/Src/stm32h7xx_hal.c ****   *       is resumed.
 443:Drivers/STM32H7xx_HAL_Driver/Src/stm32h7xx_hal.c ****   * @note This function is declared as __weak to be overwritten in case of other
 444:Drivers/STM32H7xx_HAL_Driver/Src/stm32h7xx_hal.c ****   *       implementations in user file.
 445:Drivers/STM32H7xx_HAL_Driver/Src/stm32h7xx_hal.c ****   * @retval None
 446:Drivers/STM32H7xx_HAL_Driver/Src/stm32h7xx_hal.c ****   */
 447:Drivers/STM32H7xx_HAL_Driver/Src/stm32h7xx_hal.c **** __weak void HAL_ResumeTick(void)
 448:Drivers/STM32H7xx_HAL_Driver/Src/stm32h7xx_hal.c **** {
 601              		.loc 1 448 1 is_stmt 1 view -0
 602              		.cfi_startproc
 603              		@ args = 0, pretend = 0, frame = 0
 604              		@ frame_needed = 0, uses_anonymous_args = 0
 605              		@ link register save eliminated.
 449:Drivers/STM32H7xx_HAL_Driver/Src/stm32h7xx_hal.c ****   /* Enable SysTick Interrupt */
 450:Drivers/STM32H7xx_HAL_Driver/Src/stm32h7xx_hal.c ****   SysTick->CTRL  |= SysTick_CTRL_TICKINT_Msk;
 606              		.loc 1 450 3 view .LVU137
 607              		.loc 1 450 10 is_stmt 0 view .LVU138
 608 0000 4FF0E022 		mov	r2, #-536813568
 609 0004 1369     		ldr	r3, [r2, #16]
 610              		.loc 1 450 18 view .LVU139
 611 0006 43F00203 		orr	r3, r3, #2
 612 000a 1361     		str	r3, [r2, #16]
 451:Drivers/STM32H7xx_HAL_Driver/Src/stm32h7xx_hal.c **** }
 613              		.loc 1 451 1 view .LVU140
 614 000c 7047     		bx	lr
 615              		.cfi_endproc
 616              	.LFE158:
 618              		.section	.text.HAL_GetHalVersion,"ax",%progbits
 619              		.align	1
 620              		.global	HAL_GetHalVersion
 621              		.syntax unified
 622              		.thumb
 623              		.thumb_func
 625              	HAL_GetHalVersion:
 626              	.LFB159:
 452:Drivers/STM32H7xx_HAL_Driver/Src/stm32h7xx_hal.c **** 
 453:Drivers/STM32H7xx_HAL_Driver/Src/stm32h7xx_hal.c **** /**
 454:Drivers/STM32H7xx_HAL_Driver/Src/stm32h7xx_hal.c ****   * @brief  Returns the HAL revision
 455:Drivers/STM32H7xx_HAL_Driver/Src/stm32h7xx_hal.c ****   * @retval version : 0xXYZR (8bits for each decimal, R for RC)
 456:Drivers/STM32H7xx_HAL_Driver/Src/stm32h7xx_hal.c ****   */
 457:Drivers/STM32H7xx_HAL_Driver/Src/stm32h7xx_hal.c **** uint32_t HAL_GetHalVersion(void)
 458:Drivers/STM32H7xx_HAL_Driver/Src/stm32h7xx_hal.c **** {
 627              		.loc 1 458 1 is_stmt 1 view -0
 628              		.cfi_startproc
 629              		@ args = 0, pretend = 0, frame = 0
ARM GAS  C:\Users\27655\AppData\Local\Temp\ccShhaKP.s 			page 21


 630              		@ frame_needed = 0, uses_anonymous_args = 0
 631              		@ link register save eliminated.
 459:Drivers/STM32H7xx_HAL_Driver/Src/stm32h7xx_hal.c ****  return __STM32H7xx_HAL_VERSION;
 632              		.loc 1 459 2 view .LVU142
 460:Drivers/STM32H7xx_HAL_Driver/Src/stm32h7xx_hal.c **** }
 633              		.loc 1 460 1 is_stmt 0 view .LVU143
 634 0000 0048     		ldr	r0, .L55
 635 0002 7047     		bx	lr
 636              	.L56:
 637              		.align	2
 638              	.L55:
 639 0004 00060B01 		.word	17499648
 640              		.cfi_endproc
 641              	.LFE159:
 643              		.section	.text.HAL_GetREVID,"ax",%progbits
 644              		.align	1
 645              		.global	HAL_GetREVID
 646              		.syntax unified
 647              		.thumb
 648              		.thumb_func
 650              	HAL_GetREVID:
 651              	.LFB160:
 461:Drivers/STM32H7xx_HAL_Driver/Src/stm32h7xx_hal.c **** 
 462:Drivers/STM32H7xx_HAL_Driver/Src/stm32h7xx_hal.c **** /**
 463:Drivers/STM32H7xx_HAL_Driver/Src/stm32h7xx_hal.c ****   * @brief  Returns the device revision identifier.
 464:Drivers/STM32H7xx_HAL_Driver/Src/stm32h7xx_hal.c ****   * @retval Device revision identifier
 465:Drivers/STM32H7xx_HAL_Driver/Src/stm32h7xx_hal.c ****   */
 466:Drivers/STM32H7xx_HAL_Driver/Src/stm32h7xx_hal.c **** uint32_t HAL_GetREVID(void)
 467:Drivers/STM32H7xx_HAL_Driver/Src/stm32h7xx_hal.c **** {
 652              		.loc 1 467 1 is_stmt 1 view -0
 653              		.cfi_startproc
 654              		@ args = 0, pretend = 0, frame = 0
 655              		@ frame_needed = 0, uses_anonymous_args = 0
 656              		@ link register save eliminated.
 468:Drivers/STM32H7xx_HAL_Driver/Src/stm32h7xx_hal.c ****    return((DBGMCU->IDCODE) >> 16);
 657              		.loc 1 468 4 view .LVU145
 658              		.loc 1 468 18 is_stmt 0 view .LVU146
 659 0000 014B     		ldr	r3, .L58
 660 0002 1868     		ldr	r0, [r3]
 469:Drivers/STM32H7xx_HAL_Driver/Src/stm32h7xx_hal.c **** }
 661              		.loc 1 469 1 view .LVU147
 662 0004 000C     		lsrs	r0, r0, #16
 663 0006 7047     		bx	lr
 664              	.L59:
 665              		.align	2
 666              	.L58:
 667 0008 0010005C 		.word	1543507968
 668              		.cfi_endproc
 669              	.LFE160:
 671              		.section	.text.HAL_GetDEVID,"ax",%progbits
 672              		.align	1
 673              		.global	HAL_GetDEVID
 674              		.syntax unified
 675              		.thumb
 676              		.thumb_func
 678              	HAL_GetDEVID:
 679              	.LFB161:
ARM GAS  C:\Users\27655\AppData\Local\Temp\ccShhaKP.s 			page 22


 470:Drivers/STM32H7xx_HAL_Driver/Src/stm32h7xx_hal.c **** 
 471:Drivers/STM32H7xx_HAL_Driver/Src/stm32h7xx_hal.c **** /**
 472:Drivers/STM32H7xx_HAL_Driver/Src/stm32h7xx_hal.c ****   * @brief  Returns the device identifier.
 473:Drivers/STM32H7xx_HAL_Driver/Src/stm32h7xx_hal.c ****   * @retval Device identifier
 474:Drivers/STM32H7xx_HAL_Driver/Src/stm32h7xx_hal.c ****   */
 475:Drivers/STM32H7xx_HAL_Driver/Src/stm32h7xx_hal.c **** uint32_t HAL_GetDEVID(void)
 476:Drivers/STM32H7xx_HAL_Driver/Src/stm32h7xx_hal.c **** {
 680              		.loc 1 476 1 is_stmt 1 view -0
 681              		.cfi_startproc
 682              		@ args = 0, pretend = 0, frame = 0
 683              		@ frame_needed = 0, uses_anonymous_args = 0
 684              		@ link register save eliminated.
 477:Drivers/STM32H7xx_HAL_Driver/Src/stm32h7xx_hal.c ****    return((DBGMCU->IDCODE) & IDCODE_DEVID_MASK);
 685              		.loc 1 477 4 view .LVU149
 686              		.loc 1 477 18 is_stmt 0 view .LVU150
 687 0000 024B     		ldr	r3, .L61
 688 0002 1868     		ldr	r0, [r3]
 478:Drivers/STM32H7xx_HAL_Driver/Src/stm32h7xx_hal.c **** }
 689              		.loc 1 478 1 view .LVU151
 690 0004 C0F30B00 		ubfx	r0, r0, #0, #12
 691 0008 7047     		bx	lr
 692              	.L62:
 693 000a 00BF     		.align	2
 694              	.L61:
 695 000c 0010005C 		.word	1543507968
 696              		.cfi_endproc
 697              	.LFE161:
 699              		.section	.text.HAL_GetUIDw0,"ax",%progbits
 700              		.align	1
 701              		.global	HAL_GetUIDw0
 702              		.syntax unified
 703              		.thumb
 704              		.thumb_func
 706              	HAL_GetUIDw0:
 707              	.LFB162:
 479:Drivers/STM32H7xx_HAL_Driver/Src/stm32h7xx_hal.c **** 
 480:Drivers/STM32H7xx_HAL_Driver/Src/stm32h7xx_hal.c **** /**
 481:Drivers/STM32H7xx_HAL_Driver/Src/stm32h7xx_hal.c ****   * @brief  Return the first word of the unique device identifier (UID based on 96 bits)
 482:Drivers/STM32H7xx_HAL_Driver/Src/stm32h7xx_hal.c ****   * @retval Device identifier
 483:Drivers/STM32H7xx_HAL_Driver/Src/stm32h7xx_hal.c ****   */
 484:Drivers/STM32H7xx_HAL_Driver/Src/stm32h7xx_hal.c **** uint32_t HAL_GetUIDw0(void)
 485:Drivers/STM32H7xx_HAL_Driver/Src/stm32h7xx_hal.c **** {
 708              		.loc 1 485 1 is_stmt 1 view -0
 709              		.cfi_startproc
 710              		@ args = 0, pretend = 0, frame = 0
 711              		@ frame_needed = 0, uses_anonymous_args = 0
 712              		@ link register save eliminated.
 486:Drivers/STM32H7xx_HAL_Driver/Src/stm32h7xx_hal.c ****   return(READ_REG(*((uint32_t *)UID_BASE)));
 713              		.loc 1 486 3 view .LVU153
 487:Drivers/STM32H7xx_HAL_Driver/Src/stm32h7xx_hal.c **** }
 714              		.loc 1 487 1 is_stmt 0 view .LVU154
 715 0000 014B     		ldr	r3, .L64
 716 0002 D3F80008 		ldr	r0, [r3, #2048]
 717 0006 7047     		bx	lr
 718              	.L65:
 719              		.align	2
 720              	.L64:
ARM GAS  C:\Users\27655\AppData\Local\Temp\ccShhaKP.s 			page 23


 721 0008 00E0F11F 		.word	535945216
 722              		.cfi_endproc
 723              	.LFE162:
 725              		.section	.text.HAL_GetUIDw1,"ax",%progbits
 726              		.align	1
 727              		.global	HAL_GetUIDw1
 728              		.syntax unified
 729              		.thumb
 730              		.thumb_func
 732              	HAL_GetUIDw1:
 733              	.LFB163:
 488:Drivers/STM32H7xx_HAL_Driver/Src/stm32h7xx_hal.c **** 
 489:Drivers/STM32H7xx_HAL_Driver/Src/stm32h7xx_hal.c **** /**
 490:Drivers/STM32H7xx_HAL_Driver/Src/stm32h7xx_hal.c ****   * @brief  Return the second word of the unique device identifier (UID based on 96 bits)
 491:Drivers/STM32H7xx_HAL_Driver/Src/stm32h7xx_hal.c ****   * @retval Device identifier
 492:Drivers/STM32H7xx_HAL_Driver/Src/stm32h7xx_hal.c ****   */
 493:Drivers/STM32H7xx_HAL_Driver/Src/stm32h7xx_hal.c **** uint32_t HAL_GetUIDw1(void)
 494:Drivers/STM32H7xx_HAL_Driver/Src/stm32h7xx_hal.c **** {
 734              		.loc 1 494 1 is_stmt 1 view -0
 735              		.cfi_startproc
 736              		@ args = 0, pretend = 0, frame = 0
 737              		@ frame_needed = 0, uses_anonymous_args = 0
 738              		@ link register save eliminated.
 495:Drivers/STM32H7xx_HAL_Driver/Src/stm32h7xx_hal.c ****   return(READ_REG(*((uint32_t *)(UID_BASE + 4U))));
 739              		.loc 1 495 3 view .LVU156
 496:Drivers/STM32H7xx_HAL_Driver/Src/stm32h7xx_hal.c **** }
 740              		.loc 1 496 1 is_stmt 0 view .LVU157
 741 0000 014B     		ldr	r3, .L67
 742 0002 D3F80408 		ldr	r0, [r3, #2052]
 743 0006 7047     		bx	lr
 744              	.L68:
 745              		.align	2
 746              	.L67:
 747 0008 00E0F11F 		.word	535945216
 748              		.cfi_endproc
 749              	.LFE163:
 751              		.section	.text.HAL_GetUIDw2,"ax",%progbits
 752              		.align	1
 753              		.global	HAL_GetUIDw2
 754              		.syntax unified
 755              		.thumb
 756              		.thumb_func
 758              	HAL_GetUIDw2:
 759              	.LFB164:
 497:Drivers/STM32H7xx_HAL_Driver/Src/stm32h7xx_hal.c **** 
 498:Drivers/STM32H7xx_HAL_Driver/Src/stm32h7xx_hal.c **** /**
 499:Drivers/STM32H7xx_HAL_Driver/Src/stm32h7xx_hal.c ****   * @brief  Return the third word of the unique device identifier (UID based on 96 bits)
 500:Drivers/STM32H7xx_HAL_Driver/Src/stm32h7xx_hal.c ****   * @retval Device identifier
 501:Drivers/STM32H7xx_HAL_Driver/Src/stm32h7xx_hal.c ****   */
 502:Drivers/STM32H7xx_HAL_Driver/Src/stm32h7xx_hal.c **** uint32_t HAL_GetUIDw2(void)
 503:Drivers/STM32H7xx_HAL_Driver/Src/stm32h7xx_hal.c **** {
 760              		.loc 1 503 1 is_stmt 1 view -0
 761              		.cfi_startproc
 762              		@ args = 0, pretend = 0, frame = 0
 763              		@ frame_needed = 0, uses_anonymous_args = 0
 764              		@ link register save eliminated.
 504:Drivers/STM32H7xx_HAL_Driver/Src/stm32h7xx_hal.c ****   return(READ_REG(*((uint32_t *)(UID_BASE + 8U))));
ARM GAS  C:\Users\27655\AppData\Local\Temp\ccShhaKP.s 			page 24


 765              		.loc 1 504 3 view .LVU159
 505:Drivers/STM32H7xx_HAL_Driver/Src/stm32h7xx_hal.c **** }
 766              		.loc 1 505 1 is_stmt 0 view .LVU160
 767 0000 014B     		ldr	r3, .L70
 768 0002 D3F80808 		ldr	r0, [r3, #2056]
 769 0006 7047     		bx	lr
 770              	.L71:
 771              		.align	2
 772              	.L70:
 773 0008 00E0F11F 		.word	535945216
 774              		.cfi_endproc
 775              	.LFE164:
 777              		.section	.text.HAL_SYSCFG_VREFBUF_VoltageScalingConfig,"ax",%progbits
 778              		.align	1
 779              		.global	HAL_SYSCFG_VREFBUF_VoltageScalingConfig
 780              		.syntax unified
 781              		.thumb
 782              		.thumb_func
 784              	HAL_SYSCFG_VREFBUF_VoltageScalingConfig:
 785              	.LVL26:
 786              	.LFB165:
 506:Drivers/STM32H7xx_HAL_Driver/Src/stm32h7xx_hal.c **** 
 507:Drivers/STM32H7xx_HAL_Driver/Src/stm32h7xx_hal.c **** /**
 508:Drivers/STM32H7xx_HAL_Driver/Src/stm32h7xx_hal.c ****   * @brief Configure the internal voltage reference buffer voltage scale.
 509:Drivers/STM32H7xx_HAL_Driver/Src/stm32h7xx_hal.c ****   * @param VoltageScaling  specifies the output voltage to achieve
 510:Drivers/STM32H7xx_HAL_Driver/Src/stm32h7xx_hal.c ****   *          This parameter can be one of the following values:
 511:Drivers/STM32H7xx_HAL_Driver/Src/stm32h7xx_hal.c ****   *            @arg SYSCFG_VREFBUF_VOLTAGE_SCALE0: VREF_OUT1 around 2.5 V.
 512:Drivers/STM32H7xx_HAL_Driver/Src/stm32h7xx_hal.c ****   *                                                This requires VDDA equal to or higher than 2.8 V
 513:Drivers/STM32H7xx_HAL_Driver/Src/stm32h7xx_hal.c ****   *            @arg SYSCFG_VREFBUF_VOLTAGE_SCALE1: VREF_OUT2 around 2.048 V.
 514:Drivers/STM32H7xx_HAL_Driver/Src/stm32h7xx_hal.c ****   *                                                This requires VDDA equal to or higher than 2.4 V
 515:Drivers/STM32H7xx_HAL_Driver/Src/stm32h7xx_hal.c ****   *            @arg SYSCFG_VREFBUF_VOLTAGE_SCALE2: VREF_OUT3 around 1.8 V.
 516:Drivers/STM32H7xx_HAL_Driver/Src/stm32h7xx_hal.c ****   *                                                This requires VDDA equal to or higher than 2.1 V
 517:Drivers/STM32H7xx_HAL_Driver/Src/stm32h7xx_hal.c ****   *            @arg SYSCFG_VREFBUF_VOLTAGE_SCALE3: VREF_OUT4 around 1.5 V.
 518:Drivers/STM32H7xx_HAL_Driver/Src/stm32h7xx_hal.c ****   *                                                This requires VDDA equal to or higher than 1.8 V
 519:Drivers/STM32H7xx_HAL_Driver/Src/stm32h7xx_hal.c ****   * @retval None
 520:Drivers/STM32H7xx_HAL_Driver/Src/stm32h7xx_hal.c ****   */
 521:Drivers/STM32H7xx_HAL_Driver/Src/stm32h7xx_hal.c **** void HAL_SYSCFG_VREFBUF_VoltageScalingConfig(uint32_t VoltageScaling)
 522:Drivers/STM32H7xx_HAL_Driver/Src/stm32h7xx_hal.c **** {
 787              		.loc 1 522 1 is_stmt 1 view -0
 788              		.cfi_startproc
 789              		@ args = 0, pretend = 0, frame = 0
 790              		@ frame_needed = 0, uses_anonymous_args = 0
 791              		@ link register save eliminated.
 523:Drivers/STM32H7xx_HAL_Driver/Src/stm32h7xx_hal.c ****   /* Check the parameters */
 524:Drivers/STM32H7xx_HAL_Driver/Src/stm32h7xx_hal.c ****   assert_param(IS_SYSCFG_VREFBUF_VOLTAGE_SCALE(VoltageScaling));
 792              		.loc 1 524 3 view .LVU162
 525:Drivers/STM32H7xx_HAL_Driver/Src/stm32h7xx_hal.c **** 
 526:Drivers/STM32H7xx_HAL_Driver/Src/stm32h7xx_hal.c ****   MODIFY_REG(VREFBUF->CSR, VREFBUF_CSR_VRS, VoltageScaling);
 793              		.loc 1 526 3 view .LVU163
 794 0000 034A     		ldr	r2, .L73
 795 0002 1368     		ldr	r3, [r2]
 796 0004 23F07003 		bic	r3, r3, #112
 797 0008 0343     		orrs	r3, r3, r0
 798 000a 1360     		str	r3, [r2]
 527:Drivers/STM32H7xx_HAL_Driver/Src/stm32h7xx_hal.c **** }
 799              		.loc 1 527 1 is_stmt 0 view .LVU164
 800 000c 7047     		bx	lr
ARM GAS  C:\Users\27655\AppData\Local\Temp\ccShhaKP.s 			page 25


 801              	.L74:
 802 000e 00BF     		.align	2
 803              	.L73:
 804 0010 003C0058 		.word	1476410368
 805              		.cfi_endproc
 806              	.LFE165:
 808              		.section	.text.HAL_SYSCFG_VREFBUF_HighImpedanceConfig,"ax",%progbits
 809              		.align	1
 810              		.global	HAL_SYSCFG_VREFBUF_HighImpedanceConfig
 811              		.syntax unified
 812              		.thumb
 813              		.thumb_func
 815              	HAL_SYSCFG_VREFBUF_HighImpedanceConfig:
 816              	.LVL27:
 817              	.LFB166:
 528:Drivers/STM32H7xx_HAL_Driver/Src/stm32h7xx_hal.c **** 
 529:Drivers/STM32H7xx_HAL_Driver/Src/stm32h7xx_hal.c **** /**
 530:Drivers/STM32H7xx_HAL_Driver/Src/stm32h7xx_hal.c ****   * @brief Configure the internal voltage reference buffer high impedance mode.
 531:Drivers/STM32H7xx_HAL_Driver/Src/stm32h7xx_hal.c ****   * @param Mode  specifies the high impedance mode
 532:Drivers/STM32H7xx_HAL_Driver/Src/stm32h7xx_hal.c ****   *          This parameter can be one of the following values:
 533:Drivers/STM32H7xx_HAL_Driver/Src/stm32h7xx_hal.c ****   *            @arg SYSCFG_VREFBUF_HIGH_IMPEDANCE_DISABLE: VREF+ pin is internally connect to VREFI
 534:Drivers/STM32H7xx_HAL_Driver/Src/stm32h7xx_hal.c ****   *            @arg SYSCFG_VREFBUF_HIGH_IMPEDANCE_ENABLE: VREF+ pin is high impedance.
 535:Drivers/STM32H7xx_HAL_Driver/Src/stm32h7xx_hal.c ****   * @retval None
 536:Drivers/STM32H7xx_HAL_Driver/Src/stm32h7xx_hal.c ****   */
 537:Drivers/STM32H7xx_HAL_Driver/Src/stm32h7xx_hal.c **** void HAL_SYSCFG_VREFBUF_HighImpedanceConfig(uint32_t Mode)
 538:Drivers/STM32H7xx_HAL_Driver/Src/stm32h7xx_hal.c **** {
 818              		.loc 1 538 1 is_stmt 1 view -0
 819              		.cfi_startproc
 820              		@ args = 0, pretend = 0, frame = 0
 821              		@ frame_needed = 0, uses_anonymous_args = 0
 822              		@ link register save eliminated.
 539:Drivers/STM32H7xx_HAL_Driver/Src/stm32h7xx_hal.c ****   /* Check the parameters */
 540:Drivers/STM32H7xx_HAL_Driver/Src/stm32h7xx_hal.c ****   assert_param(IS_SYSCFG_VREFBUF_HIGH_IMPEDANCE(Mode));
 823              		.loc 1 540 3 view .LVU166
 541:Drivers/STM32H7xx_HAL_Driver/Src/stm32h7xx_hal.c **** 
 542:Drivers/STM32H7xx_HAL_Driver/Src/stm32h7xx_hal.c ****   MODIFY_REG(VREFBUF->CSR, VREFBUF_CSR_HIZ, Mode);
 824              		.loc 1 542 3 view .LVU167
 825 0000 034A     		ldr	r2, .L76
 826 0002 1368     		ldr	r3, [r2]
 827 0004 23F00203 		bic	r3, r3, #2
 828 0008 0343     		orrs	r3, r3, r0
 829 000a 1360     		str	r3, [r2]
 543:Drivers/STM32H7xx_HAL_Driver/Src/stm32h7xx_hal.c **** }
 830              		.loc 1 543 1 is_stmt 0 view .LVU168
 831 000c 7047     		bx	lr
 832              	.L77:
 833 000e 00BF     		.align	2
 834              	.L76:
 835 0010 003C0058 		.word	1476410368
 836              		.cfi_endproc
 837              	.LFE166:
 839              		.section	.text.HAL_SYSCFG_VREFBUF_TrimmingConfig,"ax",%progbits
 840              		.align	1
 841              		.global	HAL_SYSCFG_VREFBUF_TrimmingConfig
 842              		.syntax unified
 843              		.thumb
 844              		.thumb_func
ARM GAS  C:\Users\27655\AppData\Local\Temp\ccShhaKP.s 			page 26


 846              	HAL_SYSCFG_VREFBUF_TrimmingConfig:
 847              	.LVL28:
 848              	.LFB167:
 544:Drivers/STM32H7xx_HAL_Driver/Src/stm32h7xx_hal.c **** 
 545:Drivers/STM32H7xx_HAL_Driver/Src/stm32h7xx_hal.c **** /**
 546:Drivers/STM32H7xx_HAL_Driver/Src/stm32h7xx_hal.c ****   * @brief  Tune the Internal Voltage Reference buffer (VREFBUF).
 547:Drivers/STM32H7xx_HAL_Driver/Src/stm32h7xx_hal.c ****   * @retval None
 548:Drivers/STM32H7xx_HAL_Driver/Src/stm32h7xx_hal.c ****   */
 549:Drivers/STM32H7xx_HAL_Driver/Src/stm32h7xx_hal.c **** void HAL_SYSCFG_VREFBUF_TrimmingConfig(uint32_t TrimmingValue)
 550:Drivers/STM32H7xx_HAL_Driver/Src/stm32h7xx_hal.c **** {
 849              		.loc 1 550 1 is_stmt 1 view -0
 850              		.cfi_startproc
 851              		@ args = 0, pretend = 0, frame = 0
 852              		@ frame_needed = 0, uses_anonymous_args = 0
 853              		@ link register save eliminated.
 551:Drivers/STM32H7xx_HAL_Driver/Src/stm32h7xx_hal.c ****   /* Check the parameters */
 552:Drivers/STM32H7xx_HAL_Driver/Src/stm32h7xx_hal.c ****   assert_param(IS_SYSCFG_VREFBUF_TRIMMING(TrimmingValue));
 854              		.loc 1 552 3 view .LVU170
 553:Drivers/STM32H7xx_HAL_Driver/Src/stm32h7xx_hal.c **** 
 554:Drivers/STM32H7xx_HAL_Driver/Src/stm32h7xx_hal.c ****   MODIFY_REG(VREFBUF->CCR, VREFBUF_CCR_TRIM, TrimmingValue);
 855              		.loc 1 554 3 view .LVU171
 856 0000 034A     		ldr	r2, .L79
 857 0002 5368     		ldr	r3, [r2, #4]
 858 0004 23F03F03 		bic	r3, r3, #63
 859 0008 0343     		orrs	r3, r3, r0
 860 000a 5360     		str	r3, [r2, #4]
 555:Drivers/STM32H7xx_HAL_Driver/Src/stm32h7xx_hal.c **** }
 861              		.loc 1 555 1 is_stmt 0 view .LVU172
 862 000c 7047     		bx	lr
 863              	.L80:
 864 000e 00BF     		.align	2
 865              	.L79:
 866 0010 003C0058 		.word	1476410368
 867              		.cfi_endproc
 868              	.LFE167:
 870              		.section	.text.HAL_SYSCFG_EnableVREFBUF,"ax",%progbits
 871              		.align	1
 872              		.global	HAL_SYSCFG_EnableVREFBUF
 873              		.syntax unified
 874              		.thumb
 875              		.thumb_func
 877              	HAL_SYSCFG_EnableVREFBUF:
 878              	.LFB168:
 556:Drivers/STM32H7xx_HAL_Driver/Src/stm32h7xx_hal.c **** 
 557:Drivers/STM32H7xx_HAL_Driver/Src/stm32h7xx_hal.c **** /**
 558:Drivers/STM32H7xx_HAL_Driver/Src/stm32h7xx_hal.c ****   * @brief  Enable the Internal Voltage Reference buffer (VREFBUF).
 559:Drivers/STM32H7xx_HAL_Driver/Src/stm32h7xx_hal.c ****   * @retval HAL_OK/HAL_TIMEOUT
 560:Drivers/STM32H7xx_HAL_Driver/Src/stm32h7xx_hal.c ****   */
 561:Drivers/STM32H7xx_HAL_Driver/Src/stm32h7xx_hal.c **** HAL_StatusTypeDef HAL_SYSCFG_EnableVREFBUF(void)
 562:Drivers/STM32H7xx_HAL_Driver/Src/stm32h7xx_hal.c **** {
 879              		.loc 1 562 1 is_stmt 1 view -0
 880              		.cfi_startproc
 881              		@ args = 0, pretend = 0, frame = 0
 882              		@ frame_needed = 0, uses_anonymous_args = 0
 883 0000 10B5     		push	{r4, lr}
 884              	.LCFI5:
 885              		.cfi_def_cfa_offset 8
ARM GAS  C:\Users\27655\AppData\Local\Temp\ccShhaKP.s 			page 27


 886              		.cfi_offset 4, -8
 887              		.cfi_offset 14, -4
 563:Drivers/STM32H7xx_HAL_Driver/Src/stm32h7xx_hal.c ****   uint32_t  tickstart;
 888              		.loc 1 563 3 view .LVU174
 564:Drivers/STM32H7xx_HAL_Driver/Src/stm32h7xx_hal.c **** 
 565:Drivers/STM32H7xx_HAL_Driver/Src/stm32h7xx_hal.c ****   SET_BIT(VREFBUF->CSR, VREFBUF_CSR_ENVR);
 889              		.loc 1 565 3 view .LVU175
 890 0002 0B4A     		ldr	r2, .L88
 891 0004 1368     		ldr	r3, [r2]
 892 0006 43F00103 		orr	r3, r3, #1
 893 000a 1360     		str	r3, [r2]
 566:Drivers/STM32H7xx_HAL_Driver/Src/stm32h7xx_hal.c **** 
 567:Drivers/STM32H7xx_HAL_Driver/Src/stm32h7xx_hal.c ****   /* Get Start Tick*/
 568:Drivers/STM32H7xx_HAL_Driver/Src/stm32h7xx_hal.c ****   tickstart = HAL_GetTick();
 894              		.loc 1 568 3 view .LVU176
 895              		.loc 1 568 15 is_stmt 0 view .LVU177
 896 000c FFF7FEFF 		bl	HAL_GetTick
 897              	.LVL29:
 898 0010 0446     		mov	r4, r0
 899              	.LVL30:
 569:Drivers/STM32H7xx_HAL_Driver/Src/stm32h7xx_hal.c **** 
 570:Drivers/STM32H7xx_HAL_Driver/Src/stm32h7xx_hal.c ****   /* Wait for VRR bit  */
 571:Drivers/STM32H7xx_HAL_Driver/Src/stm32h7xx_hal.c ****   while(READ_BIT(VREFBUF->CSR, VREFBUF_CSR_VRR) == 0UL)
 900              		.loc 1 571 3 is_stmt 1 view .LVU178
 901              	.L82:
 902              		.loc 1 571 49 view .LVU179
 903              		.loc 1 571 9 is_stmt 0 view .LVU180
 904 0012 074B     		ldr	r3, .L88
 905 0014 1B68     		ldr	r3, [r3]
 906              		.loc 1 571 49 view .LVU181
 907 0016 13F0080F 		tst	r3, #8
 908 001a 06D1     		bne	.L87
 572:Drivers/STM32H7xx_HAL_Driver/Src/stm32h7xx_hal.c ****   {
 573:Drivers/STM32H7xx_HAL_Driver/Src/stm32h7xx_hal.c ****     if((HAL_GetTick() - tickstart) > VREFBUF_TIMEOUT_VALUE)
 909              		.loc 1 573 5 is_stmt 1 view .LVU182
 910              		.loc 1 573 9 is_stmt 0 view .LVU183
 911 001c FFF7FEFF 		bl	HAL_GetTick
 912              	.LVL31:
 913              		.loc 1 573 23 discriminator 1 view .LVU184
 914 0020 001B     		subs	r0, r0, r4
 915              		.loc 1 573 7 discriminator 1 view .LVU185
 916 0022 0A28     		cmp	r0, #10
 917 0024 F5D9     		bls	.L82
 574:Drivers/STM32H7xx_HAL_Driver/Src/stm32h7xx_hal.c ****     {
 575:Drivers/STM32H7xx_HAL_Driver/Src/stm32h7xx_hal.c ****       return HAL_TIMEOUT;
 918              		.loc 1 575 14 view .LVU186
 919 0026 0320     		movs	r0, #3
 920 0028 00E0     		b	.L83
 921              	.L87:
 576:Drivers/STM32H7xx_HAL_Driver/Src/stm32h7xx_hal.c ****     }
 577:Drivers/STM32H7xx_HAL_Driver/Src/stm32h7xx_hal.c ****   }
 578:Drivers/STM32H7xx_HAL_Driver/Src/stm32h7xx_hal.c **** 
 579:Drivers/STM32H7xx_HAL_Driver/Src/stm32h7xx_hal.c ****   return HAL_OK;
 922              		.loc 1 579 10 view .LVU187
 923 002a 0020     		movs	r0, #0
 924              	.L83:
 580:Drivers/STM32H7xx_HAL_Driver/Src/stm32h7xx_hal.c **** }
ARM GAS  C:\Users\27655\AppData\Local\Temp\ccShhaKP.s 			page 28


 925              		.loc 1 580 1 view .LVU188
 926 002c 10BD     		pop	{r4, pc}
 927              	.LVL32:
 928              	.L89:
 929              		.loc 1 580 1 view .LVU189
 930 002e 00BF     		.align	2
 931              	.L88:
 932 0030 003C0058 		.word	1476410368
 933              		.cfi_endproc
 934              	.LFE168:
 936              		.section	.text.HAL_SYSCFG_DisableVREFBUF,"ax",%progbits
 937              		.align	1
 938              		.global	HAL_SYSCFG_DisableVREFBUF
 939              		.syntax unified
 940              		.thumb
 941              		.thumb_func
 943              	HAL_SYSCFG_DisableVREFBUF:
 944              	.LFB169:
 581:Drivers/STM32H7xx_HAL_Driver/Src/stm32h7xx_hal.c **** 
 582:Drivers/STM32H7xx_HAL_Driver/Src/stm32h7xx_hal.c **** /**
 583:Drivers/STM32H7xx_HAL_Driver/Src/stm32h7xx_hal.c ****   * @brief  Disable the Internal Voltage Reference buffer (VREFBUF).
 584:Drivers/STM32H7xx_HAL_Driver/Src/stm32h7xx_hal.c ****   *
 585:Drivers/STM32H7xx_HAL_Driver/Src/stm32h7xx_hal.c ****   * @retval None
 586:Drivers/STM32H7xx_HAL_Driver/Src/stm32h7xx_hal.c ****   */
 587:Drivers/STM32H7xx_HAL_Driver/Src/stm32h7xx_hal.c **** void HAL_SYSCFG_DisableVREFBUF(void)
 588:Drivers/STM32H7xx_HAL_Driver/Src/stm32h7xx_hal.c **** {
 945              		.loc 1 588 1 is_stmt 1 view -0
 946              		.cfi_startproc
 947              		@ args = 0, pretend = 0, frame = 0
 948              		@ frame_needed = 0, uses_anonymous_args = 0
 949              		@ link register save eliminated.
 589:Drivers/STM32H7xx_HAL_Driver/Src/stm32h7xx_hal.c ****   CLEAR_BIT(VREFBUF->CSR, VREFBUF_CSR_ENVR);
 950              		.loc 1 589 3 view .LVU191
 951 0000 024A     		ldr	r2, .L91
 952 0002 1368     		ldr	r3, [r2]
 953 0004 23F00103 		bic	r3, r3, #1
 954 0008 1360     		str	r3, [r2]
 590:Drivers/STM32H7xx_HAL_Driver/Src/stm32h7xx_hal.c **** }
 955              		.loc 1 590 1 is_stmt 0 view .LVU192
 956 000a 7047     		bx	lr
 957              	.L92:
 958              		.align	2
 959              	.L91:
 960 000c 003C0058 		.word	1476410368
 961              		.cfi_endproc
 962              	.LFE169:
 964              		.section	.text.HAL_SYSCFG_ETHInterfaceSelect,"ax",%progbits
 965              		.align	1
 966              		.global	HAL_SYSCFG_ETHInterfaceSelect
 967              		.syntax unified
 968              		.thumb
 969              		.thumb_func
 971              	HAL_SYSCFG_ETHInterfaceSelect:
 972              	.LVL33:
 973              	.LFB170:
 591:Drivers/STM32H7xx_HAL_Driver/Src/stm32h7xx_hal.c **** 
 592:Drivers/STM32H7xx_HAL_Driver/Src/stm32h7xx_hal.c **** #if defined(SYSCFG_PMCR_EPIS_SEL)
ARM GAS  C:\Users\27655\AppData\Local\Temp\ccShhaKP.s 			page 29


 593:Drivers/STM32H7xx_HAL_Driver/Src/stm32h7xx_hal.c **** /**
 594:Drivers/STM32H7xx_HAL_Driver/Src/stm32h7xx_hal.c ****   * @brief  Ethernet PHY Interface Selection either MII or RMII
 595:Drivers/STM32H7xx_HAL_Driver/Src/stm32h7xx_hal.c ****   * @param  SYSCFG_ETHInterface: Selects the Ethernet PHY interface
 596:Drivers/STM32H7xx_HAL_Driver/Src/stm32h7xx_hal.c ****   *   This parameter can be one of the following values:
 597:Drivers/STM32H7xx_HAL_Driver/Src/stm32h7xx_hal.c ****   *   @arg SYSCFG_ETH_MII : Select the Media Independent Interface
 598:Drivers/STM32H7xx_HAL_Driver/Src/stm32h7xx_hal.c ****   *   @arg SYSCFG_ETH_RMII: Select the Reduced Media Independent Interface
 599:Drivers/STM32H7xx_HAL_Driver/Src/stm32h7xx_hal.c ****   * @retval None
 600:Drivers/STM32H7xx_HAL_Driver/Src/stm32h7xx_hal.c ****   */
 601:Drivers/STM32H7xx_HAL_Driver/Src/stm32h7xx_hal.c **** void HAL_SYSCFG_ETHInterfaceSelect(uint32_t SYSCFG_ETHInterface)
 602:Drivers/STM32H7xx_HAL_Driver/Src/stm32h7xx_hal.c **** {
 974              		.loc 1 602 1 is_stmt 1 view -0
 975              		.cfi_startproc
 976              		@ args = 0, pretend = 0, frame = 0
 977              		@ frame_needed = 0, uses_anonymous_args = 0
 978              		@ link register save eliminated.
 603:Drivers/STM32H7xx_HAL_Driver/Src/stm32h7xx_hal.c ****   /* Check the parameter */
 604:Drivers/STM32H7xx_HAL_Driver/Src/stm32h7xx_hal.c ****   assert_param(IS_SYSCFG_ETHERNET_CONFIG(SYSCFG_ETHInterface));
 979              		.loc 1 604 3 view .LVU194
 605:Drivers/STM32H7xx_HAL_Driver/Src/stm32h7xx_hal.c **** 
 606:Drivers/STM32H7xx_HAL_Driver/Src/stm32h7xx_hal.c ****   MODIFY_REG(SYSCFG->PMCR, SYSCFG_PMCR_EPIS_SEL, (uint32_t)(SYSCFG_ETHInterface));
 980              		.loc 1 606 3 view .LVU195
 981 0000 034A     		ldr	r2, .L94
 982 0002 5368     		ldr	r3, [r2, #4]
 983 0004 23F46003 		bic	r3, r3, #14680064
 984 0008 0343     		orrs	r3, r3, r0
 985 000a 5360     		str	r3, [r2, #4]
 607:Drivers/STM32H7xx_HAL_Driver/Src/stm32h7xx_hal.c **** }
 986              		.loc 1 607 1 is_stmt 0 view .LVU196
 987 000c 7047     		bx	lr
 988              	.L95:
 989 000e 00BF     		.align	2
 990              	.L94:
 991 0010 00040058 		.word	1476396032
 992              		.cfi_endproc
 993              	.LFE170:
 995              		.section	.text.HAL_SYSCFG_AnalogSwitchConfig,"ax",%progbits
 996              		.align	1
 997              		.global	HAL_SYSCFG_AnalogSwitchConfig
 998              		.syntax unified
 999              		.thumb
 1000              		.thumb_func
 1002              	HAL_SYSCFG_AnalogSwitchConfig:
 1003              	.LVL34:
 1004              	.LFB171:
 608:Drivers/STM32H7xx_HAL_Driver/Src/stm32h7xx_hal.c **** #endif /* SYSCFG_PMCR_EPIS_SEL */
 609:Drivers/STM32H7xx_HAL_Driver/Src/stm32h7xx_hal.c **** 
 610:Drivers/STM32H7xx_HAL_Driver/Src/stm32h7xx_hal.c **** /**
 611:Drivers/STM32H7xx_HAL_Driver/Src/stm32h7xx_hal.c ****   * @brief  Analog Switch control for dual analog pads.
 612:Drivers/STM32H7xx_HAL_Driver/Src/stm32h7xx_hal.c ****   * @param  SYSCFG_AnalogSwitch: Selects the analog pad
 613:Drivers/STM32H7xx_HAL_Driver/Src/stm32h7xx_hal.c ****   *   This parameter can be one or a combination of the following values:
 614:Drivers/STM32H7xx_HAL_Driver/Src/stm32h7xx_hal.c ****   *   @arg SYSCFG_SWITCH_PA0 : Select PA0 analog switch
 615:Drivers/STM32H7xx_HAL_Driver/Src/stm32h7xx_hal.c ****   *   @arg SYSCFG_SWITCH_PA1:  Select PA1 analog switch
 616:Drivers/STM32H7xx_HAL_Driver/Src/stm32h7xx_hal.c ****   *   @arg SYSCFG_SWITCH_PC2 : Select PC2 analog switch
 617:Drivers/STM32H7xx_HAL_Driver/Src/stm32h7xx_hal.c ****   *   @arg SYSCFG_SWITCH_PC3:  Select PC3 analog switch
 618:Drivers/STM32H7xx_HAL_Driver/Src/stm32h7xx_hal.c ****   * @param  SYSCFG_SwitchState: Open or Close the analog switch between dual pads (PXn and PXn_C)
 619:Drivers/STM32H7xx_HAL_Driver/Src/stm32h7xx_hal.c ****   *   This parameter can be one or a combination of the following values:
 620:Drivers/STM32H7xx_HAL_Driver/Src/stm32h7xx_hal.c ****   *   @arg SYSCFG_SWITCH_PA0_OPEN
ARM GAS  C:\Users\27655\AppData\Local\Temp\ccShhaKP.s 			page 30


 621:Drivers/STM32H7xx_HAL_Driver/Src/stm32h7xx_hal.c ****   *   @arg SYSCFG_SWITCH_PA0_CLOSE
 622:Drivers/STM32H7xx_HAL_Driver/Src/stm32h7xx_hal.c ****   *   @arg SYSCFG_SWITCH_PA1_OPEN
 623:Drivers/STM32H7xx_HAL_Driver/Src/stm32h7xx_hal.c ****   *   @arg SYSCFG_SWITCH_PA1_CLOSE
 624:Drivers/STM32H7xx_HAL_Driver/Src/stm32h7xx_hal.c ****   *   @arg SYSCFG_SWITCH_PC2_OPEN
 625:Drivers/STM32H7xx_HAL_Driver/Src/stm32h7xx_hal.c ****   *   @arg SYSCFG_SWITCH_PC2_CLOSE
 626:Drivers/STM32H7xx_HAL_Driver/Src/stm32h7xx_hal.c ****   *   @arg SYSCFG_SWITCH_PC3_OPEN
 627:Drivers/STM32H7xx_HAL_Driver/Src/stm32h7xx_hal.c ****   *   @arg SYSCFG_SWITCH_PC3_CLOSE
 628:Drivers/STM32H7xx_HAL_Driver/Src/stm32h7xx_hal.c ****   * @retval None
 629:Drivers/STM32H7xx_HAL_Driver/Src/stm32h7xx_hal.c ****   */
 630:Drivers/STM32H7xx_HAL_Driver/Src/stm32h7xx_hal.c **** 
 631:Drivers/STM32H7xx_HAL_Driver/Src/stm32h7xx_hal.c **** void HAL_SYSCFG_AnalogSwitchConfig(uint32_t SYSCFG_AnalogSwitch , uint32_t SYSCFG_SwitchState )
 632:Drivers/STM32H7xx_HAL_Driver/Src/stm32h7xx_hal.c **** {
 1005              		.loc 1 632 1 is_stmt 1 view -0
 1006              		.cfi_startproc
 1007              		@ args = 0, pretend = 0, frame = 0
 1008              		@ frame_needed = 0, uses_anonymous_args = 0
 1009              		@ link register save eliminated.
 633:Drivers/STM32H7xx_HAL_Driver/Src/stm32h7xx_hal.c ****   /* Check the parameter */
 634:Drivers/STM32H7xx_HAL_Driver/Src/stm32h7xx_hal.c ****   assert_param(IS_SYSCFG_ANALOG_SWITCH(SYSCFG_AnalogSwitch));
 1010              		.loc 1 634 3 view .LVU198
 635:Drivers/STM32H7xx_HAL_Driver/Src/stm32h7xx_hal.c ****   assert_param(IS_SYSCFG_SWITCH_STATE(SYSCFG_SwitchState));
 1011              		.loc 1 635 3 view .LVU199
 636:Drivers/STM32H7xx_HAL_Driver/Src/stm32h7xx_hal.c **** 
 637:Drivers/STM32H7xx_HAL_Driver/Src/stm32h7xx_hal.c ****   MODIFY_REG(SYSCFG->PMCR, (uint32_t) SYSCFG_AnalogSwitch, (uint32_t)(SYSCFG_SwitchState));
 1012              		.loc 1 637 3 view .LVU200
 1013 0000 034A     		ldr	r2, .L97
 1014 0002 5368     		ldr	r3, [r2, #4]
 1015 0004 23EA0003 		bic	r3, r3, r0
 1016 0008 0B43     		orrs	r3, r3, r1
 1017 000a 5360     		str	r3, [r2, #4]
 638:Drivers/STM32H7xx_HAL_Driver/Src/stm32h7xx_hal.c **** }
 1018              		.loc 1 638 1 is_stmt 0 view .LVU201
 1019 000c 7047     		bx	lr
 1020              	.L98:
 1021 000e 00BF     		.align	2
 1022              	.L97:
 1023 0010 00040058 		.word	1476396032
 1024              		.cfi_endproc
 1025              	.LFE171:
 1027              		.section	.text.HAL_SYSCFG_EnableBOOST,"ax",%progbits
 1028              		.align	1
 1029              		.global	HAL_SYSCFG_EnableBOOST
 1030              		.syntax unified
 1031              		.thumb
 1032              		.thumb_func
 1034              	HAL_SYSCFG_EnableBOOST:
 1035              	.LFB172:
 639:Drivers/STM32H7xx_HAL_Driver/Src/stm32h7xx_hal.c **** 
 640:Drivers/STM32H7xx_HAL_Driver/Src/stm32h7xx_hal.c **** #if defined(SYSCFG_PMCR_BOOSTEN)
 641:Drivers/STM32H7xx_HAL_Driver/Src/stm32h7xx_hal.c **** /**
 642:Drivers/STM32H7xx_HAL_Driver/Src/stm32h7xx_hal.c ****   * @brief  Enables the booster to reduce the total harmonic distortion of the analog
 643:Drivers/STM32H7xx_HAL_Driver/Src/stm32h7xx_hal.c ****   *         switch when the supply voltage is lower than 2.7 V.
 644:Drivers/STM32H7xx_HAL_Driver/Src/stm32h7xx_hal.c ****   * @note   Activating the booster allows to guaranty the analog switch AC performance
 645:Drivers/STM32H7xx_HAL_Driver/Src/stm32h7xx_hal.c ****   *         when the supply voltage is below 2.7 V: in this case, the analog switch
 646:Drivers/STM32H7xx_HAL_Driver/Src/stm32h7xx_hal.c ****   *         performance is the same on the full voltage range
 647:Drivers/STM32H7xx_HAL_Driver/Src/stm32h7xx_hal.c ****   * @retval None
 648:Drivers/STM32H7xx_HAL_Driver/Src/stm32h7xx_hal.c ****   */
ARM GAS  C:\Users\27655\AppData\Local\Temp\ccShhaKP.s 			page 31


 649:Drivers/STM32H7xx_HAL_Driver/Src/stm32h7xx_hal.c **** void HAL_SYSCFG_EnableBOOST(void)
 650:Drivers/STM32H7xx_HAL_Driver/Src/stm32h7xx_hal.c **** {
 1036              		.loc 1 650 1 is_stmt 1 view -0
 1037              		.cfi_startproc
 1038              		@ args = 0, pretend = 0, frame = 0
 1039              		@ frame_needed = 0, uses_anonymous_args = 0
 1040              		@ link register save eliminated.
 651:Drivers/STM32H7xx_HAL_Driver/Src/stm32h7xx_hal.c ****  SET_BIT(SYSCFG->PMCR, SYSCFG_PMCR_BOOSTEN) ;
 1041              		.loc 1 651 2 view .LVU203
 1042 0000 024A     		ldr	r2, .L100
 1043 0002 5368     		ldr	r3, [r2, #4]
 1044 0004 43F48073 		orr	r3, r3, #256
 1045 0008 5360     		str	r3, [r2, #4]
 652:Drivers/STM32H7xx_HAL_Driver/Src/stm32h7xx_hal.c **** }
 1046              		.loc 1 652 1 is_stmt 0 view .LVU204
 1047 000a 7047     		bx	lr
 1048              	.L101:
 1049              		.align	2
 1050              	.L100:
 1051 000c 00040058 		.word	1476396032
 1052              		.cfi_endproc
 1053              	.LFE172:
 1055              		.section	.text.HAL_SYSCFG_DisableBOOST,"ax",%progbits
 1056              		.align	1
 1057              		.global	HAL_SYSCFG_DisableBOOST
 1058              		.syntax unified
 1059              		.thumb
 1060              		.thumb_func
 1062              	HAL_SYSCFG_DisableBOOST:
 1063              	.LFB173:
 653:Drivers/STM32H7xx_HAL_Driver/Src/stm32h7xx_hal.c **** 
 654:Drivers/STM32H7xx_HAL_Driver/Src/stm32h7xx_hal.c **** /**
 655:Drivers/STM32H7xx_HAL_Driver/Src/stm32h7xx_hal.c ****   * @brief  Disables the booster
 656:Drivers/STM32H7xx_HAL_Driver/Src/stm32h7xx_hal.c ****   * @note   Activating the booster allows to guaranty the analog switch AC performance
 657:Drivers/STM32H7xx_HAL_Driver/Src/stm32h7xx_hal.c ****   *         when the supply voltage is below 2.7 V: in this case, the analog switch
 658:Drivers/STM32H7xx_HAL_Driver/Src/stm32h7xx_hal.c ****   *         performance is the same on the full voltage range
 659:Drivers/STM32H7xx_HAL_Driver/Src/stm32h7xx_hal.c ****   * @retval None
 660:Drivers/STM32H7xx_HAL_Driver/Src/stm32h7xx_hal.c ****   */
 661:Drivers/STM32H7xx_HAL_Driver/Src/stm32h7xx_hal.c **** void HAL_SYSCFG_DisableBOOST(void)
 662:Drivers/STM32H7xx_HAL_Driver/Src/stm32h7xx_hal.c **** {
 1064              		.loc 1 662 1 is_stmt 1 view -0
 1065              		.cfi_startproc
 1066              		@ args = 0, pretend = 0, frame = 0
 1067              		@ frame_needed = 0, uses_anonymous_args = 0
 1068              		@ link register save eliminated.
 663:Drivers/STM32H7xx_HAL_Driver/Src/stm32h7xx_hal.c ****  CLEAR_BIT(SYSCFG->PMCR, SYSCFG_PMCR_BOOSTEN) ;
 1069              		.loc 1 663 2 view .LVU206
 1070 0000 024A     		ldr	r2, .L103
 1071 0002 5368     		ldr	r3, [r2, #4]
 1072 0004 23F48073 		bic	r3, r3, #256
 1073 0008 5360     		str	r3, [r2, #4]
 664:Drivers/STM32H7xx_HAL_Driver/Src/stm32h7xx_hal.c **** }
 1074              		.loc 1 664 1 is_stmt 0 view .LVU207
 1075 000a 7047     		bx	lr
 1076              	.L104:
 1077              		.align	2
 1078              	.L103:
ARM GAS  C:\Users\27655\AppData\Local\Temp\ccShhaKP.s 			page 32


 1079 000c 00040058 		.word	1476396032
 1080              		.cfi_endproc
 1081              	.LFE173:
 1083              		.section	.text.HAL_SYSCFG_CM7BootAddConfig,"ax",%progbits
 1084              		.align	1
 1085              		.global	HAL_SYSCFG_CM7BootAddConfig
 1086              		.syntax unified
 1087              		.thumb
 1088              		.thumb_func
 1090              	HAL_SYSCFG_CM7BootAddConfig:
 1091              	.LVL35:
 1092              	.LFB174:
 665:Drivers/STM32H7xx_HAL_Driver/Src/stm32h7xx_hal.c **** #endif /* SYSCFG_PMCR_BOOSTEN */
 666:Drivers/STM32H7xx_HAL_Driver/Src/stm32h7xx_hal.c **** 
 667:Drivers/STM32H7xx_HAL_Driver/Src/stm32h7xx_hal.c **** #if defined (SYSCFG_UR2_BOOT_ADD0) ||  defined (SYSCFG_UR2_BCM7_ADD0)
 668:Drivers/STM32H7xx_HAL_Driver/Src/stm32h7xx_hal.c **** /**
 669:Drivers/STM32H7xx_HAL_Driver/Src/stm32h7xx_hal.c ****   * @brief  BootCM7 address 0 configuration
 670:Drivers/STM32H7xx_HAL_Driver/Src/stm32h7xx_hal.c ****   * @param  BootRegister :Specifies the Boot Address register (Address0 or Address1)
 671:Drivers/STM32H7xx_HAL_Driver/Src/stm32h7xx_hal.c ****   *   This parameter can be one of the following values:
 672:Drivers/STM32H7xx_HAL_Driver/Src/stm32h7xx_hal.c ****   *   @arg SYSCFG_BOOT_ADDR0 : Select the boot address0
 673:Drivers/STM32H7xx_HAL_Driver/Src/stm32h7xx_hal.c ****   *   @arg SYSCFG_BOOT_ADDR1:  Select the boot address1
 674:Drivers/STM32H7xx_HAL_Driver/Src/stm32h7xx_hal.c ****   * @param  BootAddress :Specifies the CM7 Boot Address to be loaded in Address0 or Address1
 675:Drivers/STM32H7xx_HAL_Driver/Src/stm32h7xx_hal.c ****   * @retval None
 676:Drivers/STM32H7xx_HAL_Driver/Src/stm32h7xx_hal.c ****   */
 677:Drivers/STM32H7xx_HAL_Driver/Src/stm32h7xx_hal.c **** void HAL_SYSCFG_CM7BootAddConfig(uint32_t BootRegister, uint32_t BootAddress)
 678:Drivers/STM32H7xx_HAL_Driver/Src/stm32h7xx_hal.c **** {
 1093              		.loc 1 678 1 is_stmt 1 view -0
 1094              		.cfi_startproc
 1095              		@ args = 0, pretend = 0, frame = 0
 1096              		@ frame_needed = 0, uses_anonymous_args = 0
 1097              		@ link register save eliminated.
 679:Drivers/STM32H7xx_HAL_Driver/Src/stm32h7xx_hal.c ****   /* Check the parameters */
 680:Drivers/STM32H7xx_HAL_Driver/Src/stm32h7xx_hal.c ****   assert_param(IS_SYSCFG_BOOT_REGISTER(BootRegister));
 1098              		.loc 1 680 3 view .LVU209
 681:Drivers/STM32H7xx_HAL_Driver/Src/stm32h7xx_hal.c ****   assert_param(IS_SYSCFG_BOOT_ADDRESS(BootAddress));
 1099              		.loc 1 681 3 view .LVU210
 682:Drivers/STM32H7xx_HAL_Driver/Src/stm32h7xx_hal.c ****   if ( BootRegister == SYSCFG_BOOT_ADDR0 )
 1100              		.loc 1 682 3 view .LVU211
 1101              		.loc 1 682 6 is_stmt 0 view .LVU212
 1102 0000 48B9     		cbnz	r0, .L106
 683:Drivers/STM32H7xx_HAL_Driver/Src/stm32h7xx_hal.c ****   {
 684:Drivers/STM32H7xx_HAL_Driver/Src/stm32h7xx_hal.c ****     /* Configure CM7 BOOT ADD0 */
 685:Drivers/STM32H7xx_HAL_Driver/Src/stm32h7xx_hal.c **** #if defined(DUAL_CORE)
 686:Drivers/STM32H7xx_HAL_Driver/Src/stm32h7xx_hal.c ****     MODIFY_REG(SYSCFG->UR2, SYSCFG_UR2_BCM7_ADD0, ((BootAddress >> 16) << SYSCFG_UR2_BCM7_ADD0_Pos)
 687:Drivers/STM32H7xx_HAL_Driver/Src/stm32h7xx_hal.c **** #else
 688:Drivers/STM32H7xx_HAL_Driver/Src/stm32h7xx_hal.c ****     MODIFY_REG(SYSCFG->UR2, SYSCFG_UR2_BOOT_ADD0, ((BootAddress >> 16) << SYSCFG_UR2_BOOT_ADD0_Pos)
 1103              		.loc 1 688 5 is_stmt 1 view .LVU213
 1104 0002 0A4A     		ldr	r2, .L108
 1105 0004 D2F80833 		ldr	r3, [r2, #776]
 1106 0008 9BB2     		uxth	r3, r3
 1107 000a 6FF30F01 		bfc	r1, #0, #16
 1108              	.LVL36:
 1109              		.loc 1 688 5 is_stmt 0 view .LVU214
 1110 000e 0B43     		orrs	r3, r3, r1
 1111 0010 C2F80833 		str	r3, [r2, #776]
 1112 0014 7047     		bx	lr
 1113              	.LVL37:
ARM GAS  C:\Users\27655\AppData\Local\Temp\ccShhaKP.s 			page 33


 1114              	.L106:
 689:Drivers/STM32H7xx_HAL_Driver/Src/stm32h7xx_hal.c **** #endif /*DUAL_CORE*/
 690:Drivers/STM32H7xx_HAL_Driver/Src/stm32h7xx_hal.c ****   }
 691:Drivers/STM32H7xx_HAL_Driver/Src/stm32h7xx_hal.c ****   else
 692:Drivers/STM32H7xx_HAL_Driver/Src/stm32h7xx_hal.c ****   {
 693:Drivers/STM32H7xx_HAL_Driver/Src/stm32h7xx_hal.c ****     /* Configure CM7 BOOT ADD1 */
 694:Drivers/STM32H7xx_HAL_Driver/Src/stm32h7xx_hal.c **** #if defined(DUAL_CORE)
 695:Drivers/STM32H7xx_HAL_Driver/Src/stm32h7xx_hal.c ****     MODIFY_REG(SYSCFG->UR3, SYSCFG_UR3_BCM7_ADD1, (BootAddress >> 16));
 696:Drivers/STM32H7xx_HAL_Driver/Src/stm32h7xx_hal.c **** #else
 697:Drivers/STM32H7xx_HAL_Driver/Src/stm32h7xx_hal.c ****     MODIFY_REG(SYSCFG->UR3, SYSCFG_UR3_BOOT_ADD1, (BootAddress >> 16));
 1115              		.loc 1 697 5 is_stmt 1 view .LVU215
 1116 0016 054A     		ldr	r2, .L108
 1117 0018 D2F80C33 		ldr	r3, [r2, #780]
 1118 001c 6FF30F03 		bfc	r3, #0, #16
 1119 0020 43EA1143 		orr	r3, r3, r1, lsr #16
 1120 0024 C2F80C33 		str	r3, [r2, #780]
 698:Drivers/STM32H7xx_HAL_Driver/Src/stm32h7xx_hal.c **** #endif /*DUAL_CORE*/
 699:Drivers/STM32H7xx_HAL_Driver/Src/stm32h7xx_hal.c ****   }
 700:Drivers/STM32H7xx_HAL_Driver/Src/stm32h7xx_hal.c **** }
 1121              		.loc 1 700 1 is_stmt 0 view .LVU216
 1122 0028 7047     		bx	lr
 1123              	.L109:
 1124 002a 00BF     		.align	2
 1125              	.L108:
 1126 002c 00040058 		.word	1476396032
 1127              		.cfi_endproc
 1128              	.LFE174:
 1130              		.section	.text.HAL_EnableCompensationCell,"ax",%progbits
 1131              		.align	1
 1132              		.global	HAL_EnableCompensationCell
 1133              		.syntax unified
 1134              		.thumb
 1135              		.thumb_func
 1137              	HAL_EnableCompensationCell:
 1138              	.LFB175:
 701:Drivers/STM32H7xx_HAL_Driver/Src/stm32h7xx_hal.c **** #endif /* SYSCFG_UR2_BOOT_ADD0 || SYSCFG_UR2_BCM7_ADD0 */
 702:Drivers/STM32H7xx_HAL_Driver/Src/stm32h7xx_hal.c **** 
 703:Drivers/STM32H7xx_HAL_Driver/Src/stm32h7xx_hal.c **** #if defined(DUAL_CORE)
 704:Drivers/STM32H7xx_HAL_Driver/Src/stm32h7xx_hal.c **** /**
 705:Drivers/STM32H7xx_HAL_Driver/Src/stm32h7xx_hal.c ****   * @brief  BootCM4 address 0 configuration
 706:Drivers/STM32H7xx_HAL_Driver/Src/stm32h7xx_hal.c ****   * @param  BootRegister :Specifies the Boot Address register (Address0 or Address1)
 707:Drivers/STM32H7xx_HAL_Driver/Src/stm32h7xx_hal.c ****   *   This parameter can be one of the following values:
 708:Drivers/STM32H7xx_HAL_Driver/Src/stm32h7xx_hal.c ****   *   @arg SYSCFG_BOOT_ADDR0 : Select the boot address0
 709:Drivers/STM32H7xx_HAL_Driver/Src/stm32h7xx_hal.c ****   *   @arg SYSCFG_BOOT_ADDR1:  Select the boot address1
 710:Drivers/STM32H7xx_HAL_Driver/Src/stm32h7xx_hal.c ****   * @param  BootAddress :Specifies the CM4 Boot Address to be loaded in Address0 or Address1
 711:Drivers/STM32H7xx_HAL_Driver/Src/stm32h7xx_hal.c ****   * @retval None
 712:Drivers/STM32H7xx_HAL_Driver/Src/stm32h7xx_hal.c ****   */
 713:Drivers/STM32H7xx_HAL_Driver/Src/stm32h7xx_hal.c **** void HAL_SYSCFG_CM4BootAddConfig(uint32_t BootRegister, uint32_t BootAddress)
 714:Drivers/STM32H7xx_HAL_Driver/Src/stm32h7xx_hal.c **** {
 715:Drivers/STM32H7xx_HAL_Driver/Src/stm32h7xx_hal.c ****   /* Check the parameters */
 716:Drivers/STM32H7xx_HAL_Driver/Src/stm32h7xx_hal.c ****   assert_param(IS_SYSCFG_BOOT_REGISTER(BootRegister));
 717:Drivers/STM32H7xx_HAL_Driver/Src/stm32h7xx_hal.c ****   assert_param(IS_SYSCFG_BOOT_ADDRESS(BootAddress));
 718:Drivers/STM32H7xx_HAL_Driver/Src/stm32h7xx_hal.c **** 
 719:Drivers/STM32H7xx_HAL_Driver/Src/stm32h7xx_hal.c ****   if ( BootRegister == SYSCFG_BOOT_ADDR0 )
 720:Drivers/STM32H7xx_HAL_Driver/Src/stm32h7xx_hal.c ****   {
 721:Drivers/STM32H7xx_HAL_Driver/Src/stm32h7xx_hal.c ****     /* Configure CM4 BOOT ADD0 */
 722:Drivers/STM32H7xx_HAL_Driver/Src/stm32h7xx_hal.c ****     MODIFY_REG(SYSCFG->UR3, SYSCFG_UR3_BCM4_ADD0, ((BootAddress >> 16)<< SYSCFG_UR3_BCM4_ADD0_Pos))
ARM GAS  C:\Users\27655\AppData\Local\Temp\ccShhaKP.s 			page 34


 723:Drivers/STM32H7xx_HAL_Driver/Src/stm32h7xx_hal.c ****   }
 724:Drivers/STM32H7xx_HAL_Driver/Src/stm32h7xx_hal.c **** 
 725:Drivers/STM32H7xx_HAL_Driver/Src/stm32h7xx_hal.c ****   else
 726:Drivers/STM32H7xx_HAL_Driver/Src/stm32h7xx_hal.c ****   {
 727:Drivers/STM32H7xx_HAL_Driver/Src/stm32h7xx_hal.c ****     /* Configure CM4 BOOT ADD1 */
 728:Drivers/STM32H7xx_HAL_Driver/Src/stm32h7xx_hal.c ****     MODIFY_REG(SYSCFG->UR4, SYSCFG_UR4_BCM4_ADD1, (BootAddress >> 16));
 729:Drivers/STM32H7xx_HAL_Driver/Src/stm32h7xx_hal.c ****   }
 730:Drivers/STM32H7xx_HAL_Driver/Src/stm32h7xx_hal.c **** }
 731:Drivers/STM32H7xx_HAL_Driver/Src/stm32h7xx_hal.c **** 
 732:Drivers/STM32H7xx_HAL_Driver/Src/stm32h7xx_hal.c **** /**
 733:Drivers/STM32H7xx_HAL_Driver/Src/stm32h7xx_hal.c ****   * @brief  Enables the Cortex-M7 boot
 734:Drivers/STM32H7xx_HAL_Driver/Src/stm32h7xx_hal.c ****   * @retval None
 735:Drivers/STM32H7xx_HAL_Driver/Src/stm32h7xx_hal.c ****   */
 736:Drivers/STM32H7xx_HAL_Driver/Src/stm32h7xx_hal.c **** void HAL_SYSCFG_EnableCM7BOOT(void)
 737:Drivers/STM32H7xx_HAL_Driver/Src/stm32h7xx_hal.c **** {
 738:Drivers/STM32H7xx_HAL_Driver/Src/stm32h7xx_hal.c ****  SET_BIT(SYSCFG->UR1, SYSCFG_UR1_BCM7);
 739:Drivers/STM32H7xx_HAL_Driver/Src/stm32h7xx_hal.c **** }
 740:Drivers/STM32H7xx_HAL_Driver/Src/stm32h7xx_hal.c **** 
 741:Drivers/STM32H7xx_HAL_Driver/Src/stm32h7xx_hal.c **** /**
 742:Drivers/STM32H7xx_HAL_Driver/Src/stm32h7xx_hal.c ****   * @brief  Disables the Cortex-M7 boot
 743:Drivers/STM32H7xx_HAL_Driver/Src/stm32h7xx_hal.c ****   * @note   Disabling the boot will gate the CPU clock
 744:Drivers/STM32H7xx_HAL_Driver/Src/stm32h7xx_hal.c ****   * @retval None
 745:Drivers/STM32H7xx_HAL_Driver/Src/stm32h7xx_hal.c ****   */
 746:Drivers/STM32H7xx_HAL_Driver/Src/stm32h7xx_hal.c **** void HAL_SYSCFG_DisableCM7BOOT(void)
 747:Drivers/STM32H7xx_HAL_Driver/Src/stm32h7xx_hal.c **** {
 748:Drivers/STM32H7xx_HAL_Driver/Src/stm32h7xx_hal.c ****  CLEAR_BIT(SYSCFG->UR1, SYSCFG_UR1_BCM7) ;
 749:Drivers/STM32H7xx_HAL_Driver/Src/stm32h7xx_hal.c **** }
 750:Drivers/STM32H7xx_HAL_Driver/Src/stm32h7xx_hal.c **** 
 751:Drivers/STM32H7xx_HAL_Driver/Src/stm32h7xx_hal.c **** /**
 752:Drivers/STM32H7xx_HAL_Driver/Src/stm32h7xx_hal.c ****   * @brief  Enables the Cortex-M4 boot
 753:Drivers/STM32H7xx_HAL_Driver/Src/stm32h7xx_hal.c ****   * @retval None
 754:Drivers/STM32H7xx_HAL_Driver/Src/stm32h7xx_hal.c ****   */
 755:Drivers/STM32H7xx_HAL_Driver/Src/stm32h7xx_hal.c **** void HAL_SYSCFG_EnableCM4BOOT(void)
 756:Drivers/STM32H7xx_HAL_Driver/Src/stm32h7xx_hal.c **** {
 757:Drivers/STM32H7xx_HAL_Driver/Src/stm32h7xx_hal.c ****  SET_BIT(SYSCFG->UR1, SYSCFG_UR1_BCM4);
 758:Drivers/STM32H7xx_HAL_Driver/Src/stm32h7xx_hal.c **** }
 759:Drivers/STM32H7xx_HAL_Driver/Src/stm32h7xx_hal.c **** 
 760:Drivers/STM32H7xx_HAL_Driver/Src/stm32h7xx_hal.c **** /**
 761:Drivers/STM32H7xx_HAL_Driver/Src/stm32h7xx_hal.c ****   * @brief  Disables the Cortex-M4 boot
 762:Drivers/STM32H7xx_HAL_Driver/Src/stm32h7xx_hal.c ****   * @note   Disabling the boot will gate the CPU clock
 763:Drivers/STM32H7xx_HAL_Driver/Src/stm32h7xx_hal.c ****   * @retval None
 764:Drivers/STM32H7xx_HAL_Driver/Src/stm32h7xx_hal.c ****   */
 765:Drivers/STM32H7xx_HAL_Driver/Src/stm32h7xx_hal.c **** void HAL_SYSCFG_DisableCM4BOOT(void)
 766:Drivers/STM32H7xx_HAL_Driver/Src/stm32h7xx_hal.c **** {
 767:Drivers/STM32H7xx_HAL_Driver/Src/stm32h7xx_hal.c ****   CLEAR_BIT(SYSCFG->UR1, SYSCFG_UR1_BCM4);
 768:Drivers/STM32H7xx_HAL_Driver/Src/stm32h7xx_hal.c **** }
 769:Drivers/STM32H7xx_HAL_Driver/Src/stm32h7xx_hal.c **** #endif /*DUAL_CORE*/
 770:Drivers/STM32H7xx_HAL_Driver/Src/stm32h7xx_hal.c **** /**
 771:Drivers/STM32H7xx_HAL_Driver/Src/stm32h7xx_hal.c ****   * @brief  Enables the I/O Compensation Cell.
 772:Drivers/STM32H7xx_HAL_Driver/Src/stm32h7xx_hal.c ****   * @note   The I/O compensation cell can be used only when the device supply
 773:Drivers/STM32H7xx_HAL_Driver/Src/stm32h7xx_hal.c ****   *         voltage ranges from 1.62 to 2.0 V and from 2.7 to 3.6 V.
 774:Drivers/STM32H7xx_HAL_Driver/Src/stm32h7xx_hal.c ****   * @retval None
 775:Drivers/STM32H7xx_HAL_Driver/Src/stm32h7xx_hal.c ****   */
 776:Drivers/STM32H7xx_HAL_Driver/Src/stm32h7xx_hal.c **** void HAL_EnableCompensationCell(void)
 777:Drivers/STM32H7xx_HAL_Driver/Src/stm32h7xx_hal.c **** {
 1139              		.loc 1 777 1 is_stmt 1 view -0
 1140              		.cfi_startproc
ARM GAS  C:\Users\27655\AppData\Local\Temp\ccShhaKP.s 			page 35


 1141              		@ args = 0, pretend = 0, frame = 0
 1142              		@ frame_needed = 0, uses_anonymous_args = 0
 1143              		@ link register save eliminated.
 778:Drivers/STM32H7xx_HAL_Driver/Src/stm32h7xx_hal.c ****   SET_BIT(SYSCFG->CCCSR, SYSCFG_CCCSR_EN) ;
 1144              		.loc 1 778 3 view .LVU218
 1145 0000 024A     		ldr	r2, .L111
 1146 0002 136A     		ldr	r3, [r2, #32]
 1147 0004 43F00103 		orr	r3, r3, #1
 1148 0008 1362     		str	r3, [r2, #32]
 779:Drivers/STM32H7xx_HAL_Driver/Src/stm32h7xx_hal.c **** }
 1149              		.loc 1 779 1 is_stmt 0 view .LVU219
 1150 000a 7047     		bx	lr
 1151              	.L112:
 1152              		.align	2
 1153              	.L111:
 1154 000c 00040058 		.word	1476396032
 1155              		.cfi_endproc
 1156              	.LFE175:
 1158              		.section	.text.HAL_DisableCompensationCell,"ax",%progbits
 1159              		.align	1
 1160              		.global	HAL_DisableCompensationCell
 1161              		.syntax unified
 1162              		.thumb
 1163              		.thumb_func
 1165              	HAL_DisableCompensationCell:
 1166              	.LFB176:
 780:Drivers/STM32H7xx_HAL_Driver/Src/stm32h7xx_hal.c **** 
 781:Drivers/STM32H7xx_HAL_Driver/Src/stm32h7xx_hal.c **** /**
 782:Drivers/STM32H7xx_HAL_Driver/Src/stm32h7xx_hal.c ****   * @brief  Power-down the I/O Compensation Cell.
 783:Drivers/STM32H7xx_HAL_Driver/Src/stm32h7xx_hal.c ****   * @note   The I/O compensation cell can be used only when the device supply
 784:Drivers/STM32H7xx_HAL_Driver/Src/stm32h7xx_hal.c ****   *         voltage ranges from 1.62 to 2.0 V and from 2.7 to 3.6 V.
 785:Drivers/STM32H7xx_HAL_Driver/Src/stm32h7xx_hal.c ****   * @retval None
 786:Drivers/STM32H7xx_HAL_Driver/Src/stm32h7xx_hal.c ****   */
 787:Drivers/STM32H7xx_HAL_Driver/Src/stm32h7xx_hal.c **** void HAL_DisableCompensationCell(void)
 788:Drivers/STM32H7xx_HAL_Driver/Src/stm32h7xx_hal.c **** {
 1167              		.loc 1 788 1 is_stmt 1 view -0
 1168              		.cfi_startproc
 1169              		@ args = 0, pretend = 0, frame = 0
 1170              		@ frame_needed = 0, uses_anonymous_args = 0
 1171              		@ link register save eliminated.
 789:Drivers/STM32H7xx_HAL_Driver/Src/stm32h7xx_hal.c ****   CLEAR_BIT(SYSCFG->CCCSR, SYSCFG_CCCSR_EN);
 1172              		.loc 1 789 3 view .LVU221
 1173 0000 024A     		ldr	r2, .L114
 1174 0002 136A     		ldr	r3, [r2, #32]
 1175 0004 23F00103 		bic	r3, r3, #1
 1176 0008 1362     		str	r3, [r2, #32]
 790:Drivers/STM32H7xx_HAL_Driver/Src/stm32h7xx_hal.c **** }
 1177              		.loc 1 790 1 is_stmt 0 view .LVU222
 1178 000a 7047     		bx	lr
 1179              	.L115:
 1180              		.align	2
 1181              	.L114:
 1182 000c 00040058 		.word	1476396032
 1183              		.cfi_endproc
 1184              	.LFE176:
 1186              		.section	.text.HAL_SYSCFG_EnableIOSpeedOptimize,"ax",%progbits
 1187              		.align	1
ARM GAS  C:\Users\27655\AppData\Local\Temp\ccShhaKP.s 			page 36


 1188              		.global	HAL_SYSCFG_EnableIOSpeedOptimize
 1189              		.syntax unified
 1190              		.thumb
 1191              		.thumb_func
 1193              	HAL_SYSCFG_EnableIOSpeedOptimize:
 1194              	.LFB177:
 791:Drivers/STM32H7xx_HAL_Driver/Src/stm32h7xx_hal.c **** 
 792:Drivers/STM32H7xx_HAL_Driver/Src/stm32h7xx_hal.c **** 
 793:Drivers/STM32H7xx_HAL_Driver/Src/stm32h7xx_hal.c **** /**
 794:Drivers/STM32H7xx_HAL_Driver/Src/stm32h7xx_hal.c ****   * @brief  To Enable optimize the I/O speed when the product voltage is low.
 795:Drivers/STM32H7xx_HAL_Driver/Src/stm32h7xx_hal.c ****   * @note   This bit is active only if PRODUCT_BELOW_25V user option bit is set. It must be
 796:Drivers/STM32H7xx_HAL_Driver/Src/stm32h7xx_hal.c ****   *         used only if the product supply voltage is below 2.5 V. Setting this bit when VDD is
 797:Drivers/STM32H7xx_HAL_Driver/Src/stm32h7xx_hal.c ****   *         higher than 2.5 V might be destructive.
 798:Drivers/STM32H7xx_HAL_Driver/Src/stm32h7xx_hal.c ****   * @retval None
 799:Drivers/STM32H7xx_HAL_Driver/Src/stm32h7xx_hal.c ****   */
 800:Drivers/STM32H7xx_HAL_Driver/Src/stm32h7xx_hal.c **** void HAL_SYSCFG_EnableIOSpeedOptimize(void)
 801:Drivers/STM32H7xx_HAL_Driver/Src/stm32h7xx_hal.c **** {
 1195              		.loc 1 801 1 is_stmt 1 view -0
 1196              		.cfi_startproc
 1197              		@ args = 0, pretend = 0, frame = 0
 1198              		@ frame_needed = 0, uses_anonymous_args = 0
 1199              		@ link register save eliminated.
 802:Drivers/STM32H7xx_HAL_Driver/Src/stm32h7xx_hal.c **** #if defined(SYSCFG_CCCSR_HSLV)
 803:Drivers/STM32H7xx_HAL_Driver/Src/stm32h7xx_hal.c ****   SET_BIT(SYSCFG->CCCSR, SYSCFG_CCCSR_HSLV);
 1200              		.loc 1 803 3 view .LVU224
 1201 0000 024A     		ldr	r2, .L117
 1202 0002 136A     		ldr	r3, [r2, #32]
 1203 0004 43F48033 		orr	r3, r3, #65536
 1204 0008 1362     		str	r3, [r2, #32]
 804:Drivers/STM32H7xx_HAL_Driver/Src/stm32h7xx_hal.c **** #else
 805:Drivers/STM32H7xx_HAL_Driver/Src/stm32h7xx_hal.c ****   SET_BIT(SYSCFG->CCCSR, (SYSCFG_CCCSR_HSLV0| SYSCFG_CCCSR_HSLV1 | SYSCFG_CCCSR_HSLV2  | SYSCFG_CCC
 806:Drivers/STM32H7xx_HAL_Driver/Src/stm32h7xx_hal.c **** #endif   /* SYSCFG_CCCSR_HSLV */
 807:Drivers/STM32H7xx_HAL_Driver/Src/stm32h7xx_hal.c **** }
 1205              		.loc 1 807 1 is_stmt 0 view .LVU225
 1206 000a 7047     		bx	lr
 1207              	.L118:
 1208              		.align	2
 1209              	.L117:
 1210 000c 00040058 		.word	1476396032
 1211              		.cfi_endproc
 1212              	.LFE177:
 1214              		.section	.text.HAL_SYSCFG_DisableIOSpeedOptimize,"ax",%progbits
 1215              		.align	1
 1216              		.global	HAL_SYSCFG_DisableIOSpeedOptimize
 1217              		.syntax unified
 1218              		.thumb
 1219              		.thumb_func
 1221              	HAL_SYSCFG_DisableIOSpeedOptimize:
 1222              	.LFB178:
 808:Drivers/STM32H7xx_HAL_Driver/Src/stm32h7xx_hal.c **** 
 809:Drivers/STM32H7xx_HAL_Driver/Src/stm32h7xx_hal.c **** /**
 810:Drivers/STM32H7xx_HAL_Driver/Src/stm32h7xx_hal.c ****   * @brief  To Disable optimize the I/O speed when the product voltage is low.
 811:Drivers/STM32H7xx_HAL_Driver/Src/stm32h7xx_hal.c ****   * @note   This bit is active only if PRODUCT_BELOW_25V user option bit is set. It must be
 812:Drivers/STM32H7xx_HAL_Driver/Src/stm32h7xx_hal.c ****   *         used only if the product supply voltage is below 2.5 V. Setting this bit when VDD is
 813:Drivers/STM32H7xx_HAL_Driver/Src/stm32h7xx_hal.c ****   *         higher than 2.5 V might be destructive.
 814:Drivers/STM32H7xx_HAL_Driver/Src/stm32h7xx_hal.c ****   * @retval None
 815:Drivers/STM32H7xx_HAL_Driver/Src/stm32h7xx_hal.c ****   */
ARM GAS  C:\Users\27655\AppData\Local\Temp\ccShhaKP.s 			page 37


 816:Drivers/STM32H7xx_HAL_Driver/Src/stm32h7xx_hal.c **** void HAL_SYSCFG_DisableIOSpeedOptimize(void)
 817:Drivers/STM32H7xx_HAL_Driver/Src/stm32h7xx_hal.c **** {
 1223              		.loc 1 817 1 is_stmt 1 view -0
 1224              		.cfi_startproc
 1225              		@ args = 0, pretend = 0, frame = 0
 1226              		@ frame_needed = 0, uses_anonymous_args = 0
 1227              		@ link register save eliminated.
 818:Drivers/STM32H7xx_HAL_Driver/Src/stm32h7xx_hal.c **** #if defined(SYSCFG_CCCSR_HSLV)
 819:Drivers/STM32H7xx_HAL_Driver/Src/stm32h7xx_hal.c ****   CLEAR_BIT(SYSCFG->CCCSR, SYSCFG_CCCSR_HSLV);
 1228              		.loc 1 819 3 view .LVU227
 1229 0000 024A     		ldr	r2, .L120
 1230 0002 136A     		ldr	r3, [r2, #32]
 1231 0004 23F48033 		bic	r3, r3, #65536
 1232 0008 1362     		str	r3, [r2, #32]
 820:Drivers/STM32H7xx_HAL_Driver/Src/stm32h7xx_hal.c **** #else
 821:Drivers/STM32H7xx_HAL_Driver/Src/stm32h7xx_hal.c ****   CLEAR_BIT(SYSCFG->CCCSR, (SYSCFG_CCCSR_HSLV0| SYSCFG_CCCSR_HSLV1 | SYSCFG_CCCSR_HSLV2  | SYSCFG_C
 822:Drivers/STM32H7xx_HAL_Driver/Src/stm32h7xx_hal.c **** #endif   /* SYSCFG_CCCSR_HSLV */
 823:Drivers/STM32H7xx_HAL_Driver/Src/stm32h7xx_hal.c **** }
 1233              		.loc 1 823 1 is_stmt 0 view .LVU228
 1234 000a 7047     		bx	lr
 1235              	.L121:
 1236              		.align	2
 1237              	.L120:
 1238 000c 00040058 		.word	1476396032
 1239              		.cfi_endproc
 1240              	.LFE178:
 1242              		.section	.text.HAL_SYSCFG_CompensationCodeSelect,"ax",%progbits
 1243              		.align	1
 1244              		.global	HAL_SYSCFG_CompensationCodeSelect
 1245              		.syntax unified
 1246              		.thumb
 1247              		.thumb_func
 1249              	HAL_SYSCFG_CompensationCodeSelect:
 1250              	.LVL38:
 1251              	.LFB179:
 824:Drivers/STM32H7xx_HAL_Driver/Src/stm32h7xx_hal.c **** 
 825:Drivers/STM32H7xx_HAL_Driver/Src/stm32h7xx_hal.c **** /**
 826:Drivers/STM32H7xx_HAL_Driver/Src/stm32h7xx_hal.c ****   * @brief  Code selection for the I/O Compensation cell
 827:Drivers/STM32H7xx_HAL_Driver/Src/stm32h7xx_hal.c ****   * @param  SYSCFG_CompCode: Selects the code to be applied for the I/O compensation cell
 828:Drivers/STM32H7xx_HAL_Driver/Src/stm32h7xx_hal.c ****   *   This parameter can be one of the following values:
 829:Drivers/STM32H7xx_HAL_Driver/Src/stm32h7xx_hal.c ****   *   @arg SYSCFG_CELL_CODE : Select Code from the cell (available in the SYSCFG_CCVR)
 830:Drivers/STM32H7xx_HAL_Driver/Src/stm32h7xx_hal.c ****   *   @arg SYSCFG_REGISTER_CODE: Select Code from the SYSCFG compensation cell code register (SYSCF
 831:Drivers/STM32H7xx_HAL_Driver/Src/stm32h7xx_hal.c ****   * @retval None
 832:Drivers/STM32H7xx_HAL_Driver/Src/stm32h7xx_hal.c ****   */
 833:Drivers/STM32H7xx_HAL_Driver/Src/stm32h7xx_hal.c **** void HAL_SYSCFG_CompensationCodeSelect(uint32_t SYSCFG_CompCode)
 834:Drivers/STM32H7xx_HAL_Driver/Src/stm32h7xx_hal.c **** {
 1252              		.loc 1 834 1 is_stmt 1 view -0
 1253              		.cfi_startproc
 1254              		@ args = 0, pretend = 0, frame = 0
 1255              		@ frame_needed = 0, uses_anonymous_args = 0
 1256              		@ link register save eliminated.
 835:Drivers/STM32H7xx_HAL_Driver/Src/stm32h7xx_hal.c ****   /* Check the parameter */
 836:Drivers/STM32H7xx_HAL_Driver/Src/stm32h7xx_hal.c ****   assert_param(IS_SYSCFG_CODE_SELECT(SYSCFG_CompCode));
 1257              		.loc 1 836 3 view .LVU230
 837:Drivers/STM32H7xx_HAL_Driver/Src/stm32h7xx_hal.c ****   MODIFY_REG(SYSCFG->CCCSR, SYSCFG_CCCSR_CS, (uint32_t)(SYSCFG_CompCode));
 1258              		.loc 1 837 3 view .LVU231
 1259 0000 034A     		ldr	r2, .L123
ARM GAS  C:\Users\27655\AppData\Local\Temp\ccShhaKP.s 			page 38


 1260 0002 136A     		ldr	r3, [r2, #32]
 1261 0004 23F00203 		bic	r3, r3, #2
 1262 0008 0343     		orrs	r3, r3, r0
 1263 000a 1362     		str	r3, [r2, #32]
 838:Drivers/STM32H7xx_HAL_Driver/Src/stm32h7xx_hal.c **** }
 1264              		.loc 1 838 1 is_stmt 0 view .LVU232
 1265 000c 7047     		bx	lr
 1266              	.L124:
 1267 000e 00BF     		.align	2
 1268              	.L123:
 1269 0010 00040058 		.word	1476396032
 1270              		.cfi_endproc
 1271              	.LFE179:
 1273              		.section	.text.HAL_SYSCFG_CompensationCodeConfig,"ax",%progbits
 1274              		.align	1
 1275              		.global	HAL_SYSCFG_CompensationCodeConfig
 1276              		.syntax unified
 1277              		.thumb
 1278              		.thumb_func
 1280              	HAL_SYSCFG_CompensationCodeConfig:
 1281              	.LVL39:
 1282              	.LFB180:
 839:Drivers/STM32H7xx_HAL_Driver/Src/stm32h7xx_hal.c **** 
 840:Drivers/STM32H7xx_HAL_Driver/Src/stm32h7xx_hal.c **** /**
 841:Drivers/STM32H7xx_HAL_Driver/Src/stm32h7xx_hal.c ****   * @brief  Code selection for the I/O Compensation cell
 842:Drivers/STM32H7xx_HAL_Driver/Src/stm32h7xx_hal.c ****   * @param  SYSCFG_PMOSCode: PMOS compensation code
 843:Drivers/STM32H7xx_HAL_Driver/Src/stm32h7xx_hal.c ****   *         This code is applied to the I/O compensation cell when the CS bit of the
 844:Drivers/STM32H7xx_HAL_Driver/Src/stm32h7xx_hal.c ****   *          SYSCFG_CMPCR is set
 845:Drivers/STM32H7xx_HAL_Driver/Src/stm32h7xx_hal.c ****   * @param  SYSCFG_NMOSCode: NMOS compensation code
 846:Drivers/STM32H7xx_HAL_Driver/Src/stm32h7xx_hal.c ****   *         This code is applied to the I/O compensation cell when the CS bit of the
 847:Drivers/STM32H7xx_HAL_Driver/Src/stm32h7xx_hal.c ****   *          SYSCFG_CMPCR is set
 848:Drivers/STM32H7xx_HAL_Driver/Src/stm32h7xx_hal.c ****   * @retval None
 849:Drivers/STM32H7xx_HAL_Driver/Src/stm32h7xx_hal.c ****   */
 850:Drivers/STM32H7xx_HAL_Driver/Src/stm32h7xx_hal.c **** void HAL_SYSCFG_CompensationCodeConfig(uint32_t SYSCFG_PMOSCode, uint32_t SYSCFG_NMOSCode )
 851:Drivers/STM32H7xx_HAL_Driver/Src/stm32h7xx_hal.c **** {
 1283              		.loc 1 851 1 is_stmt 1 view -0
 1284              		.cfi_startproc
 1285              		@ args = 0, pretend = 0, frame = 0
 1286              		@ frame_needed = 0, uses_anonymous_args = 0
 1287              		@ link register save eliminated.
 852:Drivers/STM32H7xx_HAL_Driver/Src/stm32h7xx_hal.c ****   /* Check the parameter */
 853:Drivers/STM32H7xx_HAL_Driver/Src/stm32h7xx_hal.c ****   assert_param(IS_SYSCFG_CODE_CONFIG(SYSCFG_PMOSCode));
 1288              		.loc 1 853 3 view .LVU234
 854:Drivers/STM32H7xx_HAL_Driver/Src/stm32h7xx_hal.c ****   assert_param(IS_SYSCFG_CODE_CONFIG(SYSCFG_NMOSCode));
 1289              		.loc 1 854 3 view .LVU235
 855:Drivers/STM32H7xx_HAL_Driver/Src/stm32h7xx_hal.c ****   MODIFY_REG(SYSCFG->CCCR, SYSCFG_CCCR_NCC|SYSCFG_CCCR_PCC, (((uint32_t)(SYSCFG_PMOSCode)<< 4)|(uin
 1290              		.loc 1 855 3 view .LVU236
 1291 0000 044A     		ldr	r2, .L126
 1292 0002 936A     		ldr	r3, [r2, #40]
 1293 0004 23F0FF03 		bic	r3, r3, #255
 1294 0008 41EA0011 		orr	r1, r1, r0, lsl #4
 1295              	.LVL40:
 1296              		.loc 1 855 3 is_stmt 0 view .LVU237
 1297 000c 0B43     		orrs	r3, r3, r1
 1298 000e 9362     		str	r3, [r2, #40]
 856:Drivers/STM32H7xx_HAL_Driver/Src/stm32h7xx_hal.c **** }
 1299              		.loc 1 856 1 view .LVU238
ARM GAS  C:\Users\27655\AppData\Local\Temp\ccShhaKP.s 			page 39


 1300 0010 7047     		bx	lr
 1301              	.L127:
 1302 0012 00BF     		.align	2
 1303              	.L126:
 1304 0014 00040058 		.word	1476396032
 1305              		.cfi_endproc
 1306              	.LFE180:
 1308              		.section	.text.HAL_DBGMCU_EnableDBGSleepMode,"ax",%progbits
 1309              		.align	1
 1310              		.global	HAL_DBGMCU_EnableDBGSleepMode
 1311              		.syntax unified
 1312              		.thumb
 1313              		.thumb_func
 1315              	HAL_DBGMCU_EnableDBGSleepMode:
 1316              	.LFB181:
 857:Drivers/STM32H7xx_HAL_Driver/Src/stm32h7xx_hal.c **** 
 858:Drivers/STM32H7xx_HAL_Driver/Src/stm32h7xx_hal.c **** #if defined(SYSCFG_CCCR_NCC_MMC)
 859:Drivers/STM32H7xx_HAL_Driver/Src/stm32h7xx_hal.c **** /**
 860:Drivers/STM32H7xx_HAL_Driver/Src/stm32h7xx_hal.c ****   * @brief  Code selection for the I/O Compensation cell
 861:Drivers/STM32H7xx_HAL_Driver/Src/stm32h7xx_hal.c ****   * @param  SYSCFG_PMOSCode: VDDMMC PMOS compensation code
 862:Drivers/STM32H7xx_HAL_Driver/Src/stm32h7xx_hal.c ****   *         This code is applied to the I/O compensation cell when the CS bit of the
 863:Drivers/STM32H7xx_HAL_Driver/Src/stm32h7xx_hal.c ****   *          SYSCFG_CMPCR is set
 864:Drivers/STM32H7xx_HAL_Driver/Src/stm32h7xx_hal.c ****   * @param  SYSCFG_NMOSCode: VDDMMC NMOS compensation code
 865:Drivers/STM32H7xx_HAL_Driver/Src/stm32h7xx_hal.c ****   *         This code is applied to the I/O compensation cell when the CS bit of the
 866:Drivers/STM32H7xx_HAL_Driver/Src/stm32h7xx_hal.c ****   *          SYSCFG_CMPCR is set
 867:Drivers/STM32H7xx_HAL_Driver/Src/stm32h7xx_hal.c ****   * @retval None
 868:Drivers/STM32H7xx_HAL_Driver/Src/stm32h7xx_hal.c ****   */
 869:Drivers/STM32H7xx_HAL_Driver/Src/stm32h7xx_hal.c **** void HAL_SYSCFG_VDDMMC_CompensationCodeConfig(uint32_t SYSCFG_PMOSCode, uint32_t SYSCFG_NMOSCode )
 870:Drivers/STM32H7xx_HAL_Driver/Src/stm32h7xx_hal.c **** {
 871:Drivers/STM32H7xx_HAL_Driver/Src/stm32h7xx_hal.c ****   /* Check the parameter */
 872:Drivers/STM32H7xx_HAL_Driver/Src/stm32h7xx_hal.c ****   assert_param(IS_SYSCFG_CODE_CONFIG(SYSCFG_PMOSCode));
 873:Drivers/STM32H7xx_HAL_Driver/Src/stm32h7xx_hal.c ****   assert_param(IS_SYSCFG_CODE_CONFIG(SYSCFG_NMOSCode));
 874:Drivers/STM32H7xx_HAL_Driver/Src/stm32h7xx_hal.c ****   MODIFY_REG(SYSCFG->CCCR, (SYSCFG_CCCR_NCC_MMC | SYSCFG_CCCR_PCC_MMC), (((uint32_t)(SYSCFG_PMOSCod
 875:Drivers/STM32H7xx_HAL_Driver/Src/stm32h7xx_hal.c **** }
 876:Drivers/STM32H7xx_HAL_Driver/Src/stm32h7xx_hal.c **** #endif /* SYSCFG_CCCR_NCC_MMC */
 877:Drivers/STM32H7xx_HAL_Driver/Src/stm32h7xx_hal.c **** 
 878:Drivers/STM32H7xx_HAL_Driver/Src/stm32h7xx_hal.c **** #if defined(SYSCFG_ADC2ALT_ADC2_ROUT0)
 879:Drivers/STM32H7xx_HAL_Driver/Src/stm32h7xx_hal.c **** /** @brief  SYSCFG ADC2 internal input alternate connection macros
 880:Drivers/STM32H7xx_HAL_Driver/Src/stm32h7xx_hal.c ****   * @param Adc2AltRout0 This parameter can be a value of :
 881:Drivers/STM32H7xx_HAL_Driver/Src/stm32h7xx_hal.c ****   *     @arg @ref SYSCFG_ADC2_ROUT0_DAC1_1   DAC1_out1 connected to ADC2 VINP[16]
 882:Drivers/STM32H7xx_HAL_Driver/Src/stm32h7xx_hal.c ****   *     @arg @ref SYSCFG_ADC2_ROUT0_VBAT4    VBAT/4 connected to ADC2 VINP[16]
 883:Drivers/STM32H7xx_HAL_Driver/Src/stm32h7xx_hal.c ****   */
 884:Drivers/STM32H7xx_HAL_Driver/Src/stm32h7xx_hal.c **** void HAL_SYSCFG_ADC2ALT_Rout0Config(uint32_t Adc2AltRout0)
 885:Drivers/STM32H7xx_HAL_Driver/Src/stm32h7xx_hal.c **** {
 886:Drivers/STM32H7xx_HAL_Driver/Src/stm32h7xx_hal.c ****   /* Check the parameters */
 887:Drivers/STM32H7xx_HAL_Driver/Src/stm32h7xx_hal.c ****   assert_param(IS_SYSCFG_ADC2ALT_ROUT0(Adc2AltRout0));
 888:Drivers/STM32H7xx_HAL_Driver/Src/stm32h7xx_hal.c **** 
 889:Drivers/STM32H7xx_HAL_Driver/Src/stm32h7xx_hal.c ****   MODIFY_REG(SYSCFG->ADC2ALT, SYSCFG_ADC2ALT_ADC2_ROUT0, Adc2AltRout0);
 890:Drivers/STM32H7xx_HAL_Driver/Src/stm32h7xx_hal.c **** }
 891:Drivers/STM32H7xx_HAL_Driver/Src/stm32h7xx_hal.c **** #endif /*SYSCFG_ADC2ALT_ADC2_ROUT0*/
 892:Drivers/STM32H7xx_HAL_Driver/Src/stm32h7xx_hal.c **** 
 893:Drivers/STM32H7xx_HAL_Driver/Src/stm32h7xx_hal.c **** #if defined(SYSCFG_ADC2ALT_ADC2_ROUT1)
 894:Drivers/STM32H7xx_HAL_Driver/Src/stm32h7xx_hal.c **** /** @brief  SYSCFG ADC2 internal input alternate connection macros
 895:Drivers/STM32H7xx_HAL_Driver/Src/stm32h7xx_hal.c ****   * @param Adc2AltRout1  This parameter can be a value of :
 896:Drivers/STM32H7xx_HAL_Driver/Src/stm32h7xx_hal.c ****   *     @arg @ref SYSCFG_ADC2_ROUT1_DAC1_2   DAC1_out2 connected to ADC2 VINP[17]
 897:Drivers/STM32H7xx_HAL_Driver/Src/stm32h7xx_hal.c ****   *     @arg @ref SYSCFG_ADC2_ROUT1_VREFINT  VREFINT connected to ADC2 VINP[17]
 898:Drivers/STM32H7xx_HAL_Driver/Src/stm32h7xx_hal.c ****   */
ARM GAS  C:\Users\27655\AppData\Local\Temp\ccShhaKP.s 			page 40


 899:Drivers/STM32H7xx_HAL_Driver/Src/stm32h7xx_hal.c **** void HAL_SYSCFG_ADC2ALT_Rout1Config(uint32_t Adc2AltRout1)
 900:Drivers/STM32H7xx_HAL_Driver/Src/stm32h7xx_hal.c **** {
 901:Drivers/STM32H7xx_HAL_Driver/Src/stm32h7xx_hal.c ****   /* Check the parameters */
 902:Drivers/STM32H7xx_HAL_Driver/Src/stm32h7xx_hal.c ****   assert_param(IS_SYSCFG_ADC2ALT_ROUT1(Adc2AltRout1));
 903:Drivers/STM32H7xx_HAL_Driver/Src/stm32h7xx_hal.c **** 
 904:Drivers/STM32H7xx_HAL_Driver/Src/stm32h7xx_hal.c ****   MODIFY_REG(SYSCFG->ADC2ALT, SYSCFG_ADC2ALT_ADC2_ROUT1, Adc2AltRout1);
 905:Drivers/STM32H7xx_HAL_Driver/Src/stm32h7xx_hal.c **** }
 906:Drivers/STM32H7xx_HAL_Driver/Src/stm32h7xx_hal.c **** #endif /*SYSCFG_ADC2ALT_ADC2_ROUT1*/
 907:Drivers/STM32H7xx_HAL_Driver/Src/stm32h7xx_hal.c **** 
 908:Drivers/STM32H7xx_HAL_Driver/Src/stm32h7xx_hal.c **** /**
 909:Drivers/STM32H7xx_HAL_Driver/Src/stm32h7xx_hal.c ****   * @brief  Enable the Debug Module during Domain1/CDomain SLEEP mode
 910:Drivers/STM32H7xx_HAL_Driver/Src/stm32h7xx_hal.c ****   * @retval None
 911:Drivers/STM32H7xx_HAL_Driver/Src/stm32h7xx_hal.c ****   */
 912:Drivers/STM32H7xx_HAL_Driver/Src/stm32h7xx_hal.c **** void HAL_DBGMCU_EnableDBGSleepMode(void)
 913:Drivers/STM32H7xx_HAL_Driver/Src/stm32h7xx_hal.c **** {
 1317              		.loc 1 913 1 is_stmt 1 view -0
 1318              		.cfi_startproc
 1319              		@ args = 0, pretend = 0, frame = 0
 1320              		@ frame_needed = 0, uses_anonymous_args = 0
 1321              		@ link register save eliminated.
 914:Drivers/STM32H7xx_HAL_Driver/Src/stm32h7xx_hal.c ****   SET_BIT(DBGMCU->CR, DBGMCU_CR_DBG_SLEEPD1);
 1322              		.loc 1 914 3 view .LVU240
 1323 0000 024A     		ldr	r2, .L129
 1324 0002 5368     		ldr	r3, [r2, #4]
 1325 0004 43F00103 		orr	r3, r3, #1
 1326 0008 5360     		str	r3, [r2, #4]
 915:Drivers/STM32H7xx_HAL_Driver/Src/stm32h7xx_hal.c **** }
 1327              		.loc 1 915 1 is_stmt 0 view .LVU241
 1328 000a 7047     		bx	lr
 1329              	.L130:
 1330              		.align	2
 1331              	.L129:
 1332 000c 0010005C 		.word	1543507968
 1333              		.cfi_endproc
 1334              	.LFE181:
 1336              		.section	.text.HAL_DBGMCU_DisableDBGSleepMode,"ax",%progbits
 1337              		.align	1
 1338              		.global	HAL_DBGMCU_DisableDBGSleepMode
 1339              		.syntax unified
 1340              		.thumb
 1341              		.thumb_func
 1343              	HAL_DBGMCU_DisableDBGSleepMode:
 1344              	.LFB182:
 916:Drivers/STM32H7xx_HAL_Driver/Src/stm32h7xx_hal.c **** 
 917:Drivers/STM32H7xx_HAL_Driver/Src/stm32h7xx_hal.c **** /**
 918:Drivers/STM32H7xx_HAL_Driver/Src/stm32h7xx_hal.c ****   * @brief  Disable the Debug Module during Domain1/CDomain SLEEP mode
 919:Drivers/STM32H7xx_HAL_Driver/Src/stm32h7xx_hal.c ****   * @retval None
 920:Drivers/STM32H7xx_HAL_Driver/Src/stm32h7xx_hal.c ****   */
 921:Drivers/STM32H7xx_HAL_Driver/Src/stm32h7xx_hal.c **** void HAL_DBGMCU_DisableDBGSleepMode(void)
 922:Drivers/STM32H7xx_HAL_Driver/Src/stm32h7xx_hal.c **** {
 1345              		.loc 1 922 1 is_stmt 1 view -0
 1346              		.cfi_startproc
 1347              		@ args = 0, pretend = 0, frame = 0
 1348              		@ frame_needed = 0, uses_anonymous_args = 0
 1349              		@ link register save eliminated.
 923:Drivers/STM32H7xx_HAL_Driver/Src/stm32h7xx_hal.c ****   CLEAR_BIT(DBGMCU->CR, DBGMCU_CR_DBG_SLEEPD1);
 1350              		.loc 1 923 3 view .LVU243
ARM GAS  C:\Users\27655\AppData\Local\Temp\ccShhaKP.s 			page 41


 1351 0000 024A     		ldr	r2, .L132
 1352 0002 5368     		ldr	r3, [r2, #4]
 1353 0004 23F00103 		bic	r3, r3, #1
 1354 0008 5360     		str	r3, [r2, #4]
 924:Drivers/STM32H7xx_HAL_Driver/Src/stm32h7xx_hal.c **** }
 1355              		.loc 1 924 1 is_stmt 0 view .LVU244
 1356 000a 7047     		bx	lr
 1357              	.L133:
 1358              		.align	2
 1359              	.L132:
 1360 000c 0010005C 		.word	1543507968
 1361              		.cfi_endproc
 1362              	.LFE182:
 1364              		.section	.text.HAL_DBGMCU_EnableDBGStopMode,"ax",%progbits
 1365              		.align	1
 1366              		.global	HAL_DBGMCU_EnableDBGStopMode
 1367              		.syntax unified
 1368              		.thumb
 1369              		.thumb_func
 1371              	HAL_DBGMCU_EnableDBGStopMode:
 1372              	.LFB183:
 925:Drivers/STM32H7xx_HAL_Driver/Src/stm32h7xx_hal.c **** 
 926:Drivers/STM32H7xx_HAL_Driver/Src/stm32h7xx_hal.c **** 
 927:Drivers/STM32H7xx_HAL_Driver/Src/stm32h7xx_hal.c **** /**
 928:Drivers/STM32H7xx_HAL_Driver/Src/stm32h7xx_hal.c ****   * @brief  Enable the Debug Module during Domain1/CDomain STOP mode
 929:Drivers/STM32H7xx_HAL_Driver/Src/stm32h7xx_hal.c ****   * @retval None
 930:Drivers/STM32H7xx_HAL_Driver/Src/stm32h7xx_hal.c ****   */
 931:Drivers/STM32H7xx_HAL_Driver/Src/stm32h7xx_hal.c **** void HAL_DBGMCU_EnableDBGStopMode(void)
 932:Drivers/STM32H7xx_HAL_Driver/Src/stm32h7xx_hal.c **** {
 1373              		.loc 1 932 1 is_stmt 1 view -0
 1374              		.cfi_startproc
 1375              		@ args = 0, pretend = 0, frame = 0
 1376              		@ frame_needed = 0, uses_anonymous_args = 0
 1377              		@ link register save eliminated.
 933:Drivers/STM32H7xx_HAL_Driver/Src/stm32h7xx_hal.c ****   SET_BIT(DBGMCU->CR, DBGMCU_CR_DBG_STOPD1);
 1378              		.loc 1 933 3 view .LVU246
 1379 0000 024A     		ldr	r2, .L135
 1380 0002 5368     		ldr	r3, [r2, #4]
 1381 0004 43F00203 		orr	r3, r3, #2
 1382 0008 5360     		str	r3, [r2, #4]
 934:Drivers/STM32H7xx_HAL_Driver/Src/stm32h7xx_hal.c **** }
 1383              		.loc 1 934 1 is_stmt 0 view .LVU247
 1384 000a 7047     		bx	lr
 1385              	.L136:
 1386              		.align	2
 1387              	.L135:
 1388 000c 0010005C 		.word	1543507968
 1389              		.cfi_endproc
 1390              	.LFE183:
 1392              		.section	.text.HAL_DBGMCU_DisableDBGStopMode,"ax",%progbits
 1393              		.align	1
 1394              		.global	HAL_DBGMCU_DisableDBGStopMode
 1395              		.syntax unified
 1396              		.thumb
 1397              		.thumb_func
 1399              	HAL_DBGMCU_DisableDBGStopMode:
 1400              	.LFB184:
ARM GAS  C:\Users\27655\AppData\Local\Temp\ccShhaKP.s 			page 42


 935:Drivers/STM32H7xx_HAL_Driver/Src/stm32h7xx_hal.c **** 
 936:Drivers/STM32H7xx_HAL_Driver/Src/stm32h7xx_hal.c **** /**
 937:Drivers/STM32H7xx_HAL_Driver/Src/stm32h7xx_hal.c ****   * @brief  Disable the Debug Module during Domain1/CDomain STOP mode
 938:Drivers/STM32H7xx_HAL_Driver/Src/stm32h7xx_hal.c ****   * @retval None
 939:Drivers/STM32H7xx_HAL_Driver/Src/stm32h7xx_hal.c ****   */
 940:Drivers/STM32H7xx_HAL_Driver/Src/stm32h7xx_hal.c **** void HAL_DBGMCU_DisableDBGStopMode(void)
 941:Drivers/STM32H7xx_HAL_Driver/Src/stm32h7xx_hal.c **** {
 1401              		.loc 1 941 1 is_stmt 1 view -0
 1402              		.cfi_startproc
 1403              		@ args = 0, pretend = 0, frame = 0
 1404              		@ frame_needed = 0, uses_anonymous_args = 0
 1405              		@ link register save eliminated.
 942:Drivers/STM32H7xx_HAL_Driver/Src/stm32h7xx_hal.c ****   CLEAR_BIT(DBGMCU->CR, DBGMCU_CR_DBG_STOPD1);
 1406              		.loc 1 942 3 view .LVU249
 1407 0000 024A     		ldr	r2, .L138
 1408 0002 5368     		ldr	r3, [r2, #4]
 1409 0004 23F00203 		bic	r3, r3, #2
 1410 0008 5360     		str	r3, [r2, #4]
 943:Drivers/STM32H7xx_HAL_Driver/Src/stm32h7xx_hal.c **** }
 1411              		.loc 1 943 1 is_stmt 0 view .LVU250
 1412 000a 7047     		bx	lr
 1413              	.L139:
 1414              		.align	2
 1415              	.L138:
 1416 000c 0010005C 		.word	1543507968
 1417              		.cfi_endproc
 1418              	.LFE184:
 1420              		.section	.text.HAL_DBGMCU_EnableDBGStandbyMode,"ax",%progbits
 1421              		.align	1
 1422              		.global	HAL_DBGMCU_EnableDBGStandbyMode
 1423              		.syntax unified
 1424              		.thumb
 1425              		.thumb_func
 1427              	HAL_DBGMCU_EnableDBGStandbyMode:
 1428              	.LFB185:
 944:Drivers/STM32H7xx_HAL_Driver/Src/stm32h7xx_hal.c **** 
 945:Drivers/STM32H7xx_HAL_Driver/Src/stm32h7xx_hal.c **** /**
 946:Drivers/STM32H7xx_HAL_Driver/Src/stm32h7xx_hal.c ****   * @brief  Enable the Debug Module during Domain1/CDomain STANDBY mode
 947:Drivers/STM32H7xx_HAL_Driver/Src/stm32h7xx_hal.c ****   * @retval None
 948:Drivers/STM32H7xx_HAL_Driver/Src/stm32h7xx_hal.c ****   */
 949:Drivers/STM32H7xx_HAL_Driver/Src/stm32h7xx_hal.c **** void HAL_DBGMCU_EnableDBGStandbyMode(void)
 950:Drivers/STM32H7xx_HAL_Driver/Src/stm32h7xx_hal.c **** {
 1429              		.loc 1 950 1 is_stmt 1 view -0
 1430              		.cfi_startproc
 1431              		@ args = 0, pretend = 0, frame = 0
 1432              		@ frame_needed = 0, uses_anonymous_args = 0
 1433              		@ link register save eliminated.
 951:Drivers/STM32H7xx_HAL_Driver/Src/stm32h7xx_hal.c ****   SET_BIT(DBGMCU->CR, DBGMCU_CR_DBG_STANDBYD1);
 1434              		.loc 1 951 3 view .LVU252
 1435 0000 024A     		ldr	r2, .L141
 1436 0002 5368     		ldr	r3, [r2, #4]
 1437 0004 43F00403 		orr	r3, r3, #4
 1438 0008 5360     		str	r3, [r2, #4]
 952:Drivers/STM32H7xx_HAL_Driver/Src/stm32h7xx_hal.c **** }
 1439              		.loc 1 952 1 is_stmt 0 view .LVU253
 1440 000a 7047     		bx	lr
 1441              	.L142:
ARM GAS  C:\Users\27655\AppData\Local\Temp\ccShhaKP.s 			page 43


 1442              		.align	2
 1443              	.L141:
 1444 000c 0010005C 		.word	1543507968
 1445              		.cfi_endproc
 1446              	.LFE185:
 1448              		.section	.text.HAL_DBGMCU_DisableDBGStandbyMode,"ax",%progbits
 1449              		.align	1
 1450              		.global	HAL_DBGMCU_DisableDBGStandbyMode
 1451              		.syntax unified
 1452              		.thumb
 1453              		.thumb_func
 1455              	HAL_DBGMCU_DisableDBGStandbyMode:
 1456              	.LFB186:
 953:Drivers/STM32H7xx_HAL_Driver/Src/stm32h7xx_hal.c **** 
 954:Drivers/STM32H7xx_HAL_Driver/Src/stm32h7xx_hal.c **** /**
 955:Drivers/STM32H7xx_HAL_Driver/Src/stm32h7xx_hal.c ****   * @brief  Disable the Debug Module during Domain1/CDomain STANDBY mode
 956:Drivers/STM32H7xx_HAL_Driver/Src/stm32h7xx_hal.c ****   * @retval None
 957:Drivers/STM32H7xx_HAL_Driver/Src/stm32h7xx_hal.c ****   */
 958:Drivers/STM32H7xx_HAL_Driver/Src/stm32h7xx_hal.c **** void HAL_DBGMCU_DisableDBGStandbyMode(void)
 959:Drivers/STM32H7xx_HAL_Driver/Src/stm32h7xx_hal.c **** {
 1457              		.loc 1 959 1 is_stmt 1 view -0
 1458              		.cfi_startproc
 1459              		@ args = 0, pretend = 0, frame = 0
 1460              		@ frame_needed = 0, uses_anonymous_args = 0
 1461              		@ link register save eliminated.
 960:Drivers/STM32H7xx_HAL_Driver/Src/stm32h7xx_hal.c ****   CLEAR_BIT(DBGMCU->CR, DBGMCU_CR_DBG_STANDBYD1);
 1462              		.loc 1 960 3 view .LVU255
 1463 0000 024A     		ldr	r2, .L144
 1464 0002 5368     		ldr	r3, [r2, #4]
 1465 0004 23F00403 		bic	r3, r3, #4
 1466 0008 5360     		str	r3, [r2, #4]
 961:Drivers/STM32H7xx_HAL_Driver/Src/stm32h7xx_hal.c **** }
 1467              		.loc 1 961 1 is_stmt 0 view .LVU256
 1468 000a 7047     		bx	lr
 1469              	.L145:
 1470              		.align	2
 1471              	.L144:
 1472 000c 0010005C 		.word	1543507968
 1473              		.cfi_endproc
 1474              	.LFE186:
 1476              		.section	.text.HAL_SetFMCMemorySwappingConfig,"ax",%progbits
 1477              		.align	1
 1478              		.global	HAL_SetFMCMemorySwappingConfig
 1479              		.syntax unified
 1480              		.thumb
 1481              		.thumb_func
 1483              	HAL_SetFMCMemorySwappingConfig:
 1484              	.LVL41:
 1485              	.LFB187:
 962:Drivers/STM32H7xx_HAL_Driver/Src/stm32h7xx_hal.c **** 
 963:Drivers/STM32H7xx_HAL_Driver/Src/stm32h7xx_hal.c **** #if defined(DUAL_CORE)
 964:Drivers/STM32H7xx_HAL_Driver/Src/stm32h7xx_hal.c **** /**
 965:Drivers/STM32H7xx_HAL_Driver/Src/stm32h7xx_hal.c ****   * @brief  Enable the Debug Module during Domain1 SLEEP mode
 966:Drivers/STM32H7xx_HAL_Driver/Src/stm32h7xx_hal.c ****   * @retval None
 967:Drivers/STM32H7xx_HAL_Driver/Src/stm32h7xx_hal.c ****   */
 968:Drivers/STM32H7xx_HAL_Driver/Src/stm32h7xx_hal.c **** void HAL_EnableDomain2DBGSleepMode(void)
 969:Drivers/STM32H7xx_HAL_Driver/Src/stm32h7xx_hal.c **** {
ARM GAS  C:\Users\27655\AppData\Local\Temp\ccShhaKP.s 			page 44


 970:Drivers/STM32H7xx_HAL_Driver/Src/stm32h7xx_hal.c ****   SET_BIT(DBGMCU->CR, DBGMCU_CR_DBG_SLEEPD2);
 971:Drivers/STM32H7xx_HAL_Driver/Src/stm32h7xx_hal.c **** }
 972:Drivers/STM32H7xx_HAL_Driver/Src/stm32h7xx_hal.c **** 
 973:Drivers/STM32H7xx_HAL_Driver/Src/stm32h7xx_hal.c **** /**
 974:Drivers/STM32H7xx_HAL_Driver/Src/stm32h7xx_hal.c ****   * @brief  Disable the Debug Module during Domain2 SLEEP mode
 975:Drivers/STM32H7xx_HAL_Driver/Src/stm32h7xx_hal.c ****   * @retval None
 976:Drivers/STM32H7xx_HAL_Driver/Src/stm32h7xx_hal.c ****   */
 977:Drivers/STM32H7xx_HAL_Driver/Src/stm32h7xx_hal.c **** void HAL_DisableDomain2DBGSleepMode(void)
 978:Drivers/STM32H7xx_HAL_Driver/Src/stm32h7xx_hal.c **** {
 979:Drivers/STM32H7xx_HAL_Driver/Src/stm32h7xx_hal.c ****   CLEAR_BIT(DBGMCU->CR, DBGMCU_CR_DBG_SLEEPD2);
 980:Drivers/STM32H7xx_HAL_Driver/Src/stm32h7xx_hal.c **** }
 981:Drivers/STM32H7xx_HAL_Driver/Src/stm32h7xx_hal.c **** 
 982:Drivers/STM32H7xx_HAL_Driver/Src/stm32h7xx_hal.c **** /**
 983:Drivers/STM32H7xx_HAL_Driver/Src/stm32h7xx_hal.c ****   * @brief  Enable the Debug Module during Domain2 STOP mode
 984:Drivers/STM32H7xx_HAL_Driver/Src/stm32h7xx_hal.c ****   * @retval None
 985:Drivers/STM32H7xx_HAL_Driver/Src/stm32h7xx_hal.c ****   */
 986:Drivers/STM32H7xx_HAL_Driver/Src/stm32h7xx_hal.c **** void HAL_EnableDomain2DBGStopMode(void)
 987:Drivers/STM32H7xx_HAL_Driver/Src/stm32h7xx_hal.c **** {
 988:Drivers/STM32H7xx_HAL_Driver/Src/stm32h7xx_hal.c ****   SET_BIT(DBGMCU->CR, DBGMCU_CR_DBG_STOPD2);
 989:Drivers/STM32H7xx_HAL_Driver/Src/stm32h7xx_hal.c **** }
 990:Drivers/STM32H7xx_HAL_Driver/Src/stm32h7xx_hal.c **** 
 991:Drivers/STM32H7xx_HAL_Driver/Src/stm32h7xx_hal.c **** /**
 992:Drivers/STM32H7xx_HAL_Driver/Src/stm32h7xx_hal.c ****   * @brief  Disable the Debug Module during Domain2 STOP mode
 993:Drivers/STM32H7xx_HAL_Driver/Src/stm32h7xx_hal.c ****   * @retval None
 994:Drivers/STM32H7xx_HAL_Driver/Src/stm32h7xx_hal.c ****   */
 995:Drivers/STM32H7xx_HAL_Driver/Src/stm32h7xx_hal.c **** void HAL_DisableDomain2DBGStopMode(void)
 996:Drivers/STM32H7xx_HAL_Driver/Src/stm32h7xx_hal.c **** {
 997:Drivers/STM32H7xx_HAL_Driver/Src/stm32h7xx_hal.c ****   CLEAR_BIT(DBGMCU->CR, DBGMCU_CR_DBG_STOPD2);
 998:Drivers/STM32H7xx_HAL_Driver/Src/stm32h7xx_hal.c **** }
 999:Drivers/STM32H7xx_HAL_Driver/Src/stm32h7xx_hal.c **** 
1000:Drivers/STM32H7xx_HAL_Driver/Src/stm32h7xx_hal.c **** /**
1001:Drivers/STM32H7xx_HAL_Driver/Src/stm32h7xx_hal.c ****   * @brief  Enable the Debug Module during Domain2 STANDBY mode
1002:Drivers/STM32H7xx_HAL_Driver/Src/stm32h7xx_hal.c ****   * @retval None
1003:Drivers/STM32H7xx_HAL_Driver/Src/stm32h7xx_hal.c ****   */
1004:Drivers/STM32H7xx_HAL_Driver/Src/stm32h7xx_hal.c **** void HAL_EnableDomain2DBGStandbyMode(void)
1005:Drivers/STM32H7xx_HAL_Driver/Src/stm32h7xx_hal.c **** {
1006:Drivers/STM32H7xx_HAL_Driver/Src/stm32h7xx_hal.c ****   SET_BIT(DBGMCU->CR, DBGMCU_CR_DBG_STANDBYD2);
1007:Drivers/STM32H7xx_HAL_Driver/Src/stm32h7xx_hal.c **** }
1008:Drivers/STM32H7xx_HAL_Driver/Src/stm32h7xx_hal.c **** 
1009:Drivers/STM32H7xx_HAL_Driver/Src/stm32h7xx_hal.c **** /**
1010:Drivers/STM32H7xx_HAL_Driver/Src/stm32h7xx_hal.c ****   * @brief  Disable the Debug Module during Domain2 STANDBY mode
1011:Drivers/STM32H7xx_HAL_Driver/Src/stm32h7xx_hal.c ****   * @retval None
1012:Drivers/STM32H7xx_HAL_Driver/Src/stm32h7xx_hal.c ****   */
1013:Drivers/STM32H7xx_HAL_Driver/Src/stm32h7xx_hal.c **** void HAL_DisableDomain2DBGStandbyMode(void)
1014:Drivers/STM32H7xx_HAL_Driver/Src/stm32h7xx_hal.c **** {
1015:Drivers/STM32H7xx_HAL_Driver/Src/stm32h7xx_hal.c ****   CLEAR_BIT(DBGMCU->CR, DBGMCU_CR_DBG_STANDBYD2);
1016:Drivers/STM32H7xx_HAL_Driver/Src/stm32h7xx_hal.c **** }
1017:Drivers/STM32H7xx_HAL_Driver/Src/stm32h7xx_hal.c **** #endif /*DUAL_CORE*/
1018:Drivers/STM32H7xx_HAL_Driver/Src/stm32h7xx_hal.c **** 
1019:Drivers/STM32H7xx_HAL_Driver/Src/stm32h7xx_hal.c **** #if defined(DBGMCU_CR_DBG_STOPD3)
1020:Drivers/STM32H7xx_HAL_Driver/Src/stm32h7xx_hal.c **** /**
1021:Drivers/STM32H7xx_HAL_Driver/Src/stm32h7xx_hal.c ****   * @brief  Enable the Debug Module during Domain3/SRDomain STOP mode
1022:Drivers/STM32H7xx_HAL_Driver/Src/stm32h7xx_hal.c ****   * @retval None
1023:Drivers/STM32H7xx_HAL_Driver/Src/stm32h7xx_hal.c ****   */
1024:Drivers/STM32H7xx_HAL_Driver/Src/stm32h7xx_hal.c **** void HAL_EnableDomain3DBGStopMode(void)
1025:Drivers/STM32H7xx_HAL_Driver/Src/stm32h7xx_hal.c **** {
1026:Drivers/STM32H7xx_HAL_Driver/Src/stm32h7xx_hal.c ****   SET_BIT(DBGMCU->CR, DBGMCU_CR_DBG_STOPD3);
ARM GAS  C:\Users\27655\AppData\Local\Temp\ccShhaKP.s 			page 45


1027:Drivers/STM32H7xx_HAL_Driver/Src/stm32h7xx_hal.c **** }
1028:Drivers/STM32H7xx_HAL_Driver/Src/stm32h7xx_hal.c **** 
1029:Drivers/STM32H7xx_HAL_Driver/Src/stm32h7xx_hal.c **** /**
1030:Drivers/STM32H7xx_HAL_Driver/Src/stm32h7xx_hal.c ****   * @brief  Disable the Debug Module during Domain3/SRDomain STOP mode
1031:Drivers/STM32H7xx_HAL_Driver/Src/stm32h7xx_hal.c ****   * @retval None
1032:Drivers/STM32H7xx_HAL_Driver/Src/stm32h7xx_hal.c ****   */
1033:Drivers/STM32H7xx_HAL_Driver/Src/stm32h7xx_hal.c **** void HAL_DisableDomain3DBGStopMode(void)
1034:Drivers/STM32H7xx_HAL_Driver/Src/stm32h7xx_hal.c **** {
1035:Drivers/STM32H7xx_HAL_Driver/Src/stm32h7xx_hal.c ****   CLEAR_BIT(DBGMCU->CR, DBGMCU_CR_DBG_STOPD3);
1036:Drivers/STM32H7xx_HAL_Driver/Src/stm32h7xx_hal.c **** }
1037:Drivers/STM32H7xx_HAL_Driver/Src/stm32h7xx_hal.c **** #endif /*DBGMCU_CR_DBG_STOPD3*/
1038:Drivers/STM32H7xx_HAL_Driver/Src/stm32h7xx_hal.c **** 
1039:Drivers/STM32H7xx_HAL_Driver/Src/stm32h7xx_hal.c **** #if defined(DBGMCU_CR_DBG_STANDBYD3)
1040:Drivers/STM32H7xx_HAL_Driver/Src/stm32h7xx_hal.c **** /**
1041:Drivers/STM32H7xx_HAL_Driver/Src/stm32h7xx_hal.c ****   * @brief  Enable the Debug Module during Domain3/SRDomain STANDBY mode
1042:Drivers/STM32H7xx_HAL_Driver/Src/stm32h7xx_hal.c ****   * @retval None
1043:Drivers/STM32H7xx_HAL_Driver/Src/stm32h7xx_hal.c ****   */
1044:Drivers/STM32H7xx_HAL_Driver/Src/stm32h7xx_hal.c **** void HAL_EnableDomain3DBGStandbyMode(void)
1045:Drivers/STM32H7xx_HAL_Driver/Src/stm32h7xx_hal.c **** {
1046:Drivers/STM32H7xx_HAL_Driver/Src/stm32h7xx_hal.c ****   SET_BIT(DBGMCU->CR, DBGMCU_CR_DBG_STANDBYD3);
1047:Drivers/STM32H7xx_HAL_Driver/Src/stm32h7xx_hal.c **** }
1048:Drivers/STM32H7xx_HAL_Driver/Src/stm32h7xx_hal.c **** 
1049:Drivers/STM32H7xx_HAL_Driver/Src/stm32h7xx_hal.c **** /**
1050:Drivers/STM32H7xx_HAL_Driver/Src/stm32h7xx_hal.c ****   * @brief  Disable the Debug Module during Domain3/SRDomain STANDBY mode
1051:Drivers/STM32H7xx_HAL_Driver/Src/stm32h7xx_hal.c ****   * @retval None
1052:Drivers/STM32H7xx_HAL_Driver/Src/stm32h7xx_hal.c ****   */
1053:Drivers/STM32H7xx_HAL_Driver/Src/stm32h7xx_hal.c **** void HAL_DisableDomain3DBGStandbyMode(void)
1054:Drivers/STM32H7xx_HAL_Driver/Src/stm32h7xx_hal.c **** {
1055:Drivers/STM32H7xx_HAL_Driver/Src/stm32h7xx_hal.c ****   CLEAR_BIT(DBGMCU->CR, DBGMCU_CR_DBG_STANDBYD3);
1056:Drivers/STM32H7xx_HAL_Driver/Src/stm32h7xx_hal.c **** }
1057:Drivers/STM32H7xx_HAL_Driver/Src/stm32h7xx_hal.c **** #endif /*DBGMCU_CR_DBG_STANDBYD3*/
1058:Drivers/STM32H7xx_HAL_Driver/Src/stm32h7xx_hal.c **** 
1059:Drivers/STM32H7xx_HAL_Driver/Src/stm32h7xx_hal.c **** /**
1060:Drivers/STM32H7xx_HAL_Driver/Src/stm32h7xx_hal.c ****   * @brief  Set the FMC Memory Mapping Swapping config.
1061:Drivers/STM32H7xx_HAL_Driver/Src/stm32h7xx_hal.c ****   * @param  BankMapConfig: Defines the FMC Bank mapping configuration. This parameter can be
1062:Drivers/STM32H7xx_HAL_Driver/Src/stm32h7xx_hal.c ****             FMC_SWAPBMAP_DISABLE, FMC_SWAPBMAP_SDRAM_SRAM, FMC_SWAPBMAP_SDRAMB2
1063:Drivers/STM32H7xx_HAL_Driver/Src/stm32h7xx_hal.c ****   * @retval HAL state
1064:Drivers/STM32H7xx_HAL_Driver/Src/stm32h7xx_hal.c ****   */
1065:Drivers/STM32H7xx_HAL_Driver/Src/stm32h7xx_hal.c **** void HAL_SetFMCMemorySwappingConfig(uint32_t BankMapConfig)
1066:Drivers/STM32H7xx_HAL_Driver/Src/stm32h7xx_hal.c **** {
 1486              		.loc 1 1066 1 is_stmt 1 view -0
 1487              		.cfi_startproc
 1488              		@ args = 0, pretend = 0, frame = 0
 1489              		@ frame_needed = 0, uses_anonymous_args = 0
 1490              		@ link register save eliminated.
1067:Drivers/STM32H7xx_HAL_Driver/Src/stm32h7xx_hal.c ****   /* Check the parameter */
1068:Drivers/STM32H7xx_HAL_Driver/Src/stm32h7xx_hal.c ****   assert_param(IS_FMC_SWAPBMAP_MODE(BankMapConfig));
 1491              		.loc 1 1068 3 view .LVU258
1069:Drivers/STM32H7xx_HAL_Driver/Src/stm32h7xx_hal.c ****   MODIFY_REG(FMC_Bank1_R->BTCR[0], FMC_BCR1_BMAP, BankMapConfig);
 1492              		.loc 1 1069 3 view .LVU259
 1493 0000 034A     		ldr	r2, .L147
 1494 0002 1368     		ldr	r3, [r2]
 1495 0004 23F04073 		bic	r3, r3, #50331648
 1496 0008 0343     		orrs	r3, r3, r0
 1497 000a 1360     		str	r3, [r2]
1070:Drivers/STM32H7xx_HAL_Driver/Src/stm32h7xx_hal.c **** }
 1498              		.loc 1 1070 1 is_stmt 0 view .LVU260
ARM GAS  C:\Users\27655\AppData\Local\Temp\ccShhaKP.s 			page 46


 1499 000c 7047     		bx	lr
 1500              	.L148:
 1501 000e 00BF     		.align	2
 1502              	.L147:
 1503 0010 00400052 		.word	1375748096
 1504              		.cfi_endproc
 1505              	.LFE187:
 1507              		.section	.text.HAL_GetFMCMemorySwappingConfig,"ax",%progbits
 1508              		.align	1
 1509              		.global	HAL_GetFMCMemorySwappingConfig
 1510              		.syntax unified
 1511              		.thumb
 1512              		.thumb_func
 1514              	HAL_GetFMCMemorySwappingConfig:
 1515              	.LFB188:
1071:Drivers/STM32H7xx_HAL_Driver/Src/stm32h7xx_hal.c **** 
1072:Drivers/STM32H7xx_HAL_Driver/Src/stm32h7xx_hal.c **** /**
1073:Drivers/STM32H7xx_HAL_Driver/Src/stm32h7xx_hal.c ****   * @brief  Get FMC Bank mapping mode.
1074:Drivers/STM32H7xx_HAL_Driver/Src/stm32h7xx_hal.c ****   * @retval The FMC Bank mapping mode. This parameter can be
1075:Drivers/STM32H7xx_HAL_Driver/Src/stm32h7xx_hal.c ****             FMC_SWAPBMAP_DISABLE, FMC_SWAPBMAP_SDRAM_SRAM, FMC_SWAPBMAP_SDRAMB2
1076:Drivers/STM32H7xx_HAL_Driver/Src/stm32h7xx_hal.c **** */
1077:Drivers/STM32H7xx_HAL_Driver/Src/stm32h7xx_hal.c **** uint32_t HAL_GetFMCMemorySwappingConfig(void)
1078:Drivers/STM32H7xx_HAL_Driver/Src/stm32h7xx_hal.c **** {
 1516              		.loc 1 1078 1 is_stmt 1 view -0
 1517              		.cfi_startproc
 1518              		@ args = 0, pretend = 0, frame = 0
 1519              		@ frame_needed = 0, uses_anonymous_args = 0
 1520              		@ link register save eliminated.
1079:Drivers/STM32H7xx_HAL_Driver/Src/stm32h7xx_hal.c ****   return READ_BIT(FMC_Bank1_R->BTCR[0], FMC_BCR1_BMAP);
 1521              		.loc 1 1079 3 view .LVU262
 1522              		.loc 1 1079 10 is_stmt 0 view .LVU263
 1523 0000 024B     		ldr	r3, .L150
 1524 0002 1868     		ldr	r0, [r3]
1080:Drivers/STM32H7xx_HAL_Driver/Src/stm32h7xx_hal.c **** }
 1525              		.loc 1 1080 1 view .LVU264
 1526 0004 00F04070 		and	r0, r0, #50331648
 1527 0008 7047     		bx	lr
 1528              	.L151:
 1529 000a 00BF     		.align	2
 1530              	.L150:
 1531 000c 00400052 		.word	1375748096
 1532              		.cfi_endproc
 1533              	.LFE188:
 1535              		.section	.text.HAL_EXTI_EdgeConfig,"ax",%progbits
 1536              		.align	1
 1537              		.global	HAL_EXTI_EdgeConfig
 1538              		.syntax unified
 1539              		.thumb
 1540              		.thumb_func
 1542              	HAL_EXTI_EdgeConfig:
 1543              	.LVL42:
 1544              	.LFB189:
1081:Drivers/STM32H7xx_HAL_Driver/Src/stm32h7xx_hal.c **** 
1082:Drivers/STM32H7xx_HAL_Driver/Src/stm32h7xx_hal.c **** /**
1083:Drivers/STM32H7xx_HAL_Driver/Src/stm32h7xx_hal.c ****   * @brief  Configure the EXTI input event line edge
1084:Drivers/STM32H7xx_HAL_Driver/Src/stm32h7xx_hal.c ****   * @note    No edge configuration for direct lines but for configurable lines:(EXTI_LINE0..EXTI_LI
1085:Drivers/STM32H7xx_HAL_Driver/Src/stm32h7xx_hal.c ****   *          EXTI_LINE49,EXTI_LINE51,EXTI_LINE82,EXTI_LINE84,EXTI_LINE85 and EXTI_LINE86.
ARM GAS  C:\Users\27655\AppData\Local\Temp\ccShhaKP.s 			page 47


1086:Drivers/STM32H7xx_HAL_Driver/Src/stm32h7xx_hal.c ****   * @param   EXTI_Line: Specifies the EXTI LINE, it can be one of the following values,
1087:Drivers/STM32H7xx_HAL_Driver/Src/stm32h7xx_hal.c ****   *         (EXTI_LINE0....EXTI_LINE87)excluding :line45, line81,line83 which are reserved
1088:Drivers/STM32H7xx_HAL_Driver/Src/stm32h7xx_hal.c ****   * @param   EXTI_Edge: Specifies  EXTI line Edge used.
1089:Drivers/STM32H7xx_HAL_Driver/Src/stm32h7xx_hal.c ****   *          This parameter can be one of the following values :
1090:Drivers/STM32H7xx_HAL_Driver/Src/stm32h7xx_hal.c ****   *   @arg EXTI_RISING_EDGE : Configurable line, with Rising edge trigger detection
1091:Drivers/STM32H7xx_HAL_Driver/Src/stm32h7xx_hal.c ****   *   @arg EXTI_FALLING_EDGE: Configurable line, with Falling edge trigger detection
1092:Drivers/STM32H7xx_HAL_Driver/Src/stm32h7xx_hal.c ****   * @retval None
1093:Drivers/STM32H7xx_HAL_Driver/Src/stm32h7xx_hal.c ****   */
1094:Drivers/STM32H7xx_HAL_Driver/Src/stm32h7xx_hal.c **** void HAL_EXTI_EdgeConfig(uint32_t EXTI_Line , uint32_t EXTI_Edge )
1095:Drivers/STM32H7xx_HAL_Driver/Src/stm32h7xx_hal.c **** {
 1545              		.loc 1 1095 1 is_stmt 1 view -0
 1546              		.cfi_startproc
 1547              		@ args = 0, pretend = 0, frame = 0
 1548              		@ frame_needed = 0, uses_anonymous_args = 0
 1549              		.loc 1 1095 1 is_stmt 0 view .LVU266
 1550 0000 10B5     		push	{r4, lr}
 1551              	.LCFI6:
 1552              		.cfi_def_cfa_offset 8
 1553              		.cfi_offset 4, -8
 1554              		.cfi_offset 14, -4
1096:Drivers/STM32H7xx_HAL_Driver/Src/stm32h7xx_hal.c ****   /* Check the parameter */
1097:Drivers/STM32H7xx_HAL_Driver/Src/stm32h7xx_hal.c ****   assert_param(IS_HAL_EXTI_CONFIG_LINE(EXTI_Line));
 1555              		.loc 1 1097 3 is_stmt 1 view .LVU267
1098:Drivers/STM32H7xx_HAL_Driver/Src/stm32h7xx_hal.c ****   assert_param(IS_EXTI_EDGE_LINE(EXTI_Edge));
 1556              		.loc 1 1098 3 view .LVU268
1099:Drivers/STM32H7xx_HAL_Driver/Src/stm32h7xx_hal.c **** 
1100:Drivers/STM32H7xx_HAL_Driver/Src/stm32h7xx_hal.c ****   /* Clear Rising Falling edge configuration */
1101:Drivers/STM32H7xx_HAL_Driver/Src/stm32h7xx_hal.c ****   CLEAR_BIT(*(__IO uint32_t *) (((uint32_t) &(EXTI->FTSR1)) + ((EXTI_Line >> 5 ) * 0x20UL)), (uint3
 1557              		.loc 1 1101 3 view .LVU269
 1558 0002 4309     		lsrs	r3, r0, #5
 1559 0004 20F01F0E 		bic	lr, r0, #31
 1560 0008 DFF840C0 		ldr	ip, .L156
 1561 000c 5EF80C40 		ldr	r4, [lr, ip]
 1562 0010 00F01F00 		and	r0, r0, #31
 1563              	.LVL43:
 1564              		.loc 1 1101 3 is_stmt 0 view .LVU270
 1565 0014 0122     		movs	r2, #1
 1566 0016 8240     		lsls	r2, r2, r0
 1567 0018 24EA0204 		bic	r4, r4, r2
 1568 001c 4EF80C40 		str	r4, [lr, ip]
1102:Drivers/STM32H7xx_HAL_Driver/Src/stm32h7xx_hal.c ****   CLEAR_BIT( *(__IO uint32_t *) (((uint32_t) &(EXTI->RTSR1)) + ((EXTI_Line >> 5 ) * 0x20UL)), (uint
 1569              		.loc 1 1102 3 is_stmt 1 view .LVU271
 1570 0020 03F13073 		add	r3, r3, #46137344
 1571 0024 5B01     		lsls	r3, r3, #5
 1572 0026 1868     		ldr	r0, [r3]
 1573 0028 20EA0200 		bic	r0, r0, r2
 1574 002c 1860     		str	r0, [r3]
1103:Drivers/STM32H7xx_HAL_Driver/Src/stm32h7xx_hal.c **** 
1104:Drivers/STM32H7xx_HAL_Driver/Src/stm32h7xx_hal.c ****   if( (EXTI_Edge & EXTI_RISING_EDGE) == EXTI_RISING_EDGE)
 1575              		.loc 1 1104 3 view .LVU272
 1576              		.loc 1 1104 5 is_stmt 0 view .LVU273
 1577 002e 11F4801F 		tst	r1, #1048576
 1578 0032 02D0     		beq	.L153
1105:Drivers/STM32H7xx_HAL_Driver/Src/stm32h7xx_hal.c ****   {
1106:Drivers/STM32H7xx_HAL_Driver/Src/stm32h7xx_hal.c ****    SET_BIT( *(__IO uint32_t *) (((uint32_t) &(EXTI->RTSR1)) + ((EXTI_Line >> 5 ) * 0x20UL)), (uint3
 1579              		.loc 1 1106 4 is_stmt 1 view .LVU274
 1580 0034 1868     		ldr	r0, [r3]
ARM GAS  C:\Users\27655\AppData\Local\Temp\ccShhaKP.s 			page 48


 1581 0036 1043     		orrs	r0, r0, r2
 1582 0038 1860     		str	r0, [r3]
 1583              	.L153:
1107:Drivers/STM32H7xx_HAL_Driver/Src/stm32h7xx_hal.c ****   }
1108:Drivers/STM32H7xx_HAL_Driver/Src/stm32h7xx_hal.c ****   if( (EXTI_Edge & EXTI_FALLING_EDGE) == EXTI_FALLING_EDGE)
 1584              		.loc 1 1108 3 view .LVU275
 1585              		.loc 1 1108 5 is_stmt 0 view .LVU276
 1586 003a 11F4001F 		tst	r1, #2097152
 1587 003e 04D0     		beq	.L152
1109:Drivers/STM32H7xx_HAL_Driver/Src/stm32h7xx_hal.c ****   {
1110:Drivers/STM32H7xx_HAL_Driver/Src/stm32h7xx_hal.c ****    SET_BIT(*(__IO uint32_t *) (((uint32_t) &(EXTI->FTSR1)) + ((EXTI_Line >> 5 ) * 0x20UL)), (uint32
 1588              		.loc 1 1110 4 is_stmt 1 view .LVU277
 1589 0040 5EF80C30 		ldr	r3, [lr, ip]
 1590 0044 1A43     		orrs	r2, r2, r3
 1591 0046 4EF80C20 		str	r2, [lr, ip]
 1592              	.L152:
1111:Drivers/STM32H7xx_HAL_Driver/Src/stm32h7xx_hal.c ****   }
1112:Drivers/STM32H7xx_HAL_Driver/Src/stm32h7xx_hal.c **** }
 1593              		.loc 1 1112 1 is_stmt 0 view .LVU278
 1594 004a 10BD     		pop	{r4, pc}
 1595              	.L157:
 1596              		.align	2
 1597              	.L156:
 1598 004c 04000058 		.word	1476395012
 1599              		.cfi_endproc
 1600              	.LFE189:
 1602              		.section	.text.HAL_EXTI_GenerateSWInterrupt,"ax",%progbits
 1603              		.align	1
 1604              		.global	HAL_EXTI_GenerateSWInterrupt
 1605              		.syntax unified
 1606              		.thumb
 1607              		.thumb_func
 1609              	HAL_EXTI_GenerateSWInterrupt:
 1610              	.LVL44:
 1611              	.LFB190:
1113:Drivers/STM32H7xx_HAL_Driver/Src/stm32h7xx_hal.c **** 
1114:Drivers/STM32H7xx_HAL_Driver/Src/stm32h7xx_hal.c **** /**
1115:Drivers/STM32H7xx_HAL_Driver/Src/stm32h7xx_hal.c ****   * @brief  Generates a Software interrupt on selected EXTI line.
1116:Drivers/STM32H7xx_HAL_Driver/Src/stm32h7xx_hal.c ****   * @param   EXTI_Line: Specifies the EXTI LINE, it can be one of the following values,
1117:Drivers/STM32H7xx_HAL_Driver/Src/stm32h7xx_hal.c ****   *          (EXTI_LINE0..EXTI_LINE21),EXTI_LINE49,EXTI_LINE51,EXTI_LINE82,EXTI_LINE84,EXTI_LINE85 
1118:Drivers/STM32H7xx_HAL_Driver/Src/stm32h7xx_hal.c ****   * @retval None
1119:Drivers/STM32H7xx_HAL_Driver/Src/stm32h7xx_hal.c ****   */
1120:Drivers/STM32H7xx_HAL_Driver/Src/stm32h7xx_hal.c **** void HAL_EXTI_GenerateSWInterrupt(uint32_t EXTI_Line)
1121:Drivers/STM32H7xx_HAL_Driver/Src/stm32h7xx_hal.c **** {
 1612              		.loc 1 1121 1 is_stmt 1 view -0
 1613              		.cfi_startproc
 1614              		@ args = 0, pretend = 0, frame = 0
 1615              		@ frame_needed = 0, uses_anonymous_args = 0
 1616              		@ link register save eliminated.
1122:Drivers/STM32H7xx_HAL_Driver/Src/stm32h7xx_hal.c ****   /* Check the parameters */
1123:Drivers/STM32H7xx_HAL_Driver/Src/stm32h7xx_hal.c ****   assert_param(IS_HAL_EXTI_CONFIG_LINE(EXTI_Line));
 1617              		.loc 1 1123 3 view .LVU280
1124:Drivers/STM32H7xx_HAL_Driver/Src/stm32h7xx_hal.c **** 
1125:Drivers/STM32H7xx_HAL_Driver/Src/stm32h7xx_hal.c ****   SET_BIT(*(__IO uint32_t *) (((uint32_t) &(EXTI->SWIER1)) + ((EXTI_Line >> 5 ) * 0x20UL)), (uint32
 1618              		.loc 1 1125 3 view .LVU281
 1619 0000 20F01F0C 		bic	ip, r0, #31
 1620 0004 0549     		ldr	r1, .L159
ARM GAS  C:\Users\27655\AppData\Local\Temp\ccShhaKP.s 			page 49


 1621 0006 5CF80130 		ldr	r3, [ip, r1]
 1622 000a 00F01F00 		and	r0, r0, #31
 1623              	.LVL45:
 1624              		.loc 1 1125 3 is_stmt 0 view .LVU282
 1625 000e 0122     		movs	r2, #1
 1626 0010 8240     		lsls	r2, r2, r0
 1627 0012 1343     		orrs	r3, r3, r2
 1628 0014 4CF80130 		str	r3, [ip, r1]
1126:Drivers/STM32H7xx_HAL_Driver/Src/stm32h7xx_hal.c **** }
 1629              		.loc 1 1126 1 view .LVU283
 1630 0018 7047     		bx	lr
 1631              	.L160:
 1632 001a 00BF     		.align	2
 1633              	.L159:
 1634 001c 08000058 		.word	1476395016
 1635              		.cfi_endproc
 1636              	.LFE190:
 1638              		.section	.text.HAL_EXTI_D1_ClearFlag,"ax",%progbits
 1639              		.align	1
 1640              		.global	HAL_EXTI_D1_ClearFlag
 1641              		.syntax unified
 1642              		.thumb
 1643              		.thumb_func
 1645              	HAL_EXTI_D1_ClearFlag:
 1646              	.LVL46:
 1647              	.LFB191:
1127:Drivers/STM32H7xx_HAL_Driver/Src/stm32h7xx_hal.c **** 
1128:Drivers/STM32H7xx_HAL_Driver/Src/stm32h7xx_hal.c **** 
1129:Drivers/STM32H7xx_HAL_Driver/Src/stm32h7xx_hal.c **** /**
1130:Drivers/STM32H7xx_HAL_Driver/Src/stm32h7xx_hal.c ****   * @brief  Clears the EXTI's line pending flags for Domain D1
1131:Drivers/STM32H7xx_HAL_Driver/Src/stm32h7xx_hal.c ****   * @param   EXTI_Line: Specifies the EXTI LINE, it can be one of the following values,
1132:Drivers/STM32H7xx_HAL_Driver/Src/stm32h7xx_hal.c ****   *         (EXTI_LINE0....EXTI_LINE87)excluding :line45, line81,line83 which are reserved
1133:Drivers/STM32H7xx_HAL_Driver/Src/stm32h7xx_hal.c ****   * @retval None
1134:Drivers/STM32H7xx_HAL_Driver/Src/stm32h7xx_hal.c ****   */
1135:Drivers/STM32H7xx_HAL_Driver/Src/stm32h7xx_hal.c **** void HAL_EXTI_D1_ClearFlag(uint32_t EXTI_Line)
1136:Drivers/STM32H7xx_HAL_Driver/Src/stm32h7xx_hal.c **** {
 1648              		.loc 1 1136 1 is_stmt 1 view -0
 1649              		.cfi_startproc
 1650              		@ args = 0, pretend = 0, frame = 0
 1651              		@ frame_needed = 0, uses_anonymous_args = 0
 1652              		@ link register save eliminated.
1137:Drivers/STM32H7xx_HAL_Driver/Src/stm32h7xx_hal.c ****   /* Check the parameters */
1138:Drivers/STM32H7xx_HAL_Driver/Src/stm32h7xx_hal.c ****  assert_param(IS_EXTI_D1_LINE(EXTI_Line));
 1653              		.loc 1 1138 2 view .LVU285
1139:Drivers/STM32H7xx_HAL_Driver/Src/stm32h7xx_hal.c ****  WRITE_REG(*(__IO uint32_t *) (((uint32_t) &(EXTI_D1->PR1)) + ((EXTI_Line >> 5 ) * 0x10UL)), (uint3
 1654              		.loc 1 1139 2 view .LVU286
 1655 0000 00F01F02 		and	r2, r0, #31
 1656 0004 4009     		lsrs	r0, r0, #5
 1657              	.LVL47:
 1658              		.loc 1 1139 2 is_stmt 0 view .LVU287
 1659 0006 0001     		lsls	r0, r0, #4
 1660 0008 0123     		movs	r3, #1
 1661 000a 9340     		lsls	r3, r3, r2
 1662 000c 014A     		ldr	r2, .L162
 1663 000e 8350     		str	r3, [r0, r2]
1140:Drivers/STM32H7xx_HAL_Driver/Src/stm32h7xx_hal.c **** 
1141:Drivers/STM32H7xx_HAL_Driver/Src/stm32h7xx_hal.c **** }
ARM GAS  C:\Users\27655\AppData\Local\Temp\ccShhaKP.s 			page 50


 1664              		.loc 1 1141 1 view .LVU288
 1665 0010 7047     		bx	lr
 1666              	.L163:
 1667 0012 00BF     		.align	2
 1668              	.L162:
 1669 0014 88000058 		.word	1476395144
 1670              		.cfi_endproc
 1671              	.LFE191:
 1673              		.section	.text.HAL_EXTI_D1_EventInputConfig,"ax",%progbits
 1674              		.align	1
 1675              		.global	HAL_EXTI_D1_EventInputConfig
 1676              		.syntax unified
 1677              		.thumb
 1678              		.thumb_func
 1680              	HAL_EXTI_D1_EventInputConfig:
 1681              	.LVL48:
 1682              	.LFB192:
1142:Drivers/STM32H7xx_HAL_Driver/Src/stm32h7xx_hal.c **** 
1143:Drivers/STM32H7xx_HAL_Driver/Src/stm32h7xx_hal.c **** #if defined(DUAL_CORE)
1144:Drivers/STM32H7xx_HAL_Driver/Src/stm32h7xx_hal.c **** /**
1145:Drivers/STM32H7xx_HAL_Driver/Src/stm32h7xx_hal.c ****   * @brief  Clears the EXTI's line pending flags for Domain D2
1146:Drivers/STM32H7xx_HAL_Driver/Src/stm32h7xx_hal.c ****   * @param   EXTI_Line: Specifies the EXTI LINE, it can be one of the following values,
1147:Drivers/STM32H7xx_HAL_Driver/Src/stm32h7xx_hal.c ****   *         (EXTI_LINE0....EXTI_LINE87)excluding :line45, line81,line83 which are reserved
1148:Drivers/STM32H7xx_HAL_Driver/Src/stm32h7xx_hal.c ****   * @retval None
1149:Drivers/STM32H7xx_HAL_Driver/Src/stm32h7xx_hal.c ****   */
1150:Drivers/STM32H7xx_HAL_Driver/Src/stm32h7xx_hal.c **** void HAL_EXTI_D2_ClearFlag(uint32_t EXTI_Line)
1151:Drivers/STM32H7xx_HAL_Driver/Src/stm32h7xx_hal.c **** {
1152:Drivers/STM32H7xx_HAL_Driver/Src/stm32h7xx_hal.c ****   /* Check the parameters */
1153:Drivers/STM32H7xx_HAL_Driver/Src/stm32h7xx_hal.c ****  assert_param(IS_EXTI_D2_LINE(EXTI_Line));
1154:Drivers/STM32H7xx_HAL_Driver/Src/stm32h7xx_hal.c ****  WRITE_REG(*(__IO uint32_t *) (((uint32_t) &(EXTI_D2->PR1)) + ((EXTI_Line >> 5 ) * 0x10UL)), (uint3
1155:Drivers/STM32H7xx_HAL_Driver/Src/stm32h7xx_hal.c **** }
1156:Drivers/STM32H7xx_HAL_Driver/Src/stm32h7xx_hal.c **** 
1157:Drivers/STM32H7xx_HAL_Driver/Src/stm32h7xx_hal.c **** #endif /*DUAL_CORE*/
1158:Drivers/STM32H7xx_HAL_Driver/Src/stm32h7xx_hal.c **** /**
1159:Drivers/STM32H7xx_HAL_Driver/Src/stm32h7xx_hal.c ****   * @brief  Configure the EXTI input event line for Domain D1
1160:Drivers/STM32H7xx_HAL_Driver/Src/stm32h7xx_hal.c ****   * @param   EXTI_Line: Specifies the EXTI LINE, it can be one of the following values,
1161:Drivers/STM32H7xx_HAL_Driver/Src/stm32h7xx_hal.c ****   *         (EXTI_LINE0....EXTI_LINE87)excluding :line45, line81,line83 which are reserved
1162:Drivers/STM32H7xx_HAL_Driver/Src/stm32h7xx_hal.c ****   * @param   EXTI_Mode: Specifies which EXTI line is used as interrupt or an event.
1163:Drivers/STM32H7xx_HAL_Driver/Src/stm32h7xx_hal.c ****   *          This parameter can be one or a combination of the following values :
1164:Drivers/STM32H7xx_HAL_Driver/Src/stm32h7xx_hal.c ****   *   @arg EXTI_MODE_IT :  Interrupt Mode selected
1165:Drivers/STM32H7xx_HAL_Driver/Src/stm32h7xx_hal.c ****   *   @arg EXTI_MODE_EVT : Event Mode selected
1166:Drivers/STM32H7xx_HAL_Driver/Src/stm32h7xx_hal.c ****   * @param   EXTI_LineCmd controls (Enable/Disable) the EXTI line.
1167:Drivers/STM32H7xx_HAL_Driver/Src/stm32h7xx_hal.c **** 
1168:Drivers/STM32H7xx_HAL_Driver/Src/stm32h7xx_hal.c ****   * @retval None
1169:Drivers/STM32H7xx_HAL_Driver/Src/stm32h7xx_hal.c ****   */
1170:Drivers/STM32H7xx_HAL_Driver/Src/stm32h7xx_hal.c **** void HAL_EXTI_D1_EventInputConfig(uint32_t EXTI_Line , uint32_t EXTI_Mode,  uint32_t EXTI_LineCmd )
1171:Drivers/STM32H7xx_HAL_Driver/Src/stm32h7xx_hal.c **** {
 1683              		.loc 1 1171 1 is_stmt 1 view -0
 1684              		.cfi_startproc
 1685              		@ args = 0, pretend = 0, frame = 0
 1686              		@ frame_needed = 0, uses_anonymous_args = 0
 1687              		.loc 1 1171 1 is_stmt 0 view .LVU290
 1688 0000 10B5     		push	{r4, lr}
 1689              	.LCFI7:
 1690              		.cfi_def_cfa_offset 8
 1691              		.cfi_offset 4, -8
 1692              		.cfi_offset 14, -4
ARM GAS  C:\Users\27655\AppData\Local\Temp\ccShhaKP.s 			page 51


1172:Drivers/STM32H7xx_HAL_Driver/Src/stm32h7xx_hal.c ****   /* Check the parameter */
1173:Drivers/STM32H7xx_HAL_Driver/Src/stm32h7xx_hal.c ****   assert_param(IS_EXTI_D1_LINE(EXTI_Line));
 1693              		.loc 1 1173 3 is_stmt 1 view .LVU291
1174:Drivers/STM32H7xx_HAL_Driver/Src/stm32h7xx_hal.c ****   assert_param(IS_EXTI_MODE_LINE(EXTI_Mode));
 1694              		.loc 1 1174 3 view .LVU292
1175:Drivers/STM32H7xx_HAL_Driver/Src/stm32h7xx_hal.c **** 
1176:Drivers/STM32H7xx_HAL_Driver/Src/stm32h7xx_hal.c ****   if( (EXTI_Mode & EXTI_MODE_IT) == EXTI_MODE_IT)
 1695              		.loc 1 1176 3 view .LVU293
 1696              		.loc 1 1176 5 is_stmt 0 view .LVU294
 1697 0002 11F4803F 		tst	r1, #65536
 1698 0006 0FD0     		beq	.L165
1177:Drivers/STM32H7xx_HAL_Driver/Src/stm32h7xx_hal.c ****   {
1178:Drivers/STM32H7xx_HAL_Driver/Src/stm32h7xx_hal.c ****      if( EXTI_LineCmd == 0UL)
 1699              		.loc 1 1178 6 is_stmt 1 view .LVU295
 1700              		.loc 1 1178 8 is_stmt 0 view .LVU296
 1701 0008 0ABB     		cbnz	r2, .L166
1179:Drivers/STM32H7xx_HAL_Driver/Src/stm32h7xx_hal.c ****      {
1180:Drivers/STM32H7xx_HAL_Driver/Src/stm32h7xx_hal.c ****        /* Clear EXTI line configuration */
1181:Drivers/STM32H7xx_HAL_Driver/Src/stm32h7xx_hal.c ****         CLEAR_BIT(*(__IO uint32_t *) (((uint32_t) &(EXTI_D1->IMR1)) + ((EXTI_Line >> 5 ) * 0x10UL))
 1702              		.loc 1 1181 9 is_stmt 1 view .LVU297
 1703 000a 204B     		ldr	r3, .L170
 1704 000c 03EB5013 		add	r3, r3, r0, lsr #5
 1705 0010 1B01     		lsls	r3, r3, #4
 1706 0012 D3F800C0 		ldr	ip, [r3]
 1707 0016 00F01F0E 		and	lr, r0, #31
 1708 001a 0124     		movs	r4, #1
 1709 001c 04FA0EFE 		lsl	lr, r4, lr
 1710 0020 2CEA0E0C 		bic	ip, ip, lr
 1711 0024 C3F800C0 		str	ip, [r3]
 1712              	.L165:
1182:Drivers/STM32H7xx_HAL_Driver/Src/stm32h7xx_hal.c ****      }
1183:Drivers/STM32H7xx_HAL_Driver/Src/stm32h7xx_hal.c ****      else
1184:Drivers/STM32H7xx_HAL_Driver/Src/stm32h7xx_hal.c ****      {
1185:Drivers/STM32H7xx_HAL_Driver/Src/stm32h7xx_hal.c ****         SET_BIT(*(__IO uint32_t *) (((uint32_t) &(EXTI_D1->IMR1)) + ((EXTI_Line >> 5 ) * 0x10UL)), 
1186:Drivers/STM32H7xx_HAL_Driver/Src/stm32h7xx_hal.c ****      }
1187:Drivers/STM32H7xx_HAL_Driver/Src/stm32h7xx_hal.c ****   }
1188:Drivers/STM32H7xx_HAL_Driver/Src/stm32h7xx_hal.c **** 
1189:Drivers/STM32H7xx_HAL_Driver/Src/stm32h7xx_hal.c ****   if( (EXTI_Mode & EXTI_MODE_EVT) == EXTI_MODE_EVT)
 1713              		.loc 1 1189 3 view .LVU298
 1714              		.loc 1 1189 5 is_stmt 0 view .LVU299
 1715 0028 11F4003F 		tst	r1, #131072
 1716 002c 0ED0     		beq	.L164
1190:Drivers/STM32H7xx_HAL_Driver/Src/stm32h7xx_hal.c ****   {
1191:Drivers/STM32H7xx_HAL_Driver/Src/stm32h7xx_hal.c ****     if( EXTI_LineCmd == 0UL)
 1717              		.loc 1 1191 5 is_stmt 1 view .LVU300
 1718              		.loc 1 1191 7 is_stmt 0 view .LVU301
 1719 002e F2B9     		cbnz	r2, .L168
1192:Drivers/STM32H7xx_HAL_Driver/Src/stm32h7xx_hal.c ****     {
1193:Drivers/STM32H7xx_HAL_Driver/Src/stm32h7xx_hal.c ****       /* Clear EXTI line configuration */
1194:Drivers/STM32H7xx_HAL_Driver/Src/stm32h7xx_hal.c ****       CLEAR_BIT(  *(__IO uint32_t *) (((uint32_t) &(EXTI_D1->EMR1)) + ((EXTI_Line >> 5 ) * 0x10UL))
 1720              		.loc 1 1194 7 is_stmt 1 view .LVU302
 1721 0030 4309     		lsrs	r3, r0, #5
 1722 0032 1B01     		lsls	r3, r3, #4
 1723 0034 DFF858C0 		ldr	ip, .L170+4
 1724 0038 53F80C20 		ldr	r2, [r3, ip]
 1725              	.LVL49:
 1726              		.loc 1 1194 7 is_stmt 0 view .LVU303
ARM GAS  C:\Users\27655\AppData\Local\Temp\ccShhaKP.s 			page 52


 1727 003c 00F01F00 		and	r0, r0, #31
 1728              	.LVL50:
 1729              		.loc 1 1194 7 view .LVU304
 1730 0040 0121     		movs	r1, #1
 1731              	.LVL51:
 1732              		.loc 1 1194 7 view .LVU305
 1733 0042 8140     		lsls	r1, r1, r0
 1734 0044 22EA0102 		bic	r2, r2, r1
 1735 0048 43F80C20 		str	r2, [r3, ip]
 1736              	.L164:
1195:Drivers/STM32H7xx_HAL_Driver/Src/stm32h7xx_hal.c ****     }
1196:Drivers/STM32H7xx_HAL_Driver/Src/stm32h7xx_hal.c ****     else
1197:Drivers/STM32H7xx_HAL_Driver/Src/stm32h7xx_hal.c ****     {
1198:Drivers/STM32H7xx_HAL_Driver/Src/stm32h7xx_hal.c ****       SET_BIT(  *(__IO uint32_t *) (((uint32_t) &(EXTI_D1->EMR1)) + ((EXTI_Line >> 5 ) * 0x10UL)), 
1199:Drivers/STM32H7xx_HAL_Driver/Src/stm32h7xx_hal.c ****     }
1200:Drivers/STM32H7xx_HAL_Driver/Src/stm32h7xx_hal.c ****   }
1201:Drivers/STM32H7xx_HAL_Driver/Src/stm32h7xx_hal.c **** }
 1737              		.loc 1 1201 1 view .LVU306
 1738 004c 10BD     		pop	{r4, pc}
 1739              	.LVL52:
 1740              	.L166:
1185:Drivers/STM32H7xx_HAL_Driver/Src/stm32h7xx_hal.c ****      }
 1741              		.loc 1 1185 9 is_stmt 1 view .LVU307
 1742 004e 0F4B     		ldr	r3, .L170
 1743 0050 03EB5013 		add	r3, r3, r0, lsr #5
 1744 0054 1B01     		lsls	r3, r3, #4
 1745 0056 D3F800C0 		ldr	ip, [r3]
 1746 005a 00F01F0E 		and	lr, r0, #31
 1747 005e 0124     		movs	r4, #1
 1748 0060 04FA0EFE 		lsl	lr, r4, lr
 1749 0064 4CEA0E0C 		orr	ip, ip, lr
 1750 0068 C3F800C0 		str	ip, [r3]
 1751 006c DCE7     		b	.L165
 1752              	.L168:
1198:Drivers/STM32H7xx_HAL_Driver/Src/stm32h7xx_hal.c ****     }
 1753              		.loc 1 1198 7 view .LVU308
 1754 006e 4309     		lsrs	r3, r0, #5
 1755 0070 1B01     		lsls	r3, r3, #4
 1756 0072 DFF81CC0 		ldr	ip, .L170+4
 1757 0076 53F80C20 		ldr	r2, [r3, ip]
 1758              	.LVL53:
1198:Drivers/STM32H7xx_HAL_Driver/Src/stm32h7xx_hal.c ****     }
 1759              		.loc 1 1198 7 is_stmt 0 view .LVU309
 1760 007a 00F01F00 		and	r0, r0, #31
 1761              	.LVL54:
1198:Drivers/STM32H7xx_HAL_Driver/Src/stm32h7xx_hal.c ****     }
 1762              		.loc 1 1198 7 view .LVU310
 1763 007e 0121     		movs	r1, #1
 1764              	.LVL55:
1198:Drivers/STM32H7xx_HAL_Driver/Src/stm32h7xx_hal.c ****     }
 1765              		.loc 1 1198 7 view .LVU311
 1766 0080 8140     		lsls	r1, r1, r0
 1767 0082 0A43     		orrs	r2, r2, r1
 1768 0084 43F80C20 		str	r2, [r3, ip]
 1769              		.loc 1 1201 1 view .LVU312
 1770 0088 E0E7     		b	.L164
 1771              	.L171:
ARM GAS  C:\Users\27655\AppData\Local\Temp\ccShhaKP.s 			page 53


 1772 008a 00BF     		.align	2
 1773              	.L170:
 1774 008c 08008005 		.word	92274696
 1775 0090 84000058 		.word	1476395140
 1776              		.cfi_endproc
 1777              	.LFE192:
 1779              		.section	.text.HAL_EXTI_D3_EventInputConfig,"ax",%progbits
 1780              		.align	1
 1781              		.global	HAL_EXTI_D3_EventInputConfig
 1782              		.syntax unified
 1783              		.thumb
 1784              		.thumb_func
 1786              	HAL_EXTI_D3_EventInputConfig:
 1787              	.LVL56:
 1788              	.LFB193:
1202:Drivers/STM32H7xx_HAL_Driver/Src/stm32h7xx_hal.c **** 
1203:Drivers/STM32H7xx_HAL_Driver/Src/stm32h7xx_hal.c **** #if defined(DUAL_CORE)
1204:Drivers/STM32H7xx_HAL_Driver/Src/stm32h7xx_hal.c **** /**
1205:Drivers/STM32H7xx_HAL_Driver/Src/stm32h7xx_hal.c ****   * @brief  Configure the EXTI input event line for Domain D2
1206:Drivers/STM32H7xx_HAL_Driver/Src/stm32h7xx_hal.c ****   * @param   EXTI_Line: Specifies the EXTI LINE, it can be one of the following values,
1207:Drivers/STM32H7xx_HAL_Driver/Src/stm32h7xx_hal.c ****   *         (EXTI_LINE0....EXTI_LINE87)excluding :line45, line81,line83 which are reserved
1208:Drivers/STM32H7xx_HAL_Driver/Src/stm32h7xx_hal.c ****   * @param   EXTI_Mode: Specifies which EXTI line is used as interrupt or an event.
1209:Drivers/STM32H7xx_HAL_Driver/Src/stm32h7xx_hal.c ****   *          This parameter can be one or a combination of the following values :
1210:Drivers/STM32H7xx_HAL_Driver/Src/stm32h7xx_hal.c ****   *   @arg EXTI_MODE_IT :  Interrupt Mode selected
1211:Drivers/STM32H7xx_HAL_Driver/Src/stm32h7xx_hal.c ****   *   @arg EXTI_MODE_EVT : Event Mode selected
1212:Drivers/STM32H7xx_HAL_Driver/Src/stm32h7xx_hal.c ****   * @param   EXTI_LineCmd controls (Enable/Disable) the EXTI line.
1213:Drivers/STM32H7xx_HAL_Driver/Src/stm32h7xx_hal.c **** 
1214:Drivers/STM32H7xx_HAL_Driver/Src/stm32h7xx_hal.c ****   * @retval None
1215:Drivers/STM32H7xx_HAL_Driver/Src/stm32h7xx_hal.c ****   */
1216:Drivers/STM32H7xx_HAL_Driver/Src/stm32h7xx_hal.c **** void HAL_EXTI_D2_EventInputConfig(uint32_t EXTI_Line , uint32_t EXTI_Mode,  uint32_t EXTI_LineCmd )
1217:Drivers/STM32H7xx_HAL_Driver/Src/stm32h7xx_hal.c **** {
1218:Drivers/STM32H7xx_HAL_Driver/Src/stm32h7xx_hal.c ****   /* Check the parameter */
1219:Drivers/STM32H7xx_HAL_Driver/Src/stm32h7xx_hal.c ****   assert_param(IS_EXTI_D2_LINE(EXTI_Line));
1220:Drivers/STM32H7xx_HAL_Driver/Src/stm32h7xx_hal.c ****   assert_param(IS_EXTI_MODE_LINE(EXTI_Mode));
1221:Drivers/STM32H7xx_HAL_Driver/Src/stm32h7xx_hal.c **** 
1222:Drivers/STM32H7xx_HAL_Driver/Src/stm32h7xx_hal.c ****   if( (EXTI_Mode & EXTI_MODE_IT) == EXTI_MODE_IT)
1223:Drivers/STM32H7xx_HAL_Driver/Src/stm32h7xx_hal.c ****   {
1224:Drivers/STM32H7xx_HAL_Driver/Src/stm32h7xx_hal.c ****     if( EXTI_LineCmd == 0UL)
1225:Drivers/STM32H7xx_HAL_Driver/Src/stm32h7xx_hal.c ****     {
1226:Drivers/STM32H7xx_HAL_Driver/Src/stm32h7xx_hal.c ****     /* Clear EXTI line configuration */
1227:Drivers/STM32H7xx_HAL_Driver/Src/stm32h7xx_hal.c ****      CLEAR_BIT(*(__IO uint32_t *) (((uint32_t) &(EXTI_D2->IMR1)) + ((EXTI_Line >> 5 ) * 0x10UL)),(u
1228:Drivers/STM32H7xx_HAL_Driver/Src/stm32h7xx_hal.c ****     }
1229:Drivers/STM32H7xx_HAL_Driver/Src/stm32h7xx_hal.c ****     else
1230:Drivers/STM32H7xx_HAL_Driver/Src/stm32h7xx_hal.c ****     {
1231:Drivers/STM32H7xx_HAL_Driver/Src/stm32h7xx_hal.c ****      SET_BIT(*(__IO uint32_t *) (((uint32_t) &(EXTI_D2->IMR1)) + ((EXTI_Line >> 5 ) * 0x10UL)), (ui
1232:Drivers/STM32H7xx_HAL_Driver/Src/stm32h7xx_hal.c ****     }
1233:Drivers/STM32H7xx_HAL_Driver/Src/stm32h7xx_hal.c ****   }
1234:Drivers/STM32H7xx_HAL_Driver/Src/stm32h7xx_hal.c **** 
1235:Drivers/STM32H7xx_HAL_Driver/Src/stm32h7xx_hal.c ****   if( (EXTI_Mode & EXTI_MODE_EVT) == EXTI_MODE_EVT)
1236:Drivers/STM32H7xx_HAL_Driver/Src/stm32h7xx_hal.c ****   {
1237:Drivers/STM32H7xx_HAL_Driver/Src/stm32h7xx_hal.c ****     if( EXTI_LineCmd == 0UL)
1238:Drivers/STM32H7xx_HAL_Driver/Src/stm32h7xx_hal.c ****     {
1239:Drivers/STM32H7xx_HAL_Driver/Src/stm32h7xx_hal.c ****       /* Clear EXTI line configuration */
1240:Drivers/STM32H7xx_HAL_Driver/Src/stm32h7xx_hal.c ****       CLEAR_BIT(  *(__IO uint32_t *) (((uint32_t) &(EXTI_D2->EMR1)) + ((EXTI_Line >> 5 ) * 0x10UL))
1241:Drivers/STM32H7xx_HAL_Driver/Src/stm32h7xx_hal.c ****     }
1242:Drivers/STM32H7xx_HAL_Driver/Src/stm32h7xx_hal.c ****     else
1243:Drivers/STM32H7xx_HAL_Driver/Src/stm32h7xx_hal.c ****     {
ARM GAS  C:\Users\27655\AppData\Local\Temp\ccShhaKP.s 			page 54


1244:Drivers/STM32H7xx_HAL_Driver/Src/stm32h7xx_hal.c ****       SET_BIT(  *(__IO uint32_t *) (((uint32_t) &(EXTI_D2->EMR1)) + ((EXTI_Line >> 5 ) * 0x10UL)), 
1245:Drivers/STM32H7xx_HAL_Driver/Src/stm32h7xx_hal.c ****     }
1246:Drivers/STM32H7xx_HAL_Driver/Src/stm32h7xx_hal.c ****   }
1247:Drivers/STM32H7xx_HAL_Driver/Src/stm32h7xx_hal.c **** }
1248:Drivers/STM32H7xx_HAL_Driver/Src/stm32h7xx_hal.c **** #endif /*DUAL_CORE*/
1249:Drivers/STM32H7xx_HAL_Driver/Src/stm32h7xx_hal.c **** 
1250:Drivers/STM32H7xx_HAL_Driver/Src/stm32h7xx_hal.c **** /**
1251:Drivers/STM32H7xx_HAL_Driver/Src/stm32h7xx_hal.c ****   * @brief  Configure the EXTI input event line for Domain D3
1252:Drivers/STM32H7xx_HAL_Driver/Src/stm32h7xx_hal.c ****   * @param   EXTI_Line: Specifies the EXTI LINE, it can be one of the following values,
1253:Drivers/STM32H7xx_HAL_Driver/Src/stm32h7xx_hal.c ****   *         (EXTI_LINE0...EXTI_LINE15),(EXTI_LINE19...EXTI_LINE21),EXTI_LINE25, EXTI_LINE34,
1254:Drivers/STM32H7xx_HAL_Driver/Src/stm32h7xx_hal.c ****   *          EXTI_LINE35,EXTI_LINE41,(EXTI_LINE48...EXTI_LINE53)
1255:Drivers/STM32H7xx_HAL_Driver/Src/stm32h7xx_hal.c ****   * @param   EXTI_LineCmd controls (Enable/Disable) the EXTI line.
1256:Drivers/STM32H7xx_HAL_Driver/Src/stm32h7xx_hal.c ****   * @param   EXTI_ClearSrc: Specifies the clear source of D3 pending event.
1257:Drivers/STM32H7xx_HAL_Driver/Src/stm32h7xx_hal.c ****   *          This parameter can be one of the following values :
1258:Drivers/STM32H7xx_HAL_Driver/Src/stm32h7xx_hal.c ****   *   @arg BDMA_CH6_CLEAR : BDMA ch6 event selected as D3 domain pendclear source
1259:Drivers/STM32H7xx_HAL_Driver/Src/stm32h7xx_hal.c ****   *   @arg BDMA_CH7_CLEAR : BDMA ch7 event selected as D3 domain pendclear source
1260:Drivers/STM32H7xx_HAL_Driver/Src/stm32h7xx_hal.c ****   *   @arg LPTIM4_OUT_CLEAR : LPTIM4 out selected as D3 domain pendclear source
1261:Drivers/STM32H7xx_HAL_Driver/Src/stm32h7xx_hal.c ****   *   @arg LPTIM5_OUT_CLEAR : LPTIM5 out selected as D3 domain pendclear source
1262:Drivers/STM32H7xx_HAL_Driver/Src/stm32h7xx_hal.c ****   * @retval None
1263:Drivers/STM32H7xx_HAL_Driver/Src/stm32h7xx_hal.c ****   */
1264:Drivers/STM32H7xx_HAL_Driver/Src/stm32h7xx_hal.c **** void HAL_EXTI_D3_EventInputConfig(uint32_t EXTI_Line, uint32_t EXTI_LineCmd , uint32_t EXTI_ClearSr
1265:Drivers/STM32H7xx_HAL_Driver/Src/stm32h7xx_hal.c **** {
 1789              		.loc 1 1265 1 is_stmt 1 view -0
 1790              		.cfi_startproc
 1791              		@ args = 0, pretend = 0, frame = 0
 1792              		@ frame_needed = 0, uses_anonymous_args = 0
 1793              		.loc 1 1265 1 is_stmt 0 view .LVU314
 1794 0000 10B5     		push	{r4, lr}
 1795              	.LCFI8:
 1796              		.cfi_def_cfa_offset 8
 1797              		.cfi_offset 4, -8
 1798              		.cfi_offset 14, -4
1266:Drivers/STM32H7xx_HAL_Driver/Src/stm32h7xx_hal.c ****   __IO uint32_t *pRegv;
 1799              		.loc 1 1266 3 is_stmt 1 view .LVU315
1267:Drivers/STM32H7xx_HAL_Driver/Src/stm32h7xx_hal.c **** 
1268:Drivers/STM32H7xx_HAL_Driver/Src/stm32h7xx_hal.c ****   /* Check the parameter */
1269:Drivers/STM32H7xx_HAL_Driver/Src/stm32h7xx_hal.c ****   assert_param(IS_EXTI_D3_LINE(EXTI_Line));
 1800              		.loc 1 1269 3 view .LVU316
1270:Drivers/STM32H7xx_HAL_Driver/Src/stm32h7xx_hal.c ****   assert_param(IS_EXTI_D3_CLEAR(EXTI_ClearSrc));
 1801              		.loc 1 1270 3 view .LVU317
1271:Drivers/STM32H7xx_HAL_Driver/Src/stm32h7xx_hal.c **** 
1272:Drivers/STM32H7xx_HAL_Driver/Src/stm32h7xx_hal.c ****   if( EXTI_LineCmd == 0UL)
 1802              		.loc 1 1272 3 view .LVU318
 1803              		.loc 1 1272 5 is_stmt 0 view .LVU319
 1804 0002 19BB     		cbnz	r1, .L173
1273:Drivers/STM32H7xx_HAL_Driver/Src/stm32h7xx_hal.c ****   {
1274:Drivers/STM32H7xx_HAL_Driver/Src/stm32h7xx_hal.c ****     /* Clear EXTI line configuration */
1275:Drivers/STM32H7xx_HAL_Driver/Src/stm32h7xx_hal.c ****     CLEAR_BIT(*(__IO uint32_t *) (((uint32_t) &(EXTI->D3PMR1)) + ((EXTI_Line >> 5 ) * 0x20UL)),(uin
 1805              		.loc 1 1275 5 is_stmt 1 view .LVU320
 1806 0004 20F01F03 		bic	r3, r0, #31
 1807 0008 DFF874E0 		ldr	lr, .L178+8
 1808 000c 53F80E10 		ldr	r1, [r3, lr]
 1809              	.LVL57:
 1810              		.loc 1 1275 5 is_stmt 0 view .LVU321
 1811 0010 00F01F0C 		and	ip, r0, #31
 1812 0014 0124     		movs	r4, #1
 1813 0016 04FA0CFC 		lsl	ip, r4, ip
ARM GAS  C:\Users\27655\AppData\Local\Temp\ccShhaKP.s 			page 55


 1814 001a 21EA0C01 		bic	r1, r1, ip
 1815 001e 43F80E10 		str	r1, [r3, lr]
 1816              	.L174:
1276:Drivers/STM32H7xx_HAL_Driver/Src/stm32h7xx_hal.c ****   }
1277:Drivers/STM32H7xx_HAL_Driver/Src/stm32h7xx_hal.c ****   else
1278:Drivers/STM32H7xx_HAL_Driver/Src/stm32h7xx_hal.c ****   {
1279:Drivers/STM32H7xx_HAL_Driver/Src/stm32h7xx_hal.c ****     SET_BIT(*(__IO uint32_t *) (((uint32_t) &(EXTI->D3PMR1)) +((EXTI_Line >> 5 ) * 0x20UL)), (uint3
1280:Drivers/STM32H7xx_HAL_Driver/Src/stm32h7xx_hal.c ****   }
1281:Drivers/STM32H7xx_HAL_Driver/Src/stm32h7xx_hal.c **** 
1282:Drivers/STM32H7xx_HAL_Driver/Src/stm32h7xx_hal.c ****   if(((EXTI_Line>>4)%2UL) == 0UL)
 1817              		.loc 1 1282 3 is_stmt 1 view .LVU322
 1818              		.loc 1 1282 5 is_stmt 0 view .LVU323
 1819 0022 10F0100F 		tst	r0, #16
 1820 0026 21D1     		bne	.L175
1283:Drivers/STM32H7xx_HAL_Driver/Src/stm32h7xx_hal.c ****   {
1284:Drivers/STM32H7xx_HAL_Driver/Src/stm32h7xx_hal.c ****     pRegv = (__IO uint32_t *) (((uint32_t) &(EXTI->D3PCR1L)) + ((EXTI_Line >> 5 ) * 0x20UL));
 1821              		.loc 1 1284 5 is_stmt 1 view .LVU324
 1822              		.loc 1 1284 83 is_stmt 0 view .LVU325
 1823 0028 20F01F03 		bic	r3, r0, #31
 1824              		.loc 1 1284 62 view .LVU326
 1825 002c 1249     		ldr	r1, .L178
 1826 002e 1944     		add	r1, r1, r3
 1827              	.LVL58:
 1828              	.L176:
1285:Drivers/STM32H7xx_HAL_Driver/Src/stm32h7xx_hal.c ****   }
1286:Drivers/STM32H7xx_HAL_Driver/Src/stm32h7xx_hal.c ****   else
1287:Drivers/STM32H7xx_HAL_Driver/Src/stm32h7xx_hal.c ****   {
1288:Drivers/STM32H7xx_HAL_Driver/Src/stm32h7xx_hal.c ****     pRegv = (__IO uint32_t *) (((uint32_t) &(EXTI->D3PCR1H)) + ((EXTI_Line >> 5 ) * 0x20UL));
1289:Drivers/STM32H7xx_HAL_Driver/Src/stm32h7xx_hal.c ****   }
1290:Drivers/STM32H7xx_HAL_Driver/Src/stm32h7xx_hal.c ****   MODIFY_REG(*pRegv, (uint32_t)(3UL << ((EXTI_Line*2UL) & 0x1FUL)), (uint32_t)(EXTI_ClearSrc << ((E
 1829              		.loc 1 1290 3 is_stmt 1 view .LVU327
 1830 0030 0B68     		ldr	r3, [r1]
 1831 0032 4000     		lsls	r0, r0, #1
 1832              	.LVL59:
 1833              		.loc 1 1290 3 is_stmt 0 view .LVU328
 1834 0034 00F01E00 		and	r0, r0, #30
 1835 0038 4FF0030C 		mov	ip, #3
 1836 003c 0CFA00FC 		lsl	ip, ip, r0
 1837 0040 23EA0C03 		bic	r3, r3, ip
 1838 0044 8240     		lsls	r2, r2, r0
 1839              	.LVL60:
 1840              		.loc 1 1290 3 view .LVU329
 1841 0046 1A43     		orrs	r2, r2, r3
 1842 0048 0A60     		str	r2, [r1]
1291:Drivers/STM32H7xx_HAL_Driver/Src/stm32h7xx_hal.c **** 
1292:Drivers/STM32H7xx_HAL_Driver/Src/stm32h7xx_hal.c **** }
 1843              		.loc 1 1292 1 view .LVU330
 1844 004a 10BD     		pop	{r4, pc}
 1845              	.LVL61:
 1846              	.L173:
1279:Drivers/STM32H7xx_HAL_Driver/Src/stm32h7xx_hal.c ****   }
 1847              		.loc 1 1279 5 is_stmt 1 view .LVU331
 1848 004c 20F01F03 		bic	r3, r0, #31
 1849 0050 DFF82CE0 		ldr	lr, .L178+8
 1850 0054 53F80E10 		ldr	r1, [r3, lr]
 1851              	.LVL62:
1279:Drivers/STM32H7xx_HAL_Driver/Src/stm32h7xx_hal.c ****   }
ARM GAS  C:\Users\27655\AppData\Local\Temp\ccShhaKP.s 			page 56


 1852              		.loc 1 1279 5 is_stmt 0 view .LVU332
 1853 0058 00F01F0C 		and	ip, r0, #31
 1854 005c 0124     		movs	r4, #1
 1855 005e 04FA0CFC 		lsl	ip, r4, ip
 1856 0062 41EA0C01 		orr	r1, r1, ip
 1857 0066 43F80E10 		str	r1, [r3, lr]
 1858 006a DAE7     		b	.L174
 1859              	.L175:
1288:Drivers/STM32H7xx_HAL_Driver/Src/stm32h7xx_hal.c ****   }
 1860              		.loc 1 1288 5 is_stmt 1 view .LVU333
1288:Drivers/STM32H7xx_HAL_Driver/Src/stm32h7xx_hal.c ****   }
 1861              		.loc 1 1288 83 is_stmt 0 view .LVU334
 1862 006c 20F01F03 		bic	r3, r0, #31
1288:Drivers/STM32H7xx_HAL_Driver/Src/stm32h7xx_hal.c ****   }
 1863              		.loc 1 1288 62 view .LVU335
 1864 0070 0249     		ldr	r1, .L178+4
 1865 0072 1944     		add	r1, r1, r3
 1866 0074 DCE7     		b	.L176
 1867              	.L179:
 1868 0076 00BF     		.align	2
 1869              	.L178:
 1870 0078 10000058 		.word	1476395024
 1871 007c 14000058 		.word	1476395028
 1872 0080 0C000058 		.word	1476395020
 1873              		.cfi_endproc
 1874              	.LFE193:
 1876              		.global	uwTickFreq
 1877              		.section	.data.uwTickFreq,"aw"
 1880              	uwTickFreq:
 1881 0000 01       		.byte	1
 1882              		.global	uwTickPrio
 1883              		.section	.data.uwTickPrio,"aw"
 1884              		.align	2
 1887              	uwTickPrio:
 1888 0000 10000000 		.word	16
 1889              		.global	uwTick
 1890              		.section	.bss.uwTick,"aw",%nobits
 1891              		.align	2
 1894              	uwTick:
 1895 0000 00000000 		.space	4
 1896              		.text
 1897              	.Letext0:
 1898              		.file 2 "Drivers/CMSIS/Device/ST/STM32H7xx/Include/stm32h743xx.h"
 1899              		.file 3 "D:/TOOLS/xpack-arm-none-eabi-gcc/arm-none-eabi/include/machine/_default_types.h"
 1900              		.file 4 "D:/TOOLS/xpack-arm-none-eabi-gcc/arm-none-eabi/include/sys/_stdint.h"
 1901              		.file 5 "Drivers/CMSIS/Include/core_cm7.h"
 1902              		.file 6 "Drivers/CMSIS/Device/ST/STM32H7xx/Include/system_stm32h7xx.h"
 1903              		.file 7 "Drivers/STM32H7xx_HAL_Driver/Inc/stm32h7xx_hal_def.h"
 1904              		.file 8 "Drivers/STM32H7xx_HAL_Driver/Inc/stm32h7xx_hal.h"
 1905              		.file 9 "Drivers/STM32H7xx_HAL_Driver/Inc/stm32h7xx_hal_cortex.h"
 1906              		.file 10 "Drivers/STM32H7xx_HAL_Driver/Inc/stm32h7xx_hal_rcc.h"
ARM GAS  C:\Users\27655\AppData\Local\Temp\ccShhaKP.s 			page 57

