ARM GAS  C:\Users\28576\AppData\Local\Temp\ccYc01Pv.s 			page 1


   1              		.cpu cortex-m7
   2              		.arch armv7e-m
   3              		.fpu fpv5-d16
   4              		.eabi_attribute 28, 1
   5              		.eabi_attribute 20, 1
   6              		.eabi_attribute 21, 1
   7              		.eabi_attribute 23, 3
   8              		.eabi_attribute 24, 1
   9              		.eabi_attribute 25, 1
  10              		.eabi_attribute 26, 1
  11              		.eabi_attribute 30, 1
  12              		.eabi_attribute 34, 1
  13              		.eabi_attribute 18, 4
  14              		.file	"lv_area.c"
  15              		.text
  16              	.Ltext0:
  17              		.cfi_sections	.debug_frame
  18              		.file 1 "../../Middlewares/LVGL/GUI/lvgl/src/misc/lv_area.c"
  19              		.section	.text.lv_point_within_circle,"ax",%progbits
  20              		.align	1
  21              		.syntax unified
  22              		.thumb
  23              		.thumb_func
  25              	lv_point_within_circle:
  26              	.LVL0:
  27              	.LFB215:
   1:../../Middlewares/LVGL/GUI/lvgl/src/misc/lv_area.c **** /**
   2:../../Middlewares/LVGL/GUI/lvgl/src/misc/lv_area.c ****  * @file lv_area.c
   3:../../Middlewares/LVGL/GUI/lvgl/src/misc/lv_area.c ****  *
   4:../../Middlewares/LVGL/GUI/lvgl/src/misc/lv_area.c ****  */
   5:../../Middlewares/LVGL/GUI/lvgl/src/misc/lv_area.c **** 
   6:../../Middlewares/LVGL/GUI/lvgl/src/misc/lv_area.c **** /*********************
   7:../../Middlewares/LVGL/GUI/lvgl/src/misc/lv_area.c ****  *      INCLUDES
   8:../../Middlewares/LVGL/GUI/lvgl/src/misc/lv_area.c ****  *********************/
   9:../../Middlewares/LVGL/GUI/lvgl/src/misc/lv_area.c **** #include "../lv_conf_internal.h"
  10:../../Middlewares/LVGL/GUI/lvgl/src/misc/lv_area.c **** #include "../core/lv_global.h"
  11:../../Middlewares/LVGL/GUI/lvgl/src/misc/lv_area.c **** 
  12:../../Middlewares/LVGL/GUI/lvgl/src/misc/lv_area.c **** #include "lv_area_private.h"
  13:../../Middlewares/LVGL/GUI/lvgl/src/misc/lv_area.c **** #include "lv_math.h"
  14:../../Middlewares/LVGL/GUI/lvgl/src/misc/lv_area.c **** 
  15:../../Middlewares/LVGL/GUI/lvgl/src/misc/lv_area.c **** /*********************
  16:../../Middlewares/LVGL/GUI/lvgl/src/misc/lv_area.c ****  *      DEFINES
  17:../../Middlewares/LVGL/GUI/lvgl/src/misc/lv_area.c ****  *********************/
  18:../../Middlewares/LVGL/GUI/lvgl/src/misc/lv_area.c **** 
  19:../../Middlewares/LVGL/GUI/lvgl/src/misc/lv_area.c **** /**********************
  20:../../Middlewares/LVGL/GUI/lvgl/src/misc/lv_area.c ****  *      TYPEDEFS
  21:../../Middlewares/LVGL/GUI/lvgl/src/misc/lv_area.c ****  **********************/
  22:../../Middlewares/LVGL/GUI/lvgl/src/misc/lv_area.c **** 
  23:../../Middlewares/LVGL/GUI/lvgl/src/misc/lv_area.c **** /**********************
  24:../../Middlewares/LVGL/GUI/lvgl/src/misc/lv_area.c ****  *  STATIC PROTOTYPES
  25:../../Middlewares/LVGL/GUI/lvgl/src/misc/lv_area.c ****  **********************/
  26:../../Middlewares/LVGL/GUI/lvgl/src/misc/lv_area.c **** 
  27:../../Middlewares/LVGL/GUI/lvgl/src/misc/lv_area.c **** static bool lv_point_within_circle(const lv_area_t * area, const lv_point_t * p);
  28:../../Middlewares/LVGL/GUI/lvgl/src/misc/lv_area.c **** 
  29:../../Middlewares/LVGL/GUI/lvgl/src/misc/lv_area.c **** /**********************
  30:../../Middlewares/LVGL/GUI/lvgl/src/misc/lv_area.c ****  *  STATIC VARIABLES
  31:../../Middlewares/LVGL/GUI/lvgl/src/misc/lv_area.c ****  **********************/
ARM GAS  C:\Users\28576\AppData\Local\Temp\ccYc01Pv.s 			page 2


  32:../../Middlewares/LVGL/GUI/lvgl/src/misc/lv_area.c **** 
  33:../../Middlewares/LVGL/GUI/lvgl/src/misc/lv_area.c **** /**********************
  34:../../Middlewares/LVGL/GUI/lvgl/src/misc/lv_area.c ****  *      MACROS
  35:../../Middlewares/LVGL/GUI/lvgl/src/misc/lv_area.c ****  **********************/
  36:../../Middlewares/LVGL/GUI/lvgl/src/misc/lv_area.c **** 
  37:../../Middlewares/LVGL/GUI/lvgl/src/misc/lv_area.c **** /**********************
  38:../../Middlewares/LVGL/GUI/lvgl/src/misc/lv_area.c ****  *   GLOBAL FUNCTIONS
  39:../../Middlewares/LVGL/GUI/lvgl/src/misc/lv_area.c ****  **********************/
  40:../../Middlewares/LVGL/GUI/lvgl/src/misc/lv_area.c **** 
  41:../../Middlewares/LVGL/GUI/lvgl/src/misc/lv_area.c **** void lv_area_set(lv_area_t * area_p, int32_t x1, int32_t y1, int32_t x2, int32_t y2)
  42:../../Middlewares/LVGL/GUI/lvgl/src/misc/lv_area.c **** {
  43:../../Middlewares/LVGL/GUI/lvgl/src/misc/lv_area.c ****     area_p->x1 = x1;
  44:../../Middlewares/LVGL/GUI/lvgl/src/misc/lv_area.c ****     area_p->y1 = y1;
  45:../../Middlewares/LVGL/GUI/lvgl/src/misc/lv_area.c ****     area_p->x2 = x2;
  46:../../Middlewares/LVGL/GUI/lvgl/src/misc/lv_area.c ****     area_p->y2 = y2;
  47:../../Middlewares/LVGL/GUI/lvgl/src/misc/lv_area.c **** }
  48:../../Middlewares/LVGL/GUI/lvgl/src/misc/lv_area.c **** 
  49:../../Middlewares/LVGL/GUI/lvgl/src/misc/lv_area.c **** void lv_area_set_width(lv_area_t * area_p, int32_t w)
  50:../../Middlewares/LVGL/GUI/lvgl/src/misc/lv_area.c **** {
  51:../../Middlewares/LVGL/GUI/lvgl/src/misc/lv_area.c ****     area_p->x2 = area_p->x1 + w - 1;
  52:../../Middlewares/LVGL/GUI/lvgl/src/misc/lv_area.c **** }
  53:../../Middlewares/LVGL/GUI/lvgl/src/misc/lv_area.c **** 
  54:../../Middlewares/LVGL/GUI/lvgl/src/misc/lv_area.c **** void lv_area_set_height(lv_area_t * area_p, int32_t h)
  55:../../Middlewares/LVGL/GUI/lvgl/src/misc/lv_area.c **** {
  56:../../Middlewares/LVGL/GUI/lvgl/src/misc/lv_area.c ****     area_p->y2 = area_p->y1 + h - 1;
  57:../../Middlewares/LVGL/GUI/lvgl/src/misc/lv_area.c **** }
  58:../../Middlewares/LVGL/GUI/lvgl/src/misc/lv_area.c **** 
  59:../../Middlewares/LVGL/GUI/lvgl/src/misc/lv_area.c **** void lv_area_set_pos(lv_area_t * area_p, int32_t x, int32_t y)
  60:../../Middlewares/LVGL/GUI/lvgl/src/misc/lv_area.c **** {
  61:../../Middlewares/LVGL/GUI/lvgl/src/misc/lv_area.c ****     int32_t w = lv_area_get_width(area_p);
  62:../../Middlewares/LVGL/GUI/lvgl/src/misc/lv_area.c ****     int32_t h = lv_area_get_height(area_p);
  63:../../Middlewares/LVGL/GUI/lvgl/src/misc/lv_area.c ****     area_p->x1   = x;
  64:../../Middlewares/LVGL/GUI/lvgl/src/misc/lv_area.c ****     area_p->y1   = y;
  65:../../Middlewares/LVGL/GUI/lvgl/src/misc/lv_area.c ****     lv_area_set_width(area_p, w);
  66:../../Middlewares/LVGL/GUI/lvgl/src/misc/lv_area.c ****     lv_area_set_height(area_p, h);
  67:../../Middlewares/LVGL/GUI/lvgl/src/misc/lv_area.c **** }
  68:../../Middlewares/LVGL/GUI/lvgl/src/misc/lv_area.c **** 
  69:../../Middlewares/LVGL/GUI/lvgl/src/misc/lv_area.c **** uint32_t lv_area_get_size(const lv_area_t * area_p)
  70:../../Middlewares/LVGL/GUI/lvgl/src/misc/lv_area.c **** {
  71:../../Middlewares/LVGL/GUI/lvgl/src/misc/lv_area.c ****     uint32_t size;
  72:../../Middlewares/LVGL/GUI/lvgl/src/misc/lv_area.c **** 
  73:../../Middlewares/LVGL/GUI/lvgl/src/misc/lv_area.c ****     size = (uint32_t)(area_p->x2 - area_p->x1 + 1) * (area_p->y2 - area_p->y1 + 1);
  74:../../Middlewares/LVGL/GUI/lvgl/src/misc/lv_area.c **** 
  75:../../Middlewares/LVGL/GUI/lvgl/src/misc/lv_area.c ****     return size;
  76:../../Middlewares/LVGL/GUI/lvgl/src/misc/lv_area.c **** }
  77:../../Middlewares/LVGL/GUI/lvgl/src/misc/lv_area.c **** 
  78:../../Middlewares/LVGL/GUI/lvgl/src/misc/lv_area.c **** void lv_area_increase(lv_area_t * area, int32_t w_extra, int32_t h_extra)
  79:../../Middlewares/LVGL/GUI/lvgl/src/misc/lv_area.c **** {
  80:../../Middlewares/LVGL/GUI/lvgl/src/misc/lv_area.c ****     area->x1 -= w_extra;
  81:../../Middlewares/LVGL/GUI/lvgl/src/misc/lv_area.c ****     area->x2 += w_extra;
  82:../../Middlewares/LVGL/GUI/lvgl/src/misc/lv_area.c ****     area->y1 -= h_extra;
  83:../../Middlewares/LVGL/GUI/lvgl/src/misc/lv_area.c ****     area->y2 += h_extra;
  84:../../Middlewares/LVGL/GUI/lvgl/src/misc/lv_area.c **** }
  85:../../Middlewares/LVGL/GUI/lvgl/src/misc/lv_area.c **** 
  86:../../Middlewares/LVGL/GUI/lvgl/src/misc/lv_area.c **** void lv_area_move(lv_area_t * area, int32_t x_ofs, int32_t y_ofs)
  87:../../Middlewares/LVGL/GUI/lvgl/src/misc/lv_area.c **** {
  88:../../Middlewares/LVGL/GUI/lvgl/src/misc/lv_area.c ****     area->x1 += x_ofs;
ARM GAS  C:\Users\28576\AppData\Local\Temp\ccYc01Pv.s 			page 3


  89:../../Middlewares/LVGL/GUI/lvgl/src/misc/lv_area.c ****     area->x2 += x_ofs;
  90:../../Middlewares/LVGL/GUI/lvgl/src/misc/lv_area.c ****     area->y1 += y_ofs;
  91:../../Middlewares/LVGL/GUI/lvgl/src/misc/lv_area.c ****     area->y2 += y_ofs;
  92:../../Middlewares/LVGL/GUI/lvgl/src/misc/lv_area.c **** }
  93:../../Middlewares/LVGL/GUI/lvgl/src/misc/lv_area.c **** 
  94:../../Middlewares/LVGL/GUI/lvgl/src/misc/lv_area.c **** bool lv_area_intersect(lv_area_t * res_p, const lv_area_t * a1_p, const lv_area_t * a2_p)
  95:../../Middlewares/LVGL/GUI/lvgl/src/misc/lv_area.c **** {
  96:../../Middlewares/LVGL/GUI/lvgl/src/misc/lv_area.c ****     /*Get the smaller area from 'a1_p' and 'a2_p'*/
  97:../../Middlewares/LVGL/GUI/lvgl/src/misc/lv_area.c ****     res_p->x1 = LV_MAX(a1_p->x1, a2_p->x1);
  98:../../Middlewares/LVGL/GUI/lvgl/src/misc/lv_area.c ****     res_p->y1 = LV_MAX(a1_p->y1, a2_p->y1);
  99:../../Middlewares/LVGL/GUI/lvgl/src/misc/lv_area.c ****     res_p->x2 = LV_MIN(a1_p->x2, a2_p->x2);
 100:../../Middlewares/LVGL/GUI/lvgl/src/misc/lv_area.c ****     res_p->y2 = LV_MIN(a1_p->y2, a2_p->y2);
 101:../../Middlewares/LVGL/GUI/lvgl/src/misc/lv_area.c **** 
 102:../../Middlewares/LVGL/GUI/lvgl/src/misc/lv_area.c ****     /*If x1 or y1 greater than x2 or y2 then the areas union is empty*/
 103:../../Middlewares/LVGL/GUI/lvgl/src/misc/lv_area.c ****     bool union_ok = true;
 104:../../Middlewares/LVGL/GUI/lvgl/src/misc/lv_area.c ****     if((res_p->x1 > res_p->x2) || (res_p->y1 > res_p->y2)) {
 105:../../Middlewares/LVGL/GUI/lvgl/src/misc/lv_area.c ****         union_ok = false;
 106:../../Middlewares/LVGL/GUI/lvgl/src/misc/lv_area.c ****     }
 107:../../Middlewares/LVGL/GUI/lvgl/src/misc/lv_area.c **** 
 108:../../Middlewares/LVGL/GUI/lvgl/src/misc/lv_area.c ****     return union_ok;
 109:../../Middlewares/LVGL/GUI/lvgl/src/misc/lv_area.c **** }
 110:../../Middlewares/LVGL/GUI/lvgl/src/misc/lv_area.c **** 
 111:../../Middlewares/LVGL/GUI/lvgl/src/misc/lv_area.c **** int8_t lv_area_diff(lv_area_t res_p[], const lv_area_t * a1_p, const lv_area_t * a2_p)
 112:../../Middlewares/LVGL/GUI/lvgl/src/misc/lv_area.c **** {
 113:../../Middlewares/LVGL/GUI/lvgl/src/misc/lv_area.c ****     /*Areas have no common parts*/
 114:../../Middlewares/LVGL/GUI/lvgl/src/misc/lv_area.c ****     if(!lv_area_is_on(a1_p, a2_p)) return -1;
 115:../../Middlewares/LVGL/GUI/lvgl/src/misc/lv_area.c **** 
 116:../../Middlewares/LVGL/GUI/lvgl/src/misc/lv_area.c ****     /*No remaining areas after removing common parts*/
 117:../../Middlewares/LVGL/GUI/lvgl/src/misc/lv_area.c ****     if(lv_area_is_in(a1_p, a2_p, 0)) return 0;
 118:../../Middlewares/LVGL/GUI/lvgl/src/misc/lv_area.c **** 
 119:../../Middlewares/LVGL/GUI/lvgl/src/misc/lv_area.c ****     /*Result counter*/
 120:../../Middlewares/LVGL/GUI/lvgl/src/misc/lv_area.c ****     int8_t res_c = 0;
 121:../../Middlewares/LVGL/GUI/lvgl/src/misc/lv_area.c **** 
 122:../../Middlewares/LVGL/GUI/lvgl/src/misc/lv_area.c ****     /*Get required information*/
 123:../../Middlewares/LVGL/GUI/lvgl/src/misc/lv_area.c ****     lv_area_t n;
 124:../../Middlewares/LVGL/GUI/lvgl/src/misc/lv_area.c ****     int32_t a1_w = lv_area_get_width(a1_p) - 1;
 125:../../Middlewares/LVGL/GUI/lvgl/src/misc/lv_area.c ****     int32_t a1_h = lv_area_get_height(a1_p) - 1;
 126:../../Middlewares/LVGL/GUI/lvgl/src/misc/lv_area.c **** 
 127:../../Middlewares/LVGL/GUI/lvgl/src/misc/lv_area.c ****     /*Compute top rectangle*/
 128:../../Middlewares/LVGL/GUI/lvgl/src/misc/lv_area.c ****     int32_t th = a2_p->y1 - a1_p->y1;
 129:../../Middlewares/LVGL/GUI/lvgl/src/misc/lv_area.c ****     if(th > 0) {
 130:../../Middlewares/LVGL/GUI/lvgl/src/misc/lv_area.c ****         n.x1 = a1_p->x1;
 131:../../Middlewares/LVGL/GUI/lvgl/src/misc/lv_area.c ****         n.y1 = a1_p->y1;
 132:../../Middlewares/LVGL/GUI/lvgl/src/misc/lv_area.c ****         n.x2 = a1_p->x2;
 133:../../Middlewares/LVGL/GUI/lvgl/src/misc/lv_area.c ****         n.y2 = a1_p->y1 + th - 1;
 134:../../Middlewares/LVGL/GUI/lvgl/src/misc/lv_area.c ****         res_p[res_c++] = n;
 135:../../Middlewares/LVGL/GUI/lvgl/src/misc/lv_area.c ****     }
 136:../../Middlewares/LVGL/GUI/lvgl/src/misc/lv_area.c **** 
 137:../../Middlewares/LVGL/GUI/lvgl/src/misc/lv_area.c ****     /*Compute the bottom rectangle*/
 138:../../Middlewares/LVGL/GUI/lvgl/src/misc/lv_area.c ****     int32_t bh = a1_h - (a2_p->y2 - a1_p->y1);
 139:../../Middlewares/LVGL/GUI/lvgl/src/misc/lv_area.c ****     if(bh > 0 && a2_p->y2 < a1_p->y2) {
 140:../../Middlewares/LVGL/GUI/lvgl/src/misc/lv_area.c ****         n.x1 = a1_p->x1;
 141:../../Middlewares/LVGL/GUI/lvgl/src/misc/lv_area.c ****         n.y1 = a2_p->y2 + 1;
 142:../../Middlewares/LVGL/GUI/lvgl/src/misc/lv_area.c ****         n.x2 = a1_p->x2;
 143:../../Middlewares/LVGL/GUI/lvgl/src/misc/lv_area.c ****         n.y2 = a2_p->y2 + bh;
 144:../../Middlewares/LVGL/GUI/lvgl/src/misc/lv_area.c ****         res_p[res_c++] = n;
 145:../../Middlewares/LVGL/GUI/lvgl/src/misc/lv_area.c ****     }
ARM GAS  C:\Users\28576\AppData\Local\Temp\ccYc01Pv.s 			page 4


 146:../../Middlewares/LVGL/GUI/lvgl/src/misc/lv_area.c **** 
 147:../../Middlewares/LVGL/GUI/lvgl/src/misc/lv_area.c ****     /*Compute side height*/
 148:../../Middlewares/LVGL/GUI/lvgl/src/misc/lv_area.c ****     int32_t y1 = a2_p->y1 > a1_p->y1 ? a2_p->y1 : a1_p->y1;
 149:../../Middlewares/LVGL/GUI/lvgl/src/misc/lv_area.c ****     int32_t y2 = a2_p->y2 < a1_p->y2 ? a2_p->y2 : a1_p->y2;
 150:../../Middlewares/LVGL/GUI/lvgl/src/misc/lv_area.c ****     int32_t sh = y2 - y1;
 151:../../Middlewares/LVGL/GUI/lvgl/src/misc/lv_area.c **** 
 152:../../Middlewares/LVGL/GUI/lvgl/src/misc/lv_area.c ****     /*Compute the left rectangle*/
 153:../../Middlewares/LVGL/GUI/lvgl/src/misc/lv_area.c ****     int32_t lw = a2_p->x1 - a1_p->x1;
 154:../../Middlewares/LVGL/GUI/lvgl/src/misc/lv_area.c ****     if(lw > 0 && sh >= 0) {
 155:../../Middlewares/LVGL/GUI/lvgl/src/misc/lv_area.c ****         n.x1 = a1_p->x1;
 156:../../Middlewares/LVGL/GUI/lvgl/src/misc/lv_area.c ****         n.y1 = y1;
 157:../../Middlewares/LVGL/GUI/lvgl/src/misc/lv_area.c ****         n.x2 = a1_p->x1 + lw - 1;
 158:../../Middlewares/LVGL/GUI/lvgl/src/misc/lv_area.c ****         n.y2 = y1 + sh;
 159:../../Middlewares/LVGL/GUI/lvgl/src/misc/lv_area.c ****         res_p[res_c++] = n;
 160:../../Middlewares/LVGL/GUI/lvgl/src/misc/lv_area.c ****     }
 161:../../Middlewares/LVGL/GUI/lvgl/src/misc/lv_area.c **** 
 162:../../Middlewares/LVGL/GUI/lvgl/src/misc/lv_area.c ****     /*Compute the right rectangle*/
 163:../../Middlewares/LVGL/GUI/lvgl/src/misc/lv_area.c ****     int32_t rw = a1_w - (a2_p->x2 - a1_p->x1);
 164:../../Middlewares/LVGL/GUI/lvgl/src/misc/lv_area.c ****     if(rw > 0 && sh >= 0) {
 165:../../Middlewares/LVGL/GUI/lvgl/src/misc/lv_area.c ****         n.x1 = a2_p->x2 + 1;
 166:../../Middlewares/LVGL/GUI/lvgl/src/misc/lv_area.c ****         n.y1 = y1;
 167:../../Middlewares/LVGL/GUI/lvgl/src/misc/lv_area.c ****         n.x2 = a2_p->x2 + rw;
 168:../../Middlewares/LVGL/GUI/lvgl/src/misc/lv_area.c ****         n.y2 = y1 + sh;
 169:../../Middlewares/LVGL/GUI/lvgl/src/misc/lv_area.c ****         res_p[res_c++] = n;
 170:../../Middlewares/LVGL/GUI/lvgl/src/misc/lv_area.c ****     }
 171:../../Middlewares/LVGL/GUI/lvgl/src/misc/lv_area.c **** 
 172:../../Middlewares/LVGL/GUI/lvgl/src/misc/lv_area.c ****     //Return number of results
 173:../../Middlewares/LVGL/GUI/lvgl/src/misc/lv_area.c ****     return res_c;
 174:../../Middlewares/LVGL/GUI/lvgl/src/misc/lv_area.c **** }
 175:../../Middlewares/LVGL/GUI/lvgl/src/misc/lv_area.c **** 
 176:../../Middlewares/LVGL/GUI/lvgl/src/misc/lv_area.c **** void lv_area_join(lv_area_t * a_res_p, const lv_area_t * a1_p, const lv_area_t * a2_p)
 177:../../Middlewares/LVGL/GUI/lvgl/src/misc/lv_area.c **** {
 178:../../Middlewares/LVGL/GUI/lvgl/src/misc/lv_area.c ****     a_res_p->x1 = LV_MIN(a1_p->x1, a2_p->x1);
 179:../../Middlewares/LVGL/GUI/lvgl/src/misc/lv_area.c ****     a_res_p->y1 = LV_MIN(a1_p->y1, a2_p->y1);
 180:../../Middlewares/LVGL/GUI/lvgl/src/misc/lv_area.c ****     a_res_p->x2 = LV_MAX(a1_p->x2, a2_p->x2);
 181:../../Middlewares/LVGL/GUI/lvgl/src/misc/lv_area.c ****     a_res_p->y2 = LV_MAX(a1_p->y2, a2_p->y2);
 182:../../Middlewares/LVGL/GUI/lvgl/src/misc/lv_area.c **** }
 183:../../Middlewares/LVGL/GUI/lvgl/src/misc/lv_area.c **** 
 184:../../Middlewares/LVGL/GUI/lvgl/src/misc/lv_area.c **** bool lv_area_is_point_on(const lv_area_t * a_p, const lv_point_t * p_p, int32_t radius)
 185:../../Middlewares/LVGL/GUI/lvgl/src/misc/lv_area.c **** {
 186:../../Middlewares/LVGL/GUI/lvgl/src/misc/lv_area.c ****     /*First check the basic area*/
 187:../../Middlewares/LVGL/GUI/lvgl/src/misc/lv_area.c ****     bool is_on_rect = false;
 188:../../Middlewares/LVGL/GUI/lvgl/src/misc/lv_area.c ****     if((p_p->x >= a_p->x1 && p_p->x <= a_p->x2) && ((p_p->y >= a_p->y1 && p_p->y <= a_p->y2))) {
 189:../../Middlewares/LVGL/GUI/lvgl/src/misc/lv_area.c ****         is_on_rect = true;
 190:../../Middlewares/LVGL/GUI/lvgl/src/misc/lv_area.c ****     }
 191:../../Middlewares/LVGL/GUI/lvgl/src/misc/lv_area.c ****     if(!is_on_rect)
 192:../../Middlewares/LVGL/GUI/lvgl/src/misc/lv_area.c ****         return false;
 193:../../Middlewares/LVGL/GUI/lvgl/src/misc/lv_area.c ****     /*Now handle potential rounded rectangles*/
 194:../../Middlewares/LVGL/GUI/lvgl/src/misc/lv_area.c ****     if(radius <= 0) {
 195:../../Middlewares/LVGL/GUI/lvgl/src/misc/lv_area.c ****         /*No radius, it is within the rectangle*/
 196:../../Middlewares/LVGL/GUI/lvgl/src/misc/lv_area.c ****         return true;
 197:../../Middlewares/LVGL/GUI/lvgl/src/misc/lv_area.c ****     }
 198:../../Middlewares/LVGL/GUI/lvgl/src/misc/lv_area.c ****     int32_t w = lv_area_get_width(a_p) / 2;
 199:../../Middlewares/LVGL/GUI/lvgl/src/misc/lv_area.c ****     int32_t h = lv_area_get_height(a_p) / 2;
 200:../../Middlewares/LVGL/GUI/lvgl/src/misc/lv_area.c ****     int32_t max_radius = LV_MIN(w, h);
 201:../../Middlewares/LVGL/GUI/lvgl/src/misc/lv_area.c ****     if(radius > max_radius)
 202:../../Middlewares/LVGL/GUI/lvgl/src/misc/lv_area.c ****         radius = max_radius;
ARM GAS  C:\Users\28576\AppData\Local\Temp\ccYc01Pv.s 			page 5


 203:../../Middlewares/LVGL/GUI/lvgl/src/misc/lv_area.c **** 
 204:../../Middlewares/LVGL/GUI/lvgl/src/misc/lv_area.c ****     /*Check if it's in one of the corners*/
 205:../../Middlewares/LVGL/GUI/lvgl/src/misc/lv_area.c ****     lv_area_t corner_area;
 206:../../Middlewares/LVGL/GUI/lvgl/src/misc/lv_area.c ****     /*Top left*/
 207:../../Middlewares/LVGL/GUI/lvgl/src/misc/lv_area.c ****     corner_area.x1 = a_p->x1;
 208:../../Middlewares/LVGL/GUI/lvgl/src/misc/lv_area.c ****     corner_area.x2 = a_p->x1 + radius;
 209:../../Middlewares/LVGL/GUI/lvgl/src/misc/lv_area.c ****     corner_area.y1 = a_p->y1;
 210:../../Middlewares/LVGL/GUI/lvgl/src/misc/lv_area.c ****     corner_area.y2 = a_p->y1 + radius;
 211:../../Middlewares/LVGL/GUI/lvgl/src/misc/lv_area.c ****     if(lv_area_is_point_on(&corner_area, p_p, 0)) {
 212:../../Middlewares/LVGL/GUI/lvgl/src/misc/lv_area.c ****         corner_area.x2 += radius;
 213:../../Middlewares/LVGL/GUI/lvgl/src/misc/lv_area.c ****         corner_area.y2 += radius;
 214:../../Middlewares/LVGL/GUI/lvgl/src/misc/lv_area.c ****         return lv_point_within_circle(&corner_area, p_p);
 215:../../Middlewares/LVGL/GUI/lvgl/src/misc/lv_area.c ****     }
 216:../../Middlewares/LVGL/GUI/lvgl/src/misc/lv_area.c ****     /*Bottom left*/
 217:../../Middlewares/LVGL/GUI/lvgl/src/misc/lv_area.c ****     corner_area.y1 = a_p->y2 - radius;
 218:../../Middlewares/LVGL/GUI/lvgl/src/misc/lv_area.c ****     corner_area.y2 = a_p->y2;
 219:../../Middlewares/LVGL/GUI/lvgl/src/misc/lv_area.c ****     if(lv_area_is_point_on(&corner_area, p_p, 0)) {
 220:../../Middlewares/LVGL/GUI/lvgl/src/misc/lv_area.c ****         corner_area.x2 += radius;
 221:../../Middlewares/LVGL/GUI/lvgl/src/misc/lv_area.c ****         corner_area.y1 -= radius;
 222:../../Middlewares/LVGL/GUI/lvgl/src/misc/lv_area.c ****         return lv_point_within_circle(&corner_area, p_p);
 223:../../Middlewares/LVGL/GUI/lvgl/src/misc/lv_area.c ****     }
 224:../../Middlewares/LVGL/GUI/lvgl/src/misc/lv_area.c ****     /*Bottom right*/
 225:../../Middlewares/LVGL/GUI/lvgl/src/misc/lv_area.c ****     corner_area.x1 = a_p->x2 - radius;
 226:../../Middlewares/LVGL/GUI/lvgl/src/misc/lv_area.c ****     corner_area.x2 = a_p->x2;
 227:../../Middlewares/LVGL/GUI/lvgl/src/misc/lv_area.c ****     if(lv_area_is_point_on(&corner_area, p_p, 0)) {
 228:../../Middlewares/LVGL/GUI/lvgl/src/misc/lv_area.c ****         corner_area.x1 -= radius;
 229:../../Middlewares/LVGL/GUI/lvgl/src/misc/lv_area.c ****         corner_area.y1 -= radius;
 230:../../Middlewares/LVGL/GUI/lvgl/src/misc/lv_area.c ****         return lv_point_within_circle(&corner_area, p_p);
 231:../../Middlewares/LVGL/GUI/lvgl/src/misc/lv_area.c ****     }
 232:../../Middlewares/LVGL/GUI/lvgl/src/misc/lv_area.c ****     /*Top right*/
 233:../../Middlewares/LVGL/GUI/lvgl/src/misc/lv_area.c ****     corner_area.y1 = a_p->y1;
 234:../../Middlewares/LVGL/GUI/lvgl/src/misc/lv_area.c ****     corner_area.y2 = a_p->y1 + radius;
 235:../../Middlewares/LVGL/GUI/lvgl/src/misc/lv_area.c ****     if(lv_area_is_point_on(&corner_area, p_p, 0)) {
 236:../../Middlewares/LVGL/GUI/lvgl/src/misc/lv_area.c ****         corner_area.x1 -= radius;
 237:../../Middlewares/LVGL/GUI/lvgl/src/misc/lv_area.c ****         corner_area.y2 += radius;
 238:../../Middlewares/LVGL/GUI/lvgl/src/misc/lv_area.c ****         return lv_point_within_circle(&corner_area, p_p);
 239:../../Middlewares/LVGL/GUI/lvgl/src/misc/lv_area.c ****     }
 240:../../Middlewares/LVGL/GUI/lvgl/src/misc/lv_area.c ****     /*Not within corners*/
 241:../../Middlewares/LVGL/GUI/lvgl/src/misc/lv_area.c ****     return true;
 242:../../Middlewares/LVGL/GUI/lvgl/src/misc/lv_area.c **** }
 243:../../Middlewares/LVGL/GUI/lvgl/src/misc/lv_area.c **** 
 244:../../Middlewares/LVGL/GUI/lvgl/src/misc/lv_area.c **** bool lv_area_is_on(const lv_area_t * a1_p, const lv_area_t * a2_p)
 245:../../Middlewares/LVGL/GUI/lvgl/src/misc/lv_area.c **** {
 246:../../Middlewares/LVGL/GUI/lvgl/src/misc/lv_area.c ****     if((a1_p->x1 <= a2_p->x2) && (a1_p->x2 >= a2_p->x1) && (a1_p->y1 <= a2_p->y2) && (a1_p->y2 >= a
 247:../../Middlewares/LVGL/GUI/lvgl/src/misc/lv_area.c ****         return true;
 248:../../Middlewares/LVGL/GUI/lvgl/src/misc/lv_area.c ****     }
 249:../../Middlewares/LVGL/GUI/lvgl/src/misc/lv_area.c ****     else {
 250:../../Middlewares/LVGL/GUI/lvgl/src/misc/lv_area.c ****         return false;
 251:../../Middlewares/LVGL/GUI/lvgl/src/misc/lv_area.c ****     }
 252:../../Middlewares/LVGL/GUI/lvgl/src/misc/lv_area.c **** }
 253:../../Middlewares/LVGL/GUI/lvgl/src/misc/lv_area.c **** 
 254:../../Middlewares/LVGL/GUI/lvgl/src/misc/lv_area.c **** bool lv_area_is_in(const lv_area_t * ain_p, const lv_area_t * aholder_p, int32_t radius)
 255:../../Middlewares/LVGL/GUI/lvgl/src/misc/lv_area.c **** {
 256:../../Middlewares/LVGL/GUI/lvgl/src/misc/lv_area.c ****     bool is_in = false;
 257:../../Middlewares/LVGL/GUI/lvgl/src/misc/lv_area.c **** 
 258:../../Middlewares/LVGL/GUI/lvgl/src/misc/lv_area.c ****     if(ain_p->x1 >= aholder_p->x1 && ain_p->y1 >= aholder_p->y1 && ain_p->x2 <= aholder_p->x2 &&
 259:../../Middlewares/LVGL/GUI/lvgl/src/misc/lv_area.c ****        ain_p->y2 <= aholder_p->y2) {
ARM GAS  C:\Users\28576\AppData\Local\Temp\ccYc01Pv.s 			page 6


 260:../../Middlewares/LVGL/GUI/lvgl/src/misc/lv_area.c ****         is_in = true;
 261:../../Middlewares/LVGL/GUI/lvgl/src/misc/lv_area.c ****     }
 262:../../Middlewares/LVGL/GUI/lvgl/src/misc/lv_area.c **** 
 263:../../Middlewares/LVGL/GUI/lvgl/src/misc/lv_area.c ****     if(!is_in) return false;
 264:../../Middlewares/LVGL/GUI/lvgl/src/misc/lv_area.c ****     if(radius == 0) return true;
 265:../../Middlewares/LVGL/GUI/lvgl/src/misc/lv_area.c **** 
 266:../../Middlewares/LVGL/GUI/lvgl/src/misc/lv_area.c ****     /*Check if the corner points are inside the radius or not*/
 267:../../Middlewares/LVGL/GUI/lvgl/src/misc/lv_area.c ****     lv_point_t p;
 268:../../Middlewares/LVGL/GUI/lvgl/src/misc/lv_area.c **** 
 269:../../Middlewares/LVGL/GUI/lvgl/src/misc/lv_area.c ****     lv_point_set(&p, ain_p->x1, ain_p->y1);
 270:../../Middlewares/LVGL/GUI/lvgl/src/misc/lv_area.c ****     if(lv_area_is_point_on(aholder_p, &p, radius) == false) return false;
 271:../../Middlewares/LVGL/GUI/lvgl/src/misc/lv_area.c **** 
 272:../../Middlewares/LVGL/GUI/lvgl/src/misc/lv_area.c ****     lv_point_set(&p, ain_p->x2, ain_p->y1);
 273:../../Middlewares/LVGL/GUI/lvgl/src/misc/lv_area.c ****     if(lv_area_is_point_on(aholder_p, &p, radius) == false) return false;
 274:../../Middlewares/LVGL/GUI/lvgl/src/misc/lv_area.c **** 
 275:../../Middlewares/LVGL/GUI/lvgl/src/misc/lv_area.c ****     lv_point_set(&p, ain_p->x1, ain_p->y2);
 276:../../Middlewares/LVGL/GUI/lvgl/src/misc/lv_area.c ****     if(lv_area_is_point_on(aholder_p, &p, radius) == false) return false;
 277:../../Middlewares/LVGL/GUI/lvgl/src/misc/lv_area.c **** 
 278:../../Middlewares/LVGL/GUI/lvgl/src/misc/lv_area.c ****     lv_point_set(&p, ain_p->x2, ain_p->y2);
 279:../../Middlewares/LVGL/GUI/lvgl/src/misc/lv_area.c ****     if(lv_area_is_point_on(aholder_p, &p, radius) == false) return false;
 280:../../Middlewares/LVGL/GUI/lvgl/src/misc/lv_area.c **** 
 281:../../Middlewares/LVGL/GUI/lvgl/src/misc/lv_area.c ****     return true;
 282:../../Middlewares/LVGL/GUI/lvgl/src/misc/lv_area.c **** }
 283:../../Middlewares/LVGL/GUI/lvgl/src/misc/lv_area.c **** 
 284:../../Middlewares/LVGL/GUI/lvgl/src/misc/lv_area.c **** bool lv_area_is_out(const lv_area_t * aout_p, const lv_area_t * aholder_p, int32_t radius)
 285:../../Middlewares/LVGL/GUI/lvgl/src/misc/lv_area.c **** {
 286:../../Middlewares/LVGL/GUI/lvgl/src/misc/lv_area.c ****     if(aout_p->x2 < aholder_p->x1 || aout_p->y2 < aholder_p->y1 || aout_p->x1 > aholder_p->x2 ||
 287:../../Middlewares/LVGL/GUI/lvgl/src/misc/lv_area.c ****        aout_p->y1 > aholder_p->y2) {
 288:../../Middlewares/LVGL/GUI/lvgl/src/misc/lv_area.c ****         return true;
 289:../../Middlewares/LVGL/GUI/lvgl/src/misc/lv_area.c ****     }
 290:../../Middlewares/LVGL/GUI/lvgl/src/misc/lv_area.c **** 
 291:../../Middlewares/LVGL/GUI/lvgl/src/misc/lv_area.c ****     if(radius == 0) return false;
 292:../../Middlewares/LVGL/GUI/lvgl/src/misc/lv_area.c **** 
 293:../../Middlewares/LVGL/GUI/lvgl/src/misc/lv_area.c ****     /*Check if the corner points are outside the radius or not*/
 294:../../Middlewares/LVGL/GUI/lvgl/src/misc/lv_area.c ****     lv_point_t p;
 295:../../Middlewares/LVGL/GUI/lvgl/src/misc/lv_area.c **** 
 296:../../Middlewares/LVGL/GUI/lvgl/src/misc/lv_area.c ****     lv_point_set(&p, aout_p->x1, aout_p->y1);
 297:../../Middlewares/LVGL/GUI/lvgl/src/misc/lv_area.c ****     if(lv_area_is_point_on(aholder_p, &p, radius)) return false;
 298:../../Middlewares/LVGL/GUI/lvgl/src/misc/lv_area.c **** 
 299:../../Middlewares/LVGL/GUI/lvgl/src/misc/lv_area.c ****     lv_point_set(&p, aout_p->x2, aout_p->y1);
 300:../../Middlewares/LVGL/GUI/lvgl/src/misc/lv_area.c ****     if(lv_area_is_point_on(aholder_p, &p, radius)) return false;
 301:../../Middlewares/LVGL/GUI/lvgl/src/misc/lv_area.c **** 
 302:../../Middlewares/LVGL/GUI/lvgl/src/misc/lv_area.c ****     lv_point_set(&p, aout_p->x1, aout_p->y2);
 303:../../Middlewares/LVGL/GUI/lvgl/src/misc/lv_area.c ****     if(lv_area_is_point_on(aholder_p, &p, radius)) return false;
 304:../../Middlewares/LVGL/GUI/lvgl/src/misc/lv_area.c **** 
 305:../../Middlewares/LVGL/GUI/lvgl/src/misc/lv_area.c ****     lv_point_set(&p, aout_p->x2, aout_p->y2);
 306:../../Middlewares/LVGL/GUI/lvgl/src/misc/lv_area.c ****     if(lv_area_is_point_on(aholder_p, &p, radius)) return false;
 307:../../Middlewares/LVGL/GUI/lvgl/src/misc/lv_area.c **** 
 308:../../Middlewares/LVGL/GUI/lvgl/src/misc/lv_area.c ****     return true;
 309:../../Middlewares/LVGL/GUI/lvgl/src/misc/lv_area.c **** }
 310:../../Middlewares/LVGL/GUI/lvgl/src/misc/lv_area.c **** 
 311:../../Middlewares/LVGL/GUI/lvgl/src/misc/lv_area.c **** bool lv_area_is_equal(const lv_area_t * a, const lv_area_t * b)
 312:../../Middlewares/LVGL/GUI/lvgl/src/misc/lv_area.c **** {
 313:../../Middlewares/LVGL/GUI/lvgl/src/misc/lv_area.c ****     return a->x1 == b->x1 && a->x2 == b->x2 && a->y1 == b->y1 && a->y2 == b->y2;
 314:../../Middlewares/LVGL/GUI/lvgl/src/misc/lv_area.c **** }
 315:../../Middlewares/LVGL/GUI/lvgl/src/misc/lv_area.c **** 
 316:../../Middlewares/LVGL/GUI/lvgl/src/misc/lv_area.c **** void lv_area_align(const lv_area_t * base, lv_area_t * to_align, lv_align_t align, int32_t ofs_x, i
ARM GAS  C:\Users\28576\AppData\Local\Temp\ccYc01Pv.s 			page 7


 317:../../Middlewares/LVGL/GUI/lvgl/src/misc/lv_area.c **** {
 318:../../Middlewares/LVGL/GUI/lvgl/src/misc/lv_area.c **** 
 319:../../Middlewares/LVGL/GUI/lvgl/src/misc/lv_area.c ****     int32_t x;
 320:../../Middlewares/LVGL/GUI/lvgl/src/misc/lv_area.c ****     int32_t y;
 321:../../Middlewares/LVGL/GUI/lvgl/src/misc/lv_area.c ****     switch(align) {
 322:../../Middlewares/LVGL/GUI/lvgl/src/misc/lv_area.c ****         case LV_ALIGN_CENTER:
 323:../../Middlewares/LVGL/GUI/lvgl/src/misc/lv_area.c ****             x = lv_area_get_width(base) / 2 - lv_area_get_width(to_align) / 2;
 324:../../Middlewares/LVGL/GUI/lvgl/src/misc/lv_area.c ****             y = lv_area_get_height(base) / 2 - lv_area_get_height(to_align) / 2;
 325:../../Middlewares/LVGL/GUI/lvgl/src/misc/lv_area.c ****             break;
 326:../../Middlewares/LVGL/GUI/lvgl/src/misc/lv_area.c **** 
 327:../../Middlewares/LVGL/GUI/lvgl/src/misc/lv_area.c ****         case LV_ALIGN_TOP_LEFT:
 328:../../Middlewares/LVGL/GUI/lvgl/src/misc/lv_area.c ****             x = 0;
 329:../../Middlewares/LVGL/GUI/lvgl/src/misc/lv_area.c ****             y = 0;
 330:../../Middlewares/LVGL/GUI/lvgl/src/misc/lv_area.c ****             break;
 331:../../Middlewares/LVGL/GUI/lvgl/src/misc/lv_area.c ****         case LV_ALIGN_TOP_MID:
 332:../../Middlewares/LVGL/GUI/lvgl/src/misc/lv_area.c ****             x = lv_area_get_width(base) / 2 - lv_area_get_width(to_align) / 2;
 333:../../Middlewares/LVGL/GUI/lvgl/src/misc/lv_area.c ****             y = 0;
 334:../../Middlewares/LVGL/GUI/lvgl/src/misc/lv_area.c ****             break;
 335:../../Middlewares/LVGL/GUI/lvgl/src/misc/lv_area.c **** 
 336:../../Middlewares/LVGL/GUI/lvgl/src/misc/lv_area.c ****         case LV_ALIGN_TOP_RIGHT:
 337:../../Middlewares/LVGL/GUI/lvgl/src/misc/lv_area.c ****             x = lv_area_get_width(base) - lv_area_get_width(to_align);
 338:../../Middlewares/LVGL/GUI/lvgl/src/misc/lv_area.c ****             y = 0;
 339:../../Middlewares/LVGL/GUI/lvgl/src/misc/lv_area.c ****             break;
 340:../../Middlewares/LVGL/GUI/lvgl/src/misc/lv_area.c **** 
 341:../../Middlewares/LVGL/GUI/lvgl/src/misc/lv_area.c ****         case LV_ALIGN_BOTTOM_LEFT:
 342:../../Middlewares/LVGL/GUI/lvgl/src/misc/lv_area.c ****             x = 0;
 343:../../Middlewares/LVGL/GUI/lvgl/src/misc/lv_area.c ****             y = lv_area_get_height(base) - lv_area_get_height(to_align);
 344:../../Middlewares/LVGL/GUI/lvgl/src/misc/lv_area.c ****             break;
 345:../../Middlewares/LVGL/GUI/lvgl/src/misc/lv_area.c ****         case LV_ALIGN_BOTTOM_MID:
 346:../../Middlewares/LVGL/GUI/lvgl/src/misc/lv_area.c ****             x = lv_area_get_width(base) / 2 - lv_area_get_width(to_align) / 2;
 347:../../Middlewares/LVGL/GUI/lvgl/src/misc/lv_area.c ****             y = lv_area_get_height(base) - lv_area_get_height(to_align);
 348:../../Middlewares/LVGL/GUI/lvgl/src/misc/lv_area.c ****             break;
 349:../../Middlewares/LVGL/GUI/lvgl/src/misc/lv_area.c **** 
 350:../../Middlewares/LVGL/GUI/lvgl/src/misc/lv_area.c ****         case LV_ALIGN_BOTTOM_RIGHT:
 351:../../Middlewares/LVGL/GUI/lvgl/src/misc/lv_area.c ****             x = lv_area_get_width(base) - lv_area_get_width(to_align);
 352:../../Middlewares/LVGL/GUI/lvgl/src/misc/lv_area.c ****             y = lv_area_get_height(base) - lv_area_get_height(to_align);
 353:../../Middlewares/LVGL/GUI/lvgl/src/misc/lv_area.c ****             break;
 354:../../Middlewares/LVGL/GUI/lvgl/src/misc/lv_area.c **** 
 355:../../Middlewares/LVGL/GUI/lvgl/src/misc/lv_area.c ****         case LV_ALIGN_LEFT_MID:
 356:../../Middlewares/LVGL/GUI/lvgl/src/misc/lv_area.c ****             x = 0;
 357:../../Middlewares/LVGL/GUI/lvgl/src/misc/lv_area.c ****             y = lv_area_get_height(base) / 2 - lv_area_get_height(to_align) / 2;
 358:../../Middlewares/LVGL/GUI/lvgl/src/misc/lv_area.c ****             break;
 359:../../Middlewares/LVGL/GUI/lvgl/src/misc/lv_area.c **** 
 360:../../Middlewares/LVGL/GUI/lvgl/src/misc/lv_area.c ****         case LV_ALIGN_RIGHT_MID:
 361:../../Middlewares/LVGL/GUI/lvgl/src/misc/lv_area.c ****             x = lv_area_get_width(base) - lv_area_get_width(to_align);
 362:../../Middlewares/LVGL/GUI/lvgl/src/misc/lv_area.c ****             y = lv_area_get_height(base) / 2 - lv_area_get_height(to_align) / 2;
 363:../../Middlewares/LVGL/GUI/lvgl/src/misc/lv_area.c ****             break;
 364:../../Middlewares/LVGL/GUI/lvgl/src/misc/lv_area.c **** 
 365:../../Middlewares/LVGL/GUI/lvgl/src/misc/lv_area.c ****         case LV_ALIGN_OUT_TOP_LEFT:
 366:../../Middlewares/LVGL/GUI/lvgl/src/misc/lv_area.c ****             x = 0;
 367:../../Middlewares/LVGL/GUI/lvgl/src/misc/lv_area.c ****             y = -lv_area_get_height(to_align);
 368:../../Middlewares/LVGL/GUI/lvgl/src/misc/lv_area.c ****             break;
 369:../../Middlewares/LVGL/GUI/lvgl/src/misc/lv_area.c **** 
 370:../../Middlewares/LVGL/GUI/lvgl/src/misc/lv_area.c ****         case LV_ALIGN_OUT_TOP_MID:
 371:../../Middlewares/LVGL/GUI/lvgl/src/misc/lv_area.c ****             x = lv_area_get_width(base) / 2 - lv_area_get_width(to_align) / 2;
 372:../../Middlewares/LVGL/GUI/lvgl/src/misc/lv_area.c ****             y = -lv_area_get_height(to_align);
 373:../../Middlewares/LVGL/GUI/lvgl/src/misc/lv_area.c ****             break;
ARM GAS  C:\Users\28576\AppData\Local\Temp\ccYc01Pv.s 			page 8


 374:../../Middlewares/LVGL/GUI/lvgl/src/misc/lv_area.c **** 
 375:../../Middlewares/LVGL/GUI/lvgl/src/misc/lv_area.c ****         case LV_ALIGN_OUT_TOP_RIGHT:
 376:../../Middlewares/LVGL/GUI/lvgl/src/misc/lv_area.c ****             x = lv_area_get_width(base) - lv_area_get_width(to_align);
 377:../../Middlewares/LVGL/GUI/lvgl/src/misc/lv_area.c ****             y = -lv_area_get_height(to_align);
 378:../../Middlewares/LVGL/GUI/lvgl/src/misc/lv_area.c ****             break;
 379:../../Middlewares/LVGL/GUI/lvgl/src/misc/lv_area.c **** 
 380:../../Middlewares/LVGL/GUI/lvgl/src/misc/lv_area.c ****         case LV_ALIGN_OUT_BOTTOM_LEFT:
 381:../../Middlewares/LVGL/GUI/lvgl/src/misc/lv_area.c ****             x = 0;
 382:../../Middlewares/LVGL/GUI/lvgl/src/misc/lv_area.c ****             y = lv_area_get_height(base);
 383:../../Middlewares/LVGL/GUI/lvgl/src/misc/lv_area.c ****             break;
 384:../../Middlewares/LVGL/GUI/lvgl/src/misc/lv_area.c **** 
 385:../../Middlewares/LVGL/GUI/lvgl/src/misc/lv_area.c ****         case LV_ALIGN_OUT_BOTTOM_MID:
 386:../../Middlewares/LVGL/GUI/lvgl/src/misc/lv_area.c ****             x = lv_area_get_width(base) / 2 - lv_area_get_width(to_align) / 2;
 387:../../Middlewares/LVGL/GUI/lvgl/src/misc/lv_area.c ****             y = lv_area_get_height(base);
 388:../../Middlewares/LVGL/GUI/lvgl/src/misc/lv_area.c ****             break;
 389:../../Middlewares/LVGL/GUI/lvgl/src/misc/lv_area.c **** 
 390:../../Middlewares/LVGL/GUI/lvgl/src/misc/lv_area.c ****         case LV_ALIGN_OUT_BOTTOM_RIGHT:
 391:../../Middlewares/LVGL/GUI/lvgl/src/misc/lv_area.c ****             x = lv_area_get_width(base) - lv_area_get_width(to_align);
 392:../../Middlewares/LVGL/GUI/lvgl/src/misc/lv_area.c ****             y = lv_area_get_height(base);
 393:../../Middlewares/LVGL/GUI/lvgl/src/misc/lv_area.c ****             break;
 394:../../Middlewares/LVGL/GUI/lvgl/src/misc/lv_area.c **** 
 395:../../Middlewares/LVGL/GUI/lvgl/src/misc/lv_area.c ****         case LV_ALIGN_OUT_LEFT_TOP:
 396:../../Middlewares/LVGL/GUI/lvgl/src/misc/lv_area.c ****             x = -lv_area_get_width(to_align);
 397:../../Middlewares/LVGL/GUI/lvgl/src/misc/lv_area.c ****             y = 0;
 398:../../Middlewares/LVGL/GUI/lvgl/src/misc/lv_area.c ****             break;
 399:../../Middlewares/LVGL/GUI/lvgl/src/misc/lv_area.c **** 
 400:../../Middlewares/LVGL/GUI/lvgl/src/misc/lv_area.c ****         case LV_ALIGN_OUT_LEFT_MID:
 401:../../Middlewares/LVGL/GUI/lvgl/src/misc/lv_area.c ****             x = -lv_area_get_width(to_align);
 402:../../Middlewares/LVGL/GUI/lvgl/src/misc/lv_area.c ****             y = lv_area_get_height(base) / 2 - lv_area_get_height(to_align) / 2;
 403:../../Middlewares/LVGL/GUI/lvgl/src/misc/lv_area.c ****             break;
 404:../../Middlewares/LVGL/GUI/lvgl/src/misc/lv_area.c **** 
 405:../../Middlewares/LVGL/GUI/lvgl/src/misc/lv_area.c ****         case LV_ALIGN_OUT_LEFT_BOTTOM:
 406:../../Middlewares/LVGL/GUI/lvgl/src/misc/lv_area.c ****             x = -lv_area_get_width(to_align);
 407:../../Middlewares/LVGL/GUI/lvgl/src/misc/lv_area.c ****             y = lv_area_get_height(base) - lv_area_get_height(to_align);
 408:../../Middlewares/LVGL/GUI/lvgl/src/misc/lv_area.c ****             break;
 409:../../Middlewares/LVGL/GUI/lvgl/src/misc/lv_area.c **** 
 410:../../Middlewares/LVGL/GUI/lvgl/src/misc/lv_area.c ****         case LV_ALIGN_OUT_RIGHT_TOP:
 411:../../Middlewares/LVGL/GUI/lvgl/src/misc/lv_area.c ****             x = lv_area_get_width(base);
 412:../../Middlewares/LVGL/GUI/lvgl/src/misc/lv_area.c ****             y = 0;
 413:../../Middlewares/LVGL/GUI/lvgl/src/misc/lv_area.c ****             break;
 414:../../Middlewares/LVGL/GUI/lvgl/src/misc/lv_area.c **** 
 415:../../Middlewares/LVGL/GUI/lvgl/src/misc/lv_area.c ****         case LV_ALIGN_OUT_RIGHT_MID:
 416:../../Middlewares/LVGL/GUI/lvgl/src/misc/lv_area.c ****             x = lv_area_get_width(base);
 417:../../Middlewares/LVGL/GUI/lvgl/src/misc/lv_area.c ****             y = lv_area_get_height(base) / 2 - lv_area_get_height(to_align) / 2;
 418:../../Middlewares/LVGL/GUI/lvgl/src/misc/lv_area.c ****             break;
 419:../../Middlewares/LVGL/GUI/lvgl/src/misc/lv_area.c **** 
 420:../../Middlewares/LVGL/GUI/lvgl/src/misc/lv_area.c ****         case LV_ALIGN_OUT_RIGHT_BOTTOM:
 421:../../Middlewares/LVGL/GUI/lvgl/src/misc/lv_area.c ****             x = lv_area_get_width(base);
 422:../../Middlewares/LVGL/GUI/lvgl/src/misc/lv_area.c ****             y = lv_area_get_height(base) - lv_area_get_height(to_align);
 423:../../Middlewares/LVGL/GUI/lvgl/src/misc/lv_area.c ****             break;
 424:../../Middlewares/LVGL/GUI/lvgl/src/misc/lv_area.c ****         default:
 425:../../Middlewares/LVGL/GUI/lvgl/src/misc/lv_area.c ****             x = 0;
 426:../../Middlewares/LVGL/GUI/lvgl/src/misc/lv_area.c ****             y = 0;
 427:../../Middlewares/LVGL/GUI/lvgl/src/misc/lv_area.c ****             break;
 428:../../Middlewares/LVGL/GUI/lvgl/src/misc/lv_area.c ****     }
 429:../../Middlewares/LVGL/GUI/lvgl/src/misc/lv_area.c **** 
 430:../../Middlewares/LVGL/GUI/lvgl/src/misc/lv_area.c ****     x += base->x1;
ARM GAS  C:\Users\28576\AppData\Local\Temp\ccYc01Pv.s 			page 9


 431:../../Middlewares/LVGL/GUI/lvgl/src/misc/lv_area.c ****     y += base->y1;
 432:../../Middlewares/LVGL/GUI/lvgl/src/misc/lv_area.c **** 
 433:../../Middlewares/LVGL/GUI/lvgl/src/misc/lv_area.c ****     int32_t w = lv_area_get_width(to_align);
 434:../../Middlewares/LVGL/GUI/lvgl/src/misc/lv_area.c ****     int32_t h = lv_area_get_height(to_align);
 435:../../Middlewares/LVGL/GUI/lvgl/src/misc/lv_area.c ****     to_align->x1 = x + ofs_x;
 436:../../Middlewares/LVGL/GUI/lvgl/src/misc/lv_area.c ****     to_align->y1 = y + ofs_y;
 437:../../Middlewares/LVGL/GUI/lvgl/src/misc/lv_area.c ****     to_align->x2 = to_align->x1 + w - 1;
 438:../../Middlewares/LVGL/GUI/lvgl/src/misc/lv_area.c ****     to_align->y2 = to_align->y1 + h - 1;
 439:../../Middlewares/LVGL/GUI/lvgl/src/misc/lv_area.c **** }
 440:../../Middlewares/LVGL/GUI/lvgl/src/misc/lv_area.c **** 
 441:../../Middlewares/LVGL/GUI/lvgl/src/misc/lv_area.c **** #define LV_TRANSFORM_TRIGO_SHIFT 10
 442:../../Middlewares/LVGL/GUI/lvgl/src/misc/lv_area.c **** 
 443:../../Middlewares/LVGL/GUI/lvgl/src/misc/lv_area.c **** void lv_point_transform(lv_point_t * point, int32_t angle, int32_t scale_x, int32_t scale_y, const 
 444:../../Middlewares/LVGL/GUI/lvgl/src/misc/lv_area.c ****                         bool zoom_first)
 445:../../Middlewares/LVGL/GUI/lvgl/src/misc/lv_area.c **** {
 446:../../Middlewares/LVGL/GUI/lvgl/src/misc/lv_area.c ****     lv_point_array_transform(point, 1, angle, scale_x, scale_y, pivot, zoom_first);
 447:../../Middlewares/LVGL/GUI/lvgl/src/misc/lv_area.c **** }
 448:../../Middlewares/LVGL/GUI/lvgl/src/misc/lv_area.c **** 
 449:../../Middlewares/LVGL/GUI/lvgl/src/misc/lv_area.c **** void lv_point_array_transform(lv_point_t * points, size_t count, int32_t angle, int32_t scale_x, in
 450:../../Middlewares/LVGL/GUI/lvgl/src/misc/lv_area.c ****                               const lv_point_t * pivot,
 451:../../Middlewares/LVGL/GUI/lvgl/src/misc/lv_area.c ****                               bool zoom_first)
 452:../../Middlewares/LVGL/GUI/lvgl/src/misc/lv_area.c **** {
 453:../../Middlewares/LVGL/GUI/lvgl/src/misc/lv_area.c ****     if(angle == 0 && scale_x == 256 && scale_y == 256) {
 454:../../Middlewares/LVGL/GUI/lvgl/src/misc/lv_area.c ****         return;
 455:../../Middlewares/LVGL/GUI/lvgl/src/misc/lv_area.c ****     }
 456:../../Middlewares/LVGL/GUI/lvgl/src/misc/lv_area.c ****     uint32_t i;
 457:../../Middlewares/LVGL/GUI/lvgl/src/misc/lv_area.c ****     for(i = 0; i < count; i++) {
 458:../../Middlewares/LVGL/GUI/lvgl/src/misc/lv_area.c ****         points[i].x -= pivot->x;
 459:../../Middlewares/LVGL/GUI/lvgl/src/misc/lv_area.c ****         points[i].y -= pivot->y;
 460:../../Middlewares/LVGL/GUI/lvgl/src/misc/lv_area.c **** 
 461:../../Middlewares/LVGL/GUI/lvgl/src/misc/lv_area.c ****     }
 462:../../Middlewares/LVGL/GUI/lvgl/src/misc/lv_area.c **** 
 463:../../Middlewares/LVGL/GUI/lvgl/src/misc/lv_area.c ****     if(angle == 0) {
 464:../../Middlewares/LVGL/GUI/lvgl/src/misc/lv_area.c ****         for(i = 0; i < count; i++) {
 465:../../Middlewares/LVGL/GUI/lvgl/src/misc/lv_area.c ****             points[i].x = (((int32_t)(points[i].x) * scale_x) >> 8) + pivot->x;
 466:../../Middlewares/LVGL/GUI/lvgl/src/misc/lv_area.c ****             points[i].y = (((int32_t)(points[i].y) * scale_y) >> 8) + pivot->y;
 467:../../Middlewares/LVGL/GUI/lvgl/src/misc/lv_area.c ****         }
 468:../../Middlewares/LVGL/GUI/lvgl/src/misc/lv_area.c ****         return;
 469:../../Middlewares/LVGL/GUI/lvgl/src/misc/lv_area.c ****     }
 470:../../Middlewares/LVGL/GUI/lvgl/src/misc/lv_area.c **** 
 471:../../Middlewares/LVGL/GUI/lvgl/src/misc/lv_area.c ****     int32_t angle_limited = angle;
 472:../../Middlewares/LVGL/GUI/lvgl/src/misc/lv_area.c ****     if(angle_limited > 3600) angle_limited -= 3600;
 473:../../Middlewares/LVGL/GUI/lvgl/src/misc/lv_area.c ****     if(angle_limited < 0) angle_limited += 3600;
 474:../../Middlewares/LVGL/GUI/lvgl/src/misc/lv_area.c **** 
 475:../../Middlewares/LVGL/GUI/lvgl/src/misc/lv_area.c ****     int32_t angle_low = angle_limited / 10;
 476:../../Middlewares/LVGL/GUI/lvgl/src/misc/lv_area.c ****     int32_t angle_high = angle_low + 1;
 477:../../Middlewares/LVGL/GUI/lvgl/src/misc/lv_area.c ****     int32_t angle_rem = angle_limited  - (angle_low * 10);
 478:../../Middlewares/LVGL/GUI/lvgl/src/misc/lv_area.c **** 
 479:../../Middlewares/LVGL/GUI/lvgl/src/misc/lv_area.c ****     int32_t s1 = lv_trigo_sin(angle_low);
 480:../../Middlewares/LVGL/GUI/lvgl/src/misc/lv_area.c ****     int32_t s2 = lv_trigo_sin(angle_high);
 481:../../Middlewares/LVGL/GUI/lvgl/src/misc/lv_area.c **** 
 482:../../Middlewares/LVGL/GUI/lvgl/src/misc/lv_area.c ****     int32_t c1 = lv_trigo_sin(angle_low + 90);
 483:../../Middlewares/LVGL/GUI/lvgl/src/misc/lv_area.c ****     int32_t c2 = lv_trigo_sin(angle_high + 90);
 484:../../Middlewares/LVGL/GUI/lvgl/src/misc/lv_area.c **** 
 485:../../Middlewares/LVGL/GUI/lvgl/src/misc/lv_area.c ****     int32_t sinma = (s1 * (10 - angle_rem) + s2 * angle_rem) / 10;
 486:../../Middlewares/LVGL/GUI/lvgl/src/misc/lv_area.c ****     sinma = sinma >> (LV_TRIGO_SHIFT - LV_TRANSFORM_TRIGO_SHIFT);
 487:../../Middlewares/LVGL/GUI/lvgl/src/misc/lv_area.c ****     int32_t cosma = (c1 * (10 - angle_rem) + c2 * angle_rem) / 10;
ARM GAS  C:\Users\28576\AppData\Local\Temp\ccYc01Pv.s 			page 10


 488:../../Middlewares/LVGL/GUI/lvgl/src/misc/lv_area.c ****     cosma = cosma >> (LV_TRIGO_SHIFT - LV_TRANSFORM_TRIGO_SHIFT);
 489:../../Middlewares/LVGL/GUI/lvgl/src/misc/lv_area.c **** 
 490:../../Middlewares/LVGL/GUI/lvgl/src/misc/lv_area.c ****     for(i = 0; i < count; i++) {
 491:../../Middlewares/LVGL/GUI/lvgl/src/misc/lv_area.c ****         int32_t x = points[i].x;
 492:../../Middlewares/LVGL/GUI/lvgl/src/misc/lv_area.c ****         int32_t y = points[i].y;
 493:../../Middlewares/LVGL/GUI/lvgl/src/misc/lv_area.c ****         if(scale_x == 256 && scale_y == 256) {
 494:../../Middlewares/LVGL/GUI/lvgl/src/misc/lv_area.c ****             points[i].x = ((cosma * x - sinma * y) >> LV_TRANSFORM_TRIGO_SHIFT) + pivot->x;
 495:../../Middlewares/LVGL/GUI/lvgl/src/misc/lv_area.c ****             points[i].y = ((sinma * x + cosma * y) >> LV_TRANSFORM_TRIGO_SHIFT) + pivot->y;
 496:../../Middlewares/LVGL/GUI/lvgl/src/misc/lv_area.c ****         }
 497:../../Middlewares/LVGL/GUI/lvgl/src/misc/lv_area.c ****         else {
 498:../../Middlewares/LVGL/GUI/lvgl/src/misc/lv_area.c ****             if(zoom_first) {
 499:../../Middlewares/LVGL/GUI/lvgl/src/misc/lv_area.c ****                 x *= scale_x;
 500:../../Middlewares/LVGL/GUI/lvgl/src/misc/lv_area.c ****                 y *= scale_y;
 501:../../Middlewares/LVGL/GUI/lvgl/src/misc/lv_area.c ****                 points[i].x = (((cosma * x - sinma * y)) >> (LV_TRANSFORM_TRIGO_SHIFT + 8)) + pivot
 502:../../Middlewares/LVGL/GUI/lvgl/src/misc/lv_area.c ****                 points[i].y = (((sinma * x + cosma * y)) >> (LV_TRANSFORM_TRIGO_SHIFT + 8)) + pivot
 503:../../Middlewares/LVGL/GUI/lvgl/src/misc/lv_area.c ****             }
 504:../../Middlewares/LVGL/GUI/lvgl/src/misc/lv_area.c ****             else {
 505:../../Middlewares/LVGL/GUI/lvgl/src/misc/lv_area.c ****                 points[i].x = (((cosma * x - sinma * y) * scale_x) >> (LV_TRANSFORM_TRIGO_SHIFT + 8
 506:../../Middlewares/LVGL/GUI/lvgl/src/misc/lv_area.c ****                 points[i].y = (((sinma * x + cosma * y) * scale_y) >> (LV_TRANSFORM_TRIGO_SHIFT + 8
 507:../../Middlewares/LVGL/GUI/lvgl/src/misc/lv_area.c ****             }
 508:../../Middlewares/LVGL/GUI/lvgl/src/misc/lv_area.c ****         }
 509:../../Middlewares/LVGL/GUI/lvgl/src/misc/lv_area.c ****     }
 510:../../Middlewares/LVGL/GUI/lvgl/src/misc/lv_area.c **** }
 511:../../Middlewares/LVGL/GUI/lvgl/src/misc/lv_area.c **** 
 512:../../Middlewares/LVGL/GUI/lvgl/src/misc/lv_area.c **** int32_t lv_area_get_width(const lv_area_t * area_p)
 513:../../Middlewares/LVGL/GUI/lvgl/src/misc/lv_area.c **** {
 514:../../Middlewares/LVGL/GUI/lvgl/src/misc/lv_area.c ****     return (int32_t)(area_p->x2 - area_p->x1 + 1);
 515:../../Middlewares/LVGL/GUI/lvgl/src/misc/lv_area.c **** }
 516:../../Middlewares/LVGL/GUI/lvgl/src/misc/lv_area.c **** 
 517:../../Middlewares/LVGL/GUI/lvgl/src/misc/lv_area.c **** int32_t lv_area_get_height(const lv_area_t * area_p)
 518:../../Middlewares/LVGL/GUI/lvgl/src/misc/lv_area.c **** {
 519:../../Middlewares/LVGL/GUI/lvgl/src/misc/lv_area.c ****     return (int32_t)(area_p->y2 - area_p->y1 + 1);
 520:../../Middlewares/LVGL/GUI/lvgl/src/misc/lv_area.c **** }
 521:../../Middlewares/LVGL/GUI/lvgl/src/misc/lv_area.c **** 
 522:../../Middlewares/LVGL/GUI/lvgl/src/misc/lv_area.c **** lv_point_t lv_point_from_precise(const lv_point_precise_t * p)
 523:../../Middlewares/LVGL/GUI/lvgl/src/misc/lv_area.c **** {
 524:../../Middlewares/LVGL/GUI/lvgl/src/misc/lv_area.c ****     lv_point_t point = {
 525:../../Middlewares/LVGL/GUI/lvgl/src/misc/lv_area.c ****         (int32_t)p->x, (int32_t)p->y
 526:../../Middlewares/LVGL/GUI/lvgl/src/misc/lv_area.c ****     };
 527:../../Middlewares/LVGL/GUI/lvgl/src/misc/lv_area.c **** 
 528:../../Middlewares/LVGL/GUI/lvgl/src/misc/lv_area.c ****     return point;
 529:../../Middlewares/LVGL/GUI/lvgl/src/misc/lv_area.c **** }
 530:../../Middlewares/LVGL/GUI/lvgl/src/misc/lv_area.c **** 
 531:../../Middlewares/LVGL/GUI/lvgl/src/misc/lv_area.c **** lv_point_precise_t lv_point_to_precise(const lv_point_t * p)
 532:../../Middlewares/LVGL/GUI/lvgl/src/misc/lv_area.c **** {
 533:../../Middlewares/LVGL/GUI/lvgl/src/misc/lv_area.c ****     lv_point_precise_t point = {
 534:../../Middlewares/LVGL/GUI/lvgl/src/misc/lv_area.c ****         (lv_value_precise_t)p->x, (lv_value_precise_t)p->y
 535:../../Middlewares/LVGL/GUI/lvgl/src/misc/lv_area.c ****     };
 536:../../Middlewares/LVGL/GUI/lvgl/src/misc/lv_area.c **** 
 537:../../Middlewares/LVGL/GUI/lvgl/src/misc/lv_area.c ****     return point;
 538:../../Middlewares/LVGL/GUI/lvgl/src/misc/lv_area.c **** }
 539:../../Middlewares/LVGL/GUI/lvgl/src/misc/lv_area.c **** 
 540:../../Middlewares/LVGL/GUI/lvgl/src/misc/lv_area.c **** void lv_point_set(lv_point_t * p, int32_t x, int32_t y)
 541:../../Middlewares/LVGL/GUI/lvgl/src/misc/lv_area.c **** {
 542:../../Middlewares/LVGL/GUI/lvgl/src/misc/lv_area.c ****     p->x = x;
 543:../../Middlewares/LVGL/GUI/lvgl/src/misc/lv_area.c ****     p->y = y;
 544:../../Middlewares/LVGL/GUI/lvgl/src/misc/lv_area.c **** }
ARM GAS  C:\Users\28576\AppData\Local\Temp\ccYc01Pv.s 			page 11


 545:../../Middlewares/LVGL/GUI/lvgl/src/misc/lv_area.c **** 
 546:../../Middlewares/LVGL/GUI/lvgl/src/misc/lv_area.c **** void lv_point_precise_set(lv_point_precise_t * p, lv_value_precise_t x, lv_value_precise_t y)
 547:../../Middlewares/LVGL/GUI/lvgl/src/misc/lv_area.c **** {
 548:../../Middlewares/LVGL/GUI/lvgl/src/misc/lv_area.c ****     p->x = x;
 549:../../Middlewares/LVGL/GUI/lvgl/src/misc/lv_area.c ****     p->y = y;
 550:../../Middlewares/LVGL/GUI/lvgl/src/misc/lv_area.c **** }
 551:../../Middlewares/LVGL/GUI/lvgl/src/misc/lv_area.c **** 
 552:../../Middlewares/LVGL/GUI/lvgl/src/misc/lv_area.c **** void lv_point_swap(lv_point_t * p1, lv_point_t * p2)
 553:../../Middlewares/LVGL/GUI/lvgl/src/misc/lv_area.c **** {
 554:../../Middlewares/LVGL/GUI/lvgl/src/misc/lv_area.c ****     lv_point_t tmp = *p1;
 555:../../Middlewares/LVGL/GUI/lvgl/src/misc/lv_area.c ****     *p1 = *p2;
 556:../../Middlewares/LVGL/GUI/lvgl/src/misc/lv_area.c ****     *p2 = tmp;
 557:../../Middlewares/LVGL/GUI/lvgl/src/misc/lv_area.c **** }
 558:../../Middlewares/LVGL/GUI/lvgl/src/misc/lv_area.c **** 
 559:../../Middlewares/LVGL/GUI/lvgl/src/misc/lv_area.c **** void lv_point_precise_swap(lv_point_precise_t * p1, lv_point_precise_t * p2)
 560:../../Middlewares/LVGL/GUI/lvgl/src/misc/lv_area.c **** {
 561:../../Middlewares/LVGL/GUI/lvgl/src/misc/lv_area.c ****     lv_point_precise_t tmp = *p1;
 562:../../Middlewares/LVGL/GUI/lvgl/src/misc/lv_area.c ****     *p1 = *p2;
 563:../../Middlewares/LVGL/GUI/lvgl/src/misc/lv_area.c ****     *p2 = tmp;
 564:../../Middlewares/LVGL/GUI/lvgl/src/misc/lv_area.c **** }
 565:../../Middlewares/LVGL/GUI/lvgl/src/misc/lv_area.c **** 
 566:../../Middlewares/LVGL/GUI/lvgl/src/misc/lv_area.c **** int32_t lv_pct(int32_t x)
 567:../../Middlewares/LVGL/GUI/lvgl/src/misc/lv_area.c **** {
 568:../../Middlewares/LVGL/GUI/lvgl/src/misc/lv_area.c ****     return LV_PCT(x);
 569:../../Middlewares/LVGL/GUI/lvgl/src/misc/lv_area.c **** }
 570:../../Middlewares/LVGL/GUI/lvgl/src/misc/lv_area.c **** 
 571:../../Middlewares/LVGL/GUI/lvgl/src/misc/lv_area.c **** int32_t lv_pct_to_px(int32_t v, int32_t base)
 572:../../Middlewares/LVGL/GUI/lvgl/src/misc/lv_area.c **** {
 573:../../Middlewares/LVGL/GUI/lvgl/src/misc/lv_area.c ****     if(LV_COORD_IS_PCT(v)) {
 574:../../Middlewares/LVGL/GUI/lvgl/src/misc/lv_area.c ****         return (LV_COORD_GET_PCT(v) * base) / 100;
 575:../../Middlewares/LVGL/GUI/lvgl/src/misc/lv_area.c ****     }
 576:../../Middlewares/LVGL/GUI/lvgl/src/misc/lv_area.c **** 
 577:../../Middlewares/LVGL/GUI/lvgl/src/misc/lv_area.c ****     return v;
 578:../../Middlewares/LVGL/GUI/lvgl/src/misc/lv_area.c **** }
 579:../../Middlewares/LVGL/GUI/lvgl/src/misc/lv_area.c **** 
 580:../../Middlewares/LVGL/GUI/lvgl/src/misc/lv_area.c **** /**********************
 581:../../Middlewares/LVGL/GUI/lvgl/src/misc/lv_area.c ****  *   STATIC FUNCTIONS
 582:../../Middlewares/LVGL/GUI/lvgl/src/misc/lv_area.c ****  **********************/
 583:../../Middlewares/LVGL/GUI/lvgl/src/misc/lv_area.c **** 
 584:../../Middlewares/LVGL/GUI/lvgl/src/misc/lv_area.c **** static bool lv_point_within_circle(const lv_area_t * area, const lv_point_t * p)
 585:../../Middlewares/LVGL/GUI/lvgl/src/misc/lv_area.c **** {
  28              		.loc 1 585 1 view -0
  29              		.cfi_startproc
  30              		@ args = 0, pretend = 0, frame = 0
  31              		@ frame_needed = 0, uses_anonymous_args = 0
  32              		@ link register save eliminated.
 586:../../Middlewares/LVGL/GUI/lvgl/src/misc/lv_area.c ****     int32_t r = (area->x2 - area->x1) / 2;
  33              		.loc 1 586 5 view .LVU1
  34              		.loc 1 586 22 is_stmt 0 view .LVU2
  35 0000 8368     		ldr	r3, [r0, #8]
  36              		.loc 1 586 33 view .LVU3
  37 0002 0268     		ldr	r2, [r0]
  38              		.loc 1 586 13 view .LVU4
  39 0004 9B1A     		subs	r3, r3, r2
  40 0006 14D4     		bmi	.L5
  41              	.L2:
  42 0008 4FEA630C 		asr	ip, r3, #1
ARM GAS  C:\Users\28576\AppData\Local\Temp\ccYc01Pv.s 			page 12


  43              	.LVL1:
 587:../../Middlewares/LVGL/GUI/lvgl/src/misc/lv_area.c **** 
 588:../../Middlewares/LVGL/GUI/lvgl/src/misc/lv_area.c ****     /*Circle center*/
 589:../../Middlewares/LVGL/GUI/lvgl/src/misc/lv_area.c ****     int32_t cx = area->x1 + r;
  44              		.loc 1 589 5 is_stmt 1 view .LVU5
  45              		.loc 1 589 13 is_stmt 0 view .LVU6
  46 000c 02EB6302 		add	r2, r2, r3, asr #1
  47              	.LVL2:
 590:../../Middlewares/LVGL/GUI/lvgl/src/misc/lv_area.c ****     int32_t cy = area->y1 + r;
  48              		.loc 1 590 5 is_stmt 1 view .LVU7
  49              		.loc 1 590 22 is_stmt 0 view .LVU8
  50 0010 4068     		ldr	r0, [r0, #4]
  51              	.LVL3:
  52              		.loc 1 590 13 view .LVU9
  53 0012 00EB6300 		add	r0, r0, r3, asr #1
  54              	.LVL4:
 591:../../Middlewares/LVGL/GUI/lvgl/src/misc/lv_area.c **** 
 592:../../Middlewares/LVGL/GUI/lvgl/src/misc/lv_area.c ****     /*Simplify the code by moving everything to (0, 0)*/
 593:../../Middlewares/LVGL/GUI/lvgl/src/misc/lv_area.c ****     int32_t px = p->x - cx;
  55              		.loc 1 593 5 is_stmt 1 view .LVU10
  56              		.loc 1 593 19 is_stmt 0 view .LVU11
  57 0016 0B68     		ldr	r3, [r1]
  58              		.loc 1 593 13 view .LVU12
  59 0018 9B1A     		subs	r3, r3, r2
  60              	.LVL5:
 594:../../Middlewares/LVGL/GUI/lvgl/src/misc/lv_area.c ****     int32_t py = p->y - cy;
  61              		.loc 1 594 5 is_stmt 1 view .LVU13
  62              		.loc 1 594 19 is_stmt 0 view .LVU14
  63 001a 4A68     		ldr	r2, [r1, #4]
  64              	.LVL6:
  65              		.loc 1 594 13 view .LVU15
  66 001c 121A     		subs	r2, r2, r0
  67              	.LVL7:
 595:../../Middlewares/LVGL/GUI/lvgl/src/misc/lv_area.c **** 
 596:../../Middlewares/LVGL/GUI/lvgl/src/misc/lv_area.c ****     uint32_t r_sqrd = r * r;
  68              		.loc 1 596 5 is_stmt 1 view .LVU16
  69              		.loc 1 596 25 is_stmt 0 view .LVU17
  70 001e 0CFB0CFC 		mul	ip, ip, ip
  71              	.LVL8:
 597:../../Middlewares/LVGL/GUI/lvgl/src/misc/lv_area.c ****     uint32_t dist = (px * px) + (py * py);
  72              		.loc 1 597 5 is_stmt 1 view .LVU18
  73              		.loc 1 597 37 is_stmt 0 view .LVU19
  74 0022 02FB02F2 		mul	r2, r2, r2
  75              	.LVL9:
  76              		.loc 1 597 31 view .LVU20
  77 0026 03FB0323 		mla	r3, r3, r3, r2
  78              	.LVL10:
 598:../../Middlewares/LVGL/GUI/lvgl/src/misc/lv_area.c **** 
 599:../../Middlewares/LVGL/GUI/lvgl/src/misc/lv_area.c ****     if(dist <= r_sqrd)
  79              		.loc 1 599 5 is_stmt 1 view .LVU21
  80              		.loc 1 599 7 is_stmt 0 view .LVU22
  81 002a 9C45     		cmp	ip, r3
  82 002c 03D3     		bcc	.L4
 600:../../Middlewares/LVGL/GUI/lvgl/src/misc/lv_area.c ****         return true;
  83              		.loc 1 600 16 view .LVU23
  84 002e 0120     		movs	r0, #1
  85              	.LVL11:
ARM GAS  C:\Users\28576\AppData\Local\Temp\ccYc01Pv.s 			page 13


  86              		.loc 1 600 16 view .LVU24
  87 0030 7047     		bx	lr
  88              	.LVL12:
  89              	.L5:
 586:../../Middlewares/LVGL/GUI/lvgl/src/misc/lv_area.c **** 
  90              		.loc 1 586 13 view .LVU25
  91 0032 0133     		adds	r3, r3, #1
  92 0034 E8E7     		b	.L2
  93              	.LVL13:
  94              	.L4:
 601:../../Middlewares/LVGL/GUI/lvgl/src/misc/lv_area.c ****     else
 602:../../Middlewares/LVGL/GUI/lvgl/src/misc/lv_area.c ****         return false;
  95              		.loc 1 602 16 view .LVU26
  96 0036 0020     		movs	r0, #0
  97              	.LVL14:
 603:../../Middlewares/LVGL/GUI/lvgl/src/misc/lv_area.c **** }
  98              		.loc 1 603 1 view .LVU27
  99 0038 7047     		bx	lr
 100              		.cfi_endproc
 101              	.LFE215:
 103              		.section	.text.lv_area_set,"ax",%progbits
 104              		.align	1
 105              		.global	lv_area_set
 106              		.syntax unified
 107              		.thumb
 108              		.thumb_func
 110              	lv_area_set:
 111              	.LVL15:
 112              	.LFB187:
  42:../../Middlewares/LVGL/GUI/lvgl/src/misc/lv_area.c ****     area_p->x1 = x1;
 113              		.loc 1 42 1 is_stmt 1 view -0
 114              		.cfi_startproc
 115              		@ args = 4, pretend = 0, frame = 0
 116              		@ frame_needed = 0, uses_anonymous_args = 0
 117              		@ link register save eliminated.
  43:../../Middlewares/LVGL/GUI/lvgl/src/misc/lv_area.c ****     area_p->y1 = y1;
 118              		.loc 1 43 5 view .LVU29
  43:../../Middlewares/LVGL/GUI/lvgl/src/misc/lv_area.c ****     area_p->y1 = y1;
 119              		.loc 1 43 16 is_stmt 0 view .LVU30
 120 0000 0160     		str	r1, [r0]
  44:../../Middlewares/LVGL/GUI/lvgl/src/misc/lv_area.c ****     area_p->x2 = x2;
 121              		.loc 1 44 5 is_stmt 1 view .LVU31
  44:../../Middlewares/LVGL/GUI/lvgl/src/misc/lv_area.c ****     area_p->x2 = x2;
 122              		.loc 1 44 16 is_stmt 0 view .LVU32
 123 0002 4260     		str	r2, [r0, #4]
  45:../../Middlewares/LVGL/GUI/lvgl/src/misc/lv_area.c ****     area_p->y2 = y2;
 124              		.loc 1 45 5 is_stmt 1 view .LVU33
  45:../../Middlewares/LVGL/GUI/lvgl/src/misc/lv_area.c ****     area_p->y2 = y2;
 125              		.loc 1 45 16 is_stmt 0 view .LVU34
 126 0004 8360     		str	r3, [r0, #8]
  46:../../Middlewares/LVGL/GUI/lvgl/src/misc/lv_area.c **** }
 127              		.loc 1 46 5 is_stmt 1 view .LVU35
  46:../../Middlewares/LVGL/GUI/lvgl/src/misc/lv_area.c **** }
 128              		.loc 1 46 16 is_stmt 0 view .LVU36
 129 0006 009B     		ldr	r3, [sp]
 130              	.LVL16:
  46:../../Middlewares/LVGL/GUI/lvgl/src/misc/lv_area.c **** }
ARM GAS  C:\Users\28576\AppData\Local\Temp\ccYc01Pv.s 			page 14


 131              		.loc 1 46 16 view .LVU37
 132 0008 C360     		str	r3, [r0, #12]
  47:../../Middlewares/LVGL/GUI/lvgl/src/misc/lv_area.c **** 
 133              		.loc 1 47 1 view .LVU38
 134 000a 7047     		bx	lr
 135              		.cfi_endproc
 136              	.LFE187:
 138              		.section	.text.lv_area_set_width,"ax",%progbits
 139              		.align	1
 140              		.global	lv_area_set_width
 141              		.syntax unified
 142              		.thumb
 143              		.thumb_func
 145              	lv_area_set_width:
 146              	.LVL17:
 147              	.LFB188:
  50:../../Middlewares/LVGL/GUI/lvgl/src/misc/lv_area.c ****     area_p->x2 = area_p->x1 + w - 1;
 148              		.loc 1 50 1 is_stmt 1 view -0
 149              		.cfi_startproc
 150              		@ args = 0, pretend = 0, frame = 0
 151              		@ frame_needed = 0, uses_anonymous_args = 0
 152              		@ link register save eliminated.
  51:../../Middlewares/LVGL/GUI/lvgl/src/misc/lv_area.c **** }
 153              		.loc 1 51 5 view .LVU40
  51:../../Middlewares/LVGL/GUI/lvgl/src/misc/lv_area.c **** }
 154              		.loc 1 51 24 is_stmt 0 view .LVU41
 155 0000 0368     		ldr	r3, [r0]
  51:../../Middlewares/LVGL/GUI/lvgl/src/misc/lv_area.c **** }
 156              		.loc 1 51 29 view .LVU42
 157 0002 0B44     		add	r3, r3, r1
  51:../../Middlewares/LVGL/GUI/lvgl/src/misc/lv_area.c **** }
 158              		.loc 1 51 33 view .LVU43
 159 0004 013B     		subs	r3, r3, #1
  51:../../Middlewares/LVGL/GUI/lvgl/src/misc/lv_area.c **** }
 160              		.loc 1 51 16 view .LVU44
 161 0006 8360     		str	r3, [r0, #8]
  52:../../Middlewares/LVGL/GUI/lvgl/src/misc/lv_area.c **** 
 162              		.loc 1 52 1 view .LVU45
 163 0008 7047     		bx	lr
 164              		.cfi_endproc
 165              	.LFE188:
 167              		.section	.text.lv_area_set_height,"ax",%progbits
 168              		.align	1
 169              		.global	lv_area_set_height
 170              		.syntax unified
 171              		.thumb
 172              		.thumb_func
 174              	lv_area_set_height:
 175              	.LVL18:
 176              	.LFB189:
  55:../../Middlewares/LVGL/GUI/lvgl/src/misc/lv_area.c ****     area_p->y2 = area_p->y1 + h - 1;
 177              		.loc 1 55 1 is_stmt 1 view -0
 178              		.cfi_startproc
 179              		@ args = 0, pretend = 0, frame = 0
 180              		@ frame_needed = 0, uses_anonymous_args = 0
 181              		@ link register save eliminated.
  56:../../Middlewares/LVGL/GUI/lvgl/src/misc/lv_area.c **** }
ARM GAS  C:\Users\28576\AppData\Local\Temp\ccYc01Pv.s 			page 15


 182              		.loc 1 56 5 view .LVU47
  56:../../Middlewares/LVGL/GUI/lvgl/src/misc/lv_area.c **** }
 183              		.loc 1 56 24 is_stmt 0 view .LVU48
 184 0000 4368     		ldr	r3, [r0, #4]
  56:../../Middlewares/LVGL/GUI/lvgl/src/misc/lv_area.c **** }
 185              		.loc 1 56 29 view .LVU49
 186 0002 0B44     		add	r3, r3, r1
  56:../../Middlewares/LVGL/GUI/lvgl/src/misc/lv_area.c **** }
 187              		.loc 1 56 33 view .LVU50
 188 0004 013B     		subs	r3, r3, #1
  56:../../Middlewares/LVGL/GUI/lvgl/src/misc/lv_area.c **** }
 189              		.loc 1 56 16 view .LVU51
 190 0006 C360     		str	r3, [r0, #12]
  57:../../Middlewares/LVGL/GUI/lvgl/src/misc/lv_area.c **** 
 191              		.loc 1 57 1 view .LVU52
 192 0008 7047     		bx	lr
 193              		.cfi_endproc
 194              	.LFE189:
 196              		.section	.text.lv_area_get_size,"ax",%progbits
 197              		.align	1
 198              		.global	lv_area_get_size
 199              		.syntax unified
 200              		.thumb
 201              		.thumb_func
 203              	lv_area_get_size:
 204              	.LVL19:
 205              	.LFB191:
  70:../../Middlewares/LVGL/GUI/lvgl/src/misc/lv_area.c ****     uint32_t size;
 206              		.loc 1 70 1 is_stmt 1 view -0
 207              		.cfi_startproc
 208              		@ args = 0, pretend = 0, frame = 0
 209              		@ frame_needed = 0, uses_anonymous_args = 0
 210              		@ link register save eliminated.
  71:../../Middlewares/LVGL/GUI/lvgl/src/misc/lv_area.c **** 
 211              		.loc 1 71 5 view .LVU54
  73:../../Middlewares/LVGL/GUI/lvgl/src/misc/lv_area.c **** 
 212              		.loc 1 73 5 view .LVU55
  73:../../Middlewares/LVGL/GUI/lvgl/src/misc/lv_area.c **** 
 213              		.loc 1 73 29 is_stmt 0 view .LVU56
 214 0000 8368     		ldr	r3, [r0, #8]
  73:../../Middlewares/LVGL/GUI/lvgl/src/misc/lv_area.c **** 
 215              		.loc 1 73 42 view .LVU57
 216 0002 0268     		ldr	r2, [r0]
  73:../../Middlewares/LVGL/GUI/lvgl/src/misc/lv_area.c **** 
 217              		.loc 1 73 34 view .LVU58
 218 0004 9A1A     		subs	r2, r3, r2
  73:../../Middlewares/LVGL/GUI/lvgl/src/misc/lv_area.c **** 
 219              		.loc 1 73 61 view .LVU59
 220 0006 C368     		ldr	r3, [r0, #12]
  73:../../Middlewares/LVGL/GUI/lvgl/src/misc/lv_area.c **** 
 221              		.loc 1 73 74 view .LVU60
 222 0008 4068     		ldr	r0, [r0, #4]
 223              	.LVL20:
  73:../../Middlewares/LVGL/GUI/lvgl/src/misc/lv_area.c **** 
 224              		.loc 1 73 66 view .LVU61
 225 000a 181A     		subs	r0, r3, r0
  73:../../Middlewares/LVGL/GUI/lvgl/src/misc/lv_area.c **** 
ARM GAS  C:\Users\28576\AppData\Local\Temp\ccYc01Pv.s 			page 16


 226              		.loc 1 73 79 view .LVU62
 227 000c 0130     		adds	r0, r0, #1
 228              	.LVL21:
  75:../../Middlewares/LVGL/GUI/lvgl/src/misc/lv_area.c **** }
 229              		.loc 1 75 5 is_stmt 1 view .LVU63
  76:../../Middlewares/LVGL/GUI/lvgl/src/misc/lv_area.c **** 
 230              		.loc 1 76 1 is_stmt 0 view .LVU64
 231 000e 02FB0000 		mla	r0, r2, r0, r0
 232              	.LVL22:
  76:../../Middlewares/LVGL/GUI/lvgl/src/misc/lv_area.c **** 
 233              		.loc 1 76 1 view .LVU65
 234 0012 7047     		bx	lr
 235              		.cfi_endproc
 236              	.LFE191:
 238              		.section	.text.lv_area_increase,"ax",%progbits
 239              		.align	1
 240              		.global	lv_area_increase
 241              		.syntax unified
 242              		.thumb
 243              		.thumb_func
 245              	lv_area_increase:
 246              	.LVL23:
 247              	.LFB192:
  79:../../Middlewares/LVGL/GUI/lvgl/src/misc/lv_area.c ****     area->x1 -= w_extra;
 248              		.loc 1 79 1 is_stmt 1 view -0
 249              		.cfi_startproc
 250              		@ args = 0, pretend = 0, frame = 0
 251              		@ frame_needed = 0, uses_anonymous_args = 0
 252              		@ link register save eliminated.
  80:../../Middlewares/LVGL/GUI/lvgl/src/misc/lv_area.c ****     area->x2 += w_extra;
 253              		.loc 1 80 5 view .LVU67
  80:../../Middlewares/LVGL/GUI/lvgl/src/misc/lv_area.c ****     area->x2 += w_extra;
 254              		.loc 1 80 9 is_stmt 0 view .LVU68
 255 0000 0368     		ldr	r3, [r0]
  80:../../Middlewares/LVGL/GUI/lvgl/src/misc/lv_area.c ****     area->x2 += w_extra;
 256              		.loc 1 80 14 view .LVU69
 257 0002 5B1A     		subs	r3, r3, r1
 258 0004 0360     		str	r3, [r0]
  81:../../Middlewares/LVGL/GUI/lvgl/src/misc/lv_area.c ****     area->y1 -= h_extra;
 259              		.loc 1 81 5 is_stmt 1 view .LVU70
  81:../../Middlewares/LVGL/GUI/lvgl/src/misc/lv_area.c ****     area->y1 -= h_extra;
 260              		.loc 1 81 9 is_stmt 0 view .LVU71
 261 0006 8368     		ldr	r3, [r0, #8]
  81:../../Middlewares/LVGL/GUI/lvgl/src/misc/lv_area.c ****     area->y1 -= h_extra;
 262              		.loc 1 81 14 view .LVU72
 263 0008 0B44     		add	r3, r3, r1
 264 000a 8360     		str	r3, [r0, #8]
  82:../../Middlewares/LVGL/GUI/lvgl/src/misc/lv_area.c ****     area->y2 += h_extra;
 265              		.loc 1 82 5 is_stmt 1 view .LVU73
  82:../../Middlewares/LVGL/GUI/lvgl/src/misc/lv_area.c ****     area->y2 += h_extra;
 266              		.loc 1 82 9 is_stmt 0 view .LVU74
 267 000c 4368     		ldr	r3, [r0, #4]
  82:../../Middlewares/LVGL/GUI/lvgl/src/misc/lv_area.c ****     area->y2 += h_extra;
 268              		.loc 1 82 14 view .LVU75
 269 000e 9B1A     		subs	r3, r3, r2
 270 0010 4360     		str	r3, [r0, #4]
  83:../../Middlewares/LVGL/GUI/lvgl/src/misc/lv_area.c **** }
ARM GAS  C:\Users\28576\AppData\Local\Temp\ccYc01Pv.s 			page 17


 271              		.loc 1 83 5 is_stmt 1 view .LVU76
  83:../../Middlewares/LVGL/GUI/lvgl/src/misc/lv_area.c **** }
 272              		.loc 1 83 9 is_stmt 0 view .LVU77
 273 0012 C368     		ldr	r3, [r0, #12]
  83:../../Middlewares/LVGL/GUI/lvgl/src/misc/lv_area.c **** }
 274              		.loc 1 83 14 view .LVU78
 275 0014 1344     		add	r3, r3, r2
 276 0016 C360     		str	r3, [r0, #12]
  84:../../Middlewares/LVGL/GUI/lvgl/src/misc/lv_area.c **** 
 277              		.loc 1 84 1 view .LVU79
 278 0018 7047     		bx	lr
 279              		.cfi_endproc
 280              	.LFE192:
 282              		.section	.text.lv_area_move,"ax",%progbits
 283              		.align	1
 284              		.global	lv_area_move
 285              		.syntax unified
 286              		.thumb
 287              		.thumb_func
 289              	lv_area_move:
 290              	.LVL24:
 291              	.LFB193:
  87:../../Middlewares/LVGL/GUI/lvgl/src/misc/lv_area.c ****     area->x1 += x_ofs;
 292              		.loc 1 87 1 is_stmt 1 view -0
 293              		.cfi_startproc
 294              		@ args = 0, pretend = 0, frame = 0
 295              		@ frame_needed = 0, uses_anonymous_args = 0
 296              		@ link register save eliminated.
  88:../../Middlewares/LVGL/GUI/lvgl/src/misc/lv_area.c ****     area->x2 += x_ofs;
 297              		.loc 1 88 5 view .LVU81
  88:../../Middlewares/LVGL/GUI/lvgl/src/misc/lv_area.c ****     area->x2 += x_ofs;
 298              		.loc 1 88 9 is_stmt 0 view .LVU82
 299 0000 0368     		ldr	r3, [r0]
  88:../../Middlewares/LVGL/GUI/lvgl/src/misc/lv_area.c ****     area->x2 += x_ofs;
 300              		.loc 1 88 14 view .LVU83
 301 0002 0B44     		add	r3, r3, r1
 302 0004 0360     		str	r3, [r0]
  89:../../Middlewares/LVGL/GUI/lvgl/src/misc/lv_area.c ****     area->y1 += y_ofs;
 303              		.loc 1 89 5 is_stmt 1 view .LVU84
  89:../../Middlewares/LVGL/GUI/lvgl/src/misc/lv_area.c ****     area->y1 += y_ofs;
 304              		.loc 1 89 9 is_stmt 0 view .LVU85
 305 0006 8368     		ldr	r3, [r0, #8]
  89:../../Middlewares/LVGL/GUI/lvgl/src/misc/lv_area.c ****     area->y1 += y_ofs;
 306              		.loc 1 89 14 view .LVU86
 307 0008 0B44     		add	r3, r3, r1
 308 000a 8360     		str	r3, [r0, #8]
  90:../../Middlewares/LVGL/GUI/lvgl/src/misc/lv_area.c ****     area->y2 += y_ofs;
 309              		.loc 1 90 5 is_stmt 1 view .LVU87
  90:../../Middlewares/LVGL/GUI/lvgl/src/misc/lv_area.c ****     area->y2 += y_ofs;
 310              		.loc 1 90 9 is_stmt 0 view .LVU88
 311 000c 4368     		ldr	r3, [r0, #4]
  90:../../Middlewares/LVGL/GUI/lvgl/src/misc/lv_area.c ****     area->y2 += y_ofs;
 312              		.loc 1 90 14 view .LVU89
 313 000e 1344     		add	r3, r3, r2
 314 0010 4360     		str	r3, [r0, #4]
  91:../../Middlewares/LVGL/GUI/lvgl/src/misc/lv_area.c **** }
 315              		.loc 1 91 5 is_stmt 1 view .LVU90
ARM GAS  C:\Users\28576\AppData\Local\Temp\ccYc01Pv.s 			page 18


  91:../../Middlewares/LVGL/GUI/lvgl/src/misc/lv_area.c **** }
 316              		.loc 1 91 9 is_stmt 0 view .LVU91
 317 0012 C368     		ldr	r3, [r0, #12]
  91:../../Middlewares/LVGL/GUI/lvgl/src/misc/lv_area.c **** }
 318              		.loc 1 91 14 view .LVU92
 319 0014 1344     		add	r3, r3, r2
 320 0016 C360     		str	r3, [r0, #12]
  92:../../Middlewares/LVGL/GUI/lvgl/src/misc/lv_area.c **** 
 321              		.loc 1 92 1 view .LVU93
 322 0018 7047     		bx	lr
 323              		.cfi_endproc
 324              	.LFE193:
 326              		.section	.text.lv_area_intersect,"ax",%progbits
 327              		.align	1
 328              		.global	lv_area_intersect
 329              		.syntax unified
 330              		.thumb
 331              		.thumb_func
 333              	lv_area_intersect:
 334              	.LVL25:
 335              	.LFB194:
  95:../../Middlewares/LVGL/GUI/lvgl/src/misc/lv_area.c ****     /*Get the smaller area from 'a1_p' and 'a2_p'*/
 336              		.loc 1 95 1 is_stmt 1 view -0
 337              		.cfi_startproc
 338              		@ args = 0, pretend = 0, frame = 0
 339              		@ frame_needed = 0, uses_anonymous_args = 0
  95:../../Middlewares/LVGL/GUI/lvgl/src/misc/lv_area.c ****     /*Get the smaller area from 'a1_p' and 'a2_p'*/
 340              		.loc 1 95 1 is_stmt 0 view .LVU95
 341 0000 10B5     		push	{r4, lr}
 342              	.LCFI0:
 343              		.cfi_def_cfa_offset 8
 344              		.cfi_offset 4, -8
 345              		.cfi_offset 14, -4
  97:../../Middlewares/LVGL/GUI/lvgl/src/misc/lv_area.c ****     res_p->y1 = LV_MAX(a1_p->y1, a2_p->y1);
 346              		.loc 1 97 5 is_stmt 1 view .LVU96
  97:../../Middlewares/LVGL/GUI/lvgl/src/misc/lv_area.c ****     res_p->y1 = LV_MAX(a1_p->y1, a2_p->y1);
 347              		.loc 1 97 17 is_stmt 0 view .LVU97
 348 0002 1368     		ldr	r3, [r2]
 349 0004 0C68     		ldr	r4, [r1]
 350 0006 9C42     		cmp	r4, r3
 351 0008 B8BF     		it	lt
 352 000a 1C46     		movlt	r4, r3
 353 000c A446     		mov	ip, r4
  97:../../Middlewares/LVGL/GUI/lvgl/src/misc/lv_area.c ****     res_p->y1 = LV_MAX(a1_p->y1, a2_p->y1);
 354              		.loc 1 97 15 view .LVU98
 355 000e 0460     		str	r4, [r0]
  98:../../Middlewares/LVGL/GUI/lvgl/src/misc/lv_area.c ****     res_p->x2 = LV_MIN(a1_p->x2, a2_p->x2);
 356              		.loc 1 98 5 is_stmt 1 view .LVU99
  98:../../Middlewares/LVGL/GUI/lvgl/src/misc/lv_area.c ****     res_p->x2 = LV_MIN(a1_p->x2, a2_p->x2);
 357              		.loc 1 98 17 is_stmt 0 view .LVU100
 358 0010 5368     		ldr	r3, [r2, #4]
 359 0012 4C68     		ldr	r4, [r1, #4]
 360 0014 9C42     		cmp	r4, r3
 361 0016 B8BF     		it	lt
 362 0018 1C46     		movlt	r4, r3
 363 001a A646     		mov	lr, r4
  98:../../Middlewares/LVGL/GUI/lvgl/src/misc/lv_area.c ****     res_p->x2 = LV_MIN(a1_p->x2, a2_p->x2);
ARM GAS  C:\Users\28576\AppData\Local\Temp\ccYc01Pv.s 			page 19


 364              		.loc 1 98 15 view .LVU101
 365 001c 4460     		str	r4, [r0, #4]
  99:../../Middlewares/LVGL/GUI/lvgl/src/misc/lv_area.c ****     res_p->y2 = LV_MIN(a1_p->y2, a2_p->y2);
 366              		.loc 1 99 5 is_stmt 1 view .LVU102
  99:../../Middlewares/LVGL/GUI/lvgl/src/misc/lv_area.c ****     res_p->y2 = LV_MIN(a1_p->y2, a2_p->y2);
 367              		.loc 1 99 17 is_stmt 0 view .LVU103
 368 001e 9368     		ldr	r3, [r2, #8]
 369 0020 8C68     		ldr	r4, [r1, #8]
 370 0022 A342     		cmp	r3, r4
 371 0024 A8BF     		it	ge
 372 0026 2346     		movge	r3, r4
  99:../../Middlewares/LVGL/GUI/lvgl/src/misc/lv_area.c ****     res_p->y2 = LV_MIN(a1_p->y2, a2_p->y2);
 373              		.loc 1 99 15 view .LVU104
 374 0028 8360     		str	r3, [r0, #8]
 100:../../Middlewares/LVGL/GUI/lvgl/src/misc/lv_area.c **** 
 375              		.loc 1 100 5 is_stmt 1 view .LVU105
 100:../../Middlewares/LVGL/GUI/lvgl/src/misc/lv_area.c **** 
 376              		.loc 1 100 17 is_stmt 0 view .LVU106
 377 002a D268     		ldr	r2, [r2, #12]
 378              	.LVL26:
 100:../../Middlewares/LVGL/GUI/lvgl/src/misc/lv_area.c **** 
 379              		.loc 1 100 17 view .LVU107
 380 002c C968     		ldr	r1, [r1, #12]
 381              	.LVL27:
 100:../../Middlewares/LVGL/GUI/lvgl/src/misc/lv_area.c **** 
 382              		.loc 1 100 17 view .LVU108
 383 002e 8A42     		cmp	r2, r1
 384 0030 A8BF     		it	ge
 385 0032 0A46     		movge	r2, r1
 100:../../Middlewares/LVGL/GUI/lvgl/src/misc/lv_area.c **** 
 386              		.loc 1 100 15 view .LVU109
 387 0034 C260     		str	r2, [r0, #12]
 103:../../Middlewares/LVGL/GUI/lvgl/src/misc/lv_area.c ****     if((res_p->x1 > res_p->x2) || (res_p->y1 > res_p->y2)) {
 388              		.loc 1 103 5 is_stmt 1 view .LVU110
 389              	.LVL28:
 104:../../Middlewares/LVGL/GUI/lvgl/src/misc/lv_area.c ****         union_ok = false;
 390              		.loc 1 104 5 view .LVU111
 104:../../Middlewares/LVGL/GUI/lvgl/src/misc/lv_area.c ****         union_ok = false;
 391              		.loc 1 104 7 is_stmt 0 view .LVU112
 392 0036 9C45     		cmp	ip, r3
 393 0038 03DC     		bgt	.L14
 104:../../Middlewares/LVGL/GUI/lvgl/src/misc/lv_area.c ****         union_ok = false;
 394              		.loc 1 104 32 discriminator 1 view .LVU113
 395 003a 9645     		cmp	lr, r2
 396 003c 03DC     		bgt	.L15
 103:../../Middlewares/LVGL/GUI/lvgl/src/misc/lv_area.c ****     if((res_p->x1 > res_p->x2) || (res_p->y1 > res_p->y2)) {
 397              		.loc 1 103 10 view .LVU114
 398 003e 0120     		movs	r0, #1
 399              	.LVL29:
 103:../../Middlewares/LVGL/GUI/lvgl/src/misc/lv_area.c ****     if((res_p->x1 > res_p->x2) || (res_p->y1 > res_p->y2)) {
 400              		.loc 1 103 10 view .LVU115
 401 0040 00E0     		b	.L13
 402              	.LVL30:
 403              	.L14:
 105:../../Middlewares/LVGL/GUI/lvgl/src/misc/lv_area.c ****     }
 404              		.loc 1 105 18 view .LVU116
 405 0042 0020     		movs	r0, #0
ARM GAS  C:\Users\28576\AppData\Local\Temp\ccYc01Pv.s 			page 20


 406              	.LVL31:
 407              	.L13:
 108:../../Middlewares/LVGL/GUI/lvgl/src/misc/lv_area.c **** }
 408              		.loc 1 108 5 is_stmt 1 view .LVU117
 109:../../Middlewares/LVGL/GUI/lvgl/src/misc/lv_area.c **** 
 409              		.loc 1 109 1 is_stmt 0 view .LVU118
 410 0044 10BD     		pop	{r4, pc}
 411              	.LVL32:
 412              	.L15:
 105:../../Middlewares/LVGL/GUI/lvgl/src/misc/lv_area.c ****     }
 413              		.loc 1 105 18 view .LVU119
 414 0046 0020     		movs	r0, #0
 415              	.LVL33:
 105:../../Middlewares/LVGL/GUI/lvgl/src/misc/lv_area.c ****     }
 416              		.loc 1 105 18 view .LVU120
 417 0048 FCE7     		b	.L13
 418              		.cfi_endproc
 419              	.LFE194:
 421              		.section	.text.lv_area_join,"ax",%progbits
 422              		.align	1
 423              		.global	lv_area_join
 424              		.syntax unified
 425              		.thumb
 426              		.thumb_func
 428              	lv_area_join:
 429              	.LVL34:
 430              	.LFB196:
 177:../../Middlewares/LVGL/GUI/lvgl/src/misc/lv_area.c ****     a_res_p->x1 = LV_MIN(a1_p->x1, a2_p->x1);
 431              		.loc 1 177 1 is_stmt 1 view -0
 432              		.cfi_startproc
 433              		@ args = 0, pretend = 0, frame = 0
 434              		@ frame_needed = 0, uses_anonymous_args = 0
 435              		@ link register save eliminated.
 177:../../Middlewares/LVGL/GUI/lvgl/src/misc/lv_area.c ****     a_res_p->x1 = LV_MIN(a1_p->x1, a2_p->x1);
 436              		.loc 1 177 1 is_stmt 0 view .LVU122
 437 0000 10B4     		push	{r4}
 438              	.LCFI1:
 439              		.cfi_def_cfa_offset 4
 440              		.cfi_offset 4, -4
 178:../../Middlewares/LVGL/GUI/lvgl/src/misc/lv_area.c ****     a_res_p->y1 = LV_MIN(a1_p->y1, a2_p->y1);
 441              		.loc 1 178 5 is_stmt 1 view .LVU123
 178:../../Middlewares/LVGL/GUI/lvgl/src/misc/lv_area.c ****     a_res_p->y1 = LV_MIN(a1_p->y1, a2_p->y1);
 442              		.loc 1 178 19 is_stmt 0 view .LVU124
 443 0002 1368     		ldr	r3, [r2]
 444 0004 0C68     		ldr	r4, [r1]
 445 0006 A342     		cmp	r3, r4
 446 0008 A8BF     		it	ge
 447 000a 2346     		movge	r3, r4
 178:../../Middlewares/LVGL/GUI/lvgl/src/misc/lv_area.c ****     a_res_p->y1 = LV_MIN(a1_p->y1, a2_p->y1);
 448              		.loc 1 178 17 view .LVU125
 449 000c 0360     		str	r3, [r0]
 179:../../Middlewares/LVGL/GUI/lvgl/src/misc/lv_area.c ****     a_res_p->x2 = LV_MAX(a1_p->x2, a2_p->x2);
 450              		.loc 1 179 5 is_stmt 1 view .LVU126
 179:../../Middlewares/LVGL/GUI/lvgl/src/misc/lv_area.c ****     a_res_p->x2 = LV_MAX(a1_p->x2, a2_p->x2);
 451              		.loc 1 179 19 is_stmt 0 view .LVU127
 452 000e 5368     		ldr	r3, [r2, #4]
 453 0010 4C68     		ldr	r4, [r1, #4]
ARM GAS  C:\Users\28576\AppData\Local\Temp\ccYc01Pv.s 			page 21


 454 0012 A342     		cmp	r3, r4
 455 0014 A8BF     		it	ge
 456 0016 2346     		movge	r3, r4
 179:../../Middlewares/LVGL/GUI/lvgl/src/misc/lv_area.c ****     a_res_p->x2 = LV_MAX(a1_p->x2, a2_p->x2);
 457              		.loc 1 179 17 view .LVU128
 458 0018 4360     		str	r3, [r0, #4]
 180:../../Middlewares/LVGL/GUI/lvgl/src/misc/lv_area.c ****     a_res_p->y2 = LV_MAX(a1_p->y2, a2_p->y2);
 459              		.loc 1 180 5 is_stmt 1 view .LVU129
 180:../../Middlewares/LVGL/GUI/lvgl/src/misc/lv_area.c ****     a_res_p->y2 = LV_MAX(a1_p->y2, a2_p->y2);
 460              		.loc 1 180 19 is_stmt 0 view .LVU130
 461 001a 9368     		ldr	r3, [r2, #8]
 462 001c 8C68     		ldr	r4, [r1, #8]
 463 001e A342     		cmp	r3, r4
 464 0020 B8BF     		it	lt
 465 0022 2346     		movlt	r3, r4
 180:../../Middlewares/LVGL/GUI/lvgl/src/misc/lv_area.c ****     a_res_p->y2 = LV_MAX(a1_p->y2, a2_p->y2);
 466              		.loc 1 180 17 view .LVU131
 467 0024 8360     		str	r3, [r0, #8]
 181:../../Middlewares/LVGL/GUI/lvgl/src/misc/lv_area.c **** }
 468              		.loc 1 181 5 is_stmt 1 view .LVU132
 181:../../Middlewares/LVGL/GUI/lvgl/src/misc/lv_area.c **** }
 469              		.loc 1 181 19 is_stmt 0 view .LVU133
 470 0026 D368     		ldr	r3, [r2, #12]
 471 0028 CA68     		ldr	r2, [r1, #12]
 472              	.LVL35:
 181:../../Middlewares/LVGL/GUI/lvgl/src/misc/lv_area.c **** }
 473              		.loc 1 181 19 view .LVU134
 474 002a 9342     		cmp	r3, r2
 475 002c B8BF     		it	lt
 476 002e 1346     		movlt	r3, r2
 181:../../Middlewares/LVGL/GUI/lvgl/src/misc/lv_area.c **** }
 477              		.loc 1 181 17 view .LVU135
 478 0030 C360     		str	r3, [r0, #12]
 182:../../Middlewares/LVGL/GUI/lvgl/src/misc/lv_area.c **** 
 479              		.loc 1 182 1 view .LVU136
 480 0032 10BC     		pop	{r4}
 481              	.LCFI2:
 482              		.cfi_restore 4
 483              		.cfi_def_cfa_offset 0
 484 0034 7047     		bx	lr
 485              		.cfi_endproc
 486              	.LFE196:
 488              		.section	.text.lv_area_is_on,"ax",%progbits
 489              		.align	1
 490              		.global	lv_area_is_on
 491              		.syntax unified
 492              		.thumb
 493              		.thumb_func
 495              	lv_area_is_on:
 496              	.LVL36:
 497              	.LFB198:
 245:../../Middlewares/LVGL/GUI/lvgl/src/misc/lv_area.c ****     if((a1_p->x1 <= a2_p->x2) && (a1_p->x2 >= a2_p->x1) && (a1_p->y1 <= a2_p->y2) && (a1_p->y2 >= a
 498              		.loc 1 245 1 is_stmt 1 view -0
 499              		.cfi_startproc
 500              		@ args = 0, pretend = 0, frame = 0
 501              		@ frame_needed = 0, uses_anonymous_args = 0
 502              		@ link register save eliminated.
ARM GAS  C:\Users\28576\AppData\Local\Temp\ccYc01Pv.s 			page 22


 246:../../Middlewares/LVGL/GUI/lvgl/src/misc/lv_area.c ****         return true;
 503              		.loc 1 246 5 view .LVU138
 246:../../Middlewares/LVGL/GUI/lvgl/src/misc/lv_area.c ****         return true;
 504              		.loc 1 246 13 is_stmt 0 view .LVU139
 505 0000 0268     		ldr	r2, [r0]
 246:../../Middlewares/LVGL/GUI/lvgl/src/misc/lv_area.c ****         return true;
 506              		.loc 1 246 25 view .LVU140
 507 0002 8B68     		ldr	r3, [r1, #8]
 246:../../Middlewares/LVGL/GUI/lvgl/src/misc/lv_area.c ****         return true;
 508              		.loc 1 246 7 view .LVU141
 509 0004 9A42     		cmp	r2, r3
 510 0006 0DDC     		bgt	.L21
 246:../../Middlewares/LVGL/GUI/lvgl/src/misc/lv_area.c ****         return true;
 511              		.loc 1 246 39 discriminator 1 view .LVU142
 512 0008 8268     		ldr	r2, [r0, #8]
 246:../../Middlewares/LVGL/GUI/lvgl/src/misc/lv_area.c ****         return true;
 513              		.loc 1 246 51 discriminator 1 view .LVU143
 514 000a 0B68     		ldr	r3, [r1]
 246:../../Middlewares/LVGL/GUI/lvgl/src/misc/lv_area.c ****         return true;
 515              		.loc 1 246 31 discriminator 1 view .LVU144
 516 000c 9A42     		cmp	r2, r3
 517 000e 0BDB     		blt	.L22
 246:../../Middlewares/LVGL/GUI/lvgl/src/misc/lv_area.c ****         return true;
 518              		.loc 1 246 65 discriminator 2 view .LVU145
 519 0010 4268     		ldr	r2, [r0, #4]
 246:../../Middlewares/LVGL/GUI/lvgl/src/misc/lv_area.c ****         return true;
 520              		.loc 1 246 77 discriminator 2 view .LVU146
 521 0012 CB68     		ldr	r3, [r1, #12]
 246:../../Middlewares/LVGL/GUI/lvgl/src/misc/lv_area.c ****         return true;
 522              		.loc 1 246 57 discriminator 2 view .LVU147
 523 0014 9A42     		cmp	r2, r3
 524 0016 09DC     		bgt	.L23
 246:../../Middlewares/LVGL/GUI/lvgl/src/misc/lv_area.c ****         return true;
 525              		.loc 1 246 91 discriminator 3 view .LVU148
 526 0018 C268     		ldr	r2, [r0, #12]
 246:../../Middlewares/LVGL/GUI/lvgl/src/misc/lv_area.c ****         return true;
 527              		.loc 1 246 103 discriminator 3 view .LVU149
 528 001a 4B68     		ldr	r3, [r1, #4]
 246:../../Middlewares/LVGL/GUI/lvgl/src/misc/lv_area.c ****         return true;
 529              		.loc 1 246 83 discriminator 3 view .LVU150
 530 001c 9A42     		cmp	r2, r3
 531 001e 07DA     		bge	.L24
 250:../../Middlewares/LVGL/GUI/lvgl/src/misc/lv_area.c ****     }
 532              		.loc 1 250 16 view .LVU151
 533 0020 0020     		movs	r0, #0
 534              	.LVL37:
 250:../../Middlewares/LVGL/GUI/lvgl/src/misc/lv_area.c ****     }
 535              		.loc 1 250 16 view .LVU152
 536 0022 7047     		bx	lr
 537              	.LVL38:
 538              	.L21:
 250:../../Middlewares/LVGL/GUI/lvgl/src/misc/lv_area.c ****     }
 539              		.loc 1 250 16 view .LVU153
 540 0024 0020     		movs	r0, #0
 541              	.LVL39:
 250:../../Middlewares/LVGL/GUI/lvgl/src/misc/lv_area.c ****     }
 542              		.loc 1 250 16 view .LVU154
ARM GAS  C:\Users\28576\AppData\Local\Temp\ccYc01Pv.s 			page 23


 543 0026 7047     		bx	lr
 544              	.LVL40:
 545              	.L22:
 250:../../Middlewares/LVGL/GUI/lvgl/src/misc/lv_area.c ****     }
 546              		.loc 1 250 16 view .LVU155
 547 0028 0020     		movs	r0, #0
 548              	.LVL41:
 250:../../Middlewares/LVGL/GUI/lvgl/src/misc/lv_area.c ****     }
 549              		.loc 1 250 16 view .LVU156
 550 002a 7047     		bx	lr
 551              	.LVL42:
 552              	.L23:
 250:../../Middlewares/LVGL/GUI/lvgl/src/misc/lv_area.c ****     }
 553              		.loc 1 250 16 view .LVU157
 554 002c 0020     		movs	r0, #0
 555              	.LVL43:
 250:../../Middlewares/LVGL/GUI/lvgl/src/misc/lv_area.c ****     }
 556              		.loc 1 250 16 view .LVU158
 557 002e 7047     		bx	lr
 558              	.LVL44:
 559              	.L24:
 247:../../Middlewares/LVGL/GUI/lvgl/src/misc/lv_area.c ****     }
 560              		.loc 1 247 16 view .LVU159
 561 0030 0120     		movs	r0, #1
 562              	.LVL45:
 252:../../Middlewares/LVGL/GUI/lvgl/src/misc/lv_area.c **** 
 563              		.loc 1 252 1 view .LVU160
 564 0032 7047     		bx	lr
 565              		.cfi_endproc
 566              	.LFE198:
 568              		.section	.text.lv_area_is_equal,"ax",%progbits
 569              		.align	1
 570              		.global	lv_area_is_equal
 571              		.syntax unified
 572              		.thumb
 573              		.thumb_func
 575              	lv_area_is_equal:
 576              	.LVL46:
 577              	.LFB201:
 312:../../Middlewares/LVGL/GUI/lvgl/src/misc/lv_area.c ****     return a->x1 == b->x1 && a->x2 == b->x2 && a->y1 == b->y1 && a->y2 == b->y2;
 578              		.loc 1 312 1 is_stmt 1 view -0
 579              		.cfi_startproc
 580              		@ args = 0, pretend = 0, frame = 0
 581              		@ frame_needed = 0, uses_anonymous_args = 0
 582              		@ link register save eliminated.
 313:../../Middlewares/LVGL/GUI/lvgl/src/misc/lv_area.c **** }
 583              		.loc 1 313 5 view .LVU162
 313:../../Middlewares/LVGL/GUI/lvgl/src/misc/lv_area.c **** }
 584              		.loc 1 313 13 is_stmt 0 view .LVU163
 585 0000 0268     		ldr	r2, [r0]
 313:../../Middlewares/LVGL/GUI/lvgl/src/misc/lv_area.c **** }
 586              		.loc 1 313 22 view .LVU164
 587 0002 0B68     		ldr	r3, [r1]
 313:../../Middlewares/LVGL/GUI/lvgl/src/misc/lv_area.c **** }
 588              		.loc 1 313 63 view .LVU165
 589 0004 9A42     		cmp	r2, r3
 590 0006 01D0     		beq	.L31
ARM GAS  C:\Users\28576\AppData\Local\Temp\ccYc01Pv.s 			page 24


 313:../../Middlewares/LVGL/GUI/lvgl/src/misc/lv_area.c **** }
 591              		.loc 1 313 63 discriminator 8 view .LVU166
 592 0008 0020     		movs	r0, #0
 593              	.LVL47:
 313:../../Middlewares/LVGL/GUI/lvgl/src/misc/lv_area.c **** }
 594              		.loc 1 313 63 discriminator 8 view .LVU167
 595 000a 7047     		bx	lr
 596              	.LVL48:
 597              	.L31:
 313:../../Middlewares/LVGL/GUI/lvgl/src/misc/lv_area.c **** }
 598              		.loc 1 313 31 discriminator 1 view .LVU168
 599 000c 8268     		ldr	r2, [r0, #8]
 313:../../Middlewares/LVGL/GUI/lvgl/src/misc/lv_area.c **** }
 600              		.loc 1 313 40 discriminator 1 view .LVU169
 601 000e 8B68     		ldr	r3, [r1, #8]
 313:../../Middlewares/LVGL/GUI/lvgl/src/misc/lv_area.c **** }
 602              		.loc 1 313 27 discriminator 1 view .LVU170
 603 0010 9A42     		cmp	r2, r3
 604 0012 01D0     		beq	.L32
 313:../../Middlewares/LVGL/GUI/lvgl/src/misc/lv_area.c **** }
 605              		.loc 1 313 63 discriminator 8 view .LVU171
 606 0014 0020     		movs	r0, #0
 607              	.LVL49:
 313:../../Middlewares/LVGL/GUI/lvgl/src/misc/lv_area.c **** }
 608              		.loc 1 313 63 discriminator 8 view .LVU172
 609 0016 7047     		bx	lr
 610              	.LVL50:
 611              	.L32:
 313:../../Middlewares/LVGL/GUI/lvgl/src/misc/lv_area.c **** }
 612              		.loc 1 313 49 discriminator 3 view .LVU173
 613 0018 4268     		ldr	r2, [r0, #4]
 313:../../Middlewares/LVGL/GUI/lvgl/src/misc/lv_area.c **** }
 614              		.loc 1 313 58 discriminator 3 view .LVU174
 615 001a 4B68     		ldr	r3, [r1, #4]
 313:../../Middlewares/LVGL/GUI/lvgl/src/misc/lv_area.c **** }
 616              		.loc 1 313 45 discriminator 3 view .LVU175
 617 001c 9A42     		cmp	r2, r3
 618 001e 01D0     		beq	.L33
 313:../../Middlewares/LVGL/GUI/lvgl/src/misc/lv_area.c **** }
 619              		.loc 1 313 63 discriminator 8 view .LVU176
 620 0020 0020     		movs	r0, #0
 621              	.LVL51:
 313:../../Middlewares/LVGL/GUI/lvgl/src/misc/lv_area.c **** }
 622              		.loc 1 313 63 discriminator 8 view .LVU177
 623 0022 7047     		bx	lr
 624              	.LVL52:
 625              	.L33:
 313:../../Middlewares/LVGL/GUI/lvgl/src/misc/lv_area.c **** }
 626              		.loc 1 313 67 discriminator 5 view .LVU178
 627 0024 C268     		ldr	r2, [r0, #12]
 313:../../Middlewares/LVGL/GUI/lvgl/src/misc/lv_area.c **** }
 628              		.loc 1 313 76 discriminator 5 view .LVU179
 629 0026 CB68     		ldr	r3, [r1, #12]
 313:../../Middlewares/LVGL/GUI/lvgl/src/misc/lv_area.c **** }
 630              		.loc 1 313 63 discriminator 5 view .LVU180
 631 0028 9A42     		cmp	r2, r3
 632 002a 01D0     		beq	.L30
ARM GAS  C:\Users\28576\AppData\Local\Temp\ccYc01Pv.s 			page 25


 313:../../Middlewares/LVGL/GUI/lvgl/src/misc/lv_area.c **** }
 633              		.loc 1 313 63 discriminator 8 view .LVU181
 634 002c 0020     		movs	r0, #0
 635              	.LVL53:
 313:../../Middlewares/LVGL/GUI/lvgl/src/misc/lv_area.c **** }
 636              		.loc 1 313 63 discriminator 8 view .LVU182
 637 002e 7047     		bx	lr
 638              	.LVL54:
 639              	.L30:
 313:../../Middlewares/LVGL/GUI/lvgl/src/misc/lv_area.c **** }
 640              		.loc 1 313 63 discriminator 7 view .LVU183
 641 0030 0120     		movs	r0, #1
 642              	.LVL55:
 314:../../Middlewares/LVGL/GUI/lvgl/src/misc/lv_area.c **** 
 643              		.loc 1 314 1 view .LVU184
 644 0032 7047     		bx	lr
 645              		.cfi_endproc
 646              	.LFE201:
 648              		.section	.text.lv_point_array_transform,"ax",%progbits
 649              		.align	1
 650              		.global	lv_point_array_transform
 651              		.syntax unified
 652              		.thumb
 653              		.thumb_func
 655              	lv_point_array_transform:
 656              	.LVL56:
 657              	.LFB204:
 452:../../Middlewares/LVGL/GUI/lvgl/src/misc/lv_area.c ****     if(angle == 0 && scale_x == 256 && scale_y == 256) {
 658              		.loc 1 452 1 is_stmt 1 view -0
 659              		.cfi_startproc
 660              		@ args = 12, pretend = 0, frame = 24
 661              		@ frame_needed = 0, uses_anonymous_args = 0
 452:../../Middlewares/LVGL/GUI/lvgl/src/misc/lv_area.c ****     if(angle == 0 && scale_x == 256 && scale_y == 256) {
 662              		.loc 1 452 1 is_stmt 0 view .LVU186
 663 0000 2DE9F04F 		push	{r4, r5, r6, r7, r8, r9, r10, fp, lr}
 664              	.LCFI3:
 665              		.cfi_def_cfa_offset 36
 666              		.cfi_offset 4, -36
 667              		.cfi_offset 5, -32
 668              		.cfi_offset 6, -28
 669              		.cfi_offset 7, -24
 670              		.cfi_offset 8, -20
 671              		.cfi_offset 9, -16
 672              		.cfi_offset 10, -12
 673              		.cfi_offset 11, -8
 674              		.cfi_offset 14, -4
 675 0004 87B0     		sub	sp, sp, #28
 676              	.LCFI4:
 677              		.cfi_def_cfa_offset 64
 678 0006 0446     		mov	r4, r0
 679 0008 0F46     		mov	r7, r1
 680 000a 0193     		str	r3, [sp, #4]
 681 000c DDF84080 		ldr	r8, [sp, #64]
 682 0010 119D     		ldr	r5, [sp, #68]
 683 0012 9DF84810 		ldrb	r1, [sp, #72]	@ zero_extendqisi2
 684              	.LVL57:
 452:../../Middlewares/LVGL/GUI/lvgl/src/misc/lv_area.c ****     if(angle == 0 && scale_x == 256 && scale_y == 256) {
ARM GAS  C:\Users\28576\AppData\Local\Temp\ccYc01Pv.s 			page 26


 685              		.loc 1 452 1 view .LVU187
 686 0016 0291     		str	r1, [sp, #8]
 453:../../Middlewares/LVGL/GUI/lvgl/src/misc/lv_area.c ****         return;
 687              		.loc 1 453 5 is_stmt 1 view .LVU188
 453:../../Middlewares/LVGL/GUI/lvgl/src/misc/lv_area.c ****         return;
 688              		.loc 1 453 14 is_stmt 0 view .LVU189
 689 0018 1646     		mov	r6, r2
 453:../../Middlewares/LVGL/GUI/lvgl/src/misc/lv_area.c ****         return;
 690              		.loc 1 453 30 view .LVU190
 691 001a B3F5807F 		cmp	r3, #256
 692 001e 14BF     		ite	ne
 693 0020 4FF0000B 		movne	fp, #0
 694 0024 4FF0010B 		moveq	fp, #1
 453:../../Middlewares/LVGL/GUI/lvgl/src/misc/lv_area.c ****         return;
 695              		.loc 1 453 19 view .LVU191
 696 0028 002A     		cmp	r2, #0
 697 002a 14BF     		ite	ne
 698 002c 0023     		movne	r3, #0
 699 002e 0BF00103 		andeq	r3, fp, #1
 700              	.LVL58:
 453:../../Middlewares/LVGL/GUI/lvgl/src/misc/lv_area.c ****         return;
 701              		.loc 1 453 7 view .LVU192
 702 0032 8BB1     		cbz	r3, .L37
 453:../../Middlewares/LVGL/GUI/lvgl/src/misc/lv_area.c ****         return;
 703              		.loc 1 453 37 discriminator 1 view .LVU193
 704 0034 B8F5807F 		cmp	r8, #256
 705 0038 6BD0     		beq	.L34
 706 003a 0023     		movs	r3, #0
 707 003c 0CE0     		b	.L37
 708              	.LVL59:
 709              	.L38:
 458:../../Middlewares/LVGL/GUI/lvgl/src/misc/lv_area.c ****         points[i].y -= pivot->y;
 710              		.loc 1 458 9 is_stmt 1 view .LVU194
 458:../../Middlewares/LVGL/GUI/lvgl/src/misc/lv_area.c ****         points[i].y -= pivot->y;
 711              		.loc 1 458 15 is_stmt 0 view .LVU195
 712 003e 04EBC301 		add	r1, r4, r3, lsl #3
 458:../../Middlewares/LVGL/GUI/lvgl/src/misc/lv_area.c ****         points[i].y -= pivot->y;
 713              		.loc 1 458 18 view .LVU196
 714 0042 54F83320 		ldr	r2, [r4, r3, lsl #3]
 458:../../Middlewares/LVGL/GUI/lvgl/src/misc/lv_area.c ****         points[i].y -= pivot->y;
 715              		.loc 1 458 29 view .LVU197
 716 0046 2868     		ldr	r0, [r5]
 458:../../Middlewares/LVGL/GUI/lvgl/src/misc/lv_area.c ****         points[i].y -= pivot->y;
 717              		.loc 1 458 21 view .LVU198
 718 0048 121A     		subs	r2, r2, r0
 719 004a 44F83320 		str	r2, [r4, r3, lsl #3]
 459:../../Middlewares/LVGL/GUI/lvgl/src/misc/lv_area.c **** 
 720              		.loc 1 459 9 is_stmt 1 view .LVU199
 459:../../Middlewares/LVGL/GUI/lvgl/src/misc/lv_area.c **** 
 721              		.loc 1 459 18 is_stmt 0 view .LVU200
 722 004e 4A68     		ldr	r2, [r1, #4]
 459:../../Middlewares/LVGL/GUI/lvgl/src/misc/lv_area.c **** 
 723              		.loc 1 459 29 view .LVU201
 724 0050 6868     		ldr	r0, [r5, #4]
 459:../../Middlewares/LVGL/GUI/lvgl/src/misc/lv_area.c **** 
 725              		.loc 1 459 21 view .LVU202
 726 0052 121A     		subs	r2, r2, r0
ARM GAS  C:\Users\28576\AppData\Local\Temp\ccYc01Pv.s 			page 27


 727 0054 4A60     		str	r2, [r1, #4]
 457:../../Middlewares/LVGL/GUI/lvgl/src/misc/lv_area.c ****         points[i].x -= pivot->x;
 728              		.loc 1 457 28 is_stmt 1 discriminator 3 view .LVU203
 729 0056 0133     		adds	r3, r3, #1
 730              	.LVL60:
 731              	.L37:
 457:../../Middlewares/LVGL/GUI/lvgl/src/misc/lv_area.c ****         points[i].x -= pivot->x;
 732              		.loc 1 457 18 discriminator 1 view .LVU204
 733 0058 BB42     		cmp	r3, r7
 734 005a F0D3     		bcc	.L38
 463:../../Middlewares/LVGL/GUI/lvgl/src/misc/lv_area.c ****         for(i = 0; i < count; i++) {
 735              		.loc 1 463 5 view .LVU205
 463:../../Middlewares/LVGL/GUI/lvgl/src/misc/lv_area.c ****         for(i = 0; i < count; i++) {
 736              		.loc 1 463 7 is_stmt 0 view .LVU206
 737 005c 002E     		cmp	r6, #0
 738 005e 5BD0     		beq	.L53
 471:../../Middlewares/LVGL/GUI/lvgl/src/misc/lv_area.c ****     if(angle_limited > 3600) angle_limited -= 3600;
 739              		.loc 1 471 5 is_stmt 1 view .LVU207
 740              	.LVL61:
 472:../../Middlewares/LVGL/GUI/lvgl/src/misc/lv_area.c ****     if(angle_limited < 0) angle_limited += 3600;
 741              		.loc 1 472 5 view .LVU208
 472:../../Middlewares/LVGL/GUI/lvgl/src/misc/lv_area.c ****     if(angle_limited < 0) angle_limited += 3600;
 742              		.loc 1 472 7 is_stmt 0 view .LVU209
 743 0060 B6F5616F 		cmp	r6, #3600
 744 0064 5BDD     		ble	.L42
 472:../../Middlewares/LVGL/GUI/lvgl/src/misc/lv_area.c ****     if(angle_limited < 0) angle_limited += 3600;
 745              		.loc 1 472 30 is_stmt 1 discriminator 1 view .LVU210
 472:../../Middlewares/LVGL/GUI/lvgl/src/misc/lv_area.c ****     if(angle_limited < 0) angle_limited += 3600;
 746              		.loc 1 472 44 is_stmt 0 discriminator 1 view .LVU211
 747 0066 A6F56166 		sub	r6, r6, #3600
 748              	.LVL62:
 473:../../Middlewares/LVGL/GUI/lvgl/src/misc/lv_area.c **** 
 749              		.loc 1 473 5 is_stmt 1 view .LVU212
 750              	.L43:
 475:../../Middlewares/LVGL/GUI/lvgl/src/misc/lv_area.c ****     int32_t angle_high = angle_low + 1;
 751              		.loc 1 475 5 view .LVU213
 475:../../Middlewares/LVGL/GUI/lvgl/src/misc/lv_area.c ****     int32_t angle_high = angle_low + 1;
 752              		.loc 1 475 13 is_stmt 0 view .LVU214
 753 006a DFF868A1 		ldr	r10, .L54
 754 006e 8AFB0623 		smull	r2, r3, r10, r6
 755              	.LVL63:
 475:../../Middlewares/LVGL/GUI/lvgl/src/misc/lv_area.c ****     int32_t angle_high = angle_low + 1;
 756              		.loc 1 475 13 view .LVU215
 757 0072 4FEAE679 		asr	r9, r6, #31
 758 0076 C9EBA309 		rsb	r9, r9, r3, asr #2
 759              	.LVL64:
 476:../../Middlewares/LVGL/GUI/lvgl/src/misc/lv_area.c ****     int32_t angle_rem = angle_limited  - (angle_low * 10);
 760              		.loc 1 476 5 is_stmt 1 view .LVU216
 476:../../Middlewares/LVGL/GUI/lvgl/src/misc/lv_area.c ****     int32_t angle_rem = angle_limited  - (angle_low * 10);
 761              		.loc 1 476 13 is_stmt 0 view .LVU217
 762 007a 09F10103 		add	r3, r9, #1
 763 007e 0393     		str	r3, [sp, #12]
 764              	.LVL65:
 477:../../Middlewares/LVGL/GUI/lvgl/src/misc/lv_area.c **** 
 765              		.loc 1 477 5 is_stmt 1 view .LVU218
 477:../../Middlewares/LVGL/GUI/lvgl/src/misc/lv_area.c **** 
 766              		.loc 1 477 13 is_stmt 0 view .LVU219
ARM GAS  C:\Users\28576\AppData\Local\Temp\ccYc01Pv.s 			page 28


 767 0080 6FF00903 		mvn	r3, #9
 768              	.LVL66:
 477:../../Middlewares/LVGL/GUI/lvgl/src/misc/lv_area.c **** 
 769              		.loc 1 477 13 view .LVU220
 770 0084 03FB0966 		mla	r6, r3, r9, r6
 771              	.LVL67:
 479:../../Middlewares/LVGL/GUI/lvgl/src/misc/lv_area.c ****     int32_t s2 = lv_trigo_sin(angle_high);
 772              		.loc 1 479 5 is_stmt 1 view .LVU221
 479:../../Middlewares/LVGL/GUI/lvgl/src/misc/lv_area.c ****     int32_t s2 = lv_trigo_sin(angle_high);
 773              		.loc 1 479 18 is_stmt 0 view .LVU222
 774 0088 0FFA89F0 		sxth	r0, r9
 775 008c FFF7FEFF 		bl	lv_trigo_sin
 776              	.LVL68:
 777 0090 0490     		str	r0, [sp, #16]
 778              	.LVL69:
 480:../../Middlewares/LVGL/GUI/lvgl/src/misc/lv_area.c **** 
 779              		.loc 1 480 5 is_stmt 1 view .LVU223
 480:../../Middlewares/LVGL/GUI/lvgl/src/misc/lv_area.c **** 
 780              		.loc 1 480 18 is_stmt 0 view .LVU224
 781 0092 BDF90C00 		ldrsh	r0, [sp, #12]
 782              	.LVL70:
 480:../../Middlewares/LVGL/GUI/lvgl/src/misc/lv_area.c **** 
 783              		.loc 1 480 18 view .LVU225
 784 0096 FFF7FEFF 		bl	lv_trigo_sin
 785              	.LVL71:
 786 009a 0590     		str	r0, [sp, #20]
 787              	.LVL72:
 482:../../Middlewares/LVGL/GUI/lvgl/src/misc/lv_area.c ****     int32_t c2 = lv_trigo_sin(angle_high + 90);
 788              		.loc 1 482 5 is_stmt 1 view .LVU226
 482:../../Middlewares/LVGL/GUI/lvgl/src/misc/lv_area.c ****     int32_t c2 = lv_trigo_sin(angle_high + 90);
 789              		.loc 1 482 41 is_stmt 0 view .LVU227
 790 009c 09F15A00 		add	r0, r9, #90
 791              	.LVL73:
 482:../../Middlewares/LVGL/GUI/lvgl/src/misc/lv_area.c ****     int32_t c2 = lv_trigo_sin(angle_high + 90);
 792              		.loc 1 482 18 view .LVU228
 793 00a0 00B2     		sxth	r0, r0
 794 00a2 FFF7FEFF 		bl	lv_trigo_sin
 795              	.LVL74:
 796 00a6 8146     		mov	r9, r0
 797              	.LVL75:
 483:../../Middlewares/LVGL/GUI/lvgl/src/misc/lv_area.c **** 
 798              		.loc 1 483 5 is_stmt 1 view .LVU229
 483:../../Middlewares/LVGL/GUI/lvgl/src/misc/lv_area.c **** 
 799              		.loc 1 483 42 is_stmt 0 view .LVU230
 800 00a8 039B     		ldr	r3, [sp, #12]
 801 00aa 03F15A00 		add	r0, r3, #90
 802              	.LVL76:
 483:../../Middlewares/LVGL/GUI/lvgl/src/misc/lv_area.c **** 
 803              		.loc 1 483 18 view .LVU231
 804 00ae 00B2     		sxth	r0, r0
 805 00b0 FFF7FEFF 		bl	lv_trigo_sin
 806              	.LVL77:
 485:../../Middlewares/LVGL/GUI/lvgl/src/misc/lv_area.c ****     sinma = sinma >> (LV_TRIGO_SHIFT - LV_TRANSFORM_TRIGO_SHIFT);
 807              		.loc 1 485 5 is_stmt 1 view .LVU232
 485:../../Middlewares/LVGL/GUI/lvgl/src/misc/lv_area.c ****     sinma = sinma >> (LV_TRIGO_SHIFT - LV_TRANSFORM_TRIGO_SHIFT);
 808              		.loc 1 485 31 is_stmt 0 view .LVU233
 809 00b4 C6F10A03 		rsb	r3, r6, #10
ARM GAS  C:\Users\28576\AppData\Local\Temp\ccYc01Pv.s 			page 29


 485:../../Middlewares/LVGL/GUI/lvgl/src/misc/lv_area.c ****     sinma = sinma >> (LV_TRIGO_SHIFT - LV_TRANSFORM_TRIGO_SHIFT);
 810              		.loc 1 485 49 view .LVU234
 811 00b8 0599     		ldr	r1, [sp, #20]
 812 00ba 06FB01F1 		mul	r1, r6, r1
 485:../../Middlewares/LVGL/GUI/lvgl/src/misc/lv_area.c ****     sinma = sinma >> (LV_TRIGO_SHIFT - LV_TRANSFORM_TRIGO_SHIFT);
 813              		.loc 1 485 44 view .LVU235
 814 00be 049A     		ldr	r2, [sp, #16]
 815 00c0 02FB0311 		mla	r1, r2, r3, r1
 485:../../Middlewares/LVGL/GUI/lvgl/src/misc/lv_area.c ****     sinma = sinma >> (LV_TRIGO_SHIFT - LV_TRANSFORM_TRIGO_SHIFT);
 816              		.loc 1 485 13 view .LVU236
 817 00c4 8AFB01C2 		smull	ip, r2, r10, r1
 818 00c8 C917     		asrs	r1, r1, #31
 819 00ca C1EBA201 		rsb	r1, r1, r2, asr #2
 820              	.LVL78:
 486:../../Middlewares/LVGL/GUI/lvgl/src/misc/lv_area.c ****     int32_t cosma = (c1 * (10 - angle_rem) + c2 * angle_rem) / 10;
 821              		.loc 1 486 5 is_stmt 1 view .LVU237
 486:../../Middlewares/LVGL/GUI/lvgl/src/misc/lv_area.c ****     int32_t cosma = (c1 * (10 - angle_rem) + c2 * angle_rem) / 10;
 822              		.loc 1 486 11 is_stmt 0 view .LVU238
 823 00ce 4911     		asrs	r1, r1, #5
 824              	.LVL79:
 487:../../Middlewares/LVGL/GUI/lvgl/src/misc/lv_area.c ****     cosma = cosma >> (LV_TRIGO_SHIFT - LV_TRANSFORM_TRIGO_SHIFT);
 825              		.loc 1 487 5 is_stmt 1 view .LVU239
 487:../../Middlewares/LVGL/GUI/lvgl/src/misc/lv_area.c ****     cosma = cosma >> (LV_TRIGO_SHIFT - LV_TRANSFORM_TRIGO_SHIFT);
 826              		.loc 1 487 49 is_stmt 0 view .LVU240
 827 00d0 00FB06F6 		mul	r6, r0, r6
 828              	.LVL80:
 487:../../Middlewares/LVGL/GUI/lvgl/src/misc/lv_area.c ****     cosma = cosma >> (LV_TRIGO_SHIFT - LV_TRANSFORM_TRIGO_SHIFT);
 829              		.loc 1 487 44 view .LVU241
 830 00d4 09FB0366 		mla	r6, r9, r3, r6
 487:../../Middlewares/LVGL/GUI/lvgl/src/misc/lv_area.c ****     cosma = cosma >> (LV_TRIGO_SHIFT - LV_TRANSFORM_TRIGO_SHIFT);
 831              		.loc 1 487 13 view .LVU242
 832 00d8 8AFB063A 		smull	r3, r10, r10, r6
 833 00dc F217     		asrs	r2, r6, #31
 834 00de C2EBAA02 		rsb	r2, r2, r10, asr #2
 835              	.LVL81:
 488:../../Middlewares/LVGL/GUI/lvgl/src/misc/lv_area.c **** 
 836              		.loc 1 488 5 is_stmt 1 view .LVU243
 488:../../Middlewares/LVGL/GUI/lvgl/src/misc/lv_area.c **** 
 837              		.loc 1 488 11 is_stmt 0 view .LVU244
 838 00e2 5211     		asrs	r2, r2, #5
 839              	.LVL82:
 490:../../Middlewares/LVGL/GUI/lvgl/src/misc/lv_area.c ****         int32_t x = points[i].x;
 840              		.loc 1 490 5 is_stmt 1 view .LVU245
 490:../../Middlewares/LVGL/GUI/lvgl/src/misc/lv_area.c ****         int32_t x = points[i].x;
 841              		.loc 1 490 11 is_stmt 0 view .LVU246
 842 00e4 0023     		movs	r3, #0
 490:../../Middlewares/LVGL/GUI/lvgl/src/misc/lv_area.c ****         int32_t x = points[i].x;
 843              		.loc 1 490 5 view .LVU247
 844 00e6 39E0     		b	.L44
 845              	.LVL83:
 846              	.L41:
 465:../../Middlewares/LVGL/GUI/lvgl/src/misc/lv_area.c ****             points[i].y = (((int32_t)(points[i].y) * scale_y) >> 8) + pivot->y;
 847              		.loc 1 465 13 is_stmt 1 view .LVU248
 465:../../Middlewares/LVGL/GUI/lvgl/src/misc/lv_area.c ****             points[i].y = (((int32_t)(points[i].y) * scale_y) >> 8) + pivot->y;
 848              		.loc 1 465 45 is_stmt 0 view .LVU249
 849 00e8 04EBC300 		add	r0, r4, r3, lsl #3
 465:../../Middlewares/LVGL/GUI/lvgl/src/misc/lv_area.c ****             points[i].y = (((int32_t)(points[i].y) * scale_y) >> 8) + pivot->y;
ARM GAS  C:\Users\28576\AppData\Local\Temp\ccYc01Pv.s 			page 30


 850              		.loc 1 465 48 view .LVU250
 851 00ec 54F83320 		ldr	r2, [r4, r3, lsl #3]
 465:../../Middlewares/LVGL/GUI/lvgl/src/misc/lv_area.c ****             points[i].y = (((int32_t)(points[i].y) * scale_y) >> 8) + pivot->y;
 852              		.loc 1 465 52 view .LVU251
 853 00f0 06FB02F1 		mul	r1, r6, r2
 465:../../Middlewares/LVGL/GUI/lvgl/src/misc/lv_area.c ****             points[i].y = (((int32_t)(points[i].y) * scale_y) >> 8) + pivot->y;
 854              		.loc 1 465 76 view .LVU252
 855 00f4 2A68     		ldr	r2, [r5]
 465:../../Middlewares/LVGL/GUI/lvgl/src/misc/lv_area.c ****             points[i].y = (((int32_t)(points[i].y) * scale_y) >> 8) + pivot->y;
 856              		.loc 1 465 69 view .LVU253
 857 00f6 02EB2122 		add	r2, r2, r1, asr #8
 465:../../Middlewares/LVGL/GUI/lvgl/src/misc/lv_area.c ****             points[i].y = (((int32_t)(points[i].y) * scale_y) >> 8) + pivot->y;
 858              		.loc 1 465 25 view .LVU254
 859 00fa 44F83320 		str	r2, [r4, r3, lsl #3]
 466:../../Middlewares/LVGL/GUI/lvgl/src/misc/lv_area.c ****         }
 860              		.loc 1 466 13 is_stmt 1 view .LVU255
 466:../../Middlewares/LVGL/GUI/lvgl/src/misc/lv_area.c ****         }
 861              		.loc 1 466 48 is_stmt 0 view .LVU256
 862 00fe 4268     		ldr	r2, [r0, #4]
 466:../../Middlewares/LVGL/GUI/lvgl/src/misc/lv_area.c ****         }
 863              		.loc 1 466 52 view .LVU257
 864 0100 08FB02F1 		mul	r1, r8, r2
 466:../../Middlewares/LVGL/GUI/lvgl/src/misc/lv_area.c ****         }
 865              		.loc 1 466 76 view .LVU258
 866 0104 6A68     		ldr	r2, [r5, #4]
 466:../../Middlewares/LVGL/GUI/lvgl/src/misc/lv_area.c ****         }
 867              		.loc 1 466 69 view .LVU259
 868 0106 02EB2122 		add	r2, r2, r1, asr #8
 466:../../Middlewares/LVGL/GUI/lvgl/src/misc/lv_area.c ****         }
 869              		.loc 1 466 25 view .LVU260
 870 010a 4260     		str	r2, [r0, #4]
 464:../../Middlewares/LVGL/GUI/lvgl/src/misc/lv_area.c ****             points[i].x = (((int32_t)(points[i].x) * scale_x) >> 8) + pivot->x;
 871              		.loc 1 464 32 is_stmt 1 discriminator 3 view .LVU261
 872 010c 0133     		adds	r3, r3, #1
 873              	.LVL84:
 874              	.L39:
 464:../../Middlewares/LVGL/GUI/lvgl/src/misc/lv_area.c ****             points[i].x = (((int32_t)(points[i].x) * scale_x) >> 8) + pivot->x;
 875              		.loc 1 464 22 discriminator 1 view .LVU262
 876 010e BB42     		cmp	r3, r7
 877 0110 EAD3     		bcc	.L41
 878              	.LVL85:
 879              	.L34:
 510:../../Middlewares/LVGL/GUI/lvgl/src/misc/lv_area.c **** 
 880              		.loc 1 510 1 is_stmt 0 view .LVU263
 881 0112 07B0     		add	sp, sp, #28
 882              	.LCFI5:
 883              		.cfi_remember_state
 884              		.cfi_def_cfa_offset 36
 885              		@ sp needed
 886 0114 BDE8F08F 		pop	{r4, r5, r6, r7, r8, r9, r10, fp, pc}
 887              	.LVL86:
 888              	.L53:
 889              	.LCFI6:
 890              		.cfi_restore_state
 464:../../Middlewares/LVGL/GUI/lvgl/src/misc/lv_area.c ****             points[i].x = (((int32_t)(points[i].x) * scale_x) >> 8) + pivot->x;
 891              		.loc 1 464 15 view .LVU264
 892 0118 0023     		movs	r3, #0
ARM GAS  C:\Users\28576\AppData\Local\Temp\ccYc01Pv.s 			page 31


 893              	.LVL87:
 464:../../Middlewares/LVGL/GUI/lvgl/src/misc/lv_area.c ****             points[i].x = (((int32_t)(points[i].x) * scale_x) >> 8) + pivot->x;
 894              		.loc 1 464 15 view .LVU265
 895 011a 019E     		ldr	r6, [sp, #4]
 896              	.LVL88:
 464:../../Middlewares/LVGL/GUI/lvgl/src/misc/lv_area.c ****             points[i].x = (((int32_t)(points[i].x) * scale_x) >> 8) + pivot->x;
 897              		.loc 1 464 15 view .LVU266
 898 011c F7E7     		b	.L39
 899              	.LVL89:
 900              	.L42:
 473:../../Middlewares/LVGL/GUI/lvgl/src/misc/lv_area.c **** 
 901              		.loc 1 473 5 is_stmt 1 view .LVU267
 473:../../Middlewares/LVGL/GUI/lvgl/src/misc/lv_area.c **** 
 902              		.loc 1 473 7 is_stmt 0 view .LVU268
 903 011e 002E     		cmp	r6, #0
 904 0120 A3DA     		bge	.L43
 473:../../Middlewares/LVGL/GUI/lvgl/src/misc/lv_area.c **** 
 905              		.loc 1 473 27 is_stmt 1 discriminator 1 view .LVU269
 473:../../Middlewares/LVGL/GUI/lvgl/src/misc/lv_area.c **** 
 906              		.loc 1 473 41 is_stmt 0 discriminator 1 view .LVU270
 907 0122 06F56166 		add	r6, r6, #3600
 908              	.LVL90:
 473:../../Middlewares/LVGL/GUI/lvgl/src/misc/lv_area.c **** 
 909              		.loc 1 473 41 discriminator 1 view .LVU271
 910 0126 A0E7     		b	.L43
 911              	.LVL91:
 912              	.L45:
 913              	.LBB2:
 498:../../Middlewares/LVGL/GUI/lvgl/src/misc/lv_area.c ****                 x *= scale_x;
 914              		.loc 1 498 13 is_stmt 1 view .LVU272
 498:../../Middlewares/LVGL/GUI/lvgl/src/misc/lv_area.c ****                 x *= scale_x;
 915              		.loc 1 498 15 is_stmt 0 view .LVU273
 916 0128 029E     		ldr	r6, [sp, #8]
 917 012a 002E     		cmp	r6, #0
 918 012c 3AD0     		beq	.L47
 499:../../Middlewares/LVGL/GUI/lvgl/src/misc/lv_area.c ****                 y *= scale_y;
 919              		.loc 1 499 17 is_stmt 1 view .LVU274
 499:../../Middlewares/LVGL/GUI/lvgl/src/misc/lv_area.c ****                 y *= scale_y;
 920              		.loc 1 499 19 is_stmt 0 view .LVU275
 921 012e 019E     		ldr	r6, [sp, #4]
 922 0130 0EFB06FE 		mul	lr, lr, r6
 923              	.LVL92:
 500:../../Middlewares/LVGL/GUI/lvgl/src/misc/lv_area.c ****                 points[i].x = (((cosma * x - sinma * y)) >> (LV_TRANSFORM_TRIGO_SHIFT + 8)) + pivot
 924              		.loc 1 500 17 is_stmt 1 view .LVU276
 500:../../Middlewares/LVGL/GUI/lvgl/src/misc/lv_area.c ****                 points[i].x = (((cosma * x - sinma * y)) >> (LV_TRANSFORM_TRIGO_SHIFT + 8)) + pivot
 925              		.loc 1 500 19 is_stmt 0 view .LVU277
 926 0134 0CFB08FC 		mul	ip, ip, r8
 927              	.LVL93:
 501:../../Middlewares/LVGL/GUI/lvgl/src/misc/lv_area.c ****                 points[i].y = (((sinma * x + cosma * y)) >> (LV_TRANSFORM_TRIGO_SHIFT + 8)) + pivot
 928              		.loc 1 501 17 is_stmt 1 view .LVU278
 501:../../Middlewares/LVGL/GUI/lvgl/src/misc/lv_area.c ****                 points[i].y = (((sinma * x + cosma * y)) >> (LV_TRANSFORM_TRIGO_SHIFT + 8)) + pivot
 929              		.loc 1 501 40 is_stmt 0 view .LVU279
 930 0138 0EFB02FA 		mul	r10, lr, r2
 501:../../Middlewares/LVGL/GUI/lvgl/src/misc/lv_area.c ****                 points[i].y = (((sinma * x + cosma * y)) >> (LV_TRANSFORM_TRIGO_SHIFT + 8)) + pivot
 931              		.loc 1 501 44 view .LVU280
 932 013c 0CFB11AA 		mls	r10, ip, r1, r10
 501:../../Middlewares/LVGL/GUI/lvgl/src/misc/lv_area.c ****                 points[i].y = (((sinma * x + cosma * y)) >> (LV_TRANSFORM_TRIGO_SHIFT + 8)) + pivot
ARM GAS  C:\Users\28576\AppData\Local\Temp\ccYc01Pv.s 			page 32


 933              		.loc 1 501 100 view .LVU281
 934 0140 2E68     		ldr	r6, [r5]
 501:../../Middlewares/LVGL/GUI/lvgl/src/misc/lv_area.c ****                 points[i].y = (((sinma * x + cosma * y)) >> (LV_TRANSFORM_TRIGO_SHIFT + 8)) + pivot
 935              		.loc 1 501 93 view .LVU282
 936 0142 06EBAA46 		add	r6, r6, r10, asr #18
 501:../../Middlewares/LVGL/GUI/lvgl/src/misc/lv_area.c ****                 points[i].y = (((sinma * x + cosma * y)) >> (LV_TRANSFORM_TRIGO_SHIFT + 8)) + pivot
 937              		.loc 1 501 29 view .LVU283
 938 0146 44F80960 		str	r6, [r4, r9]
 502:../../Middlewares/LVGL/GUI/lvgl/src/misc/lv_area.c ****             }
 939              		.loc 1 502 17 is_stmt 1 view .LVU284
 502:../../Middlewares/LVGL/GUI/lvgl/src/misc/lv_area.c ****             }
 940              		.loc 1 502 52 is_stmt 0 view .LVU285
 941 014a 0CFB02FC 		mul	ip, ip, r2
 942              	.LVL94:
 502:../../Middlewares/LVGL/GUI/lvgl/src/misc/lv_area.c ****             }
 943              		.loc 1 502 44 view .LVU286
 944 014e 0EFB01CC 		mla	ip, lr, r1, ip
 502:../../Middlewares/LVGL/GUI/lvgl/src/misc/lv_area.c ****             }
 945              		.loc 1 502 100 view .LVU287
 946 0152 6E68     		ldr	r6, [r5, #4]
 502:../../Middlewares/LVGL/GUI/lvgl/src/misc/lv_area.c ****             }
 947              		.loc 1 502 93 view .LVU288
 948 0154 06EBAC46 		add	r6, r6, ip, asr #18
 502:../../Middlewares/LVGL/GUI/lvgl/src/misc/lv_area.c ****             }
 949              		.loc 1 502 29 view .LVU289
 950 0158 4660     		str	r6, [r0, #4]
 951              	.LVL95:
 952              	.L46:
 502:../../Middlewares/LVGL/GUI/lvgl/src/misc/lv_area.c ****             }
 953              		.loc 1 502 29 view .LVU290
 954              	.LBE2:
 490:../../Middlewares/LVGL/GUI/lvgl/src/misc/lv_area.c ****         int32_t x = points[i].x;
 955              		.loc 1 490 28 is_stmt 1 discriminator 2 view .LVU291
 956 015a 0133     		adds	r3, r3, #1
 957              	.LVL96:
 958              	.L44:
 490:../../Middlewares/LVGL/GUI/lvgl/src/misc/lv_area.c ****         int32_t x = points[i].x;
 959              		.loc 1 490 18 discriminator 1 view .LVU292
 960 015c BB42     		cmp	r3, r7
 961 015e D8D2     		bcs	.L34
 962              	.LBB3:
 491:../../Middlewares/LVGL/GUI/lvgl/src/misc/lv_area.c ****         int32_t y = points[i].y;
 963              		.loc 1 491 9 view .LVU293
 491:../../Middlewares/LVGL/GUI/lvgl/src/misc/lv_area.c ****         int32_t y = points[i].y;
 964              		.loc 1 491 27 is_stmt 0 view .LVU294
 965 0160 4FEAC309 		lsl	r9, r3, #3
 966 0164 04EBC300 		add	r0, r4, r3, lsl #3
 491:../../Middlewares/LVGL/GUI/lvgl/src/misc/lv_area.c ****         int32_t y = points[i].y;
 967              		.loc 1 491 17 view .LVU295
 968 0168 54F833E0 		ldr	lr, [r4, r3, lsl #3]
 969              	.LVL97:
 492:../../Middlewares/LVGL/GUI/lvgl/src/misc/lv_area.c ****         if(scale_x == 256 && scale_y == 256) {
 970              		.loc 1 492 9 is_stmt 1 view .LVU296
 492:../../Middlewares/LVGL/GUI/lvgl/src/misc/lv_area.c ****         if(scale_x == 256 && scale_y == 256) {
 971              		.loc 1 492 17 is_stmt 0 view .LVU297
 972 016c D0F804C0 		ldr	ip, [r0, #4]
 973              	.LVL98:
ARM GAS  C:\Users\28576\AppData\Local\Temp\ccYc01Pv.s 			page 33


 493:../../Middlewares/LVGL/GUI/lvgl/src/misc/lv_area.c ****             points[i].x = ((cosma * x - sinma * y) >> LV_TRANSFORM_TRIGO_SHIFT) + pivot->x;
 974              		.loc 1 493 9 is_stmt 1 view .LVU298
 493:../../Middlewares/LVGL/GUI/lvgl/src/misc/lv_area.c ****             points[i].x = ((cosma * x - sinma * y) >> LV_TRANSFORM_TRIGO_SHIFT) + pivot->x;
 975              		.loc 1 493 27 is_stmt 0 view .LVU299
 976 0170 B8F5807F 		cmp	r8, #256
 977 0174 14BF     		ite	ne
 978 0176 0026     		movne	r6, #0
 979 0178 0BF00106 		andeq	r6, fp, #1
 493:../../Middlewares/LVGL/GUI/lvgl/src/misc/lv_area.c ****             points[i].x = ((cosma * x - sinma * y) >> LV_TRANSFORM_TRIGO_SHIFT) + pivot->x;
 980              		.loc 1 493 11 view .LVU300
 981 017c 002E     		cmp	r6, #0
 982 017e D3D0     		beq	.L45
 494:../../Middlewares/LVGL/GUI/lvgl/src/misc/lv_area.c ****             points[i].y = ((sinma * x + cosma * y) >> LV_TRANSFORM_TRIGO_SHIFT) + pivot->y;
 983              		.loc 1 494 13 is_stmt 1 view .LVU301
 494:../../Middlewares/LVGL/GUI/lvgl/src/misc/lv_area.c ****             points[i].y = ((sinma * x + cosma * y) >> LV_TRANSFORM_TRIGO_SHIFT) + pivot->y;
 984              		.loc 1 494 35 is_stmt 0 view .LVU302
 985 0180 0EFB02F9 		mul	r9, lr, r2
 494:../../Middlewares/LVGL/GUI/lvgl/src/misc/lv_area.c ****             points[i].y = ((sinma * x + cosma * y) >> LV_TRANSFORM_TRIGO_SHIFT) + pivot->y;
 986              		.loc 1 494 39 view .LVU303
 987 0184 0CFB1199 		mls	r9, ip, r1, r9
 494:../../Middlewares/LVGL/GUI/lvgl/src/misc/lv_area.c ****             points[i].y = ((sinma * x + cosma * y) >> LV_TRANSFORM_TRIGO_SHIFT) + pivot->y;
 988              		.loc 1 494 88 view .LVU304
 989 0188 2E68     		ldr	r6, [r5]
 494:../../Middlewares/LVGL/GUI/lvgl/src/misc/lv_area.c ****             points[i].y = ((sinma * x + cosma * y) >> LV_TRANSFORM_TRIGO_SHIFT) + pivot->y;
 990              		.loc 1 494 81 view .LVU305
 991 018a 06EBA926 		add	r6, r6, r9, asr #10
 494:../../Middlewares/LVGL/GUI/lvgl/src/misc/lv_area.c ****             points[i].y = ((sinma * x + cosma * y) >> LV_TRANSFORM_TRIGO_SHIFT) + pivot->y;
 992              		.loc 1 494 25 view .LVU306
 993 018e 44F83360 		str	r6, [r4, r3, lsl #3]
 495:../../Middlewares/LVGL/GUI/lvgl/src/misc/lv_area.c ****         }
 994              		.loc 1 495 13 is_stmt 1 view .LVU307
 495:../../Middlewares/LVGL/GUI/lvgl/src/misc/lv_area.c ****         }
 995              		.loc 1 495 47 is_stmt 0 view .LVU308
 996 0192 0CFB02FC 		mul	ip, ip, r2
 997              	.LVL99:
 495:../../Middlewares/LVGL/GUI/lvgl/src/misc/lv_area.c ****         }
 998              		.loc 1 495 39 view .LVU309
 999 0196 0EFB01CC 		mla	ip, lr, r1, ip
 495:../../Middlewares/LVGL/GUI/lvgl/src/misc/lv_area.c ****         }
 1000              		.loc 1 495 88 view .LVU310
 1001 019a 6E68     		ldr	r6, [r5, #4]
 495:../../Middlewares/LVGL/GUI/lvgl/src/misc/lv_area.c ****         }
 1002              		.loc 1 495 81 view .LVU311
 1003 019c 06EBAC26 		add	r6, r6, ip, asr #10
 495:../../Middlewares/LVGL/GUI/lvgl/src/misc/lv_area.c ****         }
 1004              		.loc 1 495 25 view .LVU312
 1005 01a0 4660     		str	r6, [r0, #4]
 1006 01a2 DAE7     		b	.L46
 1007              	.LVL100:
 1008              	.L47:
 505:../../Middlewares/LVGL/GUI/lvgl/src/misc/lv_area.c ****                 points[i].y = (((sinma * x + cosma * y) * scale_y) >> (LV_TRANSFORM_TRIGO_SHIFT + 8
 1009              		.loc 1 505 17 is_stmt 1 view .LVU313
 505:../../Middlewares/LVGL/GUI/lvgl/src/misc/lv_area.c ****                 points[i].y = (((sinma * x + cosma * y) * scale_y) >> (LV_TRANSFORM_TRIGO_SHIFT + 8
 1010              		.loc 1 505 40 is_stmt 0 view .LVU314
 1011 01a4 0EFB02FA 		mul	r10, lr, r2
 505:../../Middlewares/LVGL/GUI/lvgl/src/misc/lv_area.c ****                 points[i].y = (((sinma * x + cosma * y) * scale_y) >> (LV_TRANSFORM_TRIGO_SHIFT + 8
 1012              		.loc 1 505 44 view .LVU315
ARM GAS  C:\Users\28576\AppData\Local\Temp\ccYc01Pv.s 			page 34


 1013 01a8 0CFB11AA 		mls	r10, ip, r1, r10
 505:../../Middlewares/LVGL/GUI/lvgl/src/misc/lv_area.c ****                 points[i].y = (((sinma * x + cosma * y) * scale_y) >> (LV_TRANSFORM_TRIGO_SHIFT + 8
 1014              		.loc 1 505 57 view .LVU316
 1015 01ac 019E     		ldr	r6, [sp, #4]
 1016 01ae 06FB0AFA 		mul	r10, r6, r10
 505:../../Middlewares/LVGL/GUI/lvgl/src/misc/lv_area.c ****                 points[i].y = (((sinma * x + cosma * y) * scale_y) >> (LV_TRANSFORM_TRIGO_SHIFT + 8
 1017              		.loc 1 505 110 view .LVU317
 1018 01b2 2E68     		ldr	r6, [r5]
 505:../../Middlewares/LVGL/GUI/lvgl/src/misc/lv_area.c ****                 points[i].y = (((sinma * x + cosma * y) * scale_y) >> (LV_TRANSFORM_TRIGO_SHIFT + 8
 1019              		.loc 1 505 103 view .LVU318
 1020 01b4 06EBAA46 		add	r6, r6, r10, asr #18
 505:../../Middlewares/LVGL/GUI/lvgl/src/misc/lv_area.c ****                 points[i].y = (((sinma * x + cosma * y) * scale_y) >> (LV_TRANSFORM_TRIGO_SHIFT + 8
 1021              		.loc 1 505 29 view .LVU319
 1022 01b8 44F80960 		str	r6, [r4, r9]
 506:../../Middlewares/LVGL/GUI/lvgl/src/misc/lv_area.c ****             }
 1023              		.loc 1 506 17 is_stmt 1 view .LVU320
 506:../../Middlewares/LVGL/GUI/lvgl/src/misc/lv_area.c ****             }
 1024              		.loc 1 506 52 is_stmt 0 view .LVU321
 1025 01bc 0CFB02FC 		mul	ip, ip, r2
 1026              	.LVL101:
 506:../../Middlewares/LVGL/GUI/lvgl/src/misc/lv_area.c ****             }
 1027              		.loc 1 506 44 view .LVU322
 1028 01c0 0EFB01CC 		mla	ip, lr, r1, ip
 506:../../Middlewares/LVGL/GUI/lvgl/src/misc/lv_area.c ****             }
 1029              		.loc 1 506 57 view .LVU323
 1030 01c4 08FB0CFC 		mul	ip, r8, ip
 506:../../Middlewares/LVGL/GUI/lvgl/src/misc/lv_area.c ****             }
 1031              		.loc 1 506 110 view .LVU324
 1032 01c8 6E68     		ldr	r6, [r5, #4]
 506:../../Middlewares/LVGL/GUI/lvgl/src/misc/lv_area.c ****             }
 1033              		.loc 1 506 103 view .LVU325
 1034 01ca 06EBAC46 		add	r6, r6, ip, asr #18
 506:../../Middlewares/LVGL/GUI/lvgl/src/misc/lv_area.c ****             }
 1035              		.loc 1 506 29 view .LVU326
 1036 01ce 4660     		str	r6, [r0, #4]
 1037 01d0 C3E7     		b	.L46
 1038              	.L55:
 1039 01d2 00BF     		.align	2
 1040              	.L54:
 1041 01d4 67666666 		.word	1717986919
 1042              	.LBE3:
 1043              		.cfi_endproc
 1044              	.LFE204:
 1046              		.section	.text.lv_point_transform,"ax",%progbits
 1047              		.align	1
 1048              		.global	lv_point_transform
 1049              		.syntax unified
 1050              		.thumb
 1051              		.thumb_func
 1053              	lv_point_transform:
 1054              	.LVL102:
 1055              	.LFB203:
 445:../../Middlewares/LVGL/GUI/lvgl/src/misc/lv_area.c ****     lv_point_array_transform(point, 1, angle, scale_x, scale_y, pivot, zoom_first);
 1056              		.loc 1 445 1 is_stmt 1 view -0
 1057              		.cfi_startproc
 1058              		@ args = 8, pretend = 0, frame = 0
 1059              		@ frame_needed = 0, uses_anonymous_args = 0
ARM GAS  C:\Users\28576\AppData\Local\Temp\ccYc01Pv.s 			page 35


 445:../../Middlewares/LVGL/GUI/lvgl/src/misc/lv_area.c ****     lv_point_array_transform(point, 1, angle, scale_x, scale_y, pivot, zoom_first);
 1060              		.loc 1 445 1 is_stmt 0 view .LVU328
 1061 0000 10B5     		push	{r4, lr}
 1062              	.LCFI7:
 1063              		.cfi_def_cfa_offset 8
 1064              		.cfi_offset 4, -8
 1065              		.cfi_offset 14, -4
 1066 0002 84B0     		sub	sp, sp, #16
 1067              	.LCFI8:
 1068              		.cfi_def_cfa_offset 24
 446:../../Middlewares/LVGL/GUI/lvgl/src/misc/lv_area.c **** }
 1069              		.loc 1 446 5 is_stmt 1 view .LVU329
 1070 0004 9DF81CC0 		ldrb	ip, [sp, #28]	@ zero_extendqisi2
 1071 0008 CDF808C0 		str	ip, [sp, #8]
 1072 000c 069C     		ldr	r4, [sp, #24]
 1073 000e 0194     		str	r4, [sp, #4]
 1074 0010 0093     		str	r3, [sp]
 1075 0012 1346     		mov	r3, r2
 1076              	.LVL103:
 446:../../Middlewares/LVGL/GUI/lvgl/src/misc/lv_area.c **** }
 1077              		.loc 1 446 5 is_stmt 0 view .LVU330
 1078 0014 0A46     		mov	r2, r1
 1079              	.LVL104:
 446:../../Middlewares/LVGL/GUI/lvgl/src/misc/lv_area.c **** }
 1080              		.loc 1 446 5 view .LVU331
 1081 0016 0121     		movs	r1, #1
 1082              	.LVL105:
 446:../../Middlewares/LVGL/GUI/lvgl/src/misc/lv_area.c **** }
 1083              		.loc 1 446 5 view .LVU332
 1084 0018 FFF7FEFF 		bl	lv_point_array_transform
 1085              	.LVL106:
 447:../../Middlewares/LVGL/GUI/lvgl/src/misc/lv_area.c **** 
 1086              		.loc 1 447 1 view .LVU333
 1087 001c 04B0     		add	sp, sp, #16
 1088              	.LCFI9:
 1089              		.cfi_def_cfa_offset 8
 1090              		@ sp needed
 1091 001e 10BD     		pop	{r4, pc}
 447:../../Middlewares/LVGL/GUI/lvgl/src/misc/lv_area.c **** 
 1092              		.loc 1 447 1 view .LVU334
 1093              		.cfi_endproc
 1094              	.LFE203:
 1096              		.section	.text.lv_area_get_width,"ax",%progbits
 1097              		.align	1
 1098              		.global	lv_area_get_width
 1099              		.syntax unified
 1100              		.thumb
 1101              		.thumb_func
 1103              	lv_area_get_width:
 1104              	.LVL107:
 1105              	.LFB205:
 513:../../Middlewares/LVGL/GUI/lvgl/src/misc/lv_area.c ****     return (int32_t)(area_p->x2 - area_p->x1 + 1);
 1106              		.loc 1 513 1 is_stmt 1 view -0
 1107              		.cfi_startproc
 1108              		@ args = 0, pretend = 0, frame = 0
 1109              		@ frame_needed = 0, uses_anonymous_args = 0
 1110              		@ link register save eliminated.
ARM GAS  C:\Users\28576\AppData\Local\Temp\ccYc01Pv.s 			page 36


 514:../../Middlewares/LVGL/GUI/lvgl/src/misc/lv_area.c **** }
 1111              		.loc 1 514 5 view .LVU336
 514:../../Middlewares/LVGL/GUI/lvgl/src/misc/lv_area.c **** }
 1112              		.loc 1 514 28 is_stmt 0 view .LVU337
 1113 0000 8368     		ldr	r3, [r0, #8]
 514:../../Middlewares/LVGL/GUI/lvgl/src/misc/lv_area.c **** }
 1114              		.loc 1 514 41 view .LVU338
 1115 0002 0068     		ldr	r0, [r0]
 1116              	.LVL108:
 514:../../Middlewares/LVGL/GUI/lvgl/src/misc/lv_area.c **** }
 1117              		.loc 1 514 33 view .LVU339
 1118 0004 181A     		subs	r0, r3, r0
 515:../../Middlewares/LVGL/GUI/lvgl/src/misc/lv_area.c **** 
 1119              		.loc 1 515 1 view .LVU340
 1120 0006 0130     		adds	r0, r0, #1
 1121 0008 7047     		bx	lr
 1122              		.cfi_endproc
 1123              	.LFE205:
 1125              		.section	.text.lv_area_get_height,"ax",%progbits
 1126              		.align	1
 1127              		.global	lv_area_get_height
 1128              		.syntax unified
 1129              		.thumb
 1130              		.thumb_func
 1132              	lv_area_get_height:
 1133              	.LVL109:
 1134              	.LFB206:
 518:../../Middlewares/LVGL/GUI/lvgl/src/misc/lv_area.c ****     return (int32_t)(area_p->y2 - area_p->y1 + 1);
 1135              		.loc 1 518 1 is_stmt 1 view -0
 1136              		.cfi_startproc
 1137              		@ args = 0, pretend = 0, frame = 0
 1138              		@ frame_needed = 0, uses_anonymous_args = 0
 1139              		@ link register save eliminated.
 519:../../Middlewares/LVGL/GUI/lvgl/src/misc/lv_area.c **** }
 1140              		.loc 1 519 5 view .LVU342
 519:../../Middlewares/LVGL/GUI/lvgl/src/misc/lv_area.c **** }
 1141              		.loc 1 519 28 is_stmt 0 view .LVU343
 1142 0000 C368     		ldr	r3, [r0, #12]
 519:../../Middlewares/LVGL/GUI/lvgl/src/misc/lv_area.c **** }
 1143              		.loc 1 519 41 view .LVU344
 1144 0002 4068     		ldr	r0, [r0, #4]
 1145              	.LVL110:
 519:../../Middlewares/LVGL/GUI/lvgl/src/misc/lv_area.c **** }
 1146              		.loc 1 519 33 view .LVU345
 1147 0004 181A     		subs	r0, r3, r0
 520:../../Middlewares/LVGL/GUI/lvgl/src/misc/lv_area.c **** 
 1148              		.loc 1 520 1 view .LVU346
 1149 0006 0130     		adds	r0, r0, #1
 1150 0008 7047     		bx	lr
 1151              		.cfi_endproc
 1152              	.LFE206:
 1154              		.section	.text.lv_area_set_pos,"ax",%progbits
 1155              		.align	1
 1156              		.global	lv_area_set_pos
 1157              		.syntax unified
 1158              		.thumb
 1159              		.thumb_func
ARM GAS  C:\Users\28576\AppData\Local\Temp\ccYc01Pv.s 			page 37


 1161              	lv_area_set_pos:
 1162              	.LVL111:
 1163              	.LFB190:
  60:../../Middlewares/LVGL/GUI/lvgl/src/misc/lv_area.c ****     int32_t w = lv_area_get_width(area_p);
 1164              		.loc 1 60 1 is_stmt 1 view -0
 1165              		.cfi_startproc
 1166              		@ args = 0, pretend = 0, frame = 0
 1167              		@ frame_needed = 0, uses_anonymous_args = 0
  60:../../Middlewares/LVGL/GUI/lvgl/src/misc/lv_area.c ****     int32_t w = lv_area_get_width(area_p);
 1168              		.loc 1 60 1 is_stmt 0 view .LVU348
 1169 0000 2DE9F041 		push	{r4, r5, r6, r7, r8, lr}
 1170              	.LCFI10:
 1171              		.cfi_def_cfa_offset 24
 1172              		.cfi_offset 4, -24
 1173              		.cfi_offset 5, -20
 1174              		.cfi_offset 6, -16
 1175              		.cfi_offset 7, -12
 1176              		.cfi_offset 8, -8
 1177              		.cfi_offset 14, -4
 1178 0004 0446     		mov	r4, r0
 1179 0006 8846     		mov	r8, r1
 1180 0008 1746     		mov	r7, r2
  61:../../Middlewares/LVGL/GUI/lvgl/src/misc/lv_area.c ****     int32_t h = lv_area_get_height(area_p);
 1181              		.loc 1 61 5 is_stmt 1 view .LVU349
  61:../../Middlewares/LVGL/GUI/lvgl/src/misc/lv_area.c ****     int32_t h = lv_area_get_height(area_p);
 1182              		.loc 1 61 17 is_stmt 0 view .LVU350
 1183 000a FFF7FEFF 		bl	lv_area_get_width
 1184              	.LVL112:
  61:../../Middlewares/LVGL/GUI/lvgl/src/misc/lv_area.c ****     int32_t h = lv_area_get_height(area_p);
 1185              		.loc 1 61 17 view .LVU351
 1186 000e 0646     		mov	r6, r0
 1187              	.LVL113:
  62:../../Middlewares/LVGL/GUI/lvgl/src/misc/lv_area.c ****     area_p->x1   = x;
 1188              		.loc 1 62 5 is_stmt 1 view .LVU352
  62:../../Middlewares/LVGL/GUI/lvgl/src/misc/lv_area.c ****     area_p->x1   = x;
 1189              		.loc 1 62 17 is_stmt 0 view .LVU353
 1190 0010 2046     		mov	r0, r4
 1191              	.LVL114:
  62:../../Middlewares/LVGL/GUI/lvgl/src/misc/lv_area.c ****     area_p->x1   = x;
 1192              		.loc 1 62 17 view .LVU354
 1193 0012 FFF7FEFF 		bl	lv_area_get_height
 1194              	.LVL115:
 1195 0016 0546     		mov	r5, r0
 1196              	.LVL116:
  63:../../Middlewares/LVGL/GUI/lvgl/src/misc/lv_area.c ****     area_p->y1   = y;
 1197              		.loc 1 63 5 is_stmt 1 view .LVU355
  63:../../Middlewares/LVGL/GUI/lvgl/src/misc/lv_area.c ****     area_p->y1   = y;
 1198              		.loc 1 63 18 is_stmt 0 view .LVU356
 1199 0018 C4F80080 		str	r8, [r4]
  64:../../Middlewares/LVGL/GUI/lvgl/src/misc/lv_area.c ****     lv_area_set_width(area_p, w);
 1200              		.loc 1 64 5 is_stmt 1 view .LVU357
  64:../../Middlewares/LVGL/GUI/lvgl/src/misc/lv_area.c ****     lv_area_set_width(area_p, w);
 1201              		.loc 1 64 18 is_stmt 0 view .LVU358
 1202 001c 6760     		str	r7, [r4, #4]
  65:../../Middlewares/LVGL/GUI/lvgl/src/misc/lv_area.c ****     lv_area_set_height(area_p, h);
 1203              		.loc 1 65 5 is_stmt 1 view .LVU359
 1204 001e 3146     		mov	r1, r6
ARM GAS  C:\Users\28576\AppData\Local\Temp\ccYc01Pv.s 			page 38


 1205 0020 2046     		mov	r0, r4
 1206              	.LVL117:
  65:../../Middlewares/LVGL/GUI/lvgl/src/misc/lv_area.c ****     lv_area_set_height(area_p, h);
 1207              		.loc 1 65 5 is_stmt 0 view .LVU360
 1208 0022 FFF7FEFF 		bl	lv_area_set_width
 1209              	.LVL118:
  66:../../Middlewares/LVGL/GUI/lvgl/src/misc/lv_area.c **** }
 1210              		.loc 1 66 5 is_stmt 1 view .LVU361
 1211 0026 2946     		mov	r1, r5
 1212 0028 2046     		mov	r0, r4
 1213 002a FFF7FEFF 		bl	lv_area_set_height
 1214              	.LVL119:
  67:../../Middlewares/LVGL/GUI/lvgl/src/misc/lv_area.c **** 
 1215              		.loc 1 67 1 is_stmt 0 view .LVU362
 1216 002e BDE8F081 		pop	{r4, r5, r6, r7, r8, pc}
  67:../../Middlewares/LVGL/GUI/lvgl/src/misc/lv_area.c **** 
 1217              		.loc 1 67 1 view .LVU363
 1218              		.cfi_endproc
 1219              	.LFE190:
 1221              		.section	.text.lv_area_is_point_on,"ax",%progbits
 1222              		.align	1
 1223              		.global	lv_area_is_point_on
 1224              		.syntax unified
 1225              		.thumb
 1226              		.thumb_func
 1228              	lv_area_is_point_on:
 1229              	.LVL120:
 1230              	.LFB197:
 185:../../Middlewares/LVGL/GUI/lvgl/src/misc/lv_area.c ****     /*First check the basic area*/
 1231              		.loc 1 185 1 is_stmt 1 view -0
 1232              		.cfi_startproc
 1233              		@ args = 0, pretend = 0, frame = 16
 1234              		@ frame_needed = 0, uses_anonymous_args = 0
 185:../../Middlewares/LVGL/GUI/lvgl/src/misc/lv_area.c ****     /*First check the basic area*/
 1235              		.loc 1 185 1 is_stmt 0 view .LVU365
 1236 0000 2DE9F041 		push	{r4, r5, r6, r7, r8, lr}
 1237              	.LCFI11:
 1238              		.cfi_def_cfa_offset 24
 1239              		.cfi_offset 4, -24
 1240              		.cfi_offset 5, -20
 1241              		.cfi_offset 6, -16
 1242              		.cfi_offset 7, -12
 1243              		.cfi_offset 8, -8
 1244              		.cfi_offset 14, -4
 1245 0004 84B0     		sub	sp, sp, #16
 1246              	.LCFI12:
 1247              		.cfi_def_cfa_offset 40
 1248 0006 0446     		mov	r4, r0
 187:../../Middlewares/LVGL/GUI/lvgl/src/misc/lv_area.c ****     if((p_p->x >= a_p->x1 && p_p->x <= a_p->x2) && ((p_p->y >= a_p->y1 && p_p->y <= a_p->y2))) {
 1249              		.loc 1 187 5 is_stmt 1 view .LVU366
 1250              	.LVL121:
 188:../../Middlewares/LVGL/GUI/lvgl/src/misc/lv_area.c ****         is_on_rect = true;
 1251              		.loc 1 188 5 view .LVU367
 188:../../Middlewares/LVGL/GUI/lvgl/src/misc/lv_area.c ****         is_on_rect = true;
 1252              		.loc 1 188 12 is_stmt 0 view .LVU368
 1253 0008 0B68     		ldr	r3, [r1]
 188:../../Middlewares/LVGL/GUI/lvgl/src/misc/lv_area.c ****         is_on_rect = true;
ARM GAS  C:\Users\28576\AppData\Local\Temp\ccYc01Pv.s 			page 39


 1254              		.loc 1 188 22 view .LVU369
 1255 000a 0568     		ldr	r5, [r0]
 188:../../Middlewares/LVGL/GUI/lvgl/src/misc/lv_area.c ****         is_on_rect = true;
 1256              		.loc 1 188 7 view .LVU370
 1257 000c AB42     		cmp	r3, r5
 1258 000e C0F28280 		blt	.L70
 1259 0012 0E46     		mov	r6, r1
 1260 0014 1046     		mov	r0, r2
 1261              	.LVL122:
 188:../../Middlewares/LVGL/GUI/lvgl/src/misc/lv_area.c ****         is_on_rect = true;
 1262              		.loc 1 188 7 view .LVU371
 1263 0016 1746     		mov	r7, r2
 188:../../Middlewares/LVGL/GUI/lvgl/src/misc/lv_area.c ****         is_on_rect = true;
 1264              		.loc 1 188 43 discriminator 1 view .LVU372
 1265 0018 A268     		ldr	r2, [r4, #8]
 1266              	.LVL123:
 188:../../Middlewares/LVGL/GUI/lvgl/src/misc/lv_area.c ****         is_on_rect = true;
 1267              		.loc 1 188 27 discriminator 1 view .LVU373
 1268 001a 9342     		cmp	r3, r2
 1269 001c 7FDC     		bgt	.L71
 188:../../Middlewares/LVGL/GUI/lvgl/src/misc/lv_area.c ****         is_on_rect = true;
 1270              		.loc 1 188 57 discriminator 2 view .LVU374
 1271 001e 4B68     		ldr	r3, [r1, #4]
 188:../../Middlewares/LVGL/GUI/lvgl/src/misc/lv_area.c ****         is_on_rect = true;
 1272              		.loc 1 188 67 discriminator 2 view .LVU375
 1273 0020 6268     		ldr	r2, [r4, #4]
 188:../../Middlewares/LVGL/GUI/lvgl/src/misc/lv_area.c ****         is_on_rect = true;
 1274              		.loc 1 188 49 discriminator 2 view .LVU376
 1275 0022 9342     		cmp	r3, r2
 1276 0024 7DDB     		blt	.L72
 188:../../Middlewares/LVGL/GUI/lvgl/src/misc/lv_area.c ****         is_on_rect = true;
 1277              		.loc 1 188 88 discriminator 3 view .LVU377
 1278 0026 E268     		ldr	r2, [r4, #12]
 188:../../Middlewares/LVGL/GUI/lvgl/src/misc/lv_area.c ****         is_on_rect = true;
 1279              		.loc 1 188 72 discriminator 3 view .LVU378
 1280 0028 9342     		cmp	r3, r2
 1281 002a 7CDC     		bgt	.L73
 189:../../Middlewares/LVGL/GUI/lvgl/src/misc/lv_area.c ****     }
 1282              		.loc 1 189 9 is_stmt 1 view .LVU379
 1283              	.LVL124:
 191:../../Middlewares/LVGL/GUI/lvgl/src/misc/lv_area.c ****         return false;
 1284              		.loc 1 191 5 view .LVU380
 194:../../Middlewares/LVGL/GUI/lvgl/src/misc/lv_area.c ****         /*No radius, it is within the rectangle*/
 1285              		.loc 1 194 5 view .LVU381
 194:../../Middlewares/LVGL/GUI/lvgl/src/misc/lv_area.c ****         /*No radius, it is within the rectangle*/
 1286              		.loc 1 194 7 is_stmt 0 view .LVU382
 1287 002c 0028     		cmp	r0, #0
 1288 002e 7CDD     		ble	.L74
 198:../../Middlewares/LVGL/GUI/lvgl/src/misc/lv_area.c ****     int32_t h = lv_area_get_height(a_p) / 2;
 1289              		.loc 1 198 5 is_stmt 1 view .LVU383
 198:../../Middlewares/LVGL/GUI/lvgl/src/misc/lv_area.c ****     int32_t h = lv_area_get_height(a_p) / 2;
 1290              		.loc 1 198 17 is_stmt 0 view .LVU384
 1291 0030 2046     		mov	r0, r4
 1292              	.LVL125:
 198:../../Middlewares/LVGL/GUI/lvgl/src/misc/lv_area.c ****     int32_t h = lv_area_get_height(a_p) / 2;
 1293              		.loc 1 198 17 view .LVU385
 1294 0032 FFF7FEFF 		bl	lv_area_get_width
ARM GAS  C:\Users\28576\AppData\Local\Temp\ccYc01Pv.s 			page 40


 1295              	.LVL126:
 198:../../Middlewares/LVGL/GUI/lvgl/src/misc/lv_area.c ****     int32_t h = lv_area_get_height(a_p) / 2;
 1296              		.loc 1 198 13 discriminator 1 view .LVU386
 1297 0036 0028     		cmp	r0, #0
 1298 0038 28DB     		blt	.L77
 1299              	.L64:
 1300 003a 4310     		asrs	r3, r0, #1
 1301 003c 9846     		mov	r8, r3
 1302              	.LVL127:
 199:../../Middlewares/LVGL/GUI/lvgl/src/misc/lv_area.c ****     int32_t max_radius = LV_MIN(w, h);
 1303              		.loc 1 199 5 is_stmt 1 view .LVU387
 199:../../Middlewares/LVGL/GUI/lvgl/src/misc/lv_area.c ****     int32_t max_radius = LV_MIN(w, h);
 1304              		.loc 1 199 17 is_stmt 0 view .LVU388
 1305 003e 2046     		mov	r0, r4
 1306 0040 FFF7FEFF 		bl	lv_area_get_height
 1307              	.LVL128:
 199:../../Middlewares/LVGL/GUI/lvgl/src/misc/lv_area.c ****     int32_t max_radius = LV_MIN(w, h);
 1308              		.loc 1 199 13 discriminator 1 view .LVU389
 1309 0044 0028     		cmp	r0, #0
 1310 0046 23DB     		blt	.L78
 1311              	.L65:
 1312 0048 4010     		asrs	r0, r0, #1
 1313              	.LVL129:
 200:../../Middlewares/LVGL/GUI/lvgl/src/misc/lv_area.c ****     if(radius > max_radius)
 1314              		.loc 1 200 5 is_stmt 1 view .LVU390
 200:../../Middlewares/LVGL/GUI/lvgl/src/misc/lv_area.c ****     if(radius > max_radius)
 1315              		.loc 1 200 13 is_stmt 0 view .LVU391
 1316 004a 4346     		mov	r3, r8
 1317 004c 8045     		cmp	r8, r0
 1318 004e A8BF     		it	ge
 1319 0050 0346     		movge	r3, r0
 1320 0052 9846     		mov	r8, r3
 1321              	.LVL130:
 201:../../Middlewares/LVGL/GUI/lvgl/src/misc/lv_area.c ****         radius = max_radius;
 1322              		.loc 1 201 5 is_stmt 1 view .LVU392
 201:../../Middlewares/LVGL/GUI/lvgl/src/misc/lv_area.c ****         radius = max_radius;
 1323              		.loc 1 201 7 is_stmt 0 view .LVU393
 1324 0054 9F42     		cmp	r7, r3
 1325 0056 00DC     		bgt	.L66
 1326 0058 B846     		mov	r8, r7
 1327              	.L66:
 1328              	.LVL131:
 205:../../Middlewares/LVGL/GUI/lvgl/src/misc/lv_area.c ****     /*Top left*/
 1329              		.loc 1 205 5 is_stmt 1 view .LVU394
 207:../../Middlewares/LVGL/GUI/lvgl/src/misc/lv_area.c ****     corner_area.x2 = a_p->x1 + radius;
 1330              		.loc 1 207 5 view .LVU395
 207:../../Middlewares/LVGL/GUI/lvgl/src/misc/lv_area.c ****     corner_area.x2 = a_p->x1 + radius;
 1331              		.loc 1 207 20 is_stmt 0 view .LVU396
 1332 005a 0095     		str	r5, [sp]
 208:../../Middlewares/LVGL/GUI/lvgl/src/misc/lv_area.c ****     corner_area.y1 = a_p->y1;
 1333              		.loc 1 208 5 is_stmt 1 view .LVU397
 208:../../Middlewares/LVGL/GUI/lvgl/src/misc/lv_area.c ****     corner_area.y1 = a_p->y1;
 1334              		.loc 1 208 30 is_stmt 0 view .LVU398
 1335 005c 4544     		add	r5, r5, r8
 208:../../Middlewares/LVGL/GUI/lvgl/src/misc/lv_area.c ****     corner_area.y1 = a_p->y1;
 1336              		.loc 1 208 20 view .LVU399
 1337 005e 0295     		str	r5, [sp, #8]
ARM GAS  C:\Users\28576\AppData\Local\Temp\ccYc01Pv.s 			page 41


 209:../../Middlewares/LVGL/GUI/lvgl/src/misc/lv_area.c ****     corner_area.y2 = a_p->y1 + radius;
 1338              		.loc 1 209 5 is_stmt 1 view .LVU400
 209:../../Middlewares/LVGL/GUI/lvgl/src/misc/lv_area.c ****     corner_area.y2 = a_p->y1 + radius;
 1339              		.loc 1 209 25 is_stmt 0 view .LVU401
 1340 0060 6368     		ldr	r3, [r4, #4]
 1341              	.LVL132:
 209:../../Middlewares/LVGL/GUI/lvgl/src/misc/lv_area.c ****     corner_area.y2 = a_p->y1 + radius;
 1342              		.loc 1 209 20 view .LVU402
 1343 0062 0193     		str	r3, [sp, #4]
 210:../../Middlewares/LVGL/GUI/lvgl/src/misc/lv_area.c ****     if(lv_area_is_point_on(&corner_area, p_p, 0)) {
 1344              		.loc 1 210 5 is_stmt 1 view .LVU403
 210:../../Middlewares/LVGL/GUI/lvgl/src/misc/lv_area.c ****     if(lv_area_is_point_on(&corner_area, p_p, 0)) {
 1345              		.loc 1 210 30 is_stmt 0 view .LVU404
 1346 0064 4546     		mov	r5, r8
 1347 0066 4344     		add	r3, r3, r8
 210:../../Middlewares/LVGL/GUI/lvgl/src/misc/lv_area.c ****     if(lv_area_is_point_on(&corner_area, p_p, 0)) {
 1348              		.loc 1 210 20 view .LVU405
 1349 0068 0393     		str	r3, [sp, #12]
 211:../../Middlewares/LVGL/GUI/lvgl/src/misc/lv_area.c ****         corner_area.x2 += radius;
 1350              		.loc 1 211 5 is_stmt 1 view .LVU406
 211:../../Middlewares/LVGL/GUI/lvgl/src/misc/lv_area.c ****         corner_area.x2 += radius;
 1351              		.loc 1 211 8 is_stmt 0 view .LVU407
 1352 006a 0022     		movs	r2, #0
 1353 006c 3146     		mov	r1, r6
 1354 006e 6846     		mov	r0, sp
 1355              	.LVL133:
 211:../../Middlewares/LVGL/GUI/lvgl/src/misc/lv_area.c ****         corner_area.x2 += radius;
 1356              		.loc 1 211 8 view .LVU408
 1357 0070 FFF7FEFF 		bl	lv_area_is_point_on
 1358              	.LVL134:
 211:../../Middlewares/LVGL/GUI/lvgl/src/misc/lv_area.c ****         corner_area.x2 += radius;
 1359              		.loc 1 211 7 discriminator 1 view .LVU409
 1360 0074 70B1     		cbz	r0, .L67
 212:../../Middlewares/LVGL/GUI/lvgl/src/misc/lv_area.c ****         corner_area.y2 += radius;
 1361              		.loc 1 212 9 is_stmt 1 view .LVU410
 212:../../Middlewares/LVGL/GUI/lvgl/src/misc/lv_area.c ****         corner_area.y2 += radius;
 1362              		.loc 1 212 20 is_stmt 0 view .LVU411
 1363 0076 029B     		ldr	r3, [sp, #8]
 212:../../Middlewares/LVGL/GUI/lvgl/src/misc/lv_area.c ****         corner_area.y2 += radius;
 1364              		.loc 1 212 24 view .LVU412
 1365 0078 4344     		add	r3, r3, r8
 1366 007a 0293     		str	r3, [sp, #8]
 213:../../Middlewares/LVGL/GUI/lvgl/src/misc/lv_area.c ****         return lv_point_within_circle(&corner_area, p_p);
 1367              		.loc 1 213 9 is_stmt 1 view .LVU413
 213:../../Middlewares/LVGL/GUI/lvgl/src/misc/lv_area.c ****         return lv_point_within_circle(&corner_area, p_p);
 1368              		.loc 1 213 20 is_stmt 0 view .LVU414
 1369 007c 039B     		ldr	r3, [sp, #12]
 213:../../Middlewares/LVGL/GUI/lvgl/src/misc/lv_area.c ****         return lv_point_within_circle(&corner_area, p_p);
 1370              		.loc 1 213 24 view .LVU415
 1371 007e 4344     		add	r3, r3, r8
 1372 0080 0393     		str	r3, [sp, #12]
 214:../../Middlewares/LVGL/GUI/lvgl/src/misc/lv_area.c ****     }
 1373              		.loc 1 214 9 is_stmt 1 view .LVU416
 214:../../Middlewares/LVGL/GUI/lvgl/src/misc/lv_area.c ****     }
 1374              		.loc 1 214 16 is_stmt 0 view .LVU417
 1375 0082 3146     		mov	r1, r6
 1376 0084 6846     		mov	r0, sp
ARM GAS  C:\Users\28576\AppData\Local\Temp\ccYc01Pv.s 			page 42


 1377 0086 FFF7FEFF 		bl	lv_point_within_circle
 1378              	.LVL135:
 1379 008a 45E0     		b	.L63
 1380              	.LVL136:
 1381              	.L77:
 198:../../Middlewares/LVGL/GUI/lvgl/src/misc/lv_area.c ****     int32_t h = lv_area_get_height(a_p) / 2;
 1382              		.loc 1 198 13 discriminator 1 view .LVU418
 1383 008c 0130     		adds	r0, r0, #1
 1384 008e D4E7     		b	.L64
 1385              	.LVL137:
 1386              	.L78:
 199:../../Middlewares/LVGL/GUI/lvgl/src/misc/lv_area.c ****     int32_t max_radius = LV_MIN(w, h);
 1387              		.loc 1 199 13 discriminator 1 view .LVU419
 1388 0090 0130     		adds	r0, r0, #1
 1389 0092 D9E7     		b	.L65
 1390              	.LVL138:
 1391              	.L67:
 217:../../Middlewares/LVGL/GUI/lvgl/src/misc/lv_area.c ****     corner_area.y2 = a_p->y2;
 1392              		.loc 1 217 5 is_stmt 1 view .LVU420
 217:../../Middlewares/LVGL/GUI/lvgl/src/misc/lv_area.c ****     corner_area.y2 = a_p->y2;
 1393              		.loc 1 217 25 is_stmt 0 view .LVU421
 1394 0094 E368     		ldr	r3, [r4, #12]
 217:../../Middlewares/LVGL/GUI/lvgl/src/misc/lv_area.c ****     corner_area.y2 = a_p->y2;
 1395              		.loc 1 217 30 view .LVU422
 1396 0096 5A1B     		subs	r2, r3, r5
 217:../../Middlewares/LVGL/GUI/lvgl/src/misc/lv_area.c ****     corner_area.y2 = a_p->y2;
 1397              		.loc 1 217 20 view .LVU423
 1398 0098 0192     		str	r2, [sp, #4]
 218:../../Middlewares/LVGL/GUI/lvgl/src/misc/lv_area.c ****     if(lv_area_is_point_on(&corner_area, p_p, 0)) {
 1399              		.loc 1 218 5 is_stmt 1 view .LVU424
 218:../../Middlewares/LVGL/GUI/lvgl/src/misc/lv_area.c ****     if(lv_area_is_point_on(&corner_area, p_p, 0)) {
 1400              		.loc 1 218 20 is_stmt 0 view .LVU425
 1401 009a 0393     		str	r3, [sp, #12]
 219:../../Middlewares/LVGL/GUI/lvgl/src/misc/lv_area.c ****         corner_area.x2 += radius;
 1402              		.loc 1 219 5 is_stmt 1 view .LVU426
 219:../../Middlewares/LVGL/GUI/lvgl/src/misc/lv_area.c ****         corner_area.x2 += radius;
 1403              		.loc 1 219 8 is_stmt 0 view .LVU427
 1404 009c 0246     		mov	r2, r0
 1405 009e 3146     		mov	r1, r6
 1406 00a0 6846     		mov	r0, sp
 1407 00a2 FFF7FEFF 		bl	lv_area_is_point_on
 1408              	.LVL139:
 219:../../Middlewares/LVGL/GUI/lvgl/src/misc/lv_area.c ****         corner_area.x2 += radius;
 1409              		.loc 1 219 7 discriminator 1 view .LVU428
 1410 00a6 50B1     		cbz	r0, .L68
 220:../../Middlewares/LVGL/GUI/lvgl/src/misc/lv_area.c ****         corner_area.y1 -= radius;
 1411              		.loc 1 220 9 is_stmt 1 view .LVU429
 220:../../Middlewares/LVGL/GUI/lvgl/src/misc/lv_area.c ****         corner_area.y1 -= radius;
 1412              		.loc 1 220 20 is_stmt 0 view .LVU430
 1413 00a8 029B     		ldr	r3, [sp, #8]
 220:../../Middlewares/LVGL/GUI/lvgl/src/misc/lv_area.c ****         corner_area.y1 -= radius;
 1414              		.loc 1 220 24 view .LVU431
 1415 00aa 4344     		add	r3, r3, r8
 1416 00ac 0293     		str	r3, [sp, #8]
 221:../../Middlewares/LVGL/GUI/lvgl/src/misc/lv_area.c ****         return lv_point_within_circle(&corner_area, p_p);
 1417              		.loc 1 221 9 is_stmt 1 view .LVU432
 221:../../Middlewares/LVGL/GUI/lvgl/src/misc/lv_area.c ****         return lv_point_within_circle(&corner_area, p_p);
ARM GAS  C:\Users\28576\AppData\Local\Temp\ccYc01Pv.s 			page 43


 1418              		.loc 1 221 20 is_stmt 0 view .LVU433
 1419 00ae 019B     		ldr	r3, [sp, #4]
 221:../../Middlewares/LVGL/GUI/lvgl/src/misc/lv_area.c ****         return lv_point_within_circle(&corner_area, p_p);
 1420              		.loc 1 221 24 view .LVU434
 1421 00b0 5B1B     		subs	r3, r3, r5
 1422 00b2 0193     		str	r3, [sp, #4]
 222:../../Middlewares/LVGL/GUI/lvgl/src/misc/lv_area.c ****     }
 1423              		.loc 1 222 9 is_stmt 1 view .LVU435
 222:../../Middlewares/LVGL/GUI/lvgl/src/misc/lv_area.c ****     }
 1424              		.loc 1 222 16 is_stmt 0 view .LVU436
 1425 00b4 3146     		mov	r1, r6
 1426 00b6 6846     		mov	r0, sp
 1427 00b8 FFF7FEFF 		bl	lv_point_within_circle
 1428              	.LVL140:
 1429 00bc 2CE0     		b	.L63
 1430              	.L68:
 225:../../Middlewares/LVGL/GUI/lvgl/src/misc/lv_area.c ****     corner_area.x2 = a_p->x2;
 1431              		.loc 1 225 5 is_stmt 1 view .LVU437
 225:../../Middlewares/LVGL/GUI/lvgl/src/misc/lv_area.c ****     corner_area.x2 = a_p->x2;
 1432              		.loc 1 225 25 is_stmt 0 view .LVU438
 1433 00be A368     		ldr	r3, [r4, #8]
 225:../../Middlewares/LVGL/GUI/lvgl/src/misc/lv_area.c ****     corner_area.x2 = a_p->x2;
 1434              		.loc 1 225 30 view .LVU439
 1435 00c0 5A1B     		subs	r2, r3, r5
 225:../../Middlewares/LVGL/GUI/lvgl/src/misc/lv_area.c ****     corner_area.x2 = a_p->x2;
 1436              		.loc 1 225 20 view .LVU440
 1437 00c2 0092     		str	r2, [sp]
 226:../../Middlewares/LVGL/GUI/lvgl/src/misc/lv_area.c ****     if(lv_area_is_point_on(&corner_area, p_p, 0)) {
 1438              		.loc 1 226 5 is_stmt 1 view .LVU441
 226:../../Middlewares/LVGL/GUI/lvgl/src/misc/lv_area.c ****     if(lv_area_is_point_on(&corner_area, p_p, 0)) {
 1439              		.loc 1 226 20 is_stmt 0 view .LVU442
 1440 00c4 0293     		str	r3, [sp, #8]
 227:../../Middlewares/LVGL/GUI/lvgl/src/misc/lv_area.c ****         corner_area.x1 -= radius;
 1441              		.loc 1 227 5 is_stmt 1 view .LVU443
 227:../../Middlewares/LVGL/GUI/lvgl/src/misc/lv_area.c ****         corner_area.x1 -= radius;
 1442              		.loc 1 227 8 is_stmt 0 view .LVU444
 1443 00c6 0246     		mov	r2, r0
 1444 00c8 3146     		mov	r1, r6
 1445 00ca 6846     		mov	r0, sp
 1446 00cc FFF7FEFF 		bl	lv_area_is_point_on
 1447              	.LVL141:
 227:../../Middlewares/LVGL/GUI/lvgl/src/misc/lv_area.c ****         corner_area.x1 -= radius;
 1448              		.loc 1 227 7 discriminator 1 view .LVU445
 1449 00d0 50B1     		cbz	r0, .L69
 228:../../Middlewares/LVGL/GUI/lvgl/src/misc/lv_area.c ****         corner_area.y1 -= radius;
 1450              		.loc 1 228 9 is_stmt 1 view .LVU446
 228:../../Middlewares/LVGL/GUI/lvgl/src/misc/lv_area.c ****         corner_area.y1 -= radius;
 1451              		.loc 1 228 20 is_stmt 0 view .LVU447
 1452 00d2 009B     		ldr	r3, [sp]
 228:../../Middlewares/LVGL/GUI/lvgl/src/misc/lv_area.c ****         corner_area.y1 -= radius;
 1453              		.loc 1 228 24 view .LVU448
 1454 00d4 5B1B     		subs	r3, r3, r5
 1455 00d6 0093     		str	r3, [sp]
 229:../../Middlewares/LVGL/GUI/lvgl/src/misc/lv_area.c ****         return lv_point_within_circle(&corner_area, p_p);
 1456              		.loc 1 229 9 is_stmt 1 view .LVU449
 229:../../Middlewares/LVGL/GUI/lvgl/src/misc/lv_area.c ****         return lv_point_within_circle(&corner_area, p_p);
 1457              		.loc 1 229 20 is_stmt 0 view .LVU450
ARM GAS  C:\Users\28576\AppData\Local\Temp\ccYc01Pv.s 			page 44


 1458 00d8 019B     		ldr	r3, [sp, #4]
 229:../../Middlewares/LVGL/GUI/lvgl/src/misc/lv_area.c ****         return lv_point_within_circle(&corner_area, p_p);
 1459              		.loc 1 229 24 view .LVU451
 1460 00da 5B1B     		subs	r3, r3, r5
 1461 00dc 0193     		str	r3, [sp, #4]
 230:../../Middlewares/LVGL/GUI/lvgl/src/misc/lv_area.c ****     }
 1462              		.loc 1 230 9 is_stmt 1 view .LVU452
 230:../../Middlewares/LVGL/GUI/lvgl/src/misc/lv_area.c ****     }
 1463              		.loc 1 230 16 is_stmt 0 view .LVU453
 1464 00de 3146     		mov	r1, r6
 1465 00e0 6846     		mov	r0, sp
 1466 00e2 FFF7FEFF 		bl	lv_point_within_circle
 1467              	.LVL142:
 1468 00e6 17E0     		b	.L63
 1469              	.L69:
 233:../../Middlewares/LVGL/GUI/lvgl/src/misc/lv_area.c ****     corner_area.y2 = a_p->y1 + radius;
 1470              		.loc 1 233 5 is_stmt 1 view .LVU454
 233:../../Middlewares/LVGL/GUI/lvgl/src/misc/lv_area.c ****     corner_area.y2 = a_p->y1 + radius;
 1471              		.loc 1 233 25 is_stmt 0 view .LVU455
 1472 00e8 6368     		ldr	r3, [r4, #4]
 233:../../Middlewares/LVGL/GUI/lvgl/src/misc/lv_area.c ****     corner_area.y2 = a_p->y1 + radius;
 1473              		.loc 1 233 20 view .LVU456
 1474 00ea 0193     		str	r3, [sp, #4]
 234:../../Middlewares/LVGL/GUI/lvgl/src/misc/lv_area.c ****     if(lv_area_is_point_on(&corner_area, p_p, 0)) {
 1475              		.loc 1 234 5 is_stmt 1 view .LVU457
 234:../../Middlewares/LVGL/GUI/lvgl/src/misc/lv_area.c ****     if(lv_area_is_point_on(&corner_area, p_p, 0)) {
 1476              		.loc 1 234 30 is_stmt 0 view .LVU458
 1477 00ec 4344     		add	r3, r3, r8
 234:../../Middlewares/LVGL/GUI/lvgl/src/misc/lv_area.c ****     if(lv_area_is_point_on(&corner_area, p_p, 0)) {
 1478              		.loc 1 234 20 view .LVU459
 1479 00ee 0393     		str	r3, [sp, #12]
 235:../../Middlewares/LVGL/GUI/lvgl/src/misc/lv_area.c ****         corner_area.x1 -= radius;
 1480              		.loc 1 235 5 is_stmt 1 view .LVU460
 235:../../Middlewares/LVGL/GUI/lvgl/src/misc/lv_area.c ****         corner_area.x1 -= radius;
 1481              		.loc 1 235 8 is_stmt 0 view .LVU461
 1482 00f0 0246     		mov	r2, r0
 1483 00f2 3146     		mov	r1, r6
 1484 00f4 6846     		mov	r0, sp
 1485 00f6 FFF7FEFF 		bl	lv_area_is_point_on
 1486              	.LVL143:
 235:../../Middlewares/LVGL/GUI/lvgl/src/misc/lv_area.c ****         corner_area.x1 -= radius;
 1487              		.loc 1 235 7 discriminator 1 view .LVU462
 1488 00fa 08B9     		cbnz	r0, .L79
 241:../../Middlewares/LVGL/GUI/lvgl/src/misc/lv_area.c **** }
 1489              		.loc 1 241 12 view .LVU463
 1490 00fc 0120     		movs	r0, #1
 1491 00fe 0BE0     		b	.L63
 1492              	.L79:
 236:../../Middlewares/LVGL/GUI/lvgl/src/misc/lv_area.c ****         corner_area.y2 += radius;
 1493              		.loc 1 236 9 is_stmt 1 view .LVU464
 236:../../Middlewares/LVGL/GUI/lvgl/src/misc/lv_area.c ****         corner_area.y2 += radius;
 1494              		.loc 1 236 20 is_stmt 0 view .LVU465
 1495 0100 009B     		ldr	r3, [sp]
 236:../../Middlewares/LVGL/GUI/lvgl/src/misc/lv_area.c ****         corner_area.y2 += radius;
 1496              		.loc 1 236 24 view .LVU466
 1497 0102 5B1B     		subs	r3, r3, r5
 1498 0104 0093     		str	r3, [sp]
ARM GAS  C:\Users\28576\AppData\Local\Temp\ccYc01Pv.s 			page 45


 237:../../Middlewares/LVGL/GUI/lvgl/src/misc/lv_area.c ****         return lv_point_within_circle(&corner_area, p_p);
 1499              		.loc 1 237 9 is_stmt 1 view .LVU467
 237:../../Middlewares/LVGL/GUI/lvgl/src/misc/lv_area.c ****         return lv_point_within_circle(&corner_area, p_p);
 1500              		.loc 1 237 20 is_stmt 0 view .LVU468
 1501 0106 039B     		ldr	r3, [sp, #12]
 237:../../Middlewares/LVGL/GUI/lvgl/src/misc/lv_area.c ****         return lv_point_within_circle(&corner_area, p_p);
 1502              		.loc 1 237 24 view .LVU469
 1503 0108 4344     		add	r3, r3, r8
 1504 010a 0393     		str	r3, [sp, #12]
 238:../../Middlewares/LVGL/GUI/lvgl/src/misc/lv_area.c ****     }
 1505              		.loc 1 238 9 is_stmt 1 view .LVU470
 238:../../Middlewares/LVGL/GUI/lvgl/src/misc/lv_area.c ****     }
 1506              		.loc 1 238 16 is_stmt 0 view .LVU471
 1507 010c 3146     		mov	r1, r6
 1508 010e 6846     		mov	r0, sp
 1509 0110 FFF7FEFF 		bl	lv_point_within_circle
 1510              	.LVL144:
 1511 0114 00E0     		b	.L63
 1512              	.LVL145:
 1513              	.L70:
 192:../../Middlewares/LVGL/GUI/lvgl/src/misc/lv_area.c ****     /*Now handle potential rounded rectangles*/
 1514              		.loc 1 192 16 view .LVU472
 1515 0116 0020     		movs	r0, #0
 1516              	.LVL146:
 1517              	.L63:
 242:../../Middlewares/LVGL/GUI/lvgl/src/misc/lv_area.c **** 
 1518              		.loc 1 242 1 view .LVU473
 1519 0118 04B0     		add	sp, sp, #16
 1520              	.LCFI13:
 1521              		.cfi_remember_state
 1522              		.cfi_def_cfa_offset 24
 1523              		@ sp needed
 1524 011a BDE8F081 		pop	{r4, r5, r6, r7, r8, pc}
 1525              	.LVL147:
 1526              	.L71:
 1527              	.LCFI14:
 1528              		.cfi_restore_state
 192:../../Middlewares/LVGL/GUI/lvgl/src/misc/lv_area.c ****     /*Now handle potential rounded rectangles*/
 1529              		.loc 1 192 16 view .LVU474
 1530 011e 0020     		movs	r0, #0
 1531              	.LVL148:
 192:../../Middlewares/LVGL/GUI/lvgl/src/misc/lv_area.c ****     /*Now handle potential rounded rectangles*/
 1532              		.loc 1 192 16 view .LVU475
 1533 0120 FAE7     		b	.L63
 1534              	.LVL149:
 1535              	.L72:
 192:../../Middlewares/LVGL/GUI/lvgl/src/misc/lv_area.c ****     /*Now handle potential rounded rectangles*/
 1536              		.loc 1 192 16 view .LVU476
 1537 0122 0020     		movs	r0, #0
 1538              	.LVL150:
 192:../../Middlewares/LVGL/GUI/lvgl/src/misc/lv_area.c ****     /*Now handle potential rounded rectangles*/
 1539              		.loc 1 192 16 view .LVU477
 1540 0124 F8E7     		b	.L63
 1541              	.LVL151:
 1542              	.L73:
 192:../../Middlewares/LVGL/GUI/lvgl/src/misc/lv_area.c ****     /*Now handle potential rounded rectangles*/
 1543              		.loc 1 192 16 view .LVU478
ARM GAS  C:\Users\28576\AppData\Local\Temp\ccYc01Pv.s 			page 46


 1544 0126 0020     		movs	r0, #0
 1545              	.LVL152:
 192:../../Middlewares/LVGL/GUI/lvgl/src/misc/lv_area.c ****     /*Now handle potential rounded rectangles*/
 1546              		.loc 1 192 16 view .LVU479
 1547 0128 F6E7     		b	.L63
 1548              	.LVL153:
 1549              	.L74:
 196:../../Middlewares/LVGL/GUI/lvgl/src/misc/lv_area.c ****     }
 1550              		.loc 1 196 16 view .LVU480
 1551 012a 0120     		movs	r0, #1
 1552              	.LVL154:
 196:../../Middlewares/LVGL/GUI/lvgl/src/misc/lv_area.c ****     }
 1553              		.loc 1 196 16 view .LVU481
 1554 012c F4E7     		b	.L63
 1555              		.cfi_endproc
 1556              	.LFE197:
 1558              		.section	.text.lv_area_align,"ax",%progbits
 1559              		.align	1
 1560              		.global	lv_area_align
 1561              		.syntax unified
 1562              		.thumb
 1563              		.thumb_func
 1565              	lv_area_align:
 1566              	.LVL155:
 1567              	.LFB202:
 317:../../Middlewares/LVGL/GUI/lvgl/src/misc/lv_area.c **** 
 1568              		.loc 1 317 1 is_stmt 1 view -0
 1569              		.cfi_startproc
 1570              		@ args = 4, pretend = 0, frame = 0
 1571              		@ frame_needed = 0, uses_anonymous_args = 0
 317:../../Middlewares/LVGL/GUI/lvgl/src/misc/lv_area.c **** 
 1572              		.loc 1 317 1 is_stmt 0 view .LVU483
 1573 0000 2DE9F041 		push	{r4, r5, r6, r7, r8, lr}
 1574              	.LCFI15:
 1575              		.cfi_def_cfa_offset 24
 1576              		.cfi_offset 4, -24
 1577              		.cfi_offset 5, -20
 1578              		.cfi_offset 6, -16
 1579              		.cfi_offset 7, -12
 1580              		.cfi_offset 8, -8
 1581              		.cfi_offset 14, -4
 1582 0004 0446     		mov	r4, r0
 1583 0006 0D46     		mov	r5, r1
 1584 0008 9846     		mov	r8, r3
 319:../../Middlewares/LVGL/GUI/lvgl/src/misc/lv_area.c ****     int32_t y;
 1585              		.loc 1 319 5 is_stmt 1 view .LVU484
 320:../../Middlewares/LVGL/GUI/lvgl/src/misc/lv_area.c ****     switch(align) {
 1586              		.loc 1 320 5 view .LVU485
 321:../../Middlewares/LVGL/GUI/lvgl/src/misc/lv_area.c ****         case LV_ALIGN_CENTER:
 1587              		.loc 1 321 5 view .LVU486
 1588 000a 0C2A     		cmp	r2, #12
 1589 000c 00F04F81 		beq	.L81
 1590 0010 00F28C80 		bhi	.L82
 1591 0014 072A     		cmp	r2, #7
 1592 0016 00F01481 		beq	.L83
 1593 001a 2CD8     		bhi	.L84
 1594 001c 042A     		cmp	r2, #4
ARM GAS  C:\Users\28576\AppData\Local\Temp\ccYc01Pv.s 			page 47


 1595 001e 00F0EE80 		beq	.L85
 1596 0022 10D8     		bhi	.L86
 1597 0024 022A     		cmp	r2, #2
 1598 0026 00F0D880 		beq	.L87
 1599 002a 032A     		cmp	r2, #3
 1600 002c 08D1     		bne	.L130
 337:../../Middlewares/LVGL/GUI/lvgl/src/misc/lv_area.c ****             y = 0;
 1601              		.loc 1 337 13 view .LVU487
 337:../../Middlewares/LVGL/GUI/lvgl/src/misc/lv_area.c ****             y = 0;
 1602              		.loc 1 337 17 is_stmt 0 view .LVU488
 1603 002e FFF7FEFF 		bl	lv_area_get_width
 1604              	.LVL156:
 337:../../Middlewares/LVGL/GUI/lvgl/src/misc/lv_area.c ****             y = 0;
 1605              		.loc 1 337 17 view .LVU489
 1606 0032 0646     		mov	r6, r0
 337:../../Middlewares/LVGL/GUI/lvgl/src/misc/lv_area.c ****             y = 0;
 1607              		.loc 1 337 43 discriminator 1 view .LVU490
 1608 0034 2846     		mov	r0, r5
 1609 0036 FFF7FEFF 		bl	lv_area_get_width
 1610              	.LVL157:
 337:../../Middlewares/LVGL/GUI/lvgl/src/misc/lv_area.c ****             y = 0;
 1611              		.loc 1 337 15 discriminator 2 view .LVU491
 1612 003a 361A     		subs	r6, r6, r0
 1613              	.LVL158:
 338:../../Middlewares/LVGL/GUI/lvgl/src/misc/lv_area.c ****             break;
 1614              		.loc 1 338 13 is_stmt 1 view .LVU492
 339:../../Middlewares/LVGL/GUI/lvgl/src/misc/lv_area.c **** 
 1615              		.loc 1 339 13 view .LVU493
 338:../../Middlewares/LVGL/GUI/lvgl/src/misc/lv_area.c ****             break;
 1616              		.loc 1 338 15 is_stmt 0 view .LVU494
 1617 003c 0020     		movs	r0, #0
 339:../../Middlewares/LVGL/GUI/lvgl/src/misc/lv_area.c **** 
 1618              		.loc 1 339 13 view .LVU495
 1619 003e 41E0     		b	.L89
 1620              	.LVL159:
 1621              	.L130:
 321:../../Middlewares/LVGL/GUI/lvgl/src/misc/lv_area.c ****         case LV_ALIGN_CENTER:
 1622              		.loc 1 321 5 view .LVU496
 1623 0040 0020     		movs	r0, #0
 1624              	.LVL160:
 321:../../Middlewares/LVGL/GUI/lvgl/src/misc/lv_area.c ****         case LV_ALIGN_CENTER:
 1625              		.loc 1 321 5 view .LVU497
 1626 0042 0646     		mov	r6, r0
 1627 0044 3EE0     		b	.L89
 1628              	.LVL161:
 1629              	.L86:
 321:../../Middlewares/LVGL/GUI/lvgl/src/misc/lv_area.c ****         case LV_ALIGN_CENTER:
 1630              		.loc 1 321 5 view .LVU498
 1631 0046 052A     		cmp	r2, #5
 1632 0048 00F0E280 		beq	.L90
 1633 004c 062A     		cmp	r2, #6
 1634 004e 0FD1     		bne	.L131
 351:../../Middlewares/LVGL/GUI/lvgl/src/misc/lv_area.c ****             y = lv_area_get_height(base) - lv_area_get_height(to_align);
 1635              		.loc 1 351 13 is_stmt 1 view .LVU499
 351:../../Middlewares/LVGL/GUI/lvgl/src/misc/lv_area.c ****             y = lv_area_get_height(base) - lv_area_get_height(to_align);
 1636              		.loc 1 351 17 is_stmt 0 view .LVU500
 1637 0050 FFF7FEFF 		bl	lv_area_get_width
ARM GAS  C:\Users\28576\AppData\Local\Temp\ccYc01Pv.s 			page 48


 1638              	.LVL162:
 351:../../Middlewares/LVGL/GUI/lvgl/src/misc/lv_area.c ****             y = lv_area_get_height(base) - lv_area_get_height(to_align);
 1639              		.loc 1 351 17 view .LVU501
 1640 0054 0646     		mov	r6, r0
 351:../../Middlewares/LVGL/GUI/lvgl/src/misc/lv_area.c ****             y = lv_area_get_height(base) - lv_area_get_height(to_align);
 1641              		.loc 1 351 43 discriminator 1 view .LVU502
 1642 0056 2846     		mov	r0, r5
 1643 0058 FFF7FEFF 		bl	lv_area_get_width
 1644              	.LVL163:
 351:../../Middlewares/LVGL/GUI/lvgl/src/misc/lv_area.c ****             y = lv_area_get_height(base) - lv_area_get_height(to_align);
 1645              		.loc 1 351 15 discriminator 2 view .LVU503
 1646 005c 361A     		subs	r6, r6, r0
 1647              	.LVL164:
 352:../../Middlewares/LVGL/GUI/lvgl/src/misc/lv_area.c ****             break;
 1648              		.loc 1 352 13 is_stmt 1 view .LVU504
 352:../../Middlewares/LVGL/GUI/lvgl/src/misc/lv_area.c ****             break;
 1649              		.loc 1 352 17 is_stmt 0 view .LVU505
 1650 005e 2046     		mov	r0, r4
 1651 0060 FFF7FEFF 		bl	lv_area_get_height
 1652              	.LVL165:
 1653 0064 0746     		mov	r7, r0
 352:../../Middlewares/LVGL/GUI/lvgl/src/misc/lv_area.c ****             break;
 1654              		.loc 1 352 44 discriminator 1 view .LVU506
 1655 0066 2846     		mov	r0, r5
 1656 0068 FFF7FEFF 		bl	lv_area_get_height
 1657              	.LVL166:
 352:../../Middlewares/LVGL/GUI/lvgl/src/misc/lv_area.c ****             break;
 1658              		.loc 1 352 15 discriminator 2 view .LVU507
 1659 006c 381A     		subs	r0, r7, r0
 1660              	.LVL167:
 353:../../Middlewares/LVGL/GUI/lvgl/src/misc/lv_area.c **** 
 1661              		.loc 1 353 13 is_stmt 1 view .LVU508
 1662 006e 29E0     		b	.L89
 1663              	.LVL168:
 1664              	.L131:
 321:../../Middlewares/LVGL/GUI/lvgl/src/misc/lv_area.c ****         case LV_ALIGN_CENTER:
 1665              		.loc 1 321 5 is_stmt 0 view .LVU509
 1666 0070 0020     		movs	r0, #0
 1667              	.LVL169:
 321:../../Middlewares/LVGL/GUI/lvgl/src/misc/lv_area.c ****         case LV_ALIGN_CENTER:
 1668              		.loc 1 321 5 view .LVU510
 1669 0072 0646     		mov	r6, r0
 1670 0074 26E0     		b	.L89
 1671              	.LVL170:
 1672              	.L84:
 321:../../Middlewares/LVGL/GUI/lvgl/src/misc/lv_area.c ****         case LV_ALIGN_CENTER:
 1673              		.loc 1 321 5 view .LVU511
 1674 0076 0A2A     		cmp	r2, #10
 1675 0078 00F00F81 		beq	.L92
 1676 007c 3ED8     		bhi	.L93
 1677 007e 082A     		cmp	r2, #8
 1678 0080 00F0F180 		beq	.L94
 1679 0084 092A     		cmp	r2, #9
 1680 0086 36D1     		bne	.L132
 323:../../Middlewares/LVGL/GUI/lvgl/src/misc/lv_area.c ****             y = lv_area_get_height(base) / 2 - lv_area_get_height(to_align) / 2;
 1681              		.loc 1 323 13 is_stmt 1 view .LVU512
 323:../../Middlewares/LVGL/GUI/lvgl/src/misc/lv_area.c ****             y = lv_area_get_height(base) / 2 - lv_area_get_height(to_align) / 2;
ARM GAS  C:\Users\28576\AppData\Local\Temp\ccYc01Pv.s 			page 49


 1682              		.loc 1 323 17 is_stmt 0 view .LVU513
 1683 0088 FFF7FEFF 		bl	lv_area_get_width
 1684              	.LVL171:
 323:../../Middlewares/LVGL/GUI/lvgl/src/misc/lv_area.c ****             y = lv_area_get_height(base) / 2 - lv_area_get_height(to_align) / 2;
 1685              		.loc 1 323 41 discriminator 1 view .LVU514
 1686 008c 0028     		cmp	r0, #0
 1687 008e C0F29C80 		blt	.L133
 1688              	.L109:
 1689 0092 4610     		asrs	r6, r0, #1
 323:../../Middlewares/LVGL/GUI/lvgl/src/misc/lv_area.c ****             y = lv_area_get_height(base) / 2 - lv_area_get_height(to_align) / 2;
 1690              		.loc 1 323 47 discriminator 1 view .LVU515
 1691 0094 2846     		mov	r0, r5
 1692 0096 FFF7FEFF 		bl	lv_area_get_width
 1693              	.LVL172:
 323:../../Middlewares/LVGL/GUI/lvgl/src/misc/lv_area.c ****             y = lv_area_get_height(base) / 2 - lv_area_get_height(to_align) / 2;
 1694              		.loc 1 323 75 discriminator 2 view .LVU516
 1695 009a 0028     		cmp	r0, #0
 1696 009c C0F29780 		blt	.L134
 1697              	.L110:
 323:../../Middlewares/LVGL/GUI/lvgl/src/misc/lv_area.c ****             y = lv_area_get_height(base) / 2 - lv_area_get_height(to_align) / 2;
 1698              		.loc 1 323 15 discriminator 2 view .LVU517
 1699 00a0 A6EB6006 		sub	r6, r6, r0, asr #1
 1700              	.LVL173:
 324:../../Middlewares/LVGL/GUI/lvgl/src/misc/lv_area.c ****             break;
 1701              		.loc 1 324 13 is_stmt 1 view .LVU518
 324:../../Middlewares/LVGL/GUI/lvgl/src/misc/lv_area.c ****             break;
 1702              		.loc 1 324 17 is_stmt 0 view .LVU519
 1703 00a4 2046     		mov	r0, r4
 1704 00a6 FFF7FEFF 		bl	lv_area_get_height
 1705              	.LVL174:
 324:../../Middlewares/LVGL/GUI/lvgl/src/misc/lv_area.c ****             break;
 1706              		.loc 1 324 42 discriminator 1 view .LVU520
 1707 00aa 0028     		cmp	r0, #0
 1708 00ac C0F29180 		blt	.L135
 1709              	.L111:
 1710 00b0 4310     		asrs	r3, r0, #1
 1711 00b2 1F46     		mov	r7, r3
 324:../../Middlewares/LVGL/GUI/lvgl/src/misc/lv_area.c ****             break;
 1712              		.loc 1 324 48 discriminator 1 view .LVU521
 1713 00b4 2846     		mov	r0, r5
 1714 00b6 FFF7FEFF 		bl	lv_area_get_height
 1715              	.LVL175:
 324:../../Middlewares/LVGL/GUI/lvgl/src/misc/lv_area.c ****             break;
 1716              		.loc 1 324 77 discriminator 2 view .LVU522
 1717 00ba 0028     		cmp	r0, #0
 1718 00bc C0F28B80 		blt	.L136
 1719              	.L112:
 324:../../Middlewares/LVGL/GUI/lvgl/src/misc/lv_area.c ****             break;
 1720              		.loc 1 324 15 discriminator 2 view .LVU523
 1721 00c0 A7EB6000 		sub	r0, r7, r0, asr #1
 1722              	.LVL176:
 325:../../Middlewares/LVGL/GUI/lvgl/src/misc/lv_area.c **** 
 1723              		.loc 1 325 13 is_stmt 1 view .LVU524
 1724              	.L89:
 430:../../Middlewares/LVGL/GUI/lvgl/src/misc/lv_area.c ****     y += base->y1;
 1725              		.loc 1 430 5 view .LVU525
 430:../../Middlewares/LVGL/GUI/lvgl/src/misc/lv_area.c ****     y += base->y1;
ARM GAS  C:\Users\28576\AppData\Local\Temp\ccYc01Pv.s 			page 50


 1726              		.loc 1 430 14 is_stmt 0 view .LVU526
 1727 00c4 2368     		ldr	r3, [r4]
 430:../../Middlewares/LVGL/GUI/lvgl/src/misc/lv_area.c ****     y += base->y1;
 1728              		.loc 1 430 7 view .LVU527
 1729 00c6 1E44     		add	r6, r6, r3
 1730              	.LVL177:
 431:../../Middlewares/LVGL/GUI/lvgl/src/misc/lv_area.c **** 
 1731              		.loc 1 431 5 is_stmt 1 view .LVU528
 431:../../Middlewares/LVGL/GUI/lvgl/src/misc/lv_area.c **** 
 1732              		.loc 1 431 14 is_stmt 0 view .LVU529
 1733 00c8 6468     		ldr	r4, [r4, #4]
 1734              	.LVL178:
 431:../../Middlewares/LVGL/GUI/lvgl/src/misc/lv_area.c **** 
 1735              		.loc 1 431 7 view .LVU530
 1736 00ca 0444     		add	r4, r4, r0
 1737              	.LVL179:
 433:../../Middlewares/LVGL/GUI/lvgl/src/misc/lv_area.c ****     int32_t h = lv_area_get_height(to_align);
 1738              		.loc 1 433 5 is_stmt 1 view .LVU531
 433:../../Middlewares/LVGL/GUI/lvgl/src/misc/lv_area.c ****     int32_t h = lv_area_get_height(to_align);
 1739              		.loc 1 433 17 is_stmt 0 view .LVU532
 1740 00cc 2846     		mov	r0, r5
 1741 00ce FFF7FEFF 		bl	lv_area_get_width
 1742              	.LVL180:
 1743 00d2 0746     		mov	r7, r0
 1744              	.LVL181:
 434:../../Middlewares/LVGL/GUI/lvgl/src/misc/lv_area.c ****     to_align->x1 = x + ofs_x;
 1745              		.loc 1 434 5 is_stmt 1 view .LVU533
 434:../../Middlewares/LVGL/GUI/lvgl/src/misc/lv_area.c ****     to_align->x1 = x + ofs_x;
 1746              		.loc 1 434 17 is_stmt 0 view .LVU534
 1747 00d4 2846     		mov	r0, r5
 1748              	.LVL182:
 434:../../Middlewares/LVGL/GUI/lvgl/src/misc/lv_area.c ****     to_align->x1 = x + ofs_x;
 1749              		.loc 1 434 17 view .LVU535
 1750 00d6 FFF7FEFF 		bl	lv_area_get_height
 1751              	.LVL183:
 435:../../Middlewares/LVGL/GUI/lvgl/src/misc/lv_area.c ****     to_align->y1 = y + ofs_y;
 1752              		.loc 1 435 5 is_stmt 1 view .LVU536
 435:../../Middlewares/LVGL/GUI/lvgl/src/misc/lv_area.c ****     to_align->y1 = y + ofs_y;
 1753              		.loc 1 435 22 is_stmt 0 view .LVU537
 1754 00da 4346     		mov	r3, r8
 1755 00dc 3344     		add	r3, r3, r6
 435:../../Middlewares/LVGL/GUI/lvgl/src/misc/lv_area.c ****     to_align->y1 = y + ofs_y;
 1756              		.loc 1 435 18 view .LVU538
 1757 00de 2B60     		str	r3, [r5]
 436:../../Middlewares/LVGL/GUI/lvgl/src/misc/lv_area.c ****     to_align->x2 = to_align->x1 + w - 1;
 1758              		.loc 1 436 5 is_stmt 1 view .LVU539
 436:../../Middlewares/LVGL/GUI/lvgl/src/misc/lv_area.c ****     to_align->x2 = to_align->x1 + w - 1;
 1759              		.loc 1 436 22 is_stmt 0 view .LVU540
 1760 00e0 069A     		ldr	r2, [sp, #24]
 1761 00e2 2244     		add	r2, r2, r4
 436:../../Middlewares/LVGL/GUI/lvgl/src/misc/lv_area.c ****     to_align->x2 = to_align->x1 + w - 1;
 1762              		.loc 1 436 18 view .LVU541
 1763 00e4 6A60     		str	r2, [r5, #4]
 437:../../Middlewares/LVGL/GUI/lvgl/src/misc/lv_area.c ****     to_align->y2 = to_align->y1 + h - 1;
 1764              		.loc 1 437 5 is_stmt 1 view .LVU542
 437:../../Middlewares/LVGL/GUI/lvgl/src/misc/lv_area.c ****     to_align->y2 = to_align->y1 + h - 1;
 1765              		.loc 1 437 33 is_stmt 0 view .LVU543
ARM GAS  C:\Users\28576\AppData\Local\Temp\ccYc01Pv.s 			page 51


 1766 00e6 3B44     		add	r3, r3, r7
 437:../../Middlewares/LVGL/GUI/lvgl/src/misc/lv_area.c ****     to_align->y2 = to_align->y1 + h - 1;
 1767              		.loc 1 437 37 view .LVU544
 1768 00e8 013B     		subs	r3, r3, #1
 437:../../Middlewares/LVGL/GUI/lvgl/src/misc/lv_area.c ****     to_align->y2 = to_align->y1 + h - 1;
 1769              		.loc 1 437 18 view .LVU545
 1770 00ea AB60     		str	r3, [r5, #8]
 438:../../Middlewares/LVGL/GUI/lvgl/src/misc/lv_area.c **** }
 1771              		.loc 1 438 5 is_stmt 1 view .LVU546
 438:../../Middlewares/LVGL/GUI/lvgl/src/misc/lv_area.c **** }
 1772              		.loc 1 438 33 is_stmt 0 view .LVU547
 1773 00ec 0244     		add	r2, r2, r0
 438:../../Middlewares/LVGL/GUI/lvgl/src/misc/lv_area.c **** }
 1774              		.loc 1 438 37 view .LVU548
 1775 00ee 013A     		subs	r2, r2, #1
 438:../../Middlewares/LVGL/GUI/lvgl/src/misc/lv_area.c **** }
 1776              		.loc 1 438 18 view .LVU549
 1777 00f0 EA60     		str	r2, [r5, #12]
 439:../../Middlewares/LVGL/GUI/lvgl/src/misc/lv_area.c **** 
 1778              		.loc 1 439 1 view .LVU550
 1779 00f2 BDE8F081 		pop	{r4, r5, r6, r7, r8, pc}
 1780              	.LVL184:
 1781              	.L132:
 321:../../Middlewares/LVGL/GUI/lvgl/src/misc/lv_area.c ****         case LV_ALIGN_CENTER:
 1782              		.loc 1 321 5 view .LVU551
 1783 00f6 0020     		movs	r0, #0
 1784              	.LVL185:
 321:../../Middlewares/LVGL/GUI/lvgl/src/misc/lv_area.c ****         case LV_ALIGN_CENTER:
 1785              		.loc 1 321 5 view .LVU552
 1786 00f8 0646     		mov	r6, r0
 1787 00fa E3E7     		b	.L89
 1788              	.LVL186:
 1789              	.L93:
 321:../../Middlewares/LVGL/GUI/lvgl/src/misc/lv_area.c ****         case LV_ALIGN_CENTER:
 1790              		.loc 1 321 5 view .LVU553
 1791 00fc 0B2A     		cmp	r2, #11
 1792 00fe 12D1     		bne	.L137
 371:../../Middlewares/LVGL/GUI/lvgl/src/misc/lv_area.c ****             y = -lv_area_get_height(to_align);
 1793              		.loc 1 371 13 is_stmt 1 view .LVU554
 371:../../Middlewares/LVGL/GUI/lvgl/src/misc/lv_area.c ****             y = -lv_area_get_height(to_align);
 1794              		.loc 1 371 17 is_stmt 0 view .LVU555
 1795 0100 FFF7FEFF 		bl	lv_area_get_width
 1796              	.LVL187:
 371:../../Middlewares/LVGL/GUI/lvgl/src/misc/lv_area.c ****             y = -lv_area_get_height(to_align);
 1797              		.loc 1 371 41 discriminator 1 view .LVU556
 1798 0104 0028     		cmp	r0, #0
 1799 0106 C0F2CE80 		blt	.L138
 1800              	.L121:
 1801 010a 4610     		asrs	r6, r0, #1
 371:../../Middlewares/LVGL/GUI/lvgl/src/misc/lv_area.c ****             y = -lv_area_get_height(to_align);
 1802              		.loc 1 371 47 discriminator 1 view .LVU557
 1803 010c 2846     		mov	r0, r5
 1804 010e FFF7FEFF 		bl	lv_area_get_width
 1805              	.LVL188:
 371:../../Middlewares/LVGL/GUI/lvgl/src/misc/lv_area.c ****             y = -lv_area_get_height(to_align);
 1806              		.loc 1 371 75 discriminator 2 view .LVU558
 1807 0112 0028     		cmp	r0, #0
ARM GAS  C:\Users\28576\AppData\Local\Temp\ccYc01Pv.s 			page 52


 1808 0114 C0F2C980 		blt	.L139
 1809              	.L122:
 371:../../Middlewares/LVGL/GUI/lvgl/src/misc/lv_area.c ****             y = -lv_area_get_height(to_align);
 1810              		.loc 1 371 15 discriminator 2 view .LVU559
 1811 0118 A6EB6006 		sub	r6, r6, r0, asr #1
 1812              	.LVL189:
 372:../../Middlewares/LVGL/GUI/lvgl/src/misc/lv_area.c ****             break;
 1813              		.loc 1 372 13 is_stmt 1 view .LVU560
 372:../../Middlewares/LVGL/GUI/lvgl/src/misc/lv_area.c ****             break;
 1814              		.loc 1 372 18 is_stmt 0 view .LVU561
 1815 011c 2846     		mov	r0, r5
 1816 011e FFF7FEFF 		bl	lv_area_get_height
 1817              	.LVL190:
 372:../../Middlewares/LVGL/GUI/lvgl/src/misc/lv_area.c ****             break;
 1818              		.loc 1 372 15 discriminator 1 view .LVU562
 1819 0122 4042     		rsbs	r0, r0, #0
 1820              	.LVL191:
 373:../../Middlewares/LVGL/GUI/lvgl/src/misc/lv_area.c **** 
 1821              		.loc 1 373 13 is_stmt 1 view .LVU563
 1822 0124 CEE7     		b	.L89
 1823              	.LVL192:
 1824              	.L137:
 321:../../Middlewares/LVGL/GUI/lvgl/src/misc/lv_area.c ****         case LV_ALIGN_CENTER:
 1825              		.loc 1 321 5 is_stmt 0 view .LVU564
 1826 0126 0020     		movs	r0, #0
 1827              	.LVL193:
 321:../../Middlewares/LVGL/GUI/lvgl/src/misc/lv_area.c ****         case LV_ALIGN_CENTER:
 1828              		.loc 1 321 5 view .LVU565
 1829 0128 0646     		mov	r6, r0
 1830 012a CBE7     		b	.L89
 1831              	.LVL194:
 1832              	.L82:
 321:../../Middlewares/LVGL/GUI/lvgl/src/misc/lv_area.c ****         case LV_ALIGN_CENTER:
 1833              		.loc 1 321 5 view .LVU566
 1834 012c 112A     		cmp	r2, #17
 1835 012e 00F0DD80 		beq	.L97
 1836 0132 28D8     		bhi	.L98
 1837 0134 0F2A     		cmp	r2, #15
 1838 0136 00F0CE80 		beq	.L99
 1839 013a 19D8     		bhi	.L100
 1840 013c 0D2A     		cmp	r2, #13
 1841 013e 00F0C280 		beq	.L101
 1842 0142 0E2A     		cmp	r2, #14
 1843 0144 11D1     		bne	.L140
 386:../../Middlewares/LVGL/GUI/lvgl/src/misc/lv_area.c ****             y = lv_area_get_height(base);
 1844              		.loc 1 386 13 is_stmt 1 view .LVU567
 386:../../Middlewares/LVGL/GUI/lvgl/src/misc/lv_area.c ****             y = lv_area_get_height(base);
 1845              		.loc 1 386 17 is_stmt 0 view .LVU568
 1846 0146 FFF7FEFF 		bl	lv_area_get_width
 1847              	.LVL195:
 386:../../Middlewares/LVGL/GUI/lvgl/src/misc/lv_area.c ****             y = lv_area_get_height(base);
 1848              		.loc 1 386 41 discriminator 1 view .LVU569
 1849 014a 0028     		cmp	r0, #0
 1850 014c C0F2BF80 		blt	.L141
 1851              	.L123:
 1852 0150 4610     		asrs	r6, r0, #1
 386:../../Middlewares/LVGL/GUI/lvgl/src/misc/lv_area.c ****             y = lv_area_get_height(base);
ARM GAS  C:\Users\28576\AppData\Local\Temp\ccYc01Pv.s 			page 53


 1853              		.loc 1 386 47 discriminator 1 view .LVU570
 1854 0152 2846     		mov	r0, r5
 1855 0154 FFF7FEFF 		bl	lv_area_get_width
 1856              	.LVL196:
 386:../../Middlewares/LVGL/GUI/lvgl/src/misc/lv_area.c ****             y = lv_area_get_height(base);
 1857              		.loc 1 386 75 discriminator 2 view .LVU571
 1858 0158 0028     		cmp	r0, #0
 1859 015a C0F2BA80 		blt	.L142
 1860              	.L124:
 386:../../Middlewares/LVGL/GUI/lvgl/src/misc/lv_area.c ****             y = lv_area_get_height(base);
 1861              		.loc 1 386 15 discriminator 2 view .LVU572
 1862 015e A6EB6006 		sub	r6, r6, r0, asr #1
 1863              	.LVL197:
 387:../../Middlewares/LVGL/GUI/lvgl/src/misc/lv_area.c ****             break;
 1864              		.loc 1 387 13 is_stmt 1 view .LVU573
 387:../../Middlewares/LVGL/GUI/lvgl/src/misc/lv_area.c ****             break;
 1865              		.loc 1 387 17 is_stmt 0 view .LVU574
 1866 0162 2046     		mov	r0, r4
 1867 0164 FFF7FEFF 		bl	lv_area_get_height
 1868              	.LVL198:
 388:../../Middlewares/LVGL/GUI/lvgl/src/misc/lv_area.c **** 
 1869              		.loc 1 388 13 is_stmt 1 view .LVU575
 1870 0168 ACE7     		b	.L89
 1871              	.LVL199:
 1872              	.L140:
 321:../../Middlewares/LVGL/GUI/lvgl/src/misc/lv_area.c ****         case LV_ALIGN_CENTER:
 1873              		.loc 1 321 5 is_stmt 0 view .LVU576
 1874 016a 0020     		movs	r0, #0
 1875              	.LVL200:
 321:../../Middlewares/LVGL/GUI/lvgl/src/misc/lv_area.c ****         case LV_ALIGN_CENTER:
 1876              		.loc 1 321 5 view .LVU577
 1877 016c 0646     		mov	r6, r0
 1878 016e A9E7     		b	.L89
 1879              	.LVL201:
 1880              	.L100:
 321:../../Middlewares/LVGL/GUI/lvgl/src/misc/lv_area.c ****         case LV_ALIGN_CENTER:
 1881              		.loc 1 321 5 view .LVU578
 1882 0170 102A     		cmp	r2, #16
 1883 0172 05D1     		bne	.L143
 396:../../Middlewares/LVGL/GUI/lvgl/src/misc/lv_area.c ****             y = 0;
 1884              		.loc 1 396 13 is_stmt 1 view .LVU579
 396:../../Middlewares/LVGL/GUI/lvgl/src/misc/lv_area.c ****             y = 0;
 1885              		.loc 1 396 18 is_stmt 0 view .LVU580
 1886 0174 0846     		mov	r0, r1
 1887              	.LVL202:
 396:../../Middlewares/LVGL/GUI/lvgl/src/misc/lv_area.c ****             y = 0;
 1888              		.loc 1 396 18 view .LVU581
 1889 0176 FFF7FEFF 		bl	lv_area_get_width
 1890              	.LVL203:
 396:../../Middlewares/LVGL/GUI/lvgl/src/misc/lv_area.c ****             y = 0;
 1891              		.loc 1 396 15 discriminator 1 view .LVU582
 1892 017a 4642     		rsbs	r6, r0, #0
 1893              	.LVL204:
 397:../../Middlewares/LVGL/GUI/lvgl/src/misc/lv_area.c ****             break;
 1894              		.loc 1 397 13 is_stmt 1 view .LVU583
 398:../../Middlewares/LVGL/GUI/lvgl/src/misc/lv_area.c **** 
 1895              		.loc 1 398 13 view .LVU584
ARM GAS  C:\Users\28576\AppData\Local\Temp\ccYc01Pv.s 			page 54


 397:../../Middlewares/LVGL/GUI/lvgl/src/misc/lv_area.c ****             break;
 1896              		.loc 1 397 15 is_stmt 0 view .LVU585
 1897 017c 0020     		movs	r0, #0
 398:../../Middlewares/LVGL/GUI/lvgl/src/misc/lv_area.c **** 
 1898              		.loc 1 398 13 view .LVU586
 1899 017e A1E7     		b	.L89
 1900              	.LVL205:
 1901              	.L143:
 321:../../Middlewares/LVGL/GUI/lvgl/src/misc/lv_area.c ****         case LV_ALIGN_CENTER:
 1902              		.loc 1 321 5 view .LVU587
 1903 0180 0020     		movs	r0, #0
 1904              	.LVL206:
 321:../../Middlewares/LVGL/GUI/lvgl/src/misc/lv_area.c ****         case LV_ALIGN_CENTER:
 1905              		.loc 1 321 5 view .LVU588
 1906 0182 0646     		mov	r6, r0
 1907 0184 9EE7     		b	.L89
 1908              	.LVL207:
 1909              	.L98:
 321:../../Middlewares/LVGL/GUI/lvgl/src/misc/lv_area.c ****         case LV_ALIGN_CENTER:
 1910              		.loc 1 321 5 view .LVU589
 1911 0186 142A     		cmp	r2, #20
 1912 0188 00F0D480 		beq	.L104
 1913 018c 0CD8     		bhi	.L105
 1914 018e 122A     		cmp	r2, #18
 1915 0190 00F0C380 		beq	.L106
 1916 0194 132A     		cmp	r2, #19
 1917 0196 04D1     		bne	.L144
 411:../../Middlewares/LVGL/GUI/lvgl/src/misc/lv_area.c ****             y = 0;
 1918              		.loc 1 411 13 is_stmt 1 view .LVU590
 411:../../Middlewares/LVGL/GUI/lvgl/src/misc/lv_area.c ****             y = 0;
 1919              		.loc 1 411 17 is_stmt 0 view .LVU591
 1920 0198 FFF7FEFF 		bl	lv_area_get_width
 1921              	.LVL208:
 411:../../Middlewares/LVGL/GUI/lvgl/src/misc/lv_area.c ****             y = 0;
 1922              		.loc 1 411 17 view .LVU592
 1923 019c 0646     		mov	r6, r0
 1924              	.LVL209:
 412:../../Middlewares/LVGL/GUI/lvgl/src/misc/lv_area.c ****             break;
 1925              		.loc 1 412 13 is_stmt 1 view .LVU593
 413:../../Middlewares/LVGL/GUI/lvgl/src/misc/lv_area.c **** 
 1926              		.loc 1 413 13 view .LVU594
 412:../../Middlewares/LVGL/GUI/lvgl/src/misc/lv_area.c ****             break;
 1927              		.loc 1 412 15 is_stmt 0 view .LVU595
 1928 019e 0020     		movs	r0, #0
 1929              	.LVL210:
 413:../../Middlewares/LVGL/GUI/lvgl/src/misc/lv_area.c **** 
 1930              		.loc 1 413 13 view .LVU596
 1931 01a0 90E7     		b	.L89
 1932              	.LVL211:
 1933              	.L144:
 321:../../Middlewares/LVGL/GUI/lvgl/src/misc/lv_area.c ****         case LV_ALIGN_CENTER:
 1934              		.loc 1 321 5 view .LVU597
 1935 01a2 0020     		movs	r0, #0
 1936              	.LVL212:
 321:../../Middlewares/LVGL/GUI/lvgl/src/misc/lv_area.c ****         case LV_ALIGN_CENTER:
 1937              		.loc 1 321 5 view .LVU598
 1938 01a4 0646     		mov	r6, r0
ARM GAS  C:\Users\28576\AppData\Local\Temp\ccYc01Pv.s 			page 55


 1939 01a6 8DE7     		b	.L89
 1940              	.LVL213:
 1941              	.L105:
 321:../../Middlewares/LVGL/GUI/lvgl/src/misc/lv_area.c ****         case LV_ALIGN_CENTER:
 1942              		.loc 1 321 5 view .LVU599
 1943 01a8 152A     		cmp	r2, #21
 1944 01aa 0BD1     		bne	.L145
 421:../../Middlewares/LVGL/GUI/lvgl/src/misc/lv_area.c ****             y = lv_area_get_height(base) - lv_area_get_height(to_align);
 1945              		.loc 1 421 13 is_stmt 1 view .LVU600
 421:../../Middlewares/LVGL/GUI/lvgl/src/misc/lv_area.c ****             y = lv_area_get_height(base) - lv_area_get_height(to_align);
 1946              		.loc 1 421 17 is_stmt 0 view .LVU601
 1947 01ac FFF7FEFF 		bl	lv_area_get_width
 1948              	.LVL214:
 421:../../Middlewares/LVGL/GUI/lvgl/src/misc/lv_area.c ****             y = lv_area_get_height(base) - lv_area_get_height(to_align);
 1949              		.loc 1 421 17 view .LVU602
 1950 01b0 0646     		mov	r6, r0
 1951              	.LVL215:
 422:../../Middlewares/LVGL/GUI/lvgl/src/misc/lv_area.c ****             break;
 1952              		.loc 1 422 13 is_stmt 1 view .LVU603
 422:../../Middlewares/LVGL/GUI/lvgl/src/misc/lv_area.c ****             break;
 1953              		.loc 1 422 17 is_stmt 0 view .LVU604
 1954 01b2 2046     		mov	r0, r4
 1955              	.LVL216:
 422:../../Middlewares/LVGL/GUI/lvgl/src/misc/lv_area.c ****             break;
 1956              		.loc 1 422 17 view .LVU605
 1957 01b4 FFF7FEFF 		bl	lv_area_get_height
 1958              	.LVL217:
 1959 01b8 0746     		mov	r7, r0
 422:../../Middlewares/LVGL/GUI/lvgl/src/misc/lv_area.c ****             break;
 1960              		.loc 1 422 44 discriminator 1 view .LVU606
 1961 01ba 2846     		mov	r0, r5
 1962 01bc FFF7FEFF 		bl	lv_area_get_height
 1963              	.LVL218:
 422:../../Middlewares/LVGL/GUI/lvgl/src/misc/lv_area.c ****             break;
 1964              		.loc 1 422 15 discriminator 2 view .LVU607
 1965 01c0 381A     		subs	r0, r7, r0
 1966              	.LVL219:
 423:../../Middlewares/LVGL/GUI/lvgl/src/misc/lv_area.c ****         default:
 1967              		.loc 1 423 13 is_stmt 1 view .LVU608
 1968 01c2 7FE7     		b	.L89
 1969              	.LVL220:
 1970              	.L145:
 321:../../Middlewares/LVGL/GUI/lvgl/src/misc/lv_area.c ****         case LV_ALIGN_CENTER:
 1971              		.loc 1 321 5 is_stmt 0 view .LVU609
 1972 01c4 0020     		movs	r0, #0
 1973              	.LVL221:
 321:../../Middlewares/LVGL/GUI/lvgl/src/misc/lv_area.c ****         case LV_ALIGN_CENTER:
 1974              		.loc 1 321 5 view .LVU610
 1975 01c6 0646     		mov	r6, r0
 1976 01c8 7CE7     		b	.L89
 1977              	.LVL222:
 1978              	.L133:
 323:../../Middlewares/LVGL/GUI/lvgl/src/misc/lv_area.c ****             y = lv_area_get_height(base) / 2 - lv_area_get_height(to_align) / 2;
 1979              		.loc 1 323 41 discriminator 1 view .LVU611
 1980 01ca 0130     		adds	r0, r0, #1
 1981 01cc 61E7     		b	.L109
 1982              	.L134:
ARM GAS  C:\Users\28576\AppData\Local\Temp\ccYc01Pv.s 			page 56


 323:../../Middlewares/LVGL/GUI/lvgl/src/misc/lv_area.c ****             y = lv_area_get_height(base) / 2 - lv_area_get_height(to_align) / 2;
 1983              		.loc 1 323 75 discriminator 2 view .LVU612
 1984 01ce 0130     		adds	r0, r0, #1
 1985 01d0 66E7     		b	.L110
 1986              	.LVL223:
 1987              	.L135:
 324:../../Middlewares/LVGL/GUI/lvgl/src/misc/lv_area.c ****             break;
 1988              		.loc 1 324 42 discriminator 1 view .LVU613
 1989 01d2 0130     		adds	r0, r0, #1
 1990 01d4 6CE7     		b	.L111
 1991              	.L136:
 324:../../Middlewares/LVGL/GUI/lvgl/src/misc/lv_area.c ****             break;
 1992              		.loc 1 324 77 discriminator 2 view .LVU614
 1993 01d6 0130     		adds	r0, r0, #1
 1994 01d8 72E7     		b	.L112
 1995              	.LVL224:
 1996              	.L87:
 332:../../Middlewares/LVGL/GUI/lvgl/src/misc/lv_area.c ****             y = 0;
 1997              		.loc 1 332 13 is_stmt 1 view .LVU615
 332:../../Middlewares/LVGL/GUI/lvgl/src/misc/lv_area.c ****             y = 0;
 1998              		.loc 1 332 17 is_stmt 0 view .LVU616
 1999 01da FFF7FEFF 		bl	lv_area_get_width
 2000              	.LVL225:
 332:../../Middlewares/LVGL/GUI/lvgl/src/misc/lv_area.c ****             y = 0;
 2001              		.loc 1 332 41 discriminator 1 view .LVU617
 2002 01de 0028     		cmp	r0, #0
 2003 01e0 09DB     		blt	.L146
 2004              	.L113:
 2005 01e2 4610     		asrs	r6, r0, #1
 332:../../Middlewares/LVGL/GUI/lvgl/src/misc/lv_area.c ****             y = 0;
 2006              		.loc 1 332 47 discriminator 1 view .LVU618
 2007 01e4 2846     		mov	r0, r5
 2008 01e6 FFF7FEFF 		bl	lv_area_get_width
 2009              	.LVL226:
 332:../../Middlewares/LVGL/GUI/lvgl/src/misc/lv_area.c ****             y = 0;
 2010              		.loc 1 332 75 discriminator 2 view .LVU619
 2011 01ea 0028     		cmp	r0, #0
 2012 01ec 05DB     		blt	.L147
 2013              	.L114:
 332:../../Middlewares/LVGL/GUI/lvgl/src/misc/lv_area.c ****             y = 0;
 2014              		.loc 1 332 15 discriminator 2 view .LVU620
 2015 01ee A6EB6006 		sub	r6, r6, r0, asr #1
 2016              	.LVL227:
 333:../../Middlewares/LVGL/GUI/lvgl/src/misc/lv_area.c ****             break;
 2017              		.loc 1 333 13 is_stmt 1 view .LVU621
 334:../../Middlewares/LVGL/GUI/lvgl/src/misc/lv_area.c **** 
 2018              		.loc 1 334 13 view .LVU622
 333:../../Middlewares/LVGL/GUI/lvgl/src/misc/lv_area.c ****             break;
 2019              		.loc 1 333 15 is_stmt 0 view .LVU623
 2020 01f2 0020     		movs	r0, #0
 334:../../Middlewares/LVGL/GUI/lvgl/src/misc/lv_area.c **** 
 2021              		.loc 1 334 13 view .LVU624
 2022 01f4 66E7     		b	.L89
 2023              	.LVL228:
 2024              	.L146:
 332:../../Middlewares/LVGL/GUI/lvgl/src/misc/lv_area.c ****             y = 0;
 2025              		.loc 1 332 41 discriminator 1 view .LVU625
ARM GAS  C:\Users\28576\AppData\Local\Temp\ccYc01Pv.s 			page 57


 2026 01f6 0130     		adds	r0, r0, #1
 2027 01f8 F3E7     		b	.L113
 2028              	.L147:
 332:../../Middlewares/LVGL/GUI/lvgl/src/misc/lv_area.c ****             y = 0;
 2029              		.loc 1 332 75 discriminator 2 view .LVU626
 2030 01fa 0130     		adds	r0, r0, #1
 2031 01fc F7E7     		b	.L114
 2032              	.LVL229:
 2033              	.L85:
 342:../../Middlewares/LVGL/GUI/lvgl/src/misc/lv_area.c ****             y = lv_area_get_height(base) - lv_area_get_height(to_align);
 2034              		.loc 1 342 13 is_stmt 1 view .LVU627
 343:../../Middlewares/LVGL/GUI/lvgl/src/misc/lv_area.c ****             break;
 2035              		.loc 1 343 13 view .LVU628
 343:../../Middlewares/LVGL/GUI/lvgl/src/misc/lv_area.c ****             break;
 2036              		.loc 1 343 17 is_stmt 0 view .LVU629
 2037 01fe FFF7FEFF 		bl	lv_area_get_height
 2038              	.LVL230:
 343:../../Middlewares/LVGL/GUI/lvgl/src/misc/lv_area.c ****             break;
 2039              		.loc 1 343 17 view .LVU630
 2040 0202 0646     		mov	r6, r0
 343:../../Middlewares/LVGL/GUI/lvgl/src/misc/lv_area.c ****             break;
 2041              		.loc 1 343 44 discriminator 1 view .LVU631
 2042 0204 2846     		mov	r0, r5
 2043 0206 FFF7FEFF 		bl	lv_area_get_height
 2044              	.LVL231:
 343:../../Middlewares/LVGL/GUI/lvgl/src/misc/lv_area.c ****             break;
 2045              		.loc 1 343 15 discriminator 2 view .LVU632
 2046 020a 301A     		subs	r0, r6, r0
 2047              	.LVL232:
 344:../../Middlewares/LVGL/GUI/lvgl/src/misc/lv_area.c ****         case LV_ALIGN_BOTTOM_MID:
 2048              		.loc 1 344 13 is_stmt 1 view .LVU633
 342:../../Middlewares/LVGL/GUI/lvgl/src/misc/lv_area.c ****             y = lv_area_get_height(base) - lv_area_get_height(to_align);
 2049              		.loc 1 342 15 is_stmt 0 view .LVU634
 2050 020c 0026     		movs	r6, #0
 344:../../Middlewares/LVGL/GUI/lvgl/src/misc/lv_area.c ****         case LV_ALIGN_BOTTOM_MID:
 2051              		.loc 1 344 13 view .LVU635
 2052 020e 59E7     		b	.L89
 2053              	.LVL233:
 2054              	.L90:
 346:../../Middlewares/LVGL/GUI/lvgl/src/misc/lv_area.c ****             y = lv_area_get_height(base) - lv_area_get_height(to_align);
 2055              		.loc 1 346 13 is_stmt 1 view .LVU636
 346:../../Middlewares/LVGL/GUI/lvgl/src/misc/lv_area.c ****             y = lv_area_get_height(base) - lv_area_get_height(to_align);
 2056              		.loc 1 346 17 is_stmt 0 view .LVU637
 2057 0210 FFF7FEFF 		bl	lv_area_get_width
 2058              	.LVL234:
 346:../../Middlewares/LVGL/GUI/lvgl/src/misc/lv_area.c ****             y = lv_area_get_height(base) - lv_area_get_height(to_align);
 2059              		.loc 1 346 41 discriminator 1 view .LVU638
 2060 0214 0028     		cmp	r0, #0
 2061 0216 10DB     		blt	.L148
 2062              	.L115:
 2063 0218 4610     		asrs	r6, r0, #1
 346:../../Middlewares/LVGL/GUI/lvgl/src/misc/lv_area.c ****             y = lv_area_get_height(base) - lv_area_get_height(to_align);
 2064              		.loc 1 346 47 discriminator 1 view .LVU639
 2065 021a 2846     		mov	r0, r5
 2066 021c FFF7FEFF 		bl	lv_area_get_width
 2067              	.LVL235:
 346:../../Middlewares/LVGL/GUI/lvgl/src/misc/lv_area.c ****             y = lv_area_get_height(base) - lv_area_get_height(to_align);
ARM GAS  C:\Users\28576\AppData\Local\Temp\ccYc01Pv.s 			page 58


 2068              		.loc 1 346 75 discriminator 2 view .LVU640
 2069 0220 0028     		cmp	r0, #0
 2070 0222 0CDB     		blt	.L149
 2071              	.L116:
 346:../../Middlewares/LVGL/GUI/lvgl/src/misc/lv_area.c ****             y = lv_area_get_height(base) - lv_area_get_height(to_align);
 2072              		.loc 1 346 15 discriminator 2 view .LVU641
 2073 0224 A6EB6006 		sub	r6, r6, r0, asr #1
 2074              	.LVL236:
 347:../../Middlewares/LVGL/GUI/lvgl/src/misc/lv_area.c ****             break;
 2075              		.loc 1 347 13 is_stmt 1 view .LVU642
 347:../../Middlewares/LVGL/GUI/lvgl/src/misc/lv_area.c ****             break;
 2076              		.loc 1 347 17 is_stmt 0 view .LVU643
 2077 0228 2046     		mov	r0, r4
 2078 022a FFF7FEFF 		bl	lv_area_get_height
 2079              	.LVL237:
 2080 022e 0746     		mov	r7, r0
 347:../../Middlewares/LVGL/GUI/lvgl/src/misc/lv_area.c ****             break;
 2081              		.loc 1 347 44 discriminator 1 view .LVU644
 2082 0230 2846     		mov	r0, r5
 2083 0232 FFF7FEFF 		bl	lv_area_get_height
 2084              	.LVL238:
 347:../../Middlewares/LVGL/GUI/lvgl/src/misc/lv_area.c ****             break;
 2085              		.loc 1 347 15 discriminator 2 view .LVU645
 2086 0236 381A     		subs	r0, r7, r0
 2087              	.LVL239:
 348:../../Middlewares/LVGL/GUI/lvgl/src/misc/lv_area.c **** 
 2088              		.loc 1 348 13 is_stmt 1 view .LVU646
 2089 0238 44E7     		b	.L89
 2090              	.LVL240:
 2091              	.L148:
 346:../../Middlewares/LVGL/GUI/lvgl/src/misc/lv_area.c ****             y = lv_area_get_height(base) - lv_area_get_height(to_align);
 2092              		.loc 1 346 41 is_stmt 0 discriminator 1 view .LVU647
 2093 023a 0130     		adds	r0, r0, #1
 2094 023c ECE7     		b	.L115
 2095              	.L149:
 346:../../Middlewares/LVGL/GUI/lvgl/src/misc/lv_area.c ****             y = lv_area_get_height(base) - lv_area_get_height(to_align);
 2096              		.loc 1 346 75 discriminator 2 view .LVU648
 2097 023e 0130     		adds	r0, r0, #1
 2098 0240 F0E7     		b	.L116
 2099              	.LVL241:
 2100              	.L83:
 356:../../Middlewares/LVGL/GUI/lvgl/src/misc/lv_area.c ****             y = lv_area_get_height(base) / 2 - lv_area_get_height(to_align) / 2;
 2101              		.loc 1 356 13 is_stmt 1 view .LVU649
 357:../../Middlewares/LVGL/GUI/lvgl/src/misc/lv_area.c ****             break;
 2102              		.loc 1 357 13 view .LVU650
 357:../../Middlewares/LVGL/GUI/lvgl/src/misc/lv_area.c ****             break;
 2103              		.loc 1 357 17 is_stmt 0 view .LVU651
 2104 0242 FFF7FEFF 		bl	lv_area_get_height
 2105              	.LVL242:
 357:../../Middlewares/LVGL/GUI/lvgl/src/misc/lv_area.c ****             break;
 2106              		.loc 1 357 42 discriminator 1 view .LVU652
 2107 0246 0028     		cmp	r0, #0
 2108 0248 09DB     		blt	.L150
 2109              	.L117:
 2110 024a 4610     		asrs	r6, r0, #1
 357:../../Middlewares/LVGL/GUI/lvgl/src/misc/lv_area.c ****             break;
 2111              		.loc 1 357 48 discriminator 1 view .LVU653
ARM GAS  C:\Users\28576\AppData\Local\Temp\ccYc01Pv.s 			page 59


 2112 024c 2846     		mov	r0, r5
 2113 024e FFF7FEFF 		bl	lv_area_get_height
 2114              	.LVL243:
 357:../../Middlewares/LVGL/GUI/lvgl/src/misc/lv_area.c ****             break;
 2115              		.loc 1 357 77 discriminator 2 view .LVU654
 2116 0252 0028     		cmp	r0, #0
 2117 0254 05DB     		blt	.L151
 2118              	.L118:
 357:../../Middlewares/LVGL/GUI/lvgl/src/misc/lv_area.c ****             break;
 2119              		.loc 1 357 15 discriminator 2 view .LVU655
 2120 0256 A6EB6000 		sub	r0, r6, r0, asr #1
 2121              	.LVL244:
 358:../../Middlewares/LVGL/GUI/lvgl/src/misc/lv_area.c **** 
 2122              		.loc 1 358 13 is_stmt 1 view .LVU656
 356:../../Middlewares/LVGL/GUI/lvgl/src/misc/lv_area.c ****             y = lv_area_get_height(base) / 2 - lv_area_get_height(to_align) / 2;
 2123              		.loc 1 356 15 is_stmt 0 view .LVU657
 2124 025a 0026     		movs	r6, #0
 358:../../Middlewares/LVGL/GUI/lvgl/src/misc/lv_area.c **** 
 2125              		.loc 1 358 13 view .LVU658
 2126 025c 32E7     		b	.L89
 2127              	.LVL245:
 2128              	.L150:
 357:../../Middlewares/LVGL/GUI/lvgl/src/misc/lv_area.c ****             break;
 2129              		.loc 1 357 42 discriminator 1 view .LVU659
 2130 025e 0130     		adds	r0, r0, #1
 2131 0260 F3E7     		b	.L117
 2132              	.L151:
 357:../../Middlewares/LVGL/GUI/lvgl/src/misc/lv_area.c ****             break;
 2133              		.loc 1 357 77 discriminator 2 view .LVU660
 2134 0262 0130     		adds	r0, r0, #1
 2135 0264 F7E7     		b	.L118
 2136              	.LVL246:
 2137              	.L94:
 361:../../Middlewares/LVGL/GUI/lvgl/src/misc/lv_area.c ****             y = lv_area_get_height(base) / 2 - lv_area_get_height(to_align) / 2;
 2138              		.loc 1 361 13 is_stmt 1 view .LVU661
 361:../../Middlewares/LVGL/GUI/lvgl/src/misc/lv_area.c ****             y = lv_area_get_height(base) / 2 - lv_area_get_height(to_align) / 2;
 2139              		.loc 1 361 17 is_stmt 0 view .LVU662
 2140 0266 FFF7FEFF 		bl	lv_area_get_width
 2141              	.LVL247:
 361:../../Middlewares/LVGL/GUI/lvgl/src/misc/lv_area.c ****             y = lv_area_get_height(base) / 2 - lv_area_get_height(to_align) / 2;
 2142              		.loc 1 361 17 view .LVU663
 2143 026a 0646     		mov	r6, r0
 361:../../Middlewares/LVGL/GUI/lvgl/src/misc/lv_area.c ****             y = lv_area_get_height(base) / 2 - lv_area_get_height(to_align) / 2;
 2144              		.loc 1 361 43 discriminator 1 view .LVU664
 2145 026c 2846     		mov	r0, r5
 2146 026e FFF7FEFF 		bl	lv_area_get_width
 2147              	.LVL248:
 361:../../Middlewares/LVGL/GUI/lvgl/src/misc/lv_area.c ****             y = lv_area_get_height(base) / 2 - lv_area_get_height(to_align) / 2;
 2148              		.loc 1 361 15 discriminator 2 view .LVU665
 2149 0272 361A     		subs	r6, r6, r0
 2150              	.LVL249:
 362:../../Middlewares/LVGL/GUI/lvgl/src/misc/lv_area.c ****             break;
 2151              		.loc 1 362 13 is_stmt 1 view .LVU666
 362:../../Middlewares/LVGL/GUI/lvgl/src/misc/lv_area.c ****             break;
 2152              		.loc 1 362 17 is_stmt 0 view .LVU667
 2153 0274 2046     		mov	r0, r4
 2154 0276 FFF7FEFF 		bl	lv_area_get_height
ARM GAS  C:\Users\28576\AppData\Local\Temp\ccYc01Pv.s 			page 60


 2155              	.LVL250:
 362:../../Middlewares/LVGL/GUI/lvgl/src/misc/lv_area.c ****             break;
 2156              		.loc 1 362 42 discriminator 1 view .LVU668
 2157 027a 0028     		cmp	r0, #0
 2158 027c 09DB     		blt	.L152
 2159              	.L119:
 2160 027e 4310     		asrs	r3, r0, #1
 2161 0280 1F46     		mov	r7, r3
 362:../../Middlewares/LVGL/GUI/lvgl/src/misc/lv_area.c ****             break;
 2162              		.loc 1 362 48 discriminator 1 view .LVU669
 2163 0282 2846     		mov	r0, r5
 2164 0284 FFF7FEFF 		bl	lv_area_get_height
 2165              	.LVL251:
 362:../../Middlewares/LVGL/GUI/lvgl/src/misc/lv_area.c ****             break;
 2166              		.loc 1 362 77 discriminator 2 view .LVU670
 2167 0288 0028     		cmp	r0, #0
 2168 028a 04DB     		blt	.L153
 2169              	.L120:
 362:../../Middlewares/LVGL/GUI/lvgl/src/misc/lv_area.c ****             break;
 2170              		.loc 1 362 15 discriminator 2 view .LVU671
 2171 028c A7EB6000 		sub	r0, r7, r0, asr #1
 2172              	.LVL252:
 363:../../Middlewares/LVGL/GUI/lvgl/src/misc/lv_area.c **** 
 2173              		.loc 1 363 13 is_stmt 1 view .LVU672
 2174 0290 18E7     		b	.L89
 2175              	.LVL253:
 2176              	.L152:
 362:../../Middlewares/LVGL/GUI/lvgl/src/misc/lv_area.c ****             break;
 2177              		.loc 1 362 42 is_stmt 0 discriminator 1 view .LVU673
 2178 0292 0130     		adds	r0, r0, #1
 2179 0294 F3E7     		b	.L119
 2180              	.L153:
 362:../../Middlewares/LVGL/GUI/lvgl/src/misc/lv_area.c ****             break;
 2181              		.loc 1 362 77 discriminator 2 view .LVU674
 2182 0296 0130     		adds	r0, r0, #1
 2183 0298 F8E7     		b	.L120
 2184              	.LVL254:
 2185              	.L92:
 366:../../Middlewares/LVGL/GUI/lvgl/src/misc/lv_area.c ****             y = -lv_area_get_height(to_align);
 2186              		.loc 1 366 13 is_stmt 1 view .LVU675
 367:../../Middlewares/LVGL/GUI/lvgl/src/misc/lv_area.c ****             break;
 2187              		.loc 1 367 13 view .LVU676
 367:../../Middlewares/LVGL/GUI/lvgl/src/misc/lv_area.c ****             break;
 2188              		.loc 1 367 18 is_stmt 0 view .LVU677
 2189 029a 0846     		mov	r0, r1
 2190              	.LVL255:
 367:../../Middlewares/LVGL/GUI/lvgl/src/misc/lv_area.c ****             break;
 2191              		.loc 1 367 18 view .LVU678
 2192 029c FFF7FEFF 		bl	lv_area_get_height
 2193              	.LVL256:
 367:../../Middlewares/LVGL/GUI/lvgl/src/misc/lv_area.c ****             break;
 2194              		.loc 1 367 15 discriminator 1 view .LVU679
 2195 02a0 4042     		rsbs	r0, r0, #0
 2196              	.LVL257:
 368:../../Middlewares/LVGL/GUI/lvgl/src/misc/lv_area.c **** 
 2197              		.loc 1 368 13 is_stmt 1 view .LVU680
 366:../../Middlewares/LVGL/GUI/lvgl/src/misc/lv_area.c ****             y = -lv_area_get_height(to_align);
ARM GAS  C:\Users\28576\AppData\Local\Temp\ccYc01Pv.s 			page 61


 2198              		.loc 1 366 15 is_stmt 0 view .LVU681
 2199 02a2 0026     		movs	r6, #0
 368:../../Middlewares/LVGL/GUI/lvgl/src/misc/lv_area.c **** 
 2200              		.loc 1 368 13 view .LVU682
 2201 02a4 0EE7     		b	.L89
 2202              	.LVL258:
 2203              	.L138:
 371:../../Middlewares/LVGL/GUI/lvgl/src/misc/lv_area.c ****             y = -lv_area_get_height(to_align);
 2204              		.loc 1 371 41 discriminator 1 view .LVU683
 2205 02a6 0130     		adds	r0, r0, #1
 2206 02a8 2FE7     		b	.L121
 2207              	.L139:
 371:../../Middlewares/LVGL/GUI/lvgl/src/misc/lv_area.c ****             y = -lv_area_get_height(to_align);
 2208              		.loc 1 371 75 discriminator 2 view .LVU684
 2209 02aa 0130     		adds	r0, r0, #1
 2210 02ac 34E7     		b	.L122
 2211              	.LVL259:
 2212              	.L81:
 376:../../Middlewares/LVGL/GUI/lvgl/src/misc/lv_area.c ****             y = -lv_area_get_height(to_align);
 2213              		.loc 1 376 13 is_stmt 1 view .LVU685
 376:../../Middlewares/LVGL/GUI/lvgl/src/misc/lv_area.c ****             y = -lv_area_get_height(to_align);
 2214              		.loc 1 376 17 is_stmt 0 view .LVU686
 2215 02ae FFF7FEFF 		bl	lv_area_get_width
 2216              	.LVL260:
 376:../../Middlewares/LVGL/GUI/lvgl/src/misc/lv_area.c ****             y = -lv_area_get_height(to_align);
 2217              		.loc 1 376 17 view .LVU687
 2218 02b2 0646     		mov	r6, r0
 376:../../Middlewares/LVGL/GUI/lvgl/src/misc/lv_area.c ****             y = -lv_area_get_height(to_align);
 2219              		.loc 1 376 43 discriminator 1 view .LVU688
 2220 02b4 2846     		mov	r0, r5
 2221 02b6 FFF7FEFF 		bl	lv_area_get_width
 2222              	.LVL261:
 376:../../Middlewares/LVGL/GUI/lvgl/src/misc/lv_area.c ****             y = -lv_area_get_height(to_align);
 2223              		.loc 1 376 15 discriminator 2 view .LVU689
 2224 02ba 361A     		subs	r6, r6, r0
 2225              	.LVL262:
 377:../../Middlewares/LVGL/GUI/lvgl/src/misc/lv_area.c ****             break;
 2226              		.loc 1 377 13 is_stmt 1 view .LVU690
 377:../../Middlewares/LVGL/GUI/lvgl/src/misc/lv_area.c ****             break;
 2227              		.loc 1 377 18 is_stmt 0 view .LVU691
 2228 02bc 2846     		mov	r0, r5
 2229 02be FFF7FEFF 		bl	lv_area_get_height
 2230              	.LVL263:
 377:../../Middlewares/LVGL/GUI/lvgl/src/misc/lv_area.c ****             break;
 2231              		.loc 1 377 15 discriminator 1 view .LVU692
 2232 02c2 4042     		rsbs	r0, r0, #0
 2233              	.LVL264:
 378:../../Middlewares/LVGL/GUI/lvgl/src/misc/lv_area.c **** 
 2234              		.loc 1 378 13 is_stmt 1 view .LVU693
 2235 02c4 FEE6     		b	.L89
 2236              	.LVL265:
 2237              	.L101:
 381:../../Middlewares/LVGL/GUI/lvgl/src/misc/lv_area.c ****             y = lv_area_get_height(base);
 2238              		.loc 1 381 13 view .LVU694
 382:../../Middlewares/LVGL/GUI/lvgl/src/misc/lv_area.c ****             break;
 2239              		.loc 1 382 13 view .LVU695
 382:../../Middlewares/LVGL/GUI/lvgl/src/misc/lv_area.c ****             break;
ARM GAS  C:\Users\28576\AppData\Local\Temp\ccYc01Pv.s 			page 62


 2240              		.loc 1 382 17 is_stmt 0 view .LVU696
 2241 02c6 FFF7FEFF 		bl	lv_area_get_height
 2242              	.LVL266:
 383:../../Middlewares/LVGL/GUI/lvgl/src/misc/lv_area.c **** 
 2243              		.loc 1 383 13 is_stmt 1 view .LVU697
 381:../../Middlewares/LVGL/GUI/lvgl/src/misc/lv_area.c ****             y = lv_area_get_height(base);
 2244              		.loc 1 381 15 is_stmt 0 view .LVU698
 2245 02ca 0026     		movs	r6, #0
 383:../../Middlewares/LVGL/GUI/lvgl/src/misc/lv_area.c **** 
 2246              		.loc 1 383 13 view .LVU699
 2247 02cc FAE6     		b	.L89
 2248              	.LVL267:
 2249              	.L141:
 386:../../Middlewares/LVGL/GUI/lvgl/src/misc/lv_area.c ****             y = lv_area_get_height(base);
 2250              		.loc 1 386 41 discriminator 1 view .LVU700
 2251 02ce 0130     		adds	r0, r0, #1
 2252 02d0 3EE7     		b	.L123
 2253              	.L142:
 386:../../Middlewares/LVGL/GUI/lvgl/src/misc/lv_area.c ****             y = lv_area_get_height(base);
 2254              		.loc 1 386 75 discriminator 2 view .LVU701
 2255 02d2 0130     		adds	r0, r0, #1
 2256 02d4 43E7     		b	.L124
 2257              	.LVL268:
 2258              	.L99:
 391:../../Middlewares/LVGL/GUI/lvgl/src/misc/lv_area.c ****             y = lv_area_get_height(base);
 2259              		.loc 1 391 13 is_stmt 1 view .LVU702
 391:../../Middlewares/LVGL/GUI/lvgl/src/misc/lv_area.c ****             y = lv_area_get_height(base);
 2260              		.loc 1 391 17 is_stmt 0 view .LVU703
 2261 02d6 FFF7FEFF 		bl	lv_area_get_width
 2262              	.LVL269:
 391:../../Middlewares/LVGL/GUI/lvgl/src/misc/lv_area.c ****             y = lv_area_get_height(base);
 2263              		.loc 1 391 17 view .LVU704
 2264 02da 0646     		mov	r6, r0
 391:../../Middlewares/LVGL/GUI/lvgl/src/misc/lv_area.c ****             y = lv_area_get_height(base);
 2265              		.loc 1 391 43 discriminator 1 view .LVU705
 2266 02dc 2846     		mov	r0, r5
 2267 02de FFF7FEFF 		bl	lv_area_get_width
 2268              	.LVL270:
 391:../../Middlewares/LVGL/GUI/lvgl/src/misc/lv_area.c ****             y = lv_area_get_height(base);
 2269              		.loc 1 391 15 discriminator 2 view .LVU706
 2270 02e2 361A     		subs	r6, r6, r0
 2271              	.LVL271:
 392:../../Middlewares/LVGL/GUI/lvgl/src/misc/lv_area.c ****             break;
 2272              		.loc 1 392 13 is_stmt 1 view .LVU707
 392:../../Middlewares/LVGL/GUI/lvgl/src/misc/lv_area.c ****             break;
 2273              		.loc 1 392 17 is_stmt 0 view .LVU708
 2274 02e4 2046     		mov	r0, r4
 2275 02e6 FFF7FEFF 		bl	lv_area_get_height
 2276              	.LVL272:
 393:../../Middlewares/LVGL/GUI/lvgl/src/misc/lv_area.c **** 
 2277              		.loc 1 393 13 is_stmt 1 view .LVU709
 2278 02ea EBE6     		b	.L89
 2279              	.LVL273:
 2280              	.L97:
 401:../../Middlewares/LVGL/GUI/lvgl/src/misc/lv_area.c ****             y = lv_area_get_height(base) / 2 - lv_area_get_height(to_align) / 2;
 2281              		.loc 1 401 13 view .LVU710
 401:../../Middlewares/LVGL/GUI/lvgl/src/misc/lv_area.c ****             y = lv_area_get_height(base) / 2 - lv_area_get_height(to_align) / 2;
ARM GAS  C:\Users\28576\AppData\Local\Temp\ccYc01Pv.s 			page 63


 2282              		.loc 1 401 18 is_stmt 0 view .LVU711
 2283 02ec 0846     		mov	r0, r1
 2284              	.LVL274:
 401:../../Middlewares/LVGL/GUI/lvgl/src/misc/lv_area.c ****             y = lv_area_get_height(base) / 2 - lv_area_get_height(to_align) / 2;
 2285              		.loc 1 401 18 view .LVU712
 2286 02ee FFF7FEFF 		bl	lv_area_get_width
 2287              	.LVL275:
 401:../../Middlewares/LVGL/GUI/lvgl/src/misc/lv_area.c ****             y = lv_area_get_height(base) / 2 - lv_area_get_height(to_align) / 2;
 2288              		.loc 1 401 15 discriminator 1 view .LVU713
 2289 02f2 4642     		rsbs	r6, r0, #0
 2290              	.LVL276:
 402:../../Middlewares/LVGL/GUI/lvgl/src/misc/lv_area.c ****             break;
 2291              		.loc 1 402 13 is_stmt 1 view .LVU714
 402:../../Middlewares/LVGL/GUI/lvgl/src/misc/lv_area.c ****             break;
 2292              		.loc 1 402 17 is_stmt 0 view .LVU715
 2293 02f4 2046     		mov	r0, r4
 2294 02f6 FFF7FEFF 		bl	lv_area_get_height
 2295              	.LVL277:
 402:../../Middlewares/LVGL/GUI/lvgl/src/misc/lv_area.c ****             break;
 2296              		.loc 1 402 42 discriminator 1 view .LVU716
 2297 02fa 0028     		cmp	r0, #0
 2298 02fc 09DB     		blt	.L154
 2299              	.L125:
 2300 02fe 4310     		asrs	r3, r0, #1
 2301 0300 1F46     		mov	r7, r3
 402:../../Middlewares/LVGL/GUI/lvgl/src/misc/lv_area.c ****             break;
 2302              		.loc 1 402 48 discriminator 1 view .LVU717
 2303 0302 2846     		mov	r0, r5
 2304 0304 FFF7FEFF 		bl	lv_area_get_height
 2305              	.LVL278:
 402:../../Middlewares/LVGL/GUI/lvgl/src/misc/lv_area.c ****             break;
 2306              		.loc 1 402 77 discriminator 2 view .LVU718
 2307 0308 0028     		cmp	r0, #0
 2308 030a 04DB     		blt	.L155
 2309              	.L126:
 402:../../Middlewares/LVGL/GUI/lvgl/src/misc/lv_area.c ****             break;
 2310              		.loc 1 402 15 discriminator 2 view .LVU719
 2311 030c A7EB6000 		sub	r0, r7, r0, asr #1
 2312              	.LVL279:
 403:../../Middlewares/LVGL/GUI/lvgl/src/misc/lv_area.c **** 
 2313              		.loc 1 403 13 is_stmt 1 view .LVU720
 2314 0310 D8E6     		b	.L89
 2315              	.LVL280:
 2316              	.L154:
 402:../../Middlewares/LVGL/GUI/lvgl/src/misc/lv_area.c ****             break;
 2317              		.loc 1 402 42 is_stmt 0 discriminator 1 view .LVU721
 2318 0312 0130     		adds	r0, r0, #1
 2319 0314 F3E7     		b	.L125
 2320              	.L155:
 402:../../Middlewares/LVGL/GUI/lvgl/src/misc/lv_area.c ****             break;
 2321              		.loc 1 402 77 discriminator 2 view .LVU722
 2322 0316 0130     		adds	r0, r0, #1
 2323 0318 F8E7     		b	.L126
 2324              	.LVL281:
 2325              	.L106:
 406:../../Middlewares/LVGL/GUI/lvgl/src/misc/lv_area.c ****             y = lv_area_get_height(base) - lv_area_get_height(to_align);
 2326              		.loc 1 406 13 is_stmt 1 view .LVU723
ARM GAS  C:\Users\28576\AppData\Local\Temp\ccYc01Pv.s 			page 64


 406:../../Middlewares/LVGL/GUI/lvgl/src/misc/lv_area.c ****             y = lv_area_get_height(base) - lv_area_get_height(to_align);
 2327              		.loc 1 406 18 is_stmt 0 view .LVU724
 2328 031a 0846     		mov	r0, r1
 2329              	.LVL282:
 406:../../Middlewares/LVGL/GUI/lvgl/src/misc/lv_area.c ****             y = lv_area_get_height(base) - lv_area_get_height(to_align);
 2330              		.loc 1 406 18 view .LVU725
 2331 031c FFF7FEFF 		bl	lv_area_get_width
 2332              	.LVL283:
 406:../../Middlewares/LVGL/GUI/lvgl/src/misc/lv_area.c ****             y = lv_area_get_height(base) - lv_area_get_height(to_align);
 2333              		.loc 1 406 15 discriminator 1 view .LVU726
 2334 0320 4642     		rsbs	r6, r0, #0
 2335              	.LVL284:
 407:../../Middlewares/LVGL/GUI/lvgl/src/misc/lv_area.c ****             break;
 2336              		.loc 1 407 13 is_stmt 1 view .LVU727
 407:../../Middlewares/LVGL/GUI/lvgl/src/misc/lv_area.c ****             break;
 2337              		.loc 1 407 17 is_stmt 0 view .LVU728
 2338 0322 2046     		mov	r0, r4
 2339 0324 FFF7FEFF 		bl	lv_area_get_height
 2340              	.LVL285:
 2341 0328 0746     		mov	r7, r0
 407:../../Middlewares/LVGL/GUI/lvgl/src/misc/lv_area.c ****             break;
 2342              		.loc 1 407 44 discriminator 1 view .LVU729
 2343 032a 2846     		mov	r0, r5
 2344 032c FFF7FEFF 		bl	lv_area_get_height
 2345              	.LVL286:
 407:../../Middlewares/LVGL/GUI/lvgl/src/misc/lv_area.c ****             break;
 2346              		.loc 1 407 15 discriminator 2 view .LVU730
 2347 0330 381A     		subs	r0, r7, r0
 2348              	.LVL287:
 408:../../Middlewares/LVGL/GUI/lvgl/src/misc/lv_area.c **** 
 2349              		.loc 1 408 13 is_stmt 1 view .LVU731
 2350 0332 C7E6     		b	.L89
 2351              	.LVL288:
 2352              	.L104:
 416:../../Middlewares/LVGL/GUI/lvgl/src/misc/lv_area.c ****             y = lv_area_get_height(base) / 2 - lv_area_get_height(to_align) / 2;
 2353              		.loc 1 416 13 view .LVU732
 416:../../Middlewares/LVGL/GUI/lvgl/src/misc/lv_area.c ****             y = lv_area_get_height(base) / 2 - lv_area_get_height(to_align) / 2;
 2354              		.loc 1 416 17 is_stmt 0 view .LVU733
 2355 0334 FFF7FEFF 		bl	lv_area_get_width
 2356              	.LVL289:
 416:../../Middlewares/LVGL/GUI/lvgl/src/misc/lv_area.c ****             y = lv_area_get_height(base) / 2 - lv_area_get_height(to_align) / 2;
 2357              		.loc 1 416 17 view .LVU734
 2358 0338 0646     		mov	r6, r0
 2359              	.LVL290:
 417:../../Middlewares/LVGL/GUI/lvgl/src/misc/lv_area.c ****             break;
 2360              		.loc 1 417 13 is_stmt 1 view .LVU735
 417:../../Middlewares/LVGL/GUI/lvgl/src/misc/lv_area.c ****             break;
 2361              		.loc 1 417 17 is_stmt 0 view .LVU736
 2362 033a 2046     		mov	r0, r4
 2363              	.LVL291:
 417:../../Middlewares/LVGL/GUI/lvgl/src/misc/lv_area.c ****             break;
 2364              		.loc 1 417 17 view .LVU737
 2365 033c FFF7FEFF 		bl	lv_area_get_height
 2366              	.LVL292:
 417:../../Middlewares/LVGL/GUI/lvgl/src/misc/lv_area.c ****             break;
 2367              		.loc 1 417 42 discriminator 1 view .LVU738
 2368 0340 0028     		cmp	r0, #0
ARM GAS  C:\Users\28576\AppData\Local\Temp\ccYc01Pv.s 			page 65


 2369 0342 09DB     		blt	.L156
 2370              	.L127:
 2371 0344 4310     		asrs	r3, r0, #1
 2372 0346 1F46     		mov	r7, r3
 417:../../Middlewares/LVGL/GUI/lvgl/src/misc/lv_area.c ****             break;
 2373              		.loc 1 417 48 discriminator 1 view .LVU739
 2374 0348 2846     		mov	r0, r5
 2375 034a FFF7FEFF 		bl	lv_area_get_height
 2376              	.LVL293:
 417:../../Middlewares/LVGL/GUI/lvgl/src/misc/lv_area.c ****             break;
 2377              		.loc 1 417 77 discriminator 2 view .LVU740
 2378 034e 0028     		cmp	r0, #0
 2379 0350 04DB     		blt	.L157
 2380              	.L128:
 417:../../Middlewares/LVGL/GUI/lvgl/src/misc/lv_area.c ****             break;
 2381              		.loc 1 417 15 discriminator 2 view .LVU741
 2382 0352 A7EB6000 		sub	r0, r7, r0, asr #1
 2383              	.LVL294:
 418:../../Middlewares/LVGL/GUI/lvgl/src/misc/lv_area.c **** 
 2384              		.loc 1 418 13 is_stmt 1 view .LVU742
 2385 0356 B5E6     		b	.L89
 2386              	.LVL295:
 2387              	.L156:
 417:../../Middlewares/LVGL/GUI/lvgl/src/misc/lv_area.c ****             break;
 2388              		.loc 1 417 42 is_stmt 0 discriminator 1 view .LVU743
 2389 0358 0130     		adds	r0, r0, #1
 2390 035a F3E7     		b	.L127
 2391              	.L157:
 417:../../Middlewares/LVGL/GUI/lvgl/src/misc/lv_area.c ****             break;
 2392              		.loc 1 417 77 discriminator 2 view .LVU744
 2393 035c 0130     		adds	r0, r0, #1
 2394 035e F8E7     		b	.L128
 2395              		.cfi_endproc
 2396              	.LFE202:
 2398              		.section	.text.lv_point_from_precise,"ax",%progbits
 2399              		.align	1
 2400              		.global	lv_point_from_precise
 2401              		.syntax unified
 2402              		.thumb
 2403              		.thumb_func
 2405              	lv_point_from_precise:
 2406              	.LVL296:
 2407              	.LFB207:
 523:../../Middlewares/LVGL/GUI/lvgl/src/misc/lv_area.c ****     lv_point_t point = {
 2408              		.loc 1 523 1 is_stmt 1 view -0
 2409              		.cfi_startproc
 2410              		@ args = 0, pretend = 0, frame = 0
 2411              		@ frame_needed = 0, uses_anonymous_args = 0
 2412              		@ link register save eliminated.
 524:../../Middlewares/LVGL/GUI/lvgl/src/misc/lv_area.c ****         (int32_t)p->x, (int32_t)p->y
 2413              		.loc 1 524 5 view .LVU746
 525:../../Middlewares/LVGL/GUI/lvgl/src/misc/lv_area.c ****     };
 2414              		.loc 1 525 19 is_stmt 0 view .LVU747
 2415 0000 0A68     		ldr	r2, [r1]
 524:../../Middlewares/LVGL/GUI/lvgl/src/misc/lv_area.c ****         (int32_t)p->x, (int32_t)p->y
 2416              		.loc 1 524 16 view .LVU748
 2417 0002 0260     		str	r2, [r0]
ARM GAS  C:\Users\28576\AppData\Local\Temp\ccYc01Pv.s 			page 66


 525:../../Middlewares/LVGL/GUI/lvgl/src/misc/lv_area.c ****     };
 2418              		.loc 1 525 34 view .LVU749
 2419 0004 4A68     		ldr	r2, [r1, #4]
 524:../../Middlewares/LVGL/GUI/lvgl/src/misc/lv_area.c ****         (int32_t)p->x, (int32_t)p->y
 2420              		.loc 1 524 16 view .LVU750
 2421 0006 4260     		str	r2, [r0, #4]
 528:../../Middlewares/LVGL/GUI/lvgl/src/misc/lv_area.c **** }
 2422              		.loc 1 528 5 is_stmt 1 view .LVU751
 529:../../Middlewares/LVGL/GUI/lvgl/src/misc/lv_area.c **** 
 2423              		.loc 1 529 1 is_stmt 0 view .LVU752
 2424 0008 7047     		bx	lr
 2425              		.cfi_endproc
 2426              	.LFE207:
 2428              		.section	.text.lv_point_to_precise,"ax",%progbits
 2429              		.align	1
 2430              		.global	lv_point_to_precise
 2431              		.syntax unified
 2432              		.thumb
 2433              		.thumb_func
 2435              	lv_point_to_precise:
 2436              	.LVL297:
 2437              	.LFB208:
 532:../../Middlewares/LVGL/GUI/lvgl/src/misc/lv_area.c ****     lv_point_precise_t point = {
 2438              		.loc 1 532 1 is_stmt 1 view -0
 2439              		.cfi_startproc
 2440              		@ args = 0, pretend = 0, frame = 0
 2441              		@ frame_needed = 0, uses_anonymous_args = 0
 2442              		@ link register save eliminated.
 533:../../Middlewares/LVGL/GUI/lvgl/src/misc/lv_area.c ****         (lv_value_precise_t)p->x, (lv_value_precise_t)p->y
 2443              		.loc 1 533 5 view .LVU754
 534:../../Middlewares/LVGL/GUI/lvgl/src/misc/lv_area.c ****     };
 2444              		.loc 1 534 30 is_stmt 0 view .LVU755
 2445 0000 0A68     		ldr	r2, [r1]
 533:../../Middlewares/LVGL/GUI/lvgl/src/misc/lv_area.c ****         (lv_value_precise_t)p->x, (lv_value_precise_t)p->y
 2446              		.loc 1 533 24 view .LVU756
 2447 0002 0260     		str	r2, [r0]
 534:../../Middlewares/LVGL/GUI/lvgl/src/misc/lv_area.c ****     };
 2448              		.loc 1 534 56 view .LVU757
 2449 0004 4A68     		ldr	r2, [r1, #4]
 533:../../Middlewares/LVGL/GUI/lvgl/src/misc/lv_area.c ****         (lv_value_precise_t)p->x, (lv_value_precise_t)p->y
 2450              		.loc 1 533 24 view .LVU758
 2451 0006 4260     		str	r2, [r0, #4]
 537:../../Middlewares/LVGL/GUI/lvgl/src/misc/lv_area.c **** }
 2452              		.loc 1 537 5 is_stmt 1 view .LVU759
 538:../../Middlewares/LVGL/GUI/lvgl/src/misc/lv_area.c **** 
 2453              		.loc 1 538 1 is_stmt 0 view .LVU760
 2454 0008 7047     		bx	lr
 2455              		.cfi_endproc
 2456              	.LFE208:
 2458              		.section	.text.lv_point_set,"ax",%progbits
 2459              		.align	1
 2460              		.global	lv_point_set
 2461              		.syntax unified
 2462              		.thumb
 2463              		.thumb_func
 2465              	lv_point_set:
 2466              	.LVL298:
ARM GAS  C:\Users\28576\AppData\Local\Temp\ccYc01Pv.s 			page 67


 2467              	.LFB209:
 541:../../Middlewares/LVGL/GUI/lvgl/src/misc/lv_area.c ****     p->x = x;
 2468              		.loc 1 541 1 is_stmt 1 view -0
 2469              		.cfi_startproc
 2470              		@ args = 0, pretend = 0, frame = 0
 2471              		@ frame_needed = 0, uses_anonymous_args = 0
 2472              		@ link register save eliminated.
 542:../../Middlewares/LVGL/GUI/lvgl/src/misc/lv_area.c ****     p->y = y;
 2473              		.loc 1 542 5 view .LVU762
 542:../../Middlewares/LVGL/GUI/lvgl/src/misc/lv_area.c ****     p->y = y;
 2474              		.loc 1 542 10 is_stmt 0 view .LVU763
 2475 0000 0160     		str	r1, [r0]
 543:../../Middlewares/LVGL/GUI/lvgl/src/misc/lv_area.c **** }
 2476              		.loc 1 543 5 is_stmt 1 view .LVU764
 543:../../Middlewares/LVGL/GUI/lvgl/src/misc/lv_area.c **** }
 2477              		.loc 1 543 10 is_stmt 0 view .LVU765
 2478 0002 4260     		str	r2, [r0, #4]
 544:../../Middlewares/LVGL/GUI/lvgl/src/misc/lv_area.c **** 
 2479              		.loc 1 544 1 view .LVU766
 2480 0004 7047     		bx	lr
 2481              		.cfi_endproc
 2482              	.LFE209:
 2484              		.section	.text.lv_area_is_in,"ax",%progbits
 2485              		.align	1
 2486              		.global	lv_area_is_in
 2487              		.syntax unified
 2488              		.thumb
 2489              		.thumb_func
 2491              	lv_area_is_in:
 2492              	.LVL299:
 2493              	.LFB199:
 255:../../Middlewares/LVGL/GUI/lvgl/src/misc/lv_area.c ****     bool is_in = false;
 2494              		.loc 1 255 1 is_stmt 1 view -0
 2495              		.cfi_startproc
 2496              		@ args = 0, pretend = 0, frame = 8
 2497              		@ frame_needed = 0, uses_anonymous_args = 0
 255:../../Middlewares/LVGL/GUI/lvgl/src/misc/lv_area.c ****     bool is_in = false;
 2498              		.loc 1 255 1 is_stmt 0 view .LVU768
 2499 0000 70B5     		push	{r4, r5, r6, lr}
 2500              	.LCFI16:
 2501              		.cfi_def_cfa_offset 16
 2502              		.cfi_offset 4, -16
 2503              		.cfi_offset 5, -12
 2504              		.cfi_offset 6, -8
 2505              		.cfi_offset 14, -4
 2506 0002 82B0     		sub	sp, sp, #8
 2507              	.LCFI17:
 2508              		.cfi_def_cfa_offset 24
 2509 0004 0C46     		mov	r4, r1
 256:../../Middlewares/LVGL/GUI/lvgl/src/misc/lv_area.c **** 
 2510              		.loc 1 256 5 is_stmt 1 view .LVU769
 2511              	.LVL300:
 258:../../Middlewares/LVGL/GUI/lvgl/src/misc/lv_area.c ****        ain_p->y2 <= aholder_p->y2) {
 2512              		.loc 1 258 5 view .LVU770
 258:../../Middlewares/LVGL/GUI/lvgl/src/misc/lv_area.c ****        ain_p->y2 <= aholder_p->y2) {
 2513              		.loc 1 258 13 is_stmt 0 view .LVU771
 2514 0006 0168     		ldr	r1, [r0]
ARM GAS  C:\Users\28576\AppData\Local\Temp\ccYc01Pv.s 			page 68


 2515              	.LVL301:
 258:../../Middlewares/LVGL/GUI/lvgl/src/misc/lv_area.c ****        ain_p->y2 <= aholder_p->y2) {
 2516              		.loc 1 258 30 view .LVU772
 2517 0008 2368     		ldr	r3, [r4]
 258:../../Middlewares/LVGL/GUI/lvgl/src/misc/lv_area.c ****        ain_p->y2 <= aholder_p->y2) {
 2518              		.loc 1 258 7 view .LVU773
 2519 000a 9942     		cmp	r1, r3
 2520 000c 3ADB     		blt	.L163
 2521 000e 0546     		mov	r5, r0
 2522 0010 1646     		mov	r6, r2
 258:../../Middlewares/LVGL/GUI/lvgl/src/misc/lv_area.c ****        ain_p->y2 <= aholder_p->y2) {
 2523              		.loc 1 258 43 discriminator 1 view .LVU774
 2524 0012 4268     		ldr	r2, [r0, #4]
 2525              	.LVL302:
 258:../../Middlewares/LVGL/GUI/lvgl/src/misc/lv_area.c ****        ain_p->y2 <= aholder_p->y2) {
 2526              		.loc 1 258 60 discriminator 1 view .LVU775
 2527 0014 6368     		ldr	r3, [r4, #4]
 258:../../Middlewares/LVGL/GUI/lvgl/src/misc/lv_area.c ****        ain_p->y2 <= aholder_p->y2) {
 2528              		.loc 1 258 35 discriminator 1 view .LVU776
 2529 0016 9A42     		cmp	r2, r3
 2530 0018 37DB     		blt	.L164
 258:../../Middlewares/LVGL/GUI/lvgl/src/misc/lv_area.c ****        ain_p->y2 <= aholder_p->y2) {
 2531              		.loc 1 258 73 discriminator 2 view .LVU777
 2532 001a 8068     		ldr	r0, [r0, #8]
 2533              	.LVL303:
 258:../../Middlewares/LVGL/GUI/lvgl/src/misc/lv_area.c ****        ain_p->y2 <= aholder_p->y2) {
 2534              		.loc 1 258 90 discriminator 2 view .LVU778
 2535 001c A368     		ldr	r3, [r4, #8]
 258:../../Middlewares/LVGL/GUI/lvgl/src/misc/lv_area.c ****        ain_p->y2 <= aholder_p->y2) {
 2536              		.loc 1 258 65 discriminator 2 view .LVU779
 2537 001e 9842     		cmp	r0, r3
 2538 0020 35DC     		bgt	.L165
 259:../../Middlewares/LVGL/GUI/lvgl/src/misc/lv_area.c ****         is_in = true;
 2539              		.loc 1 259 13 view .LVU780
 2540 0022 E868     		ldr	r0, [r5, #12]
 259:../../Middlewares/LVGL/GUI/lvgl/src/misc/lv_area.c ****         is_in = true;
 2541              		.loc 1 259 30 view .LVU781
 2542 0024 E368     		ldr	r3, [r4, #12]
 258:../../Middlewares/LVGL/GUI/lvgl/src/misc/lv_area.c ****        ain_p->y2 <= aholder_p->y2) {
 2543              		.loc 1 258 95 discriminator 3 view .LVU782
 2544 0026 9842     		cmp	r0, r3
 2545 0028 33DC     		bgt	.L166
 260:../../Middlewares/LVGL/GUI/lvgl/src/misc/lv_area.c ****     }
 2546              		.loc 1 260 9 is_stmt 1 view .LVU783
 2547              	.LVL304:
 263:../../Middlewares/LVGL/GUI/lvgl/src/misc/lv_area.c ****     if(radius == 0) return true;
 2548              		.loc 1 263 5 view .LVU784
 264:../../Middlewares/LVGL/GUI/lvgl/src/misc/lv_area.c **** 
 2549              		.loc 1 264 5 view .LVU785
 264:../../Middlewares/LVGL/GUI/lvgl/src/misc/lv_area.c **** 
 2550              		.loc 1 264 7 is_stmt 0 view .LVU786
 2551 002a 0EB9     		cbnz	r6, .L169
 264:../../Middlewares/LVGL/GUI/lvgl/src/misc/lv_area.c **** 
 2552              		.loc 1 264 28 discriminator 1 view .LVU787
 2553 002c 0120     		movs	r0, #1
 2554 002e 2AE0     		b	.L162
 2555              	.L169:
ARM GAS  C:\Users\28576\AppData\Local\Temp\ccYc01Pv.s 			page 69


 267:../../Middlewares/LVGL/GUI/lvgl/src/misc/lv_area.c **** 
 2556              		.loc 1 267 5 is_stmt 1 view .LVU788
 269:../../Middlewares/LVGL/GUI/lvgl/src/misc/lv_area.c ****     if(lv_area_is_point_on(aholder_p, &p, radius) == false) return false;
 2557              		.loc 1 269 5 view .LVU789
 2558 0030 6846     		mov	r0, sp
 2559 0032 FFF7FEFF 		bl	lv_point_set
 2560              	.LVL305:
 270:../../Middlewares/LVGL/GUI/lvgl/src/misc/lv_area.c **** 
 2561              		.loc 1 270 5 view .LVU790
 270:../../Middlewares/LVGL/GUI/lvgl/src/misc/lv_area.c **** 
 2562              		.loc 1 270 8 is_stmt 0 view .LVU791
 2563 0036 3246     		mov	r2, r6
 2564 0038 6946     		mov	r1, sp
 2565 003a 2046     		mov	r0, r4
 2566 003c FFF7FEFF 		bl	lv_area_is_point_on
 2567              	.LVL306:
 270:../../Middlewares/LVGL/GUI/lvgl/src/misc/lv_area.c **** 
 2568              		.loc 1 270 7 discriminator 1 view .LVU792
 2569 0040 08B3     		cbz	r0, .L162
 272:../../Middlewares/LVGL/GUI/lvgl/src/misc/lv_area.c ****     if(lv_area_is_point_on(aholder_p, &p, radius) == false) return false;
 2570              		.loc 1 272 5 is_stmt 1 view .LVU793
 2571 0042 6A68     		ldr	r2, [r5, #4]
 2572 0044 A968     		ldr	r1, [r5, #8]
 2573 0046 6846     		mov	r0, sp
 2574 0048 FFF7FEFF 		bl	lv_point_set
 2575              	.LVL307:
 273:../../Middlewares/LVGL/GUI/lvgl/src/misc/lv_area.c **** 
 2576              		.loc 1 273 5 view .LVU794
 273:../../Middlewares/LVGL/GUI/lvgl/src/misc/lv_area.c **** 
 2577              		.loc 1 273 8 is_stmt 0 view .LVU795
 2578 004c 3246     		mov	r2, r6
 2579 004e 6946     		mov	r1, sp
 2580 0050 2046     		mov	r0, r4
 2581 0052 FFF7FEFF 		bl	lv_area_is_point_on
 2582              	.LVL308:
 273:../../Middlewares/LVGL/GUI/lvgl/src/misc/lv_area.c **** 
 2583              		.loc 1 273 7 discriminator 1 view .LVU796
 2584 0056 B0B1     		cbz	r0, .L162
 275:../../Middlewares/LVGL/GUI/lvgl/src/misc/lv_area.c ****     if(lv_area_is_point_on(aholder_p, &p, radius) == false) return false;
 2585              		.loc 1 275 5 is_stmt 1 view .LVU797
 2586 0058 EA68     		ldr	r2, [r5, #12]
 2587 005a 2968     		ldr	r1, [r5]
 2588 005c 6846     		mov	r0, sp
 2589 005e FFF7FEFF 		bl	lv_point_set
 2590              	.LVL309:
 276:../../Middlewares/LVGL/GUI/lvgl/src/misc/lv_area.c **** 
 2591              		.loc 1 276 5 view .LVU798
 276:../../Middlewares/LVGL/GUI/lvgl/src/misc/lv_area.c **** 
 2592              		.loc 1 276 8 is_stmt 0 view .LVU799
 2593 0062 3246     		mov	r2, r6
 2594 0064 6946     		mov	r1, sp
 2595 0066 2046     		mov	r0, r4
 2596 0068 FFF7FEFF 		bl	lv_area_is_point_on
 2597              	.LVL310:
 276:../../Middlewares/LVGL/GUI/lvgl/src/misc/lv_area.c **** 
 2598              		.loc 1 276 7 discriminator 1 view .LVU800
 2599 006c 58B1     		cbz	r0, .L162
ARM GAS  C:\Users\28576\AppData\Local\Temp\ccYc01Pv.s 			page 70


 278:../../Middlewares/LVGL/GUI/lvgl/src/misc/lv_area.c ****     if(lv_area_is_point_on(aholder_p, &p, radius) == false) return false;
 2600              		.loc 1 278 5 is_stmt 1 view .LVU801
 2601 006e EA68     		ldr	r2, [r5, #12]
 2602 0070 A968     		ldr	r1, [r5, #8]
 2603 0072 6846     		mov	r0, sp
 2604 0074 FFF7FEFF 		bl	lv_point_set
 2605              	.LVL311:
 279:../../Middlewares/LVGL/GUI/lvgl/src/misc/lv_area.c **** 
 2606              		.loc 1 279 5 view .LVU802
 279:../../Middlewares/LVGL/GUI/lvgl/src/misc/lv_area.c **** 
 2607              		.loc 1 279 8 is_stmt 0 view .LVU803
 2608 0078 3246     		mov	r2, r6
 2609 007a 6946     		mov	r1, sp
 2610 007c 2046     		mov	r0, r4
 2611 007e FFF7FEFF 		bl	lv_area_is_point_on
 2612              	.LVL312:
 2613 0082 00E0     		b	.L162
 2614              	.LVL313:
 2615              	.L163:
 263:../../Middlewares/LVGL/GUI/lvgl/src/misc/lv_area.c ****     if(radius == 0) return true;
 2616              		.loc 1 263 23 discriminator 1 view .LVU804
 2617 0084 0020     		movs	r0, #0
 2618              	.LVL314:
 2619              	.L162:
 282:../../Middlewares/LVGL/GUI/lvgl/src/misc/lv_area.c **** 
 2620              		.loc 1 282 1 view .LVU805
 2621 0086 02B0     		add	sp, sp, #8
 2622              	.LCFI18:
 2623              		.cfi_remember_state
 2624              		.cfi_def_cfa_offset 16
 2625              		@ sp needed
 2626 0088 70BD     		pop	{r4, r5, r6, pc}
 2627              	.LVL315:
 2628              	.L164:
 2629              	.LCFI19:
 2630              		.cfi_restore_state
 263:../../Middlewares/LVGL/GUI/lvgl/src/misc/lv_area.c ****     if(radius == 0) return true;
 2631              		.loc 1 263 23 discriminator 1 view .LVU806
 2632 008a 0020     		movs	r0, #0
 2633              	.LVL316:
 263:../../Middlewares/LVGL/GUI/lvgl/src/misc/lv_area.c ****     if(radius == 0) return true;
 2634              		.loc 1 263 23 discriminator 1 view .LVU807
 2635 008c FBE7     		b	.L162
 2636              	.L165:
 2637 008e 0020     		movs	r0, #0
 2638 0090 F9E7     		b	.L162
 2639              	.L166:
 2640 0092 0020     		movs	r0, #0
 2641 0094 F7E7     		b	.L162
 2642              		.cfi_endproc
 2643              	.LFE199:
 2645              		.section	.text.lv_area_diff,"ax",%progbits
 2646              		.align	1
 2647              		.global	lv_area_diff
 2648              		.syntax unified
 2649              		.thumb
 2650              		.thumb_func
ARM GAS  C:\Users\28576\AppData\Local\Temp\ccYc01Pv.s 			page 71


 2652              	lv_area_diff:
 2653              	.LVL317:
 2654              	.LFB195:
 112:../../Middlewares/LVGL/GUI/lvgl/src/misc/lv_area.c ****     /*Areas have no common parts*/
 2655              		.loc 1 112 1 is_stmt 1 view -0
 2656              		.cfi_startproc
 2657              		@ args = 0, pretend = 0, frame = 24
 2658              		@ frame_needed = 0, uses_anonymous_args = 0
 112:../../Middlewares/LVGL/GUI/lvgl/src/misc/lv_area.c ****     /*Areas have no common parts*/
 2659              		.loc 1 112 1 is_stmt 0 view .LVU809
 2660 0000 2DE9F043 		push	{r4, r5, r6, r7, r8, r9, lr}
 2661              	.LCFI20:
 2662              		.cfi_def_cfa_offset 28
 2663              		.cfi_offset 4, -28
 2664              		.cfi_offset 5, -24
 2665              		.cfi_offset 6, -20
 2666              		.cfi_offset 7, -16
 2667              		.cfi_offset 8, -12
 2668              		.cfi_offset 9, -8
 2669              		.cfi_offset 14, -4
 2670 0004 87B0     		sub	sp, sp, #28
 2671              	.LCFI21:
 2672              		.cfi_def_cfa_offset 56
 2673 0006 0646     		mov	r6, r0
 2674 0008 8046     		mov	r8, r0
 2675 000a 0C46     		mov	r4, r1
 2676 000c 1546     		mov	r5, r2
 114:../../Middlewares/LVGL/GUI/lvgl/src/misc/lv_area.c **** 
 2677              		.loc 1 114 5 is_stmt 1 view .LVU810
 114:../../Middlewares/LVGL/GUI/lvgl/src/misc/lv_area.c **** 
 2678              		.loc 1 114 9 is_stmt 0 view .LVU811
 2679 000e 1146     		mov	r1, r2
 2680              	.LVL318:
 114:../../Middlewares/LVGL/GUI/lvgl/src/misc/lv_area.c **** 
 2681              		.loc 1 114 9 view .LVU812
 2682 0010 2046     		mov	r0, r4
 2683              	.LVL319:
 114:../../Middlewares/LVGL/GUI/lvgl/src/misc/lv_area.c **** 
 2684              		.loc 1 114 9 view .LVU813
 2685 0012 FFF7FEFF 		bl	lv_area_is_on
 2686              	.LVL320:
 114:../../Middlewares/LVGL/GUI/lvgl/src/misc/lv_area.c **** 
 2687              		.loc 1 114 7 discriminator 1 view .LVU814
 2688 0016 0028     		cmp	r0, #0
 2689 0018 00F08B80 		beq	.L175
 117:../../Middlewares/LVGL/GUI/lvgl/src/misc/lv_area.c **** 
 2690              		.loc 1 117 5 is_stmt 1 view .LVU815
 117:../../Middlewares/LVGL/GUI/lvgl/src/misc/lv_area.c **** 
 2691              		.loc 1 117 8 is_stmt 0 view .LVU816
 2692 001c 0022     		movs	r2, #0
 2693 001e 2946     		mov	r1, r5
 2694 0020 2046     		mov	r0, r4
 2695 0022 FFF7FEFF 		bl	lv_area_is_in
 2696              	.LVL321:
 117:../../Middlewares/LVGL/GUI/lvgl/src/misc/lv_area.c **** 
 2697              		.loc 1 117 7 discriminator 1 view .LVU817
 2698 0026 0028     		cmp	r0, #0
ARM GAS  C:\Users\28576\AppData\Local\Temp\ccYc01Pv.s 			page 72


 2699 0028 40F08680 		bne	.L176
 120:../../Middlewares/LVGL/GUI/lvgl/src/misc/lv_area.c **** 
 2700              		.loc 1 120 5 is_stmt 1 view .LVU818
 2701              	.LVL322:
 123:../../Middlewares/LVGL/GUI/lvgl/src/misc/lv_area.c ****     int32_t a1_w = lv_area_get_width(a1_p) - 1;
 2702              		.loc 1 123 5 view .LVU819
 124:../../Middlewares/LVGL/GUI/lvgl/src/misc/lv_area.c ****     int32_t a1_h = lv_area_get_height(a1_p) - 1;
 2703              		.loc 1 124 5 view .LVU820
 124:../../Middlewares/LVGL/GUI/lvgl/src/misc/lv_area.c ****     int32_t a1_h = lv_area_get_height(a1_p) - 1;
 2704              		.loc 1 124 20 is_stmt 0 view .LVU821
 2705 002c 2046     		mov	r0, r4
 2706 002e FFF7FEFF 		bl	lv_area_get_width
 2707              	.LVL323:
 124:../../Middlewares/LVGL/GUI/lvgl/src/misc/lv_area.c ****     int32_t a1_h = lv_area_get_height(a1_p) - 1;
 2708              		.loc 1 124 13 discriminator 1 view .LVU822
 2709 0032 431E     		subs	r3, r0, #1
 2710 0034 9946     		mov	r9, r3
 2711              	.LVL324:
 125:../../Middlewares/LVGL/GUI/lvgl/src/misc/lv_area.c **** 
 2712              		.loc 1 125 5 is_stmt 1 view .LVU823
 125:../../Middlewares/LVGL/GUI/lvgl/src/misc/lv_area.c **** 
 2713              		.loc 1 125 20 is_stmt 0 view .LVU824
 2714 0036 2046     		mov	r0, r4
 2715 0038 FFF7FEFF 		bl	lv_area_get_height
 2716              	.LVL325:
 125:../../Middlewares/LVGL/GUI/lvgl/src/misc/lv_area.c **** 
 2717              		.loc 1 125 13 discriminator 1 view .LVU825
 2718 003c 00F1FF3C 		add	ip, r0, #-1
 2719              	.LVL326:
 128:../../Middlewares/LVGL/GUI/lvgl/src/misc/lv_area.c ****     if(th > 0) {
 2720              		.loc 1 128 5 is_stmt 1 view .LVU826
 128:../../Middlewares/LVGL/GUI/lvgl/src/misc/lv_area.c ****     if(th > 0) {
 2721              		.loc 1 128 22 is_stmt 0 view .LVU827
 2722 0040 6B68     		ldr	r3, [r5, #4]
 128:../../Middlewares/LVGL/GUI/lvgl/src/misc/lv_area.c ****     if(th > 0) {
 2723              		.loc 1 128 33 view .LVU828
 2724 0042 6268     		ldr	r2, [r4, #4]
 128:../../Middlewares/LVGL/GUI/lvgl/src/misc/lv_area.c ****     if(th > 0) {
 2725              		.loc 1 128 13 view .LVU829
 2726 0044 991A     		subs	r1, r3, r2
 2727              	.LVL327:
 129:../../Middlewares/LVGL/GUI/lvgl/src/misc/lv_area.c ****         n.x1 = a1_p->x1;
 2728              		.loc 1 129 5 is_stmt 1 view .LVU830
 129:../../Middlewares/LVGL/GUI/lvgl/src/misc/lv_area.c ****         n.x1 = a1_p->x1;
 2729              		.loc 1 129 7 is_stmt 0 view .LVU831
 2730 0046 0029     		cmp	r1, #0
 2731 0048 71DD     		ble	.L177
 130:../../Middlewares/LVGL/GUI/lvgl/src/misc/lv_area.c ****         n.y1 = a1_p->y1;
 2732              		.loc 1 130 9 is_stmt 1 view .LVU832
 130:../../Middlewares/LVGL/GUI/lvgl/src/misc/lv_area.c ****         n.y1 = a1_p->y1;
 2733              		.loc 1 130 20 is_stmt 0 view .LVU833
 2734 004a 2168     		ldr	r1, [r4]
 2735              	.LVL328:
 130:../../Middlewares/LVGL/GUI/lvgl/src/misc/lv_area.c ****         n.y1 = a1_p->y1;
 2736              		.loc 1 130 14 view .LVU834
 2737 004c 0291     		str	r1, [sp, #8]
 131:../../Middlewares/LVGL/GUI/lvgl/src/misc/lv_area.c ****         n.x2 = a1_p->x2;
ARM GAS  C:\Users\28576\AppData\Local\Temp\ccYc01Pv.s 			page 73


 2738              		.loc 1 131 9 is_stmt 1 view .LVU835
 131:../../Middlewares/LVGL/GUI/lvgl/src/misc/lv_area.c ****         n.x2 = a1_p->x2;
 2739              		.loc 1 131 14 is_stmt 0 view .LVU836
 2740 004e 0392     		str	r2, [sp, #12]
 132:../../Middlewares/LVGL/GUI/lvgl/src/misc/lv_area.c ****         n.y2 = a1_p->y1 + th - 1;
 2741              		.loc 1 132 9 is_stmt 1 view .LVU837
 132:../../Middlewares/LVGL/GUI/lvgl/src/misc/lv_area.c ****         n.y2 = a1_p->y1 + th - 1;
 2742              		.loc 1 132 20 is_stmt 0 view .LVU838
 2743 0050 A268     		ldr	r2, [r4, #8]
 2744              	.LVL329:
 132:../../Middlewares/LVGL/GUI/lvgl/src/misc/lv_area.c ****         n.y2 = a1_p->y1 + th - 1;
 2745              		.loc 1 132 14 view .LVU839
 2746 0052 0492     		str	r2, [sp, #16]
 133:../../Middlewares/LVGL/GUI/lvgl/src/misc/lv_area.c ****         res_p[res_c++] = n;
 2747              		.loc 1 133 9 is_stmt 1 view .LVU840
 133:../../Middlewares/LVGL/GUI/lvgl/src/misc/lv_area.c ****         res_p[res_c++] = n;
 2748              		.loc 1 133 30 is_stmt 0 view .LVU841
 2749 0054 013B     		subs	r3, r3, #1
 2750              	.LVL330:
 133:../../Middlewares/LVGL/GUI/lvgl/src/misc/lv_area.c ****         res_p[res_c++] = n;
 2751              		.loc 1 133 14 view .LVU842
 2752 0056 0593     		str	r3, [sp, #20]
 134:../../Middlewares/LVGL/GUI/lvgl/src/misc/lv_area.c ****     }
 2753              		.loc 1 134 9 is_stmt 1 view .LVU843
 2754              	.LVL331:
 134:../../Middlewares/LVGL/GUI/lvgl/src/misc/lv_area.c ****     }
 2755              		.loc 1 134 24 is_stmt 0 view .LVU844
 2756 0058 06AB     		add	r3, sp, #24
 2757 005a 13E90F00 		ldmdb	r3, {r0, r1, r2, r3}
 2758 005e 86E80F00 		stm	r6, {r0, r1, r2, r3}
 2759              	.LVL332:
 134:../../Middlewares/LVGL/GUI/lvgl/src/misc/lv_area.c ****     }
 2760              		.loc 1 134 20 view .LVU845
 2761 0062 0120     		movs	r0, #1
 2762              	.LVL333:
 2763              	.L172:
 138:../../Middlewares/LVGL/GUI/lvgl/src/misc/lv_area.c ****     if(bh > 0 && a2_p->y2 < a1_p->y2) {
 2764              		.loc 1 138 5 is_stmt 1 view .LVU846
 138:../../Middlewares/LVGL/GUI/lvgl/src/misc/lv_area.c ****     if(bh > 0 && a2_p->y2 < a1_p->y2) {
 2765              		.loc 1 138 30 is_stmt 0 view .LVU847
 2766 0064 EA68     		ldr	r2, [r5, #12]
 138:../../Middlewares/LVGL/GUI/lvgl/src/misc/lv_area.c ****     if(bh > 0 && a2_p->y2 < a1_p->y2) {
 2767              		.loc 1 138 41 view .LVU848
 2768 0066 6368     		ldr	r3, [r4, #4]
 138:../../Middlewares/LVGL/GUI/lvgl/src/misc/lv_area.c ****     if(bh > 0 && a2_p->y2 < a1_p->y2) {
 2769              		.loc 1 138 35 view .LVU849
 2770 0068 D31A     		subs	r3, r2, r3
 138:../../Middlewares/LVGL/GUI/lvgl/src/misc/lv_area.c ****     if(bh > 0 && a2_p->y2 < a1_p->y2) {
 2771              		.loc 1 138 13 view .LVU850
 2772 006a ACEB0303 		sub	r3, ip, r3
 2773              	.LVL334:
 139:../../Middlewares/LVGL/GUI/lvgl/src/misc/lv_area.c ****         n.x1 = a1_p->x1;
 2774              		.loc 1 139 5 is_stmt 1 view .LVU851
 139:../../Middlewares/LVGL/GUI/lvgl/src/misc/lv_area.c ****         n.x1 = a1_p->x1;
 2775              		.loc 1 139 7 is_stmt 0 view .LVU852
 2776 006e 002B     		cmp	r3, #0
 2777 0070 15DD     		ble	.L173
ARM GAS  C:\Users\28576\AppData\Local\Temp\ccYc01Pv.s 			page 74


 139:../../Middlewares/LVGL/GUI/lvgl/src/misc/lv_area.c ****         n.x1 = a1_p->x1;
 2778              		.loc 1 139 33 discriminator 1 view .LVU853
 2779 0072 E168     		ldr	r1, [r4, #12]
 139:../../Middlewares/LVGL/GUI/lvgl/src/misc/lv_area.c ****         n.x1 = a1_p->x1;
 2780              		.loc 1 139 15 discriminator 1 view .LVU854
 2781 0074 8A42     		cmp	r2, r1
 2782 0076 12DA     		bge	.L173
 140:../../Middlewares/LVGL/GUI/lvgl/src/misc/lv_area.c ****         n.y1 = a2_p->y2 + 1;
 2783              		.loc 1 140 9 is_stmt 1 view .LVU855
 140:../../Middlewares/LVGL/GUI/lvgl/src/misc/lv_area.c ****         n.y1 = a2_p->y2 + 1;
 2784              		.loc 1 140 20 is_stmt 0 view .LVU856
 2785 0078 2168     		ldr	r1, [r4]
 140:../../Middlewares/LVGL/GUI/lvgl/src/misc/lv_area.c ****         n.y1 = a2_p->y2 + 1;
 2786              		.loc 1 140 14 view .LVU857
 2787 007a 0291     		str	r1, [sp, #8]
 141:../../Middlewares/LVGL/GUI/lvgl/src/misc/lv_area.c ****         n.x2 = a1_p->x2;
 2788              		.loc 1 141 9 is_stmt 1 view .LVU858
 141:../../Middlewares/LVGL/GUI/lvgl/src/misc/lv_area.c ****         n.x2 = a1_p->x2;
 2789              		.loc 1 141 25 is_stmt 0 view .LVU859
 2790 007c 511C     		adds	r1, r2, #1
 141:../../Middlewares/LVGL/GUI/lvgl/src/misc/lv_area.c ****         n.x2 = a1_p->x2;
 2791              		.loc 1 141 14 view .LVU860
 2792 007e 0391     		str	r1, [sp, #12]
 142:../../Middlewares/LVGL/GUI/lvgl/src/misc/lv_area.c ****         n.y2 = a2_p->y2 + bh;
 2793              		.loc 1 142 9 is_stmt 1 view .LVU861
 142:../../Middlewares/LVGL/GUI/lvgl/src/misc/lv_area.c ****         n.y2 = a2_p->y2 + bh;
 2794              		.loc 1 142 20 is_stmt 0 view .LVU862
 2795 0080 A168     		ldr	r1, [r4, #8]
 142:../../Middlewares/LVGL/GUI/lvgl/src/misc/lv_area.c ****         n.y2 = a2_p->y2 + bh;
 2796              		.loc 1 142 14 view .LVU863
 2797 0082 0491     		str	r1, [sp, #16]
 143:../../Middlewares/LVGL/GUI/lvgl/src/misc/lv_area.c ****         res_p[res_c++] = n;
 2798              		.loc 1 143 9 is_stmt 1 view .LVU864
 143:../../Middlewares/LVGL/GUI/lvgl/src/misc/lv_area.c ****         res_p[res_c++] = n;
 2799              		.loc 1 143 25 is_stmt 0 view .LVU865
 2800 0084 1A44     		add	r2, r2, r3
 143:../../Middlewares/LVGL/GUI/lvgl/src/misc/lv_area.c ****         res_p[res_c++] = n;
 2801              		.loc 1 143 14 view .LVU866
 2802 0086 0592     		str	r2, [sp, #20]
 144:../../Middlewares/LVGL/GUI/lvgl/src/misc/lv_area.c ****     }
 2803              		.loc 1 144 9 is_stmt 1 view .LVU867
 144:../../Middlewares/LVGL/GUI/lvgl/src/misc/lv_area.c ****     }
 2804              		.loc 1 144 20 is_stmt 0 view .LVU868
 2805 0088 00F1010C 		add	ip, r0, #1
 2806              	.LVL335:
 144:../../Middlewares/LVGL/GUI/lvgl/src/misc/lv_area.c ****     }
 2807              		.loc 1 144 14 view .LVU869
 2808 008c 08EB0016 		add	r6, r8, r0, lsl #4
 2809              	.LVL336:
 144:../../Middlewares/LVGL/GUI/lvgl/src/misc/lv_area.c ****     }
 2810              		.loc 1 144 24 view .LVU870
 2811 0090 06AB     		add	r3, sp, #24
 2812              	.LVL337:
 144:../../Middlewares/LVGL/GUI/lvgl/src/misc/lv_area.c ****     }
 2813              		.loc 1 144 24 view .LVU871
 2814 0092 13E90F00 		ldmdb	r3, {r0, r1, r2, r3}
 2815 0096 86E80F00 		stm	r6, {r0, r1, r2, r3}
ARM GAS  C:\Users\28576\AppData\Local\Temp\ccYc01Pv.s 			page 75


 144:../../Middlewares/LVGL/GUI/lvgl/src/misc/lv_area.c ****     }
 2816              		.loc 1 144 20 view .LVU872
 2817 009a 4FFA8CF0 		sxtb	r0, ip
 2818              	.LVL338:
 2819              	.L173:
 148:../../Middlewares/LVGL/GUI/lvgl/src/misc/lv_area.c ****     int32_t y2 = a2_p->y2 < a1_p->y2 ? a2_p->y2 : a1_p->y2;
 2820              		.loc 1 148 5 is_stmt 1 view .LVU873
 148:../../Middlewares/LVGL/GUI/lvgl/src/misc/lv_area.c ****     int32_t y2 = a2_p->y2 < a1_p->y2 ? a2_p->y2 : a1_p->y2;
 2821              		.loc 1 148 33 is_stmt 0 view .LVU874
 2822 009e 6668     		ldr	r6, [r4, #4]
 148:../../Middlewares/LVGL/GUI/lvgl/src/misc/lv_area.c ****     int32_t y2 = a2_p->y2 < a1_p->y2 ? a2_p->y2 : a1_p->y2;
 2823              		.loc 1 148 22 view .LVU875
 2824 00a0 6B68     		ldr	r3, [r5, #4]
 148:../../Middlewares/LVGL/GUI/lvgl/src/misc/lv_area.c ****     int32_t y2 = a2_p->y2 < a1_p->y2 ? a2_p->y2 : a1_p->y2;
 2825              		.loc 1 148 13 view .LVU876
 2826 00a2 9E42     		cmp	r6, r3
 2827 00a4 B8BF     		it	lt
 2828 00a6 1E46     		movlt	r6, r3
 2829              	.LVL339:
 149:../../Middlewares/LVGL/GUI/lvgl/src/misc/lv_area.c ****     int32_t sh = y2 - y1;
 2830              		.loc 1 149 5 is_stmt 1 view .LVU877
 149:../../Middlewares/LVGL/GUI/lvgl/src/misc/lv_area.c ****     int32_t sh = y2 - y1;
 2831              		.loc 1 149 33 is_stmt 0 view .LVU878
