ARM GAS  C:\Users\28576\AppData\Local\Temp\ccwWQGxs.s 			page 1


   1              		.cpu cortex-m7
   2              		.arch armv7e-m
   3              		.fpu fpv5-d16
   4              		.eabi_attribute 28, 1
   5              		.eabi_attribute 20, 1
   6              		.eabi_attribute 21, 1
   7              		.eabi_attribute 23, 3
   8              		.eabi_attribute 24, 1
   9              		.eabi_attribute 25, 1
  10              		.eabi_attribute 26, 1
  11              		.eabi_attribute 30, 1
  12              		.eabi_attribute 34, 1
  13              		.eabi_attribute 18, 4
  14              		.file	"lv_cache_lru_rb.c"
  15              		.text
  16              	.Ltext0:
  17              		.cfi_sections	.debug_frame
  18              		.file 1 "../../Middlewares/LVGL/GUI/lvgl/src/misc/cache/class/lv_cache_lru_rb.c"
  19              		.section	.text.destroy_cb,"ax",%progbits
  20              		.align	1
  21              		.syntax unified
  22              		.thumb
  23              		.thumb_func
  25              	destroy_cb:
  26              	.LVL0:
  27              	.LFB22:
   1:../../Middlewares/LVGL/GUI/lvgl/src/misc/cache/class/lv_cache_lru_rb.c **** /**
   2:../../Middlewares/LVGL/GUI/lvgl/src/misc/cache/class/lv_cache_lru_rb.c **** * @file lv_cache_lru_rb.c
   3:../../Middlewares/LVGL/GUI/lvgl/src/misc/cache/class/lv_cache_lru_rb.c **** *
   4:../../Middlewares/LVGL/GUI/lvgl/src/misc/cache/class/lv_cache_lru_rb.c **** */
   5:../../Middlewares/LVGL/GUI/lvgl/src/misc/cache/class/lv_cache_lru_rb.c **** 
   6:../../Middlewares/LVGL/GUI/lvgl/src/misc/cache/class/lv_cache_lru_rb.c **** /***************************************************************************\
   7:../../Middlewares/LVGL/GUI/lvgl/src/misc/cache/class/lv_cache_lru_rb.c **** *                                                                           *
   8:../../Middlewares/LVGL/GUI/lvgl/src/misc/cache/class/lv_cache_lru_rb.c **** *                                             ŌöÅ Ōöü Ōöü Ōöü Ōöü Ōöü Ōöü Ōöü Ōöü Ōöü Ōöü Ōöü Ōöü Ō
   9:../../Middlewares/LVGL/GUI/lvgl/src/misc/cache/class/lv_cache_lru_rb.c **** * ŌöÅ Ōöü Ōöü Ōöü Ōöü Ōöü Ōöü Ōöü Ōöü Ōöü Ōöü Ōöü Ōöü Ōöü Ōöü Ōöü Ōöü Ōöü Ōöü Ōöü          Ōöī ŌöĆ 
  10:../../Middlewares/LVGL/GUI/lvgl/src/misc/cache/class/lv_cache_lru_rb.c **** *             Ōöī ŌöĆ ŌöĆ ŌöĆ ŌöĆ ŌöĆ ŌöĆ ŌöĆ            Ōöā    Ōöā      Cache   insert       Ōöā *
  11:../../Middlewares/LVGL/GUI/lvgl/src/misc/cache/class/lv_cache_lru_rb.c **** * Ōöā               RB Tree    Ōöé                     ŌöéHittingŌöé  head          *
  12:../../Middlewares/LVGL/GUI/lvgl/src/misc/cache/class/lv_cache_lru_rb.c **** *             Ōöö ŌöĆ ŌöĆ ŌöĆ ŌöĆ ŌöĆ ŌöĆ ŌöĆ            Ōöā    Ōöā     ŌöĆ ŌöĆ ŌöĆ ŌöĆ            
  13:../../Middlewares/LVGL/GUI/lvgl/src/misc/cache/class/lv_cache_lru_rb.c **** * Ōöā      ŌöīŌöĆŌö¼ŌöĆŌö¼ŌöĆŌö¼ŌöĆŌöÉ                                  ŌöīŌöĆŌöĆŌöĆŌöĆŌöĆŌöÉ      
  14:../../Middlewares/LVGL/GUI/lvgl/src/misc/cache/class/lv_cache_lru_rb.c **** *     ŌöīŌöĆŌöĆŌöéŌŚäŌöéBŌöéŌ¢║Ōöé ŌöéŌöĆ ŌöĆ ŌöĆ ŌöĆ ŌöĆ ŌöĆ ŌöĆ ŌöĆ ŌöĆ ŌöĆ ŌöĆ ŌöĆŌöāŌöĆ ŌöĆ ŌĢŗ
  15:../../Middlewares/LVGL/GUI/lvgl/src/misc/cache/class/lv_cache_lru_rb.c **** * Ōöā   Ōöé  ŌööŌöĆŌö┤ŌöĆŌö┤ŌöĆŌö┤ŌöĆŌöś                                  ŌööŌöĆŌöĆŌ¢▓ŌöĆŌöĆŌöś    
  16:../../Middlewares/LVGL/GUI/lvgl/src/misc/cache/class/lv_cache_lru_rb.c **** *     Ōöé       Ōöé                          Ōöā    Ōöā        Ōöé                  Ōöā *
  17:../../Middlewares/LVGL/GUI/lvgl/src/misc/cache/class/lv_cache_lru_rb.c **** * Ōöā   Ōöé       Ōöé                                     ŌöīŌöĆŌöĆŌö┤ŌöĆŌöĆŌöÉ                 *
  18:../../Middlewares/LVGL/GUI/lvgl/src/misc/cache/class/lv_cache_lru_rb.c **** *     Ōöé       ŌööŌöĆŌöĆŌöĆŌöĆŌöĆŌöĆŌöÉ                Ōöī ŌöĆŌöāŌöĆ ŌöĆ ŌĢŗ ŌöĆ ŌöĆŌ¢ČŌöé  E  Ōöé
  19:../../Middlewares/LVGL/GUI/lvgl/src/misc/cache/class/lv_cache_lru_rb.c **** * Ōöā   Ō¢╝         Ōöī ŌöĆ ŌöĆŌöéŌöĆ ŌöĆ ŌöĆ ŌöĆ ŌöĆ ŌöĆ ŌöĆ ŌöĆ ŌöĆ ŌöĆ ŌöĆ ŌöĆ ŌöĆ ŌöÉ   ŌööŌöĆŌ
  20:../../Middlewares/LVGL/GUI/lvgl/src/misc/cache/class/lv_cache_lru_rb.c **** *  ŌöīŌöĆŌö¼ŌöĆŌö¼ŌöĆŌö¼ŌöĆŌöÉ         Ō¢╝                Ōöé  Ōöā    Ōöā        Ōöé               
  21:../../Middlewares/LVGL/GUI/lvgl/src/misc/cache/class/lv_cache_lru_rb.c **** * ŌöāŌöéŌŚäŌöéAŌöéŌ¢║Ōöé ŌöéŌöĆ ŌöĆ Ōöś ŌöīŌöĆŌö¼ŌöĆŌö¼ŌöĆŌö¼ŌöĆŌöÉ                     Ōöé   ŌöīŌö
  22:../../Middlewares/LVGL/GUI/lvgl/src/misc/cache/class/lv_cache_lru_rb.c **** *  ŌööŌöĆŌö┤ŌöĆŌö┤ŌöĆŌö┤ŌöĆŌöś  ŌöīŌöĆŌöĆŌöĆŌöéŌŚäŌöéDŌöéŌ¢║Ōöé ŌöéŌöĆ ŌöĆ ŌöĆ ŌöĆ ŌöĆ ŌöĆŌöéŌöĆ ŌĢ
  23:../../Middlewares/LVGL/GUI/lvgl/src/misc/cache/class/lv_cache_lru_rb.c **** * Ōöā           Ōöé   ŌööŌöĆŌö┤ŌöĆŌö┤ŌöĆŌö┤ŌöĆŌöś                         ŌööŌöĆŌöĆŌ¢▓ŌöĆŌöĆŌöś    
  24:../../Middlewares/LVGL/GUI/lvgl/src/misc/cache/class/lv_cache_lru_rb.c **** *             Ōöé        Ōöé              Ōöé  Ōöā Ōöé  Ōöā        Ōöé    Ōöé   Cache   Ōöé Ōöā *
  25:../../Middlewares/LVGL/GUI/lvgl/src/misc/cache/class/lv_cache_lru_rb.c **** * Ōöā           Ō¢╝        ŌööŌöĆŌöĆŌöĆŌöĆŌöĆŌöĆŌöÉ                     ŌöīŌöĆŌöĆŌö┤ŌöĆŌöĆŌöÉ  ŌöĆ 
  26:../../Middlewares/LVGL/GUI/lvgl/src/misc/cache/class/lv_cache_lru_rb.c **** *          ŌöīŌöĆŌö¼ŌöĆŌö¼ŌöĆŌö¼ŌöĆŌöÉ          Ō¢╝       Ōöé  Ōöā Ōöö ŌöĆŌöāŌöĆ ŌöĆ Ō¢ČŌöé  D  Ōöé
  27:../../Middlewares/LVGL/GUI/lvgl/src/misc/cache/class/lv_cache_lru_rb.c **** * Ōöā        ŌöéŌŚäŌöéCŌöéŌ¢║Ōöé ŌöéŌöĆ ŌöĆ    ŌöīŌöĆŌö¼ŌöĆŌö¼ŌöĆŌö¼ŌöĆŌöÉ                ŌööŌöĆŌöĆ
  28:../../Middlewares/LVGL/GUI/lvgl/src/misc/cache/class/lv_cache_lru_rb.c **** *          ŌööŌöĆŌö┤ŌöĆŌö┤ŌöĆŌö┤ŌöĆŌöś   Ōöé   ŌöéŌŚäŌöéEŌöéŌ¢║Ōöé ŌöéŌöĆ Ōöś  Ōöā    Ōöā        Ōö
  29:../../Middlewares/LVGL/GUI/lvgl/src/misc/cache/class/lv_cache_lru_rb.c **** * Ōöā                        ŌööŌöĆŌö┤ŌöĆŌö┤ŌöĆŌö┤ŌöĆŌöś                ŌöīŌöĆŌöĆŌö┤ŌöĆŌöĆŌöÉ      
  30:../../Middlewares/LVGL/GUI/lvgl/src/misc/cache/class/lv_cache_lru_rb.c **** *                      Ōöé        Ōöé      ŌöĆ ŌĢŗ ŌöĆ ŌöĆŌöāŌöĆ ŌöĆ Ō¢ČŌöé  C  Ōöé               Ō
  31:../../Middlewares/LVGL/GUI/lvgl/src/misc/cache/class/lv_cache_lru_rb.c **** * Ōöā                     ŌöĆ ŌöĆ ŌöĆ ŌöĆ Ōö╝ ŌöĆ ŌöĆ Ōöś             ŌööŌöĆŌöĆŌ¢▓ŌöĆŌöĆŌöś        
ARM GAS  C:\Users\28576\AppData\Local\Temp\ccwWQGxs.s 			page 2


  32:../../Middlewares/LVGL/GUI/lvgl/src/misc/cache/class/lv_cache_lru_rb.c **** *                               Ō¢╝        Ōöā    Ōöā   Ōöī ŌöĆ ŌöĆŌöéŌöĆ ŌöĆ ŌöÉ             Ōöā *
  33:../../Middlewares/LVGL/GUI/lvgl/src/misc/cache/class/lv_cache_lru_rb.c **** * Ōöā                          ŌöīŌöĆŌö¼ŌöĆŌö¼ŌöĆŌö¼ŌöĆŌöÉ              ŌöīŌöĆŌöĆŌö┤ŌöĆŌöĆŌöÉ      
  34:../../Middlewares/LVGL/GUI/lvgl/src/misc/cache/class/lv_cache_lru_rb.c **** *                            ŌöéŌŚäŌöéFŌöéŌ¢║Ōöé ŌöéŌöĆ ŌöĆŌöāŌöĆ ŌöĆ ŌĢŗ ŌöĆ Ōö╝Ō¢ČŌöé  F  Ōöé Ōöé
  35:../../Middlewares/LVGL/GUI/lvgl/src/misc/cache/class/lv_cache_lru_rb.c **** * Ōöā                          ŌööŌöĆŌö┤ŌöĆŌö┤ŌöĆŌö┤ŌöĆŌöś              ŌööŌöĆŌöĆŌöĆŌöĆŌöĆŌöś      
  36:../../Middlewares/LVGL/GUI/lvgl/src/misc/cache/class/lv_cache_lru_rb.c **** *                                        Ōöā    Ōöā   Ōöö ŌöĆ ŌöĆ ŌöĆ ŌöĆ Ōöś             Ōöā *
  37:../../Middlewares/LVGL/GUI/lvgl/src/misc/cache/class/lv_cache_lru_rb.c **** * Ōöā                                                 remove                  *
  38:../../Middlewares/LVGL/GUI/lvgl/src/misc/cache/class/lv_cache_lru_rb.c **** *                                        Ōöā    Ōöā      tail                 Ōöā *
  39:../../Middlewares/LVGL/GUI/lvgl/src/misc/cache/class/lv_cache_lru_rb.c **** * ŌöŚ Ōöü Ōöü Ōöü Ōöü Ōöü Ōöü Ōöü Ōöü Ōöü Ōöü Ōöü Ōöü Ōöü Ōöü Ōöü Ōöü Ōöü Ōöü Ōöü      Ōöü Ōöü Ōöü 
  40:../../Middlewares/LVGL/GUI/lvgl/src/misc/cache/class/lv_cache_lru_rb.c **** *                                                                           *
  41:../../Middlewares/LVGL/GUI/lvgl/src/misc/cache/class/lv_cache_lru_rb.c **** \***************************************************************************/
  42:../../Middlewares/LVGL/GUI/lvgl/src/misc/cache/class/lv_cache_lru_rb.c **** 
  43:../../Middlewares/LVGL/GUI/lvgl/src/misc/cache/class/lv_cache_lru_rb.c **** /*********************
  44:../../Middlewares/LVGL/GUI/lvgl/src/misc/cache/class/lv_cache_lru_rb.c ****  *      INCLUDES
  45:../../Middlewares/LVGL/GUI/lvgl/src/misc/cache/class/lv_cache_lru_rb.c ****  *********************/
  46:../../Middlewares/LVGL/GUI/lvgl/src/misc/cache/class/lv_cache_lru_rb.c **** 
  47:../../Middlewares/LVGL/GUI/lvgl/src/misc/cache/class/lv_cache_lru_rb.c **** #include "lv_cache_lru_rb.h"
  48:../../Middlewares/LVGL/GUI/lvgl/src/misc/cache/class/lv_cache_lru_rb.c **** #include "../lv_cache_entry.h"
  49:../../Middlewares/LVGL/GUI/lvgl/src/misc/cache/class/lv_cache_lru_rb.c **** #include "../../../stdlib/lv_sprintf.h"
  50:../../Middlewares/LVGL/GUI/lvgl/src/misc/cache/class/lv_cache_lru_rb.c **** #include "../../../stdlib/lv_string.h"
  51:../../Middlewares/LVGL/GUI/lvgl/src/misc/cache/class/lv_cache_lru_rb.c **** #include "../../lv_ll.h"
  52:../../Middlewares/LVGL/GUI/lvgl/src/misc/cache/class/lv_cache_lru_rb.c **** #include "../../lv_rb_private.h"
  53:../../Middlewares/LVGL/GUI/lvgl/src/misc/cache/class/lv_cache_lru_rb.c **** #include "../../lv_rb.h"
  54:../../Middlewares/LVGL/GUI/lvgl/src/misc/cache/class/lv_cache_lru_rb.c **** #include "../../lv_iter.h"
  55:../../Middlewares/LVGL/GUI/lvgl/src/misc/cache/class/lv_cache_lru_rb.c **** 
  56:../../Middlewares/LVGL/GUI/lvgl/src/misc/cache/class/lv_cache_lru_rb.c **** /*********************
  57:../../Middlewares/LVGL/GUI/lvgl/src/misc/cache/class/lv_cache_lru_rb.c ****  *      DEFINES
  58:../../Middlewares/LVGL/GUI/lvgl/src/misc/cache/class/lv_cache_lru_rb.c ****  *********************/
  59:../../Middlewares/LVGL/GUI/lvgl/src/misc/cache/class/lv_cache_lru_rb.c **** 
  60:../../Middlewares/LVGL/GUI/lvgl/src/misc/cache/class/lv_cache_lru_rb.c **** /**********************
  61:../../Middlewares/LVGL/GUI/lvgl/src/misc/cache/class/lv_cache_lru_rb.c ****  *      TYPEDEFS
  62:../../Middlewares/LVGL/GUI/lvgl/src/misc/cache/class/lv_cache_lru_rb.c ****  **********************/
  63:../../Middlewares/LVGL/GUI/lvgl/src/misc/cache/class/lv_cache_lru_rb.c **** typedef uint32_t (get_data_size_cb_t)(const void * data);
  64:../../Middlewares/LVGL/GUI/lvgl/src/misc/cache/class/lv_cache_lru_rb.c **** 
  65:../../Middlewares/LVGL/GUI/lvgl/src/misc/cache/class/lv_cache_lru_rb.c **** struct _lv_lru_rb_t {
  66:../../Middlewares/LVGL/GUI/lvgl/src/misc/cache/class/lv_cache_lru_rb.c ****     lv_cache_t cache;
  67:../../Middlewares/LVGL/GUI/lvgl/src/misc/cache/class/lv_cache_lru_rb.c **** 
  68:../../Middlewares/LVGL/GUI/lvgl/src/misc/cache/class/lv_cache_lru_rb.c ****     lv_rb_t rb;
  69:../../Middlewares/LVGL/GUI/lvgl/src/misc/cache/class/lv_cache_lru_rb.c ****     lv_ll_t ll;
  70:../../Middlewares/LVGL/GUI/lvgl/src/misc/cache/class/lv_cache_lru_rb.c **** 
  71:../../Middlewares/LVGL/GUI/lvgl/src/misc/cache/class/lv_cache_lru_rb.c ****     get_data_size_cb_t * get_data_size_cb;
  72:../../Middlewares/LVGL/GUI/lvgl/src/misc/cache/class/lv_cache_lru_rb.c **** };
  73:../../Middlewares/LVGL/GUI/lvgl/src/misc/cache/class/lv_cache_lru_rb.c **** typedef struct _lv_lru_rb_t lv_lru_rb_t_;
  74:../../Middlewares/LVGL/GUI/lvgl/src/misc/cache/class/lv_cache_lru_rb.c **** /**********************
  75:../../Middlewares/LVGL/GUI/lvgl/src/misc/cache/class/lv_cache_lru_rb.c ****  *  STATIC PROTOTYPES
  76:../../Middlewares/LVGL/GUI/lvgl/src/misc/cache/class/lv_cache_lru_rb.c ****  **********************/
  77:../../Middlewares/LVGL/GUI/lvgl/src/misc/cache/class/lv_cache_lru_rb.c **** 
  78:../../Middlewares/LVGL/GUI/lvgl/src/misc/cache/class/lv_cache_lru_rb.c **** static void * alloc_cb(void);
  79:../../Middlewares/LVGL/GUI/lvgl/src/misc/cache/class/lv_cache_lru_rb.c **** static bool init_cnt_cb(lv_cache_t * cache);
  80:../../Middlewares/LVGL/GUI/lvgl/src/misc/cache/class/lv_cache_lru_rb.c **** static bool init_size_cb(lv_cache_t * cache);
  81:../../Middlewares/LVGL/GUI/lvgl/src/misc/cache/class/lv_cache_lru_rb.c **** static void  destroy_cb(lv_cache_t * cache, void * user_data);
  82:../../Middlewares/LVGL/GUI/lvgl/src/misc/cache/class/lv_cache_lru_rb.c **** 
  83:../../Middlewares/LVGL/GUI/lvgl/src/misc/cache/class/lv_cache_lru_rb.c **** static lv_cache_entry_t * get_cb(lv_cache_t * cache, const void * key, void * user_data);
  84:../../Middlewares/LVGL/GUI/lvgl/src/misc/cache/class/lv_cache_lru_rb.c **** static lv_cache_entry_t * add_cb(lv_cache_t * cache, const void * key, void * user_data);
  85:../../Middlewares/LVGL/GUI/lvgl/src/misc/cache/class/lv_cache_lru_rb.c **** static void remove_cb(lv_cache_t * cache, lv_cache_entry_t * entry, void * user_data);
  86:../../Middlewares/LVGL/GUI/lvgl/src/misc/cache/class/lv_cache_lru_rb.c **** static void drop_cb(lv_cache_t * cache, const void * key, void * user_data);
  87:../../Middlewares/LVGL/GUI/lvgl/src/misc/cache/class/lv_cache_lru_rb.c **** static void drop_all_cb(lv_cache_t * cache, void * user_data);
  88:../../Middlewares/LVGL/GUI/lvgl/src/misc/cache/class/lv_cache_lru_rb.c **** static lv_cache_entry_t * get_victim_cb(lv_cache_t * cache, void * user_data);
ARM GAS  C:\Users\28576\AppData\Local\Temp\ccwWQGxs.s 			page 3


  89:../../Middlewares/LVGL/GUI/lvgl/src/misc/cache/class/lv_cache_lru_rb.c **** static lv_cache_reserve_cond_res_t reserve_cond_cb(lv_cache_t * cache, const void * key, size_t res
  90:../../Middlewares/LVGL/GUI/lvgl/src/misc/cache/class/lv_cache_lru_rb.c ****                                                    void * user_data);
  91:../../Middlewares/LVGL/GUI/lvgl/src/misc/cache/class/lv_cache_lru_rb.c **** 
  92:../../Middlewares/LVGL/GUI/lvgl/src/misc/cache/class/lv_cache_lru_rb.c **** static void * alloc_new_node(lv_lru_rb_t_ * lru, void * key, void * user_data);
  93:../../Middlewares/LVGL/GUI/lvgl/src/misc/cache/class/lv_cache_lru_rb.c **** inline static void ** get_lru_node(lv_lru_rb_t_ * lru, lv_rb_node_t * node);
  94:../../Middlewares/LVGL/GUI/lvgl/src/misc/cache/class/lv_cache_lru_rb.c **** 
  95:../../Middlewares/LVGL/GUI/lvgl/src/misc/cache/class/lv_cache_lru_rb.c **** static uint32_t cnt_get_data_size_cb(const void * data);
  96:../../Middlewares/LVGL/GUI/lvgl/src/misc/cache/class/lv_cache_lru_rb.c **** static uint32_t size_get_data_size_cb(const void * data);
  97:../../Middlewares/LVGL/GUI/lvgl/src/misc/cache/class/lv_cache_lru_rb.c **** 
  98:../../Middlewares/LVGL/GUI/lvgl/src/misc/cache/class/lv_cache_lru_rb.c **** static lv_iter_t * cache_iter_create_cb(lv_cache_t * cache);
  99:../../Middlewares/LVGL/GUI/lvgl/src/misc/cache/class/lv_cache_lru_rb.c **** static lv_result_t cache_iter_next_cb(void * instance, void * context, void * elem);
 100:../../Middlewares/LVGL/GUI/lvgl/src/misc/cache/class/lv_cache_lru_rb.c **** 
 101:../../Middlewares/LVGL/GUI/lvgl/src/misc/cache/class/lv_cache_lru_rb.c **** /**********************
 102:../../Middlewares/LVGL/GUI/lvgl/src/misc/cache/class/lv_cache_lru_rb.c ****  *  GLOBAL VARIABLES
 103:../../Middlewares/LVGL/GUI/lvgl/src/misc/cache/class/lv_cache_lru_rb.c ****  **********************/
 104:../../Middlewares/LVGL/GUI/lvgl/src/misc/cache/class/lv_cache_lru_rb.c **** const lv_cache_class_t lv_cache_class_lru_rb_count = {
 105:../../Middlewares/LVGL/GUI/lvgl/src/misc/cache/class/lv_cache_lru_rb.c ****     .alloc_cb = alloc_cb,
 106:../../Middlewares/LVGL/GUI/lvgl/src/misc/cache/class/lv_cache_lru_rb.c ****     .init_cb = init_cnt_cb,
 107:../../Middlewares/LVGL/GUI/lvgl/src/misc/cache/class/lv_cache_lru_rb.c ****     .destroy_cb = destroy_cb,
 108:../../Middlewares/LVGL/GUI/lvgl/src/misc/cache/class/lv_cache_lru_rb.c **** 
 109:../../Middlewares/LVGL/GUI/lvgl/src/misc/cache/class/lv_cache_lru_rb.c ****     .get_cb = get_cb,
 110:../../Middlewares/LVGL/GUI/lvgl/src/misc/cache/class/lv_cache_lru_rb.c ****     .add_cb = add_cb,
 111:../../Middlewares/LVGL/GUI/lvgl/src/misc/cache/class/lv_cache_lru_rb.c ****     .remove_cb = remove_cb,
 112:../../Middlewares/LVGL/GUI/lvgl/src/misc/cache/class/lv_cache_lru_rb.c ****     .drop_cb = drop_cb,
 113:../../Middlewares/LVGL/GUI/lvgl/src/misc/cache/class/lv_cache_lru_rb.c ****     .drop_all_cb = drop_all_cb,
 114:../../Middlewares/LVGL/GUI/lvgl/src/misc/cache/class/lv_cache_lru_rb.c ****     .get_victim_cb = get_victim_cb,
 115:../../Middlewares/LVGL/GUI/lvgl/src/misc/cache/class/lv_cache_lru_rb.c ****     .reserve_cond_cb = reserve_cond_cb,
 116:../../Middlewares/LVGL/GUI/lvgl/src/misc/cache/class/lv_cache_lru_rb.c ****     .iter_create_cb = cache_iter_create_cb,
 117:../../Middlewares/LVGL/GUI/lvgl/src/misc/cache/class/lv_cache_lru_rb.c **** };
 118:../../Middlewares/LVGL/GUI/lvgl/src/misc/cache/class/lv_cache_lru_rb.c **** 
 119:../../Middlewares/LVGL/GUI/lvgl/src/misc/cache/class/lv_cache_lru_rb.c **** const lv_cache_class_t lv_cache_class_lru_rb_size = {
 120:../../Middlewares/LVGL/GUI/lvgl/src/misc/cache/class/lv_cache_lru_rb.c ****     .alloc_cb = alloc_cb,
 121:../../Middlewares/LVGL/GUI/lvgl/src/misc/cache/class/lv_cache_lru_rb.c ****     .init_cb = init_size_cb,
 122:../../Middlewares/LVGL/GUI/lvgl/src/misc/cache/class/lv_cache_lru_rb.c ****     .destroy_cb = destroy_cb,
 123:../../Middlewares/LVGL/GUI/lvgl/src/misc/cache/class/lv_cache_lru_rb.c **** 
 124:../../Middlewares/LVGL/GUI/lvgl/src/misc/cache/class/lv_cache_lru_rb.c ****     .get_cb = get_cb,
 125:../../Middlewares/LVGL/GUI/lvgl/src/misc/cache/class/lv_cache_lru_rb.c ****     .add_cb = add_cb,
 126:../../Middlewares/LVGL/GUI/lvgl/src/misc/cache/class/lv_cache_lru_rb.c ****     .remove_cb = remove_cb,
 127:../../Middlewares/LVGL/GUI/lvgl/src/misc/cache/class/lv_cache_lru_rb.c ****     .drop_cb = drop_cb,
 128:../../Middlewares/LVGL/GUI/lvgl/src/misc/cache/class/lv_cache_lru_rb.c ****     .drop_all_cb = drop_all_cb,
 129:../../Middlewares/LVGL/GUI/lvgl/src/misc/cache/class/lv_cache_lru_rb.c ****     .get_victim_cb = get_victim_cb,
 130:../../Middlewares/LVGL/GUI/lvgl/src/misc/cache/class/lv_cache_lru_rb.c ****     .reserve_cond_cb = reserve_cond_cb,
 131:../../Middlewares/LVGL/GUI/lvgl/src/misc/cache/class/lv_cache_lru_rb.c ****     .iter_create_cb = cache_iter_create_cb,
 132:../../Middlewares/LVGL/GUI/lvgl/src/misc/cache/class/lv_cache_lru_rb.c **** };
 133:../../Middlewares/LVGL/GUI/lvgl/src/misc/cache/class/lv_cache_lru_rb.c **** /**********************
 134:../../Middlewares/LVGL/GUI/lvgl/src/misc/cache/class/lv_cache_lru_rb.c ****  *  STATIC VARIABLES
 135:../../Middlewares/LVGL/GUI/lvgl/src/misc/cache/class/lv_cache_lru_rb.c ****  **********************/
 136:../../Middlewares/LVGL/GUI/lvgl/src/misc/cache/class/lv_cache_lru_rb.c **** 
 137:../../Middlewares/LVGL/GUI/lvgl/src/misc/cache/class/lv_cache_lru_rb.c **** /**********************
 138:../../Middlewares/LVGL/GUI/lvgl/src/misc/cache/class/lv_cache_lru_rb.c ****  *      MACROS
 139:../../Middlewares/LVGL/GUI/lvgl/src/misc/cache/class/lv_cache_lru_rb.c ****  **********************/
 140:../../Middlewares/LVGL/GUI/lvgl/src/misc/cache/class/lv_cache_lru_rb.c **** 
 141:../../Middlewares/LVGL/GUI/lvgl/src/misc/cache/class/lv_cache_lru_rb.c **** /**********************
 142:../../Middlewares/LVGL/GUI/lvgl/src/misc/cache/class/lv_cache_lru_rb.c ****  *   GLOBAL FUNCTIONS
 143:../../Middlewares/LVGL/GUI/lvgl/src/misc/cache/class/lv_cache_lru_rb.c ****  **********************/
 144:../../Middlewares/LVGL/GUI/lvgl/src/misc/cache/class/lv_cache_lru_rb.c **** 
 145:../../Middlewares/LVGL/GUI/lvgl/src/misc/cache/class/lv_cache_lru_rb.c **** /**********************
ARM GAS  C:\Users\28576\AppData\Local\Temp\ccwWQGxs.s 			page 4


 146:../../Middlewares/LVGL/GUI/lvgl/src/misc/cache/class/lv_cache_lru_rb.c ****  *   STATIC FUNCTIONS
 147:../../Middlewares/LVGL/GUI/lvgl/src/misc/cache/class/lv_cache_lru_rb.c ****  **********************/
 148:../../Middlewares/LVGL/GUI/lvgl/src/misc/cache/class/lv_cache_lru_rb.c **** static void * alloc_new_node(lv_lru_rb_t_ * lru, void * key, void * user_data)
 149:../../Middlewares/LVGL/GUI/lvgl/src/misc/cache/class/lv_cache_lru_rb.c **** {
 150:../../Middlewares/LVGL/GUI/lvgl/src/misc/cache/class/lv_cache_lru_rb.c ****     LV_UNUSED(user_data);
 151:../../Middlewares/LVGL/GUI/lvgl/src/misc/cache/class/lv_cache_lru_rb.c **** 
 152:../../Middlewares/LVGL/GUI/lvgl/src/misc/cache/class/lv_cache_lru_rb.c ****     LV_ASSERT_NULL(lru);
 153:../../Middlewares/LVGL/GUI/lvgl/src/misc/cache/class/lv_cache_lru_rb.c ****     LV_ASSERT_NULL(key);
 154:../../Middlewares/LVGL/GUI/lvgl/src/misc/cache/class/lv_cache_lru_rb.c **** 
 155:../../Middlewares/LVGL/GUI/lvgl/src/misc/cache/class/lv_cache_lru_rb.c ****     if(lru == NULL || key == NULL) {
 156:../../Middlewares/LVGL/GUI/lvgl/src/misc/cache/class/lv_cache_lru_rb.c ****         return NULL;
 157:../../Middlewares/LVGL/GUI/lvgl/src/misc/cache/class/lv_cache_lru_rb.c ****     }
 158:../../Middlewares/LVGL/GUI/lvgl/src/misc/cache/class/lv_cache_lru_rb.c **** 
 159:../../Middlewares/LVGL/GUI/lvgl/src/misc/cache/class/lv_cache_lru_rb.c ****     lv_rb_node_t * node = lv_rb_insert(&lru->rb, key);
 160:../../Middlewares/LVGL/GUI/lvgl/src/misc/cache/class/lv_cache_lru_rb.c ****     if(node == NULL)
 161:../../Middlewares/LVGL/GUI/lvgl/src/misc/cache/class/lv_cache_lru_rb.c ****         goto FAILED_HANDLER2;
 162:../../Middlewares/LVGL/GUI/lvgl/src/misc/cache/class/lv_cache_lru_rb.c **** 
 163:../../Middlewares/LVGL/GUI/lvgl/src/misc/cache/class/lv_cache_lru_rb.c ****     void * data = node->data;
 164:../../Middlewares/LVGL/GUI/lvgl/src/misc/cache/class/lv_cache_lru_rb.c ****     lv_cache_entry_t * entry = lv_cache_entry_get_entry(data, lru->cache.node_size);
 165:../../Middlewares/LVGL/GUI/lvgl/src/misc/cache/class/lv_cache_lru_rb.c ****     lv_memcpy(data, key, lru->cache.node_size);
 166:../../Middlewares/LVGL/GUI/lvgl/src/misc/cache/class/lv_cache_lru_rb.c **** 
 167:../../Middlewares/LVGL/GUI/lvgl/src/misc/cache/class/lv_cache_lru_rb.c ****     void * lru_node = lv_ll_ins_head(&lru->ll);
 168:../../Middlewares/LVGL/GUI/lvgl/src/misc/cache/class/lv_cache_lru_rb.c ****     if(lru_node == NULL)
 169:../../Middlewares/LVGL/GUI/lvgl/src/misc/cache/class/lv_cache_lru_rb.c ****         goto FAILED_HANDLER1;
 170:../../Middlewares/LVGL/GUI/lvgl/src/misc/cache/class/lv_cache_lru_rb.c **** 
 171:../../Middlewares/LVGL/GUI/lvgl/src/misc/cache/class/lv_cache_lru_rb.c ****     lv_memcpy(lru_node, &node, sizeof(void *));
 172:../../Middlewares/LVGL/GUI/lvgl/src/misc/cache/class/lv_cache_lru_rb.c ****     lv_memcpy(get_lru_node(lru, node), &lru_node, sizeof(void *));
 173:../../Middlewares/LVGL/GUI/lvgl/src/misc/cache/class/lv_cache_lru_rb.c **** 
 174:../../Middlewares/LVGL/GUI/lvgl/src/misc/cache/class/lv_cache_lru_rb.c ****     lv_cache_entry_init(entry, &lru->cache, lru->cache.node_size);
 175:../../Middlewares/LVGL/GUI/lvgl/src/misc/cache/class/lv_cache_lru_rb.c ****     goto FAILED_HANDLER2;
 176:../../Middlewares/LVGL/GUI/lvgl/src/misc/cache/class/lv_cache_lru_rb.c **** 
 177:../../Middlewares/LVGL/GUI/lvgl/src/misc/cache/class/lv_cache_lru_rb.c **** FAILED_HANDLER1:
 178:../../Middlewares/LVGL/GUI/lvgl/src/misc/cache/class/lv_cache_lru_rb.c ****     lv_rb_drop_node(&lru->rb, node);
 179:../../Middlewares/LVGL/GUI/lvgl/src/misc/cache/class/lv_cache_lru_rb.c ****     node = NULL;
 180:../../Middlewares/LVGL/GUI/lvgl/src/misc/cache/class/lv_cache_lru_rb.c **** FAILED_HANDLER2:
 181:../../Middlewares/LVGL/GUI/lvgl/src/misc/cache/class/lv_cache_lru_rb.c ****     return node;
 182:../../Middlewares/LVGL/GUI/lvgl/src/misc/cache/class/lv_cache_lru_rb.c **** }
 183:../../Middlewares/LVGL/GUI/lvgl/src/misc/cache/class/lv_cache_lru_rb.c **** 
 184:../../Middlewares/LVGL/GUI/lvgl/src/misc/cache/class/lv_cache_lru_rb.c **** inline static void ** get_lru_node(lv_lru_rb_t_ * lru, lv_rb_node_t * node)
 185:../../Middlewares/LVGL/GUI/lvgl/src/misc/cache/class/lv_cache_lru_rb.c **** {
 186:../../Middlewares/LVGL/GUI/lvgl/src/misc/cache/class/lv_cache_lru_rb.c ****     return (void **)((char *)node->data + lru->rb.size - sizeof(void *));
 187:../../Middlewares/LVGL/GUI/lvgl/src/misc/cache/class/lv_cache_lru_rb.c **** }
 188:../../Middlewares/LVGL/GUI/lvgl/src/misc/cache/class/lv_cache_lru_rb.c **** 
 189:../../Middlewares/LVGL/GUI/lvgl/src/misc/cache/class/lv_cache_lru_rb.c **** static void * alloc_cb(void)
 190:../../Middlewares/LVGL/GUI/lvgl/src/misc/cache/class/lv_cache_lru_rb.c **** {
 191:../../Middlewares/LVGL/GUI/lvgl/src/misc/cache/class/lv_cache_lru_rb.c ****     void * res = lv_malloc(sizeof(lv_lru_rb_t_));
 192:../../Middlewares/LVGL/GUI/lvgl/src/misc/cache/class/lv_cache_lru_rb.c ****     LV_ASSERT_MALLOC(res);
 193:../../Middlewares/LVGL/GUI/lvgl/src/misc/cache/class/lv_cache_lru_rb.c ****     if(res == NULL) {
 194:../../Middlewares/LVGL/GUI/lvgl/src/misc/cache/class/lv_cache_lru_rb.c ****         LV_LOG_ERROR("malloc failed");
 195:../../Middlewares/LVGL/GUI/lvgl/src/misc/cache/class/lv_cache_lru_rb.c ****         return NULL;
 196:../../Middlewares/LVGL/GUI/lvgl/src/misc/cache/class/lv_cache_lru_rb.c ****     }
 197:../../Middlewares/LVGL/GUI/lvgl/src/misc/cache/class/lv_cache_lru_rb.c **** 
 198:../../Middlewares/LVGL/GUI/lvgl/src/misc/cache/class/lv_cache_lru_rb.c ****     lv_memzero(res, sizeof(lv_lru_rb_t_));
 199:../../Middlewares/LVGL/GUI/lvgl/src/misc/cache/class/lv_cache_lru_rb.c ****     return res;
 200:../../Middlewares/LVGL/GUI/lvgl/src/misc/cache/class/lv_cache_lru_rb.c **** }
 201:../../Middlewares/LVGL/GUI/lvgl/src/misc/cache/class/lv_cache_lru_rb.c **** 
 202:../../Middlewares/LVGL/GUI/lvgl/src/misc/cache/class/lv_cache_lru_rb.c **** static bool init_cnt_cb(lv_cache_t * cache)
ARM GAS  C:\Users\28576\AppData\Local\Temp\ccwWQGxs.s 			page 5


 203:../../Middlewares/LVGL/GUI/lvgl/src/misc/cache/class/lv_cache_lru_rb.c **** {
 204:../../Middlewares/LVGL/GUI/lvgl/src/misc/cache/class/lv_cache_lru_rb.c ****     lv_lru_rb_t_ * lru = (lv_lru_rb_t_ *)cache;
 205:../../Middlewares/LVGL/GUI/lvgl/src/misc/cache/class/lv_cache_lru_rb.c **** 
 206:../../Middlewares/LVGL/GUI/lvgl/src/misc/cache/class/lv_cache_lru_rb.c ****     LV_ASSERT_NULL(lru->cache.ops.compare_cb);
 207:../../Middlewares/LVGL/GUI/lvgl/src/misc/cache/class/lv_cache_lru_rb.c ****     LV_ASSERT_NULL(lru->cache.ops.free_cb);
 208:../../Middlewares/LVGL/GUI/lvgl/src/misc/cache/class/lv_cache_lru_rb.c ****     LV_ASSERT(lru->cache.node_size > 0);
 209:../../Middlewares/LVGL/GUI/lvgl/src/misc/cache/class/lv_cache_lru_rb.c **** 
 210:../../Middlewares/LVGL/GUI/lvgl/src/misc/cache/class/lv_cache_lru_rb.c ****     if(lru->cache.node_size <= 0 || lru->cache.ops.compare_cb == NULL || lru->cache.ops.free_cb == 
 211:../../Middlewares/LVGL/GUI/lvgl/src/misc/cache/class/lv_cache_lru_rb.c ****         return false;
 212:../../Middlewares/LVGL/GUI/lvgl/src/misc/cache/class/lv_cache_lru_rb.c ****     }
 213:../../Middlewares/LVGL/GUI/lvgl/src/misc/cache/class/lv_cache_lru_rb.c **** 
 214:../../Middlewares/LVGL/GUI/lvgl/src/misc/cache/class/lv_cache_lru_rb.c ****     /*add void* to store the ll node pointer*/
 215:../../Middlewares/LVGL/GUI/lvgl/src/misc/cache/class/lv_cache_lru_rb.c ****     if(!lv_rb_init(&lru->rb, lru->cache.ops.compare_cb, lv_cache_entry_get_size(lru->cache.node_siz
 216:../../Middlewares/LVGL/GUI/lvgl/src/misc/cache/class/lv_cache_lru_rb.c ****         return false;
 217:../../Middlewares/LVGL/GUI/lvgl/src/misc/cache/class/lv_cache_lru_rb.c ****     }
 218:../../Middlewares/LVGL/GUI/lvgl/src/misc/cache/class/lv_cache_lru_rb.c ****     lv_ll_init(&lru->ll, sizeof(void *));
 219:../../Middlewares/LVGL/GUI/lvgl/src/misc/cache/class/lv_cache_lru_rb.c **** 
 220:../../Middlewares/LVGL/GUI/lvgl/src/misc/cache/class/lv_cache_lru_rb.c ****     lru->get_data_size_cb = cnt_get_data_size_cb;
 221:../../Middlewares/LVGL/GUI/lvgl/src/misc/cache/class/lv_cache_lru_rb.c **** 
 222:../../Middlewares/LVGL/GUI/lvgl/src/misc/cache/class/lv_cache_lru_rb.c ****     return true;
 223:../../Middlewares/LVGL/GUI/lvgl/src/misc/cache/class/lv_cache_lru_rb.c **** }
 224:../../Middlewares/LVGL/GUI/lvgl/src/misc/cache/class/lv_cache_lru_rb.c **** 
 225:../../Middlewares/LVGL/GUI/lvgl/src/misc/cache/class/lv_cache_lru_rb.c **** static bool init_size_cb(lv_cache_t * cache)
 226:../../Middlewares/LVGL/GUI/lvgl/src/misc/cache/class/lv_cache_lru_rb.c **** {
 227:../../Middlewares/LVGL/GUI/lvgl/src/misc/cache/class/lv_cache_lru_rb.c ****     lv_lru_rb_t_ * lru = (lv_lru_rb_t_ *)cache;
 228:../../Middlewares/LVGL/GUI/lvgl/src/misc/cache/class/lv_cache_lru_rb.c **** 
 229:../../Middlewares/LVGL/GUI/lvgl/src/misc/cache/class/lv_cache_lru_rb.c ****     LV_ASSERT_NULL(lru->cache.ops.compare_cb);
 230:../../Middlewares/LVGL/GUI/lvgl/src/misc/cache/class/lv_cache_lru_rb.c ****     LV_ASSERT_NULL(lru->cache.ops.free_cb);
 231:../../Middlewares/LVGL/GUI/lvgl/src/misc/cache/class/lv_cache_lru_rb.c ****     LV_ASSERT(lru->cache.node_size > 0);
 232:../../Middlewares/LVGL/GUI/lvgl/src/misc/cache/class/lv_cache_lru_rb.c **** 
 233:../../Middlewares/LVGL/GUI/lvgl/src/misc/cache/class/lv_cache_lru_rb.c ****     if(lru->cache.node_size <= 0 || lru->cache.ops.compare_cb == NULL || lru->cache.ops.free_cb == 
 234:../../Middlewares/LVGL/GUI/lvgl/src/misc/cache/class/lv_cache_lru_rb.c ****         return false;
 235:../../Middlewares/LVGL/GUI/lvgl/src/misc/cache/class/lv_cache_lru_rb.c ****     }
 236:../../Middlewares/LVGL/GUI/lvgl/src/misc/cache/class/lv_cache_lru_rb.c **** 
 237:../../Middlewares/LVGL/GUI/lvgl/src/misc/cache/class/lv_cache_lru_rb.c ****     /*add void* to store the ll node pointer*/
 238:../../Middlewares/LVGL/GUI/lvgl/src/misc/cache/class/lv_cache_lru_rb.c ****     if(!lv_rb_init(&lru->rb, lru->cache.ops.compare_cb, lv_cache_entry_get_size(lru->cache.node_siz
 239:../../Middlewares/LVGL/GUI/lvgl/src/misc/cache/class/lv_cache_lru_rb.c ****         return false;
 240:../../Middlewares/LVGL/GUI/lvgl/src/misc/cache/class/lv_cache_lru_rb.c ****     }
 241:../../Middlewares/LVGL/GUI/lvgl/src/misc/cache/class/lv_cache_lru_rb.c ****     lv_ll_init(&lru->ll, sizeof(void *));
 242:../../Middlewares/LVGL/GUI/lvgl/src/misc/cache/class/lv_cache_lru_rb.c **** 
 243:../../Middlewares/LVGL/GUI/lvgl/src/misc/cache/class/lv_cache_lru_rb.c ****     lru->get_data_size_cb = size_get_data_size_cb;
 244:../../Middlewares/LVGL/GUI/lvgl/src/misc/cache/class/lv_cache_lru_rb.c **** 
 245:../../Middlewares/LVGL/GUI/lvgl/src/misc/cache/class/lv_cache_lru_rb.c ****     return true;
 246:../../Middlewares/LVGL/GUI/lvgl/src/misc/cache/class/lv_cache_lru_rb.c **** }
 247:../../Middlewares/LVGL/GUI/lvgl/src/misc/cache/class/lv_cache_lru_rb.c **** 
 248:../../Middlewares/LVGL/GUI/lvgl/src/misc/cache/class/lv_cache_lru_rb.c **** static void destroy_cb(lv_cache_t * cache, void * user_data)
 249:../../Middlewares/LVGL/GUI/lvgl/src/misc/cache/class/lv_cache_lru_rb.c **** {
  28              		.loc 1 249 1 view -0
  29              		.cfi_startproc
  30              		@ args = 0, pretend = 0, frame = 0
  31              		@ frame_needed = 0, uses_anonymous_args = 0
 250:../../Middlewares/LVGL/GUI/lvgl/src/misc/cache/class/lv_cache_lru_rb.c ****     LV_UNUSED(user_data);
  32              		.loc 1 250 5 view .LVU1
 251:../../Middlewares/LVGL/GUI/lvgl/src/misc/cache/class/lv_cache_lru_rb.c **** 
 252:../../Middlewares/LVGL/GUI/lvgl/src/misc/cache/class/lv_cache_lru_rb.c ****     lv_lru_rb_t_ * lru = (lv_lru_rb_t_ *)cache;
  33              		.loc 1 252 5 view .LVU2
 253:../../Middlewares/LVGL/GUI/lvgl/src/misc/cache/class/lv_cache_lru_rb.c **** 
ARM GAS  C:\Users\28576\AppData\Local\Temp\ccwWQGxs.s 			page 6


 254:../../Middlewares/LVGL/GUI/lvgl/src/misc/cache/class/lv_cache_lru_rb.c ****     LV_ASSERT_NULL(lru);
  34              		.loc 1 254 5 view .LVU3
  35              		.loc 1 254 5 view .LVU4
  36 0000 20B1     		cbz	r0, .L3
 249:../../Middlewares/LVGL/GUI/lvgl/src/misc/cache/class/lv_cache_lru_rb.c ****     LV_UNUSED(user_data);
  37              		.loc 1 249 1 is_stmt 0 view .LVU5
  38 0002 08B5     		push	{r3, lr}
  39              	.LCFI0:
  40              		.cfi_def_cfa_offset 8
  41              		.cfi_offset 3, -8
  42              		.cfi_offset 14, -4
  43              		.loc 1 254 5 is_stmt 1 view .LVU6
  44              		.loc 1 254 24 view .LVU7
 255:../../Middlewares/LVGL/GUI/lvgl/src/misc/cache/class/lv_cache_lru_rb.c **** 
 256:../../Middlewares/LVGL/GUI/lvgl/src/misc/cache/class/lv_cache_lru_rb.c ****     if(lru == NULL) {
  45              		.loc 1 256 5 view .LVU8
 257:../../Middlewares/LVGL/GUI/lvgl/src/misc/cache/class/lv_cache_lru_rb.c ****         return;
 258:../../Middlewares/LVGL/GUI/lvgl/src/misc/cache/class/lv_cache_lru_rb.c ****     }
 259:../../Middlewares/LVGL/GUI/lvgl/src/misc/cache/class/lv_cache_lru_rb.c **** 
 260:../../Middlewares/LVGL/GUI/lvgl/src/misc/cache/class/lv_cache_lru_rb.c ****     cache->clz->drop_all_cb(cache, user_data);
  46              		.loc 1 260 5 view .LVU9
  47              		.loc 1 260 10 is_stmt 0 view .LVU10
  48 0004 0268     		ldr	r2, [r0]
  49              		.loc 1 260 15 view .LVU11
  50 0006 D269     		ldr	r2, [r2, #28]
  51              		.loc 1 260 5 view .LVU12
  52 0008 9047     		blx	r2
  53              	.LVL1:
 261:../../Middlewares/LVGL/GUI/lvgl/src/misc/cache/class/lv_cache_lru_rb.c **** }
  54              		.loc 1 261 1 view .LVU13
  55 000a 08BD     		pop	{r3, pc}
  56              	.LVL2:
  57              	.L3:
  58              	.LCFI1:
  59              		.cfi_def_cfa_offset 0
  60              		.cfi_restore 3
  61              		.cfi_restore 14
 254:../../Middlewares/LVGL/GUI/lvgl/src/misc/cache/class/lv_cache_lru_rb.c **** 
  62              		.loc 1 254 5 is_stmt 1 view .LVU14
 254:../../Middlewares/LVGL/GUI/lvgl/src/misc/cache/class/lv_cache_lru_rb.c **** 
  63              		.loc 1 254 5 view .LVU15
 254:../../Middlewares/LVGL/GUI/lvgl/src/misc/cache/class/lv_cache_lru_rb.c **** 
  64              		.loc 1 254 5 view .LVU16
 254:../../Middlewares/LVGL/GUI/lvgl/src/misc/cache/class/lv_cache_lru_rb.c **** 
  65              		.loc 1 254 5 view .LVU17
 254:../../Middlewares/LVGL/GUI/lvgl/src/misc/cache/class/lv_cache_lru_rb.c **** 
  66              		.loc 1 254 5 view .LVU18
  67 000c FEE7     		b	.L3
  68              		.cfi_endproc
  69              	.LFE22:
  71              		.section	.text.reserve_cond_cb,"ax",%progbits
  72              		.align	1
  73              		.syntax unified
  74              		.thumb
  75              		.thumb_func
  77              	reserve_cond_cb:
  78              	.LVL3:
ARM GAS  C:\Users\28576\AppData\Local\Temp\ccwWQGxs.s 			page 7


  79              	.LFB29:
 262:../../Middlewares/LVGL/GUI/lvgl/src/misc/cache/class/lv_cache_lru_rb.c **** 
 263:../../Middlewares/LVGL/GUI/lvgl/src/misc/cache/class/lv_cache_lru_rb.c **** static lv_cache_entry_t * get_cb(lv_cache_t * cache, const void * key, void * user_data)
 264:../../Middlewares/LVGL/GUI/lvgl/src/misc/cache/class/lv_cache_lru_rb.c **** {
 265:../../Middlewares/LVGL/GUI/lvgl/src/misc/cache/class/lv_cache_lru_rb.c ****     LV_UNUSED(user_data);
 266:../../Middlewares/LVGL/GUI/lvgl/src/misc/cache/class/lv_cache_lru_rb.c **** 
 267:../../Middlewares/LVGL/GUI/lvgl/src/misc/cache/class/lv_cache_lru_rb.c ****     lv_lru_rb_t_ * lru = (lv_lru_rb_t_ *)cache;
 268:../../Middlewares/LVGL/GUI/lvgl/src/misc/cache/class/lv_cache_lru_rb.c **** 
 269:../../Middlewares/LVGL/GUI/lvgl/src/misc/cache/class/lv_cache_lru_rb.c ****     LV_ASSERT_NULL(lru);
 270:../../Middlewares/LVGL/GUI/lvgl/src/misc/cache/class/lv_cache_lru_rb.c ****     LV_ASSERT_NULL(key);
 271:../../Middlewares/LVGL/GUI/lvgl/src/misc/cache/class/lv_cache_lru_rb.c **** 
 272:../../Middlewares/LVGL/GUI/lvgl/src/misc/cache/class/lv_cache_lru_rb.c ****     if(lru == NULL || key == NULL) {
 273:../../Middlewares/LVGL/GUI/lvgl/src/misc/cache/class/lv_cache_lru_rb.c ****         return NULL;
 274:../../Middlewares/LVGL/GUI/lvgl/src/misc/cache/class/lv_cache_lru_rb.c ****     }
 275:../../Middlewares/LVGL/GUI/lvgl/src/misc/cache/class/lv_cache_lru_rb.c **** 
 276:../../Middlewares/LVGL/GUI/lvgl/src/misc/cache/class/lv_cache_lru_rb.c ****     /*try the first ll node first*/
 277:../../Middlewares/LVGL/GUI/lvgl/src/misc/cache/class/lv_cache_lru_rb.c ****     void * head = lv_ll_get_head(&lru->ll);
 278:../../Middlewares/LVGL/GUI/lvgl/src/misc/cache/class/lv_cache_lru_rb.c ****     if(head) {
 279:../../Middlewares/LVGL/GUI/lvgl/src/misc/cache/class/lv_cache_lru_rb.c ****         lv_rb_node_t * node = *(lv_rb_node_t **)head;
 280:../../Middlewares/LVGL/GUI/lvgl/src/misc/cache/class/lv_cache_lru_rb.c ****         void * data = node->data;
 281:../../Middlewares/LVGL/GUI/lvgl/src/misc/cache/class/lv_cache_lru_rb.c ****         lv_cache_entry_t * entry = lv_cache_entry_get_entry(data, cache->node_size);
 282:../../Middlewares/LVGL/GUI/lvgl/src/misc/cache/class/lv_cache_lru_rb.c ****         if(lru->cache.ops.compare_cb(data, key) == 0) {
 283:../../Middlewares/LVGL/GUI/lvgl/src/misc/cache/class/lv_cache_lru_rb.c ****             return entry;
 284:../../Middlewares/LVGL/GUI/lvgl/src/misc/cache/class/lv_cache_lru_rb.c ****         }
 285:../../Middlewares/LVGL/GUI/lvgl/src/misc/cache/class/lv_cache_lru_rb.c ****     }
 286:../../Middlewares/LVGL/GUI/lvgl/src/misc/cache/class/lv_cache_lru_rb.c **** 
 287:../../Middlewares/LVGL/GUI/lvgl/src/misc/cache/class/lv_cache_lru_rb.c ****     lv_rb_node_t * node = lv_rb_find(&lru->rb, key);
 288:../../Middlewares/LVGL/GUI/lvgl/src/misc/cache/class/lv_cache_lru_rb.c ****     /*cache hit*/
 289:../../Middlewares/LVGL/GUI/lvgl/src/misc/cache/class/lv_cache_lru_rb.c ****     if(node) {
 290:../../Middlewares/LVGL/GUI/lvgl/src/misc/cache/class/lv_cache_lru_rb.c ****         void * lru_node = *get_lru_node(lru, node);
 291:../../Middlewares/LVGL/GUI/lvgl/src/misc/cache/class/lv_cache_lru_rb.c ****         head = lv_ll_get_head(&lru->ll);
 292:../../Middlewares/LVGL/GUI/lvgl/src/misc/cache/class/lv_cache_lru_rb.c ****         lv_ll_move_before(&lru->ll, lru_node, head);
 293:../../Middlewares/LVGL/GUI/lvgl/src/misc/cache/class/lv_cache_lru_rb.c **** 
 294:../../Middlewares/LVGL/GUI/lvgl/src/misc/cache/class/lv_cache_lru_rb.c ****         lv_cache_entry_t * entry = lv_cache_entry_get_entry(node->data, cache->node_size);
 295:../../Middlewares/LVGL/GUI/lvgl/src/misc/cache/class/lv_cache_lru_rb.c ****         return entry;
 296:../../Middlewares/LVGL/GUI/lvgl/src/misc/cache/class/lv_cache_lru_rb.c ****     }
 297:../../Middlewares/LVGL/GUI/lvgl/src/misc/cache/class/lv_cache_lru_rb.c ****     return NULL;
 298:../../Middlewares/LVGL/GUI/lvgl/src/misc/cache/class/lv_cache_lru_rb.c **** }
 299:../../Middlewares/LVGL/GUI/lvgl/src/misc/cache/class/lv_cache_lru_rb.c **** 
 300:../../Middlewares/LVGL/GUI/lvgl/src/misc/cache/class/lv_cache_lru_rb.c **** static lv_cache_entry_t * add_cb(lv_cache_t * cache, const void * key, void * user_data)
 301:../../Middlewares/LVGL/GUI/lvgl/src/misc/cache/class/lv_cache_lru_rb.c **** {
 302:../../Middlewares/LVGL/GUI/lvgl/src/misc/cache/class/lv_cache_lru_rb.c ****     LV_UNUSED(user_data);
 303:../../Middlewares/LVGL/GUI/lvgl/src/misc/cache/class/lv_cache_lru_rb.c **** 
 304:../../Middlewares/LVGL/GUI/lvgl/src/misc/cache/class/lv_cache_lru_rb.c ****     lv_lru_rb_t_ * lru = (lv_lru_rb_t_ *)cache;
 305:../../Middlewares/LVGL/GUI/lvgl/src/misc/cache/class/lv_cache_lru_rb.c **** 
 306:../../Middlewares/LVGL/GUI/lvgl/src/misc/cache/class/lv_cache_lru_rb.c ****     LV_ASSERT_NULL(lru);
 307:../../Middlewares/LVGL/GUI/lvgl/src/misc/cache/class/lv_cache_lru_rb.c ****     LV_ASSERT_NULL(key);
 308:../../Middlewares/LVGL/GUI/lvgl/src/misc/cache/class/lv_cache_lru_rb.c **** 
 309:../../Middlewares/LVGL/GUI/lvgl/src/misc/cache/class/lv_cache_lru_rb.c ****     if(lru == NULL || key == NULL) {
 310:../../Middlewares/LVGL/GUI/lvgl/src/misc/cache/class/lv_cache_lru_rb.c ****         return NULL;
 311:../../Middlewares/LVGL/GUI/lvgl/src/misc/cache/class/lv_cache_lru_rb.c ****     }
 312:../../Middlewares/LVGL/GUI/lvgl/src/misc/cache/class/lv_cache_lru_rb.c **** 
 313:../../Middlewares/LVGL/GUI/lvgl/src/misc/cache/class/lv_cache_lru_rb.c ****     lv_rb_node_t * new_node = alloc_new_node(lru, (void *)key, user_data);
 314:../../Middlewares/LVGL/GUI/lvgl/src/misc/cache/class/lv_cache_lru_rb.c ****     if(new_node == NULL) {
 315:../../Middlewares/LVGL/GUI/lvgl/src/misc/cache/class/lv_cache_lru_rb.c ****         return NULL;
 316:../../Middlewares/LVGL/GUI/lvgl/src/misc/cache/class/lv_cache_lru_rb.c ****     }
 317:../../Middlewares/LVGL/GUI/lvgl/src/misc/cache/class/lv_cache_lru_rb.c **** 
ARM GAS  C:\Users\28576\AppData\Local\Temp\ccwWQGxs.s 			page 8


 318:../../Middlewares/LVGL/GUI/lvgl/src/misc/cache/class/lv_cache_lru_rb.c ****     lv_cache_entry_t * entry = lv_cache_entry_get_entry(new_node->data, cache->node_size);
 319:../../Middlewares/LVGL/GUI/lvgl/src/misc/cache/class/lv_cache_lru_rb.c **** 
 320:../../Middlewares/LVGL/GUI/lvgl/src/misc/cache/class/lv_cache_lru_rb.c ****     cache->size += lru->get_data_size_cb(key);
 321:../../Middlewares/LVGL/GUI/lvgl/src/misc/cache/class/lv_cache_lru_rb.c **** 
 322:../../Middlewares/LVGL/GUI/lvgl/src/misc/cache/class/lv_cache_lru_rb.c ****     return entry;
 323:../../Middlewares/LVGL/GUI/lvgl/src/misc/cache/class/lv_cache_lru_rb.c **** }
 324:../../Middlewares/LVGL/GUI/lvgl/src/misc/cache/class/lv_cache_lru_rb.c **** 
 325:../../Middlewares/LVGL/GUI/lvgl/src/misc/cache/class/lv_cache_lru_rb.c **** static void remove_cb(lv_cache_t * cache, lv_cache_entry_t * entry, void * user_data)
 326:../../Middlewares/LVGL/GUI/lvgl/src/misc/cache/class/lv_cache_lru_rb.c **** {
 327:../../Middlewares/LVGL/GUI/lvgl/src/misc/cache/class/lv_cache_lru_rb.c ****     LV_UNUSED(user_data);
 328:../../Middlewares/LVGL/GUI/lvgl/src/misc/cache/class/lv_cache_lru_rb.c **** 
 329:../../Middlewares/LVGL/GUI/lvgl/src/misc/cache/class/lv_cache_lru_rb.c ****     lv_lru_rb_t_ * lru = (lv_lru_rb_t_ *)cache;
 330:../../Middlewares/LVGL/GUI/lvgl/src/misc/cache/class/lv_cache_lru_rb.c **** 
 331:../../Middlewares/LVGL/GUI/lvgl/src/misc/cache/class/lv_cache_lru_rb.c ****     LV_ASSERT_NULL(lru);
 332:../../Middlewares/LVGL/GUI/lvgl/src/misc/cache/class/lv_cache_lru_rb.c ****     LV_ASSERT_NULL(entry);
 333:../../Middlewares/LVGL/GUI/lvgl/src/misc/cache/class/lv_cache_lru_rb.c **** 
 334:../../Middlewares/LVGL/GUI/lvgl/src/misc/cache/class/lv_cache_lru_rb.c ****     if(lru == NULL || entry == NULL) {
 335:../../Middlewares/LVGL/GUI/lvgl/src/misc/cache/class/lv_cache_lru_rb.c ****         return;
 336:../../Middlewares/LVGL/GUI/lvgl/src/misc/cache/class/lv_cache_lru_rb.c ****     }
 337:../../Middlewares/LVGL/GUI/lvgl/src/misc/cache/class/lv_cache_lru_rb.c **** 
 338:../../Middlewares/LVGL/GUI/lvgl/src/misc/cache/class/lv_cache_lru_rb.c ****     void * data = lv_cache_entry_get_data(entry);
 339:../../Middlewares/LVGL/GUI/lvgl/src/misc/cache/class/lv_cache_lru_rb.c ****     lv_rb_node_t * node = lv_rb_find(&lru->rb, data);
 340:../../Middlewares/LVGL/GUI/lvgl/src/misc/cache/class/lv_cache_lru_rb.c ****     if(node == NULL) {
 341:../../Middlewares/LVGL/GUI/lvgl/src/misc/cache/class/lv_cache_lru_rb.c ****         return;
 342:../../Middlewares/LVGL/GUI/lvgl/src/misc/cache/class/lv_cache_lru_rb.c ****     }
 343:../../Middlewares/LVGL/GUI/lvgl/src/misc/cache/class/lv_cache_lru_rb.c **** 
 344:../../Middlewares/LVGL/GUI/lvgl/src/misc/cache/class/lv_cache_lru_rb.c ****     void * lru_node = *get_lru_node(lru, node);
 345:../../Middlewares/LVGL/GUI/lvgl/src/misc/cache/class/lv_cache_lru_rb.c ****     lv_rb_remove_node(&lru->rb, node);
 346:../../Middlewares/LVGL/GUI/lvgl/src/misc/cache/class/lv_cache_lru_rb.c ****     lv_ll_remove(&lru->ll, lru_node);
 347:../../Middlewares/LVGL/GUI/lvgl/src/misc/cache/class/lv_cache_lru_rb.c ****     lv_free(lru_node);
 348:../../Middlewares/LVGL/GUI/lvgl/src/misc/cache/class/lv_cache_lru_rb.c **** 
 349:../../Middlewares/LVGL/GUI/lvgl/src/misc/cache/class/lv_cache_lru_rb.c ****     cache->size -= lru->get_data_size_cb(data);
 350:../../Middlewares/LVGL/GUI/lvgl/src/misc/cache/class/lv_cache_lru_rb.c **** }
 351:../../Middlewares/LVGL/GUI/lvgl/src/misc/cache/class/lv_cache_lru_rb.c **** 
 352:../../Middlewares/LVGL/GUI/lvgl/src/misc/cache/class/lv_cache_lru_rb.c **** static void drop_cb(lv_cache_t * cache, const void * key, void * user_data)
 353:../../Middlewares/LVGL/GUI/lvgl/src/misc/cache/class/lv_cache_lru_rb.c **** {
 354:../../Middlewares/LVGL/GUI/lvgl/src/misc/cache/class/lv_cache_lru_rb.c ****     lv_lru_rb_t_ * lru = (lv_lru_rb_t_ *)cache;
 355:../../Middlewares/LVGL/GUI/lvgl/src/misc/cache/class/lv_cache_lru_rb.c **** 
 356:../../Middlewares/LVGL/GUI/lvgl/src/misc/cache/class/lv_cache_lru_rb.c ****     LV_ASSERT_NULL(lru);
 357:../../Middlewares/LVGL/GUI/lvgl/src/misc/cache/class/lv_cache_lru_rb.c ****     LV_ASSERT_NULL(key);
 358:../../Middlewares/LVGL/GUI/lvgl/src/misc/cache/class/lv_cache_lru_rb.c **** 
 359:../../Middlewares/LVGL/GUI/lvgl/src/misc/cache/class/lv_cache_lru_rb.c ****     if(lru == NULL || key == NULL) {
 360:../../Middlewares/LVGL/GUI/lvgl/src/misc/cache/class/lv_cache_lru_rb.c ****         return;
 361:../../Middlewares/LVGL/GUI/lvgl/src/misc/cache/class/lv_cache_lru_rb.c ****     }
 362:../../Middlewares/LVGL/GUI/lvgl/src/misc/cache/class/lv_cache_lru_rb.c **** 
 363:../../Middlewares/LVGL/GUI/lvgl/src/misc/cache/class/lv_cache_lru_rb.c ****     lv_rb_node_t * node = lv_rb_find(&lru->rb, key);
 364:../../Middlewares/LVGL/GUI/lvgl/src/misc/cache/class/lv_cache_lru_rb.c ****     if(node == NULL) {
 365:../../Middlewares/LVGL/GUI/lvgl/src/misc/cache/class/lv_cache_lru_rb.c ****         return;
 366:../../Middlewares/LVGL/GUI/lvgl/src/misc/cache/class/lv_cache_lru_rb.c ****     }
 367:../../Middlewares/LVGL/GUI/lvgl/src/misc/cache/class/lv_cache_lru_rb.c **** 
 368:../../Middlewares/LVGL/GUI/lvgl/src/misc/cache/class/lv_cache_lru_rb.c ****     void * data = node->data;
 369:../../Middlewares/LVGL/GUI/lvgl/src/misc/cache/class/lv_cache_lru_rb.c **** 
 370:../../Middlewares/LVGL/GUI/lvgl/src/misc/cache/class/lv_cache_lru_rb.c ****     lru->cache.ops.free_cb(data, user_data);
 371:../../Middlewares/LVGL/GUI/lvgl/src/misc/cache/class/lv_cache_lru_rb.c ****     cache->size -= lru->get_data_size_cb(data);
 372:../../Middlewares/LVGL/GUI/lvgl/src/misc/cache/class/lv_cache_lru_rb.c **** 
 373:../../Middlewares/LVGL/GUI/lvgl/src/misc/cache/class/lv_cache_lru_rb.c ****     lv_cache_entry_t * entry = lv_cache_entry_get_entry(data, cache->node_size);
 374:../../Middlewares/LVGL/GUI/lvgl/src/misc/cache/class/lv_cache_lru_rb.c ****     void * lru_node = *get_lru_node(lru, node);
ARM GAS  C:\Users\28576\AppData\Local\Temp\ccwWQGxs.s 			page 9


 375:../../Middlewares/LVGL/GUI/lvgl/src/misc/cache/class/lv_cache_lru_rb.c **** 
 376:../../Middlewares/LVGL/GUI/lvgl/src/misc/cache/class/lv_cache_lru_rb.c ****     lv_rb_remove_node(&lru->rb, node);
 377:../../Middlewares/LVGL/GUI/lvgl/src/misc/cache/class/lv_cache_lru_rb.c ****     lv_cache_entry_delete(entry);
 378:../../Middlewares/LVGL/GUI/lvgl/src/misc/cache/class/lv_cache_lru_rb.c **** 
 379:../../Middlewares/LVGL/GUI/lvgl/src/misc/cache/class/lv_cache_lru_rb.c ****     lv_ll_remove(&lru->ll, lru_node);
 380:../../Middlewares/LVGL/GUI/lvgl/src/misc/cache/class/lv_cache_lru_rb.c ****     lv_free(lru_node);
 381:../../Middlewares/LVGL/GUI/lvgl/src/misc/cache/class/lv_cache_lru_rb.c **** }
 382:../../Middlewares/LVGL/GUI/lvgl/src/misc/cache/class/lv_cache_lru_rb.c **** 
 383:../../Middlewares/LVGL/GUI/lvgl/src/misc/cache/class/lv_cache_lru_rb.c **** static void drop_all_cb(lv_cache_t * cache, void * user_data)
 384:../../Middlewares/LVGL/GUI/lvgl/src/misc/cache/class/lv_cache_lru_rb.c **** {
 385:../../Middlewares/LVGL/GUI/lvgl/src/misc/cache/class/lv_cache_lru_rb.c ****     lv_lru_rb_t_ * lru = (lv_lru_rb_t_ *)cache;
 386:../../Middlewares/LVGL/GUI/lvgl/src/misc/cache/class/lv_cache_lru_rb.c **** 
 387:../../Middlewares/LVGL/GUI/lvgl/src/misc/cache/class/lv_cache_lru_rb.c ****     LV_ASSERT_NULL(lru);
 388:../../Middlewares/LVGL/GUI/lvgl/src/misc/cache/class/lv_cache_lru_rb.c **** 
 389:../../Middlewares/LVGL/GUI/lvgl/src/misc/cache/class/lv_cache_lru_rb.c ****     if(lru == NULL) {
 390:../../Middlewares/LVGL/GUI/lvgl/src/misc/cache/class/lv_cache_lru_rb.c ****         return;
 391:../../Middlewares/LVGL/GUI/lvgl/src/misc/cache/class/lv_cache_lru_rb.c ****     }
 392:../../Middlewares/LVGL/GUI/lvgl/src/misc/cache/class/lv_cache_lru_rb.c **** 
 393:../../Middlewares/LVGL/GUI/lvgl/src/misc/cache/class/lv_cache_lru_rb.c ****     uint32_t used_cnt = 0;
 394:../../Middlewares/LVGL/GUI/lvgl/src/misc/cache/class/lv_cache_lru_rb.c ****     lv_rb_node_t ** node;
 395:../../Middlewares/LVGL/GUI/lvgl/src/misc/cache/class/lv_cache_lru_rb.c ****     LV_LL_READ(&lru->ll, node) {
 396:../../Middlewares/LVGL/GUI/lvgl/src/misc/cache/class/lv_cache_lru_rb.c ****         /*free user handled data and do other clean up*/
 397:../../Middlewares/LVGL/GUI/lvgl/src/misc/cache/class/lv_cache_lru_rb.c ****         void * search_key = (*node)->data;
 398:../../Middlewares/LVGL/GUI/lvgl/src/misc/cache/class/lv_cache_lru_rb.c ****         lv_cache_entry_t * entry = lv_cache_entry_get_entry(search_key, cache->node_size);
 399:../../Middlewares/LVGL/GUI/lvgl/src/misc/cache/class/lv_cache_lru_rb.c ****         if(lv_cache_entry_get_ref(entry) == 0) {
 400:../../Middlewares/LVGL/GUI/lvgl/src/misc/cache/class/lv_cache_lru_rb.c ****             lru->cache.ops.free_cb(search_key, user_data);
 401:../../Middlewares/LVGL/GUI/lvgl/src/misc/cache/class/lv_cache_lru_rb.c ****         }
 402:../../Middlewares/LVGL/GUI/lvgl/src/misc/cache/class/lv_cache_lru_rb.c ****         else {
 403:../../Middlewares/LVGL/GUI/lvgl/src/misc/cache/class/lv_cache_lru_rb.c ****             LV_LOG_WARN("entry (%p) is still referenced (%" LV_PRId32 ")", (void *)entry, lv_cache_
 404:../../Middlewares/LVGL/GUI/lvgl/src/misc/cache/class/lv_cache_lru_rb.c ****             used_cnt++;
 405:../../Middlewares/LVGL/GUI/lvgl/src/misc/cache/class/lv_cache_lru_rb.c ****         }
 406:../../Middlewares/LVGL/GUI/lvgl/src/misc/cache/class/lv_cache_lru_rb.c ****     }
 407:../../Middlewares/LVGL/GUI/lvgl/src/misc/cache/class/lv_cache_lru_rb.c ****     if(used_cnt > 0) {
 408:../../Middlewares/LVGL/GUI/lvgl/src/misc/cache/class/lv_cache_lru_rb.c ****         LV_LOG_WARN("%" LV_PRId32 " entries are still referenced", used_cnt);
 409:../../Middlewares/LVGL/GUI/lvgl/src/misc/cache/class/lv_cache_lru_rb.c ****     }
 410:../../Middlewares/LVGL/GUI/lvgl/src/misc/cache/class/lv_cache_lru_rb.c **** 
 411:../../Middlewares/LVGL/GUI/lvgl/src/misc/cache/class/lv_cache_lru_rb.c ****     lv_rb_destroy(&lru->rb);
 412:../../Middlewares/LVGL/GUI/lvgl/src/misc/cache/class/lv_cache_lru_rb.c ****     lv_ll_clear(&lru->ll);
 413:../../Middlewares/LVGL/GUI/lvgl/src/misc/cache/class/lv_cache_lru_rb.c **** 
 414:../../Middlewares/LVGL/GUI/lvgl/src/misc/cache/class/lv_cache_lru_rb.c ****     cache->size = 0;
 415:../../Middlewares/LVGL/GUI/lvgl/src/misc/cache/class/lv_cache_lru_rb.c **** }
 416:../../Middlewares/LVGL/GUI/lvgl/src/misc/cache/class/lv_cache_lru_rb.c **** 
 417:../../Middlewares/LVGL/GUI/lvgl/src/misc/cache/class/lv_cache_lru_rb.c **** static lv_cache_entry_t * get_victim_cb(lv_cache_t * cache, void * user_data)
 418:../../Middlewares/LVGL/GUI/lvgl/src/misc/cache/class/lv_cache_lru_rb.c **** {
 419:../../Middlewares/LVGL/GUI/lvgl/src/misc/cache/class/lv_cache_lru_rb.c ****     LV_UNUSED(user_data);
 420:../../Middlewares/LVGL/GUI/lvgl/src/misc/cache/class/lv_cache_lru_rb.c **** 
 421:../../Middlewares/LVGL/GUI/lvgl/src/misc/cache/class/lv_cache_lru_rb.c ****     lv_lru_rb_t_ * lru = (lv_lru_rb_t_ *)cache;
 422:../../Middlewares/LVGL/GUI/lvgl/src/misc/cache/class/lv_cache_lru_rb.c **** 
 423:../../Middlewares/LVGL/GUI/lvgl/src/misc/cache/class/lv_cache_lru_rb.c ****     LV_ASSERT_NULL(lru);
 424:../../Middlewares/LVGL/GUI/lvgl/src/misc/cache/class/lv_cache_lru_rb.c **** 
 425:../../Middlewares/LVGL/GUI/lvgl/src/misc/cache/class/lv_cache_lru_rb.c ****     lv_rb_node_t ** tail;
 426:../../Middlewares/LVGL/GUI/lvgl/src/misc/cache/class/lv_cache_lru_rb.c ****     LV_LL_READ_BACK(&lru->ll, tail) {
 427:../../Middlewares/LVGL/GUI/lvgl/src/misc/cache/class/lv_cache_lru_rb.c ****         lv_rb_node_t * tail_node = *tail;
 428:../../Middlewares/LVGL/GUI/lvgl/src/misc/cache/class/lv_cache_lru_rb.c ****         lv_cache_entry_t * entry = lv_cache_entry_get_entry(tail_node->data, cache->node_size);
 429:../../Middlewares/LVGL/GUI/lvgl/src/misc/cache/class/lv_cache_lru_rb.c ****         if(lv_cache_entry_get_ref(entry) == 0) {
 430:../../Middlewares/LVGL/GUI/lvgl/src/misc/cache/class/lv_cache_lru_rb.c ****             return entry;
 431:../../Middlewares/LVGL/GUI/lvgl/src/misc/cache/class/lv_cache_lru_rb.c ****         }
ARM GAS  C:\Users\28576\AppData\Local\Temp\ccwWQGxs.s 			page 10


 432:../../Middlewares/LVGL/GUI/lvgl/src/misc/cache/class/lv_cache_lru_rb.c ****     }
 433:../../Middlewares/LVGL/GUI/lvgl/src/misc/cache/class/lv_cache_lru_rb.c **** 
 434:../../Middlewares/LVGL/GUI/lvgl/src/misc/cache/class/lv_cache_lru_rb.c ****     return NULL;
 435:../../Middlewares/LVGL/GUI/lvgl/src/misc/cache/class/lv_cache_lru_rb.c **** }
 436:../../Middlewares/LVGL/GUI/lvgl/src/misc/cache/class/lv_cache_lru_rb.c **** 
 437:../../Middlewares/LVGL/GUI/lvgl/src/misc/cache/class/lv_cache_lru_rb.c **** static lv_cache_reserve_cond_res_t reserve_cond_cb(lv_cache_t * cache, const void * key, size_t res
 438:../../Middlewares/LVGL/GUI/lvgl/src/misc/cache/class/lv_cache_lru_rb.c ****                                                    void * user_data)
 439:../../Middlewares/LVGL/GUI/lvgl/src/misc/cache/class/lv_cache_lru_rb.c **** {
  80              		.loc 1 439 1 view -0
  81              		.cfi_startproc
  82              		@ args = 0, pretend = 0, frame = 0
  83              		@ frame_needed = 0, uses_anonymous_args = 0
 440:../../Middlewares/LVGL/GUI/lvgl/src/misc/cache/class/lv_cache_lru_rb.c ****     LV_UNUSED(user_data);
  84              		.loc 1 440 5 view .LVU20
 441:../../Middlewares/LVGL/GUI/lvgl/src/misc/cache/class/lv_cache_lru_rb.c **** 
 442:../../Middlewares/LVGL/GUI/lvgl/src/misc/cache/class/lv_cache_lru_rb.c ****     lv_lru_rb_t_ * lru = (lv_lru_rb_t_ *)cache;
  85              		.loc 1 442 5 view .LVU21
 443:../../Middlewares/LVGL/GUI/lvgl/src/misc/cache/class/lv_cache_lru_rb.c **** 
 444:../../Middlewares/LVGL/GUI/lvgl/src/misc/cache/class/lv_cache_lru_rb.c ****     LV_ASSERT_NULL(lru);
  86              		.loc 1 444 5 view .LVU22
  87              		.loc 1 444 5 view .LVU23
  88 0000 88B1     		cbz	r0, .L8
 439:../../Middlewares/LVGL/GUI/lvgl/src/misc/cache/class/lv_cache_lru_rb.c ****     LV_UNUSED(user_data);
  89              		.loc 1 439 1 is_stmt 0 view .LVU24
  90 0002 38B5     		push	{r3, r4, r5, lr}
  91              	.LCFI2:
  92              		.cfi_def_cfa_offset 16
  93              		.cfi_offset 3, -16
  94              		.cfi_offset 4, -12
  95              		.cfi_offset 5, -8
  96              		.cfi_offset 14, -4
  97 0004 1546     		mov	r5, r2
  98 0006 0446     		mov	r4, r0
  99              		.loc 1 444 5 is_stmt 1 view .LVU25
 100              		.loc 1 444 24 view .LVU26
 445:../../Middlewares/LVGL/GUI/lvgl/src/misc/cache/class/lv_cache_lru_rb.c **** 
 446:../../Middlewares/LVGL/GUI/lvgl/src/misc/cache/class/lv_cache_lru_rb.c ****     if(lru == NULL) {
 101              		.loc 1 446 5 view .LVU27
 447:../../Middlewares/LVGL/GUI/lvgl/src/misc/cache/class/lv_cache_lru_rb.c ****         return LV_CACHE_RESERVE_COND_ERROR;
 448:../../Middlewares/LVGL/GUI/lvgl/src/misc/cache/class/lv_cache_lru_rb.c ****     }
 449:../../Middlewares/LVGL/GUI/lvgl/src/misc/cache/class/lv_cache_lru_rb.c **** 
 450:../../Middlewares/LVGL/GUI/lvgl/src/misc/cache/class/lv_cache_lru_rb.c ****     uint32_t data_size = key ? lru->get_data_size_cb(key) : 0;
 102              		.loc 1 450 5 view .LVU28
 103              		.loc 1 450 59 is_stmt 0 view .LVU29
 104 0008 71B1     		cbz	r1, .L11
 105              		.loc 1 450 35 discriminator 1 view .LVU30
 106 000a C36B     		ldr	r3, [r0, #60]
 107              	.LVL4:
 108              		.loc 1 450 32 discriminator 1 view .LVU31
 109 000c 0846     		mov	r0, r1
 110              	.LVL5:
 111              		.loc 1 450 32 discriminator 1 view .LVU32
 112 000e 9847     		blx	r3
 113              	.LVL6:
 451:../../Middlewares/LVGL/GUI/lvgl/src/misc/cache/class/lv_cache_lru_rb.c ****     if(data_size > lru->cache.max_size) {
 114              		.loc 1 451 5 is_stmt 1 view .LVU33
 115              		.loc 1 451 30 is_stmt 0 view .LVU34
ARM GAS  C:\Users\28576\AppData\Local\Temp\ccwWQGxs.s 			page 11


 116 0010 A368     		ldr	r3, [r4, #8]
 117              		.loc 1 451 7 view .LVU35
 118 0012 8342     		cmp	r3, r0
 119 0014 0CD3     		bcc	.L16
 120              	.LVL7:
 121              	.L9:
 452:../../Middlewares/LVGL/GUI/lvgl/src/misc/cache/class/lv_cache_lru_rb.c ****         LV_LOG_ERROR("data size (%" LV_PRIu32 ") is larger than max size (%" LV_PRIu32 ")", data_si
 453:../../Middlewares/LVGL/GUI/lvgl/src/misc/cache/class/lv_cache_lru_rb.c ****         return LV_CACHE_RESERVE_COND_TOO_LARGE;
 454:../../Middlewares/LVGL/GUI/lvgl/src/misc/cache/class/lv_cache_lru_rb.c ****     }
 455:../../Middlewares/LVGL/GUI/lvgl/src/misc/cache/class/lv_cache_lru_rb.c **** 
 456:../../Middlewares/LVGL/GUI/lvgl/src/misc/cache/class/lv_cache_lru_rb.c ****     return cache->size + reserved_size + data_size > lru->cache.max_size
 122              		.loc 1 456 5 is_stmt 1 view .LVU36
 123              		.loc 1 456 17 is_stmt 0 view .LVU37
 124 0016 E368     		ldr	r3, [r4, #12]
 125              		.loc 1 456 24 view .LVU38
 126 0018 2B44     		add	r3, r3, r5
 127              		.loc 1 456 40 view .LVU39
 128 001a 0344     		add	r3, r3, r0
 129              		.loc 1 456 64 view .LVU40
 130 001c A268     		ldr	r2, [r4, #8]
 457:../../Middlewares/LVGL/GUI/lvgl/src/misc/cache/class/lv_cache_lru_rb.c ****            ? LV_CACHE_RESERVE_COND_NEED_VICTIM
 458:../../Middlewares/LVGL/GUI/lvgl/src/misc/cache/class/lv_cache_lru_rb.c ****            : LV_CACHE_RESERVE_COND_OK;
 131              		.loc 1 458 12 view .LVU41
 132 001e 9342     		cmp	r3, r2
 133 0020 04D8     		bhi	.L17
 134              		.loc 1 458 12 discriminator 2 view .LVU42
 135 0022 0020     		movs	r0, #0
 136              	.L10:
 459:../../Middlewares/LVGL/GUI/lvgl/src/misc/cache/class/lv_cache_lru_rb.c **** }
 137              		.loc 1 459 1 view .LVU43
 138 0024 38BD     		pop	{r3, r4, r5, pc}
 139              	.LVL8:
 140              	.L8:
 141              	.LCFI3:
 142              		.cfi_def_cfa_offset 0
 143              		.cfi_restore 3
 144              		.cfi_restore 4
 145              		.cfi_restore 5
 146              		.cfi_restore 14
 444:../../Middlewares/LVGL/GUI/lvgl/src/misc/cache/class/lv_cache_lru_rb.c **** 
 147              		.loc 1 444 5 is_stmt 1 view .LVU44
 444:../../Middlewares/LVGL/GUI/lvgl/src/misc/cache/class/lv_cache_lru_rb.c **** 
 148              		.loc 1 444 5 view .LVU45
 444:../../Middlewares/LVGL/GUI/lvgl/src/misc/cache/class/lv_cache_lru_rb.c **** 
 149              		.loc 1 444 5 view .LVU46
 444:../../Middlewares/LVGL/GUI/lvgl/src/misc/cache/class/lv_cache_lru_rb.c **** 
 150              		.loc 1 444 5 view .LVU47
 444:../../Middlewares/LVGL/GUI/lvgl/src/misc/cache/class/lv_cache_lru_rb.c **** 
 151              		.loc 1 444 5 view .LVU48
 152 0026 FEE7     		b	.L8
 153              	.L11:
 154              	.LCFI4:
 155              		.cfi_def_cfa_offset 16
 156              		.cfi_offset 3, -16
 157              		.cfi_offset 4, -12
 158              		.cfi_offset 5, -8
 159              		.cfi_offset 14, -4
ARM GAS  C:\Users\28576\AppData\Local\Temp\ccwWQGxs.s 			page 12


 450:../../Middlewares/LVGL/GUI/lvgl/src/misc/cache/class/lv_cache_lru_rb.c ****     if(data_size > lru->cache.max_size) {
 160              		.loc 1 450 14 is_stmt 0 discriminator 2 view .LVU49
 161 0028 0846     		mov	r0, r1
 162              	.LVL9:
 450:../../Middlewares/LVGL/GUI/lvgl/src/misc/cache/class/lv_cache_lru_rb.c ****     if(data_size > lru->cache.max_size) {
 163              		.loc 1 450 14 discriminator 2 view .LVU50
 164 002a F4E7     		b	.L9
 165              	.LVL10:
 166              	.L17:
 458:../../Middlewares/LVGL/GUI/lvgl/src/misc/cache/class/lv_cache_lru_rb.c **** }
 167              		.loc 1 458 12 discriminator 1 view .LVU51
 168 002c 0220     		movs	r0, #2
 169 002e F9E7     		b	.L10
 170              	.LVL11:
 171              	.L16:
 453:../../Middlewares/LVGL/GUI/lvgl/src/misc/cache/class/lv_cache_lru_rb.c ****     }
 172              		.loc 1 453 16 view .LVU52
 173 0030 0120     		movs	r0, #1
 174              	.LVL12:
 453:../../Middlewares/LVGL/GUI/lvgl/src/misc/cache/class/lv_cache_lru_rb.c ****     }
 175              		.loc 1 453 16 view .LVU53
 176 0032 F7E7     		b	.L10
 177              		.cfi_endproc
 178              	.LFE29:
 180              		.section	.text.cnt_get_data_size_cb,"ax",%progbits
 181              		.align	1
 182              		.syntax unified
 183              		.thumb
 184              		.thumb_func
 186              	cnt_get_data_size_cb:
 187              	.LVL13:
 188              	.LFB30:
 460:../../Middlewares/LVGL/GUI/lvgl/src/misc/cache/class/lv_cache_lru_rb.c **** 
 461:../../Middlewares/LVGL/GUI/lvgl/src/misc/cache/class/lv_cache_lru_rb.c **** static uint32_t cnt_get_data_size_cb(const void * data)
 462:../../Middlewares/LVGL/GUI/lvgl/src/misc/cache/class/lv_cache_lru_rb.c **** {
 189              		.loc 1 462 1 is_stmt 1 view -0
 190              		.cfi_startproc
 191              		@ args = 0, pretend = 0, frame = 0
 192              		@ frame_needed = 0, uses_anonymous_args = 0
 193              		@ link register save eliminated.
 463:../../Middlewares/LVGL/GUI/lvgl/src/misc/cache/class/lv_cache_lru_rb.c ****     LV_UNUSED(data);
 194              		.loc 1 463 5 view .LVU55
 464:../../Middlewares/LVGL/GUI/lvgl/src/misc/cache/class/lv_cache_lru_rb.c ****     return 1;
 195              		.loc 1 464 5 view .LVU56
 465:../../Middlewares/LVGL/GUI/lvgl/src/misc/cache/class/lv_cache_lru_rb.c **** }
 196              		.loc 1 465 1 is_stmt 0 view .LVU57
 197 0000 0120     		movs	r0, #1
 198              	.LVL14:
 199              		.loc 1 465 1 view .LVU58
 200 0002 7047     		bx	lr
 201              		.cfi_endproc
 202              	.LFE30:
 204              		.section	.text.size_get_data_size_cb,"ax",%progbits
 205              		.align	1
 206              		.syntax unified
 207              		.thumb
 208              		.thumb_func
ARM GAS  C:\Users\28576\AppData\Local\Temp\ccwWQGxs.s 			page 13


 210              	size_get_data_size_cb:
 211              	.LVL15:
 212              	.LFB31:
 466:../../Middlewares/LVGL/GUI/lvgl/src/misc/cache/class/lv_cache_lru_rb.c **** 
 467:../../Middlewares/LVGL/GUI/lvgl/src/misc/cache/class/lv_cache_lru_rb.c **** static uint32_t size_get_data_size_cb(const void * data)
 468:../../Middlewares/LVGL/GUI/lvgl/src/misc/cache/class/lv_cache_lru_rb.c **** {
 213              		.loc 1 468 1 is_stmt 1 view -0
 214              		.cfi_startproc
 215              		@ args = 0, pretend = 0, frame = 0
 216              		@ frame_needed = 0, uses_anonymous_args = 0
 217              		@ link register save eliminated.
 469:../../Middlewares/LVGL/GUI/lvgl/src/misc/cache/class/lv_cache_lru_rb.c ****     lv_cache_slot_size_t * slot = (lv_cache_slot_size_t *)data;
 218              		.loc 1 469 5 view .LVU60
 470:../../Middlewares/LVGL/GUI/lvgl/src/misc/cache/class/lv_cache_lru_rb.c ****     return slot->size;
 219              		.loc 1 470 5 view .LVU61
 471:../../Middlewares/LVGL/GUI/lvgl/src/misc/cache/class/lv_cache_lru_rb.c **** }
 220              		.loc 1 471 1 is_stmt 0 view .LVU62
 221 0000 0068     		ldr	r0, [r0]
 222              	.LVL16:
 223              		.loc 1 471 1 view .LVU63
 224 0002 7047     		bx	lr
 225              		.cfi_endproc
 226              	.LFE31:
 228              		.section	.text.cache_iter_create_cb,"ax",%progbits
 229              		.align	1
 230              		.syntax unified
 231              		.thumb
 232              		.thumb_func
 234              	cache_iter_create_cb:
 235              	.LVL17:
 236              	.LFB32:
 472:../../Middlewares/LVGL/GUI/lvgl/src/misc/cache/class/lv_cache_lru_rb.c **** 
 473:../../Middlewares/LVGL/GUI/lvgl/src/misc/cache/class/lv_cache_lru_rb.c **** static lv_iter_t * cache_iter_create_cb(lv_cache_t * cache)
 474:../../Middlewares/LVGL/GUI/lvgl/src/misc/cache/class/lv_cache_lru_rb.c **** {
 237              		.loc 1 474 1 is_stmt 1 view -0
 238              		.cfi_startproc
 239              		@ args = 0, pretend = 0, frame = 0
 240              		@ frame_needed = 0, uses_anonymous_args = 0
 241              		.loc 1 474 1 is_stmt 0 view .LVU65
 242 0000 10B5     		push	{r4, lr}
 243              	.LCFI5:
 244              		.cfi_def_cfa_offset 8
 245              		.cfi_offset 4, -8
 246              		.cfi_offset 14, -4
 247 0002 0446     		mov	r4, r0
 475:../../Middlewares/LVGL/GUI/lvgl/src/misc/cache/class/lv_cache_lru_rb.c ****     return lv_iter_create(cache, lv_cache_entry_get_size(cache->node_size), sizeof(void *), cache_i
 248              		.loc 1 475 5 is_stmt 1 view .LVU66
 249              		.loc 1 475 12 is_stmt 0 view .LVU67
 250 0004 4068     		ldr	r0, [r0, #4]
 251              	.LVL18:
 252              		.loc 1 475 12 view .LVU68
 253 0006 FFF7FEFF 		bl	lv_cache_entry_get_size
 254              	.LVL19:
 255 000a 0146     		mov	r1, r0
 256              		.loc 1 475 12 discriminator 1 view .LVU69
 257 000c 024B     		ldr	r3, .L22
 258 000e 0422     		movs	r2, #4
ARM GAS  C:\Users\28576\AppData\Local\Temp\ccwWQGxs.s 			page 14


 259 0010 2046     		mov	r0, r4
 260 0012 FFF7FEFF 		bl	lv_iter_create
 261              	.LVL20:
 476:../../Middlewares/LVGL/GUI/lvgl/src/misc/cache/class/lv_cache_lru_rb.c **** }
 262              		.loc 1 476 1 view .LVU70
 263 0016 10BD     		pop	{r4, pc}
 264              	.LVL21:
 265              	.L23:
 266              		.loc 1 476 1 view .LVU71
 267              		.align	2
 268              	.L22:
 269 0018 00000000 		.word	cache_iter_next_cb
 270              		.cfi_endproc
 271              	.LFE32:
 273              		.section	.text.cache_iter_next_cb,"ax",%progbits
 274              		.align	1
 275              		.syntax unified
 276              		.thumb
 277              		.thumb_func
 279              	cache_iter_next_cb:
 280              	.LVL22:
 281              	.LFB33:
 477:../../Middlewares/LVGL/GUI/lvgl/src/misc/cache/class/lv_cache_lru_rb.c **** 
 478:../../Middlewares/LVGL/GUI/lvgl/src/misc/cache/class/lv_cache_lru_rb.c **** static lv_result_t cache_iter_next_cb(void * instance, void * context, void * elem)
 479:../../Middlewares/LVGL/GUI/lvgl/src/misc/cache/class/lv_cache_lru_rb.c **** {
 282              		.loc 1 479 1 is_stmt 1 view -0
 283              		.cfi_startproc
 284              		@ args = 0, pretend = 0, frame = 0
 285              		@ frame_needed = 0, uses_anonymous_args = 0
 480:../../Middlewares/LVGL/GUI/lvgl/src/misc/cache/class/lv_cache_lru_rb.c ****     lv_lru_rb_t_ * lru = (lv_lru_rb_t_ *)instance;
 286              		.loc 1 480 5 view .LVU73
 481:../../Middlewares/LVGL/GUI/lvgl/src/misc/cache/class/lv_cache_lru_rb.c ****     lv_rb_node_t *** ll_node = context;
 287              		.loc 1 481 5 view .LVU74
 482:../../Middlewares/LVGL/GUI/lvgl/src/misc/cache/class/lv_cache_lru_rb.c **** 
 483:../../Middlewares/LVGL/GUI/lvgl/src/misc/cache/class/lv_cache_lru_rb.c ****     LV_ASSERT_NULL(ll_node);
 288              		.loc 1 483 5 view .LVU75
 289              		.loc 1 483 5 view .LVU76
 290 0000 B9B1     		cbz	r1, .L26
 479:../../Middlewares/LVGL/GUI/lvgl/src/misc/cache/class/lv_cache_lru_rb.c ****     lv_lru_rb_t_ * lru = (lv_lru_rb_t_ *)instance;
 291              		.loc 1 479 1 is_stmt 0 view .LVU77
 292 0002 70B5     		push	{r4, r5, r6, lr}
 293              	.LCFI6:
 294              		.cfi_def_cfa_offset 16
 295              		.cfi_offset 4, -16
 296              		.cfi_offset 5, -12
 297              		.cfi_offset 6, -8
 298              		.cfi_offset 14, -4
 299 0004 0546     		mov	r5, r0
 300 0006 1646     		mov	r6, r2
 301 0008 0C46     		mov	r4, r1
 302              		.loc 1 483 5 is_stmt 1 view .LVU78
 303              		.loc 1 483 28 view .LVU79
 484:../../Middlewares/LVGL/GUI/lvgl/src/misc/cache/class/lv_cache_lru_rb.c **** 
 485:../../Middlewares/LVGL/GUI/lvgl/src/misc/cache/class/lv_cache_lru_rb.c ****     if(*ll_node == NULL) *ll_node = lv_ll_get_head(&lru->ll);
 304              		.loc 1 485 5 view .LVU80
 305              		.loc 1 485 8 is_stmt 0 view .LVU81
 306 000a 0968     		ldr	r1, [r1]
ARM GAS  C:\Users\28576\AppData\Local\Temp\ccwWQGxs.s 			page 15


 307              	.LVL23:
 308              		.loc 1 485 7 view .LVU82
 309 000c 91B1     		cbz	r1, .L33
 486:../../Middlewares/LVGL/GUI/lvgl/src/misc/cache/class/lv_cache_lru_rb.c ****     else *ll_node = lv_ll_get_next(&lru->ll, *ll_node);
 310              		.loc 1 486 10 is_stmt 1 view .LVU83
 311              		.loc 1 486 21 is_stmt 0 view .LVU84
 312 000e 3030     		adds	r0, r0, #48
 313              	.LVL24:
 314              		.loc 1 486 21 view .LVU85
 315 0010 FFF7FEFF 		bl	lv_ll_get_next
 316              	.LVL25:
 317              		.loc 1 486 19 discriminator 1 view .LVU86
 318 0014 2060     		str	r0, [r4]
 319              	.L28:
 487:../../Middlewares/LVGL/GUI/lvgl/src/misc/cache/class/lv_cache_lru_rb.c **** 
 488:../../Middlewares/LVGL/GUI/lvgl/src/misc/cache/class/lv_cache_lru_rb.c ****     lv_rb_node_t ** node = *ll_node;
 320              		.loc 1 488 5 is_stmt 1 view .LVU87
 321              		.loc 1 488 21 is_stmt 0 view .LVU88
 322 0016 2368     		ldr	r3, [r4]
 323              	.LVL26:
 489:../../Middlewares/LVGL/GUI/lvgl/src/misc/cache/class/lv_cache_lru_rb.c **** 
 490:../../Middlewares/LVGL/GUI/lvgl/src/misc/cache/class/lv_cache_lru_rb.c ****     if(node == NULL) return LV_RESULT_INVALID;
 324              		.loc 1 490 5 is_stmt 1 view .LVU89
 325              		.loc 1 490 7 is_stmt 0 view .LVU90
 326 0018 8BB1     		cbz	r3, .L30
 491:../../Middlewares/LVGL/GUI/lvgl/src/misc/cache/class/lv_cache_lru_rb.c **** 
 492:../../Middlewares/LVGL/GUI/lvgl/src/misc/cache/class/lv_cache_lru_rb.c ****     uint32_t node_size = lru->cache.node_size;
 327              		.loc 1 492 5 is_stmt 1 view .LVU91
 328              	.LVL27:
 493:../../Middlewares/LVGL/GUI/lvgl/src/misc/cache/class/lv_cache_lru_rb.c ****     void * search_key = (*node)->data;
 329              		.loc 1 493 5 view .LVU92
 330              		.loc 1 493 26 is_stmt 0 view .LVU93
 331 001a 1B68     		ldr	r3, [r3]
 332              	.LVL28:
 333              		.loc 1 493 12 view .LVU94
 334 001c 1C69     		ldr	r4, [r3, #16]
 335              	.LVL29:
 494:../../Middlewares/LVGL/GUI/lvgl/src/misc/cache/class/lv_cache_lru_rb.c ****     lv_memcpy(elem, search_key, lv_cache_entry_get_size(node_size));
 336              		.loc 1 494 5 is_stmt 1 view .LVU95
 337              		.loc 1 494 33 is_stmt 0 view .LVU96
 338 001e 6868     		ldr	r0, [r5, #4]
 339 0020 FFF7FEFF 		bl	lv_cache_entry_get_size
 340              	.LVL30:
 341              		.loc 1 494 33 view .LVU97
 342 0024 0246     		mov	r2, r0
 343              		.loc 1 494 5 discriminator 1 view .LVU98
 344 0026 2146     		mov	r1, r4
 345 0028 3046     		mov	r0, r6
 346 002a FFF7FEFF 		bl	lv_memcpy
 347              	.LVL31:
 495:../../Middlewares/LVGL/GUI/lvgl/src/misc/cache/class/lv_cache_lru_rb.c **** 
 496:../../Middlewares/LVGL/GUI/lvgl/src/misc/cache/class/lv_cache_lru_rb.c ****     return LV_RESULT_OK;
 348              		.loc 1 496 5 is_stmt 1 view .LVU99
 349              		.loc 1 496 12 is_stmt 0 view .LVU100
 350 002e 0120     		movs	r0, #1
 351              	.LVL32:
 352              	.L29:
ARM GAS  C:\Users\28576\AppData\Local\Temp\ccwWQGxs.s 			page 16


 497:../../Middlewares/LVGL/GUI/lvgl/src/misc/cache/class/lv_cache_lru_rb.c **** }
 353              		.loc 1 497 1 view .LVU101
 354 0030 70BD     		pop	{r4, r5, r6, pc}
 355              	.LVL33:
 356              	.L26:
 357              	.LCFI7:
 358              		.cfi_def_cfa_offset 0
 359              		.cfi_restore 4
 360              		.cfi_restore 5
 361              		.cfi_restore 6
 362              		.cfi_restore 14
 483:../../Middlewares/LVGL/GUI/lvgl/src/misc/cache/class/lv_cache_lru_rb.c **** 
 363              		.loc 1 483 5 is_stmt 1 view .LVU102
 483:../../Middlewares/LVGL/GUI/lvgl/src/misc/cache/class/lv_cache_lru_rb.c **** 
 364              		.loc 1 483 5 view .LVU103
 483:../../Middlewares/LVGL/GUI/lvgl/src/misc/cache/class/lv_cache_lru_rb.c **** 
 365              		.loc 1 483 5 view .LVU104
 483:../../Middlewares/LVGL/GUI/lvgl/src/misc/cache/class/lv_cache_lru_rb.c **** 
 366              		.loc 1 483 5 view .LVU105
 483:../../Middlewares/LVGL/GUI/lvgl/src/misc/cache/class/lv_cache_lru_rb.c **** 
 367              		.loc 1 483 5 view .LVU106
 368 0032 FEE7     		b	.L26
 369              	.LVL34:
 370              	.L33:
 371              	.LCFI8:
 372              		.cfi_def_cfa_offset 16
 373              		.cfi_offset 4, -16
 374              		.cfi_offset 5, -12
 375              		.cfi_offset 6, -8
 376              		.cfi_offset 14, -4
 485:../../Middlewares/LVGL/GUI/lvgl/src/misc/cache/class/lv_cache_lru_rb.c ****     else *ll_node = lv_ll_get_next(&lru->ll, *ll_node);
 377              		.loc 1 485 26 discriminator 1 view .LVU107
 485:../../Middlewares/LVGL/GUI/lvgl/src/misc/cache/class/lv_cache_lru_rb.c ****     else *ll_node = lv_ll_get_next(&lru->ll, *ll_node);
 378              		.loc 1 485 37 is_stmt 0 discriminator 1 view .LVU108
 379 0034 3030     		adds	r0, r0, #48
 380              	.LVL35:
 485:../../Middlewares/LVGL/GUI/lvgl/src/misc/cache/class/lv_cache_lru_rb.c ****     else *ll_node = lv_ll_get_next(&lru->ll, *ll_node);
 381              		.loc 1 485 37 discriminator 1 view .LVU109
 382 0036 FFF7FEFF 		bl	lv_ll_get_head
 383              	.LVL36:
 485:../../Middlewares/LVGL/GUI/lvgl/src/misc/cache/class/lv_cache_lru_rb.c ****     else *ll_node = lv_ll_get_next(&lru->ll, *ll_node);
 384              		.loc 1 485 35 discriminator 2 view .LVU110
 385 003a 2060     		str	r0, [r4]
 386 003c EBE7     		b	.L28
 387              	.LVL37:
 388              	.L30:
 490:../../Middlewares/LVGL/GUI/lvgl/src/misc/cache/class/lv_cache_lru_rb.c **** 
 389              		.loc 1 490 29 discriminator 1 view .LVU111
 390 003e 1846     		mov	r0, r3
 391 0040 F6E7     		b	.L29
 392              		.cfi_endproc
 393              	.LFE33:
 395              		.section	.text.get_victim_cb,"ax",%progbits
 396              		.align	1
 397              		.syntax unified
 398              		.thumb
 399              		.thumb_func
ARM GAS  C:\Users\28576\AppData\Local\Temp\ccwWQGxs.s 			page 17


 401              	get_victim_cb:
 402              	.LVL38:
 403              	.LFB28:
 418:../../Middlewares/LVGL/GUI/lvgl/src/misc/cache/class/lv_cache_lru_rb.c ****     LV_UNUSED(user_data);
 404              		.loc 1 418 1 is_stmt 1 view -0
 405              		.cfi_startproc
 406              		@ args = 0, pretend = 0, frame = 0
 407              		@ frame_needed = 0, uses_anonymous_args = 0
 419:../../Middlewares/LVGL/GUI/lvgl/src/misc/cache/class/lv_cache_lru_rb.c **** 
 408              		.loc 1 419 5 view .LVU113
 421:../../Middlewares/LVGL/GUI/lvgl/src/misc/cache/class/lv_cache_lru_rb.c **** 
 409              		.loc 1 421 5 view .LVU114
 423:../../Middlewares/LVGL/GUI/lvgl/src/misc/cache/class/lv_cache_lru_rb.c **** 
 410              		.loc 1 423 5 view .LVU115
 423:../../Middlewares/LVGL/GUI/lvgl/src/misc/cache/class/lv_cache_lru_rb.c **** 
 411              		.loc 1 423 5 view .LVU116
 412 0000 B8B1     		cbz	r0, .L36
 418:../../Middlewares/LVGL/GUI/lvgl/src/misc/cache/class/lv_cache_lru_rb.c ****     LV_UNUSED(user_data);
 413              		.loc 1 418 1 is_stmt 0 view .LVU117
 414 0002 F8B5     		push	{r3, r4, r5, r6, r7, lr}
 415              	.LCFI9:
 416              		.cfi_def_cfa_offset 24
 417              		.cfi_offset 3, -24
 418              		.cfi_offset 4, -20
 419              		.cfi_offset 5, -16
 420              		.cfi_offset 6, -12
 421              		.cfi_offset 7, -8
 422              		.cfi_offset 14, -4
 423 0004 0546     		mov	r5, r0
 423:../../Middlewares/LVGL/GUI/lvgl/src/misc/cache/class/lv_cache_lru_rb.c **** 
 424              		.loc 1 423 5 is_stmt 1 view .LVU118
 423:../../Middlewares/LVGL/GUI/lvgl/src/misc/cache/class/lv_cache_lru_rb.c **** 
 425              		.loc 1 423 24 view .LVU119
 425:../../Middlewares/LVGL/GUI/lvgl/src/misc/cache/class/lv_cache_lru_rb.c ****     LV_LL_READ_BACK(&lru->ll, tail) {
 426              		.loc 1 425 5 view .LVU120
 426:../../Middlewares/LVGL/GUI/lvgl/src/misc/cache/class/lv_cache_lru_rb.c ****         lv_rb_node_t * tail_node = *tail;
 427              		.loc 1 426 5 view .LVU121
 428 0006 00F13006 		add	r6, r0, #48
 429 000a 3046     		mov	r0, r6
 430              	.LVL39:
 426:../../Middlewares/LVGL/GUI/lvgl/src/misc/cache/class/lv_cache_lru_rb.c ****         lv_rb_node_t * tail_node = *tail;
 431              		.loc 1 426 5 is_stmt 0 view .LVU122
 432 000c FFF7FEFF 		bl	lv_ll_get_tail
 433              	.LVL40:
 426:../../Middlewares/LVGL/GUI/lvgl/src/misc/cache/class/lv_cache_lru_rb.c ****         lv_rb_node_t * tail_node = *tail;
 434              		.loc 1 426 5 view .LVU123
 435 0010 0446     		mov	r4, r0
 436              	.LVL41:
 437              	.L37:
 426:../../Middlewares/LVGL/GUI/lvgl/src/misc/cache/class/lv_cache_lru_rb.c ****         lv_rb_node_t * tail_node = *tail;
 438              		.loc 1 426 5 is_stmt 1 discriminator 2 view .LVU124
 439 0012 84B1     		cbz	r4, .L34
 440              	.LBB14:
 427:../../Middlewares/LVGL/GUI/lvgl/src/misc/cache/class/lv_cache_lru_rb.c ****         lv_cache_entry_t * entry = lv_cache_entry_get_entry(tail_node->data, cache->node_size);
 441              		.loc 1 427 9 view .LVU125
 427:../../Middlewares/LVGL/GUI/lvgl/src/misc/cache/class/lv_cache_lru_rb.c ****         lv_cache_entry_t * entry = lv_cache_entry_get_entry(tail_node->data, cache->node_size);
 442              		.loc 1 427 24 is_stmt 0 view .LVU126
ARM GAS  C:\Users\28576\AppData\Local\Temp\ccwWQGxs.s 			page 18


 443 0014 2368     		ldr	r3, [r4]
 444              	.LVL42:
 428:../../Middlewares/LVGL/GUI/lvgl/src/misc/cache/class/lv_cache_lru_rb.c ****         if(lv_cache_entry_get_ref(entry) == 0) {
 445              		.loc 1 428 9 is_stmt 1 view .LVU127
 428:../../Middlewares/LVGL/GUI/lvgl/src/misc/cache/class/lv_cache_lru_rb.c ****         if(lv_cache_entry_get_ref(entry) == 0) {
 446              		.loc 1 428 36 is_stmt 0 view .LVU128
 447 0016 6968     		ldr	r1, [r5, #4]
 448 0018 1869     		ldr	r0, [r3, #16]
 449 001a FFF7FEFF 		bl	lv_cache_entry_get_entry
 450              	.LVL43:
 428:../../Middlewares/LVGL/GUI/lvgl/src/misc/cache/class/lv_cache_lru_rb.c ****         if(lv_cache_entry_get_ref(entry) == 0) {
 451              		.loc 1 428 36 view .LVU129
 452 001e 0746     		mov	r7, r0
 453              	.LVL44:
 429:../../Middlewares/LVGL/GUI/lvgl/src/misc/cache/class/lv_cache_lru_rb.c ****             return entry;
 454              		.loc 1 429 9 is_stmt 1 view .LVU130
 429:../../Middlewares/LVGL/GUI/lvgl/src/misc/cache/class/lv_cache_lru_rb.c ****             return entry;
 455              		.loc 1 429 12 is_stmt 0 view .LVU131
 456 0020 FFF7FEFF 		bl	lv_cache_entry_get_ref
 457              	.LVL45:
 429:../../Middlewares/LVGL/GUI/lvgl/src/misc/cache/class/lv_cache_lru_rb.c ****             return entry;
 458              		.loc 1 429 11 discriminator 1 view .LVU132
 459 0024 30B1     		cbz	r0, .L40
 460              	.LBE14:
 426:../../Middlewares/LVGL/GUI/lvgl/src/misc/cache/class/lv_cache_lru_rb.c ****         lv_rb_node_t * tail_node = *tail;
 461              		.loc 1 426 5 is_stmt 1 discriminator 4 view .LVU133
 462 0026 2146     		mov	r1, r4
 463 0028 3046     		mov	r0, r6
 464 002a FFF7FEFF 		bl	lv_ll_get_prev
 465              	.LVL46:
 466 002e 0446     		mov	r4, r0
 467              	.LVL47:
 426:../../Middlewares/LVGL/GUI/lvgl/src/misc/cache/class/lv_cache_lru_rb.c ****         lv_rb_node_t * tail_node = *tail;
 468              		.loc 1 426 5 is_stmt 0 discriminator 4 view .LVU134
 469 0030 EFE7     		b	.L37
 470              	.LVL48:
 471              	.L36:
 472              	.LCFI10:
 473              		.cfi_def_cfa_offset 0
 474              		.cfi_restore 3
 475              		.cfi_restore 4
 476              		.cfi_restore 5
 477              		.cfi_restore 6
 478              		.cfi_restore 7
 479              		.cfi_restore 14
 423:../../Middlewares/LVGL/GUI/lvgl/src/misc/cache/class/lv_cache_lru_rb.c **** 
 480              		.loc 1 423 5 is_stmt 1 view .LVU135
 423:../../Middlewares/LVGL/GUI/lvgl/src/misc/cache/class/lv_cache_lru_rb.c **** 
 481              		.loc 1 423 5 view .LVU136
 423:../../Middlewares/LVGL/GUI/lvgl/src/misc/cache/class/lv_cache_lru_rb.c **** 
 482              		.loc 1 423 5 view .LVU137
 423:../../Middlewares/LVGL/GUI/lvgl/src/misc/cache/class/lv_cache_lru_rb.c **** 
 483              		.loc 1 423 5 view .LVU138
 423:../../Middlewares/LVGL/GUI/lvgl/src/misc/cache/class/lv_cache_lru_rb.c **** 
 484              		.loc 1 423 5 view .LVU139
 485 0032 FEE7     		b	.L36
 486              	.LVL49:
ARM GAS  C:\Users\28576\AppData\Local\Temp\ccwWQGxs.s 			page 19


 487              	.L40:
 488              	.LCFI11:
 489              		.cfi_def_cfa_offset 24
 490              		.cfi_offset 3, -24
 491              		.cfi_offset 4, -20
 492              		.cfi_offset 5, -16
 493              		.cfi_offset 6, -12
 494              		.cfi_offset 7, -8
 495              		.cfi_offset 14, -4
 496              	.LBB15:
 430:../../Middlewares/LVGL/GUI/lvgl/src/misc/cache/class/lv_cache_lru_rb.c ****         }
 497              		.loc 1 430 20 is_stmt 0 view .LVU140
 498 0034 3C46     		mov	r4, r7
 499              	.LVL50:
 500              	.L34:
 430:../../Middlewares/LVGL/GUI/lvgl/src/misc/cache/class/lv_cache_lru_rb.c ****         }
 501              		.loc 1 430 20 view .LVU141
 502              	.LBE15:
 435:../../Middlewares/LVGL/GUI/lvgl/src/misc/cache/class/lv_cache_lru_rb.c **** 
 503              		.loc 1 435 1 view .LVU142
 504 0036 2046     		mov	r0, r4
 505 0038 F8BD     		pop	{r3, r4, r5, r6, r7, pc}
 435:../../Middlewares/LVGL/GUI/lvgl/src/misc/cache/class/lv_cache_lru_rb.c **** 
 506              		.loc 1 435 1 view .LVU143
 507              		.cfi_endproc
 508              	.LFE28:
 510              		.section	.text.drop_all_cb,"ax",%progbits
 511              		.align	1
 512              		.syntax unified
 513              		.thumb
 514              		.thumb_func
 516              	drop_all_cb:
 517              	.LVL51:
 518              	.LFB27:
 384:../../Middlewares/LVGL/GUI/lvgl/src/misc/cache/class/lv_cache_lru_rb.c ****     lv_lru_rb_t_ * lru = (lv_lru_rb_t_ *)cache;
 519              		.loc 1 384 1 is_stmt 1 view -0
 520              		.cfi_startproc
 521              		@ args = 0, pretend = 0, frame = 0
 522              		@ frame_needed = 0, uses_anonymous_args = 0
 385:../../Middlewares/LVGL/GUI/lvgl/src/misc/cache/class/lv_cache_lru_rb.c **** 
 523              		.loc 1 385 5 view .LVU145
 387:../../Middlewares/LVGL/GUI/lvgl/src/misc/cache/class/lv_cache_lru_rb.c **** 
 524              		.loc 1 387 5 view .LVU146
 387:../../Middlewares/LVGL/GUI/lvgl/src/misc/cache/class/lv_cache_lru_rb.c **** 
 525              		.loc 1 387 5 view .LVU147
 526 0000 50B1     		cbz	r0, .L45
 384:../../Middlewares/LVGL/GUI/lvgl/src/misc/cache/class/lv_cache_lru_rb.c ****     lv_lru_rb_t_ * lru = (lv_lru_rb_t_ *)cache;
 527              		.loc 1 384 1 is_stmt 0 view .LVU148
 528 0002 2DE9F041 		push	{r4, r5, r6, r7, r8, lr}
 529              	.LCFI12:
 530              		.cfi_def_cfa_offset 24
 531              		.cfi_offset 4, -24
 532              		.cfi_offset 5, -20
 533              		.cfi_offset 6, -16
 534              		.cfi_offset 7, -12
 535              		.cfi_offset 8, -8
 536              		.cfi_offset 14, -4
ARM GAS  C:\Users\28576\AppData\Local\Temp\ccwWQGxs.s 			page 20


 537 0006 8846     		mov	r8, r1
 538 0008 0646     		mov	r6, r0
 387:../../Middlewares/LVGL/GUI/lvgl/src/misc/cache/class/lv_cache_lru_rb.c **** 
 539              		.loc 1 387 5 is_stmt 1 view .LVU149
 387:../../Middlewares/LVGL/GUI/lvgl/src/misc/cache/class/lv_cache_lru_rb.c **** 
 540              		.loc 1 387 24 view .LVU150
 389:../../Middlewares/LVGL/GUI/lvgl/src/misc/cache/class/lv_cache_lru_rb.c ****         return;
 541              		.loc 1 389 5 view .LVU151
 393:../../Middlewares/LVGL/GUI/lvgl/src/misc/cache/class/lv_cache_lru_rb.c ****     lv_rb_node_t ** node;
 542              		.loc 1 393 5 view .LVU152
 543              	.LVL52:
 394:../../Middlewares/LVGL/GUI/lvgl/src/misc/cache/class/lv_cache_lru_rb.c ****     LV_LL_READ(&lru->ll, node) {
 544              		.loc 1 394 5 view .LVU153
 395:../../Middlewares/LVGL/GUI/lvgl/src/misc/cache/class/lv_cache_lru_rb.c ****         /*free user handled data and do other clean up*/
 545              		.loc 1 395 5 view .LVU154
 546 000a 00F13007 		add	r7, r0, #48
 547 000e 3846     		mov	r0, r7
 548              	.LVL53:
 395:../../Middlewares/LVGL/GUI/lvgl/src/misc/cache/class/lv_cache_lru_rb.c ****         /*free user handled data and do other clean up*/
 549              		.loc 1 395 5 is_stmt 0 view .LVU155
 550 0010 FFF7FEFF 		bl	lv_ll_get_head
 551              	.LVL54:
 395:../../Middlewares/LVGL/GUI/lvgl/src/misc/cache/class/lv_cache_lru_rb.c ****         /*free user handled data and do other clean up*/
 552              		.loc 1 395 5 view .LVU156
 553 0014 0446     		mov	r4, r0
 554              	.LVL55:
 395:../../Middlewares/LVGL/GUI/lvgl/src/misc/cache/class/lv_cache_lru_rb.c ****         /*free user handled data and do other clean up*/
 555              		.loc 1 395 5 view .LVU157
 556 0016 05E0     		b	.L46
 557              	.LVL56:
 558              	.L45:
 559              	.LCFI13:
 560              		.cfi_def_cfa_offset 0
 561              		.cfi_restore 4
 562              		.cfi_restore 5
 563              		.cfi_restore 6
 564              		.cfi_restore 7
 565              		.cfi_restore 8
 566              		.cfi_restore 14
 387:../../Middlewares/LVGL/GUI/lvgl/src/misc/cache/class/lv_cache_lru_rb.c **** 
 567              		.loc 1 387 5 is_stmt 1 view .LVU158
 387:../../Middlewares/LVGL/GUI/lvgl/src/misc/cache/class/lv_cache_lru_rb.c **** 
 568              		.loc 1 387 5 view .LVU159
 387:../../Middlewares/LVGL/GUI/lvgl/src/misc/cache/class/lv_cache_lru_rb.c **** 
 569              		.loc 1 387 5 view .LVU160
 387:../../Middlewares/LVGL/GUI/lvgl/src/misc/cache/class/lv_cache_lru_rb.c **** 
 570              		.loc 1 387 5 view .LVU161
 387:../../Middlewares/LVGL/GUI/lvgl/src/misc/cache/class/lv_cache_lru_rb.c **** 
 571              		.loc 1 387 5 view .LVU162
 572 0018 FEE7     		b	.L45
 573              	.LVL57:
 574              	.L47:
 575              	.LCFI14:
 576              		.cfi_def_cfa_offset 24
 577              		.cfi_offset 4, -24
 578              		.cfi_offset 5, -20
 579              		.cfi_offset 6, -16
ARM GAS  C:\Users\28576\AppData\Local\Temp\ccwWQGxs.s 			page 21


 580              		.cfi_offset 7, -12
 581              		.cfi_offset 8, -8
 582              		.cfi_offset 14, -4
 395:../../Middlewares/LVGL/GUI/lvgl/src/misc/cache/class/lv_cache_lru_rb.c ****         /*free user handled data and do other clean up*/
 583              		.loc 1 395 5 discriminator 4 view .LVU163
 584 001a 2146     		mov	r1, r4
 585 001c 3846     		mov	r0, r7
 586 001e FFF7FEFF 		bl	lv_ll_get_next
 587              	.LVL58:
 588 0022 0446     		mov	r4, r0
 589              	.LVL59:
 590              	.L46:
 395:../../Middlewares/LVGL/GUI/lvgl/src/misc/cache/class/lv_cache_lru_rb.c ****         /*free user handled data and do other clean up*/
 591              		.loc 1 395 5 discriminator 2 view .LVU164
 592 0024 74B1     		cbz	r4, .L51
 593              	.LBB16:
 397:../../Middlewares/LVGL/GUI/lvgl/src/misc/cache/class/lv_cache_lru_rb.c ****         lv_cache_entry_t * entry = lv_cache_entry_get_entry(search_key, cache->node_size);
 594              		.loc 1 397 9 view .LVU165
 397:../../Middlewares/LVGL/GUI/lvgl/src/misc/cache/class/lv_cache_lru_rb.c ****         lv_cache_entry_t * entry = lv_cache_entry_get_entry(search_key, cache->node_size);
 595              		.loc 1 397 30 is_stmt 0 view .LVU166
 596 0026 2368     		ldr	r3, [r4]
 397:../../Middlewares/LVGL/GUI/lvgl/src/misc/cache/class/lv_cache_lru_rb.c ****         lv_cache_entry_t * entry = lv_cache_entry_get_entry(search_key, cache->node_size);
 597              		.loc 1 397 16 view .LVU167
 598 0028 1D69     		ldr	r5, [r3, #16]
 599              	.LVL60:
 398:../../Middlewares/LVGL/GUI/lvgl/src/misc/cache/class/lv_cache_lru_rb.c ****         if(lv_cache_entry_get_ref(entry) == 0) {
 600              		.loc 1 398 9 is_stmt 1 view .LVU168
 398:../../Middlewares/LVGL/GUI/lvgl/src/misc/cache/class/lv_cache_lru_rb.c ****         if(lv_cache_entry_get_ref(entry) == 0) {
 601              		.loc 1 398 36 is_stmt 0 view .LVU169
 602 002a 7168     		ldr	r1, [r6, #4]
 603 002c 2846     		mov	r0, r5
 604 002e FFF7FEFF 		bl	lv_cache_entry_get_entry
 605              	.LVL61:
 399:../../Middlewares/LVGL/GUI/lvgl/src/misc/cache/class/lv_cache_lru_rb.c ****             lru->cache.ops.free_cb(search_key, user_data);
 606              		.loc 1 399 9 is_stmt 1 view .LVU170
 399:../../Middlewares/LVGL/GUI/lvgl/src/misc/cache/class/lv_cache_lru_rb.c ****             lru->cache.ops.free_cb(search_key, user_data);
 607              		.loc 1 399 12 is_stmt 0 view .LVU171
 608 0032 FFF7FEFF 		bl	lv_cache_entry_get_ref
 609              	.LVL62:
 399:../../Middlewares/LVGL/GUI/lvgl/src/misc/cache/class/lv_cache_lru_rb.c ****             lru->cache.ops.free_cb(search_key, user_data);
 610              		.loc 1 399 11 discriminator 1 view .LVU172
 611 0036 0028     		cmp	r0, #0
 612 0038 EFD1     		bne	.L47
 400:../../Middlewares/LVGL/GUI/lvgl/src/misc/cache/class/lv_cache_lru_rb.c ****         }
 613              		.loc 1 400 13 is_stmt 1 view .LVU173
 400:../../Middlewares/LVGL/GUI/lvgl/src/misc/cache/class/lv_cache_lru_rb.c ****         }
 614              		.loc 1 400 27 is_stmt 0 view .LVU174
 615 003a B369     		ldr	r3, [r6, #24]
 400:../../Middlewares/LVGL/GUI/lvgl/src/misc/cache/class/lv_cache_lru_rb.c ****         }
 616              		.loc 1 400 13 view .LVU175
 617 003c 4146     		mov	r1, r8
 618 003e 2846     		mov	r0, r5
 619 0040 9847     		blx	r3
 620              	.LVL63:
 621 0042 EAE7     		b	.L47
 622              	.LVL64:
 623              	.L51:
ARM GAS  C:\Users\28576\AppData\Local\Temp\ccwWQGxs.s 			page 22


 400:../../Middlewares/LVGL/GUI/lvgl/src/misc/cache/class/lv_cache_lru_rb.c ****         }
 624              		.loc 1 400 13 view .LVU176
 625              	.LBE16:
 407:../../Middlewares/LVGL/GUI/lvgl/src/misc/cache/class/lv_cache_lru_rb.c ****         LV_LOG_WARN("%" LV_PRId32 " entries are still referenced", used_cnt);
 626              		.loc 1 407 5 is_stmt 1 view .LVU177
 408:../../Middlewares/LVGL/GUI/lvgl/src/misc/cache/class/lv_cache_lru_rb.c ****     }
 627              		.loc 1 408 9 view .LVU178
 408:../../Middlewares/LVGL/GUI/lvgl/src/misc/cache/class/lv_cache_lru_rb.c ****     }
 628              		.loc 1 408 9 view .LVU179
 408:../../Middlewares/LVGL/GUI/lvgl/src/misc/cache/class/lv_cache_lru_rb.c ****     }
 629              		.loc 1 408 9 view .LVU180
 411:../../Middlewares/LVGL/GUI/lvgl/src/misc/cache/class/lv_cache_lru_rb.c ****     lv_ll_clear(&lru->ll);
 630              		.loc 1 411 5 view .LVU181
 631 0044 06F12400 		add	r0, r6, #36
 632 0048 FFF7FEFF 		bl	lv_rb_destroy
 633              	.LVL65:
 412:../../Middlewares/LVGL/GUI/lvgl/src/misc/cache/class/lv_cache_lru_rb.c **** 
 634              		.loc 1 412 5 view .LVU182
 635 004c 3846     		mov	r0, r7
 636 004e FFF7FEFF 		bl	lv_ll_clear
 637              	.LVL66:
 414:../../Middlewares/LVGL/GUI/lvgl/src/misc/cache/class/lv_cache_lru_rb.c **** }
 638              		.loc 1 414 5 view .LVU183
 414:../../Middlewares/LVGL/GUI/lvgl/src/misc/cache/class/lv_cache_lru_rb.c **** }
 639              		.loc 1 414 17 is_stmt 0 view .LVU184
 640 0052 F460     		str	r4, [r6, #12]
 415:../../Middlewares/LVGL/GUI/lvgl/src/misc/cache/class/lv_cache_lru_rb.c **** 
 641              		.loc 1 415 1 view .LVU185
 642 0054 BDE8F081 		pop	{r4, r5, r6, r7, r8, pc}
 415:../../Middlewares/LVGL/GUI/lvgl/src/misc/cache/class/lv_cache_lru_rb.c **** 
 643              		.loc 1 415 1 view .LVU186
 644              		.cfi_endproc
 645              	.LFE27:
 647              		.section	.text.drop_cb,"ax",%progbits
 648              		.align	1
 649              		.syntax unified
 650              		.thumb
 651              		.thumb_func
 653              	drop_cb:
 654              	.LVL67:
 655              	.LFB26:
 353:../../Middlewares/LVGL/GUI/lvgl/src/misc/cache/class/lv_cache_lru_rb.c ****     lv_lru_rb_t_ * lru = (lv_lru_rb_t_ *)cache;
 656              		.loc 1 353 1 is_stmt 1 view -0
 657              		.cfi_startproc
 658              		@ args = 0, pretend = 0, frame = 0
 659              		@ frame_needed = 0, uses_anonymous_args = 0
 354:../../Middlewares/LVGL/GUI/lvgl/src/misc/cache/class/lv_cache_lru_rb.c **** 
 660              		.loc 1 354 5 view .LVU188
 356:../../Middlewares/LVGL/GUI/lvgl/src/misc/cache/class/lv_cache_lru_rb.c ****     LV_ASSERT_NULL(key);
 661              		.loc 1 356 5 view .LVU189
 356:../../Middlewares/LVGL/GUI/lvgl/src/misc/cache/class/lv_cache_lru_rb.c ****     LV_ASSERT_NULL(key);
 662              		.loc 1 356 5 view .LVU190
 663 0000 98B3     		cbz	r0, .L54
 353:../../Middlewares/LVGL/GUI/lvgl/src/misc/cache/class/lv_cache_lru_rb.c ****     lv_lru_rb_t_ * lru = (lv_lru_rb_t_ *)cache;
 664              		.loc 1 353 1 is_stmt 0 view .LVU191
 665 0002 2DE9F041 		push	{r4, r5, r6, r7, r8, lr}
 666              	.LCFI15:
ARM GAS  C:\Users\28576\AppData\Local\Temp\ccwWQGxs.s 			page 23


 667              		.cfi_def_cfa_offset 24
 668              		.cfi_offset 4, -24
 669              		.cfi_offset 5, -20
 670              		.cfi_offset 6, -16
 671              		.cfi_offset 7, -12
 672              		.cfi_offset 8, -8
 673              		.cfi_offset 14, -4
 674 0006 9046     		mov	r8, r2
 675 0008 0446     		mov	r4, r0
 356:../../Middlewares/LVGL/GUI/lvgl/src/misc/cache/class/lv_cache_lru_rb.c ****     LV_ASSERT_NULL(key);
 676              		.loc 1 356 5 is_stmt 1 view .LVU192
 356:../../Middlewares/LVGL/GUI/lvgl/src/misc/cache/class/lv_cache_lru_rb.c ****     LV_ASSERT_NULL(key);
 677              		.loc 1 356 24 view .LVU193
 357:../../Middlewares/LVGL/GUI/lvgl/src/misc/cache/class/lv_cache_lru_rb.c **** 
 678              		.loc 1 357 5 view .LVU194
 357:../../Middlewares/LVGL/GUI/lvgl/src/misc/cache/class/lv_cache_lru_rb.c **** 
 679              		.loc 1 357 5 view .LVU195
 680 000a 79B3     		cbz	r1, .L56
 357:../../Middlewares/LVGL/GUI/lvgl/src/misc/cache/class/lv_cache_lru_rb.c **** 
 681              		.loc 1 357 5 view .LVU196
 357:../../Middlewares/LVGL/GUI/lvgl/src/misc/cache/class/lv_cache_lru_rb.c **** 
 682              		.loc 1 357 24 view .LVU197
 359:../../Middlewares/LVGL/GUI/lvgl/src/misc/cache/class/lv_cache_lru_rb.c ****         return;
 683              		.loc 1 359 5 view .LVU198
 363:../../Middlewares/LVGL/GUI/lvgl/src/misc/cache/class/lv_cache_lru_rb.c ****     if(node == NULL) {
 684              		.loc 1 363 5 view .LVU199
 363:../../Middlewares/LVGL/GUI/lvgl/src/misc/cache/class/lv_cache_lru_rb.c ****     if(node == NULL) {
 685              		.loc 1 363 27 is_stmt 0 view .LVU200
 686 000c 00F12403 		add	r3, r0, #36
 687 0010 1F46     		mov	r7, r3
 688 0012 1846     		mov	r0, r3
 689              	.LVL68:
 363:../../Middlewares/LVGL/GUI/lvgl/src/misc/cache/class/lv_cache_lru_rb.c ****     if(node == NULL) {
 690              		.loc 1 363 27 view .LVU201
 691 0014 FFF7FEFF 		bl	lv_rb_find
 692              	.LVL69:
 364:../../Middlewares/LVGL/GUI/lvgl/src/misc/cache/class/lv_cache_lru_rb.c ****         return;
 693              		.loc 1 364 5 is_stmt 1 view .LVU202
 364:../../Middlewares/LVGL/GUI/lvgl/src/misc/cache/class/lv_cache_lru_rb.c ****         return;
 694              		.loc 1 364 7 is_stmt 0 view .LVU203
 695 0018 0546     		mov	r5, r0
 696 001a 20B3     		cbz	r0, .L52
 368:../../Middlewares/LVGL/GUI/lvgl/src/misc/cache/class/lv_cache_lru_rb.c **** 
 697              		.loc 1 368 5 is_stmt 1 view .LVU204
 368:../../Middlewares/LVGL/GUI/lvgl/src/misc/cache/class/lv_cache_lru_rb.c **** 
 698              		.loc 1 368 12 is_stmt 0 view .LVU205
 699 001c 0269     		ldr	r2, [r0, #16]
 700 001e 1646     		mov	r6, r2
 701              	.LVL70:
 370:../../Middlewares/LVGL/GUI/lvgl/src/misc/cache/class/lv_cache_lru_rb.c ****     cache->size -= lru->get_data_size_cb(data);
 702              		.loc 1 370 5 is_stmt 1 view .LVU206
 370:../../Middlewares/LVGL/GUI/lvgl/src/misc/cache/class/lv_cache_lru_rb.c ****     cache->size -= lru->get_data_size_cb(data);
 703              		.loc 1 370 19 is_stmt 0 view .LVU207
 704 0020 A369     		ldr	r3, [r4, #24]
 370:../../Middlewares/LVGL/GUI/lvgl/src/misc/cache/class/lv_cache_lru_rb.c ****     cache->size -= lru->get_data_size_cb(data);
 705              		.loc 1 370 5 view .LVU208
 706 0022 4146     		mov	r1, r8
ARM GAS  C:\Users\28576\AppData\Local\Temp\ccwWQGxs.s 			page 24


 707 0024 1046     		mov	r0, r2
 708              	.LVL71:
 370:../../Middlewares/LVGL/GUI/lvgl/src/misc/cache/class/lv_cache_lru_rb.c ****     cache->size -= lru->get_data_size_cb(data);
 709              		.loc 1 370 5 view .LVU209
 710 0026 9847     		blx	r3
 711              	.LVL72:
 371:../../Middlewares/LVGL/GUI/lvgl/src/misc/cache/class/lv_cache_lru_rb.c **** 
 712              		.loc 1 371 5 is_stmt 1 view .LVU210
 371:../../Middlewares/LVGL/GUI/lvgl/src/misc/cache/class/lv_cache_lru_rb.c **** 
 713              		.loc 1 371 23 is_stmt 0 view .LVU211
 714 0028 E36B     		ldr	r3, [r4, #60]
 371:../../Middlewares/LVGL/GUI/lvgl/src/misc/cache/class/lv_cache_lru_rb.c **** 
 715              		.loc 1 371 20 view .LVU212
 716 002a 3046     		mov	r0, r6
 717 002c 9847     		blx	r3
 718              	.LVL73:
 371:../../Middlewares/LVGL/GUI/lvgl/src/misc/cache/class/lv_cache_lru_rb.c **** 
 719              		.loc 1 371 10 discriminator 1 view .LVU213
 720 002e E368     		ldr	r3, [r4, #12]
 371:../../Middlewares/LVGL/GUI/lvgl/src/misc/cache/class/lv_cache_lru_rb.c **** 
 721              		.loc 1 371 17 discriminator 1 view .LVU214
 722 0030 1B1A     		subs	r3, r3, r0
 723 0032 E360     		str	r3, [r4, #12]
 373:../../Middlewares/LVGL/GUI/lvgl/src/misc/cache/class/lv_cache_lru_rb.c ****     void * lru_node = *get_lru_node(lru, node);
 724              		.loc 1 373 5 is_stmt 1 view .LVU215
 373:../../Middlewares/LVGL/GUI/lvgl/src/misc/cache/class/lv_cache_lru_rb.c ****     void * lru_node = *get_lru_node(lru, node);
 725              		.loc 1 373 32 is_stmt 0 view .LVU216
 726 0034 6168     		ldr	r1, [r4, #4]
 727 0036 3046     		mov	r0, r6
 728 0038 FFF7FEFF 		bl	lv_cache_entry_get_entry
 729              	.LVL74:
 730 003c 0646     		mov	r6, r0
 731              	.LVL75:
 374:../../Middlewares/LVGL/GUI/lvgl/src/misc/cache/class/lv_cache_lru_rb.c **** 
 732              		.loc 1 374 5 is_stmt 1 view .LVU217
 733              	.LBB17:
 734              	.LBI17:
 184:../../Middlewares/LVGL/GUI/lvgl/src/misc/cache/class/lv_cache_lru_rb.c **** {
 735              		.loc 1 184 23 view .LVU218
 736              	.LBB18:
 186:../../Middlewares/LVGL/GUI/lvgl/src/misc/cache/class/lv_cache_lru_rb.c **** }
 737              		.loc 1 186 5 view .LVU219
 186:../../Middlewares/LVGL/GUI/lvgl/src/misc/cache/class/lv_cache_lru_rb.c **** }
 738              		.loc 1 186 34 is_stmt 0 view .LVU220
 739 003e 2946     		mov	r1, r5
 740 0040 2A69     		ldr	r2, [r5, #16]
 186:../../Middlewares/LVGL/GUI/lvgl/src/misc/cache/class/lv_cache_lru_rb.c **** }
 741              		.loc 1 186 50 view .LVU221
 742 0042 E36A     		ldr	r3, [r4, #44]
 186:../../Middlewares/LVGL/GUI/lvgl/src/misc/cache/class/lv_cache_lru_rb.c **** }
 743              		.loc 1 186 56 view .LVU222
 744 0044 043B     		subs	r3, r3, #4
 745              	.LVL76:
 186:../../Middlewares/LVGL/GUI/lvgl/src/misc/cache/class/lv_cache_lru_rb.c **** }
 746              		.loc 1 186 56 view .LVU223
 747              	.LBE18:
 748              	.LBE17:
ARM GAS  C:\Users\28576\AppData\Local\Temp\ccwWQGxs.s 			page 25


 374:../../Middlewares/LVGL/GUI/lvgl/src/misc/cache/class/lv_cache_lru_rb.c **** 
 749              		.loc 1 374 12 discriminator 1 view .LVU224
 750 0046 D258     		ldr	r2, [r2, r3]
 751 0048 1546     		mov	r5, r2
 752              	.LVL77:
 376:../../Middlewares/LVGL/GUI/lvgl/src/misc/cache/class/lv_cache_lru_rb.c ****     lv_cache_entry_delete(entry);
 753              		.loc 1 376 5 is_stmt 1 view .LVU225
 754 004a 3846     		mov	r0, r7
 755              	.LVL78:
 376:../../Middlewares/LVGL/GUI/lvgl/src/misc/cache/class/lv_cache_lru_rb.c ****     lv_cache_entry_delete(entry);
 756              		.loc 1 376 5 is_stmt 0 view .LVU226
 757 004c FFF7FEFF 		bl	lv_rb_remove_node
 758              	.LVL79:
 377:../../Middlewares/LVGL/GUI/lvgl/src/misc/cache/class/lv_cache_lru_rb.c **** 
 759              		.loc 1 377 5 is_stmt 1 view .LVU227
 760 0050 3046     		mov	r0, r6
 761 0052 FFF7FEFF 		bl	lv_cache_entry_delete
 762              	.LVL80:
 379:../../Middlewares/LVGL/GUI/lvgl/src/misc/cache/class/lv_cache_lru_rb.c ****     lv_free(lru_node);
 763              		.loc 1 379 5 view .LVU228
 764 0056 2946     		mov	r1, r5
 765 0058 04F13000 		add	r0, r4, #48
 766 005c FFF7FEFF 		bl	lv_ll_remove
 767              	.LVL81:
 380:../../Middlewares/LVGL/GUI/lvgl/src/misc/cache/class/lv_cache_lru_rb.c **** }
 768              		.loc 1 380 5 view .LVU229
 769 0060 2846     		mov	r0, r5
 770 0062 FFF7FEFF 		bl	lv_free
 771              	.LVL82:
 772              	.L52:
 381:../../Middlewares/LVGL/GUI/lvgl/src/misc/cache/class/lv_cache_lru_rb.c **** 
 773              		.loc 1 381 1 is_stmt 0 view .LVU230
 774 0066 BDE8F081 		pop	{r4, r5, r6, r7, r8, pc}
 775              	.LVL83:
 776              	.L54:
 777              	.LCFI16:
 778              		.cfi_def_cfa_offset 0
 779              		.cfi_restore 4
 780              		.cfi_restore 5
 781              		.cfi_restore 6
 782              		.cfi_restore 7
 783              		.cfi_restore 8
 784              		.cfi_restore 14
 356:../../Middlewares/LVGL/GUI/lvgl/src/misc/cache/class/lv_cache_lru_rb.c ****     LV_ASSERT_NULL(key);
 785              		.loc 1 356 5 is_stmt 1 view .LVU231
 356:../../Middlewares/LVGL/GUI/lvgl/src/misc/cache/class/lv_cache_lru_rb.c ****     LV_ASSERT_NULL(key);
 786              		.loc 1 356 5 view .LVU232
 356:../../Middlewares/LVGL/GUI/lvgl/src/misc/cache/class/lv_cache_lru_rb.c ****     LV_ASSERT_NULL(key);
 787              		.loc 1 356 5 view .LVU233
 356:../../Middlewares/LVGL/GUI/lvgl/src/misc/cache/class/lv_cache_lru_rb.c ****     LV_ASSERT_NULL(key);
 788              		.loc 1 356 5 view .LVU234
 356:../../Middlewares/LVGL/GUI/lvgl/src/misc/cache/class/lv_cache_lru_rb.c ****     LV_ASSERT_NULL(key);
 789              		.loc 1 356 5 view .LVU235
 790 006a FEE7     		b	.L54
 791              	.L56:
 792              	.LCFI17:
 793              		.cfi_def_cfa_offset 24
ARM GAS  C:\Users\28576\AppData\Local\Temp\ccwWQGxs.s 			page 26


 794              		.cfi_offset 4, -24
 795              		.cfi_offset 5, -20
 796              		.cfi_offset 6, -16
 797              		.cfi_offset 7, -12
 798              		.cfi_offset 8, -8
 799              		.cfi_offset 14, -4
 357:../../Middlewares/LVGL/GUI/lvgl/src/misc/cache/class/lv_cache_lru_rb.c **** 
 800              		.loc 1 357 5 view .LVU236
 357:../../Middlewares/LVGL/GUI/lvgl/src/misc/cache/class/lv_cache_lru_rb.c **** 
 801              		.loc 1 357 5 view .LVU237
 357:../../Middlewares/LVGL/GUI/lvgl/src/misc/cache/class/lv_cache_lru_rb.c **** 
 802              		.loc 1 357 5 view .LVU238
 357:../../Middlewares/LVGL/GUI/lvgl/src/misc/cache/class/lv_cache_lru_rb.c **** 
 803              		.loc 1 357 5 view .LVU239
 357:../../Middlewares/LVGL/GUI/lvgl/src/misc/cache/class/lv_cache_lru_rb.c **** 
 804              		.loc 1 357 5 view .LVU240
 805 006c FEE7     		b	.L56
 806              		.cfi_endproc
 807              	.LFE26:
 809              		.section	.text.remove_cb,"ax",%progbits
 810              		.align	1
 811              		.syntax unified
 812              		.thumb
 813              		.thumb_func
 815              	remove_cb:
 816              	.LVL84:
 817              	.LFB25:
 326:../../Middlewares/LVGL/GUI/lvgl/src/misc/cache/class/lv_cache_lru_rb.c ****     LV_UNUSED(user_data);
 818              		.loc 1 326 1 view -0
 819              		.cfi_startproc
 820              		@ args = 0, pretend = 0, frame = 0
 821              		@ frame_needed = 0, uses_anonymous_args = 0
 327:../../Middlewares/LVGL/GUI/lvgl/src/misc/cache/class/lv_cache_lru_rb.c **** 
 822              		.loc 1 327 5 view .LVU242
 329:../../Middlewares/LVGL/GUI/lvgl/src/misc/cache/class/lv_cache_lru_rb.c **** 
 823              		.loc 1 329 5 view .LVU243
 331:../../Middlewares/LVGL/GUI/lvgl/src/misc/cache/class/lv_cache_lru_rb.c ****     LV_ASSERT_NULL(entry);
 824              		.loc 1 331 5 view .LVU244
 331:../../Middlewares/LVGL/GUI/lvgl/src/misc/cache/class/lv_cache_lru_rb.c ****     LV_ASSERT_NULL(entry);
 825              		.loc 1 331 5 view .LVU245
 826 0000 30B3     		cbz	r0, .L62
 326:../../Middlewares/LVGL/GUI/lvgl/src/misc/cache/class/lv_cache_lru_rb.c ****     LV_UNUSED(user_data);
 827              		.loc 1 326 1 is_stmt 0 view .LVU246
 828 0002 F8B5     		push	{r3, r4, r5, r6, r7, lr}
 829              	.LCFI18:
 830              		.cfi_def_cfa_offset 24
 831              		.cfi_offset 3, -24
 832              		.cfi_offset 4, -20
 833              		.cfi_offset 5, -16
 834              		.cfi_offset 6, -12
 835              		.cfi_offset 7, -8
 836              		.cfi_offset 14, -4
 837 0004 0446     		mov	r4, r0
 331:../../Middlewares/LVGL/GUI/lvgl/src/misc/cache/class/lv_cache_lru_rb.c ****     LV_ASSERT_NULL(entry);
 838              		.loc 1 331 5 is_stmt 1 view .LVU247
 331:../../Middlewares/LVGL/GUI/lvgl/src/misc/cache/class/lv_cache_lru_rb.c ****     LV_ASSERT_NULL(entry);
 839              		.loc 1 331 24 view .LVU248
ARM GAS  C:\Users\28576\AppData\Local\Temp\ccwWQGxs.s 			page 27


 332:../../Middlewares/LVGL/GUI/lvgl/src/misc/cache/class/lv_cache_lru_rb.c **** 
 840              		.loc 1 332 5 view .LVU249
 332:../../Middlewares/LVGL/GUI/lvgl/src/misc/cache/class/lv_cache_lru_rb.c **** 
 841              		.loc 1 332 5 view .LVU250
 842 0006 21B3     		cbz	r1, .L64
 332:../../Middlewares/LVGL/GUI/lvgl/src/misc/cache/class/lv_cache_lru_rb.c **** 
 843              		.loc 1 332 5 view .LVU251
 332:../../Middlewares/LVGL/GUI/lvgl/src/misc/cache/class/lv_cache_lru_rb.c **** 
 844              		.loc 1 332 26 view .LVU252
 334:../../Middlewares/LVGL/GUI/lvgl/src/misc/cache/class/lv_cache_lru_rb.c ****         return;
 845              		.loc 1 334 5 view .LVU253
 338:../../Middlewares/LVGL/GUI/lvgl/src/misc/cache/class/lv_cache_lru_rb.c ****     lv_rb_node_t * node = lv_rb_find(&lru->rb, data);
 846              		.loc 1 338 5 view .LVU254
 338:../../Middlewares/LVGL/GUI/lvgl/src/misc/cache/class/lv_cache_lru_rb.c ****     lv_rb_node_t * node = lv_rb_find(&lru->rb, data);
 847              		.loc 1 338 19 is_stmt 0 view .LVU255
 848 0008 0846     		mov	r0, r1
 849              	.LVL85:
 338:../../Middlewares/LVGL/GUI/lvgl/src/misc/cache/class/lv_cache_lru_rb.c ****     lv_rb_node_t * node = lv_rb_find(&lru->rb, data);
 850              		.loc 1 338 19 view .LVU256
 851 000a FFF7FEFF 		bl	lv_cache_entry_get_data
 852              	.LVL86:
 338:../../Middlewares/LVGL/GUI/lvgl/src/misc/cache/class/lv_cache_lru_rb.c ****     lv_rb_node_t * node = lv_rb_find(&lru->rb, data);
 853              		.loc 1 338 19 view .LVU257
 854 000e 0746     		mov	r7, r0
 855              	.LVL87:
 339:../../Middlewares/LVGL/GUI/lvgl/src/misc/cache/class/lv_cache_lru_rb.c ****     if(node == NULL) {
 856              		.loc 1 339 5 is_stmt 1 view .LVU258
 339:../../Middlewares/LVGL/GUI/lvgl/src/misc/cache/class/lv_cache_lru_rb.c ****     if(node == NULL) {
 857              		.loc 1 339 27 is_stmt 0 view .LVU259
 858 0010 04F12403 		add	r3, r4, #36
 859 0014 1E46     		mov	r6, r3
 860 0016 0146     		mov	r1, r0
 861 0018 1846     		mov	r0, r3
 862              	.LVL88:
 339:../../Middlewares/LVGL/GUI/lvgl/src/misc/cache/class/lv_cache_lru_rb.c ****     if(node == NULL) {
 863              		.loc 1 339 27 view .LVU260
 864 001a FFF7FEFF 		bl	lv_rb_find
 865              	.LVL89:
 340:../../Middlewares/LVGL/GUI/lvgl/src/misc/cache/class/lv_cache_lru_rb.c ****         return;
 866              		.loc 1 340 5 is_stmt 1 view .LVU261
 340:../../Middlewares/LVGL/GUI/lvgl/src/misc/cache/class/lv_cache_lru_rb.c ****         return;
 867              		.loc 1 340 7 is_stmt 0 view .LVU262
 868 001e 0146     		mov	r1, r0
 869 0020 A8B1     		cbz	r0, .L60
 344:../../Middlewares/LVGL/GUI/lvgl/src/misc/cache/class/lv_cache_lru_rb.c ****     lv_rb_remove_node(&lru->rb, node);
 870              		.loc 1 344 5 is_stmt 1 view .LVU263
 871              	.LVL90:
 872              	.LBB19:
 873              	.LBI19:
 184:../../Middlewares/LVGL/GUI/lvgl/src/misc/cache/class/lv_cache_lru_rb.c **** {
 874              		.loc 1 184 23 view .LVU264
 875              	.LBB20:
 186:../../Middlewares/LVGL/GUI/lvgl/src/misc/cache/class/lv_cache_lru_rb.c **** }
 876              		.loc 1 186 5 view .LVU265
 186:../../Middlewares/LVGL/GUI/lvgl/src/misc/cache/class/lv_cache_lru_rb.c **** }
 877              		.loc 1 186 34 is_stmt 0 view .LVU266
 878 0022 0269     		ldr	r2, [r0, #16]
ARM GAS  C:\Users\28576\AppData\Local\Temp\ccwWQGxs.s 			page 28


 186:../../Middlewares/LVGL/GUI/lvgl/src/misc/cache/class/lv_cache_lru_rb.c **** }
 879              		.loc 1 186 50 view .LVU267
 880 0024 E36A     		ldr	r3, [r4, #44]
 186:../../Middlewares/LVGL/GUI/lvgl/src/misc/cache/class/lv_cache_lru_rb.c **** }
 881              		.loc 1 186 56 view .LVU268
 882 0026 043B     		subs	r3, r3, #4
 883              	.LVL91:
 186:../../Middlewares/LVGL/GUI/lvgl/src/misc/cache/class/lv_cache_lru_rb.c **** }
 884              		.loc 1 186 56 view .LVU269
 885              	.LBE20:
 886              	.LBE19:
 344:../../Middlewares/LVGL/GUI/lvgl/src/misc/cache/class/lv_cache_lru_rb.c ****     lv_rb_remove_node(&lru->rb, node);
 887              		.loc 1 344 12 discriminator 1 view .LVU270
 888 0028 D258     		ldr	r2, [r2, r3]
 889 002a 1546     		mov	r5, r2
 890              	.LVL92:
 345:../../Middlewares/LVGL/GUI/lvgl/src/misc/cache/class/lv_cache_lru_rb.c ****     lv_ll_remove(&lru->ll, lru_node);
 891              		.loc 1 345 5 is_stmt 1 view .LVU271
 892 002c 3046     		mov	r0, r6
 893              	.LVL93:
 345:../../Middlewares/LVGL/GUI/lvgl/src/misc/cache/class/lv_cache_lru_rb.c ****     lv_ll_remove(&lru->ll, lru_node);
 894              		.loc 1 345 5 is_stmt 0 view .LVU272
 895 002e FFF7FEFF 		bl	lv_rb_remove_node
 896              	.LVL94:
 346:../../Middlewares/LVGL/GUI/lvgl/src/misc/cache/class/lv_cache_lru_rb.c ****     lv_free(lru_node);
 897              		.loc 1 346 5 is_stmt 1 view .LVU273
 898 0032 2946     		mov	r1, r5
 899 0034 04F13000 		add	r0, r4, #48
 900 0038 FFF7FEFF 		bl	lv_ll_remove
 901              	.LVL95:
 347:../../Middlewares/LVGL/GUI/lvgl/src/misc/cache/class/lv_cache_lru_rb.c **** 
 902              		.loc 1 347 5 view .LVU274
 903 003c 2846     		mov	r0, r5
 904 003e FFF7FEFF 		bl	lv_free
 905              	.LVL96:
 349:../../Middlewares/LVGL/GUI/lvgl/src/misc/cache/class/lv_cache_lru_rb.c **** }
 906              		.loc 1 349 5 view .LVU275
 349:../../Middlewares/LVGL/GUI/lvgl/src/misc/cache/class/lv_cache_lru_rb.c **** }
 907              		.loc 1 349 23 is_stmt 0 view .LVU276
 908 0042 E36B     		ldr	r3, [r4, #60]
 349:../../Middlewares/LVGL/GUI/lvgl/src/misc/cache/class/lv_cache_lru_rb.c **** }
 909              		.loc 1 349 20 view .LVU277
 910 0044 3846     		mov	r0, r7
 911 0046 9847     		blx	r3
 912              	.LVL97:
 349:../../Middlewares/LVGL/GUI/lvgl/src/misc/cache/class/lv_cache_lru_rb.c **** }
 913              		.loc 1 349 10 discriminator 1 view .LVU278
 914 0048 E368     		ldr	r3, [r4, #12]
 349:../../Middlewares/LVGL/GUI/lvgl/src/misc/cache/class/lv_cache_lru_rb.c **** }
 915              		.loc 1 349 17 discriminator 1 view .LVU279
 916 004a 1B1A     		subs	r3, r3, r0
 917 004c E360     		str	r3, [r4, #12]
 918              	.LVL98:
 919              	.L60:
 350:../../Middlewares/LVGL/GUI/lvgl/src/misc/cache/class/lv_cache_lru_rb.c **** 
 920              		.loc 1 350 1 view .LVU280
 921 004e F8BD     		pop	{r3, r4, r5, r6, r7, pc}
ARM GAS  C:\Users\28576\AppData\Local\Temp\ccwWQGxs.s 			page 29


 922              	.LVL99:
 923              	.L62:
 924              	.LCFI19:
 925              		.cfi_def_cfa_offset 0
 926              		.cfi_restore 3
 927              		.cfi_restore 4
 928              		.cfi_restore 5
 929              		.cfi_restore 6
 930              		.cfi_restore 7
 931              		.cfi_restore 14
 331:../../Middlewares/LVGL/GUI/lvgl/src/misc/cache/class/lv_cache_lru_rb.c ****     LV_ASSERT_NULL(entry);
 932              		.loc 1 331 5 is_stmt 1 view .LVU281
 331:../../Middlewares/LVGL/GUI/lvgl/src/misc/cache/class/lv_cache_lru_rb.c ****     LV_ASSERT_NULL(entry);
 933              		.loc 1 331 5 view .LVU282
 331:../../Middlewares/LVGL/GUI/lvgl/src/misc/cache/class/lv_cache_lru_rb.c ****     LV_ASSERT_NULL(entry);
 934              		.loc 1 331 5 view .LVU283
 331:../../Middlewares/LVGL/GUI/lvgl/src/misc/cache/class/lv_cache_lru_rb.c ****     LV_ASSERT_NULL(entry);
 935              		.loc 1 331 5 view .LVU284
 331:../../Middlewares/LVGL/GUI/lvgl/src/misc/cache/class/lv_cache_lru_rb.c ****     LV_ASSERT_NULL(entry);
 936              		.loc 1 331 5 view .LVU285
 937 0050 FEE7     		b	.L62
 938              	.L64:
 939              	.LCFI20:
 940              		.cfi_def_cfa_offset 24
 941              		.cfi_offset 3, -24
 942              		.cfi_offset 4, -20
 943              		.cfi_offset 5, -16
 944              		.cfi_offset 6, -12
 945              		.cfi_offset 7, -8
 946              		.cfi_offset 14, -4
 332:../../Middlewares/LVGL/GUI/lvgl/src/misc/cache/class/lv_cache_lru_rb.c **** 
 947              		.loc 1 332 5 view .LVU286
 332:../../Middlewares/LVGL/GUI/lvgl/src/misc/cache/class/lv_cache_lru_rb.c **** 
 948              		.loc 1 332 5 view .LVU287
 332:../../Middlewares/LVGL/GUI/lvgl/src/misc/cache/class/lv_cache_lru_rb.c **** 
 949              		.loc 1 332 5 view .LVU288
 332:../../Middlewares/LVGL/GUI/lvgl/src/misc/cache/class/lv_cache_lru_rb.c **** 
 950              		.loc 1 332 5 view .LVU289
 332:../../Middlewares/LVGL/GUI/lvgl/src/misc/cache/class/lv_cache_lru_rb.c **** 
 951              		.loc 1 332 5 view .LVU290
 952 0052 FEE7     		b	.L64
 953              		.cfi_endproc
 954              	.LFE25:
 956              		.section	.text.alloc_new_node,"ax",%progbits
 957              		.align	1
 958              		.syntax unified
 959              		.thumb
 960              		.thumb_func
 962              	alloc_new_node:
 963              	.LVL100:
 964              	.LFB17:
 149:../../Middlewares/LVGL/GUI/lvgl/src/misc/cache/class/lv_cache_lru_rb.c ****     LV_UNUSED(user_data);
 965              		.loc 1 149 1 view -0
 966              		.cfi_startproc
 967              		@ args = 0, pretend = 0, frame = 8
 968              		@ frame_needed = 0, uses_anonymous_args = 0
 150:../../Middlewares/LVGL/GUI/lvgl/src/misc/cache/class/lv_cache_lru_rb.c **** 
ARM GAS  C:\Users\28576\AppData\Local\Temp\ccwWQGxs.s 			page 30


 969              		.loc 1 150 5 view .LVU292
 152:../../Middlewares/LVGL/GUI/lvgl/src/misc/cache/class/lv_cache_lru_rb.c ****     LV_ASSERT_NULL(key);
 970              		.loc 1 152 5 view .LVU293
 152:../../Middlewares/LVGL/GUI/lvgl/src/misc/cache/class/lv_cache_lru_rb.c ****     LV_ASSERT_NULL(key);
 971              		.loc 1 152 5 view .LVU294
 972 0000 0028     		cmp	r0, #0
 973 0002 36D0     		beq	.L70
 149:../../Middlewares/LVGL/GUI/lvgl/src/misc/cache/class/lv_cache_lru_rb.c ****     LV_UNUSED(user_data);
 974              		.loc 1 149 1 is_stmt 0 view .LVU295
 975 0004 2DE9F041 		push	{r4, r5, r6, r7, r8, lr}
 976              	.LCFI21:
 977              		.cfi_def_cfa_offset 24
 978              		.cfi_offset 4, -24
 979              		.cfi_offset 5, -20
 980              		.cfi_offset 6, -16
 981              		.cfi_offset 7, -12
 982              		.cfi_offset 8, -8
 983              		.cfi_offset 14, -4
 984 0008 82B0     		sub	sp, sp, #8
 985              	.LCFI22:
 986              		.cfi_def_cfa_offset 32
 987 000a 0C46     		mov	r4, r1
 988 000c 0546     		mov	r5, r0
 152:../../Middlewares/LVGL/GUI/lvgl/src/misc/cache/class/lv_cache_lru_rb.c ****     LV_ASSERT_NULL(key);
 989              		.loc 1 152 5 is_stmt 1 view .LVU296
 152:../../Middlewares/LVGL/GUI/lvgl/src/misc/cache/class/lv_cache_lru_rb.c ****     LV_ASSERT_NULL(key);
 990              		.loc 1 152 24 view .LVU297
 153:../../Middlewares/LVGL/GUI/lvgl/src/misc/cache/class/lv_cache_lru_rb.c **** 
 991              		.loc 1 153 5 view .LVU298
 153:../../Middlewares/LVGL/GUI/lvgl/src/misc/cache/class/lv_cache_lru_rb.c **** 
 992              		.loc 1 153 5 view .LVU299
 993 000e 89B3     		cbz	r1, .L72
 153:../../Middlewares/LVGL/GUI/lvgl/src/misc/cache/class/lv_cache_lru_rb.c **** 
 994              		.loc 1 153 5 view .LVU300
 153:../../Middlewares/LVGL/GUI/lvgl/src/misc/cache/class/lv_cache_lru_rb.c **** 
 995              		.loc 1 153 24 view .LVU301
 155:../../Middlewares/LVGL/GUI/lvgl/src/misc/cache/class/lv_cache_lru_rb.c ****         return NULL;
 996              		.loc 1 155 5 view .LVU302
 159:../../Middlewares/LVGL/GUI/lvgl/src/misc/cache/class/lv_cache_lru_rb.c ****     if(node == NULL)
 997              		.loc 1 159 5 view .LVU303
 159:../../Middlewares/LVGL/GUI/lvgl/src/misc/cache/class/lv_cache_lru_rb.c ****     if(node == NULL)
 998              		.loc 1 159 27 is_stmt 0 view .LVU304
 999 0010 00F12403 		add	r3, r0, #36
 1000 0014 1F46     		mov	r7, r3
 1001 0016 1846     		mov	r0, r3
 1002              	.LVL101:
 159:../../Middlewares/LVGL/GUI/lvgl/src/misc/cache/class/lv_cache_lru_rb.c ****     if(node == NULL)
 1003              		.loc 1 159 27 view .LVU305
 1004 0018 FFF7FEFF 		bl	lv_rb_insert
 1005              	.LVL102:
 159:../../Middlewares/LVGL/GUI/lvgl/src/misc/cache/class/lv_cache_lru_rb.c ****     if(node == NULL)
 1006              		.loc 1 159 20 discriminator 1 view .LVU306
 1007 001c 0190     		str	r0, [sp, #4]
 160:../../Middlewares/LVGL/GUI/lvgl/src/misc/cache/class/lv_cache_lru_rb.c ****         goto FAILED_HANDLER2;
 1008              		.loc 1 160 5 is_stmt 1 view .LVU307
 160:../../Middlewares/LVGL/GUI/lvgl/src/misc/cache/class/lv_cache_lru_rb.c ****         goto FAILED_HANDLER2;
 1009              		.loc 1 160 7 is_stmt 0 view .LVU308
ARM GAS  C:\Users\28576\AppData\Local\Temp\ccwWQGxs.s 			page 31


 1010 001e 20B3     		cbz	r0, .L73
 163:../../Middlewares/LVGL/GUI/lvgl/src/misc/cache/class/lv_cache_lru_rb.c ****     lv_cache_entry_t * entry = lv_cache_entry_get_entry(data, lru->cache.node_size);
 1011              		.loc 1 163 5 is_stmt 1 view .LVU309
 163:../../Middlewares/LVGL/GUI/lvgl/src/misc/cache/class/lv_cache_lru_rb.c ****     lv_cache_entry_t * entry = lv_cache_entry_get_entry(data, lru->cache.node_size);
 1012              		.loc 1 163 12 is_stmt 0 view .LVU310
 1013 0020 0369     		ldr	r3, [r0, #16]
 1014 0022 1E46     		mov	r6, r3
 1015              	.LVL103:
 164:../../Middlewares/LVGL/GUI/lvgl/src/misc/cache/class/lv_cache_lru_rb.c ****     lv_memcpy(data, key, lru->cache.node_size);
 1016              		.loc 1 164 5 is_stmt 1 view .LVU311
 164:../../Middlewares/LVGL/GUI/lvgl/src/misc/cache/class/lv_cache_lru_rb.c ****     lv_memcpy(data, key, lru->cache.node_size);
 1017              		.loc 1 164 32 is_stmt 0 view .LVU312
 1018 0024 6968     		ldr	r1, [r5, #4]
 1019 0026 1846     		mov	r0, r3
 1020 0028 FFF7FEFF 		bl	lv_cache_entry_get_entry
 1021              	.LVL104:
 164:../../Middlewares/LVGL/GUI/lvgl/src/misc/cache/class/lv_cache_lru_rb.c ****     lv_memcpy(data, key, lru->cache.node_size);
 1022              		.loc 1 164 32 view .LVU313
 1023 002c 8046     		mov	r8, r0
 1024              	.LVL105:
 165:../../Middlewares/LVGL/GUI/lvgl/src/misc/cache/class/lv_cache_lru_rb.c **** 
 1025              		.loc 1 165 5 is_stmt 1 view .LVU314
 1026 002e 6A68     		ldr	r2, [r5, #4]
 1027 0030 2146     		mov	r1, r4
 1028 0032 3046     		mov	r0, r6
 1029              	.LVL106:
 165:../../Middlewares/LVGL/GUI/lvgl/src/misc/cache/class/lv_cache_lru_rb.c **** 
 1030              		.loc 1 165 5 is_stmt 0 view .LVU315
 1031 0034 FFF7FEFF 		bl	lv_memcpy
 1032              	.LVL107:
 167:../../Middlewares/LVGL/GUI/lvgl/src/misc/cache/class/lv_cache_lru_rb.c ****     if(lru_node == NULL)
 1033              		.loc 1 167 5 is_stmt 1 view .LVU316
 167:../../Middlewares/LVGL/GUI/lvgl/src/misc/cache/class/lv_cache_lru_rb.c ****     if(lru_node == NULL)
 1034              		.loc 1 167 23 is_stmt 0 view .LVU317
 1035 0038 05F13000 		add	r0, r5, #48
 1036 003c FFF7FEFF 		bl	lv_ll_ins_head
 1037              	.LVL108:
 167:../../Middlewares/LVGL/GUI/lvgl/src/misc/cache/class/lv_cache_lru_rb.c ****     if(lru_node == NULL)
 1038              		.loc 1 167 12 discriminator 1 view .LVU318
 1039 0040 0090     		str	r0, [sp]
 168:../../Middlewares/LVGL/GUI/lvgl/src/misc/cache/class/lv_cache_lru_rb.c ****         goto FAILED_HANDLER1;
 1040              		.loc 1 168 5 is_stmt 1 view .LVU319
 168:../../Middlewares/LVGL/GUI/lvgl/src/misc/cache/class/lv_cache_lru_rb.c ****         goto FAILED_HANDLER1;
 1041              		.loc 1 168 7 is_stmt 0 view .LVU320
 1042 0042 C0B1     		cbz	r0, .L77
 171:../../Middlewares/LVGL/GUI/lvgl/src/misc/cache/class/lv_cache_lru_rb.c ****     lv_memcpy(get_lru_node(lru, node), &lru_node, sizeof(void *));
 1043              		.loc 1 171 5 is_stmt 1 view .LVU321
 1044 0044 0422     		movs	r2, #4
 1045 0046 0DEB0201 		add	r1, sp, r2
 1046 004a FFF7FEFF 		bl	lv_memcpy
 1047              	.LVL109:
 172:../../Middlewares/LVGL/GUI/lvgl/src/misc/cache/class/lv_cache_lru_rb.c **** 
 1048              		.loc 1 172 5 view .LVU322
 1049 004e 019B     		ldr	r3, [sp, #4]
 1050              	.LVL110:
 1051              	.LBB21:
 1052              	.LBI21:
ARM GAS  C:\Users\28576\AppData\Local\Temp\ccwWQGxs.s 			page 32


 184:../../Middlewares/LVGL/GUI/lvgl/src/misc/cache/class/lv_cache_lru_rb.c **** {
 1053              		.loc 1 184 23 view .LVU323
 1054              	.LBB22:
 186:../../Middlewares/LVGL/GUI/lvgl/src/misc/cache/class/lv_cache_lru_rb.c **** }
 1055              		.loc 1 186 5 view .LVU324
 186:../../Middlewares/LVGL/GUI/lvgl/src/misc/cache/class/lv_cache_lru_rb.c **** }
 1056              		.loc 1 186 34 is_stmt 0 view .LVU325
 1057 0050 1869     		ldr	r0, [r3, #16]
 186:../../Middlewares/LVGL/GUI/lvgl/src/misc/cache/class/lv_cache_lru_rb.c **** }
 1058              		.loc 1 186 50 view .LVU326
 1059 0052 EB6A     		ldr	r3, [r5, #44]
 1060              	.LVL111:
 186:../../Middlewares/LVGL/GUI/lvgl/src/misc/cache/class/lv_cache_lru_rb.c **** }
 1061              		.loc 1 186 56 view .LVU327
 1062 0054 043B     		subs	r3, r3, #4
 1063              	.LVL112:
 186:../../Middlewares/LVGL/GUI/lvgl/src/misc/cache/class/lv_cache_lru_rb.c **** }
 1064              		.loc 1 186 56 view .LVU328
 1065              	.LBE22:
 1066              	.LBE21:
 172:../../Middlewares/LVGL/GUI/lvgl/src/misc/cache/class/lv_cache_lru_rb.c **** 
 1067              		.loc 1 172 5 discriminator 1 view .LVU329
 1068 0056 0422     		movs	r2, #4
 1069 0058 6946     		mov	r1, sp
 1070 005a 1844     		add	r0, r0, r3
 1071 005c FFF7FEFF 		bl	lv_memcpy
 1072              	.LVL113:
 174:../../Middlewares/LVGL/GUI/lvgl/src/misc/cache/class/lv_cache_lru_rb.c ****     goto FAILED_HANDLER2;
 1073              		.loc 1 174 5 is_stmt 1 view .LVU330
 1074 0060 6A68     		ldr	r2, [r5, #4]
 1075 0062 2946     		mov	r1, r5
 1076 0064 4046     		mov	r0, r8
 1077 0066 FFF7FEFF 		bl	lv_cache_entry_init
 1078              	.LVL114:
 175:../../Middlewares/LVGL/GUI/lvgl/src/misc/cache/class/lv_cache_lru_rb.c **** 
 1079              		.loc 1 175 5 view .LVU331
 1080              	.L73:
 181:../../Middlewares/LVGL/GUI/lvgl/src/misc/cache/class/lv_cache_lru_rb.c **** }
 1081              		.loc 1 181 5 view .LVU332
 182:../../Middlewares/LVGL/GUI/lvgl/src/misc/cache/class/lv_cache_lru_rb.c **** 
 1082              		.loc 1 182 1 is_stmt 0 view .LVU333
 1083 006a 0198     		ldr	r0, [sp, #4]
 1084 006c 02B0     		add	sp, sp, #8
 1085              	.LCFI23:
 1086              		.cfi_def_cfa_offset 24
 1087              		@ sp needed
 1088 006e BDE8F081 		pop	{r4, r5, r6, r7, r8, pc}
 1089              	.LVL115:
 1090              	.L70:
 1091              	.LCFI24:
 1092              		.cfi_def_cfa_offset 0
 1093              		.cfi_restore 4
 1094              		.cfi_restore 5
 1095              		.cfi_restore 6
 1096              		.cfi_restore 7
 1097              		.cfi_restore 8
 1098              		.cfi_restore 14
ARM GAS  C:\Users\28576\AppData\Local\Temp\ccwWQGxs.s 			page 33


 152:../../Middlewares/LVGL/GUI/lvgl/src/misc/cache/class/lv_cache_lru_rb.c ****     LV_ASSERT_NULL(key);
 1099              		.loc 1 152 5 is_stmt 1 view .LVU334
 152:../../Middlewares/LVGL/GUI/lvgl/src/misc/cache/class/lv_cache_lru_rb.c ****     LV_ASSERT_NULL(key);
 1100              		.loc 1 152 5 view .LVU335
 152:../../Middlewares/LVGL/GUI/lvgl/src/misc/cache/class/lv_cache_lru_rb.c ****     LV_ASSERT_NULL(key);
 1101              		.loc 1 152 5 view .LVU336
 152:../../Middlewares/LVGL/GUI/lvgl/src/misc/cache/class/lv_cache_lru_rb.c ****     LV_ASSERT_NULL(key);
 1102              		.loc 1 152 5 view .LVU337
 152:../../Middlewares/LVGL/GUI/lvgl/src/misc/cache/class/lv_cache_lru_rb.c ****     LV_ASSERT_NULL(key);
 1103              		.loc 1 152 5 view .LVU338
 1104 0072 FEE7     		b	.L70
 1105              	.L72:
 1106              	.LCFI25:
 1107              		.cfi_def_cfa_offset 32
 1108              		.cfi_offset 4, -24
 1109              		.cfi_offset 5, -20
 1110              		.cfi_offset 6, -16
 1111              		.cfi_offset 7, -12
 1112              		.cfi_offset 8, -8
 1113              		.cfi_offset 14, -4
 153:../../Middlewares/LVGL/GUI/lvgl/src/misc/cache/class/lv_cache_lru_rb.c **** 
 1114              		.loc 1 153 5 view .LVU339
 153:../../Middlewares/LVGL/GUI/lvgl/src/misc/cache/class/lv_cache_lru_rb.c **** 
 1115              		.loc 1 153 5 view .LVU340
 153:../../Middlewares/LVGL/GUI/lvgl/src/misc/cache/class/lv_cache_lru_rb.c **** 
 1116              		.loc 1 153 5 view .LVU341
 153:../../Middlewares/LVGL/GUI/lvgl/src/misc/cache/class/lv_cache_lru_rb.c **** 
 1117              		.loc 1 153 5 view .LVU342
 153:../../Middlewares/LVGL/GUI/lvgl/src/misc/cache/class/lv_cache_lru_rb.c **** 
 1118              		.loc 1 153 5 view .LVU343
 1119 0074 FEE7     		b	.L72
 1120              	.LVL116:
 1121              	.L77:
 169:../../Middlewares/LVGL/GUI/lvgl/src/misc/cache/class/lv_cache_lru_rb.c **** 
 1122              		.loc 1 169 9 view .LVU344
 1123              	.LDL1:
 178:../../Middlewares/LVGL/GUI/lvgl/src/misc/cache/class/lv_cache_lru_rb.c ****     node = NULL;
 1124              		.loc 1 178 5 view .LVU345
 1125 0076 0199     		ldr	r1, [sp, #4]
 1126 0078 3846     		mov	r0, r7
 1127 007a FFF7FEFF 		bl	lv_rb_drop_node
 1128              	.LVL117:
 179:../../Middlewares/LVGL/GUI/lvgl/src/misc/cache/class/lv_cache_lru_rb.c **** FAILED_HANDLER2:
 1129              		.loc 1 179 5 view .LVU346
 179:../../Middlewares/LVGL/GUI/lvgl/src/misc/cache/class/lv_cache_lru_rb.c **** FAILED_HANDLER2:
 1130              		.loc 1 179 10 is_stmt 0 view .LVU347
 1131 007e 0023     		movs	r3, #0
 1132 0080 0193     		str	r3, [sp, #4]
 1133 0082 F2E7     		b	.L73
 1134              		.cfi_endproc
 1135              	.LFE17:
 1137              		.section	.text.add_cb,"ax",%progbits
 1138              		.align	1
 1139              		.syntax unified
 1140              		.thumb
 1141              		.thumb_func
 1143              	add_cb:
ARM GAS  C:\Users\28576\AppData\Local\Temp\ccwWQGxs.s 			page 34


 1144              	.LVL118:
 1145              	.LFB24:
 301:../../Middlewares/LVGL/GUI/lvgl/src/misc/cache/class/lv_cache_lru_rb.c ****     LV_UNUSED(user_data);
 1146              		.loc 1 301 1 is_stmt 1 view -0
 1147              		.cfi_startproc
 1148              		@ args = 0, pretend = 0, frame = 0
 1149              		@ frame_needed = 0, uses_anonymous_args = 0
 302:../../Middlewares/LVGL/GUI/lvgl/src/misc/cache/class/lv_cache_lru_rb.c **** 
 1150              		.loc 1 302 5 view .LVU349
 304:../../Middlewares/LVGL/GUI/lvgl/src/misc/cache/class/lv_cache_lru_rb.c **** 
 1151              		.loc 1 304 5 view .LVU350
 306:../../Middlewares/LVGL/GUI/lvgl/src/misc/cache/class/lv_cache_lru_rb.c ****     LV_ASSERT_NULL(key);
 1152              		.loc 1 306 5 view .LVU351
 306:../../Middlewares/LVGL/GUI/lvgl/src/misc/cache/class/lv_cache_lru_rb.c ****     LV_ASSERT_NULL(key);
 1153              		.loc 1 306 5 view .LVU352
 1154 0000 A0B1     		cbz	r0, .L80
 301:../../Middlewares/LVGL/GUI/lvgl/src/misc/cache/class/lv_cache_lru_rb.c ****     LV_UNUSED(user_data);
 1155              		.loc 1 301 1 is_stmt 0 view .LVU353
 1156 0002 70B5     		push	{r4, r5, r6, lr}
 1157              	.LCFI26:
 1158              		.cfi_def_cfa_offset 16
 1159              		.cfi_offset 4, -16
 1160              		.cfi_offset 5, -12
 1161              		.cfi_offset 6, -8
 1162              		.cfi_offset 14, -4
 1163 0004 0C46     		mov	r4, r1
 1164 0006 0546     		mov	r5, r0
 306:../../Middlewares/LVGL/GUI/lvgl/src/misc/cache/class/lv_cache_lru_rb.c ****     LV_ASSERT_NULL(key);
 1165              		.loc 1 306 5 is_stmt 1 view .LVU354
 306:../../Middlewares/LVGL/GUI/lvgl/src/misc/cache/class/lv_cache_lru_rb.c ****     LV_ASSERT_NULL(key);
 1166              		.loc 1 306 24 view .LVU355
 307:../../Middlewares/LVGL/GUI/lvgl/src/misc/cache/class/lv_cache_lru_rb.c **** 
 1167              		.loc 1 307 5 view .LVU356
 307:../../Middlewares/LVGL/GUI/lvgl/src/misc/cache/class/lv_cache_lru_rb.c **** 
 1168              		.loc 1 307 5 view .LVU357
 1169 0008 89B1     		cbz	r1, .L82
 307:../../Middlewares/LVGL/GUI/lvgl/src/misc/cache/class/lv_cache_lru_rb.c **** 
 1170              		.loc 1 307 5 view .LVU358
 307:../../Middlewares/LVGL/GUI/lvgl/src/misc/cache/class/lv_cache_lru_rb.c **** 
 1171              		.loc 1 307 24 view .LVU359
 309:../../Middlewares/LVGL/GUI/lvgl/src/misc/cache/class/lv_cache_lru_rb.c ****         return NULL;
 1172              		.loc 1 309 5 view .LVU360
 313:../../Middlewares/LVGL/GUI/lvgl/src/misc/cache/class/lv_cache_lru_rb.c ****     if(new_node == NULL) {
 1173              		.loc 1 313 5 view .LVU361
 313:../../Middlewares/LVGL/GUI/lvgl/src/misc/cache/class/lv_cache_lru_rb.c ****     if(new_node == NULL) {
 1174              		.loc 1 313 31 is_stmt 0 view .LVU362
 1175 000a FFF7FEFF 		bl	alloc_new_node
 1176              	.LVL119:
 314:../../Middlewares/LVGL/GUI/lvgl/src/misc/cache/class/lv_cache_lru_rb.c ****         return NULL;
 1177              		.loc 1 314 5 is_stmt 1 view .LVU363
 314:../../Middlewares/LVGL/GUI/lvgl/src/misc/cache/class/lv_cache_lru_rb.c ****         return NULL;
 1178              		.loc 1 314 7 is_stmt 0 view .LVU364
 1179 000e 0646     		mov	r6, r0
 1180 0010 50B1     		cbz	r0, .L78
 318:../../Middlewares/LVGL/GUI/lvgl/src/misc/cache/class/lv_cache_lru_rb.c **** 
 1181              		.loc 1 318 5 is_stmt 1 view .LVU365
 318:../../Middlewares/LVGL/GUI/lvgl/src/misc/cache/class/lv_cache_lru_rb.c **** 
ARM GAS  C:\Users\28576\AppData\Local\Temp\ccwWQGxs.s 			page 35


 1182              		.loc 1 318 32 is_stmt 0 view .LVU366
 1183 0012 6968     		ldr	r1, [r5, #4]
 1184 0014 0069     		ldr	r0, [r0, #16]
 1185              	.LVL120:
 318:../../Middlewares/LVGL/GUI/lvgl/src/misc/cache/class/lv_cache_lru_rb.c **** 
 1186              		.loc 1 318 32 view .LVU367
 1187 0016 FFF7FEFF 		bl	lv_cache_entry_get_entry
 1188              	.LVL121:
 1189 001a 0646     		mov	r6, r0
 1190              	.LVL122:
 320:../../Middlewares/LVGL/GUI/lvgl/src/misc/cache/class/lv_cache_lru_rb.c **** 
 1191              		.loc 1 320 5 is_stmt 1 view .LVU368
 320:../../Middlewares/LVGL/GUI/lvgl/src/misc/cache/class/lv_cache_lru_rb.c **** 
 1192              		.loc 1 320 23 is_stmt 0 view .LVU369
 1193 001c EB6B     		ldr	r3, [r5, #60]
 320:../../Middlewares/LVGL/GUI/lvgl/src/misc/cache/class/lv_cache_lru_rb.c **** 
 1194              		.loc 1 320 20 view .LVU370
 1195 001e 2046     		mov	r0, r4
 1196              	.LVL123:
 320:../../Middlewares/LVGL/GUI/lvgl/src/misc/cache/class/lv_cache_lru_rb.c **** 
 1197              		.loc 1 320 20 view .LVU371
 1198 0020 9847     		blx	r3
 1199              	.LVL124:
 320:../../Middlewares/LVGL/GUI/lvgl/src/misc/cache/class/lv_cache_lru_rb.c **** 
 1200              		.loc 1 320 10 discriminator 1 view .LVU372
 1201 0022 EB68     		ldr	r3, [r5, #12]
 320:../../Middlewares/LVGL/GUI/lvgl/src/misc/cache/class/lv_cache_lru_rb.c **** 
 1202              		.loc 1 320 17 discriminator 1 view .LVU373
 1203 0024 0344     		add	r3, r3, r0
 1204 0026 EB60     		str	r3, [r5, #12]
 322:../../Middlewares/LVGL/GUI/lvgl/src/misc/cache/class/lv_cache_lru_rb.c **** }
 1205              		.loc 1 322 5 is_stmt 1 view .LVU374
 1206              	.LVL125:
 1207              	.L78:
 323:../../Middlewares/LVGL/GUI/lvgl/src/misc/cache/class/lv_cache_lru_rb.c **** 
 1208              		.loc 1 323 1 is_stmt 0 view .LVU375
 1209 0028 3046     		mov	r0, r6
 1210 002a 70BD     		pop	{r4, r5, r6, pc}
 1211              	.LVL126:
 1212              	.L80:
 1213              	.LCFI27:
 1214              		.cfi_def_cfa_offset 0
 1215              		.cfi_restore 4
 1216              		.cfi_restore 5
 1217              		.cfi_restore 6
 1218              		.cfi_restore 14
 306:../../Middlewares/LVGL/GUI/lvgl/src/misc/cache/class/lv_cache_lru_rb.c ****     LV_ASSERT_NULL(key);
 1219              		.loc 1 306 5 is_stmt 1 view .LVU376
 306:../../Middlewares/LVGL/GUI/lvgl/src/misc/cache/class/lv_cache_lru_rb.c ****     LV_ASSERT_NULL(key);
 1220              		.loc 1 306 5 view .LVU377
 306:../../Middlewares/LVGL/GUI/lvgl/src/misc/cache/class/lv_cache_lru_rb.c ****     LV_ASSERT_NULL(key);
 1221              		.loc 1 306 5 view .LVU378
 306:../../Middlewares/LVGL/GUI/lvgl/src/misc/cache/class/lv_cache_lru_rb.c ****     LV_ASSERT_NULL(key);
 1222              		.loc 1 306 5 view .LVU379
 306:../../Middlewares/LVGL/GUI/lvgl/src/misc/cache/class/lv_cache_lru_rb.c ****     LV_ASSERT_NULL(key);
 1223              		.loc 1 306 5 view .LVU380
 1224 002c FEE7     		b	.L80
ARM GAS  C:\Users\28576\AppData\Local\Temp\ccwWQGxs.s 			page 36


 1225              	.L82:
 1226              	.LCFI28:
 1227              		.cfi_def_cfa_offset 16
 1228              		.cfi_offset 4, -16
 1229              		.cfi_offset 5, -12
 1230              		.cfi_offset 6, -8
 1231              		.cfi_offset 14, -4
 307:../../Middlewares/LVGL/GUI/lvgl/src/misc/cache/class/lv_cache_lru_rb.c **** 
 1232              		.loc 1 307 5 view .LVU381
 307:../../Middlewares/LVGL/GUI/lvgl/src/misc/cache/class/lv_cache_lru_rb.c **** 
 1233              		.loc 1 307 5 view .LVU382
 307:../../Middlewares/LVGL/GUI/lvgl/src/misc/cache/class/lv_cache_lru_rb.c **** 
 1234              		.loc 1 307 5 view .LVU383
 307:../../Middlewares/LVGL/GUI/lvgl/src/misc/cache/class/lv_cache_lru_rb.c **** 
 1235              		.loc 1 307 5 view .LVU384
 307:../../Middlewares/LVGL/GUI/lvgl/src/misc/cache/class/lv_cache_lru_rb.c **** 
 1236              		.loc 1 307 5 view .LVU385
 1237 002e FEE7     		b	.L82
 1238              		.cfi_endproc
 1239              	.LFE24:
 1241              		.section	.text.get_cb,"ax",%progbits
 1242              		.align	1
 1243              		.syntax unified
 1244              		.thumb
 1245              		.thumb_func
 1247              	get_cb:
 1248              	.LVL127:
 1249              	.LFB23:
 264:../../Middlewares/LVGL/GUI/lvgl/src/misc/cache/class/lv_cache_lru_rb.c ****     LV_UNUSED(user_data);
 1250              		.loc 1 264 1 view -0
 1251              		.cfi_startproc
 1252              		@ args = 0, pretend = 0, frame = 0
 1253              		@ frame_needed = 0, uses_anonymous_args = 0
 265:../../Middlewares/LVGL/GUI/lvgl/src/misc/cache/class/lv_cache_lru_rb.c **** 
 1254              		.loc 1 265 5 view .LVU387
 267:../../Middlewares/LVGL/GUI/lvgl/src/misc/cache/class/lv_cache_lru_rb.c **** 
 1255              		.loc 1 267 5 view .LVU388
 269:../../Middlewares/LVGL/GUI/lvgl/src/misc/cache/class/lv_cache_lru_rb.c ****     LV_ASSERT_NULL(key);
 1256              		.loc 1 269 5 view .LVU389
 269:../../Middlewares/LVGL/GUI/lvgl/src/misc/cache/class/lv_cache_lru_rb.c ****     LV_ASSERT_NULL(key);
 1257              		.loc 1 269 5 view .LVU390
 1258 0000 A0B3     		cbz	r0, .L88
 264:../../Middlewares/LVGL/GUI/lvgl/src/misc/cache/class/lv_cache_lru_rb.c ****     LV_UNUSED(user_data);
 1259              		.loc 1 264 1 is_stmt 0 view .LVU391
 1260 0002 2DE9F041 		push	{r4, r5, r6, r7, r8, lr}
 1261              	.LCFI29:
 1262              		.cfi_def_cfa_offset 24
 1263              		.cfi_offset 4, -24
 1264              		.cfi_offset 5, -20
 1265              		.cfi_offset 6, -16
 1266              		.cfi_offset 7, -12
 1267              		.cfi_offset 8, -8
 1268              		.cfi_offset 14, -4
 1269 0006 0E46     		mov	r6, r1
 1270 0008 0446     		mov	r4, r0
 269:../../Middlewares/LVGL/GUI/lvgl/src/misc/cache/class/lv_cache_lru_rb.c ****     LV_ASSERT_NULL(key);
 1271              		.loc 1 269 5 is_stmt 1 view .LVU392
ARM GAS  C:\Users\28576\AppData\Local\Temp\ccwWQGxs.s 			page 37


 269:../../Middlewares/LVGL/GUI/lvgl/src/misc/cache/class/lv_cache_lru_rb.c ****     LV_ASSERT_NULL(key);
 1272              		.loc 1 269 24 view .LVU393
 270:../../Middlewares/LVGL/GUI/lvgl/src/misc/cache/class/lv_cache_lru_rb.c **** 
 1273              		.loc 1 270 5 view .LVU394
 270:../../Middlewares/LVGL/GUI/lvgl/src/misc/cache/class/lv_cache_lru_rb.c **** 
 1274              		.loc 1 270 5 view .LVU395
 1275 000a 81B3     		cbz	r1, .L90
 270:../../Middlewares/LVGL/GUI/lvgl/src/misc/cache/class/lv_cache_lru_rb.c **** 
 1276              		.loc 1 270 5 view .LVU396
 270:../../Middlewares/LVGL/GUI/lvgl/src/misc/cache/class/lv_cache_lru_rb.c **** 
 1277              		.loc 1 270 24 view .LVU397
 272:../../Middlewares/LVGL/GUI/lvgl/src/misc/cache/class/lv_cache_lru_rb.c ****         return NULL;
 1278              		.loc 1 272 5 view .LVU398
 277:../../Middlewares/LVGL/GUI/lvgl/src/misc/cache/class/lv_cache_lru_rb.c ****     if(head) {
 1279              		.loc 1 277 5 view .LVU399
 277:../../Middlewares/LVGL/GUI/lvgl/src/misc/cache/class/lv_cache_lru_rb.c ****     if(head) {
 1280              		.loc 1 277 34 is_stmt 0 view .LVU400
 1281 000c 00F13003 		add	r3, r0, #48
 1282 0010 9846     		mov	r8, r3
 277:../../Middlewares/LVGL/GUI/lvgl/src/misc/cache/class/lv_cache_lru_rb.c ****     if(head) {
 1283              		.loc 1 277 19 view .LVU401
 1284 0012 1846     		mov	r0, r3
 1285              	.LVL128:
 277:../../Middlewares/LVGL/GUI/lvgl/src/misc/cache/class/lv_cache_lru_rb.c ****     if(head) {
 1286              		.loc 1 277 19 view .LVU402
 1287 0014 FFF7FEFF 		bl	lv_ll_get_head
 1288              	.LVL129:
 278:../../Middlewares/LVGL/GUI/lvgl/src/misc/cache/class/lv_cache_lru_rb.c ****         lv_rb_node_t * node = *(lv_rb_node_t **)head;
 1289              		.loc 1 278 5 is_stmt 1 view .LVU403
 278:../../Middlewares/LVGL/GUI/lvgl/src/misc/cache/class/lv_cache_lru_rb.c ****         lv_rb_node_t * node = *(lv_rb_node_t **)head;
 1290              		.loc 1 278 7 is_stmt 0 view .LVU404
 1291 0018 60B1     		cbz	r0, .L91
 1292              	.LBB23:
 279:../../Middlewares/LVGL/GUI/lvgl/src/misc/cache/class/lv_cache_lru_rb.c ****         void * data = node->data;
 1293              		.loc 1 279 9 is_stmt 1 view .LVU405
 279:../../Middlewares/LVGL/GUI/lvgl/src/misc/cache/class/lv_cache_lru_rb.c ****         void * data = node->data;
 1294              		.loc 1 279 24 is_stmt 0 view .LVU406
 1295 001a 0368     		ldr	r3, [r0]
 1296              	.LVL130:
 280:../../Middlewares/LVGL/GUI/lvgl/src/misc/cache/class/lv_cache_lru_rb.c ****         lv_cache_entry_t * entry = lv_cache_entry_get_entry(data, cache->node_size);
 1297              		.loc 1 280 9 is_stmt 1 view .LVU407
 280:../../Middlewares/LVGL/GUI/lvgl/src/misc/cache/class/lv_cache_lru_rb.c ****         lv_cache_entry_t * entry = lv_cache_entry_get_entry(data, cache->node_size);
 1298              		.loc 1 280 16 is_stmt 0 view .LVU408
 1299 001c 1B69     		ldr	r3, [r3, #16]
 1300              	.LVL131:
 280:../../Middlewares/LVGL/GUI/lvgl/src/misc/cache/class/lv_cache_lru_rb.c ****         lv_cache_entry_t * entry = lv_cache_entry_get_entry(data, cache->node_size);
 1301              		.loc 1 280 16 view .LVU409
 1302 001e 1D46     		mov	r5, r3
 1303              	.LVL132:
 281:../../Middlewares/LVGL/GUI/lvgl/src/misc/cache/class/lv_cache_lru_rb.c ****         if(lru->cache.ops.compare_cb(data, key) == 0) {
 1304              		.loc 1 281 9 is_stmt 1 view .LVU410
 281:../../Middlewares/LVGL/GUI/lvgl/src/misc/cache/class/lv_cache_lru_rb.c ****         if(lru->cache.ops.compare_cb(data, key) == 0) {
 1305              		.loc 1 281 36 is_stmt 0 view .LVU411
 1306 0020 6168     		ldr	r1, [r4, #4]
 1307 0022 1846     		mov	r0, r3
 1308              	.LVL133:
 281:../../Middlewares/LVGL/GUI/lvgl/src/misc/cache/class/lv_cache_lru_rb.c ****         if(lru->cache.ops.compare_cb(data, key) == 0) {
ARM GAS  C:\Users\28576\AppData\Local\Temp\ccwWQGxs.s 			page 38


 1309              		.loc 1 281 36 view .LVU412
 1310 0024 FFF7FEFF 		bl	lv_cache_entry_get_entry
 1311              	.LVL134:
 281:../../Middlewares/LVGL/GUI/lvgl/src/misc/cache/class/lv_cache_lru_rb.c ****         if(lru->cache.ops.compare_cb(data, key) == 0) {
 1312              		.loc 1 281 36 view .LVU413
 1313 0028 0746     		mov	r7, r0
 1314              	.LVL135:
 282:../../Middlewares/LVGL/GUI/lvgl/src/misc/cache/class/lv_cache_lru_rb.c ****             return entry;
 1315              		.loc 1 282 9 is_stmt 1 view .LVU414
 282:../../Middlewares/LVGL/GUI/lvgl/src/misc/cache/class/lv_cache_lru_rb.c ****             return entry;
 1316              		.loc 1 282 26 is_stmt 0 view .LVU415
 1317 002a 2369     		ldr	r3, [r4, #16]
 282:../../Middlewares/LVGL/GUI/lvgl/src/misc/cache/class/lv_cache_lru_rb.c ****             return entry;
 1318              		.loc 1 282 12 view .LVU416
 1319 002c 3146     		mov	r1, r6
 1320 002e 2846     		mov	r0, r5
 1321              	.LVL136:
 282:../../Middlewares/LVGL/GUI/lvgl/src/misc/cache/class/lv_cache_lru_rb.c ****             return entry;
 1322              		.loc 1 282 12 view .LVU417
 1323 0030 9847     		blx	r3
 1324              	.LVL137:
 282:../../Middlewares/LVGL/GUI/lvgl/src/misc/cache/class/lv_cache_lru_rb.c ****             return entry;
 1325              		.loc 1 282 11 discriminator 1 view .LVU418
 1326 0032 C0B1     		cbz	r0, .L86
 1327              	.LVL138:
 1328              	.L91:
 282:../../Middlewares/LVGL/GUI/lvgl/src/misc/cache/class/lv_cache_lru_rb.c ****             return entry;
 1329              		.loc 1 282 11 discriminator 1 view .LVU419
 1330              	.LBE23:
 287:../../Middlewares/LVGL/GUI/lvgl/src/misc/cache/class/lv_cache_lru_rb.c ****     /*cache hit*/
 1331              		.loc 1 287 5 is_stmt 1 view .LVU420
 287:../../Middlewares/LVGL/GUI/lvgl/src/misc/cache/class/lv_cache_lru_rb.c ****     /*cache hit*/
 1332              		.loc 1 287 27 is_stmt 0 view .LVU421
 1333 0034 3146     		mov	r1, r6
 1334 0036 04F12400 		add	r0, r4, #36
 1335 003a FFF7FEFF 		bl	lv_rb_find
 1336              	.LVL139:
 289:../../Middlewares/LVGL/GUI/lvgl/src/misc/cache/class/lv_cache_lru_rb.c ****         void * lru_node = *get_lru_node(lru, node);
 1337              		.loc 1 289 5 is_stmt 1 view .LVU422
 289:../../Middlewares/LVGL/GUI/lvgl/src/misc/cache/class/lv_cache_lru_rb.c ****         void * lru_node = *get_lru_node(lru, node);
 1338              		.loc 1 289 7 is_stmt 0 view .LVU423
 1339 003e 0546     		mov	r5, r0
 1340 0040 0746     		mov	r7, r0
 1341 0042 80B1     		cbz	r0, .L86
 1342              	.LBB24:
 290:../../Middlewares/LVGL/GUI/lvgl/src/misc/cache/class/lv_cache_lru_rb.c ****         head = lv_ll_get_head(&lru->ll);
 1343              		.loc 1 290 9 is_stmt 1 view .LVU424
 1344              	.LVL140:
 1345              	.LBB25:
 1346              	.LBI25:
 184:../../Middlewares/LVGL/GUI/lvgl/src/misc/cache/class/lv_cache_lru_rb.c **** {
 1347              		.loc 1 184 23 view .LVU425
 1348              	.LBB26:
 186:../../Middlewares/LVGL/GUI/lvgl/src/misc/cache/class/lv_cache_lru_rb.c **** }
 1349              		.loc 1 186 5 view .LVU426
 186:../../Middlewares/LVGL/GUI/lvgl/src/misc/cache/class/lv_cache_lru_rb.c **** }
 1350              		.loc 1 186 34 is_stmt 0 view .LVU427
ARM GAS  C:\Users\28576\AppData\Local\Temp\ccwWQGxs.s 			page 39


 1351 0044 0269     		ldr	r2, [r0, #16]
 186:../../Middlewares/LVGL/GUI/lvgl/src/misc/cache/class/lv_cache_lru_rb.c **** }
 1352              		.loc 1 186 50 view .LVU428
 1353 0046 E36A     		ldr	r3, [r4, #44]
 186:../../Middlewares/LVGL/GUI/lvgl/src/misc/cache/class/lv_cache_lru_rb.c **** }
 1354              		.loc 1 186 56 view .LVU429
 1355 0048 043B     		subs	r3, r3, #4
 1356              	.LVL141:
 186:../../Middlewares/LVGL/GUI/lvgl/src/misc/cache/class/lv_cache_lru_rb.c **** }
 1357              		.loc 1 186 56 view .LVU430
 1358              	.LBE26:
 1359              	.LBE25:
 290:../../Middlewares/LVGL/GUI/lvgl/src/misc/cache/class/lv_cache_lru_rb.c ****         head = lv_ll_get_head(&lru->ll);
 1360              		.loc 1 290 16 discriminator 1 view .LVU431
 1361 004a D658     		ldr	r6, [r2, r3]
 1362              	.LVL142:
 291:../../Middlewares/LVGL/GUI/lvgl/src/misc/cache/class/lv_cache_lru_rb.c ****         lv_ll_move_before(&lru->ll, lru_node, head);
 1363              		.loc 1 291 9 is_stmt 1 view .LVU432
 291:../../Middlewares/LVGL/GUI/lvgl/src/misc/cache/class/lv_cache_lru_rb.c ****         lv_ll_move_before(&lru->ll, lru_node, head);
 1364              		.loc 1 291 16 is_stmt 0 view .LVU433
 1365 004c 4046     		mov	r0, r8
 1366              	.LVL143:
 291:../../Middlewares/LVGL/GUI/lvgl/src/misc/cache/class/lv_cache_lru_rb.c ****         lv_ll_move_before(&lru->ll, lru_node, head);
 1367              		.loc 1 291 16 view .LVU434
 1368 004e FFF7FEFF 		bl	lv_ll_get_head
 1369              	.LVL144:
 1370 0052 0246     		mov	r2, r0
 1371              	.LVL145:
 292:../../Middlewares/LVGL/GUI/lvgl/src/misc/cache/class/lv_cache_lru_rb.c **** 
 1372              		.loc 1 292 9 is_stmt 1 view .LVU435
 1373 0054 3146     		mov	r1, r6
 1374 0056 4046     		mov	r0, r8
 1375              	.LVL146:
 292:../../Middlewares/LVGL/GUI/lvgl/src/misc/cache/class/lv_cache_lru_rb.c **** 
 1376              		.loc 1 292 9 is_stmt 0 view .LVU436
 1377 0058 FFF7FEFF 		bl	lv_ll_move_before
 1378              	.LVL147:
 294:../../Middlewares/LVGL/GUI/lvgl/src/misc/cache/class/lv_cache_lru_rb.c ****         return entry;
 1379              		.loc 1 294 9 is_stmt 1 view .LVU437
 294:../../Middlewares/LVGL/GUI/lvgl/src/misc/cache/class/lv_cache_lru_rb.c ****         return entry;
 1380              		.loc 1 294 36 is_stmt 0 view .LVU438
 1381 005c 6168     		ldr	r1, [r4, #4]
 1382 005e 2869     		ldr	r0, [r5, #16]
 1383 0060 FFF7FEFF 		bl	lv_cache_entry_get_entry
 1384              	.LVL148:
 1385 0064 0746     		mov	r7, r0
 1386              	.LVL149:
 295:../../Middlewares/LVGL/GUI/lvgl/src/misc/cache/class/lv_cache_lru_rb.c ****     }
 1387              		.loc 1 295 9 is_stmt 1 view .LVU439
 1388              	.L86:
 295:../../Middlewares/LVGL/GUI/lvgl/src/misc/cache/class/lv_cache_lru_rb.c ****     }
 1389              		.loc 1 295 9 is_stmt 0 view .LVU440
 1390              	.LBE24:
 298:../../Middlewares/LVGL/GUI/lvgl/src/misc/cache/class/lv_cache_lru_rb.c **** 
 1391              		.loc 1 298 1 view .LVU441
 1392 0066 3846     		mov	r0, r7
 1393 0068 BDE8F081 		pop	{r4, r5, r6, r7, r8, pc}
ARM GAS  C:\Users\28576\AppData\Local\Temp\ccwWQGxs.s 			page 40


 1394              	.LVL150:
 1395              	.L88:
 1396              	.LCFI30:
 1397              		.cfi_def_cfa_offset 0
 1398              		.cfi_restore 4
 1399              		.cfi_restore 5
 1400              		.cfi_restore 6
 1401              		.cfi_restore 7
 1402              		.cfi_restore 8
 1403              		.cfi_restore 14
 269:../../Middlewares/LVGL/GUI/lvgl/src/misc/cache/class/lv_cache_lru_rb.c ****     LV_ASSERT_NULL(key);
 1404              		.loc 1 269 5 is_stmt 1 view .LVU442
 269:../../Middlewares/LVGL/GUI/lvgl/src/misc/cache/class/lv_cache_lru_rb.c ****     LV_ASSERT_NULL(key);
 1405              		.loc 1 269 5 view .LVU443
 269:../../Middlewares/LVGL/GUI/lvgl/src/misc/cache/class/lv_cache_lru_rb.c ****     LV_ASSERT_NULL(key);
 1406              		.loc 1 269 5 view .LVU444
 269:../../Middlewares/LVGL/GUI/lvgl/src/misc/cache/class/lv_cache_lru_rb.c ****     LV_ASSERT_NULL(key);
 1407              		.loc 1 269 5 view .LVU445
 269:../../Middlewares/LVGL/GUI/lvgl/src/misc/cache/class/lv_cache_lru_rb.c ****     LV_ASSERT_NULL(key);
 1408              		.loc 1 269 5 view .LVU446
 1409 006c FEE7     		b	.L88
 1410              	.L90:
 1411              	.LCFI31:
 1412              		.cfi_def_cfa_offset 24
 1413              		.cfi_offset 4, -24
 1414              		.cfi_offset 5, -20
 1415              		.cfi_offset 6, -16
 1416              		.cfi_offset 7, -12
 1417              		.cfi_offset 8, -8
 1418              		.cfi_offset 14, -4
 270:../../Middlewares/LVGL/GUI/lvgl/src/misc/cache/class/lv_cache_lru_rb.c **** 
 1419              		.loc 1 270 5 view .LVU447
 270:../../Middlewares/LVGL/GUI/lvgl/src/misc/cache/class/lv_cache_lru_rb.c **** 
 1420              		.loc 1 270 5 view .LVU448
 270:../../Middlewares/LVGL/GUI/lvgl/src/misc/cache/class/lv_cache_lru_rb.c **** 
 1421              		.loc 1 270 5 view .LVU449
 270:../../Middlewares/LVGL/GUI/lvgl/src/misc/cache/class/lv_cache_lru_rb.c **** 
 1422              		.loc 1 270 5 view .LVU450
 270:../../Middlewares/LVGL/GUI/lvgl/src/misc/cache/class/lv_cache_lru_rb.c **** 
 1423              		.loc 1 270 5 view .LVU451
 1424 006e FEE7     		b	.L90
 1425              		.cfi_endproc
 1426              	.LFE23:
 1428              		.section	.text.init_cnt_cb,"ax",%progbits
 1429              		.align	1
 1430              		.syntax unified
 1431              		.thumb
 1432              		.thumb_func
 1434              	init_cnt_cb:
 1435              	.LVL151:
 1436              	.LFB20:
 203:../../Middlewares/LVGL/GUI/lvgl/src/misc/cache/class/lv_cache_lru_rb.c ****     lv_lru_rb_t_ * lru = (lv_lru_rb_t_ *)cache;
 1437              		.loc 1 203 1 view -0
 1438              		.cfi_startproc
 1439              		@ args = 0, pretend = 0, frame = 0
 1440              		@ frame_needed = 0, uses_anonymous_args = 0
 203:../../Middlewares/LVGL/GUI/lvgl/src/misc/cache/class/lv_cache_lru_rb.c ****     lv_lru_rb_t_ * lru = (lv_lru_rb_t_ *)cache;
ARM GAS  C:\Users\28576\AppData\Local\Temp\ccwWQGxs.s 			page 41


 1441              		.loc 1 203 1 is_stmt 0 view .LVU453
 1442 0000 38B5     		push	{r3, r4, r5, lr}
 1443              	.LCFI32:
 1444              		.cfi_def_cfa_offset 16
 1445              		.cfi_offset 3, -16
 1446              		.cfi_offset 4, -12
 1447              		.cfi_offset 5, -8
 1448              		.cfi_offset 14, -4
 204:../../Middlewares/LVGL/GUI/lvgl/src/misc/cache/class/lv_cache_lru_rb.c **** 
 1449              		.loc 1 204 5 is_stmt 1 view .LVU454
 1450              	.LVL152:
 206:../../Middlewares/LVGL/GUI/lvgl/src/misc/cache/class/lv_cache_lru_rb.c ****     LV_ASSERT_NULL(lru->cache.ops.free_cb);
 1451              		.loc 1 206 5 view .LVU455
 206:../../Middlewares/LVGL/GUI/lvgl/src/misc/cache/class/lv_cache_lru_rb.c ****     LV_ASSERT_NULL(lru->cache.ops.free_cb);
 1452              		.loc 1 206 5 view .LVU456
 1453 0002 0569     		ldr	r5, [r0, #16]
 1454 0004 2DB1     		cbz	r5, .L97
 1455 0006 0446     		mov	r4, r0
 206:../../Middlewares/LVGL/GUI/lvgl/src/misc/cache/class/lv_cache_lru_rb.c ****     LV_ASSERT_NULL(lru->cache.ops.free_cb);
 1456              		.loc 1 206 5 view .LVU457
 206:../../Middlewares/LVGL/GUI/lvgl/src/misc/cache/class/lv_cache_lru_rb.c ****     LV_ASSERT_NULL(lru->cache.ops.free_cb);
 1457              		.loc 1 206 46 view .LVU458
 207:../../Middlewares/LVGL/GUI/lvgl/src/misc/cache/class/lv_cache_lru_rb.c ****     LV_ASSERT(lru->cache.node_size > 0);
 1458              		.loc 1 207 5 view .LVU459
 207:../../Middlewares/LVGL/GUI/lvgl/src/misc/cache/class/lv_cache_lru_rb.c ****     LV_ASSERT(lru->cache.node_size > 0);
 1459              		.loc 1 207 5 view .LVU460
 1460 0008 8369     		ldr	r3, [r0, #24]
 1461 000a 1BB1     		cbz	r3, .L99
 207:../../Middlewares/LVGL/GUI/lvgl/src/misc/cache/class/lv_cache_lru_rb.c ****     LV_ASSERT(lru->cache.node_size > 0);
 1462              		.loc 1 207 5 view .LVU461
 207:../../Middlewares/LVGL/GUI/lvgl/src/misc/cache/class/lv_cache_lru_rb.c ****     LV_ASSERT(lru->cache.node_size > 0);
 1463              		.loc 1 207 43 view .LVU462
 208:../../Middlewares/LVGL/GUI/lvgl/src/misc/cache/class/lv_cache_lru_rb.c **** 
 1464              		.loc 1 208 5 view .LVU463
 208:../../Middlewares/LVGL/GUI/lvgl/src/misc/cache/class/lv_cache_lru_rb.c **** 
 1465              		.loc 1 208 5 view .LVU464
 1466 000c 4068     		ldr	r0, [r0, #4]
 1467              	.LVL153:
 208:../../Middlewares/LVGL/GUI/lvgl/src/misc/cache/class/lv_cache_lru_rb.c **** 
 1468              		.loc 1 208 5 is_stmt 0 view .LVU465
 1469 000e 10B9     		cbnz	r0, .L100
 1470              	.L101:
 208:../../Middlewares/LVGL/GUI/lvgl/src/misc/cache/class/lv_cache_lru_rb.c **** 
 1471              		.loc 1 208 5 is_stmt 1 view .LVU466
 208:../../Middlewares/LVGL/GUI/lvgl/src/misc/cache/class/lv_cache_lru_rb.c **** 
 1472              		.loc 1 208 5 view .LVU467
 208:../../Middlewares/LVGL/GUI/lvgl/src/misc/cache/class/lv_cache_lru_rb.c **** 
 1473              		.loc 1 208 5 view .LVU468
 208:../../Middlewares/LVGL/GUI/lvgl/src/misc/cache/class/lv_cache_lru_rb.c **** 
 1474              		.loc 1 208 5 view .LVU469
 208:../../Middlewares/LVGL/GUI/lvgl/src/misc/cache/class/lv_cache_lru_rb.c **** 
 1475              		.loc 1 208 5 view .LVU470
 1476 0010 FEE7     		b	.L101
 1477              	.LVL154:
 1478              	.L97:
 206:../../Middlewares/LVGL/GUI/lvgl/src/misc/cache/class/lv_cache_lru_rb.c ****     LV_ASSERT_NULL(lru->cache.ops.free_cb);
 1479              		.loc 1 206 5 view .LVU471
ARM GAS  C:\Users\28576\AppData\Local\Temp\ccwWQGxs.s 			page 42


 206:../../Middlewares/LVGL/GUI/lvgl/src/misc/cache/class/lv_cache_lru_rb.c ****     LV_ASSERT_NULL(lru->cache.ops.free_cb);
 1480              		.loc 1 206 5 view .LVU472
 206:../../Middlewares/LVGL/GUI/lvgl/src/misc/cache/class/lv_cache_lru_rb.c ****     LV_ASSERT_NULL(lru->cache.ops.free_cb);
 1481              		.loc 1 206 5 view .LVU473
 206:../../Middlewares/LVGL/GUI/lvgl/src/misc/cache/class/lv_cache_lru_rb.c ****     LV_ASSERT_NULL(lru->cache.ops.free_cb);
 1482              		.loc 1 206 5 view .LVU474
 206:../../Middlewares/LVGL/GUI/lvgl/src/misc/cache/class/lv_cache_lru_rb.c ****     LV_ASSERT_NULL(lru->cache.ops.free_cb);
 1483              		.loc 1 206 5 view .LVU475
 1484 0012 FEE7     		b	.L97
 1485              	.L99:
 207:../../Middlewares/LVGL/GUI/lvgl/src/misc/cache/class/lv_cache_lru_rb.c ****     LV_ASSERT(lru->cache.node_size > 0);
 1486              		.loc 1 207 5 view .LVU476
 207:../../Middlewares/LVGL/GUI/lvgl/src/misc/cache/class/lv_cache_lru_rb.c ****     LV_ASSERT(lru->cache.node_size > 0);
 1487              		.loc 1 207 5 view .LVU477
 207:../../Middlewares/LVGL/GUI/lvgl/src/misc/cache/class/lv_cache_lru_rb.c ****     LV_ASSERT(lru->cache.node_size > 0);
 1488              		.loc 1 207 5 view .LVU478
 207:../../Middlewares/LVGL/GUI/lvgl/src/misc/cache/class/lv_cache_lru_rb.c ****     LV_ASSERT(lru->cache.node_size > 0);
 1489              		.loc 1 207 5 view .LVU479
 207:../../Middlewares/LVGL/GUI/lvgl/src/misc/cache/class/lv_cache_lru_rb.c ****     LV_ASSERT(lru->cache.node_size > 0);
 1490              		.loc 1 207 5 view .LVU480
 1491 0014 FEE7     		b	.L99
 1492              	.LVL155:
 1493              	.L100:
 208:../../Middlewares/LVGL/GUI/lvgl/src/misc/cache/class/lv_cache_lru_rb.c **** 
 1494              		.loc 1 208 5 view .LVU481
 210:../../Middlewares/LVGL/GUI/lvgl/src/misc/cache/class/lv_cache_lru_rb.c ****         return false;
 1495              		.loc 1 210 5 view .LVU482
 215:../../Middlewares/LVGL/GUI/lvgl/src/misc/cache/class/lv_cache_lru_rb.c ****         return false;
 1496              		.loc 1 215 5 view .LVU483
 215:../../Middlewares/LVGL/GUI/lvgl/src/misc/cache/class/lv_cache_lru_rb.c ****         return false;
 1497              		.loc 1 215 57 is_stmt 0 view .LVU484
 1498 0016 FFF7FEFF 		bl	lv_cache_entry_get_size
 1499              	.LVL156:
 215:../../Middlewares/LVGL/GUI/lvgl/src/misc/cache/class/lv_cache_lru_rb.c ****         return false;
 1500              		.loc 1 215 9 discriminator 1 view .LVU485
 1501 001a 021D     		adds	r2, r0, #4
 1502 001c 2946     		mov	r1, r5
 1503 001e 04F12400 		add	r0, r4, #36
 1504 0022 FFF7FEFF 		bl	lv_rb_init
 1505              	.LVL157:
 215:../../Middlewares/LVGL/GUI/lvgl/src/misc/cache/class/lv_cache_lru_rb.c ****         return false;
 1506              		.loc 1 215 7 discriminator 2 view .LVU486
 1507 0026 0546     		mov	r5, r0
 1508 0028 08B9     		cbnz	r0, .L104
 1509              	.L102:
 223:../../Middlewares/LVGL/GUI/lvgl/src/misc/cache/class/lv_cache_lru_rb.c **** 
 1510              		.loc 1 223 1 view .LVU487
 1511 002a 2846     		mov	r0, r5
 1512 002c 38BD     		pop	{r3, r4, r5, pc}
 1513              	.LVL158:
 1514              	.L104:
 218:../../Middlewares/LVGL/GUI/lvgl/src/misc/cache/class/lv_cache_lru_rb.c **** 
 1515              		.loc 1 218 5 is_stmt 1 view .LVU488
 1516 002e 0421     		movs	r1, #4
 1517 0030 04F13000 		add	r0, r4, #48
 1518 0034 FFF7FEFF 		bl	lv_ll_init
 1519              	.LVL159:
ARM GAS  C:\Users\28576\AppData\Local\Temp\ccwWQGxs.s 			page 43


 220:../../Middlewares/LVGL/GUI/lvgl/src/misc/cache/class/lv_cache_lru_rb.c **** 
 1520              		.loc 1 220 5 view .LVU489
 220:../../Middlewares/LVGL/GUI/lvgl/src/misc/cache/class/lv_cache_lru_rb.c **** 
 1521              		.loc 1 220 27 is_stmt 0 view .LVU490
 1522 0038 014B     		ldr	r3, .L105
 1523 003a E363     		str	r3, [r4, #60]
 222:../../Middlewares/LVGL/GUI/lvgl/src/misc/cache/class/lv_cache_lru_rb.c **** }
 1524              		.loc 1 222 5 is_stmt 1 view .LVU491
 222:../../Middlewares/LVGL/GUI/lvgl/src/misc/cache/class/lv_cache_lru_rb.c **** }
 1525              		.loc 1 222 12 is_stmt 0 view .LVU492
 1526 003c F5E7     		b	.L102
 1527              	.L106:
 1528 003e 00BF     		.align	2
 1529              	.L105:
 1530 0040 00000000 		.word	cnt_get_data_size_cb
 1531              		.cfi_endproc
 1532              	.LFE20:
 1534              		.section	.text.init_size_cb,"ax",%progbits
 1535              		.align	1
 1536              		.syntax unified
 1537              		.thumb
 1538              		.thumb_func
 1540              	init_size_cb:
 1541              	.LVL160:
 1542              	.LFB21:
 226:../../Middlewares/LVGL/GUI/lvgl/src/misc/cache/class/lv_cache_lru_rb.c ****     lv_lru_rb_t_ * lru = (lv_lru_rb_t_ *)cache;
 1543              		.loc 1 226 1 is_stmt 1 view -0
 1544              		.cfi_startproc
 1545              		@ args = 0, pretend = 0, frame = 0
 1546              		@ frame_needed = 0, uses_anonymous_args = 0
 226:../../Middlewares/LVGL/GUI/lvgl/src/misc/cache/class/lv_cache_lru_rb.c ****     lv_lru_rb_t_ * lru = (lv_lru_rb_t_ *)cache;
 1547              		.loc 1 226 1 is_stmt 0 view .LVU494
 1548 0000 38B5     		push	{r3, r4, r5, lr}
 1549              	.LCFI33:
 1550              		.cfi_def_cfa_offset 16
 1551              		.cfi_offset 3, -16
 1552              		.cfi_offset 4, -12
 1553              		.cfi_offset 5, -8
 1554              		.cfi_offset 14, -4
 227:../../Middlewares/LVGL/GUI/lvgl/src/misc/cache/class/lv_cache_lru_rb.c **** 
 1555              		.loc 1 227 5 is_stmt 1 view .LVU495
 1556              	.LVL161:
 229:../../Middlewares/LVGL/GUI/lvgl/src/misc/cache/class/lv_cache_lru_rb.c ****     LV_ASSERT_NULL(lru->cache.ops.free_cb);
 1557              		.loc 1 229 5 view .LVU496
 229:../../Middlewares/LVGL/GUI/lvgl/src/misc/cache/class/lv_cache_lru_rb.c ****     LV_ASSERT_NULL(lru->cache.ops.free_cb);
 1558              		.loc 1 229 5 view .LVU497
 1559 0002 0569     		ldr	r5, [r0, #16]
 1560 0004 2DB1     		cbz	r5, .L109
 1561 0006 0446     		mov	r4, r0
 229:../../Middlewares/LVGL/GUI/lvgl/src/misc/cache/class/lv_cache_lru_rb.c ****     LV_ASSERT_NULL(lru->cache.ops.free_cb);
 1562              		.loc 1 229 5 view .LVU498
 229:../../Middlewares/LVGL/GUI/lvgl/src/misc/cache/class/lv_cache_lru_rb.c ****     LV_ASSERT_NULL(lru->cache.ops.free_cb);
 1563              		.loc 1 229 46 view .LVU499
 230:../../Middlewares/LVGL/GUI/lvgl/src/misc/cache/class/lv_cache_lru_rb.c ****     LV_ASSERT(lru->cache.node_size > 0);
 1564              		.loc 1 230 5 view .LVU500
 230:../../Middlewares/LVGL/GUI/lvgl/src/misc/cache/class/lv_cache_lru_rb.c ****     LV_ASSERT(lru->cache.node_size > 0);
 1565              		.loc 1 230 5 view .LVU501
ARM GAS  C:\Users\28576\AppData\Local\Temp\ccwWQGxs.s 			page 44


 1566 0008 8369     		ldr	r3, [r0, #24]
 1567 000a 1BB1     		cbz	r3, .L111
 230:../../Middlewares/LVGL/GUI/lvgl/src/misc/cache/class/lv_cache_lru_rb.c ****     LV_ASSERT(lru->cache.node_size > 0);
 1568              		.loc 1 230 5 view .LVU502
 230:../../Middlewares/LVGL/GUI/lvgl/src/misc/cache/class/lv_cache_lru_rb.c ****     LV_ASSERT(lru->cache.node_size > 0);
 1569              		.loc 1 230 43 view .LVU503
 231:../../Middlewares/LVGL/GUI/lvgl/src/misc/cache/class/lv_cache_lru_rb.c **** 
 1570              		.loc 1 231 5 view .LVU504
 231:../../Middlewares/LVGL/GUI/lvgl/src/misc/cache/class/lv_cache_lru_rb.c **** 
 1571              		.loc 1 231 5 view .LVU505
 1572 000c 4068     		ldr	r0, [r0, #4]
 1573              	.LVL162:
 231:../../Middlewares/LVGL/GUI/lvgl/src/misc/cache/class/lv_cache_lru_rb.c **** 
 1574              		.loc 1 231 5 is_stmt 0 view .LVU506
 1575 000e 10B9     		cbnz	r0, .L112
 1576              	.L113:
 231:../../Middlewares/LVGL/GUI/lvgl/src/misc/cache/class/lv_cache_lru_rb.c **** 
 1577              		.loc 1 231 5 is_stmt 1 view .LVU507
 231:../../Middlewares/LVGL/GUI/lvgl/src/misc/cache/class/lv_cache_lru_rb.c **** 
 1578              		.loc 1 231 5 view .LVU508
 231:../../Middlewares/LVGL/GUI/lvgl/src/misc/cache/class/lv_cache_lru_rb.c **** 
 1579              		.loc 1 231 5 view .LVU509
 231:../../Middlewares/LVGL/GUI/lvgl/src/misc/cache/class/lv_cache_lru_rb.c **** 
 1580              		.loc 1 231 5 view .LVU510
 231:../../Middlewares/LVGL/GUI/lvgl/src/misc/cache/class/lv_cache_lru_rb.c **** 
 1581              		.loc 1 231 5 view .LVU511
 1582 0010 FEE7     		b	.L113
 1583              	.LVL163:
 1584              	.L109:
 229:../../Middlewares/LVGL/GUI/lvgl/src/misc/cache/class/lv_cache_lru_rb.c ****     LV_ASSERT_NULL(lru->cache.ops.free_cb);
 1585              		.loc 1 229 5 view .LVU512
 229:../../Middlewares/LVGL/GUI/lvgl/src/misc/cache/class/lv_cache_lru_rb.c ****     LV_ASSERT_NULL(lru->cache.ops.free_cb);
 1586              		.loc 1 229 5 view .LVU513
 229:../../Middlewares/LVGL/GUI/lvgl/src/misc/cache/class/lv_cache_lru_rb.c ****     LV_ASSERT_NULL(lru->cache.ops.free_cb);
 1587              		.loc 1 229 5 view .LVU514
 229:../../Middlewares/LVGL/GUI/lvgl/src/misc/cache/class/lv_cache_lru_rb.c ****     LV_ASSERT_NULL(lru->cache.ops.free_cb);
 1588              		.loc 1 229 5 view .LVU515
 229:../../Middlewares/LVGL/GUI/lvgl/src/misc/cache/class/lv_cache_lru_rb.c ****     LV_ASSERT_NULL(lru->cache.ops.free_cb);
 1589              		.loc 1 229 5 view .LVU516
 1590 0012 FEE7     		b	.L109
 1591              	.L111:
 230:../../Middlewares/LVGL/GUI/lvgl/src/misc/cache/class/lv_cache_lru_rb.c ****     LV_ASSERT(lru->cache.node_size > 0);
 1592              		.loc 1 230 5 view .LVU517
 230:../../Middlewares/LVGL/GUI/lvgl/src/misc/cache/class/lv_cache_lru_rb.c ****     LV_ASSERT(lru->cache.node_size > 0);
 1593              		.loc 1 230 5 view .LVU518
 230:../../Middlewares/LVGL/GUI/lvgl/src/misc/cache/class/lv_cache_lru_rb.c ****     LV_ASSERT(lru->cache.node_size > 0);
 1594              		.loc 1 230 5 view .LVU519
 230:../../Middlewares/LVGL/GUI/lvgl/src/misc/cache/class/lv_cache_lru_rb.c ****     LV_ASSERT(lru->cache.node_size > 0);
 1595              		.loc 1 230 5 view .LVU520
 230:../../Middlewares/LVGL/GUI/lvgl/src/misc/cache/class/lv_cache_lru_rb.c ****     LV_ASSERT(lru->cache.node_size > 0);
 1596              		.loc 1 230 5 view .LVU521
 1597 0014 FEE7     		b	.L111
 1598              	.LVL164:
 1599              	.L112:
 231:../../Middlewares/LVGL/GUI/lvgl/src/misc/cache/class/lv_cache_lru_rb.c **** 
 1600              		.loc 1 231 5 view .LVU522
 233:../../Middlewares/LVGL/GUI/lvgl/src/misc/cache/class/lv_cache_lru_rb.c ****         return false;
ARM GAS  C:\Users\28576\AppData\Local\Temp\ccwWQGxs.s 			page 45


 1601              		.loc 1 233 5 view .LVU523
 238:../../Middlewares/LVGL/GUI/lvgl/src/misc/cache/class/lv_cache_lru_rb.c ****         return false;
 1602              		.loc 1 238 5 view .LVU524
 238:../../Middlewares/LVGL/GUI/lvgl/src/misc/cache/class/lv_cache_lru_rb.c ****         return false;
 1603              		.loc 1 238 57 is_stmt 0 view .LVU525
 1604 0016 FFF7FEFF 		bl	lv_cache_entry_get_size
 1605              	.LVL165:
 238:../../Middlewares/LVGL/GUI/lvgl/src/misc/cache/class/lv_cache_lru_rb.c ****         return false;
 1606              		.loc 1 238 9 discriminator 1 view .LVU526
 1607 001a 021D     		adds	r2, r0, #4
 1608 001c 2946     		mov	r1, r5
 1609 001e 04F12400 		add	r0, r4, #36
 1610 0022 FFF7FEFF 		bl	lv_rb_init
 1611              	.LVL166:
 238:../../Middlewares/LVGL/GUI/lvgl/src/misc/cache/class/lv_cache_lru_rb.c ****         return false;
 1612              		.loc 1 238 7 discriminator 2 view .LVU527
 1613 0026 0546     		mov	r5, r0
 1614 0028 08B9     		cbnz	r0, .L116
 1615              	.L114:
 246:../../Middlewares/LVGL/GUI/lvgl/src/misc/cache/class/lv_cache_lru_rb.c **** 
 1616              		.loc 1 246 1 view .LVU528
 1617 002a 2846     		mov	r0, r5
 1618 002c 38BD     		pop	{r3, r4, r5, pc}
 1619              	.LVL167:
 1620              	.L116:
 241:../../Middlewares/LVGL/GUI/lvgl/src/misc/cache/class/lv_cache_lru_rb.c **** 
 1621              		.loc 1 241 5 is_stmt 1 view .LVU529
 1622 002e 0421     		movs	r1, #4
 1623 0030 04F13000 		add	r0, r4, #48
 1624 0034 FFF7FEFF 		bl	lv_ll_init
 1625              	.LVL168:
 243:../../Middlewares/LVGL/GUI/lvgl/src/misc/cache/class/lv_cache_lru_rb.c **** 
 1626              		.loc 1 243 5 view .LVU530
 243:../../Middlewares/LVGL/GUI/lvgl/src/misc/cache/class/lv_cache_lru_rb.c **** 
 1627              		.loc 1 243 27 is_stmt 0 view .LVU531
 1628 0038 014B     		ldr	r3, .L117
 1629 003a E363     		str	r3, [r4, #60]
 245:../../Middlewares/LVGL/GUI/lvgl/src/misc/cache/class/lv_cache_lru_rb.c **** }
 1630              		.loc 1 245 5 is_stmt 1 view .LVU532
 245:../../Middlewares/LVGL/GUI/lvgl/src/misc/cache/class/lv_cache_lru_rb.c **** }
 1631              		.loc 1 245 12 is_stmt 0 view .LVU533
 1632 003c F5E7     		b	.L114
 1633              	.L118:
 1634 003e 00BF     		.align	2
 1635              	.L117:
 1636 0040 00000000 		.word	size_get_data_size_cb
 1637              		.cfi_endproc
 1638              	.LFE21:
 1640              		.section	.text.alloc_cb,"ax",%progbits
 1641              		.align	1
 1642              		.syntax unified
 1643              		.thumb
 1644              		.thumb_func
 1646              	alloc_cb:
 1647              	.LFB19:
 190:../../Middlewares/LVGL/GUI/lvgl/src/misc/cache/class/lv_cache_lru_rb.c ****     void * res = lv_malloc(sizeof(lv_lru_rb_t_));
 1648              		.loc 1 190 1 is_stmt 1 view -0
ARM GAS  C:\Users\28576\AppData\Local\Temp\ccwWQGxs.s 			page 46


 1649              		.cfi_startproc
 1650              		@ args = 0, pretend = 0, frame = 0
 1651              		@ frame_needed = 0, uses_anonymous_args = 0
 1652 0000 10B5     		push	{r4, lr}
 1653              	.LCFI34:
 1654              		.cfi_def_cfa_offset 8
 1655              		.cfi_offset 4, -8
 1656              		.cfi_offset 14, -4
 191:../../Middlewares/LVGL/GUI/lvgl/src/misc/cache/class/lv_cache_lru_rb.c ****     LV_ASSERT_MALLOC(res);
 1657              		.loc 1 191 5 view .LVU535
 191:../../Middlewares/LVGL/GUI/lvgl/src/misc/cache/class/lv_cache_lru_rb.c ****     LV_ASSERT_MALLOC(res);
 1658              		.loc 1 191 18 is_stmt 0 view .LVU536
 1659 0002 4020     		movs	r0, #64
 1660 0004 FFF7FEFF 		bl	lv_malloc
 1661              	.LVL169:
 192:../../Middlewares/LVGL/GUI/lvgl/src/misc/cache/class/lv_cache_lru_rb.c ****     if(res == NULL) {
 1662              		.loc 1 192 5 is_stmt 1 view .LVU537
 192:../../Middlewares/LVGL/GUI/lvgl/src/misc/cache/class/lv_cache_lru_rb.c ****     if(res == NULL) {
 1663              		.loc 1 192 5 view .LVU538
 1664 0008 30B1     		cbz	r0, .L121
 192:../../Middlewares/LVGL/GUI/lvgl/src/misc/cache/class/lv_cache_lru_rb.c ****     if(res == NULL) {
 1665              		.loc 1 192 5 view .LVU539
 192:../../Middlewares/LVGL/GUI/lvgl/src/misc/cache/class/lv_cache_lru_rb.c ****     if(res == NULL) {
 1666              		.loc 1 192 26 view .LVU540
 193:../../Middlewares/LVGL/GUI/lvgl/src/misc/cache/class/lv_cache_lru_rb.c ****         LV_LOG_ERROR("malloc failed");
 1667              		.loc 1 193 5 view .LVU541
 198:../../Middlewares/LVGL/GUI/lvgl/src/misc/cache/class/lv_cache_lru_rb.c ****     return res;
 1668              		.loc 1 198 5 view .LVU542
 1669              	.LVL170:
 1670              	.LBB27:
 1671              	.LBI27:
 1672              		.file 2 "H:/STM32H7/RGB_LVGL/Middlewares/LVGL/GUI/lvgl/src/stdlib/lv_string.h"
   1:H:/STM32H7/RGB_LVGL/Middlewares/LVGL/GUI/lvgl/src/stdlib\lv_string.h **** /**
   2:H:/STM32H7/RGB_LVGL/Middlewares/LVGL/GUI/lvgl/src/stdlib\lv_string.h ****  * @file lv_string.h
   3:H:/STM32H7/RGB_LVGL/Middlewares/LVGL/GUI/lvgl/src/stdlib\lv_string.h ****  *
   4:H:/STM32H7/RGB_LVGL/Middlewares/LVGL/GUI/lvgl/src/stdlib\lv_string.h ****  */
   5:H:/STM32H7/RGB_LVGL/Middlewares/LVGL/GUI/lvgl/src/stdlib\lv_string.h **** 
   6:H:/STM32H7/RGB_LVGL/Middlewares/LVGL/GUI/lvgl/src/stdlib\lv_string.h **** #ifndef LV_STRING_H
   7:H:/STM32H7/RGB_LVGL/Middlewares/LVGL/GUI/lvgl/src/stdlib\lv_string.h **** #define LV_STRING_H
   8:H:/STM32H7/RGB_LVGL/Middlewares/LVGL/GUI/lvgl/src/stdlib\lv_string.h **** 
   9:H:/STM32H7/RGB_LVGL/Middlewares/LVGL/GUI/lvgl/src/stdlib\lv_string.h **** #ifdef __cplusplus
  10:H:/STM32H7/RGB_LVGL/Middlewares/LVGL/GUI/lvgl/src/stdlib\lv_string.h **** extern "C" {
  11:H:/STM32H7/RGB_LVGL/Middlewares/LVGL/GUI/lvgl/src/stdlib\lv_string.h **** #endif
  12:H:/STM32H7/RGB_LVGL/Middlewares/LVGL/GUI/lvgl/src/stdlib\lv_string.h **** 
  13:H:/STM32H7/RGB_LVGL/Middlewares/LVGL/GUI/lvgl/src/stdlib\lv_string.h **** /*********************
  14:H:/STM32H7/RGB_LVGL/Middlewares/LVGL/GUI/lvgl/src/stdlib\lv_string.h ****  *      INCLUDES
  15:H:/STM32H7/RGB_LVGL/Middlewares/LVGL/GUI/lvgl/src/stdlib\lv_string.h ****  *********************/
  16:H:/STM32H7/RGB_LVGL/Middlewares/LVGL/GUI/lvgl/src/stdlib\lv_string.h **** #include "../lv_conf_internal.h"
  17:H:/STM32H7/RGB_LVGL/Middlewares/LVGL/GUI/lvgl/src/stdlib\lv_string.h **** #include "../misc/lv_types.h"
  18:H:/STM32H7/RGB_LVGL/Middlewares/LVGL/GUI/lvgl/src/stdlib\lv_string.h **** 
  19:H:/STM32H7/RGB_LVGL/Middlewares/LVGL/GUI/lvgl/src/stdlib\lv_string.h **** /*********************
  20:H:/STM32H7/RGB_LVGL/Middlewares/LVGL/GUI/lvgl/src/stdlib\lv_string.h ****  *      DEFINES
  21:H:/STM32H7/RGB_LVGL/Middlewares/LVGL/GUI/lvgl/src/stdlib\lv_string.h ****  *********************/
  22:H:/STM32H7/RGB_LVGL/Middlewares/LVGL/GUI/lvgl/src/stdlib\lv_string.h **** 
  23:H:/STM32H7/RGB_LVGL/Middlewares/LVGL/GUI/lvgl/src/stdlib\lv_string.h **** /**********************
  24:H:/STM32H7/RGB_LVGL/Middlewares/LVGL/GUI/lvgl/src/stdlib\lv_string.h ****  *      TYPEDEFS
  25:H:/STM32H7/RGB_LVGL/Middlewares/LVGL/GUI/lvgl/src/stdlib\lv_string.h ****  **********************/
ARM GAS  C:\Users\28576\AppData\Local\Temp\ccwWQGxs.s 			page 47


  26:H:/STM32H7/RGB_LVGL/Middlewares/LVGL/GUI/lvgl/src/stdlib\lv_string.h **** 
  27:H:/STM32H7/RGB_LVGL/Middlewares/LVGL/GUI/lvgl/src/stdlib\lv_string.h **** /**********************
  28:H:/STM32H7/RGB_LVGL/Middlewares/LVGL/GUI/lvgl/src/stdlib\lv_string.h ****  * GLOBAL PROTOTYPES
  29:H:/STM32H7/RGB_LVGL/Middlewares/LVGL/GUI/lvgl/src/stdlib\lv_string.h ****  **********************/
  30:H:/STM32H7/RGB_LVGL/Middlewares/LVGL/GUI/lvgl/src/stdlib\lv_string.h **** 
  31:H:/STM32H7/RGB_LVGL/Middlewares/LVGL/GUI/lvgl/src/stdlib\lv_string.h **** /**
  32:H:/STM32H7/RGB_LVGL/Middlewares/LVGL/GUI/lvgl/src/stdlib\lv_string.h ****  * @brief Copies a block of memory from a source address to a destination address.
  33:H:/STM32H7/RGB_LVGL/Middlewares/LVGL/GUI/lvgl/src/stdlib\lv_string.h ****  * @param dst Pointer to the destination array where the content is to be copied.
  34:H:/STM32H7/RGB_LVGL/Middlewares/LVGL/GUI/lvgl/src/stdlib\lv_string.h ****  * @param src Pointer to the source of data to be copied.
  35:H:/STM32H7/RGB_LVGL/Middlewares/LVGL/GUI/lvgl/src/stdlib\lv_string.h ****  * @param len Number of bytes to copy.
  36:H:/STM32H7/RGB_LVGL/Middlewares/LVGL/GUI/lvgl/src/stdlib\lv_string.h ****  * @return Pointer to the destination array.
  37:H:/STM32H7/RGB_LVGL/Middlewares/LVGL/GUI/lvgl/src/stdlib\lv_string.h ****  * @note The function does not check for any overlapping of the source and destination memory block
  38:H:/STM32H7/RGB_LVGL/Middlewares/LVGL/GUI/lvgl/src/stdlib\lv_string.h ****  */
  39:H:/STM32H7/RGB_LVGL/Middlewares/LVGL/GUI/lvgl/src/stdlib\lv_string.h **** void * lv_memcpy(void * dst, const void * src, size_t len);
  40:H:/STM32H7/RGB_LVGL/Middlewares/LVGL/GUI/lvgl/src/stdlib\lv_string.h **** 
  41:H:/STM32H7/RGB_LVGL/Middlewares/LVGL/GUI/lvgl/src/stdlib\lv_string.h **** /**
  42:H:/STM32H7/RGB_LVGL/Middlewares/LVGL/GUI/lvgl/src/stdlib\lv_string.h ****  * @brief Fills a block of memory with a specified value.
  43:H:/STM32H7/RGB_LVGL/Middlewares/LVGL/GUI/lvgl/src/stdlib\lv_string.h ****  * @param dst Pointer to the destination array to fill with the specified value.
  44:H:/STM32H7/RGB_LVGL/Middlewares/LVGL/GUI/lvgl/src/stdlib\lv_string.h ****  * @param v Value to be set. The value is passed as an int, but the function fills
  45:H:/STM32H7/RGB_LVGL/Middlewares/LVGL/GUI/lvgl/src/stdlib\lv_string.h ****  *          the block of memory using the unsigned char conversion of this value.
  46:H:/STM32H7/RGB_LVGL/Middlewares/LVGL/GUI/lvgl/src/stdlib\lv_string.h ****  * @param len Number of bytes to be set to the value.
  47:H:/STM32H7/RGB_LVGL/Middlewares/LVGL/GUI/lvgl/src/stdlib\lv_string.h ****  */
  48:H:/STM32H7/RGB_LVGL/Middlewares/LVGL/GUI/lvgl/src/stdlib\lv_string.h **** void lv_memset(void * dst, uint8_t v, size_t len);
  49:H:/STM32H7/RGB_LVGL/Middlewares/LVGL/GUI/lvgl/src/stdlib\lv_string.h **** 
  50:H:/STM32H7/RGB_LVGL/Middlewares/LVGL/GUI/lvgl/src/stdlib\lv_string.h **** /**
  51:H:/STM32H7/RGB_LVGL/Middlewares/LVGL/GUI/lvgl/src/stdlib\lv_string.h ****  * @brief Move a block of memory from source to destination
  52:H:/STM32H7/RGB_LVGL/Middlewares/LVGL/GUI/lvgl/src/stdlib\lv_string.h ****  * @param dst Pointer to the destination array where the content is to be copied.
  53:H:/STM32H7/RGB_LVGL/Middlewares/LVGL/GUI/lvgl/src/stdlib\lv_string.h ****  * @param src Pointer to the source of data to be copied.
  54:H:/STM32H7/RGB_LVGL/Middlewares/LVGL/GUI/lvgl/src/stdlib\lv_string.h ****  * @param len Number of bytes to copy
  55:H:/STM32H7/RGB_LVGL/Middlewares/LVGL/GUI/lvgl/src/stdlib\lv_string.h ****  * @return Pointer to the destination array.
  56:H:/STM32H7/RGB_LVGL/Middlewares/LVGL/GUI/lvgl/src/stdlib\lv_string.h ****  */
  57:H:/STM32H7/RGB_LVGL/Middlewares/LVGL/GUI/lvgl/src/stdlib\lv_string.h **** void * lv_memmove(void * dst, const void * src, size_t len);
  58:H:/STM32H7/RGB_LVGL/Middlewares/LVGL/GUI/lvgl/src/stdlib\lv_string.h **** 
  59:H:/STM32H7/RGB_LVGL/Middlewares/LVGL/GUI/lvgl/src/stdlib\lv_string.h **** /**
  60:H:/STM32H7/RGB_LVGL/Middlewares/LVGL/GUI/lvgl/src/stdlib\lv_string.h ****  * @brief This function will compare two memory blocks
  61:H:/STM32H7/RGB_LVGL/Middlewares/LVGL/GUI/lvgl/src/stdlib\lv_string.h ****  * @param p1 Pointer to the first memory block
  62:H:/STM32H7/RGB_LVGL/Middlewares/LVGL/GUI/lvgl/src/stdlib\lv_string.h ****  * @param p2 Pointer to the second memory block
  63:H:/STM32H7/RGB_LVGL/Middlewares/LVGL/GUI/lvgl/src/stdlib\lv_string.h ****  * @param len Number of bytes to compare
  64:H:/STM32H7/RGB_LVGL/Middlewares/LVGL/GUI/lvgl/src/stdlib\lv_string.h ****  * @return The difference between the value of the first unmatching byte.
  65:H:/STM32H7/RGB_LVGL/Middlewares/LVGL/GUI/lvgl/src/stdlib\lv_string.h ****  */
  66:H:/STM32H7/RGB_LVGL/Middlewares/LVGL/GUI/lvgl/src/stdlib\lv_string.h **** int lv_memcmp(const void * p1, const void * p2, size_t len);
  67:H:/STM32H7/RGB_LVGL/Middlewares/LVGL/GUI/lvgl/src/stdlib\lv_string.h **** 
  68:H:/STM32H7/RGB_LVGL/Middlewares/LVGL/GUI/lvgl/src/stdlib\lv_string.h **** /**
  69:H:/STM32H7/RGB_LVGL/Middlewares/LVGL/GUI/lvgl/src/stdlib\lv_string.h ****  * Same as `memset(dst, 0x00, len)`.
  70:H:/STM32H7/RGB_LVGL/Middlewares/LVGL/GUI/lvgl/src/stdlib\lv_string.h ****  * @param dst pointer to the destination buffer
  71:H:/STM32H7/RGB_LVGL/Middlewares/LVGL/GUI/lvgl/src/stdlib\lv_string.h ****  * @param len number of byte to set
  72:H:/STM32H7/RGB_LVGL/Middlewares/LVGL/GUI/lvgl/src/stdlib\lv_string.h ****  */
  73:H:/STM32H7/RGB_LVGL/Middlewares/LVGL/GUI/lvgl/src/stdlib\lv_string.h **** static inline void lv_memzero(void * dst, size_t len)
 1673              		.loc 2 73 20 view .LVU543
 1674              	.LBB28:
  74:H:/STM32H7/RGB_LVGL/Middlewares/LVGL/GUI/lvgl/src/stdlib\lv_string.h **** {
  75:H:/STM32H7/RGB_LVGL/Middlewares/LVGL/GUI/lvgl/src/stdlib\lv_string.h ****     lv_memset(dst, 0x00, len);
 1675              		.loc 2 75 5 view .LVU544
 1676 000a 4022     		movs	r2, #64
 1677 000c 0021     		movs	r1, #0
 1678 000e 0446     		mov	r4, r0
 1679 0010 FFF7FEFF 		bl	lv_memset
ARM GAS  C:\Users\28576\AppData\Local\Temp\ccwWQGxs.s 			page 48


 1680              	.LVL171:
 1681              		.loc 2 75 5 is_stmt 0 view .LVU545
 1682              	.LBE28:
 1683              	.LBE27:
 199:../../Middlewares/LVGL/GUI/lvgl/src/misc/cache/class/lv_cache_lru_rb.c **** }
 1684              		.loc 1 199 5 is_stmt 1 view .LVU546
 200:../../Middlewares/LVGL/GUI/lvgl/src/misc/cache/class/lv_cache_lru_rb.c **** 
 1685              		.loc 1 200 1 is_stmt 0 view .LVU547
 1686 0014 2046     		mov	r0, r4
 1687 0016 10BD     		pop	{r4, pc}
 1688              	.LVL172:
 1689              	.L121:
 192:../../Middlewares/LVGL/GUI/lvgl/src/misc/cache/class/lv_cache_lru_rb.c ****     if(res == NULL) {
 1690              		.loc 1 192 5 is_stmt 1 view .LVU548
 192:../../Middlewares/LVGL/GUI/lvgl/src/misc/cache/class/lv_cache_lru_rb.c ****     if(res == NULL) {
 1691              		.loc 1 192 5 view .LVU549
 192:../../Middlewares/LVGL/GUI/lvgl/src/misc/cache/class/lv_cache_lru_rb.c ****     if(res == NULL) {
 1692              		.loc 1 192 5 view .LVU550
 192:../../Middlewares/LVGL/GUI/lvgl/src/misc/cache/class/lv_cache_lru_rb.c ****     if(res == NULL) {
 1693              		.loc 1 192 5 view .LVU551
 192:../../Middlewares/LVGL/GUI/lvgl/src/misc/cache/class/lv_cache_lru_rb.c ****     if(res == NULL) {
 1694              		.loc 1 192 5 view .LVU552
 1695 0018 FEE7     		b	.L121
 1696              		.cfi_endproc
 1697              	.LFE19:
 1699              		.global	lv_cache_class_lru_rb_size
 1700              		.section	.rodata.lv_cache_class_lru_rb_size,"a"
 1701              		.align	2
 1704              	lv_cache_class_lru_rb_size:
 1705 0000 00000000 		.word	alloc_cb
 1706 0004 00000000 		.word	init_size_cb
 1707 0008 00000000 		.word	destroy_cb
 1708 000c 00000000 		.word	get_cb
 1709 0010 00000000 		.word	add_cb
 1710 0014 00000000 		.word	remove_cb
 1711 0018 00000000 		.word	drop_cb
 1712 001c 00000000 		.word	drop_all_cb
 1713 0020 00000000 		.word	get_victim_cb
 1714 0024 00000000 		.word	reserve_cond_cb
 1715 0028 00000000 		.word	cache_iter_create_cb
 1716              		.global	lv_cache_class_lru_rb_count
 1717              		.section	.rodata.lv_cache_class_lru_rb_count,"a"
 1718              		.align	2
 1721              	lv_cache_class_lru_rb_count:
 1722 0000 00000000 		.word	alloc_cb
 1723 0004 00000000 		.word	init_cnt_cb
 1724 0008 00000000 		.word	destroy_cb
 1725 000c 00000000 		.word	get_cb
 1726 0010 00000000 		.word	add_cb
 1727 0014 00000000 		.word	remove_cb
 1728 0018 00000000 		.word	drop_cb
 1729 001c 00000000 		.word	drop_all_cb
 1730 0020 00000000 		.word	get_victim_cb
 1731 0024 00000000 		.word	reserve_cond_cb
 1732 0028 00000000 		.word	cache_iter_create_cb
 1733              		.text
 1734              	.Letext0:
ARM GAS  C:\Users\28576\AppData\Local\Temp\ccwWQGxs.s 			page 49


 1735              		.file 3 "C:/Users/28576/AppData/Roaming/xPacks/@xpack-dev-tools/arm-none-eabi-gcc/15.2.1-1.1.1/.co
 1736              		.file 4 "C:/Users/28576/AppData/Roaming/xPacks/@xpack-dev-tools/arm-none-eabi-gcc/15.2.1-1.1.1/.co
 1737              		.file 5 "C:/Users/28576/AppData/Roaming/xPacks/@xpack-dev-tools/arm-none-eabi-gcc/15.2.1-1.1.1/.co
 1738              		.file 6 "H:/STM32H7/RGB_LVGL/Middlewares/LVGL/GUI/lvgl/src/misc/lv_types.h"
 1739              		.file 7 "H:/STM32H7/RGB_LVGL/Middlewares/LVGL/GUI/lvgl/src/misc/lv_rb_private.h"
 1740              		.file 8 "../../Middlewares/LVGL/GUI/lvgl/src/misc/cache/class/../lv_cache_private.h"
 1741              		.file 9 "H:/STM32H7/RGB_LVGL/Middlewares/LVGL/GUI/lvgl/src/osal/lv_os_none.h"
 1742              		.file 10 "../../Middlewares/LVGL/GUI/lvgl/src/misc/cache/class/lv_cache_lru_rb.h"
 1743              		.file 11 "H:/STM32H7/RGB_LVGL/Middlewares/LVGL/GUI/lvgl/src/misc/lv_ll.h"
 1744              		.file 12 "H:/STM32H7/RGB_LVGL/Middlewares/LVGL/GUI/lvgl/src/misc/lv_rb.h"
 1745              		.file 13 "H:/STM32H7/RGB_LVGL/Middlewares/LVGL/GUI/lvgl/src/misc/lv_iter.h"
 1746              		.file 14 "H:/STM32H7/RGB_LVGL/Middlewares/LVGL/GUI/lvgl/src/stdlib/lv_mem.h"
 1747              		.file 15 "../../Middlewares/LVGL/GUI/lvgl/src/misc/cache/class/../lv_cache_entry.h"
ARM GAS  C:\Users\28576\AppData\Local\Temp\ccwWQGxs.s 			page 50

