ARM GAS  C:\Users\28576\AppData\Local\Temp\ccRKCVo4.s 			page 1


   1              		.cpu cortex-m7
   2              		.arch armv7e-m
   3              		.fpu fpv5-d16
   4              		.eabi_attribute 28, 1
   5              		.eabi_attribute 20, 1
   6              		.eabi_attribute 21, 1
   7              		.eabi_attribute 23, 3
   8              		.eabi_attribute 24, 1
   9              		.eabi_attribute 25, 1
  10              		.eabi_attribute 26, 1
  11              		.eabi_attribute 30, 1
  12              		.eabi_attribute 34, 1
  13              		.eabi_attribute 18, 4
  14              		.file	"lv_checkbox.c"
  15              		.text
  16              	.Ltext0:
  17              		.cfi_sections	.debug_frame
  18              		.file 1 "../../Middlewares/LVGL/GUI/lvgl/src/widgets/checkbox/lv_checkbox.c"
  19              		.section	.text.lv_checkbox_draw,"ax",%progbits
  20              		.align	1
  21              		.syntax unified
  22              		.thumb
  23              		.thumb_func
  25              	lv_checkbox_draw:
  26              	.LVL0:
  27              	.LFB179:
   1:../../Middlewares/LVGL/GUI/lvgl/src/widgets/checkbox/lv_checkbox.c **** /**
   2:../../Middlewares/LVGL/GUI/lvgl/src/widgets/checkbox/lv_checkbox.c ****  * @file lv_cb.c
   3:../../Middlewares/LVGL/GUI/lvgl/src/widgets/checkbox/lv_checkbox.c ****  *
   4:../../Middlewares/LVGL/GUI/lvgl/src/widgets/checkbox/lv_checkbox.c ****  */
   5:../../Middlewares/LVGL/GUI/lvgl/src/widgets/checkbox/lv_checkbox.c **** 
   6:../../Middlewares/LVGL/GUI/lvgl/src/widgets/checkbox/lv_checkbox.c **** /*********************
   7:../../Middlewares/LVGL/GUI/lvgl/src/widgets/checkbox/lv_checkbox.c ****  *      INCLUDES
   8:../../Middlewares/LVGL/GUI/lvgl/src/widgets/checkbox/lv_checkbox.c ****  *********************/
   9:../../Middlewares/LVGL/GUI/lvgl/src/widgets/checkbox/lv_checkbox.c **** #include "lv_checkbox_private.h"
  10:../../Middlewares/LVGL/GUI/lvgl/src/widgets/checkbox/lv_checkbox.c **** #include "../../core/lv_obj_private.h"
  11:../../Middlewares/LVGL/GUI/lvgl/src/widgets/checkbox/lv_checkbox.c **** #include "../../core/lv_obj_class_private.h"
  12:../../Middlewares/LVGL/GUI/lvgl/src/widgets/checkbox/lv_checkbox.c **** #if LV_USE_CHECKBOX != 0
  13:../../Middlewares/LVGL/GUI/lvgl/src/widgets/checkbox/lv_checkbox.c **** 
  14:../../Middlewares/LVGL/GUI/lvgl/src/widgets/checkbox/lv_checkbox.c **** #include "../../misc/lv_assert.h"
  15:../../Middlewares/LVGL/GUI/lvgl/src/widgets/checkbox/lv_checkbox.c **** #include "../../misc/lv_text_ap.h"
  16:../../Middlewares/LVGL/GUI/lvgl/src/widgets/checkbox/lv_checkbox.c **** #include "../../core/lv_group.h"
  17:../../Middlewares/LVGL/GUI/lvgl/src/widgets/checkbox/lv_checkbox.c **** #include "../../draw/lv_draw.h"
  18:../../Middlewares/LVGL/GUI/lvgl/src/widgets/checkbox/lv_checkbox.c **** #include "../../stdlib/lv_string.h"
  19:../../Middlewares/LVGL/GUI/lvgl/src/widgets/checkbox/lv_checkbox.c **** 
  20:../../Middlewares/LVGL/GUI/lvgl/src/widgets/checkbox/lv_checkbox.c **** /*********************
  21:../../Middlewares/LVGL/GUI/lvgl/src/widgets/checkbox/lv_checkbox.c ****  *      DEFINES
  22:../../Middlewares/LVGL/GUI/lvgl/src/widgets/checkbox/lv_checkbox.c ****  *********************/
  23:../../Middlewares/LVGL/GUI/lvgl/src/widgets/checkbox/lv_checkbox.c **** #define MY_CLASS (&lv_checkbox_class)
  24:../../Middlewares/LVGL/GUI/lvgl/src/widgets/checkbox/lv_checkbox.c **** 
  25:../../Middlewares/LVGL/GUI/lvgl/src/widgets/checkbox/lv_checkbox.c **** /**********************
  26:../../Middlewares/LVGL/GUI/lvgl/src/widgets/checkbox/lv_checkbox.c ****  *      TYPEDEFS
  27:../../Middlewares/LVGL/GUI/lvgl/src/widgets/checkbox/lv_checkbox.c ****  **********************/
  28:../../Middlewares/LVGL/GUI/lvgl/src/widgets/checkbox/lv_checkbox.c **** 
  29:../../Middlewares/LVGL/GUI/lvgl/src/widgets/checkbox/lv_checkbox.c **** /**********************
  30:../../Middlewares/LVGL/GUI/lvgl/src/widgets/checkbox/lv_checkbox.c ****  *  STATIC PROTOTYPES
  31:../../Middlewares/LVGL/GUI/lvgl/src/widgets/checkbox/lv_checkbox.c ****  **********************/
ARM GAS  C:\Users\28576\AppData\Local\Temp\ccRKCVo4.s 			page 2


  32:../../Middlewares/LVGL/GUI/lvgl/src/widgets/checkbox/lv_checkbox.c **** static void lv_checkbox_constructor(const lv_obj_class_t * class_p, lv_obj_t * obj);
  33:../../Middlewares/LVGL/GUI/lvgl/src/widgets/checkbox/lv_checkbox.c **** static void lv_checkbox_destructor(const lv_obj_class_t * class_p, lv_obj_t * obj);
  34:../../Middlewares/LVGL/GUI/lvgl/src/widgets/checkbox/lv_checkbox.c **** static void lv_checkbox_event(const lv_obj_class_t * class_p, lv_event_t * e);
  35:../../Middlewares/LVGL/GUI/lvgl/src/widgets/checkbox/lv_checkbox.c **** static void lv_checkbox_draw(lv_event_t * e);
  36:../../Middlewares/LVGL/GUI/lvgl/src/widgets/checkbox/lv_checkbox.c **** 
  37:../../Middlewares/LVGL/GUI/lvgl/src/widgets/checkbox/lv_checkbox.c **** /**********************
  38:../../Middlewares/LVGL/GUI/lvgl/src/widgets/checkbox/lv_checkbox.c ****  *  STATIC VARIABLES
  39:../../Middlewares/LVGL/GUI/lvgl/src/widgets/checkbox/lv_checkbox.c ****  **********************/
  40:../../Middlewares/LVGL/GUI/lvgl/src/widgets/checkbox/lv_checkbox.c **** const lv_obj_class_t lv_checkbox_class = {
  41:../../Middlewares/LVGL/GUI/lvgl/src/widgets/checkbox/lv_checkbox.c ****     .constructor_cb = lv_checkbox_constructor,
  42:../../Middlewares/LVGL/GUI/lvgl/src/widgets/checkbox/lv_checkbox.c ****     .destructor_cb = lv_checkbox_destructor,
  43:../../Middlewares/LVGL/GUI/lvgl/src/widgets/checkbox/lv_checkbox.c ****     .event_cb = lv_checkbox_event,
  44:../../Middlewares/LVGL/GUI/lvgl/src/widgets/checkbox/lv_checkbox.c ****     .width_def = LV_SIZE_CONTENT,
  45:../../Middlewares/LVGL/GUI/lvgl/src/widgets/checkbox/lv_checkbox.c ****     .height_def = LV_SIZE_CONTENT,
  46:../../Middlewares/LVGL/GUI/lvgl/src/widgets/checkbox/lv_checkbox.c ****     .group_def = LV_OBJ_CLASS_GROUP_DEF_TRUE,
  47:../../Middlewares/LVGL/GUI/lvgl/src/widgets/checkbox/lv_checkbox.c ****     .instance_size = sizeof(lv_checkbox_t),
  48:../../Middlewares/LVGL/GUI/lvgl/src/widgets/checkbox/lv_checkbox.c ****     .base_class = &lv_obj_class,
  49:../../Middlewares/LVGL/GUI/lvgl/src/widgets/checkbox/lv_checkbox.c ****     .name = "lv_checkbox",
  50:../../Middlewares/LVGL/GUI/lvgl/src/widgets/checkbox/lv_checkbox.c **** };
  51:../../Middlewares/LVGL/GUI/lvgl/src/widgets/checkbox/lv_checkbox.c **** 
  52:../../Middlewares/LVGL/GUI/lvgl/src/widgets/checkbox/lv_checkbox.c **** /**********************
  53:../../Middlewares/LVGL/GUI/lvgl/src/widgets/checkbox/lv_checkbox.c ****  *      MACROS
  54:../../Middlewares/LVGL/GUI/lvgl/src/widgets/checkbox/lv_checkbox.c ****  **********************/
  55:../../Middlewares/LVGL/GUI/lvgl/src/widgets/checkbox/lv_checkbox.c **** 
  56:../../Middlewares/LVGL/GUI/lvgl/src/widgets/checkbox/lv_checkbox.c **** /**********************
  57:../../Middlewares/LVGL/GUI/lvgl/src/widgets/checkbox/lv_checkbox.c ****  *   GLOBAL FUNCTIONS
  58:../../Middlewares/LVGL/GUI/lvgl/src/widgets/checkbox/lv_checkbox.c ****  **********************/
  59:../../Middlewares/LVGL/GUI/lvgl/src/widgets/checkbox/lv_checkbox.c **** 
  60:../../Middlewares/LVGL/GUI/lvgl/src/widgets/checkbox/lv_checkbox.c **** lv_obj_t * lv_checkbox_create(lv_obj_t * parent)
  61:../../Middlewares/LVGL/GUI/lvgl/src/widgets/checkbox/lv_checkbox.c **** {
  62:../../Middlewares/LVGL/GUI/lvgl/src/widgets/checkbox/lv_checkbox.c ****     LV_LOG_INFO("begin");
  63:../../Middlewares/LVGL/GUI/lvgl/src/widgets/checkbox/lv_checkbox.c ****     lv_obj_t * obj = lv_obj_class_create_obj(MY_CLASS, parent);
  64:../../Middlewares/LVGL/GUI/lvgl/src/widgets/checkbox/lv_checkbox.c ****     lv_obj_class_init_obj(obj);
  65:../../Middlewares/LVGL/GUI/lvgl/src/widgets/checkbox/lv_checkbox.c ****     return obj;
  66:../../Middlewares/LVGL/GUI/lvgl/src/widgets/checkbox/lv_checkbox.c **** }
  67:../../Middlewares/LVGL/GUI/lvgl/src/widgets/checkbox/lv_checkbox.c **** 
  68:../../Middlewares/LVGL/GUI/lvgl/src/widgets/checkbox/lv_checkbox.c **** /*=====================
  69:../../Middlewares/LVGL/GUI/lvgl/src/widgets/checkbox/lv_checkbox.c ****  * Setter functions
  70:../../Middlewares/LVGL/GUI/lvgl/src/widgets/checkbox/lv_checkbox.c ****  *====================*/
  71:../../Middlewares/LVGL/GUI/lvgl/src/widgets/checkbox/lv_checkbox.c **** 
  72:../../Middlewares/LVGL/GUI/lvgl/src/widgets/checkbox/lv_checkbox.c **** void lv_checkbox_set_text(lv_obj_t * obj, const char * txt)
  73:../../Middlewares/LVGL/GUI/lvgl/src/widgets/checkbox/lv_checkbox.c **** {
  74:../../Middlewares/LVGL/GUI/lvgl/src/widgets/checkbox/lv_checkbox.c ****     lv_checkbox_t * cb = (lv_checkbox_t *)obj;
  75:../../Middlewares/LVGL/GUI/lvgl/src/widgets/checkbox/lv_checkbox.c **** 
  76:../../Middlewares/LVGL/GUI/lvgl/src/widgets/checkbox/lv_checkbox.c ****     if(NULL != txt) {
  77:../../Middlewares/LVGL/GUI/lvgl/src/widgets/checkbox/lv_checkbox.c ****         size_t len;
  78:../../Middlewares/LVGL/GUI/lvgl/src/widgets/checkbox/lv_checkbox.c **** 
  79:../../Middlewares/LVGL/GUI/lvgl/src/widgets/checkbox/lv_checkbox.c **** #if LV_USE_ARABIC_PERSIAN_CHARS
  80:../../Middlewares/LVGL/GUI/lvgl/src/widgets/checkbox/lv_checkbox.c ****         len = lv_text_ap_calc_bytes_count(txt) + 1;
  81:../../Middlewares/LVGL/GUI/lvgl/src/widgets/checkbox/lv_checkbox.c **** #else
  82:../../Middlewares/LVGL/GUI/lvgl/src/widgets/checkbox/lv_checkbox.c ****         len = lv_strlen(txt) + 1;
  83:../../Middlewares/LVGL/GUI/lvgl/src/widgets/checkbox/lv_checkbox.c **** #endif
  84:../../Middlewares/LVGL/GUI/lvgl/src/widgets/checkbox/lv_checkbox.c **** 
  85:../../Middlewares/LVGL/GUI/lvgl/src/widgets/checkbox/lv_checkbox.c ****         if(!cb->static_txt) cb->txt = lv_realloc(cb->txt, len);
  86:../../Middlewares/LVGL/GUI/lvgl/src/widgets/checkbox/lv_checkbox.c ****         else cb->txt = lv_malloc(len);
  87:../../Middlewares/LVGL/GUI/lvgl/src/widgets/checkbox/lv_checkbox.c **** 
  88:../../Middlewares/LVGL/GUI/lvgl/src/widgets/checkbox/lv_checkbox.c ****         LV_ASSERT_MALLOC(cb->txt);
ARM GAS  C:\Users\28576\AppData\Local\Temp\ccRKCVo4.s 			page 3


  89:../../Middlewares/LVGL/GUI/lvgl/src/widgets/checkbox/lv_checkbox.c ****         if(NULL == cb->txt) return;
  90:../../Middlewares/LVGL/GUI/lvgl/src/widgets/checkbox/lv_checkbox.c **** 
  91:../../Middlewares/LVGL/GUI/lvgl/src/widgets/checkbox/lv_checkbox.c **** #if LV_USE_ARABIC_PERSIAN_CHARS
  92:../../Middlewares/LVGL/GUI/lvgl/src/widgets/checkbox/lv_checkbox.c ****         lv_text_ap_proc(txt, cb->txt);
  93:../../Middlewares/LVGL/GUI/lvgl/src/widgets/checkbox/lv_checkbox.c **** #else
  94:../../Middlewares/LVGL/GUI/lvgl/src/widgets/checkbox/lv_checkbox.c ****         lv_strcpy(cb->txt, txt);
  95:../../Middlewares/LVGL/GUI/lvgl/src/widgets/checkbox/lv_checkbox.c **** #endif
  96:../../Middlewares/LVGL/GUI/lvgl/src/widgets/checkbox/lv_checkbox.c **** 
  97:../../Middlewares/LVGL/GUI/lvgl/src/widgets/checkbox/lv_checkbox.c ****         cb->static_txt = 0;
  98:../../Middlewares/LVGL/GUI/lvgl/src/widgets/checkbox/lv_checkbox.c ****     }
  99:../../Middlewares/LVGL/GUI/lvgl/src/widgets/checkbox/lv_checkbox.c **** 
 100:../../Middlewares/LVGL/GUI/lvgl/src/widgets/checkbox/lv_checkbox.c ****     lv_obj_refresh_self_size(obj);
 101:../../Middlewares/LVGL/GUI/lvgl/src/widgets/checkbox/lv_checkbox.c ****     lv_obj_invalidate(obj);
 102:../../Middlewares/LVGL/GUI/lvgl/src/widgets/checkbox/lv_checkbox.c **** }
 103:../../Middlewares/LVGL/GUI/lvgl/src/widgets/checkbox/lv_checkbox.c **** 
 104:../../Middlewares/LVGL/GUI/lvgl/src/widgets/checkbox/lv_checkbox.c **** void lv_checkbox_set_text_static(lv_obj_t * obj, const char * txt)
 105:../../Middlewares/LVGL/GUI/lvgl/src/widgets/checkbox/lv_checkbox.c **** {
 106:../../Middlewares/LVGL/GUI/lvgl/src/widgets/checkbox/lv_checkbox.c ****     lv_checkbox_t * cb = (lv_checkbox_t *)obj;
 107:../../Middlewares/LVGL/GUI/lvgl/src/widgets/checkbox/lv_checkbox.c **** 
 108:../../Middlewares/LVGL/GUI/lvgl/src/widgets/checkbox/lv_checkbox.c ****     if(!cb->static_txt) lv_free(cb->txt);
 109:../../Middlewares/LVGL/GUI/lvgl/src/widgets/checkbox/lv_checkbox.c **** 
 110:../../Middlewares/LVGL/GUI/lvgl/src/widgets/checkbox/lv_checkbox.c ****     cb->txt = (char *)txt;
 111:../../Middlewares/LVGL/GUI/lvgl/src/widgets/checkbox/lv_checkbox.c ****     cb->static_txt = 1;
 112:../../Middlewares/LVGL/GUI/lvgl/src/widgets/checkbox/lv_checkbox.c **** 
 113:../../Middlewares/LVGL/GUI/lvgl/src/widgets/checkbox/lv_checkbox.c ****     lv_obj_refresh_self_size(obj);
 114:../../Middlewares/LVGL/GUI/lvgl/src/widgets/checkbox/lv_checkbox.c ****     lv_obj_invalidate(obj);
 115:../../Middlewares/LVGL/GUI/lvgl/src/widgets/checkbox/lv_checkbox.c **** }
 116:../../Middlewares/LVGL/GUI/lvgl/src/widgets/checkbox/lv_checkbox.c **** 
 117:../../Middlewares/LVGL/GUI/lvgl/src/widgets/checkbox/lv_checkbox.c **** /*=====================
 118:../../Middlewares/LVGL/GUI/lvgl/src/widgets/checkbox/lv_checkbox.c ****  * Getter functions
 119:../../Middlewares/LVGL/GUI/lvgl/src/widgets/checkbox/lv_checkbox.c ****  *====================*/
 120:../../Middlewares/LVGL/GUI/lvgl/src/widgets/checkbox/lv_checkbox.c **** 
 121:../../Middlewares/LVGL/GUI/lvgl/src/widgets/checkbox/lv_checkbox.c **** const char * lv_checkbox_get_text(const lv_obj_t * obj)
 122:../../Middlewares/LVGL/GUI/lvgl/src/widgets/checkbox/lv_checkbox.c **** {
 123:../../Middlewares/LVGL/GUI/lvgl/src/widgets/checkbox/lv_checkbox.c ****     lv_checkbox_t * cb = (lv_checkbox_t *)obj;
 124:../../Middlewares/LVGL/GUI/lvgl/src/widgets/checkbox/lv_checkbox.c ****     return cb->txt;
 125:../../Middlewares/LVGL/GUI/lvgl/src/widgets/checkbox/lv_checkbox.c **** }
 126:../../Middlewares/LVGL/GUI/lvgl/src/widgets/checkbox/lv_checkbox.c **** 
 127:../../Middlewares/LVGL/GUI/lvgl/src/widgets/checkbox/lv_checkbox.c **** /**********************
 128:../../Middlewares/LVGL/GUI/lvgl/src/widgets/checkbox/lv_checkbox.c ****  *   STATIC FUNCTIONS
 129:../../Middlewares/LVGL/GUI/lvgl/src/widgets/checkbox/lv_checkbox.c ****  **********************/
 130:../../Middlewares/LVGL/GUI/lvgl/src/widgets/checkbox/lv_checkbox.c **** 
 131:../../Middlewares/LVGL/GUI/lvgl/src/widgets/checkbox/lv_checkbox.c **** static void lv_checkbox_constructor(const lv_obj_class_t * class_p, lv_obj_t * obj)
 132:../../Middlewares/LVGL/GUI/lvgl/src/widgets/checkbox/lv_checkbox.c **** {
 133:../../Middlewares/LVGL/GUI/lvgl/src/widgets/checkbox/lv_checkbox.c ****     LV_UNUSED(class_p);
 134:../../Middlewares/LVGL/GUI/lvgl/src/widgets/checkbox/lv_checkbox.c ****     LV_TRACE_OBJ_CREATE("begin");
 135:../../Middlewares/LVGL/GUI/lvgl/src/widgets/checkbox/lv_checkbox.c **** 
 136:../../Middlewares/LVGL/GUI/lvgl/src/widgets/checkbox/lv_checkbox.c ****     lv_checkbox_t * cb = (lv_checkbox_t *)obj;
 137:../../Middlewares/LVGL/GUI/lvgl/src/widgets/checkbox/lv_checkbox.c **** 
 138:../../Middlewares/LVGL/GUI/lvgl/src/widgets/checkbox/lv_checkbox.c **** #if LV_WIDGETS_HAS_DEFAULT_VALUE
 139:../../Middlewares/LVGL/GUI/lvgl/src/widgets/checkbox/lv_checkbox.c ****     cb->txt = (char *)"Check box";
 140:../../Middlewares/LVGL/GUI/lvgl/src/widgets/checkbox/lv_checkbox.c ****     cb->static_txt = 1;
 141:../../Middlewares/LVGL/GUI/lvgl/src/widgets/checkbox/lv_checkbox.c **** #else
 142:../../Middlewares/LVGL/GUI/lvgl/src/widgets/checkbox/lv_checkbox.c ****     cb->txt = (char *)"";
 143:../../Middlewares/LVGL/GUI/lvgl/src/widgets/checkbox/lv_checkbox.c ****     cb->static_txt = 1;
 144:../../Middlewares/LVGL/GUI/lvgl/src/widgets/checkbox/lv_checkbox.c **** #endif
 145:../../Middlewares/LVGL/GUI/lvgl/src/widgets/checkbox/lv_checkbox.c **** 
ARM GAS  C:\Users\28576\AppData\Local\Temp\ccRKCVo4.s 			page 4


 146:../../Middlewares/LVGL/GUI/lvgl/src/widgets/checkbox/lv_checkbox.c ****     lv_obj_add_flag(obj, LV_OBJ_FLAG_CLICKABLE);
 147:../../Middlewares/LVGL/GUI/lvgl/src/widgets/checkbox/lv_checkbox.c ****     lv_obj_add_flag(obj, LV_OBJ_FLAG_CHECKABLE);
 148:../../Middlewares/LVGL/GUI/lvgl/src/widgets/checkbox/lv_checkbox.c ****     lv_obj_add_flag(obj, LV_OBJ_FLAG_SCROLL_ON_FOCUS);
 149:../../Middlewares/LVGL/GUI/lvgl/src/widgets/checkbox/lv_checkbox.c ****     lv_obj_remove_flag(obj, LV_OBJ_FLAG_SCROLLABLE);
 150:../../Middlewares/LVGL/GUI/lvgl/src/widgets/checkbox/lv_checkbox.c **** 
 151:../../Middlewares/LVGL/GUI/lvgl/src/widgets/checkbox/lv_checkbox.c ****     LV_TRACE_OBJ_CREATE("finished");
 152:../../Middlewares/LVGL/GUI/lvgl/src/widgets/checkbox/lv_checkbox.c **** }
 153:../../Middlewares/LVGL/GUI/lvgl/src/widgets/checkbox/lv_checkbox.c **** 
 154:../../Middlewares/LVGL/GUI/lvgl/src/widgets/checkbox/lv_checkbox.c **** static void lv_checkbox_destructor(const lv_obj_class_t * class_p, lv_obj_t * obj)
 155:../../Middlewares/LVGL/GUI/lvgl/src/widgets/checkbox/lv_checkbox.c **** {
 156:../../Middlewares/LVGL/GUI/lvgl/src/widgets/checkbox/lv_checkbox.c ****     LV_UNUSED(class_p);
 157:../../Middlewares/LVGL/GUI/lvgl/src/widgets/checkbox/lv_checkbox.c ****     LV_TRACE_OBJ_CREATE("begin");
 158:../../Middlewares/LVGL/GUI/lvgl/src/widgets/checkbox/lv_checkbox.c **** 
 159:../../Middlewares/LVGL/GUI/lvgl/src/widgets/checkbox/lv_checkbox.c ****     lv_checkbox_t * cb = (lv_checkbox_t *)obj;
 160:../../Middlewares/LVGL/GUI/lvgl/src/widgets/checkbox/lv_checkbox.c ****     if(!cb->static_txt) {
 161:../../Middlewares/LVGL/GUI/lvgl/src/widgets/checkbox/lv_checkbox.c ****         lv_free(cb->txt);
 162:../../Middlewares/LVGL/GUI/lvgl/src/widgets/checkbox/lv_checkbox.c ****         cb->txt = NULL;
 163:../../Middlewares/LVGL/GUI/lvgl/src/widgets/checkbox/lv_checkbox.c ****     }
 164:../../Middlewares/LVGL/GUI/lvgl/src/widgets/checkbox/lv_checkbox.c ****     LV_TRACE_OBJ_CREATE("finished");
 165:../../Middlewares/LVGL/GUI/lvgl/src/widgets/checkbox/lv_checkbox.c **** }
 166:../../Middlewares/LVGL/GUI/lvgl/src/widgets/checkbox/lv_checkbox.c **** 
 167:../../Middlewares/LVGL/GUI/lvgl/src/widgets/checkbox/lv_checkbox.c **** static void lv_checkbox_event(const lv_obj_class_t * class_p, lv_event_t * e)
 168:../../Middlewares/LVGL/GUI/lvgl/src/widgets/checkbox/lv_checkbox.c **** {
 169:../../Middlewares/LVGL/GUI/lvgl/src/widgets/checkbox/lv_checkbox.c ****     LV_UNUSED(class_p);
 170:../../Middlewares/LVGL/GUI/lvgl/src/widgets/checkbox/lv_checkbox.c **** 
 171:../../Middlewares/LVGL/GUI/lvgl/src/widgets/checkbox/lv_checkbox.c ****     lv_result_t res;
 172:../../Middlewares/LVGL/GUI/lvgl/src/widgets/checkbox/lv_checkbox.c ****     /*Call the ancestor's event handler*/
 173:../../Middlewares/LVGL/GUI/lvgl/src/widgets/checkbox/lv_checkbox.c ****     res = lv_obj_event_base(MY_CLASS, e);
 174:../../Middlewares/LVGL/GUI/lvgl/src/widgets/checkbox/lv_checkbox.c ****     if(res != LV_RESULT_OK) return;
 175:../../Middlewares/LVGL/GUI/lvgl/src/widgets/checkbox/lv_checkbox.c **** 
 176:../../Middlewares/LVGL/GUI/lvgl/src/widgets/checkbox/lv_checkbox.c ****     lv_event_code_t code = lv_event_get_code(e);
 177:../../Middlewares/LVGL/GUI/lvgl/src/widgets/checkbox/lv_checkbox.c ****     lv_obj_t * obj = lv_event_get_current_target(e);
 178:../../Middlewares/LVGL/GUI/lvgl/src/widgets/checkbox/lv_checkbox.c **** 
 179:../../Middlewares/LVGL/GUI/lvgl/src/widgets/checkbox/lv_checkbox.c ****     if(code == LV_EVENT_GET_SELF_SIZE) {
 180:../../Middlewares/LVGL/GUI/lvgl/src/widgets/checkbox/lv_checkbox.c ****         lv_point_t * p = lv_event_get_param(e);
 181:../../Middlewares/LVGL/GUI/lvgl/src/widgets/checkbox/lv_checkbox.c ****         lv_checkbox_t * cb = (lv_checkbox_t *)obj;
 182:../../Middlewares/LVGL/GUI/lvgl/src/widgets/checkbox/lv_checkbox.c **** 
 183:../../Middlewares/LVGL/GUI/lvgl/src/widgets/checkbox/lv_checkbox.c ****         const lv_font_t * font = lv_obj_get_style_text_font(obj, LV_PART_MAIN);
 184:../../Middlewares/LVGL/GUI/lvgl/src/widgets/checkbox/lv_checkbox.c ****         int32_t font_h = lv_font_get_line_height(font);
 185:../../Middlewares/LVGL/GUI/lvgl/src/widgets/checkbox/lv_checkbox.c ****         int32_t line_space = lv_obj_get_style_text_line_space(obj, LV_PART_MAIN);
 186:../../Middlewares/LVGL/GUI/lvgl/src/widgets/checkbox/lv_checkbox.c ****         int32_t letter_space = lv_obj_get_style_text_letter_space(obj, LV_PART_MAIN);
 187:../../Middlewares/LVGL/GUI/lvgl/src/widgets/checkbox/lv_checkbox.c **** 
 188:../../Middlewares/LVGL/GUI/lvgl/src/widgets/checkbox/lv_checkbox.c ****         lv_point_t txt_size;
 189:../../Middlewares/LVGL/GUI/lvgl/src/widgets/checkbox/lv_checkbox.c ****         lv_text_get_size(&txt_size, cb->txt, font, letter_space, line_space, LV_COORD_MAX, LV_TEXT_
 190:../../Middlewares/LVGL/GUI/lvgl/src/widgets/checkbox/lv_checkbox.c **** 
 191:../../Middlewares/LVGL/GUI/lvgl/src/widgets/checkbox/lv_checkbox.c ****         int32_t bg_colp = lv_obj_get_style_pad_column(obj, LV_PART_MAIN);
 192:../../Middlewares/LVGL/GUI/lvgl/src/widgets/checkbox/lv_checkbox.c ****         int32_t marker_leftp = lv_obj_get_style_pad_left(obj, LV_PART_INDICATOR);
 193:../../Middlewares/LVGL/GUI/lvgl/src/widgets/checkbox/lv_checkbox.c ****         int32_t marker_rightp = lv_obj_get_style_pad_right(obj, LV_PART_INDICATOR);
 194:../../Middlewares/LVGL/GUI/lvgl/src/widgets/checkbox/lv_checkbox.c ****         int32_t marker_topp = lv_obj_get_style_pad_top(obj, LV_PART_INDICATOR);
 195:../../Middlewares/LVGL/GUI/lvgl/src/widgets/checkbox/lv_checkbox.c ****         int32_t marker_bottomp = lv_obj_get_style_pad_bottom(obj, LV_PART_INDICATOR);
 196:../../Middlewares/LVGL/GUI/lvgl/src/widgets/checkbox/lv_checkbox.c ****         lv_point_t marker_size;
 197:../../Middlewares/LVGL/GUI/lvgl/src/widgets/checkbox/lv_checkbox.c ****         marker_size.x = font_h + marker_leftp + marker_rightp;
 198:../../Middlewares/LVGL/GUI/lvgl/src/widgets/checkbox/lv_checkbox.c ****         marker_size.y = font_h + marker_topp + marker_bottomp;
 199:../../Middlewares/LVGL/GUI/lvgl/src/widgets/checkbox/lv_checkbox.c **** 
 200:../../Middlewares/LVGL/GUI/lvgl/src/widgets/checkbox/lv_checkbox.c ****         p->x = marker_size.x + txt_size.x + bg_colp;
 201:../../Middlewares/LVGL/GUI/lvgl/src/widgets/checkbox/lv_checkbox.c ****         p->y = LV_MAX(marker_size.y, txt_size.y);
 202:../../Middlewares/LVGL/GUI/lvgl/src/widgets/checkbox/lv_checkbox.c ****     }
ARM GAS  C:\Users\28576\AppData\Local\Temp\ccRKCVo4.s 			page 5


 203:../../Middlewares/LVGL/GUI/lvgl/src/widgets/checkbox/lv_checkbox.c ****     else if(code == LV_EVENT_REFR_EXT_DRAW_SIZE) {
 204:../../Middlewares/LVGL/GUI/lvgl/src/widgets/checkbox/lv_checkbox.c ****         int32_t * s = lv_event_get_param(e);
 205:../../Middlewares/LVGL/GUI/lvgl/src/widgets/checkbox/lv_checkbox.c ****         int32_t m = lv_obj_calculate_ext_draw_size(obj, LV_PART_INDICATOR);
 206:../../Middlewares/LVGL/GUI/lvgl/src/widgets/checkbox/lv_checkbox.c ****         *s = LV_MAX(*s, m);
 207:../../Middlewares/LVGL/GUI/lvgl/src/widgets/checkbox/lv_checkbox.c ****     }
 208:../../Middlewares/LVGL/GUI/lvgl/src/widgets/checkbox/lv_checkbox.c ****     else if(code == LV_EVENT_DRAW_MAIN) {
 209:../../Middlewares/LVGL/GUI/lvgl/src/widgets/checkbox/lv_checkbox.c ****         lv_checkbox_draw(e);
 210:../../Middlewares/LVGL/GUI/lvgl/src/widgets/checkbox/lv_checkbox.c ****     }
 211:../../Middlewares/LVGL/GUI/lvgl/src/widgets/checkbox/lv_checkbox.c **** }
 212:../../Middlewares/LVGL/GUI/lvgl/src/widgets/checkbox/lv_checkbox.c **** 
 213:../../Middlewares/LVGL/GUI/lvgl/src/widgets/checkbox/lv_checkbox.c **** static void lv_checkbox_draw(lv_event_t * e)
 214:../../Middlewares/LVGL/GUI/lvgl/src/widgets/checkbox/lv_checkbox.c **** {
  28              		.loc 1 214 1 view -0
  29              		.cfi_startproc
  30              		@ args = 0, pretend = 0, frame = 312
  31              		@ frame_needed = 0, uses_anonymous_args = 0
  32              		.loc 1 214 1 is_stmt 0 view .LVU1
  33 0000 2DE9F04F 		push	{r4, r5, r6, r7, r8, r9, r10, fp, lr}
  34              	.LCFI0:
  35              		.cfi_def_cfa_offset 36
  36              		.cfi_offset 4, -36
  37              		.cfi_offset 5, -32
  38              		.cfi_offset 6, -28
  39              		.cfi_offset 7, -24
  40              		.cfi_offset 8, -20
  41              		.cfi_offset 9, -16
  42              		.cfi_offset 10, -12
  43              		.cfi_offset 11, -8
  44              		.cfi_offset 14, -4
  45 0004 D3B0     		sub	sp, sp, #332
  46              	.LCFI1:
  47              		.cfi_def_cfa_offset 368
  48 0006 0546     		mov	r5, r0
 215:../../Middlewares/LVGL/GUI/lvgl/src/widgets/checkbox/lv_checkbox.c ****     lv_obj_t * obj = lv_event_get_current_target(e);
  49              		.loc 1 215 5 is_stmt 1 view .LVU2
  50              		.loc 1 215 22 is_stmt 0 view .LVU3
  51 0008 FFF7FEFF 		bl	lv_event_get_current_target
  52              	.LVL1:
  53              		.loc 1 215 22 view .LVU4
  54 000c 0446     		mov	r4, r0
  55              	.LVL2:
 216:../../Middlewares/LVGL/GUI/lvgl/src/widgets/checkbox/lv_checkbox.c ****     lv_checkbox_t * cb = (lv_checkbox_t *)obj;
  56              		.loc 1 216 5 is_stmt 1 view .LVU5
 217:../../Middlewares/LVGL/GUI/lvgl/src/widgets/checkbox/lv_checkbox.c **** 
 218:../../Middlewares/LVGL/GUI/lvgl/src/widgets/checkbox/lv_checkbox.c ****     lv_layer_t * layer = lv_event_get_layer(e);
  57              		.loc 1 218 5 view .LVU6
  58              		.loc 1 218 26 is_stmt 0 view .LVU7
  59 000e 2846     		mov	r0, r5
  60              	.LVL3:
  61              		.loc 1 218 26 view .LVU8
  62 0010 FFF7FEFF 		bl	lv_event_get_layer
  63              	.LVL4:
  64 0014 8046     		mov	r8, r0
  65              	.LVL5:
 219:../../Middlewares/LVGL/GUI/lvgl/src/widgets/checkbox/lv_checkbox.c ****     const lv_font_t * font = lv_obj_get_style_text_font(obj, LV_PART_MAIN);
  66              		.loc 1 219 5 is_stmt 1 view .LVU9
  67              	.LBB52:
ARM GAS  C:\Users\28576\AppData\Local\Temp\ccRKCVo4.s 			page 6


  68              	.LBI52:
  69              		.file 2 "H:/STM32H7/RGB_LVGL/Middlewares/LVGL/GUI/lvgl/src/core/lv_obj_style_gen.h"
   1:H:/STM32H7/RGB_LVGL/Middlewares/LVGL/GUI/lvgl/src/core\lv_obj_style_gen.h **** 
   2:H:/STM32H7/RGB_LVGL/Middlewares/LVGL/GUI/lvgl/src/core\lv_obj_style_gen.h **** /*
   3:H:/STM32H7/RGB_LVGL/Middlewares/LVGL/GUI/lvgl/src/core\lv_obj_style_gen.h ****  **********************************************************************
   4:H:/STM32H7/RGB_LVGL/Middlewares/LVGL/GUI/lvgl/src/core\lv_obj_style_gen.h ****  *                            DO NOT EDIT
   5:H:/STM32H7/RGB_LVGL/Middlewares/LVGL/GUI/lvgl/src/core\lv_obj_style_gen.h ****  * This file is automatically generated by "style_api_gen.py"
   6:H:/STM32H7/RGB_LVGL/Middlewares/LVGL/GUI/lvgl/src/core\lv_obj_style_gen.h ****  **********************************************************************
   7:H:/STM32H7/RGB_LVGL/Middlewares/LVGL/GUI/lvgl/src/core\lv_obj_style_gen.h ****  */
   8:H:/STM32H7/RGB_LVGL/Middlewares/LVGL/GUI/lvgl/src/core\lv_obj_style_gen.h **** 
   9:H:/STM32H7/RGB_LVGL/Middlewares/LVGL/GUI/lvgl/src/core\lv_obj_style_gen.h **** 
  10:H:/STM32H7/RGB_LVGL/Middlewares/LVGL/GUI/lvgl/src/core\lv_obj_style_gen.h **** #ifndef LV_OBJ_STYLE_GEN_H
  11:H:/STM32H7/RGB_LVGL/Middlewares/LVGL/GUI/lvgl/src/core\lv_obj_style_gen.h **** #define LV_OBJ_STYLE_GEN_H
  12:H:/STM32H7/RGB_LVGL/Middlewares/LVGL/GUI/lvgl/src/core\lv_obj_style_gen.h **** 
  13:H:/STM32H7/RGB_LVGL/Middlewares/LVGL/GUI/lvgl/src/core\lv_obj_style_gen.h **** #ifdef __cplusplus
  14:H:/STM32H7/RGB_LVGL/Middlewares/LVGL/GUI/lvgl/src/core\lv_obj_style_gen.h **** extern "C" {
  15:H:/STM32H7/RGB_LVGL/Middlewares/LVGL/GUI/lvgl/src/core\lv_obj_style_gen.h **** #endif
  16:H:/STM32H7/RGB_LVGL/Middlewares/LVGL/GUI/lvgl/src/core\lv_obj_style_gen.h **** 
  17:H:/STM32H7/RGB_LVGL/Middlewares/LVGL/GUI/lvgl/src/core\lv_obj_style_gen.h **** #include "../misc/lv_area.h"
  18:H:/STM32H7/RGB_LVGL/Middlewares/LVGL/GUI/lvgl/src/core\lv_obj_style_gen.h **** #include "../misc/lv_style.h"
  19:H:/STM32H7/RGB_LVGL/Middlewares/LVGL/GUI/lvgl/src/core\lv_obj_style_gen.h **** #include "../core/lv_obj_style.h"
  20:H:/STM32H7/RGB_LVGL/Middlewares/LVGL/GUI/lvgl/src/core\lv_obj_style_gen.h **** #include "../misc/lv_types.h"
  21:H:/STM32H7/RGB_LVGL/Middlewares/LVGL/GUI/lvgl/src/core\lv_obj_style_gen.h **** 
  22:H:/STM32H7/RGB_LVGL/Middlewares/LVGL/GUI/lvgl/src/core\lv_obj_style_gen.h **** static inline int32_t lv_obj_get_style_width(const lv_obj_t * obj, lv_part_t part)
  23:H:/STM32H7/RGB_LVGL/Middlewares/LVGL/GUI/lvgl/src/core\lv_obj_style_gen.h **** {
  24:H:/STM32H7/RGB_LVGL/Middlewares/LVGL/GUI/lvgl/src/core\lv_obj_style_gen.h ****     lv_style_value_t v = lv_obj_get_style_prop(obj, part, LV_STYLE_WIDTH);
  25:H:/STM32H7/RGB_LVGL/Middlewares/LVGL/GUI/lvgl/src/core\lv_obj_style_gen.h ****     return (int32_t)v.num;
  26:H:/STM32H7/RGB_LVGL/Middlewares/LVGL/GUI/lvgl/src/core\lv_obj_style_gen.h **** }
  27:H:/STM32H7/RGB_LVGL/Middlewares/LVGL/GUI/lvgl/src/core\lv_obj_style_gen.h **** 
  28:H:/STM32H7/RGB_LVGL/Middlewares/LVGL/GUI/lvgl/src/core\lv_obj_style_gen.h **** static inline int32_t lv_obj_get_style_min_width(const lv_obj_t * obj, lv_part_t part)
  29:H:/STM32H7/RGB_LVGL/Middlewares/LVGL/GUI/lvgl/src/core\lv_obj_style_gen.h **** {
  30:H:/STM32H7/RGB_LVGL/Middlewares/LVGL/GUI/lvgl/src/core\lv_obj_style_gen.h ****     lv_style_value_t v = lv_obj_get_style_prop(obj, part, LV_STYLE_MIN_WIDTH);
  31:H:/STM32H7/RGB_LVGL/Middlewares/LVGL/GUI/lvgl/src/core\lv_obj_style_gen.h ****     return (int32_t)v.num;
  32:H:/STM32H7/RGB_LVGL/Middlewares/LVGL/GUI/lvgl/src/core\lv_obj_style_gen.h **** }
  33:H:/STM32H7/RGB_LVGL/Middlewares/LVGL/GUI/lvgl/src/core\lv_obj_style_gen.h **** 
  34:H:/STM32H7/RGB_LVGL/Middlewares/LVGL/GUI/lvgl/src/core\lv_obj_style_gen.h **** static inline int32_t lv_obj_get_style_max_width(const lv_obj_t * obj, lv_part_t part)
  35:H:/STM32H7/RGB_LVGL/Middlewares/LVGL/GUI/lvgl/src/core\lv_obj_style_gen.h **** {
  36:H:/STM32H7/RGB_LVGL/Middlewares/LVGL/GUI/lvgl/src/core\lv_obj_style_gen.h ****     lv_style_value_t v = lv_obj_get_style_prop(obj, part, LV_STYLE_MAX_WIDTH);
  37:H:/STM32H7/RGB_LVGL/Middlewares/LVGL/GUI/lvgl/src/core\lv_obj_style_gen.h ****     return (int32_t)v.num;
  38:H:/STM32H7/RGB_LVGL/Middlewares/LVGL/GUI/lvgl/src/core\lv_obj_style_gen.h **** }
  39:H:/STM32H7/RGB_LVGL/Middlewares/LVGL/GUI/lvgl/src/core\lv_obj_style_gen.h **** 
  40:H:/STM32H7/RGB_LVGL/Middlewares/LVGL/GUI/lvgl/src/core\lv_obj_style_gen.h **** static inline int32_t lv_obj_get_style_height(const lv_obj_t * obj, lv_part_t part)
  41:H:/STM32H7/RGB_LVGL/Middlewares/LVGL/GUI/lvgl/src/core\lv_obj_style_gen.h **** {
  42:H:/STM32H7/RGB_LVGL/Middlewares/LVGL/GUI/lvgl/src/core\lv_obj_style_gen.h ****     lv_style_value_t v = lv_obj_get_style_prop(obj, part, LV_STYLE_HEIGHT);
  43:H:/STM32H7/RGB_LVGL/Middlewares/LVGL/GUI/lvgl/src/core\lv_obj_style_gen.h ****     return (int32_t)v.num;
  44:H:/STM32H7/RGB_LVGL/Middlewares/LVGL/GUI/lvgl/src/core\lv_obj_style_gen.h **** }
  45:H:/STM32H7/RGB_LVGL/Middlewares/LVGL/GUI/lvgl/src/core\lv_obj_style_gen.h **** 
  46:H:/STM32H7/RGB_LVGL/Middlewares/LVGL/GUI/lvgl/src/core\lv_obj_style_gen.h **** static inline int32_t lv_obj_get_style_min_height(const lv_obj_t * obj, lv_part_t part)
  47:H:/STM32H7/RGB_LVGL/Middlewares/LVGL/GUI/lvgl/src/core\lv_obj_style_gen.h **** {
  48:H:/STM32H7/RGB_LVGL/Middlewares/LVGL/GUI/lvgl/src/core\lv_obj_style_gen.h ****     lv_style_value_t v = lv_obj_get_style_prop(obj, part, LV_STYLE_MIN_HEIGHT);
  49:H:/STM32H7/RGB_LVGL/Middlewares/LVGL/GUI/lvgl/src/core\lv_obj_style_gen.h ****     return (int32_t)v.num;
  50:H:/STM32H7/RGB_LVGL/Middlewares/LVGL/GUI/lvgl/src/core\lv_obj_style_gen.h **** }
  51:H:/STM32H7/RGB_LVGL/Middlewares/LVGL/GUI/lvgl/src/core\lv_obj_style_gen.h **** 
  52:H:/STM32H7/RGB_LVGL/Middlewares/LVGL/GUI/lvgl/src/core\lv_obj_style_gen.h **** static inline int32_t lv_obj_get_style_max_height(const lv_obj_t * obj, lv_part_t part)
  53:H:/STM32H7/RGB_LVGL/Middlewares/LVGL/GUI/lvgl/src/core\lv_obj_style_gen.h **** {
  54:H:/STM32H7/RGB_LVGL/Middlewares/LVGL/GUI/lvgl/src/core\lv_obj_style_gen.h ****     lv_style_value_t v = lv_obj_get_style_prop(obj, part, LV_STYLE_MAX_HEIGHT);
  55:H:/STM32H7/RGB_LVGL/Middlewares/LVGL/GUI/lvgl/src/core\lv_obj_style_gen.h ****     return (int32_t)v.num;
ARM GAS  C:\Users\28576\AppData\Local\Temp\ccRKCVo4.s 			page 7


  56:H:/STM32H7/RGB_LVGL/Middlewares/LVGL/GUI/lvgl/src/core\lv_obj_style_gen.h **** }
  57:H:/STM32H7/RGB_LVGL/Middlewares/LVGL/GUI/lvgl/src/core\lv_obj_style_gen.h **** 
  58:H:/STM32H7/RGB_LVGL/Middlewares/LVGL/GUI/lvgl/src/core\lv_obj_style_gen.h **** static inline int32_t lv_obj_get_style_length(const lv_obj_t * obj, lv_part_t part)
  59:H:/STM32H7/RGB_LVGL/Middlewares/LVGL/GUI/lvgl/src/core\lv_obj_style_gen.h **** {
  60:H:/STM32H7/RGB_LVGL/Middlewares/LVGL/GUI/lvgl/src/core\lv_obj_style_gen.h ****     lv_style_value_t v = lv_obj_get_style_prop(obj, part, LV_STYLE_LENGTH);
  61:H:/STM32H7/RGB_LVGL/Middlewares/LVGL/GUI/lvgl/src/core\lv_obj_style_gen.h ****     return (int32_t)v.num;
  62:H:/STM32H7/RGB_LVGL/Middlewares/LVGL/GUI/lvgl/src/core\lv_obj_style_gen.h **** }
  63:H:/STM32H7/RGB_LVGL/Middlewares/LVGL/GUI/lvgl/src/core\lv_obj_style_gen.h **** 
  64:H:/STM32H7/RGB_LVGL/Middlewares/LVGL/GUI/lvgl/src/core\lv_obj_style_gen.h **** static inline int32_t lv_obj_get_style_x(const lv_obj_t * obj, lv_part_t part)
  65:H:/STM32H7/RGB_LVGL/Middlewares/LVGL/GUI/lvgl/src/core\lv_obj_style_gen.h **** {
  66:H:/STM32H7/RGB_LVGL/Middlewares/LVGL/GUI/lvgl/src/core\lv_obj_style_gen.h ****     lv_style_value_t v = lv_obj_get_style_prop(obj, part, LV_STYLE_X);
  67:H:/STM32H7/RGB_LVGL/Middlewares/LVGL/GUI/lvgl/src/core\lv_obj_style_gen.h ****     return (int32_t)v.num;
  68:H:/STM32H7/RGB_LVGL/Middlewares/LVGL/GUI/lvgl/src/core\lv_obj_style_gen.h **** }
  69:H:/STM32H7/RGB_LVGL/Middlewares/LVGL/GUI/lvgl/src/core\lv_obj_style_gen.h **** 
  70:H:/STM32H7/RGB_LVGL/Middlewares/LVGL/GUI/lvgl/src/core\lv_obj_style_gen.h **** static inline int32_t lv_obj_get_style_y(const lv_obj_t * obj, lv_part_t part)
  71:H:/STM32H7/RGB_LVGL/Middlewares/LVGL/GUI/lvgl/src/core\lv_obj_style_gen.h **** {
  72:H:/STM32H7/RGB_LVGL/Middlewares/LVGL/GUI/lvgl/src/core\lv_obj_style_gen.h ****     lv_style_value_t v = lv_obj_get_style_prop(obj, part, LV_STYLE_Y);
  73:H:/STM32H7/RGB_LVGL/Middlewares/LVGL/GUI/lvgl/src/core\lv_obj_style_gen.h ****     return (int32_t)v.num;
  74:H:/STM32H7/RGB_LVGL/Middlewares/LVGL/GUI/lvgl/src/core\lv_obj_style_gen.h **** }
  75:H:/STM32H7/RGB_LVGL/Middlewares/LVGL/GUI/lvgl/src/core\lv_obj_style_gen.h **** 
  76:H:/STM32H7/RGB_LVGL/Middlewares/LVGL/GUI/lvgl/src/core\lv_obj_style_gen.h **** static inline lv_align_t lv_obj_get_style_align(const lv_obj_t * obj, lv_part_t part)
  77:H:/STM32H7/RGB_LVGL/Middlewares/LVGL/GUI/lvgl/src/core\lv_obj_style_gen.h **** {
  78:H:/STM32H7/RGB_LVGL/Middlewares/LVGL/GUI/lvgl/src/core\lv_obj_style_gen.h ****     lv_style_value_t v = lv_obj_get_style_prop(obj, part, LV_STYLE_ALIGN);
  79:H:/STM32H7/RGB_LVGL/Middlewares/LVGL/GUI/lvgl/src/core\lv_obj_style_gen.h ****     return (lv_align_t)v.num;
  80:H:/STM32H7/RGB_LVGL/Middlewares/LVGL/GUI/lvgl/src/core\lv_obj_style_gen.h **** }
  81:H:/STM32H7/RGB_LVGL/Middlewares/LVGL/GUI/lvgl/src/core\lv_obj_style_gen.h **** 
  82:H:/STM32H7/RGB_LVGL/Middlewares/LVGL/GUI/lvgl/src/core\lv_obj_style_gen.h **** static inline int32_t lv_obj_get_style_transform_width(const lv_obj_t * obj, lv_part_t part)
  83:H:/STM32H7/RGB_LVGL/Middlewares/LVGL/GUI/lvgl/src/core\lv_obj_style_gen.h **** {
  84:H:/STM32H7/RGB_LVGL/Middlewares/LVGL/GUI/lvgl/src/core\lv_obj_style_gen.h ****     lv_style_value_t v = lv_obj_get_style_prop(obj, part, LV_STYLE_TRANSFORM_WIDTH);
  85:H:/STM32H7/RGB_LVGL/Middlewares/LVGL/GUI/lvgl/src/core\lv_obj_style_gen.h ****     return (int32_t)v.num;
  86:H:/STM32H7/RGB_LVGL/Middlewares/LVGL/GUI/lvgl/src/core\lv_obj_style_gen.h **** }
  87:H:/STM32H7/RGB_LVGL/Middlewares/LVGL/GUI/lvgl/src/core\lv_obj_style_gen.h **** 
  88:H:/STM32H7/RGB_LVGL/Middlewares/LVGL/GUI/lvgl/src/core\lv_obj_style_gen.h **** static inline int32_t lv_obj_get_style_transform_height(const lv_obj_t * obj, lv_part_t part)
  89:H:/STM32H7/RGB_LVGL/Middlewares/LVGL/GUI/lvgl/src/core\lv_obj_style_gen.h **** {
  90:H:/STM32H7/RGB_LVGL/Middlewares/LVGL/GUI/lvgl/src/core\lv_obj_style_gen.h ****     lv_style_value_t v = lv_obj_get_style_prop(obj, part, LV_STYLE_TRANSFORM_HEIGHT);
  91:H:/STM32H7/RGB_LVGL/Middlewares/LVGL/GUI/lvgl/src/core\lv_obj_style_gen.h ****     return (int32_t)v.num;
  92:H:/STM32H7/RGB_LVGL/Middlewares/LVGL/GUI/lvgl/src/core\lv_obj_style_gen.h **** }
  93:H:/STM32H7/RGB_LVGL/Middlewares/LVGL/GUI/lvgl/src/core\lv_obj_style_gen.h **** 
  94:H:/STM32H7/RGB_LVGL/Middlewares/LVGL/GUI/lvgl/src/core\lv_obj_style_gen.h **** static inline int32_t lv_obj_get_style_translate_x(const lv_obj_t * obj, lv_part_t part)
  95:H:/STM32H7/RGB_LVGL/Middlewares/LVGL/GUI/lvgl/src/core\lv_obj_style_gen.h **** {
  96:H:/STM32H7/RGB_LVGL/Middlewares/LVGL/GUI/lvgl/src/core\lv_obj_style_gen.h ****     lv_style_value_t v = lv_obj_get_style_prop(obj, part, LV_STYLE_TRANSLATE_X);
  97:H:/STM32H7/RGB_LVGL/Middlewares/LVGL/GUI/lvgl/src/core\lv_obj_style_gen.h ****     return (int32_t)v.num;
  98:H:/STM32H7/RGB_LVGL/Middlewares/LVGL/GUI/lvgl/src/core\lv_obj_style_gen.h **** }
  99:H:/STM32H7/RGB_LVGL/Middlewares/LVGL/GUI/lvgl/src/core\lv_obj_style_gen.h **** 
 100:H:/STM32H7/RGB_LVGL/Middlewares/LVGL/GUI/lvgl/src/core\lv_obj_style_gen.h **** static inline int32_t lv_obj_get_style_translate_y(const lv_obj_t * obj, lv_part_t part)
 101:H:/STM32H7/RGB_LVGL/Middlewares/LVGL/GUI/lvgl/src/core\lv_obj_style_gen.h **** {
 102:H:/STM32H7/RGB_LVGL/Middlewares/LVGL/GUI/lvgl/src/core\lv_obj_style_gen.h ****     lv_style_value_t v = lv_obj_get_style_prop(obj, part, LV_STYLE_TRANSLATE_Y);
 103:H:/STM32H7/RGB_LVGL/Middlewares/LVGL/GUI/lvgl/src/core\lv_obj_style_gen.h ****     return (int32_t)v.num;
 104:H:/STM32H7/RGB_LVGL/Middlewares/LVGL/GUI/lvgl/src/core\lv_obj_style_gen.h **** }
 105:H:/STM32H7/RGB_LVGL/Middlewares/LVGL/GUI/lvgl/src/core\lv_obj_style_gen.h **** 
 106:H:/STM32H7/RGB_LVGL/Middlewares/LVGL/GUI/lvgl/src/core\lv_obj_style_gen.h **** static inline int32_t lv_obj_get_style_translate_radial(const lv_obj_t * obj, lv_part_t part)
 107:H:/STM32H7/RGB_LVGL/Middlewares/LVGL/GUI/lvgl/src/core\lv_obj_style_gen.h **** {
 108:H:/STM32H7/RGB_LVGL/Middlewares/LVGL/GUI/lvgl/src/core\lv_obj_style_gen.h ****     lv_style_value_t v = lv_obj_get_style_prop(obj, part, LV_STYLE_TRANSLATE_RADIAL);
 109:H:/STM32H7/RGB_LVGL/Middlewares/LVGL/GUI/lvgl/src/core\lv_obj_style_gen.h ****     return (int32_t)v.num;
 110:H:/STM32H7/RGB_LVGL/Middlewares/LVGL/GUI/lvgl/src/core\lv_obj_style_gen.h **** }
 111:H:/STM32H7/RGB_LVGL/Middlewares/LVGL/GUI/lvgl/src/core\lv_obj_style_gen.h **** 
 112:H:/STM32H7/RGB_LVGL/Middlewares/LVGL/GUI/lvgl/src/core\lv_obj_style_gen.h **** static inline int32_t lv_obj_get_style_transform_scale_x(const lv_obj_t * obj, lv_part_t part)
ARM GAS  C:\Users\28576\AppData\Local\Temp\ccRKCVo4.s 			page 8


 113:H:/STM32H7/RGB_LVGL/Middlewares/LVGL/GUI/lvgl/src/core\lv_obj_style_gen.h **** {
 114:H:/STM32H7/RGB_LVGL/Middlewares/LVGL/GUI/lvgl/src/core\lv_obj_style_gen.h ****     lv_style_value_t v = lv_obj_get_style_prop(obj, part, LV_STYLE_TRANSFORM_SCALE_X);
 115:H:/STM32H7/RGB_LVGL/Middlewares/LVGL/GUI/lvgl/src/core\lv_obj_style_gen.h ****     return (int32_t)v.num;
 116:H:/STM32H7/RGB_LVGL/Middlewares/LVGL/GUI/lvgl/src/core\lv_obj_style_gen.h **** }
 117:H:/STM32H7/RGB_LVGL/Middlewares/LVGL/GUI/lvgl/src/core\lv_obj_style_gen.h **** 
 118:H:/STM32H7/RGB_LVGL/Middlewares/LVGL/GUI/lvgl/src/core\lv_obj_style_gen.h **** static inline int32_t lv_obj_get_style_transform_scale_y(const lv_obj_t * obj, lv_part_t part)
 119:H:/STM32H7/RGB_LVGL/Middlewares/LVGL/GUI/lvgl/src/core\lv_obj_style_gen.h **** {
 120:H:/STM32H7/RGB_LVGL/Middlewares/LVGL/GUI/lvgl/src/core\lv_obj_style_gen.h ****     lv_style_value_t v = lv_obj_get_style_prop(obj, part, LV_STYLE_TRANSFORM_SCALE_Y);
 121:H:/STM32H7/RGB_LVGL/Middlewares/LVGL/GUI/lvgl/src/core\lv_obj_style_gen.h ****     return (int32_t)v.num;
 122:H:/STM32H7/RGB_LVGL/Middlewares/LVGL/GUI/lvgl/src/core\lv_obj_style_gen.h **** }
 123:H:/STM32H7/RGB_LVGL/Middlewares/LVGL/GUI/lvgl/src/core\lv_obj_style_gen.h **** 
 124:H:/STM32H7/RGB_LVGL/Middlewares/LVGL/GUI/lvgl/src/core\lv_obj_style_gen.h **** static inline int32_t lv_obj_get_style_transform_rotation(const lv_obj_t * obj, lv_part_t part)
 125:H:/STM32H7/RGB_LVGL/Middlewares/LVGL/GUI/lvgl/src/core\lv_obj_style_gen.h **** {
 126:H:/STM32H7/RGB_LVGL/Middlewares/LVGL/GUI/lvgl/src/core\lv_obj_style_gen.h ****     lv_style_value_t v = lv_obj_get_style_prop(obj, part, LV_STYLE_TRANSFORM_ROTATION);
 127:H:/STM32H7/RGB_LVGL/Middlewares/LVGL/GUI/lvgl/src/core\lv_obj_style_gen.h ****     return (int32_t)v.num;
 128:H:/STM32H7/RGB_LVGL/Middlewares/LVGL/GUI/lvgl/src/core\lv_obj_style_gen.h **** }
 129:H:/STM32H7/RGB_LVGL/Middlewares/LVGL/GUI/lvgl/src/core\lv_obj_style_gen.h **** 
 130:H:/STM32H7/RGB_LVGL/Middlewares/LVGL/GUI/lvgl/src/core\lv_obj_style_gen.h **** static inline int32_t lv_obj_get_style_transform_pivot_x(const lv_obj_t * obj, lv_part_t part)
 131:H:/STM32H7/RGB_LVGL/Middlewares/LVGL/GUI/lvgl/src/core\lv_obj_style_gen.h **** {
 132:H:/STM32H7/RGB_LVGL/Middlewares/LVGL/GUI/lvgl/src/core\lv_obj_style_gen.h ****     lv_style_value_t v = lv_obj_get_style_prop(obj, part, LV_STYLE_TRANSFORM_PIVOT_X);
 133:H:/STM32H7/RGB_LVGL/Middlewares/LVGL/GUI/lvgl/src/core\lv_obj_style_gen.h ****     return (int32_t)v.num;
 134:H:/STM32H7/RGB_LVGL/Middlewares/LVGL/GUI/lvgl/src/core\lv_obj_style_gen.h **** }
 135:H:/STM32H7/RGB_LVGL/Middlewares/LVGL/GUI/lvgl/src/core\lv_obj_style_gen.h **** 
 136:H:/STM32H7/RGB_LVGL/Middlewares/LVGL/GUI/lvgl/src/core\lv_obj_style_gen.h **** static inline int32_t lv_obj_get_style_transform_pivot_y(const lv_obj_t * obj, lv_part_t part)
 137:H:/STM32H7/RGB_LVGL/Middlewares/LVGL/GUI/lvgl/src/core\lv_obj_style_gen.h **** {
 138:H:/STM32H7/RGB_LVGL/Middlewares/LVGL/GUI/lvgl/src/core\lv_obj_style_gen.h ****     lv_style_value_t v = lv_obj_get_style_prop(obj, part, LV_STYLE_TRANSFORM_PIVOT_Y);
 139:H:/STM32H7/RGB_LVGL/Middlewares/LVGL/GUI/lvgl/src/core\lv_obj_style_gen.h ****     return (int32_t)v.num;
 140:H:/STM32H7/RGB_LVGL/Middlewares/LVGL/GUI/lvgl/src/core\lv_obj_style_gen.h **** }
 141:H:/STM32H7/RGB_LVGL/Middlewares/LVGL/GUI/lvgl/src/core\lv_obj_style_gen.h **** 
 142:H:/STM32H7/RGB_LVGL/Middlewares/LVGL/GUI/lvgl/src/core\lv_obj_style_gen.h **** static inline int32_t lv_obj_get_style_transform_skew_x(const lv_obj_t * obj, lv_part_t part)
 143:H:/STM32H7/RGB_LVGL/Middlewares/LVGL/GUI/lvgl/src/core\lv_obj_style_gen.h **** {
 144:H:/STM32H7/RGB_LVGL/Middlewares/LVGL/GUI/lvgl/src/core\lv_obj_style_gen.h ****     lv_style_value_t v = lv_obj_get_style_prop(obj, part, LV_STYLE_TRANSFORM_SKEW_X);
 145:H:/STM32H7/RGB_LVGL/Middlewares/LVGL/GUI/lvgl/src/core\lv_obj_style_gen.h ****     return (int32_t)v.num;
 146:H:/STM32H7/RGB_LVGL/Middlewares/LVGL/GUI/lvgl/src/core\lv_obj_style_gen.h **** }
 147:H:/STM32H7/RGB_LVGL/Middlewares/LVGL/GUI/lvgl/src/core\lv_obj_style_gen.h **** 
 148:H:/STM32H7/RGB_LVGL/Middlewares/LVGL/GUI/lvgl/src/core\lv_obj_style_gen.h **** static inline int32_t lv_obj_get_style_transform_skew_y(const lv_obj_t * obj, lv_part_t part)
 149:H:/STM32H7/RGB_LVGL/Middlewares/LVGL/GUI/lvgl/src/core\lv_obj_style_gen.h **** {
 150:H:/STM32H7/RGB_LVGL/Middlewares/LVGL/GUI/lvgl/src/core\lv_obj_style_gen.h ****     lv_style_value_t v = lv_obj_get_style_prop(obj, part, LV_STYLE_TRANSFORM_SKEW_Y);
 151:H:/STM32H7/RGB_LVGL/Middlewares/LVGL/GUI/lvgl/src/core\lv_obj_style_gen.h ****     return (int32_t)v.num;
 152:H:/STM32H7/RGB_LVGL/Middlewares/LVGL/GUI/lvgl/src/core\lv_obj_style_gen.h **** }
 153:H:/STM32H7/RGB_LVGL/Middlewares/LVGL/GUI/lvgl/src/core\lv_obj_style_gen.h **** 
 154:H:/STM32H7/RGB_LVGL/Middlewares/LVGL/GUI/lvgl/src/core\lv_obj_style_gen.h **** static inline int32_t lv_obj_get_style_pad_top(const lv_obj_t * obj, lv_part_t part)
 155:H:/STM32H7/RGB_LVGL/Middlewares/LVGL/GUI/lvgl/src/core\lv_obj_style_gen.h **** {
 156:H:/STM32H7/RGB_LVGL/Middlewares/LVGL/GUI/lvgl/src/core\lv_obj_style_gen.h ****     lv_style_value_t v = lv_obj_get_style_prop(obj, part, LV_STYLE_PAD_TOP);
 157:H:/STM32H7/RGB_LVGL/Middlewares/LVGL/GUI/lvgl/src/core\lv_obj_style_gen.h ****     return (int32_t)v.num;
 158:H:/STM32H7/RGB_LVGL/Middlewares/LVGL/GUI/lvgl/src/core\lv_obj_style_gen.h **** }
 159:H:/STM32H7/RGB_LVGL/Middlewares/LVGL/GUI/lvgl/src/core\lv_obj_style_gen.h **** 
 160:H:/STM32H7/RGB_LVGL/Middlewares/LVGL/GUI/lvgl/src/core\lv_obj_style_gen.h **** static inline int32_t lv_obj_get_style_pad_bottom(const lv_obj_t * obj, lv_part_t part)
 161:H:/STM32H7/RGB_LVGL/Middlewares/LVGL/GUI/lvgl/src/core\lv_obj_style_gen.h **** {
 162:H:/STM32H7/RGB_LVGL/Middlewares/LVGL/GUI/lvgl/src/core\lv_obj_style_gen.h ****     lv_style_value_t v = lv_obj_get_style_prop(obj, part, LV_STYLE_PAD_BOTTOM);
 163:H:/STM32H7/RGB_LVGL/Middlewares/LVGL/GUI/lvgl/src/core\lv_obj_style_gen.h ****     return (int32_t)v.num;
 164:H:/STM32H7/RGB_LVGL/Middlewares/LVGL/GUI/lvgl/src/core\lv_obj_style_gen.h **** }
 165:H:/STM32H7/RGB_LVGL/Middlewares/LVGL/GUI/lvgl/src/core\lv_obj_style_gen.h **** 
 166:H:/STM32H7/RGB_LVGL/Middlewares/LVGL/GUI/lvgl/src/core\lv_obj_style_gen.h **** static inline int32_t lv_obj_get_style_pad_left(const lv_obj_t * obj, lv_part_t part)
 167:H:/STM32H7/RGB_LVGL/Middlewares/LVGL/GUI/lvgl/src/core\lv_obj_style_gen.h **** {
 168:H:/STM32H7/RGB_LVGL/Middlewares/LVGL/GUI/lvgl/src/core\lv_obj_style_gen.h ****     lv_style_value_t v = lv_obj_get_style_prop(obj, part, LV_STYLE_PAD_LEFT);
 169:H:/STM32H7/RGB_LVGL/Middlewares/LVGL/GUI/lvgl/src/core\lv_obj_style_gen.h ****     return (int32_t)v.num;
ARM GAS  C:\Users\28576\AppData\Local\Temp\ccRKCVo4.s 			page 9


 170:H:/STM32H7/RGB_LVGL/Middlewares/LVGL/GUI/lvgl/src/core\lv_obj_style_gen.h **** }
 171:H:/STM32H7/RGB_LVGL/Middlewares/LVGL/GUI/lvgl/src/core\lv_obj_style_gen.h **** 
 172:H:/STM32H7/RGB_LVGL/Middlewares/LVGL/GUI/lvgl/src/core\lv_obj_style_gen.h **** static inline int32_t lv_obj_get_style_pad_right(const lv_obj_t * obj, lv_part_t part)
 173:H:/STM32H7/RGB_LVGL/Middlewares/LVGL/GUI/lvgl/src/core\lv_obj_style_gen.h **** {
 174:H:/STM32H7/RGB_LVGL/Middlewares/LVGL/GUI/lvgl/src/core\lv_obj_style_gen.h ****     lv_style_value_t v = lv_obj_get_style_prop(obj, part, LV_STYLE_PAD_RIGHT);
 175:H:/STM32H7/RGB_LVGL/Middlewares/LVGL/GUI/lvgl/src/core\lv_obj_style_gen.h ****     return (int32_t)v.num;
 176:H:/STM32H7/RGB_LVGL/Middlewares/LVGL/GUI/lvgl/src/core\lv_obj_style_gen.h **** }
 177:H:/STM32H7/RGB_LVGL/Middlewares/LVGL/GUI/lvgl/src/core\lv_obj_style_gen.h **** 
 178:H:/STM32H7/RGB_LVGL/Middlewares/LVGL/GUI/lvgl/src/core\lv_obj_style_gen.h **** static inline int32_t lv_obj_get_style_pad_row(const lv_obj_t * obj, lv_part_t part)
 179:H:/STM32H7/RGB_LVGL/Middlewares/LVGL/GUI/lvgl/src/core\lv_obj_style_gen.h **** {
 180:H:/STM32H7/RGB_LVGL/Middlewares/LVGL/GUI/lvgl/src/core\lv_obj_style_gen.h ****     lv_style_value_t v = lv_obj_get_style_prop(obj, part, LV_STYLE_PAD_ROW);
 181:H:/STM32H7/RGB_LVGL/Middlewares/LVGL/GUI/lvgl/src/core\lv_obj_style_gen.h ****     return (int32_t)v.num;
 182:H:/STM32H7/RGB_LVGL/Middlewares/LVGL/GUI/lvgl/src/core\lv_obj_style_gen.h **** }
 183:H:/STM32H7/RGB_LVGL/Middlewares/LVGL/GUI/lvgl/src/core\lv_obj_style_gen.h **** 
 184:H:/STM32H7/RGB_LVGL/Middlewares/LVGL/GUI/lvgl/src/core\lv_obj_style_gen.h **** static inline int32_t lv_obj_get_style_pad_column(const lv_obj_t * obj, lv_part_t part)
 185:H:/STM32H7/RGB_LVGL/Middlewares/LVGL/GUI/lvgl/src/core\lv_obj_style_gen.h **** {
 186:H:/STM32H7/RGB_LVGL/Middlewares/LVGL/GUI/lvgl/src/core\lv_obj_style_gen.h ****     lv_style_value_t v = lv_obj_get_style_prop(obj, part, LV_STYLE_PAD_COLUMN);
 187:H:/STM32H7/RGB_LVGL/Middlewares/LVGL/GUI/lvgl/src/core\lv_obj_style_gen.h ****     return (int32_t)v.num;
 188:H:/STM32H7/RGB_LVGL/Middlewares/LVGL/GUI/lvgl/src/core\lv_obj_style_gen.h **** }
 189:H:/STM32H7/RGB_LVGL/Middlewares/LVGL/GUI/lvgl/src/core\lv_obj_style_gen.h **** 
 190:H:/STM32H7/RGB_LVGL/Middlewares/LVGL/GUI/lvgl/src/core\lv_obj_style_gen.h **** static inline int32_t lv_obj_get_style_pad_radial(const lv_obj_t * obj, lv_part_t part)
 191:H:/STM32H7/RGB_LVGL/Middlewares/LVGL/GUI/lvgl/src/core\lv_obj_style_gen.h **** {
 192:H:/STM32H7/RGB_LVGL/Middlewares/LVGL/GUI/lvgl/src/core\lv_obj_style_gen.h ****     lv_style_value_t v = lv_obj_get_style_prop(obj, part, LV_STYLE_PAD_RADIAL);
 193:H:/STM32H7/RGB_LVGL/Middlewares/LVGL/GUI/lvgl/src/core\lv_obj_style_gen.h ****     return (int32_t)v.num;
 194:H:/STM32H7/RGB_LVGL/Middlewares/LVGL/GUI/lvgl/src/core\lv_obj_style_gen.h **** }
 195:H:/STM32H7/RGB_LVGL/Middlewares/LVGL/GUI/lvgl/src/core\lv_obj_style_gen.h **** 
 196:H:/STM32H7/RGB_LVGL/Middlewares/LVGL/GUI/lvgl/src/core\lv_obj_style_gen.h **** static inline int32_t lv_obj_get_style_margin_top(const lv_obj_t * obj, lv_part_t part)
 197:H:/STM32H7/RGB_LVGL/Middlewares/LVGL/GUI/lvgl/src/core\lv_obj_style_gen.h **** {
 198:H:/STM32H7/RGB_LVGL/Middlewares/LVGL/GUI/lvgl/src/core\lv_obj_style_gen.h ****     lv_style_value_t v = lv_obj_get_style_prop(obj, part, LV_STYLE_MARGIN_TOP);
 199:H:/STM32H7/RGB_LVGL/Middlewares/LVGL/GUI/lvgl/src/core\lv_obj_style_gen.h ****     return (int32_t)v.num;
 200:H:/STM32H7/RGB_LVGL/Middlewares/LVGL/GUI/lvgl/src/core\lv_obj_style_gen.h **** }
 201:H:/STM32H7/RGB_LVGL/Middlewares/LVGL/GUI/lvgl/src/core\lv_obj_style_gen.h **** 
 202:H:/STM32H7/RGB_LVGL/Middlewares/LVGL/GUI/lvgl/src/core\lv_obj_style_gen.h **** static inline int32_t lv_obj_get_style_margin_bottom(const lv_obj_t * obj, lv_part_t part)
 203:H:/STM32H7/RGB_LVGL/Middlewares/LVGL/GUI/lvgl/src/core\lv_obj_style_gen.h **** {
 204:H:/STM32H7/RGB_LVGL/Middlewares/LVGL/GUI/lvgl/src/core\lv_obj_style_gen.h ****     lv_style_value_t v = lv_obj_get_style_prop(obj, part, LV_STYLE_MARGIN_BOTTOM);
 205:H:/STM32H7/RGB_LVGL/Middlewares/LVGL/GUI/lvgl/src/core\lv_obj_style_gen.h ****     return (int32_t)v.num;
 206:H:/STM32H7/RGB_LVGL/Middlewares/LVGL/GUI/lvgl/src/core\lv_obj_style_gen.h **** }
 207:H:/STM32H7/RGB_LVGL/Middlewares/LVGL/GUI/lvgl/src/core\lv_obj_style_gen.h **** 
 208:H:/STM32H7/RGB_LVGL/Middlewares/LVGL/GUI/lvgl/src/core\lv_obj_style_gen.h **** static inline int32_t lv_obj_get_style_margin_left(const lv_obj_t * obj, lv_part_t part)
 209:H:/STM32H7/RGB_LVGL/Middlewares/LVGL/GUI/lvgl/src/core\lv_obj_style_gen.h **** {
 210:H:/STM32H7/RGB_LVGL/Middlewares/LVGL/GUI/lvgl/src/core\lv_obj_style_gen.h ****     lv_style_value_t v = lv_obj_get_style_prop(obj, part, LV_STYLE_MARGIN_LEFT);
 211:H:/STM32H7/RGB_LVGL/Middlewares/LVGL/GUI/lvgl/src/core\lv_obj_style_gen.h ****     return (int32_t)v.num;
 212:H:/STM32H7/RGB_LVGL/Middlewares/LVGL/GUI/lvgl/src/core\lv_obj_style_gen.h **** }
 213:H:/STM32H7/RGB_LVGL/Middlewares/LVGL/GUI/lvgl/src/core\lv_obj_style_gen.h **** 
 214:H:/STM32H7/RGB_LVGL/Middlewares/LVGL/GUI/lvgl/src/core\lv_obj_style_gen.h **** static inline int32_t lv_obj_get_style_margin_right(const lv_obj_t * obj, lv_part_t part)
 215:H:/STM32H7/RGB_LVGL/Middlewares/LVGL/GUI/lvgl/src/core\lv_obj_style_gen.h **** {
 216:H:/STM32H7/RGB_LVGL/Middlewares/LVGL/GUI/lvgl/src/core\lv_obj_style_gen.h ****     lv_style_value_t v = lv_obj_get_style_prop(obj, part, LV_STYLE_MARGIN_RIGHT);
 217:H:/STM32H7/RGB_LVGL/Middlewares/LVGL/GUI/lvgl/src/core\lv_obj_style_gen.h ****     return (int32_t)v.num;
 218:H:/STM32H7/RGB_LVGL/Middlewares/LVGL/GUI/lvgl/src/core\lv_obj_style_gen.h **** }
 219:H:/STM32H7/RGB_LVGL/Middlewares/LVGL/GUI/lvgl/src/core\lv_obj_style_gen.h **** 
 220:H:/STM32H7/RGB_LVGL/Middlewares/LVGL/GUI/lvgl/src/core\lv_obj_style_gen.h **** static inline lv_color_t lv_obj_get_style_bg_color(const lv_obj_t * obj, lv_part_t part)
 221:H:/STM32H7/RGB_LVGL/Middlewares/LVGL/GUI/lvgl/src/core\lv_obj_style_gen.h **** {
 222:H:/STM32H7/RGB_LVGL/Middlewares/LVGL/GUI/lvgl/src/core\lv_obj_style_gen.h ****     lv_style_value_t v = lv_obj_get_style_prop(obj, part, LV_STYLE_BG_COLOR);
 223:H:/STM32H7/RGB_LVGL/Middlewares/LVGL/GUI/lvgl/src/core\lv_obj_style_gen.h ****     return v.color;
 224:H:/STM32H7/RGB_LVGL/Middlewares/LVGL/GUI/lvgl/src/core\lv_obj_style_gen.h **** }
 225:H:/STM32H7/RGB_LVGL/Middlewares/LVGL/GUI/lvgl/src/core\lv_obj_style_gen.h **** 
 226:H:/STM32H7/RGB_LVGL/Middlewares/LVGL/GUI/lvgl/src/core\lv_obj_style_gen.h **** static inline lv_color_t lv_obj_get_style_bg_color_filtered(const lv_obj_t * obj, lv_part_t part)
ARM GAS  C:\Users\28576\AppData\Local\Temp\ccRKCVo4.s 			page 10


 227:H:/STM32H7/RGB_LVGL/Middlewares/LVGL/GUI/lvgl/src/core\lv_obj_style_gen.h **** {
 228:H:/STM32H7/RGB_LVGL/Middlewares/LVGL/GUI/lvgl/src/core\lv_obj_style_gen.h ****     lv_style_value_t v = lv_obj_style_apply_color_filter(obj, part, lv_obj_get_style_prop(obj, part
 229:H:/STM32H7/RGB_LVGL/Middlewares/LVGL/GUI/lvgl/src/core\lv_obj_style_gen.h ****     return v.color;
 230:H:/STM32H7/RGB_LVGL/Middlewares/LVGL/GUI/lvgl/src/core\lv_obj_style_gen.h **** }
 231:H:/STM32H7/RGB_LVGL/Middlewares/LVGL/GUI/lvgl/src/core\lv_obj_style_gen.h **** 
 232:H:/STM32H7/RGB_LVGL/Middlewares/LVGL/GUI/lvgl/src/core\lv_obj_style_gen.h **** static inline lv_opa_t lv_obj_get_style_bg_opa(const lv_obj_t * obj, lv_part_t part)
 233:H:/STM32H7/RGB_LVGL/Middlewares/LVGL/GUI/lvgl/src/core\lv_obj_style_gen.h **** {
 234:H:/STM32H7/RGB_LVGL/Middlewares/LVGL/GUI/lvgl/src/core\lv_obj_style_gen.h ****     lv_style_value_t v = lv_obj_get_style_prop(obj, part, LV_STYLE_BG_OPA);
 235:H:/STM32H7/RGB_LVGL/Middlewares/LVGL/GUI/lvgl/src/core\lv_obj_style_gen.h ****     return (lv_opa_t)v.num;
 236:H:/STM32H7/RGB_LVGL/Middlewares/LVGL/GUI/lvgl/src/core\lv_obj_style_gen.h **** }
 237:H:/STM32H7/RGB_LVGL/Middlewares/LVGL/GUI/lvgl/src/core\lv_obj_style_gen.h **** 
 238:H:/STM32H7/RGB_LVGL/Middlewares/LVGL/GUI/lvgl/src/core\lv_obj_style_gen.h **** static inline lv_color_t lv_obj_get_style_bg_grad_color(const lv_obj_t * obj, lv_part_t part)
 239:H:/STM32H7/RGB_LVGL/Middlewares/LVGL/GUI/lvgl/src/core\lv_obj_style_gen.h **** {
 240:H:/STM32H7/RGB_LVGL/Middlewares/LVGL/GUI/lvgl/src/core\lv_obj_style_gen.h ****     lv_style_value_t v = lv_obj_get_style_prop(obj, part, LV_STYLE_BG_GRAD_COLOR);
 241:H:/STM32H7/RGB_LVGL/Middlewares/LVGL/GUI/lvgl/src/core\lv_obj_style_gen.h ****     return v.color;
 242:H:/STM32H7/RGB_LVGL/Middlewares/LVGL/GUI/lvgl/src/core\lv_obj_style_gen.h **** }
 243:H:/STM32H7/RGB_LVGL/Middlewares/LVGL/GUI/lvgl/src/core\lv_obj_style_gen.h **** 
 244:H:/STM32H7/RGB_LVGL/Middlewares/LVGL/GUI/lvgl/src/core\lv_obj_style_gen.h **** static inline lv_color_t lv_obj_get_style_bg_grad_color_filtered(const lv_obj_t * obj, lv_part_t pa
 245:H:/STM32H7/RGB_LVGL/Middlewares/LVGL/GUI/lvgl/src/core\lv_obj_style_gen.h **** {
 246:H:/STM32H7/RGB_LVGL/Middlewares/LVGL/GUI/lvgl/src/core\lv_obj_style_gen.h ****     lv_style_value_t v = lv_obj_style_apply_color_filter(obj, part, lv_obj_get_style_prop(obj, part
 247:H:/STM32H7/RGB_LVGL/Middlewares/LVGL/GUI/lvgl/src/core\lv_obj_style_gen.h ****     return v.color;
 248:H:/STM32H7/RGB_LVGL/Middlewares/LVGL/GUI/lvgl/src/core\lv_obj_style_gen.h **** }
 249:H:/STM32H7/RGB_LVGL/Middlewares/LVGL/GUI/lvgl/src/core\lv_obj_style_gen.h **** 
 250:H:/STM32H7/RGB_LVGL/Middlewares/LVGL/GUI/lvgl/src/core\lv_obj_style_gen.h **** static inline lv_grad_dir_t lv_obj_get_style_bg_grad_dir(const lv_obj_t * obj, lv_part_t part)
 251:H:/STM32H7/RGB_LVGL/Middlewares/LVGL/GUI/lvgl/src/core\lv_obj_style_gen.h **** {
 252:H:/STM32H7/RGB_LVGL/Middlewares/LVGL/GUI/lvgl/src/core\lv_obj_style_gen.h ****     lv_style_value_t v = lv_obj_get_style_prop(obj, part, LV_STYLE_BG_GRAD_DIR);
 253:H:/STM32H7/RGB_LVGL/Middlewares/LVGL/GUI/lvgl/src/core\lv_obj_style_gen.h ****     return (lv_grad_dir_t)v.num;
 254:H:/STM32H7/RGB_LVGL/Middlewares/LVGL/GUI/lvgl/src/core\lv_obj_style_gen.h **** }
 255:H:/STM32H7/RGB_LVGL/Middlewares/LVGL/GUI/lvgl/src/core\lv_obj_style_gen.h **** 
 256:H:/STM32H7/RGB_LVGL/Middlewares/LVGL/GUI/lvgl/src/core\lv_obj_style_gen.h **** static inline int32_t lv_obj_get_style_bg_main_stop(const lv_obj_t * obj, lv_part_t part)
 257:H:/STM32H7/RGB_LVGL/Middlewares/LVGL/GUI/lvgl/src/core\lv_obj_style_gen.h **** {
 258:H:/STM32H7/RGB_LVGL/Middlewares/LVGL/GUI/lvgl/src/core\lv_obj_style_gen.h ****     lv_style_value_t v = lv_obj_get_style_prop(obj, part, LV_STYLE_BG_MAIN_STOP);
 259:H:/STM32H7/RGB_LVGL/Middlewares/LVGL/GUI/lvgl/src/core\lv_obj_style_gen.h ****     return (int32_t)v.num;
 260:H:/STM32H7/RGB_LVGL/Middlewares/LVGL/GUI/lvgl/src/core\lv_obj_style_gen.h **** }
 261:H:/STM32H7/RGB_LVGL/Middlewares/LVGL/GUI/lvgl/src/core\lv_obj_style_gen.h **** 
 262:H:/STM32H7/RGB_LVGL/Middlewares/LVGL/GUI/lvgl/src/core\lv_obj_style_gen.h **** static inline int32_t lv_obj_get_style_bg_grad_stop(const lv_obj_t * obj, lv_part_t part)
 263:H:/STM32H7/RGB_LVGL/Middlewares/LVGL/GUI/lvgl/src/core\lv_obj_style_gen.h **** {
 264:H:/STM32H7/RGB_LVGL/Middlewares/LVGL/GUI/lvgl/src/core\lv_obj_style_gen.h ****     lv_style_value_t v = lv_obj_get_style_prop(obj, part, LV_STYLE_BG_GRAD_STOP);
 265:H:/STM32H7/RGB_LVGL/Middlewares/LVGL/GUI/lvgl/src/core\lv_obj_style_gen.h ****     return (int32_t)v.num;
 266:H:/STM32H7/RGB_LVGL/Middlewares/LVGL/GUI/lvgl/src/core\lv_obj_style_gen.h **** }
 267:H:/STM32H7/RGB_LVGL/Middlewares/LVGL/GUI/lvgl/src/core\lv_obj_style_gen.h **** 
 268:H:/STM32H7/RGB_LVGL/Middlewares/LVGL/GUI/lvgl/src/core\lv_obj_style_gen.h **** static inline lv_opa_t lv_obj_get_style_bg_main_opa(const lv_obj_t * obj, lv_part_t part)
 269:H:/STM32H7/RGB_LVGL/Middlewares/LVGL/GUI/lvgl/src/core\lv_obj_style_gen.h **** {
 270:H:/STM32H7/RGB_LVGL/Middlewares/LVGL/GUI/lvgl/src/core\lv_obj_style_gen.h ****     lv_style_value_t v = lv_obj_get_style_prop(obj, part, LV_STYLE_BG_MAIN_OPA);
 271:H:/STM32H7/RGB_LVGL/Middlewares/LVGL/GUI/lvgl/src/core\lv_obj_style_gen.h ****     return (lv_opa_t)v.num;
 272:H:/STM32H7/RGB_LVGL/Middlewares/LVGL/GUI/lvgl/src/core\lv_obj_style_gen.h **** }
 273:H:/STM32H7/RGB_LVGL/Middlewares/LVGL/GUI/lvgl/src/core\lv_obj_style_gen.h **** 
 274:H:/STM32H7/RGB_LVGL/Middlewares/LVGL/GUI/lvgl/src/core\lv_obj_style_gen.h **** static inline lv_opa_t lv_obj_get_style_bg_grad_opa(const lv_obj_t * obj, lv_part_t part)
 275:H:/STM32H7/RGB_LVGL/Middlewares/LVGL/GUI/lvgl/src/core\lv_obj_style_gen.h **** {
 276:H:/STM32H7/RGB_LVGL/Middlewares/LVGL/GUI/lvgl/src/core\lv_obj_style_gen.h ****     lv_style_value_t v = lv_obj_get_style_prop(obj, part, LV_STYLE_BG_GRAD_OPA);
 277:H:/STM32H7/RGB_LVGL/Middlewares/LVGL/GUI/lvgl/src/core\lv_obj_style_gen.h ****     return (lv_opa_t)v.num;
 278:H:/STM32H7/RGB_LVGL/Middlewares/LVGL/GUI/lvgl/src/core\lv_obj_style_gen.h **** }
 279:H:/STM32H7/RGB_LVGL/Middlewares/LVGL/GUI/lvgl/src/core\lv_obj_style_gen.h **** 
 280:H:/STM32H7/RGB_LVGL/Middlewares/LVGL/GUI/lvgl/src/core\lv_obj_style_gen.h **** static inline const lv_grad_dsc_t * lv_obj_get_style_bg_grad(const lv_obj_t * obj, lv_part_t part)
 281:H:/STM32H7/RGB_LVGL/Middlewares/LVGL/GUI/lvgl/src/core\lv_obj_style_gen.h **** {
 282:H:/STM32H7/RGB_LVGL/Middlewares/LVGL/GUI/lvgl/src/core\lv_obj_style_gen.h ****     lv_style_value_t v = lv_obj_get_style_prop(obj, part, LV_STYLE_BG_GRAD);
 283:H:/STM32H7/RGB_LVGL/Middlewares/LVGL/GUI/lvgl/src/core\lv_obj_style_gen.h ****     return (const lv_grad_dsc_t *)v.ptr;
ARM GAS  C:\Users\28576\AppData\Local\Temp\ccRKCVo4.s 			page 11


 284:H:/STM32H7/RGB_LVGL/Middlewares/LVGL/GUI/lvgl/src/core\lv_obj_style_gen.h **** }
 285:H:/STM32H7/RGB_LVGL/Middlewares/LVGL/GUI/lvgl/src/core\lv_obj_style_gen.h **** 
 286:H:/STM32H7/RGB_LVGL/Middlewares/LVGL/GUI/lvgl/src/core\lv_obj_style_gen.h **** static inline const void * lv_obj_get_style_bg_image_src(const lv_obj_t * obj, lv_part_t part)
 287:H:/STM32H7/RGB_LVGL/Middlewares/LVGL/GUI/lvgl/src/core\lv_obj_style_gen.h **** {
 288:H:/STM32H7/RGB_LVGL/Middlewares/LVGL/GUI/lvgl/src/core\lv_obj_style_gen.h ****     lv_style_value_t v = lv_obj_get_style_prop(obj, part, LV_STYLE_BG_IMAGE_SRC);
 289:H:/STM32H7/RGB_LVGL/Middlewares/LVGL/GUI/lvgl/src/core\lv_obj_style_gen.h ****     return (const void *)v.ptr;
 290:H:/STM32H7/RGB_LVGL/Middlewares/LVGL/GUI/lvgl/src/core\lv_obj_style_gen.h **** }
 291:H:/STM32H7/RGB_LVGL/Middlewares/LVGL/GUI/lvgl/src/core\lv_obj_style_gen.h **** 
 292:H:/STM32H7/RGB_LVGL/Middlewares/LVGL/GUI/lvgl/src/core\lv_obj_style_gen.h **** static inline lv_opa_t lv_obj_get_style_bg_image_opa(const lv_obj_t * obj, lv_part_t part)
 293:H:/STM32H7/RGB_LVGL/Middlewares/LVGL/GUI/lvgl/src/core\lv_obj_style_gen.h **** {
 294:H:/STM32H7/RGB_LVGL/Middlewares/LVGL/GUI/lvgl/src/core\lv_obj_style_gen.h ****     lv_style_value_t v = lv_obj_get_style_prop(obj, part, LV_STYLE_BG_IMAGE_OPA);
 295:H:/STM32H7/RGB_LVGL/Middlewares/LVGL/GUI/lvgl/src/core\lv_obj_style_gen.h ****     return (lv_opa_t)v.num;
 296:H:/STM32H7/RGB_LVGL/Middlewares/LVGL/GUI/lvgl/src/core\lv_obj_style_gen.h **** }
 297:H:/STM32H7/RGB_LVGL/Middlewares/LVGL/GUI/lvgl/src/core\lv_obj_style_gen.h **** 
 298:H:/STM32H7/RGB_LVGL/Middlewares/LVGL/GUI/lvgl/src/core\lv_obj_style_gen.h **** static inline lv_color_t lv_obj_get_style_bg_image_recolor(const lv_obj_t * obj, lv_part_t part)
 299:H:/STM32H7/RGB_LVGL/Middlewares/LVGL/GUI/lvgl/src/core\lv_obj_style_gen.h **** {
 300:H:/STM32H7/RGB_LVGL/Middlewares/LVGL/GUI/lvgl/src/core\lv_obj_style_gen.h ****     lv_style_value_t v = lv_obj_get_style_prop(obj, part, LV_STYLE_BG_IMAGE_RECOLOR);
 301:H:/STM32H7/RGB_LVGL/Middlewares/LVGL/GUI/lvgl/src/core\lv_obj_style_gen.h ****     return v.color;
 302:H:/STM32H7/RGB_LVGL/Middlewares/LVGL/GUI/lvgl/src/core\lv_obj_style_gen.h **** }
 303:H:/STM32H7/RGB_LVGL/Middlewares/LVGL/GUI/lvgl/src/core\lv_obj_style_gen.h **** 
 304:H:/STM32H7/RGB_LVGL/Middlewares/LVGL/GUI/lvgl/src/core\lv_obj_style_gen.h **** static inline lv_color_t lv_obj_get_style_bg_image_recolor_filtered(const lv_obj_t * obj, lv_part_t
 305:H:/STM32H7/RGB_LVGL/Middlewares/LVGL/GUI/lvgl/src/core\lv_obj_style_gen.h **** {
 306:H:/STM32H7/RGB_LVGL/Middlewares/LVGL/GUI/lvgl/src/core\lv_obj_style_gen.h ****     lv_style_value_t v = lv_obj_style_apply_color_filter(obj, part, lv_obj_get_style_prop(obj, part
 307:H:/STM32H7/RGB_LVGL/Middlewares/LVGL/GUI/lvgl/src/core\lv_obj_style_gen.h ****     return v.color;
 308:H:/STM32H7/RGB_LVGL/Middlewares/LVGL/GUI/lvgl/src/core\lv_obj_style_gen.h **** }
 309:H:/STM32H7/RGB_LVGL/Middlewares/LVGL/GUI/lvgl/src/core\lv_obj_style_gen.h **** 
 310:H:/STM32H7/RGB_LVGL/Middlewares/LVGL/GUI/lvgl/src/core\lv_obj_style_gen.h **** static inline lv_opa_t lv_obj_get_style_bg_image_recolor_opa(const lv_obj_t * obj, lv_part_t part)
 311:H:/STM32H7/RGB_LVGL/Middlewares/LVGL/GUI/lvgl/src/core\lv_obj_style_gen.h **** {
 312:H:/STM32H7/RGB_LVGL/Middlewares/LVGL/GUI/lvgl/src/core\lv_obj_style_gen.h ****     lv_style_value_t v = lv_obj_get_style_prop(obj, part, LV_STYLE_BG_IMAGE_RECOLOR_OPA);
 313:H:/STM32H7/RGB_LVGL/Middlewares/LVGL/GUI/lvgl/src/core\lv_obj_style_gen.h ****     return (lv_opa_t)v.num;
 314:H:/STM32H7/RGB_LVGL/Middlewares/LVGL/GUI/lvgl/src/core\lv_obj_style_gen.h **** }
 315:H:/STM32H7/RGB_LVGL/Middlewares/LVGL/GUI/lvgl/src/core\lv_obj_style_gen.h **** 
 316:H:/STM32H7/RGB_LVGL/Middlewares/LVGL/GUI/lvgl/src/core\lv_obj_style_gen.h **** static inline bool lv_obj_get_style_bg_image_tiled(const lv_obj_t * obj, lv_part_t part)
 317:H:/STM32H7/RGB_LVGL/Middlewares/LVGL/GUI/lvgl/src/core\lv_obj_style_gen.h **** {
 318:H:/STM32H7/RGB_LVGL/Middlewares/LVGL/GUI/lvgl/src/core\lv_obj_style_gen.h ****     lv_style_value_t v = lv_obj_get_style_prop(obj, part, LV_STYLE_BG_IMAGE_TILED);
 319:H:/STM32H7/RGB_LVGL/Middlewares/LVGL/GUI/lvgl/src/core\lv_obj_style_gen.h ****     return (bool)v.num;
 320:H:/STM32H7/RGB_LVGL/Middlewares/LVGL/GUI/lvgl/src/core\lv_obj_style_gen.h **** }
 321:H:/STM32H7/RGB_LVGL/Middlewares/LVGL/GUI/lvgl/src/core\lv_obj_style_gen.h **** 
 322:H:/STM32H7/RGB_LVGL/Middlewares/LVGL/GUI/lvgl/src/core\lv_obj_style_gen.h **** static inline lv_color_t lv_obj_get_style_border_color(const lv_obj_t * obj, lv_part_t part)
 323:H:/STM32H7/RGB_LVGL/Middlewares/LVGL/GUI/lvgl/src/core\lv_obj_style_gen.h **** {
 324:H:/STM32H7/RGB_LVGL/Middlewares/LVGL/GUI/lvgl/src/core\lv_obj_style_gen.h ****     lv_style_value_t v = lv_obj_get_style_prop(obj, part, LV_STYLE_BORDER_COLOR);
 325:H:/STM32H7/RGB_LVGL/Middlewares/LVGL/GUI/lvgl/src/core\lv_obj_style_gen.h ****     return v.color;
 326:H:/STM32H7/RGB_LVGL/Middlewares/LVGL/GUI/lvgl/src/core\lv_obj_style_gen.h **** }
 327:H:/STM32H7/RGB_LVGL/Middlewares/LVGL/GUI/lvgl/src/core\lv_obj_style_gen.h **** 
 328:H:/STM32H7/RGB_LVGL/Middlewares/LVGL/GUI/lvgl/src/core\lv_obj_style_gen.h **** static inline lv_color_t lv_obj_get_style_border_color_filtered(const lv_obj_t * obj, lv_part_t par
 329:H:/STM32H7/RGB_LVGL/Middlewares/LVGL/GUI/lvgl/src/core\lv_obj_style_gen.h **** {
 330:H:/STM32H7/RGB_LVGL/Middlewares/LVGL/GUI/lvgl/src/core\lv_obj_style_gen.h ****     lv_style_value_t v = lv_obj_style_apply_color_filter(obj, part, lv_obj_get_style_prop(obj, part
 331:H:/STM32H7/RGB_LVGL/Middlewares/LVGL/GUI/lvgl/src/core\lv_obj_style_gen.h ****     return v.color;
 332:H:/STM32H7/RGB_LVGL/Middlewares/LVGL/GUI/lvgl/src/core\lv_obj_style_gen.h **** }
 333:H:/STM32H7/RGB_LVGL/Middlewares/LVGL/GUI/lvgl/src/core\lv_obj_style_gen.h **** 
 334:H:/STM32H7/RGB_LVGL/Middlewares/LVGL/GUI/lvgl/src/core\lv_obj_style_gen.h **** static inline lv_opa_t lv_obj_get_style_border_opa(const lv_obj_t * obj, lv_part_t part)
 335:H:/STM32H7/RGB_LVGL/Middlewares/LVGL/GUI/lvgl/src/core\lv_obj_style_gen.h **** {
 336:H:/STM32H7/RGB_LVGL/Middlewares/LVGL/GUI/lvgl/src/core\lv_obj_style_gen.h ****     lv_style_value_t v = lv_obj_get_style_prop(obj, part, LV_STYLE_BORDER_OPA);
 337:H:/STM32H7/RGB_LVGL/Middlewares/LVGL/GUI/lvgl/src/core\lv_obj_style_gen.h ****     return (lv_opa_t)v.num;
 338:H:/STM32H7/RGB_LVGL/Middlewares/LVGL/GUI/lvgl/src/core\lv_obj_style_gen.h **** }
 339:H:/STM32H7/RGB_LVGL/Middlewares/LVGL/GUI/lvgl/src/core\lv_obj_style_gen.h **** 
 340:H:/STM32H7/RGB_LVGL/Middlewares/LVGL/GUI/lvgl/src/core\lv_obj_style_gen.h **** static inline int32_t lv_obj_get_style_border_width(const lv_obj_t * obj, lv_part_t part)
ARM GAS  C:\Users\28576\AppData\Local\Temp\ccRKCVo4.s 			page 12


 341:H:/STM32H7/RGB_LVGL/Middlewares/LVGL/GUI/lvgl/src/core\lv_obj_style_gen.h **** {
 342:H:/STM32H7/RGB_LVGL/Middlewares/LVGL/GUI/lvgl/src/core\lv_obj_style_gen.h ****     lv_style_value_t v = lv_obj_get_style_prop(obj, part, LV_STYLE_BORDER_WIDTH);
 343:H:/STM32H7/RGB_LVGL/Middlewares/LVGL/GUI/lvgl/src/core\lv_obj_style_gen.h ****     return (int32_t)v.num;
 344:H:/STM32H7/RGB_LVGL/Middlewares/LVGL/GUI/lvgl/src/core\lv_obj_style_gen.h **** }
 345:H:/STM32H7/RGB_LVGL/Middlewares/LVGL/GUI/lvgl/src/core\lv_obj_style_gen.h **** 
 346:H:/STM32H7/RGB_LVGL/Middlewares/LVGL/GUI/lvgl/src/core\lv_obj_style_gen.h **** static inline lv_border_side_t lv_obj_get_style_border_side(const lv_obj_t * obj, lv_part_t part)
 347:H:/STM32H7/RGB_LVGL/Middlewares/LVGL/GUI/lvgl/src/core\lv_obj_style_gen.h **** {
 348:H:/STM32H7/RGB_LVGL/Middlewares/LVGL/GUI/lvgl/src/core\lv_obj_style_gen.h ****     lv_style_value_t v = lv_obj_get_style_prop(obj, part, LV_STYLE_BORDER_SIDE);
 349:H:/STM32H7/RGB_LVGL/Middlewares/LVGL/GUI/lvgl/src/core\lv_obj_style_gen.h ****     return (lv_border_side_t)v.num;
 350:H:/STM32H7/RGB_LVGL/Middlewares/LVGL/GUI/lvgl/src/core\lv_obj_style_gen.h **** }
 351:H:/STM32H7/RGB_LVGL/Middlewares/LVGL/GUI/lvgl/src/core\lv_obj_style_gen.h **** 
 352:H:/STM32H7/RGB_LVGL/Middlewares/LVGL/GUI/lvgl/src/core\lv_obj_style_gen.h **** static inline bool lv_obj_get_style_border_post(const lv_obj_t * obj, lv_part_t part)
 353:H:/STM32H7/RGB_LVGL/Middlewares/LVGL/GUI/lvgl/src/core\lv_obj_style_gen.h **** {
 354:H:/STM32H7/RGB_LVGL/Middlewares/LVGL/GUI/lvgl/src/core\lv_obj_style_gen.h ****     lv_style_value_t v = lv_obj_get_style_prop(obj, part, LV_STYLE_BORDER_POST);
 355:H:/STM32H7/RGB_LVGL/Middlewares/LVGL/GUI/lvgl/src/core\lv_obj_style_gen.h ****     return (bool)v.num;
 356:H:/STM32H7/RGB_LVGL/Middlewares/LVGL/GUI/lvgl/src/core\lv_obj_style_gen.h **** }
 357:H:/STM32H7/RGB_LVGL/Middlewares/LVGL/GUI/lvgl/src/core\lv_obj_style_gen.h **** 
 358:H:/STM32H7/RGB_LVGL/Middlewares/LVGL/GUI/lvgl/src/core\lv_obj_style_gen.h **** static inline int32_t lv_obj_get_style_outline_width(const lv_obj_t * obj, lv_part_t part)
 359:H:/STM32H7/RGB_LVGL/Middlewares/LVGL/GUI/lvgl/src/core\lv_obj_style_gen.h **** {
 360:H:/STM32H7/RGB_LVGL/Middlewares/LVGL/GUI/lvgl/src/core\lv_obj_style_gen.h ****     lv_style_value_t v = lv_obj_get_style_prop(obj, part, LV_STYLE_OUTLINE_WIDTH);
 361:H:/STM32H7/RGB_LVGL/Middlewares/LVGL/GUI/lvgl/src/core\lv_obj_style_gen.h ****     return (int32_t)v.num;
 362:H:/STM32H7/RGB_LVGL/Middlewares/LVGL/GUI/lvgl/src/core\lv_obj_style_gen.h **** }
 363:H:/STM32H7/RGB_LVGL/Middlewares/LVGL/GUI/lvgl/src/core\lv_obj_style_gen.h **** 
 364:H:/STM32H7/RGB_LVGL/Middlewares/LVGL/GUI/lvgl/src/core\lv_obj_style_gen.h **** static inline lv_color_t lv_obj_get_style_outline_color(const lv_obj_t * obj, lv_part_t part)
 365:H:/STM32H7/RGB_LVGL/Middlewares/LVGL/GUI/lvgl/src/core\lv_obj_style_gen.h **** {
 366:H:/STM32H7/RGB_LVGL/Middlewares/LVGL/GUI/lvgl/src/core\lv_obj_style_gen.h ****     lv_style_value_t v = lv_obj_get_style_prop(obj, part, LV_STYLE_OUTLINE_COLOR);
 367:H:/STM32H7/RGB_LVGL/Middlewares/LVGL/GUI/lvgl/src/core\lv_obj_style_gen.h ****     return v.color;
 368:H:/STM32H7/RGB_LVGL/Middlewares/LVGL/GUI/lvgl/src/core\lv_obj_style_gen.h **** }
 369:H:/STM32H7/RGB_LVGL/Middlewares/LVGL/GUI/lvgl/src/core\lv_obj_style_gen.h **** 
 370:H:/STM32H7/RGB_LVGL/Middlewares/LVGL/GUI/lvgl/src/core\lv_obj_style_gen.h **** static inline lv_color_t lv_obj_get_style_outline_color_filtered(const lv_obj_t * obj, lv_part_t pa
 371:H:/STM32H7/RGB_LVGL/Middlewares/LVGL/GUI/lvgl/src/core\lv_obj_style_gen.h **** {
 372:H:/STM32H7/RGB_LVGL/Middlewares/LVGL/GUI/lvgl/src/core\lv_obj_style_gen.h ****     lv_style_value_t v = lv_obj_style_apply_color_filter(obj, part, lv_obj_get_style_prop(obj, part
 373:H:/STM32H7/RGB_LVGL/Middlewares/LVGL/GUI/lvgl/src/core\lv_obj_style_gen.h ****     return v.color;
 374:H:/STM32H7/RGB_LVGL/Middlewares/LVGL/GUI/lvgl/src/core\lv_obj_style_gen.h **** }
 375:H:/STM32H7/RGB_LVGL/Middlewares/LVGL/GUI/lvgl/src/core\lv_obj_style_gen.h **** 
 376:H:/STM32H7/RGB_LVGL/Middlewares/LVGL/GUI/lvgl/src/core\lv_obj_style_gen.h **** static inline lv_opa_t lv_obj_get_style_outline_opa(const lv_obj_t * obj, lv_part_t part)
 377:H:/STM32H7/RGB_LVGL/Middlewares/LVGL/GUI/lvgl/src/core\lv_obj_style_gen.h **** {
 378:H:/STM32H7/RGB_LVGL/Middlewares/LVGL/GUI/lvgl/src/core\lv_obj_style_gen.h ****     lv_style_value_t v = lv_obj_get_style_prop(obj, part, LV_STYLE_OUTLINE_OPA);
 379:H:/STM32H7/RGB_LVGL/Middlewares/LVGL/GUI/lvgl/src/core\lv_obj_style_gen.h ****     return (lv_opa_t)v.num;
 380:H:/STM32H7/RGB_LVGL/Middlewares/LVGL/GUI/lvgl/src/core\lv_obj_style_gen.h **** }
 381:H:/STM32H7/RGB_LVGL/Middlewares/LVGL/GUI/lvgl/src/core\lv_obj_style_gen.h **** 
 382:H:/STM32H7/RGB_LVGL/Middlewares/LVGL/GUI/lvgl/src/core\lv_obj_style_gen.h **** static inline int32_t lv_obj_get_style_outline_pad(const lv_obj_t * obj, lv_part_t part)
 383:H:/STM32H7/RGB_LVGL/Middlewares/LVGL/GUI/lvgl/src/core\lv_obj_style_gen.h **** {
 384:H:/STM32H7/RGB_LVGL/Middlewares/LVGL/GUI/lvgl/src/core\lv_obj_style_gen.h ****     lv_style_value_t v = lv_obj_get_style_prop(obj, part, LV_STYLE_OUTLINE_PAD);
 385:H:/STM32H7/RGB_LVGL/Middlewares/LVGL/GUI/lvgl/src/core\lv_obj_style_gen.h ****     return (int32_t)v.num;
 386:H:/STM32H7/RGB_LVGL/Middlewares/LVGL/GUI/lvgl/src/core\lv_obj_style_gen.h **** }
 387:H:/STM32H7/RGB_LVGL/Middlewares/LVGL/GUI/lvgl/src/core\lv_obj_style_gen.h **** 
 388:H:/STM32H7/RGB_LVGL/Middlewares/LVGL/GUI/lvgl/src/core\lv_obj_style_gen.h **** static inline int32_t lv_obj_get_style_shadow_width(const lv_obj_t * obj, lv_part_t part)
 389:H:/STM32H7/RGB_LVGL/Middlewares/LVGL/GUI/lvgl/src/core\lv_obj_style_gen.h **** {
 390:H:/STM32H7/RGB_LVGL/Middlewares/LVGL/GUI/lvgl/src/core\lv_obj_style_gen.h ****     lv_style_value_t v = lv_obj_get_style_prop(obj, part, LV_STYLE_SHADOW_WIDTH);
 391:H:/STM32H7/RGB_LVGL/Middlewares/LVGL/GUI/lvgl/src/core\lv_obj_style_gen.h ****     return (int32_t)v.num;
 392:H:/STM32H7/RGB_LVGL/Middlewares/LVGL/GUI/lvgl/src/core\lv_obj_style_gen.h **** }
 393:H:/STM32H7/RGB_LVGL/Middlewares/LVGL/GUI/lvgl/src/core\lv_obj_style_gen.h **** 
 394:H:/STM32H7/RGB_LVGL/Middlewares/LVGL/GUI/lvgl/src/core\lv_obj_style_gen.h **** static inline int32_t lv_obj_get_style_shadow_offset_x(const lv_obj_t * obj, lv_part_t part)
 395:H:/STM32H7/RGB_LVGL/Middlewares/LVGL/GUI/lvgl/src/core\lv_obj_style_gen.h **** {
 396:H:/STM32H7/RGB_LVGL/Middlewares/LVGL/GUI/lvgl/src/core\lv_obj_style_gen.h ****     lv_style_value_t v = lv_obj_get_style_prop(obj, part, LV_STYLE_SHADOW_OFFSET_X);
 397:H:/STM32H7/RGB_LVGL/Middlewares/LVGL/GUI/lvgl/src/core\lv_obj_style_gen.h ****     return (int32_t)v.num;
ARM GAS  C:\Users\28576\AppData\Local\Temp\ccRKCVo4.s 			page 13


 398:H:/STM32H7/RGB_LVGL/Middlewares/LVGL/GUI/lvgl/src/core\lv_obj_style_gen.h **** }
 399:H:/STM32H7/RGB_LVGL/Middlewares/LVGL/GUI/lvgl/src/core\lv_obj_style_gen.h **** 
 400:H:/STM32H7/RGB_LVGL/Middlewares/LVGL/GUI/lvgl/src/core\lv_obj_style_gen.h **** static inline int32_t lv_obj_get_style_shadow_offset_y(const lv_obj_t * obj, lv_part_t part)
 401:H:/STM32H7/RGB_LVGL/Middlewares/LVGL/GUI/lvgl/src/core\lv_obj_style_gen.h **** {
 402:H:/STM32H7/RGB_LVGL/Middlewares/LVGL/GUI/lvgl/src/core\lv_obj_style_gen.h ****     lv_style_value_t v = lv_obj_get_style_prop(obj, part, LV_STYLE_SHADOW_OFFSET_Y);
 403:H:/STM32H7/RGB_LVGL/Middlewares/LVGL/GUI/lvgl/src/core\lv_obj_style_gen.h ****     return (int32_t)v.num;
 404:H:/STM32H7/RGB_LVGL/Middlewares/LVGL/GUI/lvgl/src/core\lv_obj_style_gen.h **** }
 405:H:/STM32H7/RGB_LVGL/Middlewares/LVGL/GUI/lvgl/src/core\lv_obj_style_gen.h **** 
 406:H:/STM32H7/RGB_LVGL/Middlewares/LVGL/GUI/lvgl/src/core\lv_obj_style_gen.h **** static inline int32_t lv_obj_get_style_shadow_spread(const lv_obj_t * obj, lv_part_t part)
 407:H:/STM32H7/RGB_LVGL/Middlewares/LVGL/GUI/lvgl/src/core\lv_obj_style_gen.h **** {
 408:H:/STM32H7/RGB_LVGL/Middlewares/LVGL/GUI/lvgl/src/core\lv_obj_style_gen.h ****     lv_style_value_t v = lv_obj_get_style_prop(obj, part, LV_STYLE_SHADOW_SPREAD);
 409:H:/STM32H7/RGB_LVGL/Middlewares/LVGL/GUI/lvgl/src/core\lv_obj_style_gen.h ****     return (int32_t)v.num;
 410:H:/STM32H7/RGB_LVGL/Middlewares/LVGL/GUI/lvgl/src/core\lv_obj_style_gen.h **** }
 411:H:/STM32H7/RGB_LVGL/Middlewares/LVGL/GUI/lvgl/src/core\lv_obj_style_gen.h **** 
 412:H:/STM32H7/RGB_LVGL/Middlewares/LVGL/GUI/lvgl/src/core\lv_obj_style_gen.h **** static inline lv_color_t lv_obj_get_style_shadow_color(const lv_obj_t * obj, lv_part_t part)
 413:H:/STM32H7/RGB_LVGL/Middlewares/LVGL/GUI/lvgl/src/core\lv_obj_style_gen.h **** {
 414:H:/STM32H7/RGB_LVGL/Middlewares/LVGL/GUI/lvgl/src/core\lv_obj_style_gen.h ****     lv_style_value_t v = lv_obj_get_style_prop(obj, part, LV_STYLE_SHADOW_COLOR);
 415:H:/STM32H7/RGB_LVGL/Middlewares/LVGL/GUI/lvgl/src/core\lv_obj_style_gen.h ****     return v.color;
 416:H:/STM32H7/RGB_LVGL/Middlewares/LVGL/GUI/lvgl/src/core\lv_obj_style_gen.h **** }
 417:H:/STM32H7/RGB_LVGL/Middlewares/LVGL/GUI/lvgl/src/core\lv_obj_style_gen.h **** 
 418:H:/STM32H7/RGB_LVGL/Middlewares/LVGL/GUI/lvgl/src/core\lv_obj_style_gen.h **** static inline lv_color_t lv_obj_get_style_shadow_color_filtered(const lv_obj_t * obj, lv_part_t par
 419:H:/STM32H7/RGB_LVGL/Middlewares/LVGL/GUI/lvgl/src/core\lv_obj_style_gen.h **** {
 420:H:/STM32H7/RGB_LVGL/Middlewares/LVGL/GUI/lvgl/src/core\lv_obj_style_gen.h ****     lv_style_value_t v = lv_obj_style_apply_color_filter(obj, part, lv_obj_get_style_prop(obj, part
 421:H:/STM32H7/RGB_LVGL/Middlewares/LVGL/GUI/lvgl/src/core\lv_obj_style_gen.h ****     return v.color;
 422:H:/STM32H7/RGB_LVGL/Middlewares/LVGL/GUI/lvgl/src/core\lv_obj_style_gen.h **** }
 423:H:/STM32H7/RGB_LVGL/Middlewares/LVGL/GUI/lvgl/src/core\lv_obj_style_gen.h **** 
 424:H:/STM32H7/RGB_LVGL/Middlewares/LVGL/GUI/lvgl/src/core\lv_obj_style_gen.h **** static inline lv_opa_t lv_obj_get_style_shadow_opa(const lv_obj_t * obj, lv_part_t part)
 425:H:/STM32H7/RGB_LVGL/Middlewares/LVGL/GUI/lvgl/src/core\lv_obj_style_gen.h **** {
 426:H:/STM32H7/RGB_LVGL/Middlewares/LVGL/GUI/lvgl/src/core\lv_obj_style_gen.h ****     lv_style_value_t v = lv_obj_get_style_prop(obj, part, LV_STYLE_SHADOW_OPA);
 427:H:/STM32H7/RGB_LVGL/Middlewares/LVGL/GUI/lvgl/src/core\lv_obj_style_gen.h ****     return (lv_opa_t)v.num;
 428:H:/STM32H7/RGB_LVGL/Middlewares/LVGL/GUI/lvgl/src/core\lv_obj_style_gen.h **** }
 429:H:/STM32H7/RGB_LVGL/Middlewares/LVGL/GUI/lvgl/src/core\lv_obj_style_gen.h **** 
 430:H:/STM32H7/RGB_LVGL/Middlewares/LVGL/GUI/lvgl/src/core\lv_obj_style_gen.h **** static inline lv_opa_t lv_obj_get_style_image_opa(const lv_obj_t * obj, lv_part_t part)
 431:H:/STM32H7/RGB_LVGL/Middlewares/LVGL/GUI/lvgl/src/core\lv_obj_style_gen.h **** {
 432:H:/STM32H7/RGB_LVGL/Middlewares/LVGL/GUI/lvgl/src/core\lv_obj_style_gen.h ****     lv_style_value_t v = lv_obj_get_style_prop(obj, part, LV_STYLE_IMAGE_OPA);
 433:H:/STM32H7/RGB_LVGL/Middlewares/LVGL/GUI/lvgl/src/core\lv_obj_style_gen.h ****     return (lv_opa_t)v.num;
 434:H:/STM32H7/RGB_LVGL/Middlewares/LVGL/GUI/lvgl/src/core\lv_obj_style_gen.h **** }
 435:H:/STM32H7/RGB_LVGL/Middlewares/LVGL/GUI/lvgl/src/core\lv_obj_style_gen.h **** 
 436:H:/STM32H7/RGB_LVGL/Middlewares/LVGL/GUI/lvgl/src/core\lv_obj_style_gen.h **** static inline lv_color_t lv_obj_get_style_image_recolor(const lv_obj_t * obj, lv_part_t part)
 437:H:/STM32H7/RGB_LVGL/Middlewares/LVGL/GUI/lvgl/src/core\lv_obj_style_gen.h **** {
 438:H:/STM32H7/RGB_LVGL/Middlewares/LVGL/GUI/lvgl/src/core\lv_obj_style_gen.h ****     lv_style_value_t v = lv_obj_get_style_prop(obj, part, LV_STYLE_IMAGE_RECOLOR);
 439:H:/STM32H7/RGB_LVGL/Middlewares/LVGL/GUI/lvgl/src/core\lv_obj_style_gen.h ****     return v.color;
 440:H:/STM32H7/RGB_LVGL/Middlewares/LVGL/GUI/lvgl/src/core\lv_obj_style_gen.h **** }
 441:H:/STM32H7/RGB_LVGL/Middlewares/LVGL/GUI/lvgl/src/core\lv_obj_style_gen.h **** 
 442:H:/STM32H7/RGB_LVGL/Middlewares/LVGL/GUI/lvgl/src/core\lv_obj_style_gen.h **** static inline lv_color_t lv_obj_get_style_image_recolor_filtered(const lv_obj_t * obj, lv_part_t pa
 443:H:/STM32H7/RGB_LVGL/Middlewares/LVGL/GUI/lvgl/src/core\lv_obj_style_gen.h **** {
 444:H:/STM32H7/RGB_LVGL/Middlewares/LVGL/GUI/lvgl/src/core\lv_obj_style_gen.h ****     lv_style_value_t v = lv_obj_style_apply_color_filter(obj, part, lv_obj_get_style_prop(obj, part
 445:H:/STM32H7/RGB_LVGL/Middlewares/LVGL/GUI/lvgl/src/core\lv_obj_style_gen.h ****     return v.color;
 446:H:/STM32H7/RGB_LVGL/Middlewares/LVGL/GUI/lvgl/src/core\lv_obj_style_gen.h **** }
 447:H:/STM32H7/RGB_LVGL/Middlewares/LVGL/GUI/lvgl/src/core\lv_obj_style_gen.h **** 
 448:H:/STM32H7/RGB_LVGL/Middlewares/LVGL/GUI/lvgl/src/core\lv_obj_style_gen.h **** static inline lv_opa_t lv_obj_get_style_image_recolor_opa(const lv_obj_t * obj, lv_part_t part)
 449:H:/STM32H7/RGB_LVGL/Middlewares/LVGL/GUI/lvgl/src/core\lv_obj_style_gen.h **** {
 450:H:/STM32H7/RGB_LVGL/Middlewares/LVGL/GUI/lvgl/src/core\lv_obj_style_gen.h ****     lv_style_value_t v = lv_obj_get_style_prop(obj, part, LV_STYLE_IMAGE_RECOLOR_OPA);
 451:H:/STM32H7/RGB_LVGL/Middlewares/LVGL/GUI/lvgl/src/core\lv_obj_style_gen.h ****     return (lv_opa_t)v.num;
 452:H:/STM32H7/RGB_LVGL/Middlewares/LVGL/GUI/lvgl/src/core\lv_obj_style_gen.h **** }
 453:H:/STM32H7/RGB_LVGL/Middlewares/LVGL/GUI/lvgl/src/core\lv_obj_style_gen.h **** 
 454:H:/STM32H7/RGB_LVGL/Middlewares/LVGL/GUI/lvgl/src/core\lv_obj_style_gen.h **** static inline int32_t lv_obj_get_style_line_width(const lv_obj_t * obj, lv_part_t part)
ARM GAS  C:\Users\28576\AppData\Local\Temp\ccRKCVo4.s 			page 14


 455:H:/STM32H7/RGB_LVGL/Middlewares/LVGL/GUI/lvgl/src/core\lv_obj_style_gen.h **** {
 456:H:/STM32H7/RGB_LVGL/Middlewares/LVGL/GUI/lvgl/src/core\lv_obj_style_gen.h ****     lv_style_value_t v = lv_obj_get_style_prop(obj, part, LV_STYLE_LINE_WIDTH);
 457:H:/STM32H7/RGB_LVGL/Middlewares/LVGL/GUI/lvgl/src/core\lv_obj_style_gen.h ****     return (int32_t)v.num;
 458:H:/STM32H7/RGB_LVGL/Middlewares/LVGL/GUI/lvgl/src/core\lv_obj_style_gen.h **** }
 459:H:/STM32H7/RGB_LVGL/Middlewares/LVGL/GUI/lvgl/src/core\lv_obj_style_gen.h **** 
 460:H:/STM32H7/RGB_LVGL/Middlewares/LVGL/GUI/lvgl/src/core\lv_obj_style_gen.h **** static inline int32_t lv_obj_get_style_line_dash_width(const lv_obj_t * obj, lv_part_t part)
 461:H:/STM32H7/RGB_LVGL/Middlewares/LVGL/GUI/lvgl/src/core\lv_obj_style_gen.h **** {
 462:H:/STM32H7/RGB_LVGL/Middlewares/LVGL/GUI/lvgl/src/core\lv_obj_style_gen.h ****     lv_style_value_t v = lv_obj_get_style_prop(obj, part, LV_STYLE_LINE_DASH_WIDTH);
 463:H:/STM32H7/RGB_LVGL/Middlewares/LVGL/GUI/lvgl/src/core\lv_obj_style_gen.h ****     return (int32_t)v.num;
 464:H:/STM32H7/RGB_LVGL/Middlewares/LVGL/GUI/lvgl/src/core\lv_obj_style_gen.h **** }
 465:H:/STM32H7/RGB_LVGL/Middlewares/LVGL/GUI/lvgl/src/core\lv_obj_style_gen.h **** 
 466:H:/STM32H7/RGB_LVGL/Middlewares/LVGL/GUI/lvgl/src/core\lv_obj_style_gen.h **** static inline int32_t lv_obj_get_style_line_dash_gap(const lv_obj_t * obj, lv_part_t part)
 467:H:/STM32H7/RGB_LVGL/Middlewares/LVGL/GUI/lvgl/src/core\lv_obj_style_gen.h **** {
 468:H:/STM32H7/RGB_LVGL/Middlewares/LVGL/GUI/lvgl/src/core\lv_obj_style_gen.h ****     lv_style_value_t v = lv_obj_get_style_prop(obj, part, LV_STYLE_LINE_DASH_GAP);
 469:H:/STM32H7/RGB_LVGL/Middlewares/LVGL/GUI/lvgl/src/core\lv_obj_style_gen.h ****     return (int32_t)v.num;
 470:H:/STM32H7/RGB_LVGL/Middlewares/LVGL/GUI/lvgl/src/core\lv_obj_style_gen.h **** }
 471:H:/STM32H7/RGB_LVGL/Middlewares/LVGL/GUI/lvgl/src/core\lv_obj_style_gen.h **** 
 472:H:/STM32H7/RGB_LVGL/Middlewares/LVGL/GUI/lvgl/src/core\lv_obj_style_gen.h **** static inline bool lv_obj_get_style_line_rounded(const lv_obj_t * obj, lv_part_t part)
 473:H:/STM32H7/RGB_LVGL/Middlewares/LVGL/GUI/lvgl/src/core\lv_obj_style_gen.h **** {
 474:H:/STM32H7/RGB_LVGL/Middlewares/LVGL/GUI/lvgl/src/core\lv_obj_style_gen.h ****     lv_style_value_t v = lv_obj_get_style_prop(obj, part, LV_STYLE_LINE_ROUNDED);
 475:H:/STM32H7/RGB_LVGL/Middlewares/LVGL/GUI/lvgl/src/core\lv_obj_style_gen.h ****     return (bool)v.num;
 476:H:/STM32H7/RGB_LVGL/Middlewares/LVGL/GUI/lvgl/src/core\lv_obj_style_gen.h **** }
 477:H:/STM32H7/RGB_LVGL/Middlewares/LVGL/GUI/lvgl/src/core\lv_obj_style_gen.h **** 
 478:H:/STM32H7/RGB_LVGL/Middlewares/LVGL/GUI/lvgl/src/core\lv_obj_style_gen.h **** static inline lv_color_t lv_obj_get_style_line_color(const lv_obj_t * obj, lv_part_t part)
 479:H:/STM32H7/RGB_LVGL/Middlewares/LVGL/GUI/lvgl/src/core\lv_obj_style_gen.h **** {
 480:H:/STM32H7/RGB_LVGL/Middlewares/LVGL/GUI/lvgl/src/core\lv_obj_style_gen.h ****     lv_style_value_t v = lv_obj_get_style_prop(obj, part, LV_STYLE_LINE_COLOR);
 481:H:/STM32H7/RGB_LVGL/Middlewares/LVGL/GUI/lvgl/src/core\lv_obj_style_gen.h ****     return v.color;
 482:H:/STM32H7/RGB_LVGL/Middlewares/LVGL/GUI/lvgl/src/core\lv_obj_style_gen.h **** }
 483:H:/STM32H7/RGB_LVGL/Middlewares/LVGL/GUI/lvgl/src/core\lv_obj_style_gen.h **** 
 484:H:/STM32H7/RGB_LVGL/Middlewares/LVGL/GUI/lvgl/src/core\lv_obj_style_gen.h **** static inline lv_color_t lv_obj_get_style_line_color_filtered(const lv_obj_t * obj, lv_part_t part)
 485:H:/STM32H7/RGB_LVGL/Middlewares/LVGL/GUI/lvgl/src/core\lv_obj_style_gen.h **** {
 486:H:/STM32H7/RGB_LVGL/Middlewares/LVGL/GUI/lvgl/src/core\lv_obj_style_gen.h ****     lv_style_value_t v = lv_obj_style_apply_color_filter(obj, part, lv_obj_get_style_prop(obj, part
 487:H:/STM32H7/RGB_LVGL/Middlewares/LVGL/GUI/lvgl/src/core\lv_obj_style_gen.h ****     return v.color;
 488:H:/STM32H7/RGB_LVGL/Middlewares/LVGL/GUI/lvgl/src/core\lv_obj_style_gen.h **** }
 489:H:/STM32H7/RGB_LVGL/Middlewares/LVGL/GUI/lvgl/src/core\lv_obj_style_gen.h **** 
 490:H:/STM32H7/RGB_LVGL/Middlewares/LVGL/GUI/lvgl/src/core\lv_obj_style_gen.h **** static inline lv_opa_t lv_obj_get_style_line_opa(const lv_obj_t * obj, lv_part_t part)
 491:H:/STM32H7/RGB_LVGL/Middlewares/LVGL/GUI/lvgl/src/core\lv_obj_style_gen.h **** {
 492:H:/STM32H7/RGB_LVGL/Middlewares/LVGL/GUI/lvgl/src/core\lv_obj_style_gen.h ****     lv_style_value_t v = lv_obj_get_style_prop(obj, part, LV_STYLE_LINE_OPA);
 493:H:/STM32H7/RGB_LVGL/Middlewares/LVGL/GUI/lvgl/src/core\lv_obj_style_gen.h ****     return (lv_opa_t)v.num;
 494:H:/STM32H7/RGB_LVGL/Middlewares/LVGL/GUI/lvgl/src/core\lv_obj_style_gen.h **** }
 495:H:/STM32H7/RGB_LVGL/Middlewares/LVGL/GUI/lvgl/src/core\lv_obj_style_gen.h **** 
 496:H:/STM32H7/RGB_LVGL/Middlewares/LVGL/GUI/lvgl/src/core\lv_obj_style_gen.h **** static inline int32_t lv_obj_get_style_arc_width(const lv_obj_t * obj, lv_part_t part)
 497:H:/STM32H7/RGB_LVGL/Middlewares/LVGL/GUI/lvgl/src/core\lv_obj_style_gen.h **** {
 498:H:/STM32H7/RGB_LVGL/Middlewares/LVGL/GUI/lvgl/src/core\lv_obj_style_gen.h ****     lv_style_value_t v = lv_obj_get_style_prop(obj, part, LV_STYLE_ARC_WIDTH);
 499:H:/STM32H7/RGB_LVGL/Middlewares/LVGL/GUI/lvgl/src/core\lv_obj_style_gen.h ****     return (int32_t)v.num;
 500:H:/STM32H7/RGB_LVGL/Middlewares/LVGL/GUI/lvgl/src/core\lv_obj_style_gen.h **** }
 501:H:/STM32H7/RGB_LVGL/Middlewares/LVGL/GUI/lvgl/src/core\lv_obj_style_gen.h **** 
 502:H:/STM32H7/RGB_LVGL/Middlewares/LVGL/GUI/lvgl/src/core\lv_obj_style_gen.h **** static inline bool lv_obj_get_style_arc_rounded(const lv_obj_t * obj, lv_part_t part)
 503:H:/STM32H7/RGB_LVGL/Middlewares/LVGL/GUI/lvgl/src/core\lv_obj_style_gen.h **** {
 504:H:/STM32H7/RGB_LVGL/Middlewares/LVGL/GUI/lvgl/src/core\lv_obj_style_gen.h ****     lv_style_value_t v = lv_obj_get_style_prop(obj, part, LV_STYLE_ARC_ROUNDED);
 505:H:/STM32H7/RGB_LVGL/Middlewares/LVGL/GUI/lvgl/src/core\lv_obj_style_gen.h ****     return (bool)v.num;
 506:H:/STM32H7/RGB_LVGL/Middlewares/LVGL/GUI/lvgl/src/core\lv_obj_style_gen.h **** }
 507:H:/STM32H7/RGB_LVGL/Middlewares/LVGL/GUI/lvgl/src/core\lv_obj_style_gen.h **** 
 508:H:/STM32H7/RGB_LVGL/Middlewares/LVGL/GUI/lvgl/src/core\lv_obj_style_gen.h **** static inline lv_color_t lv_obj_get_style_arc_color(const lv_obj_t * obj, lv_part_t part)
 509:H:/STM32H7/RGB_LVGL/Middlewares/LVGL/GUI/lvgl/src/core\lv_obj_style_gen.h **** {
 510:H:/STM32H7/RGB_LVGL/Middlewares/LVGL/GUI/lvgl/src/core\lv_obj_style_gen.h ****     lv_style_value_t v = lv_obj_get_style_prop(obj, part, LV_STYLE_ARC_COLOR);
 511:H:/STM32H7/RGB_LVGL/Middlewares/LVGL/GUI/lvgl/src/core\lv_obj_style_gen.h ****     return v.color;
ARM GAS  C:\Users\28576\AppData\Local\Temp\ccRKCVo4.s 			page 15


 512:H:/STM32H7/RGB_LVGL/Middlewares/LVGL/GUI/lvgl/src/core\lv_obj_style_gen.h **** }
 513:H:/STM32H7/RGB_LVGL/Middlewares/LVGL/GUI/lvgl/src/core\lv_obj_style_gen.h **** 
 514:H:/STM32H7/RGB_LVGL/Middlewares/LVGL/GUI/lvgl/src/core\lv_obj_style_gen.h **** static inline lv_color_t lv_obj_get_style_arc_color_filtered(const lv_obj_t * obj, lv_part_t part)
 515:H:/STM32H7/RGB_LVGL/Middlewares/LVGL/GUI/lvgl/src/core\lv_obj_style_gen.h **** {
 516:H:/STM32H7/RGB_LVGL/Middlewares/LVGL/GUI/lvgl/src/core\lv_obj_style_gen.h ****     lv_style_value_t v = lv_obj_style_apply_color_filter(obj, part, lv_obj_get_style_prop(obj, part
 517:H:/STM32H7/RGB_LVGL/Middlewares/LVGL/GUI/lvgl/src/core\lv_obj_style_gen.h ****     return v.color;
 518:H:/STM32H7/RGB_LVGL/Middlewares/LVGL/GUI/lvgl/src/core\lv_obj_style_gen.h **** }
 519:H:/STM32H7/RGB_LVGL/Middlewares/LVGL/GUI/lvgl/src/core\lv_obj_style_gen.h **** 
 520:H:/STM32H7/RGB_LVGL/Middlewares/LVGL/GUI/lvgl/src/core\lv_obj_style_gen.h **** static inline lv_opa_t lv_obj_get_style_arc_opa(const lv_obj_t * obj, lv_part_t part)
 521:H:/STM32H7/RGB_LVGL/Middlewares/LVGL/GUI/lvgl/src/core\lv_obj_style_gen.h **** {
 522:H:/STM32H7/RGB_LVGL/Middlewares/LVGL/GUI/lvgl/src/core\lv_obj_style_gen.h ****     lv_style_value_t v = lv_obj_get_style_prop(obj, part, LV_STYLE_ARC_OPA);
 523:H:/STM32H7/RGB_LVGL/Middlewares/LVGL/GUI/lvgl/src/core\lv_obj_style_gen.h ****     return (lv_opa_t)v.num;
 524:H:/STM32H7/RGB_LVGL/Middlewares/LVGL/GUI/lvgl/src/core\lv_obj_style_gen.h **** }
 525:H:/STM32H7/RGB_LVGL/Middlewares/LVGL/GUI/lvgl/src/core\lv_obj_style_gen.h **** 
 526:H:/STM32H7/RGB_LVGL/Middlewares/LVGL/GUI/lvgl/src/core\lv_obj_style_gen.h **** static inline const void * lv_obj_get_style_arc_image_src(const lv_obj_t * obj, lv_part_t part)
 527:H:/STM32H7/RGB_LVGL/Middlewares/LVGL/GUI/lvgl/src/core\lv_obj_style_gen.h **** {
 528:H:/STM32H7/RGB_LVGL/Middlewares/LVGL/GUI/lvgl/src/core\lv_obj_style_gen.h ****     lv_style_value_t v = lv_obj_get_style_prop(obj, part, LV_STYLE_ARC_IMAGE_SRC);
 529:H:/STM32H7/RGB_LVGL/Middlewares/LVGL/GUI/lvgl/src/core\lv_obj_style_gen.h ****     return (const void *)v.ptr;
 530:H:/STM32H7/RGB_LVGL/Middlewares/LVGL/GUI/lvgl/src/core\lv_obj_style_gen.h **** }
 531:H:/STM32H7/RGB_LVGL/Middlewares/LVGL/GUI/lvgl/src/core\lv_obj_style_gen.h **** 
 532:H:/STM32H7/RGB_LVGL/Middlewares/LVGL/GUI/lvgl/src/core\lv_obj_style_gen.h **** static inline lv_color_t lv_obj_get_style_text_color(const lv_obj_t * obj, lv_part_t part)
 533:H:/STM32H7/RGB_LVGL/Middlewares/LVGL/GUI/lvgl/src/core\lv_obj_style_gen.h **** {
 534:H:/STM32H7/RGB_LVGL/Middlewares/LVGL/GUI/lvgl/src/core\lv_obj_style_gen.h ****     lv_style_value_t v = lv_obj_get_style_prop(obj, part, LV_STYLE_TEXT_COLOR);
 535:H:/STM32H7/RGB_LVGL/Middlewares/LVGL/GUI/lvgl/src/core\lv_obj_style_gen.h ****     return v.color;
 536:H:/STM32H7/RGB_LVGL/Middlewares/LVGL/GUI/lvgl/src/core\lv_obj_style_gen.h **** }
 537:H:/STM32H7/RGB_LVGL/Middlewares/LVGL/GUI/lvgl/src/core\lv_obj_style_gen.h **** 
 538:H:/STM32H7/RGB_LVGL/Middlewares/LVGL/GUI/lvgl/src/core\lv_obj_style_gen.h **** static inline lv_color_t lv_obj_get_style_text_color_filtered(const lv_obj_t * obj, lv_part_t part)
 539:H:/STM32H7/RGB_LVGL/Middlewares/LVGL/GUI/lvgl/src/core\lv_obj_style_gen.h **** {
 540:H:/STM32H7/RGB_LVGL/Middlewares/LVGL/GUI/lvgl/src/core\lv_obj_style_gen.h ****     lv_style_value_t v = lv_obj_style_apply_color_filter(obj, part, lv_obj_get_style_prop(obj, part
 541:H:/STM32H7/RGB_LVGL/Middlewares/LVGL/GUI/lvgl/src/core\lv_obj_style_gen.h ****     return v.color;
 542:H:/STM32H7/RGB_LVGL/Middlewares/LVGL/GUI/lvgl/src/core\lv_obj_style_gen.h **** }
 543:H:/STM32H7/RGB_LVGL/Middlewares/LVGL/GUI/lvgl/src/core\lv_obj_style_gen.h **** 
 544:H:/STM32H7/RGB_LVGL/Middlewares/LVGL/GUI/lvgl/src/core\lv_obj_style_gen.h **** static inline lv_opa_t lv_obj_get_style_text_opa(const lv_obj_t * obj, lv_part_t part)
 545:H:/STM32H7/RGB_LVGL/Middlewares/LVGL/GUI/lvgl/src/core\lv_obj_style_gen.h **** {
 546:H:/STM32H7/RGB_LVGL/Middlewares/LVGL/GUI/lvgl/src/core\lv_obj_style_gen.h ****     lv_style_value_t v = lv_obj_get_style_prop(obj, part, LV_STYLE_TEXT_OPA);
 547:H:/STM32H7/RGB_LVGL/Middlewares/LVGL/GUI/lvgl/src/core\lv_obj_style_gen.h ****     return (lv_opa_t)v.num;
 548:H:/STM32H7/RGB_LVGL/Middlewares/LVGL/GUI/lvgl/src/core\lv_obj_style_gen.h **** }
 549:H:/STM32H7/RGB_LVGL/Middlewares/LVGL/GUI/lvgl/src/core\lv_obj_style_gen.h **** 
 550:H:/STM32H7/RGB_LVGL/Middlewares/LVGL/GUI/lvgl/src/core\lv_obj_style_gen.h **** static inline const lv_font_t * lv_obj_get_style_text_font(const lv_obj_t * obj, lv_part_t part)
  70              		.loc 2 550 33 view .LVU10
  71              	.LBB53:
 551:H:/STM32H7/RGB_LVGL/Middlewares/LVGL/GUI/lvgl/src/core\lv_obj_style_gen.h **** {
 552:H:/STM32H7/RGB_LVGL/Middlewares/LVGL/GUI/lvgl/src/core\lv_obj_style_gen.h ****     lv_style_value_t v = lv_obj_get_style_prop(obj, part, LV_STYLE_TEXT_FONT);
  72              		.loc 2 552 5 view .LVU11
  73              		.loc 2 552 26 is_stmt 0 view .LVU12
  74 0016 5A22     		movs	r2, #90
  75 0018 0021     		movs	r1, #0
  76 001a 2046     		mov	r0, r4
  77              	.LVL6:
  78              		.loc 2 552 26 view .LVU13
  79 001c FFF7FEFF 		bl	lv_obj_get_style_prop
  80              	.LVL7:
  81 0020 0690     		str	r0, [sp, #24]
  82 0022 0C90     		str	r0, [sp, #48]
 553:H:/STM32H7/RGB_LVGL/Middlewares/LVGL/GUI/lvgl/src/core\lv_obj_style_gen.h ****     return (const lv_font_t *)v.ptr;
  83              		.loc 2 553 5 is_stmt 1 view .LVU14
  84              	.LVL8:
ARM GAS  C:\Users\28576\AppData\Local\Temp\ccRKCVo4.s 			page 16


  85              		.loc 2 553 5 is_stmt 0 view .LVU15
  86              	.LBE53:
  87              	.LBE52:
 220:../../Middlewares/LVGL/GUI/lvgl/src/widgets/checkbox/lv_checkbox.c ****     int32_t font_h = lv_font_get_line_height(font);
  88              		.loc 1 220 5 is_stmt 1 view .LVU16
  89              		.loc 1 220 22 is_stmt 0 view .LVU17
  90 0024 FFF7FEFF 		bl	lv_font_get_line_height
  91              	.LVL9:
  92              		.loc 1 220 22 view .LVU18
  93 0028 8146     		mov	r9, r0
  94              	.LVL10:
 221:../../Middlewares/LVGL/GUI/lvgl/src/widgets/checkbox/lv_checkbox.c **** 
 222:../../Middlewares/LVGL/GUI/lvgl/src/widgets/checkbox/lv_checkbox.c ****     const bool is_rtl = LV_BASE_DIR_RTL == lv_obj_get_style_base_dir(obj, LV_PART_MAIN);
  95              		.loc 1 222 5 is_stmt 1 view .LVU19
  96              	.LBB54:
  97              	.LBI54:
 554:H:/STM32H7/RGB_LVGL/Middlewares/LVGL/GUI/lvgl/src/core\lv_obj_style_gen.h **** }
 555:H:/STM32H7/RGB_LVGL/Middlewares/LVGL/GUI/lvgl/src/core\lv_obj_style_gen.h **** 
 556:H:/STM32H7/RGB_LVGL/Middlewares/LVGL/GUI/lvgl/src/core\lv_obj_style_gen.h **** static inline int32_t lv_obj_get_style_text_letter_space(const lv_obj_t * obj, lv_part_t part)
 557:H:/STM32H7/RGB_LVGL/Middlewares/LVGL/GUI/lvgl/src/core\lv_obj_style_gen.h **** {
 558:H:/STM32H7/RGB_LVGL/Middlewares/LVGL/GUI/lvgl/src/core\lv_obj_style_gen.h ****     lv_style_value_t v = lv_obj_get_style_prop(obj, part, LV_STYLE_TEXT_LETTER_SPACE);
 559:H:/STM32H7/RGB_LVGL/Middlewares/LVGL/GUI/lvgl/src/core\lv_obj_style_gen.h ****     return (int32_t)v.num;
 560:H:/STM32H7/RGB_LVGL/Middlewares/LVGL/GUI/lvgl/src/core\lv_obj_style_gen.h **** }
 561:H:/STM32H7/RGB_LVGL/Middlewares/LVGL/GUI/lvgl/src/core\lv_obj_style_gen.h **** 
 562:H:/STM32H7/RGB_LVGL/Middlewares/LVGL/GUI/lvgl/src/core\lv_obj_style_gen.h **** static inline int32_t lv_obj_get_style_text_line_space(const lv_obj_t * obj, lv_part_t part)
 563:H:/STM32H7/RGB_LVGL/Middlewares/LVGL/GUI/lvgl/src/core\lv_obj_style_gen.h **** {
 564:H:/STM32H7/RGB_LVGL/Middlewares/LVGL/GUI/lvgl/src/core\lv_obj_style_gen.h ****     lv_style_value_t v = lv_obj_get_style_prop(obj, part, LV_STYLE_TEXT_LINE_SPACE);
 565:H:/STM32H7/RGB_LVGL/Middlewares/LVGL/GUI/lvgl/src/core\lv_obj_style_gen.h ****     return (int32_t)v.num;
 566:H:/STM32H7/RGB_LVGL/Middlewares/LVGL/GUI/lvgl/src/core\lv_obj_style_gen.h **** }
 567:H:/STM32H7/RGB_LVGL/Middlewares/LVGL/GUI/lvgl/src/core\lv_obj_style_gen.h **** 
 568:H:/STM32H7/RGB_LVGL/Middlewares/LVGL/GUI/lvgl/src/core\lv_obj_style_gen.h **** static inline lv_text_decor_t lv_obj_get_style_text_decor(const lv_obj_t * obj, lv_part_t part)
 569:H:/STM32H7/RGB_LVGL/Middlewares/LVGL/GUI/lvgl/src/core\lv_obj_style_gen.h **** {
 570:H:/STM32H7/RGB_LVGL/Middlewares/LVGL/GUI/lvgl/src/core\lv_obj_style_gen.h ****     lv_style_value_t v = lv_obj_get_style_prop(obj, part, LV_STYLE_TEXT_DECOR);
 571:H:/STM32H7/RGB_LVGL/Middlewares/LVGL/GUI/lvgl/src/core\lv_obj_style_gen.h ****     return (lv_text_decor_t)v.num;
 572:H:/STM32H7/RGB_LVGL/Middlewares/LVGL/GUI/lvgl/src/core\lv_obj_style_gen.h **** }
 573:H:/STM32H7/RGB_LVGL/Middlewares/LVGL/GUI/lvgl/src/core\lv_obj_style_gen.h **** 
 574:H:/STM32H7/RGB_LVGL/Middlewares/LVGL/GUI/lvgl/src/core\lv_obj_style_gen.h **** static inline lv_text_align_t lv_obj_get_style_text_align(const lv_obj_t * obj, lv_part_t part)
 575:H:/STM32H7/RGB_LVGL/Middlewares/LVGL/GUI/lvgl/src/core\lv_obj_style_gen.h **** {
 576:H:/STM32H7/RGB_LVGL/Middlewares/LVGL/GUI/lvgl/src/core\lv_obj_style_gen.h ****     lv_style_value_t v = lv_obj_get_style_prop(obj, part, LV_STYLE_TEXT_ALIGN);
 577:H:/STM32H7/RGB_LVGL/Middlewares/LVGL/GUI/lvgl/src/core\lv_obj_style_gen.h ****     return (lv_text_align_t)v.num;
 578:H:/STM32H7/RGB_LVGL/Middlewares/LVGL/GUI/lvgl/src/core\lv_obj_style_gen.h **** }
 579:H:/STM32H7/RGB_LVGL/Middlewares/LVGL/GUI/lvgl/src/core\lv_obj_style_gen.h **** 
 580:H:/STM32H7/RGB_LVGL/Middlewares/LVGL/GUI/lvgl/src/core\lv_obj_style_gen.h **** static inline lv_color_t lv_obj_get_style_text_outline_stroke_color(const lv_obj_t * obj, lv_part_t
 581:H:/STM32H7/RGB_LVGL/Middlewares/LVGL/GUI/lvgl/src/core\lv_obj_style_gen.h **** {
 582:H:/STM32H7/RGB_LVGL/Middlewares/LVGL/GUI/lvgl/src/core\lv_obj_style_gen.h ****     lv_style_value_t v = lv_obj_get_style_prop(obj, part, LV_STYLE_TEXT_OUTLINE_STROKE_COLOR);
 583:H:/STM32H7/RGB_LVGL/Middlewares/LVGL/GUI/lvgl/src/core\lv_obj_style_gen.h ****     return v.color;
 584:H:/STM32H7/RGB_LVGL/Middlewares/LVGL/GUI/lvgl/src/core\lv_obj_style_gen.h **** }
 585:H:/STM32H7/RGB_LVGL/Middlewares/LVGL/GUI/lvgl/src/core\lv_obj_style_gen.h **** 
 586:H:/STM32H7/RGB_LVGL/Middlewares/LVGL/GUI/lvgl/src/core\lv_obj_style_gen.h **** static inline lv_color_t lv_obj_get_style_text_outline_stroke_color_filtered(const lv_obj_t * obj, 
 587:H:/STM32H7/RGB_LVGL/Middlewares/LVGL/GUI/lvgl/src/core\lv_obj_style_gen.h **** {
 588:H:/STM32H7/RGB_LVGL/Middlewares/LVGL/GUI/lvgl/src/core\lv_obj_style_gen.h ****     lv_style_value_t v = lv_obj_style_apply_color_filter(obj, part, lv_obj_get_style_prop(obj, part
 589:H:/STM32H7/RGB_LVGL/Middlewares/LVGL/GUI/lvgl/src/core\lv_obj_style_gen.h ****     return v.color;
 590:H:/STM32H7/RGB_LVGL/Middlewares/LVGL/GUI/lvgl/src/core\lv_obj_style_gen.h **** }
 591:H:/STM32H7/RGB_LVGL/Middlewares/LVGL/GUI/lvgl/src/core\lv_obj_style_gen.h **** 
 592:H:/STM32H7/RGB_LVGL/Middlewares/LVGL/GUI/lvgl/src/core\lv_obj_style_gen.h **** static inline int32_t lv_obj_get_style_text_outline_stroke_width(const lv_obj_t * obj, lv_part_t pa
 593:H:/STM32H7/RGB_LVGL/Middlewares/LVGL/GUI/lvgl/src/core\lv_obj_style_gen.h **** {
 594:H:/STM32H7/RGB_LVGL/Middlewares/LVGL/GUI/lvgl/src/core\lv_obj_style_gen.h ****     lv_style_value_t v = lv_obj_get_style_prop(obj, part, LV_STYLE_TEXT_OUTLINE_STROKE_WIDTH);
ARM GAS  C:\Users\28576\AppData\Local\Temp\ccRKCVo4.s 			page 17


 595:H:/STM32H7/RGB_LVGL/Middlewares/LVGL/GUI/lvgl/src/core\lv_obj_style_gen.h ****     return (int32_t)v.num;
 596:H:/STM32H7/RGB_LVGL/Middlewares/LVGL/GUI/lvgl/src/core\lv_obj_style_gen.h **** }
 597:H:/STM32H7/RGB_LVGL/Middlewares/LVGL/GUI/lvgl/src/core\lv_obj_style_gen.h **** 
 598:H:/STM32H7/RGB_LVGL/Middlewares/LVGL/GUI/lvgl/src/core\lv_obj_style_gen.h **** static inline lv_opa_t lv_obj_get_style_text_outline_stroke_opa(const lv_obj_t * obj, lv_part_t par
 599:H:/STM32H7/RGB_LVGL/Middlewares/LVGL/GUI/lvgl/src/core\lv_obj_style_gen.h **** {
 600:H:/STM32H7/RGB_LVGL/Middlewares/LVGL/GUI/lvgl/src/core\lv_obj_style_gen.h ****     lv_style_value_t v = lv_obj_get_style_prop(obj, part, LV_STYLE_TEXT_OUTLINE_STROKE_OPA);
 601:H:/STM32H7/RGB_LVGL/Middlewares/LVGL/GUI/lvgl/src/core\lv_obj_style_gen.h ****     return (lv_opa_t)v.num;
 602:H:/STM32H7/RGB_LVGL/Middlewares/LVGL/GUI/lvgl/src/core\lv_obj_style_gen.h **** }
 603:H:/STM32H7/RGB_LVGL/Middlewares/LVGL/GUI/lvgl/src/core\lv_obj_style_gen.h **** 
 604:H:/STM32H7/RGB_LVGL/Middlewares/LVGL/GUI/lvgl/src/core\lv_obj_style_gen.h **** static inline int32_t lv_obj_get_style_radius(const lv_obj_t * obj, lv_part_t part)
 605:H:/STM32H7/RGB_LVGL/Middlewares/LVGL/GUI/lvgl/src/core\lv_obj_style_gen.h **** {
 606:H:/STM32H7/RGB_LVGL/Middlewares/LVGL/GUI/lvgl/src/core\lv_obj_style_gen.h ****     lv_style_value_t v = lv_obj_get_style_prop(obj, part, LV_STYLE_RADIUS);
 607:H:/STM32H7/RGB_LVGL/Middlewares/LVGL/GUI/lvgl/src/core\lv_obj_style_gen.h ****     return (int32_t)v.num;
 608:H:/STM32H7/RGB_LVGL/Middlewares/LVGL/GUI/lvgl/src/core\lv_obj_style_gen.h **** }
 609:H:/STM32H7/RGB_LVGL/Middlewares/LVGL/GUI/lvgl/src/core\lv_obj_style_gen.h **** 
 610:H:/STM32H7/RGB_LVGL/Middlewares/LVGL/GUI/lvgl/src/core\lv_obj_style_gen.h **** static inline int32_t lv_obj_get_style_radial_offset(const lv_obj_t * obj, lv_part_t part)
 611:H:/STM32H7/RGB_LVGL/Middlewares/LVGL/GUI/lvgl/src/core\lv_obj_style_gen.h **** {
 612:H:/STM32H7/RGB_LVGL/Middlewares/LVGL/GUI/lvgl/src/core\lv_obj_style_gen.h ****     lv_style_value_t v = lv_obj_get_style_prop(obj, part, LV_STYLE_RADIAL_OFFSET);
 613:H:/STM32H7/RGB_LVGL/Middlewares/LVGL/GUI/lvgl/src/core\lv_obj_style_gen.h ****     return (int32_t)v.num;
 614:H:/STM32H7/RGB_LVGL/Middlewares/LVGL/GUI/lvgl/src/core\lv_obj_style_gen.h **** }
 615:H:/STM32H7/RGB_LVGL/Middlewares/LVGL/GUI/lvgl/src/core\lv_obj_style_gen.h **** 
 616:H:/STM32H7/RGB_LVGL/Middlewares/LVGL/GUI/lvgl/src/core\lv_obj_style_gen.h **** static inline bool lv_obj_get_style_clip_corner(const lv_obj_t * obj, lv_part_t part)
 617:H:/STM32H7/RGB_LVGL/Middlewares/LVGL/GUI/lvgl/src/core\lv_obj_style_gen.h **** {
 618:H:/STM32H7/RGB_LVGL/Middlewares/LVGL/GUI/lvgl/src/core\lv_obj_style_gen.h ****     lv_style_value_t v = lv_obj_get_style_prop(obj, part, LV_STYLE_CLIP_CORNER);
 619:H:/STM32H7/RGB_LVGL/Middlewares/LVGL/GUI/lvgl/src/core\lv_obj_style_gen.h ****     return (bool)v.num;
 620:H:/STM32H7/RGB_LVGL/Middlewares/LVGL/GUI/lvgl/src/core\lv_obj_style_gen.h **** }
 621:H:/STM32H7/RGB_LVGL/Middlewares/LVGL/GUI/lvgl/src/core\lv_obj_style_gen.h **** 
 622:H:/STM32H7/RGB_LVGL/Middlewares/LVGL/GUI/lvgl/src/core\lv_obj_style_gen.h **** static inline lv_opa_t lv_obj_get_style_opa(const lv_obj_t * obj, lv_part_t part)
 623:H:/STM32H7/RGB_LVGL/Middlewares/LVGL/GUI/lvgl/src/core\lv_obj_style_gen.h **** {
 624:H:/STM32H7/RGB_LVGL/Middlewares/LVGL/GUI/lvgl/src/core\lv_obj_style_gen.h ****     lv_style_value_t v = lv_obj_get_style_prop(obj, part, LV_STYLE_OPA);
 625:H:/STM32H7/RGB_LVGL/Middlewares/LVGL/GUI/lvgl/src/core\lv_obj_style_gen.h ****     return (lv_opa_t)v.num;
 626:H:/STM32H7/RGB_LVGL/Middlewares/LVGL/GUI/lvgl/src/core\lv_obj_style_gen.h **** }
 627:H:/STM32H7/RGB_LVGL/Middlewares/LVGL/GUI/lvgl/src/core\lv_obj_style_gen.h **** 
 628:H:/STM32H7/RGB_LVGL/Middlewares/LVGL/GUI/lvgl/src/core\lv_obj_style_gen.h **** static inline lv_opa_t lv_obj_get_style_opa_layered(const lv_obj_t * obj, lv_part_t part)
 629:H:/STM32H7/RGB_LVGL/Middlewares/LVGL/GUI/lvgl/src/core\lv_obj_style_gen.h **** {
 630:H:/STM32H7/RGB_LVGL/Middlewares/LVGL/GUI/lvgl/src/core\lv_obj_style_gen.h ****     lv_style_value_t v = lv_obj_get_style_prop(obj, part, LV_STYLE_OPA_LAYERED);
 631:H:/STM32H7/RGB_LVGL/Middlewares/LVGL/GUI/lvgl/src/core\lv_obj_style_gen.h ****     return (lv_opa_t)v.num;
 632:H:/STM32H7/RGB_LVGL/Middlewares/LVGL/GUI/lvgl/src/core\lv_obj_style_gen.h **** }
 633:H:/STM32H7/RGB_LVGL/Middlewares/LVGL/GUI/lvgl/src/core\lv_obj_style_gen.h **** 
 634:H:/STM32H7/RGB_LVGL/Middlewares/LVGL/GUI/lvgl/src/core\lv_obj_style_gen.h **** static inline const lv_color_filter_dsc_t * lv_obj_get_style_color_filter_dsc(const lv_obj_t * obj,
 635:H:/STM32H7/RGB_LVGL/Middlewares/LVGL/GUI/lvgl/src/core\lv_obj_style_gen.h **** {
 636:H:/STM32H7/RGB_LVGL/Middlewares/LVGL/GUI/lvgl/src/core\lv_obj_style_gen.h ****     lv_style_value_t v = lv_obj_get_style_prop(obj, part, LV_STYLE_COLOR_FILTER_DSC);
 637:H:/STM32H7/RGB_LVGL/Middlewares/LVGL/GUI/lvgl/src/core\lv_obj_style_gen.h ****     return (const lv_color_filter_dsc_t *)v.ptr;
 638:H:/STM32H7/RGB_LVGL/Middlewares/LVGL/GUI/lvgl/src/core\lv_obj_style_gen.h **** }
 639:H:/STM32H7/RGB_LVGL/Middlewares/LVGL/GUI/lvgl/src/core\lv_obj_style_gen.h **** 
 640:H:/STM32H7/RGB_LVGL/Middlewares/LVGL/GUI/lvgl/src/core\lv_obj_style_gen.h **** static inline lv_opa_t lv_obj_get_style_color_filter_opa(const lv_obj_t * obj, lv_part_t part)
 641:H:/STM32H7/RGB_LVGL/Middlewares/LVGL/GUI/lvgl/src/core\lv_obj_style_gen.h **** {
 642:H:/STM32H7/RGB_LVGL/Middlewares/LVGL/GUI/lvgl/src/core\lv_obj_style_gen.h ****     lv_style_value_t v = lv_obj_get_style_prop(obj, part, LV_STYLE_COLOR_FILTER_OPA);
 643:H:/STM32H7/RGB_LVGL/Middlewares/LVGL/GUI/lvgl/src/core\lv_obj_style_gen.h ****     return (lv_opa_t)v.num;
 644:H:/STM32H7/RGB_LVGL/Middlewares/LVGL/GUI/lvgl/src/core\lv_obj_style_gen.h **** }
 645:H:/STM32H7/RGB_LVGL/Middlewares/LVGL/GUI/lvgl/src/core\lv_obj_style_gen.h **** 
 646:H:/STM32H7/RGB_LVGL/Middlewares/LVGL/GUI/lvgl/src/core\lv_obj_style_gen.h **** static inline lv_color_t lv_obj_get_style_recolor(const lv_obj_t * obj, lv_part_t part)
 647:H:/STM32H7/RGB_LVGL/Middlewares/LVGL/GUI/lvgl/src/core\lv_obj_style_gen.h **** {
 648:H:/STM32H7/RGB_LVGL/Middlewares/LVGL/GUI/lvgl/src/core\lv_obj_style_gen.h ****     lv_style_value_t v = lv_obj_get_style_prop(obj, part, LV_STYLE_RECOLOR);
 649:H:/STM32H7/RGB_LVGL/Middlewares/LVGL/GUI/lvgl/src/core\lv_obj_style_gen.h ****     return v.color;
 650:H:/STM32H7/RGB_LVGL/Middlewares/LVGL/GUI/lvgl/src/core\lv_obj_style_gen.h **** }
 651:H:/STM32H7/RGB_LVGL/Middlewares/LVGL/GUI/lvgl/src/core\lv_obj_style_gen.h **** 
ARM GAS  C:\Users\28576\AppData\Local\Temp\ccRKCVo4.s 			page 18


 652:H:/STM32H7/RGB_LVGL/Middlewares/LVGL/GUI/lvgl/src/core\lv_obj_style_gen.h **** static inline lv_opa_t lv_obj_get_style_recolor_opa(const lv_obj_t * obj, lv_part_t part)
 653:H:/STM32H7/RGB_LVGL/Middlewares/LVGL/GUI/lvgl/src/core\lv_obj_style_gen.h **** {
 654:H:/STM32H7/RGB_LVGL/Middlewares/LVGL/GUI/lvgl/src/core\lv_obj_style_gen.h ****     lv_style_value_t v = lv_obj_get_style_prop(obj, part, LV_STYLE_RECOLOR_OPA);
 655:H:/STM32H7/RGB_LVGL/Middlewares/LVGL/GUI/lvgl/src/core\lv_obj_style_gen.h ****     return (lv_opa_t)v.num;
 656:H:/STM32H7/RGB_LVGL/Middlewares/LVGL/GUI/lvgl/src/core\lv_obj_style_gen.h **** }
 657:H:/STM32H7/RGB_LVGL/Middlewares/LVGL/GUI/lvgl/src/core\lv_obj_style_gen.h **** 
 658:H:/STM32H7/RGB_LVGL/Middlewares/LVGL/GUI/lvgl/src/core\lv_obj_style_gen.h **** static inline const lv_anim_t * lv_obj_get_style_anim(const lv_obj_t * obj, lv_part_t part)
 659:H:/STM32H7/RGB_LVGL/Middlewares/LVGL/GUI/lvgl/src/core\lv_obj_style_gen.h **** {
 660:H:/STM32H7/RGB_LVGL/Middlewares/LVGL/GUI/lvgl/src/core\lv_obj_style_gen.h ****     lv_style_value_t v = lv_obj_get_style_prop(obj, part, LV_STYLE_ANIM);
 661:H:/STM32H7/RGB_LVGL/Middlewares/LVGL/GUI/lvgl/src/core\lv_obj_style_gen.h ****     return (const lv_anim_t *)v.ptr;
 662:H:/STM32H7/RGB_LVGL/Middlewares/LVGL/GUI/lvgl/src/core\lv_obj_style_gen.h **** }
 663:H:/STM32H7/RGB_LVGL/Middlewares/LVGL/GUI/lvgl/src/core\lv_obj_style_gen.h **** 
 664:H:/STM32H7/RGB_LVGL/Middlewares/LVGL/GUI/lvgl/src/core\lv_obj_style_gen.h **** static inline uint32_t lv_obj_get_style_anim_duration(const lv_obj_t * obj, lv_part_t part)
 665:H:/STM32H7/RGB_LVGL/Middlewares/LVGL/GUI/lvgl/src/core\lv_obj_style_gen.h **** {
 666:H:/STM32H7/RGB_LVGL/Middlewares/LVGL/GUI/lvgl/src/core\lv_obj_style_gen.h ****     lv_style_value_t v = lv_obj_get_style_prop(obj, part, LV_STYLE_ANIM_DURATION);
 667:H:/STM32H7/RGB_LVGL/Middlewares/LVGL/GUI/lvgl/src/core\lv_obj_style_gen.h ****     return (uint32_t)v.num;
 668:H:/STM32H7/RGB_LVGL/Middlewares/LVGL/GUI/lvgl/src/core\lv_obj_style_gen.h **** }
 669:H:/STM32H7/RGB_LVGL/Middlewares/LVGL/GUI/lvgl/src/core\lv_obj_style_gen.h **** 
 670:H:/STM32H7/RGB_LVGL/Middlewares/LVGL/GUI/lvgl/src/core\lv_obj_style_gen.h **** static inline const lv_style_transition_dsc_t * lv_obj_get_style_transition(const lv_obj_t * obj, l
 671:H:/STM32H7/RGB_LVGL/Middlewares/LVGL/GUI/lvgl/src/core\lv_obj_style_gen.h **** {
 672:H:/STM32H7/RGB_LVGL/Middlewares/LVGL/GUI/lvgl/src/core\lv_obj_style_gen.h ****     lv_style_value_t v = lv_obj_get_style_prop(obj, part, LV_STYLE_TRANSITION);
 673:H:/STM32H7/RGB_LVGL/Middlewares/LVGL/GUI/lvgl/src/core\lv_obj_style_gen.h ****     return (const lv_style_transition_dsc_t *)v.ptr;
 674:H:/STM32H7/RGB_LVGL/Middlewares/LVGL/GUI/lvgl/src/core\lv_obj_style_gen.h **** }
 675:H:/STM32H7/RGB_LVGL/Middlewares/LVGL/GUI/lvgl/src/core\lv_obj_style_gen.h **** 
 676:H:/STM32H7/RGB_LVGL/Middlewares/LVGL/GUI/lvgl/src/core\lv_obj_style_gen.h **** static inline lv_blend_mode_t lv_obj_get_style_blend_mode(const lv_obj_t * obj, lv_part_t part)
 677:H:/STM32H7/RGB_LVGL/Middlewares/LVGL/GUI/lvgl/src/core\lv_obj_style_gen.h **** {
 678:H:/STM32H7/RGB_LVGL/Middlewares/LVGL/GUI/lvgl/src/core\lv_obj_style_gen.h ****     lv_style_value_t v = lv_obj_get_style_prop(obj, part, LV_STYLE_BLEND_MODE);
 679:H:/STM32H7/RGB_LVGL/Middlewares/LVGL/GUI/lvgl/src/core\lv_obj_style_gen.h ****     return (lv_blend_mode_t)v.num;
 680:H:/STM32H7/RGB_LVGL/Middlewares/LVGL/GUI/lvgl/src/core\lv_obj_style_gen.h **** }
 681:H:/STM32H7/RGB_LVGL/Middlewares/LVGL/GUI/lvgl/src/core\lv_obj_style_gen.h **** 
 682:H:/STM32H7/RGB_LVGL/Middlewares/LVGL/GUI/lvgl/src/core\lv_obj_style_gen.h **** static inline uint16_t lv_obj_get_style_layout(const lv_obj_t * obj, lv_part_t part)
 683:H:/STM32H7/RGB_LVGL/Middlewares/LVGL/GUI/lvgl/src/core\lv_obj_style_gen.h **** {
 684:H:/STM32H7/RGB_LVGL/Middlewares/LVGL/GUI/lvgl/src/core\lv_obj_style_gen.h ****     lv_style_value_t v = lv_obj_get_style_prop(obj, part, LV_STYLE_LAYOUT);
 685:H:/STM32H7/RGB_LVGL/Middlewares/LVGL/GUI/lvgl/src/core\lv_obj_style_gen.h ****     return (uint16_t)v.num;
 686:H:/STM32H7/RGB_LVGL/Middlewares/LVGL/GUI/lvgl/src/core\lv_obj_style_gen.h **** }
 687:H:/STM32H7/RGB_LVGL/Middlewares/LVGL/GUI/lvgl/src/core\lv_obj_style_gen.h **** 
 688:H:/STM32H7/RGB_LVGL/Middlewares/LVGL/GUI/lvgl/src/core\lv_obj_style_gen.h **** static inline lv_base_dir_t lv_obj_get_style_base_dir(const lv_obj_t * obj, lv_part_t part)
  98              		.loc 2 688 29 view .LVU20
  99              	.LBB55:
 689:H:/STM32H7/RGB_LVGL/Middlewares/LVGL/GUI/lvgl/src/core\lv_obj_style_gen.h **** {
 690:H:/STM32H7/RGB_LVGL/Middlewares/LVGL/GUI/lvgl/src/core\lv_obj_style_gen.h ****     lv_style_value_t v = lv_obj_get_style_prop(obj, part, LV_STYLE_BASE_DIR);
 100              		.loc 2 690 5 view .LVU21
 101              		.loc 2 690 26 is_stmt 0 view .LVU22
 102 002a 2722     		movs	r2, #39
 103 002c 0021     		movs	r1, #0
 104 002e 2046     		mov	r0, r4
 105              	.LVL11:
 106              		.loc 2 690 26 view .LVU23
 107 0030 FFF7FEFF 		bl	lv_obj_get_style_prop
 108              	.LVL12:
 109 0034 0C90     		str	r0, [sp, #48]
 691:H:/STM32H7/RGB_LVGL/Middlewares/LVGL/GUI/lvgl/src/core\lv_obj_style_gen.h ****     return (lv_base_dir_t)v.num;
 110              		.loc 2 691 5 is_stmt 1 view .LVU24
 111              		.loc 2 691 12 is_stmt 0 view .LVU25
 112 0036 C5B2     		uxtb	r5, r0
 113              	.LVL13:
 114              		.loc 2 691 12 view .LVU26
ARM GAS  C:\Users\28576\AppData\Local\Temp\ccRKCVo4.s 			page 19


 115              	.LBE55:
 116              	.LBE54:
 223:../../Middlewares/LVGL/GUI/lvgl/src/widgets/checkbox/lv_checkbox.c **** 
 224:../../Middlewares/LVGL/GUI/lvgl/src/widgets/checkbox/lv_checkbox.c ****     int32_t bg_border = lv_obj_get_style_border_width(obj, LV_PART_MAIN);
 117              		.loc 1 224 5 is_stmt 1 view .LVU27
 118              	.LBB56:
 119              	.LBI56:
 340:H:/STM32H7/RGB_LVGL/Middlewares/LVGL/GUI/lvgl/src/core\lv_obj_style_gen.h **** {
 120              		.loc 2 340 23 view .LVU28
 121              	.LBB57:
 342:H:/STM32H7/RGB_LVGL/Middlewares/LVGL/GUI/lvgl/src/core\lv_obj_style_gen.h ****     return (int32_t)v.num;
 122              		.loc 2 342 5 view .LVU29
 342:H:/STM32H7/RGB_LVGL/Middlewares/LVGL/GUI/lvgl/src/core\lv_obj_style_gen.h ****     return (int32_t)v.num;
 123              		.loc 2 342 26 is_stmt 0 view .LVU30
 124 0038 3022     		movs	r2, #48
 125 003a 0021     		movs	r1, #0
 126 003c 2046     		mov	r0, r4
 127 003e FFF7FEFF 		bl	lv_obj_get_style_prop
 128              	.LVL14:
 129 0042 0746     		mov	r7, r0
 130 0044 0C90     		str	r0, [sp, #48]
 343:H:/STM32H7/RGB_LVGL/Middlewares/LVGL/GUI/lvgl/src/core\lv_obj_style_gen.h **** }
 131              		.loc 2 343 5 is_stmt 1 view .LVU31
 132              	.LVL15:
 343:H:/STM32H7/RGB_LVGL/Middlewares/LVGL/GUI/lvgl/src/core\lv_obj_style_gen.h **** }
 133              		.loc 2 343 5 is_stmt 0 view .LVU32
 134              	.LBE57:
 135              	.LBE56:
 225:../../Middlewares/LVGL/GUI/lvgl/src/widgets/checkbox/lv_checkbox.c ****     int32_t bg_topp = lv_obj_get_style_pad_top(obj, LV_PART_MAIN) + bg_border;
 136              		.loc 1 225 5 is_stmt 1 view .LVU33
 137              	.LBB58:
 138              	.LBI58:
 154:H:/STM32H7/RGB_LVGL/Middlewares/LVGL/GUI/lvgl/src/core\lv_obj_style_gen.h **** {
 139              		.loc 2 154 23 view .LVU34
 140              	.LBB59:
 156:H:/STM32H7/RGB_LVGL/Middlewares/LVGL/GUI/lvgl/src/core\lv_obj_style_gen.h ****     return (int32_t)v.num;
 141              		.loc 2 156 5 view .LVU35
 156:H:/STM32H7/RGB_LVGL/Middlewares/LVGL/GUI/lvgl/src/core\lv_obj_style_gen.h ****     return (int32_t)v.num;
 142              		.loc 2 156 26 is_stmt 0 view .LVU36
 143 0046 1022     		movs	r2, #16
 144 0048 0021     		movs	r1, #0
 145 004a 2046     		mov	r0, r4
 146              	.LVL16:
 156:H:/STM32H7/RGB_LVGL/Middlewares/LVGL/GUI/lvgl/src/core\lv_obj_style_gen.h ****     return (int32_t)v.num;
 147              		.loc 2 156 26 view .LVU37
 148 004c FFF7FEFF 		bl	lv_obj_get_style_prop
 149              	.LVL17:
 150 0050 0C90     		str	r0, [sp, #48]
 157:H:/STM32H7/RGB_LVGL/Middlewares/LVGL/GUI/lvgl/src/core\lv_obj_style_gen.h **** }
 151              		.loc 2 157 5 is_stmt 1 view .LVU38
 152              	.LVL18:
 157:H:/STM32H7/RGB_LVGL/Middlewares/LVGL/GUI/lvgl/src/core\lv_obj_style_gen.h **** }
 153              		.loc 2 157 5 is_stmt 0 view .LVU39
 154              	.LBE59:
 155              	.LBE58:
 156              		.loc 1 225 13 discriminator 1 view .LVU40
 157 0052 C619     		adds	r6, r0, r7
ARM GAS  C:\Users\28576\AppData\Local\Temp\ccRKCVo4.s 			page 20


 158              	.LVL19:
 226:../../Middlewares/LVGL/GUI/lvgl/src/widgets/checkbox/lv_checkbox.c ****     int32_t bg_p = is_rtl ? lv_obj_get_style_pad_right(obj, LV_PART_MAIN) : lv_obj_get_style_pad_le
 159              		.loc 1 226 5 is_stmt 1 view .LVU41
 160              		.loc 1 226 75 is_stmt 0 view .LVU42
 161 0054 012D     		cmp	r5, #1
 162 0056 00F0B980 		beq	.L10
 163              	.LVL20:
 164              	.LBB60:
 165              	.LBI60:
 166:H:/STM32H7/RGB_LVGL/Middlewares/LVGL/GUI/lvgl/src/core\lv_obj_style_gen.h **** {
 166              		.loc 2 166 23 is_stmt 1 view .LVU43
 167              	.LBB61:
 168:H:/STM32H7/RGB_LVGL/Middlewares/LVGL/GUI/lvgl/src/core\lv_obj_style_gen.h ****     return (int32_t)v.num;
 168              		.loc 2 168 5 view .LVU44
 168:H:/STM32H7/RGB_LVGL/Middlewares/LVGL/GUI/lvgl/src/core\lv_obj_style_gen.h ****     return (int32_t)v.num;
 169              		.loc 2 168 26 is_stmt 0 view .LVU45
 170 005a 1222     		movs	r2, #18
 171 005c 0021     		movs	r1, #0
 172 005e 2046     		mov	r0, r4
 173 0060 FFF7FEFF 		bl	lv_obj_get_style_prop
 174              	.LVL21:
 175 0064 0C90     		str	r0, [sp, #48]
 169:H:/STM32H7/RGB_LVGL/Middlewares/LVGL/GUI/lvgl/src/core\lv_obj_style_gen.h **** }
 176              		.loc 2 169 5 is_stmt 1 view .LVU46
 177              	.LVL22:
 169:H:/STM32H7/RGB_LVGL/Middlewares/LVGL/GUI/lvgl/src/core\lv_obj_style_gen.h **** }
 178              		.loc 2 169 5 is_stmt 0 view .LVU47
 179              	.LBE61:
 180              	.LBE60:
 181              		.loc 1 226 13 discriminator 4 view .LVU48
 182 0066 3B18     		adds	r3, r7, r0
 183 0068 0593     		str	r3, [sp, #20]
 184              	.L3:
 185              	.LVL23:
 227:../../Middlewares/LVGL/GUI/lvgl/src/widgets/checkbox/lv_checkbox.c ****                                                                                                    
 228:../../Middlewares/LVGL/GUI/lvgl/src/widgets/checkbox/lv_checkbox.c ****     int32_t bg_colp = lv_obj_get_style_pad_column(obj, LV_PART_MAIN);
 186              		.loc 1 228 5 is_stmt 1 view .LVU49
 187              	.LBB62:
 188              	.LBI62:
 184:H:/STM32H7/RGB_LVGL/Middlewares/LVGL/GUI/lvgl/src/core\lv_obj_style_gen.h **** {
 189              		.loc 2 184 23 view .LVU50
 190              	.LBB63:
 186:H:/STM32H7/RGB_LVGL/Middlewares/LVGL/GUI/lvgl/src/core\lv_obj_style_gen.h ****     return (int32_t)v.num;
 191              		.loc 2 186 5 view .LVU51
 186:H:/STM32H7/RGB_LVGL/Middlewares/LVGL/GUI/lvgl/src/core\lv_obj_style_gen.h ****     return (int32_t)v.num;
 192              		.loc 2 186 26 is_stmt 0 view .LVU52
 193 006a 1522     		movs	r2, #21
 194 006c 0021     		movs	r1, #0
 195 006e 2046     		mov	r0, r4
 196 0070 FFF7FEFF 		bl	lv_obj_get_style_prop
 197              	.LVL24:
 198 0074 0790     		str	r0, [sp, #28]
 199 0076 0C90     		str	r0, [sp, #48]
 187:H:/STM32H7/RGB_LVGL/Middlewares/LVGL/GUI/lvgl/src/core\lv_obj_style_gen.h **** }
 200              		.loc 2 187 5 is_stmt 1 view .LVU53
 201              	.LVL25:
 187:H:/STM32H7/RGB_LVGL/Middlewares/LVGL/GUI/lvgl/src/core\lv_obj_style_gen.h **** }
ARM GAS  C:\Users\28576\AppData\Local\Temp\ccRKCVo4.s 			page 21


 202              		.loc 2 187 5 is_stmt 0 view .LVU54
 203              	.LBE63:
 204              	.LBE62:
 229:../../Middlewares/LVGL/GUI/lvgl/src/widgets/checkbox/lv_checkbox.c **** 
 230:../../Middlewares/LVGL/GUI/lvgl/src/widgets/checkbox/lv_checkbox.c ****     int32_t marker_leftp = lv_obj_get_style_pad_left(obj, LV_PART_INDICATOR);
 205              		.loc 1 230 5 is_stmt 1 view .LVU55
 206              	.LBB64:
 207              	.LBI64:
 166:H:/STM32H7/RGB_LVGL/Middlewares/LVGL/GUI/lvgl/src/core\lv_obj_style_gen.h **** {
 208              		.loc 2 166 23 view .LVU56
 209              	.LBB65:
 168:H:/STM32H7/RGB_LVGL/Middlewares/LVGL/GUI/lvgl/src/core\lv_obj_style_gen.h ****     return (int32_t)v.num;
 210              		.loc 2 168 5 view .LVU57
 168:H:/STM32H7/RGB_LVGL/Middlewares/LVGL/GUI/lvgl/src/core\lv_obj_style_gen.h ****     return (int32_t)v.num;
 211              		.loc 2 168 26 is_stmt 0 view .LVU58
 212 0078 1222     		movs	r2, #18
 213 007a 4FF40031 		mov	r1, #131072
 214 007e 2046     		mov	r0, r4
 215              	.LVL26:
 168:H:/STM32H7/RGB_LVGL/Middlewares/LVGL/GUI/lvgl/src/core\lv_obj_style_gen.h ****     return (int32_t)v.num;
 216              		.loc 2 168 26 view .LVU59
 217 0080 FFF7FEFF 		bl	lv_obj_get_style_prop
 218              	.LVL27:
 168:H:/STM32H7/RGB_LVGL/Middlewares/LVGL/GUI/lvgl/src/core\lv_obj_style_gen.h ****     return (int32_t)v.num;
 219              		.loc 2 168 26 view .LVU60
 220 0084 0890     		str	r0, [sp, #32]
 221 0086 0C90     		str	r0, [sp, #48]
 169:H:/STM32H7/RGB_LVGL/Middlewares/LVGL/GUI/lvgl/src/core\lv_obj_style_gen.h **** }
 222              		.loc 2 169 5 is_stmt 1 view .LVU61
 223              	.LVL28:
 169:H:/STM32H7/RGB_LVGL/Middlewares/LVGL/GUI/lvgl/src/core\lv_obj_style_gen.h **** }
 224              		.loc 2 169 5 is_stmt 0 view .LVU62
 225              	.LBE65:
 226              	.LBE64:
 231:../../Middlewares/LVGL/GUI/lvgl/src/widgets/checkbox/lv_checkbox.c ****     int32_t marker_rightp = lv_obj_get_style_pad_right(obj, LV_PART_INDICATOR);
 227              		.loc 1 231 5 is_stmt 1 view .LVU63
 228              	.LBB66:
 229              	.LBI66:
 172:H:/STM32H7/RGB_LVGL/Middlewares/LVGL/GUI/lvgl/src/core\lv_obj_style_gen.h **** {
 230              		.loc 2 172 23 view .LVU64
 231              	.LBB67:
 174:H:/STM32H7/RGB_LVGL/Middlewares/LVGL/GUI/lvgl/src/core\lv_obj_style_gen.h ****     return (int32_t)v.num;
 232              		.loc 2 174 5 view .LVU65
 174:H:/STM32H7/RGB_LVGL/Middlewares/LVGL/GUI/lvgl/src/core\lv_obj_style_gen.h ****     return (int32_t)v.num;
 233              		.loc 2 174 26 is_stmt 0 view .LVU66
 234 0088 1322     		movs	r2, #19
 235 008a 4FF40031 		mov	r1, #131072
 236 008e 2046     		mov	r0, r4
 237              	.LVL29:
 174:H:/STM32H7/RGB_LVGL/Middlewares/LVGL/GUI/lvgl/src/core\lv_obj_style_gen.h ****     return (int32_t)v.num;
 238              		.loc 2 174 26 view .LVU67
 239 0090 FFF7FEFF 		bl	lv_obj_get_style_prop
 240              	.LVL30:
 174:H:/STM32H7/RGB_LVGL/Middlewares/LVGL/GUI/lvgl/src/core\lv_obj_style_gen.h ****     return (int32_t)v.num;
 241              		.loc 2 174 26 view .LVU68
 242 0094 0990     		str	r0, [sp, #36]
 243 0096 0C90     		str	r0, [sp, #48]
ARM GAS  C:\Users\28576\AppData\Local\Temp\ccRKCVo4.s 			page 22


 175:H:/STM32H7/RGB_LVGL/Middlewares/LVGL/GUI/lvgl/src/core\lv_obj_style_gen.h **** }
 244              		.loc 2 175 5 is_stmt 1 view .LVU69
 245              	.LVL31:
 175:H:/STM32H7/RGB_LVGL/Middlewares/LVGL/GUI/lvgl/src/core\lv_obj_style_gen.h **** }
 246              		.loc 2 175 5 is_stmt 0 view .LVU70
 247              	.LBE67:
 248              	.LBE66:
 232:../../Middlewares/LVGL/GUI/lvgl/src/widgets/checkbox/lv_checkbox.c ****     int32_t marker_topp = lv_obj_get_style_pad_top(obj, LV_PART_INDICATOR);
 249              		.loc 1 232 5 is_stmt 1 view .LVU71
 250              	.LBB68:
 251              	.LBI68:
 154:H:/STM32H7/RGB_LVGL/Middlewares/LVGL/GUI/lvgl/src/core\lv_obj_style_gen.h **** {
 252              		.loc 2 154 23 view .LVU72
 253              	.LBB69:
 156:H:/STM32H7/RGB_LVGL/Middlewares/LVGL/GUI/lvgl/src/core\lv_obj_style_gen.h ****     return (int32_t)v.num;
 254              		.loc 2 156 5 view .LVU73
 156:H:/STM32H7/RGB_LVGL/Middlewares/LVGL/GUI/lvgl/src/core\lv_obj_style_gen.h ****     return (int32_t)v.num;
 255              		.loc 2 156 26 is_stmt 0 view .LVU74
 256 0098 1022     		movs	r2, #16
 257 009a 4FF40031 		mov	r1, #131072
 258 009e 2046     		mov	r0, r4
 259              	.LVL32:
 156:H:/STM32H7/RGB_LVGL/Middlewares/LVGL/GUI/lvgl/src/core\lv_obj_style_gen.h ****     return (int32_t)v.num;
 260              		.loc 2 156 26 view .LVU75
 261 00a0 FFF7FEFF 		bl	lv_obj_get_style_prop
 262              	.LVL33:
 156:H:/STM32H7/RGB_LVGL/Middlewares/LVGL/GUI/lvgl/src/core\lv_obj_style_gen.h ****     return (int32_t)v.num;
 263              		.loc 2 156 26 view .LVU76
 264 00a4 8346     		mov	fp, r0
 265 00a6 0C90     		str	r0, [sp, #48]
 157:H:/STM32H7/RGB_LVGL/Middlewares/LVGL/GUI/lvgl/src/core\lv_obj_style_gen.h **** }
 266              		.loc 2 157 5 is_stmt 1 view .LVU77
 267              	.LVL34:
 157:H:/STM32H7/RGB_LVGL/Middlewares/LVGL/GUI/lvgl/src/core\lv_obj_style_gen.h **** }
 268              		.loc 2 157 5 is_stmt 0 view .LVU78
 269              	.LBE69:
 270              	.LBE68:
 233:../../Middlewares/LVGL/GUI/lvgl/src/widgets/checkbox/lv_checkbox.c ****     int32_t marker_bottomp = lv_obj_get_style_pad_bottom(obj, LV_PART_INDICATOR);
 271              		.loc 1 233 5 is_stmt 1 view .LVU79
 272              	.LBB70:
 273              	.LBI70:
 160:H:/STM32H7/RGB_LVGL/Middlewares/LVGL/GUI/lvgl/src/core\lv_obj_style_gen.h **** {
 274              		.loc 2 160 23 view .LVU80
 275              	.LBB71:
 162:H:/STM32H7/RGB_LVGL/Middlewares/LVGL/GUI/lvgl/src/core\lv_obj_style_gen.h ****     return (int32_t)v.num;
 276              		.loc 2 162 5 view .LVU81
 162:H:/STM32H7/RGB_LVGL/Middlewares/LVGL/GUI/lvgl/src/core\lv_obj_style_gen.h ****     return (int32_t)v.num;
 277              		.loc 2 162 26 is_stmt 0 view .LVU82
 278 00a8 1122     		movs	r2, #17
 279 00aa 4FF40031 		mov	r1, #131072
 280 00ae 2046     		mov	r0, r4
 281              	.LVL35:
 162:H:/STM32H7/RGB_LVGL/Middlewares/LVGL/GUI/lvgl/src/core\lv_obj_style_gen.h ****     return (int32_t)v.num;
 282              		.loc 2 162 26 view .LVU83
 283 00b0 FFF7FEFF 		bl	lv_obj_get_style_prop
 284              	.LVL36:
 285 00b4 8246     		mov	r10, r0
ARM GAS  C:\Users\28576\AppData\Local\Temp\ccRKCVo4.s 			page 23


 286 00b6 0C90     		str	r0, [sp, #48]
 163:H:/STM32H7/RGB_LVGL/Middlewares/LVGL/GUI/lvgl/src/core\lv_obj_style_gen.h **** }
 287              		.loc 2 163 5 is_stmt 1 view .LVU84
 288              	.LVL37:
 163:H:/STM32H7/RGB_LVGL/Middlewares/LVGL/GUI/lvgl/src/core\lv_obj_style_gen.h **** }
 289              		.loc 2 163 5 is_stmt 0 view .LVU85
 290              	.LBE71:
 291              	.LBE70:
 234:../../Middlewares/LVGL/GUI/lvgl/src/widgets/checkbox/lv_checkbox.c **** 
 235:../../Middlewares/LVGL/GUI/lvgl/src/widgets/checkbox/lv_checkbox.c ****     int32_t transf_w = lv_obj_get_style_transform_width(obj, LV_PART_INDICATOR);
 292              		.loc 1 235 5 is_stmt 1 view .LVU86
 293              	.LBB72:
 294              	.LBI72:
  82:H:/STM32H7/RGB_LVGL/Middlewares/LVGL/GUI/lvgl/src/core\lv_obj_style_gen.h **** {
 295              		.loc 2 82 23 view .LVU87
 296              	.LBB73:
  84:H:/STM32H7/RGB_LVGL/Middlewares/LVGL/GUI/lvgl/src/core\lv_obj_style_gen.h ****     return (int32_t)v.num;
 297              		.loc 2 84 5 view .LVU88
  84:H:/STM32H7/RGB_LVGL/Middlewares/LVGL/GUI/lvgl/src/core\lv_obj_style_gen.h ****     return (int32_t)v.num;
 298              		.loc 2 84 26 is_stmt 0 view .LVU89
 299 00b8 6A22     		movs	r2, #106
 300 00ba 4FF40031 		mov	r1, #131072
 301 00be 2046     		mov	r0, r4
 302              	.LVL38:
  84:H:/STM32H7/RGB_LVGL/Middlewares/LVGL/GUI/lvgl/src/core\lv_obj_style_gen.h ****     return (int32_t)v.num;
 303              		.loc 2 84 26 view .LVU90
 304 00c0 FFF7FEFF 		bl	lv_obj_get_style_prop
 305              	.LVL39:
 306 00c4 0A90     		str	r0, [sp, #40]
 307 00c6 0C90     		str	r0, [sp, #48]
  85:H:/STM32H7/RGB_LVGL/Middlewares/LVGL/GUI/lvgl/src/core\lv_obj_style_gen.h **** }
 308              		.loc 2 85 5 is_stmt 1 view .LVU91
 309              	.LVL40:
  85:H:/STM32H7/RGB_LVGL/Middlewares/LVGL/GUI/lvgl/src/core\lv_obj_style_gen.h **** }
 310              		.loc 2 85 5 is_stmt 0 view .LVU92
 311              	.LBE73:
 312              	.LBE72:
 236:../../Middlewares/LVGL/GUI/lvgl/src/widgets/checkbox/lv_checkbox.c ****     int32_t transf_h = lv_obj_get_style_transform_height(obj, LV_PART_INDICATOR);
 313              		.loc 1 236 5 is_stmt 1 view .LVU93
 314              	.LBB74:
 315              	.LBI74:
  88:H:/STM32H7/RGB_LVGL/Middlewares/LVGL/GUI/lvgl/src/core\lv_obj_style_gen.h **** {
 316              		.loc 2 88 23 view .LVU94
 317              	.LBB75:
  90:H:/STM32H7/RGB_LVGL/Middlewares/LVGL/GUI/lvgl/src/core\lv_obj_style_gen.h ****     return (int32_t)v.num;
 318              		.loc 2 90 5 view .LVU95
  90:H:/STM32H7/RGB_LVGL/Middlewares/LVGL/GUI/lvgl/src/core\lv_obj_style_gen.h ****     return (int32_t)v.num;
 319              		.loc 2 90 26 is_stmt 0 view .LVU96
 320 00c8 6B22     		movs	r2, #107
 321 00ca 4FF40031 		mov	r1, #131072
 322 00ce 2046     		mov	r0, r4
 323              	.LVL41:
  90:H:/STM32H7/RGB_LVGL/Middlewares/LVGL/GUI/lvgl/src/core\lv_obj_style_gen.h ****     return (int32_t)v.num;
 324              		.loc 2 90 26 view .LVU97
 325 00d0 FFF7FEFF 		bl	lv_obj_get_style_prop
 326              	.LVL42:
  90:H:/STM32H7/RGB_LVGL/Middlewares/LVGL/GUI/lvgl/src/core\lv_obj_style_gen.h ****     return (int32_t)v.num;
ARM GAS  C:\Users\28576\AppData\Local\Temp\ccRKCVo4.s 			page 24


 327              		.loc 2 90 26 view .LVU98
 328 00d4 0B90     		str	r0, [sp, #44]
 329 00d6 0C90     		str	r0, [sp, #48]
  91:H:/STM32H7/RGB_LVGL/Middlewares/LVGL/GUI/lvgl/src/core\lv_obj_style_gen.h **** }
 330              		.loc 2 91 5 is_stmt 1 view .LVU99
 331              	.LVL43:
  91:H:/STM32H7/RGB_LVGL/Middlewares/LVGL/GUI/lvgl/src/core\lv_obj_style_gen.h **** }
 332              		.loc 2 91 5 is_stmt 0 view .LVU100
 333              	.LBE75:
 334              	.LBE74:
 237:../../Middlewares/LVGL/GUI/lvgl/src/widgets/checkbox/lv_checkbox.c **** 
 238:../../Middlewares/LVGL/GUI/lvgl/src/widgets/checkbox/lv_checkbox.c ****     lv_draw_rect_dsc_t indic_dsc;
 335              		.loc 1 238 5 is_stmt 1 view .LVU101
 239:../../Middlewares/LVGL/GUI/lvgl/src/widgets/checkbox/lv_checkbox.c ****     lv_draw_rect_dsc_init(&indic_dsc);
 336              		.loc 1 239 5 view .LVU102
 337 00d8 36AF     		add	r7, sp, #216
 338              	.LVL44:
 339              		.loc 1 239 5 is_stmt 0 view .LVU103
 340 00da 3846     		mov	r0, r7
 341              	.LVL45:
 342              		.loc 1 239 5 view .LVU104
 343 00dc FFF7FEFF 		bl	lv_draw_rect_dsc_init
 344              	.LVL46:
 240:../../Middlewares/LVGL/GUI/lvgl/src/widgets/checkbox/lv_checkbox.c ****     indic_dsc.base.layer = layer;
 345              		.loc 1 240 5 is_stmt 1 view .LVU105
 346              		.loc 1 240 26 is_stmt 0 view .LVU106
 347 00e0 CDF8E880 		str	r8, [sp, #232]
 241:../../Middlewares/LVGL/GUI/lvgl/src/widgets/checkbox/lv_checkbox.c ****     lv_obj_init_draw_rect_dsc(obj, LV_PART_INDICATOR, &indic_dsc);
 348              		.loc 1 241 5 is_stmt 1 view .LVU107
 349 00e4 3A46     		mov	r2, r7
 350 00e6 4FF40031 		mov	r1, #131072
 351 00ea 2046     		mov	r0, r4
 352 00ec FFF7FEFF 		bl	lv_obj_init_draw_rect_dsc
 353              	.LVL47:
 242:../../Middlewares/LVGL/GUI/lvgl/src/widgets/checkbox/lv_checkbox.c ****     lv_area_t marker_area;
 354              		.loc 1 242 5 view .LVU108
 243:../../Middlewares/LVGL/GUI/lvgl/src/widgets/checkbox/lv_checkbox.c ****     if(is_rtl) {
 355              		.loc 1 243 5 view .LVU109
 356              		.loc 1 243 7 is_stmt 0 view .LVU110
 357 00f0 012D     		cmp	r5, #1
 358 00f2 76D0     		beq	.L11
 244:../../Middlewares/LVGL/GUI/lvgl/src/widgets/checkbox/lv_checkbox.c ****         marker_area.x2 = obj->coords.x2 - bg_p;
 245:../../Middlewares/LVGL/GUI/lvgl/src/widgets/checkbox/lv_checkbox.c ****         marker_area.x1 = marker_area.x2 - font_h - marker_leftp - marker_rightp + 1;
 246:../../Middlewares/LVGL/GUI/lvgl/src/widgets/checkbox/lv_checkbox.c ****     }
 247:../../Middlewares/LVGL/GUI/lvgl/src/widgets/checkbox/lv_checkbox.c ****     else {
 248:../../Middlewares/LVGL/GUI/lvgl/src/widgets/checkbox/lv_checkbox.c ****         marker_area.x1 = obj->coords.x1 + bg_p;
 359              		.loc 1 248 9 is_stmt 1 view .LVU111
 360              		.loc 1 248 37 is_stmt 0 view .LVU112
 361 00f4 6369     		ldr	r3, [r4, #20]
 362              		.loc 1 248 41 view .LVU113
 363 00f6 059A     		ldr	r2, [sp, #20]
 364 00f8 1344     		add	r3, r3, r2
 365              		.loc 1 248 24 view .LVU114
 366 00fa 3293     		str	r3, [sp, #200]
 249:../../Middlewares/LVGL/GUI/lvgl/src/widgets/checkbox/lv_checkbox.c ****         marker_area.x2 = marker_area.x1 + font_h + marker_leftp + marker_rightp - 1;
 367              		.loc 1 249 9 is_stmt 1 view .LVU115
 368              		.loc 1 249 41 is_stmt 0 view .LVU116
ARM GAS  C:\Users\28576\AppData\Local\Temp\ccRKCVo4.s 			page 25


 369 00fc 4B44     		add	r3, r3, r9
 370              		.loc 1 249 50 view .LVU117
 371 00fe 089A     		ldr	r2, [sp, #32]
 372 0100 1344     		add	r3, r3, r2
 373              		.loc 1 249 65 view .LVU118
 374 0102 099A     		ldr	r2, [sp, #36]
 375 0104 1344     		add	r3, r3, r2
 376              		.loc 1 249 81 view .LVU119
 377 0106 013B     		subs	r3, r3, #1
 378              		.loc 1 249 24 view .LVU120
 379 0108 3493     		str	r3, [sp, #208]
 380              	.L5:
 250:../../Middlewares/LVGL/GUI/lvgl/src/widgets/checkbox/lv_checkbox.c ****     }
 251:../../Middlewares/LVGL/GUI/lvgl/src/widgets/checkbox/lv_checkbox.c ****     marker_area.y1 = obj->coords.y1 + bg_topp;
 381              		.loc 1 251 5 is_stmt 1 view .LVU121
 382              		.loc 1 251 33 is_stmt 0 view .LVU122
 383 010a A269     		ldr	r2, [r4, #24]
 384              		.loc 1 251 37 view .LVU123
 385 010c 3244     		add	r2, r2, r6
 386              		.loc 1 251 20 view .LVU124
 387 010e 3392     		str	r2, [sp, #204]
 252:../../Middlewares/LVGL/GUI/lvgl/src/widgets/checkbox/lv_checkbox.c ****     marker_area.y2 = marker_area.y1 + font_h + marker_topp + marker_bottomp - 1;
 388              		.loc 1 252 5 is_stmt 1 view .LVU125
 389              		.loc 1 252 37 is_stmt 0 view .LVU126
 390 0110 02EB0903 		add	r3, r2, r9
 391              		.loc 1 252 46 view .LVU127
 392 0114 5B44     		add	r3, r3, fp
 393              		.loc 1 252 60 view .LVU128
 394 0116 5344     		add	r3, r3, r10
 395              		.loc 1 252 77 view .LVU129
 396 0118 013B     		subs	r3, r3, #1
 397              		.loc 1 252 20 view .LVU130
 398 011a 3593     		str	r3, [sp, #212]
 253:../../Middlewares/LVGL/GUI/lvgl/src/widgets/checkbox/lv_checkbox.c **** 
 254:../../Middlewares/LVGL/GUI/lvgl/src/widgets/checkbox/lv_checkbox.c ****     lv_area_t marker_area_transf;
 399              		.loc 1 254 5 is_stmt 1 view .LVU131
 255:../../Middlewares/LVGL/GUI/lvgl/src/widgets/checkbox/lv_checkbox.c ****     lv_area_copy(&marker_area_transf, &marker_area);
 400              		.loc 1 255 5 view .LVU132
 401              	.LVL48:
 402              	.LBB76:
 403              	.LBI76:
 404              		.file 3 "H:/STM32H7/RGB_LVGL/Middlewares/LVGL/GUI/lvgl/src/misc/lv_area.h"
   1:H:/STM32H7/RGB_LVGL/Middlewares/LVGL/GUI/lvgl/src/misc\lv_area.h **** /**
   2:H:/STM32H7/RGB_LVGL/Middlewares/LVGL/GUI/lvgl/src/misc\lv_area.h ****  * @file lv_area.h
   3:H:/STM32H7/RGB_LVGL/Middlewares/LVGL/GUI/lvgl/src/misc\lv_area.h ****  *
   4:H:/STM32H7/RGB_LVGL/Middlewares/LVGL/GUI/lvgl/src/misc\lv_area.h ****  */
   5:H:/STM32H7/RGB_LVGL/Middlewares/LVGL/GUI/lvgl/src/misc\lv_area.h **** 
   6:H:/STM32H7/RGB_LVGL/Middlewares/LVGL/GUI/lvgl/src/misc\lv_area.h **** #ifndef LV_AREA_H
   7:H:/STM32H7/RGB_LVGL/Middlewares/LVGL/GUI/lvgl/src/misc\lv_area.h **** #define LV_AREA_H
   8:H:/STM32H7/RGB_LVGL/Middlewares/LVGL/GUI/lvgl/src/misc\lv_area.h **** 
   9:H:/STM32H7/RGB_LVGL/Middlewares/LVGL/GUI/lvgl/src/misc\lv_area.h **** #ifdef __cplusplus
  10:H:/STM32H7/RGB_LVGL/Middlewares/LVGL/GUI/lvgl/src/misc\lv_area.h **** extern "C" {
  11:H:/STM32H7/RGB_LVGL/Middlewares/LVGL/GUI/lvgl/src/misc\lv_area.h **** #endif
  12:H:/STM32H7/RGB_LVGL/Middlewares/LVGL/GUI/lvgl/src/misc\lv_area.h **** 
  13:H:/STM32H7/RGB_LVGL/Middlewares/LVGL/GUI/lvgl/src/misc\lv_area.h **** /*********************
  14:H:/STM32H7/RGB_LVGL/Middlewares/LVGL/GUI/lvgl/src/misc\lv_area.h ****  *      INCLUDES
  15:H:/STM32H7/RGB_LVGL/Middlewares/LVGL/GUI/lvgl/src/misc\lv_area.h ****  *********************/
ARM GAS  C:\Users\28576\AppData\Local\Temp\ccRKCVo4.s 			page 26


  16:H:/STM32H7/RGB_LVGL/Middlewares/LVGL/GUI/lvgl/src/misc\lv_area.h **** #include "../lv_conf_internal.h"
  17:H:/STM32H7/RGB_LVGL/Middlewares/LVGL/GUI/lvgl/src/misc\lv_area.h **** #include "lv_types.h"
  18:H:/STM32H7/RGB_LVGL/Middlewares/LVGL/GUI/lvgl/src/misc\lv_area.h **** #include "lv_math.h"
  19:H:/STM32H7/RGB_LVGL/Middlewares/LVGL/GUI/lvgl/src/misc\lv_area.h **** 
  20:H:/STM32H7/RGB_LVGL/Middlewares/LVGL/GUI/lvgl/src/misc\lv_area.h **** /*********************
  21:H:/STM32H7/RGB_LVGL/Middlewares/LVGL/GUI/lvgl/src/misc\lv_area.h ****  *      DEFINES
  22:H:/STM32H7/RGB_LVGL/Middlewares/LVGL/GUI/lvgl/src/misc\lv_area.h ****  *********************/
  23:H:/STM32H7/RGB_LVGL/Middlewares/LVGL/GUI/lvgl/src/misc\lv_area.h **** 
  24:H:/STM32H7/RGB_LVGL/Middlewares/LVGL/GUI/lvgl/src/misc\lv_area.h **** /**********************
  25:H:/STM32H7/RGB_LVGL/Middlewares/LVGL/GUI/lvgl/src/misc\lv_area.h ****  *      TYPEDEFS
  26:H:/STM32H7/RGB_LVGL/Middlewares/LVGL/GUI/lvgl/src/misc\lv_area.h ****  **********************/
  27:H:/STM32H7/RGB_LVGL/Middlewares/LVGL/GUI/lvgl/src/misc\lv_area.h **** 
  28:H:/STM32H7/RGB_LVGL/Middlewares/LVGL/GUI/lvgl/src/misc\lv_area.h **** /**
  29:H:/STM32H7/RGB_LVGL/Middlewares/LVGL/GUI/lvgl/src/misc\lv_area.h ****  * Represents a point on the screen.
  30:H:/STM32H7/RGB_LVGL/Middlewares/LVGL/GUI/lvgl/src/misc\lv_area.h ****  */
  31:H:/STM32H7/RGB_LVGL/Middlewares/LVGL/GUI/lvgl/src/misc\lv_area.h **** typedef struct {
  32:H:/STM32H7/RGB_LVGL/Middlewares/LVGL/GUI/lvgl/src/misc\lv_area.h ****     int32_t x;
  33:H:/STM32H7/RGB_LVGL/Middlewares/LVGL/GUI/lvgl/src/misc\lv_area.h ****     int32_t y;
  34:H:/STM32H7/RGB_LVGL/Middlewares/LVGL/GUI/lvgl/src/misc\lv_area.h **** } lv_point_t;
  35:H:/STM32H7/RGB_LVGL/Middlewares/LVGL/GUI/lvgl/src/misc\lv_area.h **** 
  36:H:/STM32H7/RGB_LVGL/Middlewares/LVGL/GUI/lvgl/src/misc\lv_area.h **** typedef struct {
  37:H:/STM32H7/RGB_LVGL/Middlewares/LVGL/GUI/lvgl/src/misc\lv_area.h ****     lv_value_precise_t x;
  38:H:/STM32H7/RGB_LVGL/Middlewares/LVGL/GUI/lvgl/src/misc\lv_area.h ****     lv_value_precise_t y;
  39:H:/STM32H7/RGB_LVGL/Middlewares/LVGL/GUI/lvgl/src/misc\lv_area.h **** } lv_point_precise_t;
  40:H:/STM32H7/RGB_LVGL/Middlewares/LVGL/GUI/lvgl/src/misc\lv_area.h **** 
  41:H:/STM32H7/RGB_LVGL/Middlewares/LVGL/GUI/lvgl/src/misc\lv_area.h **** /** Represents an area of the screen.*/
  42:H:/STM32H7/RGB_LVGL/Middlewares/LVGL/GUI/lvgl/src/misc\lv_area.h **** typedef struct {
  43:H:/STM32H7/RGB_LVGL/Middlewares/LVGL/GUI/lvgl/src/misc\lv_area.h ****     int32_t x1;
  44:H:/STM32H7/RGB_LVGL/Middlewares/LVGL/GUI/lvgl/src/misc\lv_area.h ****     int32_t y1;
  45:H:/STM32H7/RGB_LVGL/Middlewares/LVGL/GUI/lvgl/src/misc\lv_area.h ****     int32_t x2;
  46:H:/STM32H7/RGB_LVGL/Middlewares/LVGL/GUI/lvgl/src/misc\lv_area.h ****     int32_t y2;
  47:H:/STM32H7/RGB_LVGL/Middlewares/LVGL/GUI/lvgl/src/misc\lv_area.h **** } lv_area_t;
  48:H:/STM32H7/RGB_LVGL/Middlewares/LVGL/GUI/lvgl/src/misc\lv_area.h **** 
  49:H:/STM32H7/RGB_LVGL/Middlewares/LVGL/GUI/lvgl/src/misc\lv_area.h **** /** Alignments*/
  50:H:/STM32H7/RGB_LVGL/Middlewares/LVGL/GUI/lvgl/src/misc\lv_area.h **** 
  51:H:/STM32H7/RGB_LVGL/Middlewares/LVGL/GUI/lvgl/src/misc\lv_area.h **** typedef enum {
  52:H:/STM32H7/RGB_LVGL/Middlewares/LVGL/GUI/lvgl/src/misc\lv_area.h ****     LV_ALIGN_DEFAULT = 0,
  53:H:/STM32H7/RGB_LVGL/Middlewares/LVGL/GUI/lvgl/src/misc\lv_area.h ****     LV_ALIGN_TOP_LEFT,
  54:H:/STM32H7/RGB_LVGL/Middlewares/LVGL/GUI/lvgl/src/misc\lv_area.h ****     LV_ALIGN_TOP_MID,
  55:H:/STM32H7/RGB_LVGL/Middlewares/LVGL/GUI/lvgl/src/misc\lv_area.h ****     LV_ALIGN_TOP_RIGHT,
  56:H:/STM32H7/RGB_LVGL/Middlewares/LVGL/GUI/lvgl/src/misc\lv_area.h ****     LV_ALIGN_BOTTOM_LEFT,
  57:H:/STM32H7/RGB_LVGL/Middlewares/LVGL/GUI/lvgl/src/misc\lv_area.h ****     LV_ALIGN_BOTTOM_MID,
  58:H:/STM32H7/RGB_LVGL/Middlewares/LVGL/GUI/lvgl/src/misc\lv_area.h ****     LV_ALIGN_BOTTOM_RIGHT,
  59:H:/STM32H7/RGB_LVGL/Middlewares/LVGL/GUI/lvgl/src/misc\lv_area.h ****     LV_ALIGN_LEFT_MID,
  60:H:/STM32H7/RGB_LVGL/Middlewares/LVGL/GUI/lvgl/src/misc\lv_area.h ****     LV_ALIGN_RIGHT_MID,
  61:H:/STM32H7/RGB_LVGL/Middlewares/LVGL/GUI/lvgl/src/misc\lv_area.h ****     LV_ALIGN_CENTER,
  62:H:/STM32H7/RGB_LVGL/Middlewares/LVGL/GUI/lvgl/src/misc\lv_area.h **** 
  63:H:/STM32H7/RGB_LVGL/Middlewares/LVGL/GUI/lvgl/src/misc\lv_area.h ****     LV_ALIGN_OUT_TOP_LEFT,
  64:H:/STM32H7/RGB_LVGL/Middlewares/LVGL/GUI/lvgl/src/misc\lv_area.h ****     LV_ALIGN_OUT_TOP_MID,
  65:H:/STM32H7/RGB_LVGL/Middlewares/LVGL/GUI/lvgl/src/misc\lv_area.h ****     LV_ALIGN_OUT_TOP_RIGHT,
  66:H:/STM32H7/RGB_LVGL/Middlewares/LVGL/GUI/lvgl/src/misc\lv_area.h ****     LV_ALIGN_OUT_BOTTOM_LEFT,
  67:H:/STM32H7/RGB_LVGL/Middlewares/LVGL/GUI/lvgl/src/misc\lv_area.h ****     LV_ALIGN_OUT_BOTTOM_MID,
  68:H:/STM32H7/RGB_LVGL/Middlewares/LVGL/GUI/lvgl/src/misc\lv_area.h ****     LV_ALIGN_OUT_BOTTOM_RIGHT,
  69:H:/STM32H7/RGB_LVGL/Middlewares/LVGL/GUI/lvgl/src/misc\lv_area.h ****     LV_ALIGN_OUT_LEFT_TOP,
  70:H:/STM32H7/RGB_LVGL/Middlewares/LVGL/GUI/lvgl/src/misc\lv_area.h ****     LV_ALIGN_OUT_LEFT_MID,
  71:H:/STM32H7/RGB_LVGL/Middlewares/LVGL/GUI/lvgl/src/misc\lv_area.h ****     LV_ALIGN_OUT_LEFT_BOTTOM,
  72:H:/STM32H7/RGB_LVGL/Middlewares/LVGL/GUI/lvgl/src/misc\lv_area.h ****     LV_ALIGN_OUT_RIGHT_TOP,
ARM GAS  C:\Users\28576\AppData\Local\Temp\ccRKCVo4.s 			page 27


  73:H:/STM32H7/RGB_LVGL/Middlewares/LVGL/GUI/lvgl/src/misc\lv_area.h ****     LV_ALIGN_OUT_RIGHT_MID,
  74:H:/STM32H7/RGB_LVGL/Middlewares/LVGL/GUI/lvgl/src/misc\lv_area.h ****     LV_ALIGN_OUT_RIGHT_BOTTOM,
  75:H:/STM32H7/RGB_LVGL/Middlewares/LVGL/GUI/lvgl/src/misc\lv_area.h **** } lv_align_t;
  76:H:/STM32H7/RGB_LVGL/Middlewares/LVGL/GUI/lvgl/src/misc\lv_area.h **** 
  77:H:/STM32H7/RGB_LVGL/Middlewares/LVGL/GUI/lvgl/src/misc\lv_area.h **** typedef enum {
  78:H:/STM32H7/RGB_LVGL/Middlewares/LVGL/GUI/lvgl/src/misc\lv_area.h ****     LV_DIR_NONE     = 0x00,
  79:H:/STM32H7/RGB_LVGL/Middlewares/LVGL/GUI/lvgl/src/misc\lv_area.h ****     LV_DIR_LEFT     = (1 << 0),
  80:H:/STM32H7/RGB_LVGL/Middlewares/LVGL/GUI/lvgl/src/misc\lv_area.h ****     LV_DIR_RIGHT    = (1 << 1),
  81:H:/STM32H7/RGB_LVGL/Middlewares/LVGL/GUI/lvgl/src/misc\lv_area.h ****     LV_DIR_TOP      = (1 << 2),
  82:H:/STM32H7/RGB_LVGL/Middlewares/LVGL/GUI/lvgl/src/misc\lv_area.h ****     LV_DIR_BOTTOM   = (1 << 3),
  83:H:/STM32H7/RGB_LVGL/Middlewares/LVGL/GUI/lvgl/src/misc\lv_area.h ****     LV_DIR_HOR      = LV_DIR_LEFT | LV_DIR_RIGHT,
  84:H:/STM32H7/RGB_LVGL/Middlewares/LVGL/GUI/lvgl/src/misc\lv_area.h ****     LV_DIR_VER      = LV_DIR_TOP | LV_DIR_BOTTOM,
  85:H:/STM32H7/RGB_LVGL/Middlewares/LVGL/GUI/lvgl/src/misc\lv_area.h ****     LV_DIR_ALL      = LV_DIR_HOR | LV_DIR_VER,
  86:H:/STM32H7/RGB_LVGL/Middlewares/LVGL/GUI/lvgl/src/misc\lv_area.h **** } lv_dir_t;
  87:H:/STM32H7/RGB_LVGL/Middlewares/LVGL/GUI/lvgl/src/misc\lv_area.h **** 
  88:H:/STM32H7/RGB_LVGL/Middlewares/LVGL/GUI/lvgl/src/misc\lv_area.h **** /**********************
  89:H:/STM32H7/RGB_LVGL/Middlewares/LVGL/GUI/lvgl/src/misc\lv_area.h ****  * GLOBAL PROTOTYPES
  90:H:/STM32H7/RGB_LVGL/Middlewares/LVGL/GUI/lvgl/src/misc\lv_area.h ****  **********************/
  91:H:/STM32H7/RGB_LVGL/Middlewares/LVGL/GUI/lvgl/src/misc\lv_area.h **** 
  92:H:/STM32H7/RGB_LVGL/Middlewares/LVGL/GUI/lvgl/src/misc\lv_area.h **** /**
  93:H:/STM32H7/RGB_LVGL/Middlewares/LVGL/GUI/lvgl/src/misc\lv_area.h ****  * Initialize an area
  94:H:/STM32H7/RGB_LVGL/Middlewares/LVGL/GUI/lvgl/src/misc\lv_area.h ****  * @param area_p pointer to an area
  95:H:/STM32H7/RGB_LVGL/Middlewares/LVGL/GUI/lvgl/src/misc\lv_area.h ****  * @param x1 left coordinate of the area
  96:H:/STM32H7/RGB_LVGL/Middlewares/LVGL/GUI/lvgl/src/misc\lv_area.h ****  * @param y1 top coordinate of the area
  97:H:/STM32H7/RGB_LVGL/Middlewares/LVGL/GUI/lvgl/src/misc\lv_area.h ****  * @param x2 right coordinate of the area
  98:H:/STM32H7/RGB_LVGL/Middlewares/LVGL/GUI/lvgl/src/misc\lv_area.h ****  * @param y2 bottom coordinate of the area
  99:H:/STM32H7/RGB_LVGL/Middlewares/LVGL/GUI/lvgl/src/misc\lv_area.h ****  */
 100:H:/STM32H7/RGB_LVGL/Middlewares/LVGL/GUI/lvgl/src/misc\lv_area.h **** void lv_area_set(lv_area_t * area_p, int32_t x1, int32_t y1, int32_t x2, int32_t y2);
 101:H:/STM32H7/RGB_LVGL/Middlewares/LVGL/GUI/lvgl/src/misc\lv_area.h **** 
 102:H:/STM32H7/RGB_LVGL/Middlewares/LVGL/GUI/lvgl/src/misc\lv_area.h **** /**
 103:H:/STM32H7/RGB_LVGL/Middlewares/LVGL/GUI/lvgl/src/misc\lv_area.h ****  * Copy an area
 104:H:/STM32H7/RGB_LVGL/Middlewares/LVGL/GUI/lvgl/src/misc\lv_area.h ****  * @param dest pointer to the destination area
 105:H:/STM32H7/RGB_LVGL/Middlewares/LVGL/GUI/lvgl/src/misc\lv_area.h ****  * @param src pointer to the source area
 106:H:/STM32H7/RGB_LVGL/Middlewares/LVGL/GUI/lvgl/src/misc\lv_area.h ****  */
 107:H:/STM32H7/RGB_LVGL/Middlewares/LVGL/GUI/lvgl/src/misc\lv_area.h **** inline static void lv_area_copy(lv_area_t * dest, const lv_area_t * src)
 405              		.loc 3 107 20 view .LVU133
 406              	.LBB77:
 108:H:/STM32H7/RGB_LVGL/Middlewares/LVGL/GUI/lvgl/src/misc\lv_area.h **** {
 109:H:/STM32H7/RGB_LVGL/Middlewares/LVGL/GUI/lvgl/src/misc\lv_area.h ****     dest->x1 = src->x1;
 407              		.loc 3 109 5 view .LVU134
 408              		.loc 3 109 19 is_stmt 0 view .LVU135
 409 011c 3299     		ldr	r1, [sp, #200]
 410              		.loc 3 109 14 view .LVU136
 411 011e 2E91     		str	r1, [sp, #184]
 110:H:/STM32H7/RGB_LVGL/Middlewares/LVGL/GUI/lvgl/src/misc\lv_area.h ****     dest->y1 = src->y1;
 412              		.loc 3 110 5 is_stmt 1 view .LVU137
 413              		.loc 3 110 14 is_stmt 0 view .LVU138
 414 0120 2F92     		str	r2, [sp, #188]
 111:H:/STM32H7/RGB_LVGL/Middlewares/LVGL/GUI/lvgl/src/misc\lv_area.h ****     dest->x2 = src->x2;
 415              		.loc 3 111 5 is_stmt 1 view .LVU139
 416              		.loc 3 111 19 is_stmt 0 view .LVU140
 417 0122 349A     		ldr	r2, [sp, #208]
 418              		.loc 3 111 14 view .LVU141
 419 0124 3092     		str	r2, [sp, #192]
 112:H:/STM32H7/RGB_LVGL/Middlewares/LVGL/GUI/lvgl/src/misc\lv_area.h ****     dest->y2 = src->y2;
 420              		.loc 3 112 5 is_stmt 1 view .LVU142
 421              		.loc 3 112 14 is_stmt 0 view .LVU143
ARM GAS  C:\Users\28576\AppData\Local\Temp\ccRKCVo4.s 			page 28


 422 0126 3193     		str	r3, [sp, #196]
 423              	.LVL49:
 424              		.loc 3 112 14 view .LVU144
 425              	.LBE77:
 426              	.LBE76:
 256:../../Middlewares/LVGL/GUI/lvgl/src/widgets/checkbox/lv_checkbox.c ****     lv_area_increase(&marker_area_transf, transf_w, transf_h);
 427              		.loc 1 256 5 is_stmt 1 view .LVU145
 428 0128 2EAF     		add	r7, sp, #184
 429 012a 0B9A     		ldr	r2, [sp, #44]
 430 012c 0A99     		ldr	r1, [sp, #40]
 431 012e 3846     		mov	r0, r7
 432 0130 FFF7FEFF 		bl	lv_area_increase
 433              	.LVL50:
 257:../../Middlewares/LVGL/GUI/lvgl/src/widgets/checkbox/lv_checkbox.c **** 
 258:../../Middlewares/LVGL/GUI/lvgl/src/widgets/checkbox/lv_checkbox.c ****     lv_draw_rect(layer, &indic_dsc, &marker_area_transf);
 434              		.loc 1 258 5 view .LVU146
 435 0134 3A46     		mov	r2, r7
 436 0136 36A9     		add	r1, sp, #216
 437 0138 4046     		mov	r0, r8
 438 013a FFF7FEFF 		bl	lv_draw_rect
 439              	.LVL51:
 259:../../Middlewares/LVGL/GUI/lvgl/src/widgets/checkbox/lv_checkbox.c **** 
 260:../../Middlewares/LVGL/GUI/lvgl/src/widgets/checkbox/lv_checkbox.c ****     int32_t line_space = lv_obj_get_style_text_line_space(obj, LV_PART_MAIN);
 440              		.loc 1 260 5 view .LVU147
 441              	.LBB78:
 442              	.LBI78:
 562:H:/STM32H7/RGB_LVGL/Middlewares/LVGL/GUI/lvgl/src/core\lv_obj_style_gen.h **** {
 443              		.loc 2 562 23 view .LVU148
 444              	.LBB79:
 564:H:/STM32H7/RGB_LVGL/Middlewares/LVGL/GUI/lvgl/src/core\lv_obj_style_gen.h ****     return (int32_t)v.num;
 445              		.loc 2 564 5 view .LVU149
 564:H:/STM32H7/RGB_LVGL/Middlewares/LVGL/GUI/lvgl/src/core\lv_obj_style_gen.h ****     return (int32_t)v.num;
 446              		.loc 2 564 26 is_stmt 0 view .LVU150
 447 013e 5C22     		movs	r2, #92
 448 0140 0021     		movs	r1, #0
 449 0142 2046     		mov	r0, r4
 450 0144 FFF7FEFF 		bl	lv_obj_get_style_prop
 451              	.LVL52:
 452 0148 0746     		mov	r7, r0
 453 014a 0C90     		str	r0, [sp, #48]
 565:H:/STM32H7/RGB_LVGL/Middlewares/LVGL/GUI/lvgl/src/core\lv_obj_style_gen.h **** }
 454              		.loc 2 565 5 is_stmt 1 view .LVU151
 455              	.LVL53:
 565:H:/STM32H7/RGB_LVGL/Middlewares/LVGL/GUI/lvgl/src/core\lv_obj_style_gen.h **** }
 456              		.loc 2 565 5 is_stmt 0 view .LVU152
 457              	.LBE79:
 458              	.LBE78:
 261:../../Middlewares/LVGL/GUI/lvgl/src/widgets/checkbox/lv_checkbox.c ****     int32_t letter_space = lv_obj_get_style_text_letter_space(obj, LV_PART_MAIN);
 459              		.loc 1 261 5 is_stmt 1 view .LVU153
 460              	.LBB80:
 461              	.LBI80:
 556:H:/STM32H7/RGB_LVGL/Middlewares/LVGL/GUI/lvgl/src/core\lv_obj_style_gen.h **** {
 462              		.loc 2 556 23 view .LVU154
 463              	.LBB81:
 558:H:/STM32H7/RGB_LVGL/Middlewares/LVGL/GUI/lvgl/src/core\lv_obj_style_gen.h ****     return (int32_t)v.num;
 464              		.loc 2 558 5 view .LVU155
 558:H:/STM32H7/RGB_LVGL/Middlewares/LVGL/GUI/lvgl/src/core\lv_obj_style_gen.h ****     return (int32_t)v.num;
ARM GAS  C:\Users\28576\AppData\Local\Temp\ccRKCVo4.s 			page 29


 465              		.loc 2 558 26 is_stmt 0 view .LVU156
 466 014c 5B22     		movs	r2, #91
 467 014e 0021     		movs	r1, #0
 468 0150 2046     		mov	r0, r4
 469              	.LVL54:
 558:H:/STM32H7/RGB_LVGL/Middlewares/LVGL/GUI/lvgl/src/core\lv_obj_style_gen.h ****     return (int32_t)v.num;
 470              		.loc 2 558 26 view .LVU157
 471 0152 FFF7FEFF 		bl	lv_obj_get_style_prop
 472              	.LVL55:
 473 0156 0346     		mov	r3, r0
 474 0158 0C90     		str	r0, [sp, #48]
 559:H:/STM32H7/RGB_LVGL/Middlewares/LVGL/GUI/lvgl/src/core\lv_obj_style_gen.h **** }
 475              		.loc 2 559 5 is_stmt 1 view .LVU158
 476              	.LVL56:
 559:H:/STM32H7/RGB_LVGL/Middlewares/LVGL/GUI/lvgl/src/core\lv_obj_style_gen.h **** }
 477              		.loc 2 559 5 is_stmt 0 view .LVU159
 478              	.LBE81:
 479              	.LBE80:
 262:../../Middlewares/LVGL/GUI/lvgl/src/widgets/checkbox/lv_checkbox.c **** 
 263:../../Middlewares/LVGL/GUI/lvgl/src/widgets/checkbox/lv_checkbox.c ****     lv_point_t txt_size;
 480              		.loc 1 263 5 is_stmt 1 view .LVU160
 264:../../Middlewares/LVGL/GUI/lvgl/src/widgets/checkbox/lv_checkbox.c ****     lv_text_get_size(&txt_size, cb->txt, font, letter_space, line_space, LV_COORD_MAX, LV_TEXT_FLAG
 481              		.loc 1 264 5 view .LVU161
 482              		.loc 1 264 35 is_stmt 0 view .LVU162
 483 015a E16A     		ldr	r1, [r4, #44]
 484              		.loc 1 264 5 view .LVU163
 485 015c 4FF0000A 		mov	r10, #0
 486              	.LVL57:
 487              		.loc 1 264 5 view .LVU164
 488 0160 CDF808A0 		str	r10, [sp, #8]
 489 0164 6FF06042 		mvn	r2, #-536870912
 490 0168 0192     		str	r2, [sp, #4]
 491 016a 0097     		str	r7, [sp]
 492 016c 069A     		ldr	r2, [sp, #24]
 493 016e 2CA8     		add	r0, sp, #176
 494              	.LVL58:
 495              		.loc 1 264 5 view .LVU165
 496 0170 FFF7FEFF 		bl	lv_text_get_size
 497              	.LVL59:
 265:../../Middlewares/LVGL/GUI/lvgl/src/widgets/checkbox/lv_checkbox.c **** 
 266:../../Middlewares/LVGL/GUI/lvgl/src/widgets/checkbox/lv_checkbox.c ****     lv_draw_label_dsc_t txt_dsc;
 498              		.loc 1 266 5 is_stmt 1 view .LVU166
 267:../../Middlewares/LVGL/GUI/lvgl/src/widgets/checkbox/lv_checkbox.c ****     lv_draw_label_dsc_init(&txt_dsc);
 499              		.loc 1 267 5 view .LVU167
 500 0174 11AF     		add	r7, sp, #68
 501              	.LVL60:
 502              		.loc 1 267 5 is_stmt 0 view .LVU168
 503 0176 3846     		mov	r0, r7
 504 0178 FFF7FEFF 		bl	lv_draw_label_dsc_init
 505              	.LVL61:
 268:../../Middlewares/LVGL/GUI/lvgl/src/widgets/checkbox/lv_checkbox.c ****     txt_dsc.base.layer = layer;
 506              		.loc 1 268 5 is_stmt 1 view .LVU169
 507              		.loc 1 268 24 is_stmt 0 view .LVU170
 508 017c CDF85480 		str	r8, [sp, #84]
 269:../../Middlewares/LVGL/GUI/lvgl/src/widgets/checkbox/lv_checkbox.c ****     lv_obj_init_draw_label_dsc(obj, LV_PART_MAIN, &txt_dsc);
 509              		.loc 1 269 5 is_stmt 1 view .LVU171
 510 0180 3A46     		mov	r2, r7
ARM GAS  C:\Users\28576\AppData\Local\Temp\ccRKCVo4.s 			page 30


 511 0182 5146     		mov	r1, r10
 512 0184 2046     		mov	r0, r4
 513 0186 FFF7FEFF 		bl	lv_obj_init_draw_label_dsc
 514              	.LVL62:
 270:../../Middlewares/LVGL/GUI/lvgl/src/widgets/checkbox/lv_checkbox.c ****     txt_dsc.text = cb->txt;
 515              		.loc 1 270 5 view .LVU172
 516              		.loc 1 270 22 is_stmt 0 view .LVU173
 517 018a E36A     		ldr	r3, [r4, #44]
 518              		.loc 1 270 18 view .LVU174
 519 018c 1893     		str	r3, [sp, #96]
 271:../../Middlewares/LVGL/GUI/lvgl/src/widgets/checkbox/lv_checkbox.c **** 
 272:../../Middlewares/LVGL/GUI/lvgl/src/widgets/checkbox/lv_checkbox.c ****     int32_t y_ofs = (lv_area_get_height(&marker_area) - font_h) / 2;
 520              		.loc 1 272 5 is_stmt 1 view .LVU175
 521              		.loc 1 272 22 is_stmt 0 view .LVU176
 522 018e 32A8     		add	r0, sp, #200
 523 0190 FFF7FEFF 		bl	lv_area_get_height
 524              	.LVL63:
 525              		.loc 1 272 13 discriminator 1 view .LVU177
 526 0194 B0EB0900 		subs	r0, r0, r9
 527 0198 30D4     		bmi	.L12
 528              	.L6:
 529 019a 4010     		asrs	r0, r0, #1
 530              	.LVL64:
 273:../../Middlewares/LVGL/GUI/lvgl/src/widgets/checkbox/lv_checkbox.c ****     lv_area_t txt_area;
 531              		.loc 1 273 5 is_stmt 1 view .LVU178
 274:../../Middlewares/LVGL/GUI/lvgl/src/widgets/checkbox/lv_checkbox.c ****     if(is_rtl) {
 532              		.loc 1 274 5 view .LVU179
 533              		.loc 1 274 7 is_stmt 0 view .LVU180
 534 019c 012D     		cmp	r5, #1
 535 019e 2FD0     		beq	.L13
 275:../../Middlewares/LVGL/GUI/lvgl/src/widgets/checkbox/lv_checkbox.c ****         txt_area.x2 = marker_area.x1 - bg_colp;
 276:../../Middlewares/LVGL/GUI/lvgl/src/widgets/checkbox/lv_checkbox.c ****         txt_area.x1 = txt_area.x2 - txt_size.x;
 277:../../Middlewares/LVGL/GUI/lvgl/src/widgets/checkbox/lv_checkbox.c ****     }
 278:../../Middlewares/LVGL/GUI/lvgl/src/widgets/checkbox/lv_checkbox.c ****     else {
 279:../../Middlewares/LVGL/GUI/lvgl/src/widgets/checkbox/lv_checkbox.c ****         txt_area.x1 = marker_area.x2 + bg_colp;
 536              		.loc 1 279 9 is_stmt 1 view .LVU181
 537              		.loc 1 279 34 is_stmt 0 view .LVU182
 538 01a0 349B     		ldr	r3, [sp, #208]
 539              		.loc 1 279 38 view .LVU183
 540 01a2 079A     		ldr	r2, [sp, #28]
 541 01a4 1344     		add	r3, r3, r2
 542              		.loc 1 279 21 view .LVU184
 543 01a6 0D93     		str	r3, [sp, #52]
 280:../../Middlewares/LVGL/GUI/lvgl/src/widgets/checkbox/lv_checkbox.c ****         txt_area.x2 = txt_area.x1 + txt_size.x;
 544              		.loc 1 280 9 is_stmt 1 view .LVU185
 545              		.loc 1 280 45 is_stmt 0 view .LVU186
 546 01a8 2C99     		ldr	r1, [sp, #176]
 547              		.loc 1 280 35 view .LVU187
 548 01aa 0B44     		add	r3, r3, r1
 549              		.loc 1 280 21 view .LVU188
 550 01ac 0F93     		str	r3, [sp, #60]
 551              	.L8:
 281:../../Middlewares/LVGL/GUI/lvgl/src/widgets/checkbox/lv_checkbox.c ****     }
 282:../../Middlewares/LVGL/GUI/lvgl/src/widgets/checkbox/lv_checkbox.c ****     txt_area.y1 = obj->coords.y1 + bg_topp + y_ofs;
 552              		.loc 1 282 5 is_stmt 1 view .LVU189
 553              		.loc 1 282 30 is_stmt 0 view .LVU190
 554 01ae A369     		ldr	r3, [r4, #24]
ARM GAS  C:\Users\28576\AppData\Local\Temp\ccRKCVo4.s 			page 31


 555              		.loc 1 282 34 view .LVU191
 556 01b0 3344     		add	r3, r3, r6
 557              		.loc 1 282 44 view .LVU192
 558 01b2 0344     		add	r3, r3, r0
 559              		.loc 1 282 17 view .LVU193
 560 01b4 0DAA     		add	r2, sp, #52
 561 01b6 5360     		str	r3, [r2, #4]
 283:../../Middlewares/LVGL/GUI/lvgl/src/widgets/checkbox/lv_checkbox.c ****     txt_area.y2 = txt_area.y1 + txt_size.y;
 562              		.loc 1 283 5 is_stmt 1 view .LVU194
 563              		.loc 1 283 41 is_stmt 0 view .LVU195
 564 01b8 2D99     		ldr	r1, [sp, #180]
 565              		.loc 1 283 31 view .LVU196
 566 01ba 0B44     		add	r3, r3, r1
 567              		.loc 1 283 17 view .LVU197
 568 01bc D360     		str	r3, [r2, #12]
 284:../../Middlewares/LVGL/GUI/lvgl/src/widgets/checkbox/lv_checkbox.c **** 
 285:../../Middlewares/LVGL/GUI/lvgl/src/widgets/checkbox/lv_checkbox.c ****     lv_draw_label(layer, &txt_dsc, &txt_area);
 569              		.loc 1 285 5 is_stmt 1 view .LVU198
 570 01be 11A9     		add	r1, sp, #68
 571 01c0 4046     		mov	r0, r8
 572              	.LVL65:
 573              		.loc 1 285 5 is_stmt 0 view .LVU199
 574 01c2 FFF7FEFF 		bl	lv_draw_label
 575              	.LVL66:
 286:../../Middlewares/LVGL/GUI/lvgl/src/widgets/checkbox/lv_checkbox.c **** }
 576              		.loc 1 286 1 view .LVU200
 577 01c6 53B0     		add	sp, sp, #332
 578              	.LCFI2:
 579              		.cfi_remember_state
 580              		.cfi_def_cfa_offset 36
 581              		@ sp needed
 582 01c8 BDE8F08F 		pop	{r4, r5, r6, r7, r8, r9, r10, fp, pc}
 583              	.LVL67:
 584              	.L10:
 585              	.LCFI3:
 586              		.cfi_restore_state
 587              		.loc 1 286 1 view .LVU201
 588 01cc 0DF1300A 		add	r10, sp, #48
 589              	.LVL68:
 590              	.LBB82:
 591              	.LBI82:
 172:H:/STM32H7/RGB_LVGL/Middlewares/LVGL/GUI/lvgl/src/core\lv_obj_style_gen.h **** {
 592              		.loc 2 172 23 is_stmt 1 view .LVU202
 593              	.LBB83:
 174:H:/STM32H7/RGB_LVGL/Middlewares/LVGL/GUI/lvgl/src/core\lv_obj_style_gen.h ****     return (int32_t)v.num;
 594              		.loc 2 174 5 view .LVU203
 174:H:/STM32H7/RGB_LVGL/Middlewares/LVGL/GUI/lvgl/src/core\lv_obj_style_gen.h ****     return (int32_t)v.num;
 595              		.loc 2 174 26 is_stmt 0 view .LVU204
 596 01d0 1322     		movs	r2, #19
 597 01d2 0021     		movs	r1, #0
 598 01d4 2046     		mov	r0, r4
 599 01d6 FFF7FEFF 		bl	lv_obj_get_style_prop
 600              	.LVL69:
 601 01da CAF80000 		str	r0, [r10]
 175:H:/STM32H7/RGB_LVGL/Middlewares/LVGL/GUI/lvgl/src/core\lv_obj_style_gen.h **** }
 602              		.loc 2 175 5 is_stmt 1 view .LVU205
 175:H:/STM32H7/RGB_LVGL/Middlewares/LVGL/GUI/lvgl/src/core\lv_obj_style_gen.h **** }
ARM GAS  C:\Users\28576\AppData\Local\Temp\ccRKCVo4.s 			page 32


 603              		.loc 2 175 12 is_stmt 0 view .LVU206
 604 01de 0590     		str	r0, [sp, #20]
 605              	.LVL70:
 175:H:/STM32H7/RGB_LVGL/Middlewares/LVGL/GUI/lvgl/src/core\lv_obj_style_gen.h **** }
 606              		.loc 2 175 12 view .LVU207
 607              	.LBE83:
 608              	.LBE82:
 609 01e0 43E7     		b	.L3
 610              	.LVL71:
 611              	.L11:
 244:../../Middlewares/LVGL/GUI/lvgl/src/widgets/checkbox/lv_checkbox.c ****         marker_area.x1 = marker_area.x2 - font_h - marker_leftp - marker_rightp + 1;
 612              		.loc 1 244 9 is_stmt 1 view .LVU208
 244:../../Middlewares/LVGL/GUI/lvgl/src/widgets/checkbox/lv_checkbox.c ****         marker_area.x1 = marker_area.x2 - font_h - marker_leftp - marker_rightp + 1;
 613              		.loc 1 244 37 is_stmt 0 view .LVU209
 614 01e2 E369     		ldr	r3, [r4, #28]
 244:../../Middlewares/LVGL/GUI/lvgl/src/widgets/checkbox/lv_checkbox.c ****         marker_area.x1 = marker_area.x2 - font_h - marker_leftp - marker_rightp + 1;
 615              		.loc 1 244 41 view .LVU210
 616 01e4 059A     		ldr	r2, [sp, #20]
 617 01e6 9B1A     		subs	r3, r3, r2
 244:../../Middlewares/LVGL/GUI/lvgl/src/widgets/checkbox/lv_checkbox.c ****         marker_area.x1 = marker_area.x2 - font_h - marker_leftp - marker_rightp + 1;
 618              		.loc 1 244 24 view .LVU211
 619 01e8 3493     		str	r3, [sp, #208]
 245:../../Middlewares/LVGL/GUI/lvgl/src/widgets/checkbox/lv_checkbox.c ****     }
 620              		.loc 1 245 9 is_stmt 1 view .LVU212
 245:../../Middlewares/LVGL/GUI/lvgl/src/widgets/checkbox/lv_checkbox.c ****     }
 621              		.loc 1 245 41 is_stmt 0 view .LVU213
 622 01ea A3EB0903 		sub	r3, r3, r9
 245:../../Middlewares/LVGL/GUI/lvgl/src/widgets/checkbox/lv_checkbox.c ****     }
 623              		.loc 1 245 50 view .LVU214
 624 01ee 089A     		ldr	r2, [sp, #32]
 625 01f0 9B1A     		subs	r3, r3, r2
 245:../../Middlewares/LVGL/GUI/lvgl/src/widgets/checkbox/lv_checkbox.c ****     }
 626              		.loc 1 245 65 view .LVU215
 627 01f2 099A     		ldr	r2, [sp, #36]
 628 01f4 9B1A     		subs	r3, r3, r2
 245:../../Middlewares/LVGL/GUI/lvgl/src/widgets/checkbox/lv_checkbox.c ****     }
 629              		.loc 1 245 81 view .LVU216
 630 01f6 0133     		adds	r3, r3, #1
 245:../../Middlewares/LVGL/GUI/lvgl/src/widgets/checkbox/lv_checkbox.c ****     }
 631              		.loc 1 245 24 view .LVU217
 632 01f8 3293     		str	r3, [sp, #200]
 633 01fa 86E7     		b	.L5
 634              	.LVL72:
 635              	.L12:
 272:../../Middlewares/LVGL/GUI/lvgl/src/widgets/checkbox/lv_checkbox.c ****     lv_area_t txt_area;
 636              		.loc 1 272 13 discriminator 1 view .LVU218
 637 01fc 0130     		adds	r0, r0, #1
 638 01fe CCE7     		b	.L6
 639              	.LVL73:
 640              	.L13:
 275:../../Middlewares/LVGL/GUI/lvgl/src/widgets/checkbox/lv_checkbox.c ****         txt_area.x1 = txt_area.x2 - txt_size.x;
 641              		.loc 1 275 9 is_stmt 1 view .LVU219
 275:../../Middlewares/LVGL/GUI/lvgl/src/widgets/checkbox/lv_checkbox.c ****         txt_area.x1 = txt_area.x2 - txt_size.x;
 642              		.loc 1 275 34 is_stmt 0 view .LVU220
 643 0200 329B     		ldr	r3, [sp, #200]
 275:../../Middlewares/LVGL/GUI/lvgl/src/widgets/checkbox/lv_checkbox.c ****         txt_area.x1 = txt_area.x2 - txt_size.x;
 644              		.loc 1 275 38 view .LVU221
ARM GAS  C:\Users\28576\AppData\Local\Temp\ccRKCVo4.s 			page 33


 645 0202 079A     		ldr	r2, [sp, #28]
 646 0204 9B1A     		subs	r3, r3, r2
 275:../../Middlewares/LVGL/GUI/lvgl/src/widgets/checkbox/lv_checkbox.c ****         txt_area.x1 = txt_area.x2 - txt_size.x;
 647              		.loc 1 275 21 view .LVU222
 648 0206 0F93     		str	r3, [sp, #60]
 276:../../Middlewares/LVGL/GUI/lvgl/src/widgets/checkbox/lv_checkbox.c ****     }
 649              		.loc 1 276 9 is_stmt 1 view .LVU223
 276:../../Middlewares/LVGL/GUI/lvgl/src/widgets/checkbox/lv_checkbox.c ****     }
 650              		.loc 1 276 45 is_stmt 0 view .LVU224
 651 0208 2C99     		ldr	r1, [sp, #176]
 276:../../Middlewares/LVGL/GUI/lvgl/src/widgets/checkbox/lv_checkbox.c ****     }
 652              		.loc 1 276 35 view .LVU225
 653 020a 5B1A     		subs	r3, r3, r1
 276:../../Middlewares/LVGL/GUI/lvgl/src/widgets/checkbox/lv_checkbox.c ****     }
 654              		.loc 1 276 21 view .LVU226
 655 020c 0D93     		str	r3, [sp, #52]
 656 020e CEE7     		b	.L8
 657              		.cfi_endproc
 658              	.LFE179:
 660              		.section	.text.lv_checkbox_event,"ax",%progbits
 661              		.align	1
 662              		.syntax unified
 663              		.thumb
 664              		.thumb_func
 666              	lv_checkbox_event:
 667              	.LVL74:
 668              	.LFB178:
 168:../../Middlewares/LVGL/GUI/lvgl/src/widgets/checkbox/lv_checkbox.c ****     LV_UNUSED(class_p);
 669              		.loc 1 168 1 is_stmt 1 view -0
 670              		.cfi_startproc
 671              		@ args = 0, pretend = 0, frame = 16
 672              		@ frame_needed = 0, uses_anonymous_args = 0
 168:../../Middlewares/LVGL/GUI/lvgl/src/widgets/checkbox/lv_checkbox.c ****     LV_UNUSED(class_p);
 673              		.loc 1 168 1 is_stmt 0 view .LVU228
 674 0000 2DE9F047 		push	{r4, r5, r6, r7, r8, r9, r10, lr}
 675              	.LCFI4:
 676              		.cfi_def_cfa_offset 32
 677              		.cfi_offset 4, -32
 678              		.cfi_offset 5, -28
 679              		.cfi_offset 6, -24
 680              		.cfi_offset 7, -20
 681              		.cfi_offset 8, -16
 682              		.cfi_offset 9, -12
 683              		.cfi_offset 10, -8
 684              		.cfi_offset 14, -4
 685 0004 88B0     		sub	sp, sp, #32
 686              	.LCFI5:
 687              		.cfi_def_cfa_offset 64
 688 0006 0D46     		mov	r5, r1
 169:../../Middlewares/LVGL/GUI/lvgl/src/widgets/checkbox/lv_checkbox.c **** 
 689              		.loc 1 169 5 is_stmt 1 view .LVU229
 171:../../Middlewares/LVGL/GUI/lvgl/src/widgets/checkbox/lv_checkbox.c ****     /*Call the ancestor's event handler*/
 690              		.loc 1 171 5 view .LVU230
 173:../../Middlewares/LVGL/GUI/lvgl/src/widgets/checkbox/lv_checkbox.c ****     if(res != LV_RESULT_OK) return;
 691              		.loc 1 173 5 view .LVU231
 173:../../Middlewares/LVGL/GUI/lvgl/src/widgets/checkbox/lv_checkbox.c ****     if(res != LV_RESULT_OK) return;
 692              		.loc 1 173 11 is_stmt 0 view .LVU232
ARM GAS  C:\Users\28576\AppData\Local\Temp\ccRKCVo4.s 			page 34


 693 0008 4448     		ldr	r0, .L22
 694              	.LVL75:
 173:../../Middlewares/LVGL/GUI/lvgl/src/widgets/checkbox/lv_checkbox.c ****     if(res != LV_RESULT_OK) return;
 695              		.loc 1 173 11 view .LVU233
 696 000a FFF7FEFF 		bl	lv_obj_event_base
 697              	.LVL76:
 174:../../Middlewares/LVGL/GUI/lvgl/src/widgets/checkbox/lv_checkbox.c **** 
 698              		.loc 1 174 5 is_stmt 1 view .LVU234
 174:../../Middlewares/LVGL/GUI/lvgl/src/widgets/checkbox/lv_checkbox.c **** 
 699              		.loc 1 174 7 is_stmt 0 view .LVU235
 700 000e 0128     		cmp	r0, #1
 701 0010 02D0     		beq	.L19
 702              	.LVL77:
 703              	.L14:
 211:../../Middlewares/LVGL/GUI/lvgl/src/widgets/checkbox/lv_checkbox.c **** 
 704              		.loc 1 211 1 view .LVU236
 705 0012 08B0     		add	sp, sp, #32
 706              	.LCFI6:
 707              		.cfi_remember_state
 708              		.cfi_def_cfa_offset 32
 709              		@ sp needed
 710 0014 BDE8F087 		pop	{r4, r5, r6, r7, r8, r9, r10, pc}
 711              	.LVL78:
 712              	.L19:
 713              	.LCFI7:
 714              		.cfi_restore_state
 176:../../Middlewares/LVGL/GUI/lvgl/src/widgets/checkbox/lv_checkbox.c ****     lv_obj_t * obj = lv_event_get_current_target(e);
 715              		.loc 1 176 5 is_stmt 1 view .LVU237
 176:../../Middlewares/LVGL/GUI/lvgl/src/widgets/checkbox/lv_checkbox.c ****     lv_obj_t * obj = lv_event_get_current_target(e);
 716              		.loc 1 176 28 is_stmt 0 view .LVU238
 717 0018 2846     		mov	r0, r5
 718              	.LVL79:
 176:../../Middlewares/LVGL/GUI/lvgl/src/widgets/checkbox/lv_checkbox.c ****     lv_obj_t * obj = lv_event_get_current_target(e);
 719              		.loc 1 176 28 view .LVU239
 720 001a FFF7FEFF 		bl	lv_event_get_code
 721              	.LVL80:
 722 001e 0446     		mov	r4, r0
 723              	.LVL81:
 177:../../Middlewares/LVGL/GUI/lvgl/src/widgets/checkbox/lv_checkbox.c **** 
 724              		.loc 1 177 5 is_stmt 1 view .LVU240
 177:../../Middlewares/LVGL/GUI/lvgl/src/widgets/checkbox/lv_checkbox.c **** 
 725              		.loc 1 177 22 is_stmt 0 view .LVU241
 726 0020 2846     		mov	r0, r5
 727              	.LVL82:
 177:../../Middlewares/LVGL/GUI/lvgl/src/widgets/checkbox/lv_checkbox.c **** 
 728              		.loc 1 177 22 view .LVU242
 729 0022 FFF7FEFF 		bl	lv_event_get_current_target
 730              	.LVL83:
 731 0026 0646     		mov	r6, r0
 732              	.LVL84:
 179:../../Middlewares/LVGL/GUI/lvgl/src/widgets/checkbox/lv_checkbox.c ****         lv_point_t * p = lv_event_get_param(e);
 733              		.loc 1 179 5 is_stmt 1 view .LVU243
 179:../../Middlewares/LVGL/GUI/lvgl/src/widgets/checkbox/lv_checkbox.c ****         lv_point_t * p = lv_event_get_param(e);
 734              		.loc 1 179 7 is_stmt 0 view .LVU244
 735 0028 342C     		cmp	r4, #52
 736 002a 07D0     		beq	.L20
 203:../../Middlewares/LVGL/GUI/lvgl/src/widgets/checkbox/lv_checkbox.c ****         int32_t * s = lv_event_get_param(e);
ARM GAS  C:\Users\28576\AppData\Local\Temp\ccRKCVo4.s 			page 35


 737              		.loc 1 203 10 is_stmt 1 view .LVU245
 203:../../Middlewares/LVGL/GUI/lvgl/src/widgets/checkbox/lv_checkbox.c ****         int32_t * s = lv_event_get_param(e);
 738              		.loc 1 203 12 is_stmt 0 view .LVU246
 739 002c 1B2C     		cmp	r4, #27
 740 002e 66D0     		beq	.L21
 208:../../Middlewares/LVGL/GUI/lvgl/src/widgets/checkbox/lv_checkbox.c ****         lv_checkbox_draw(e);
 741              		.loc 1 208 10 is_stmt 1 view .LVU247
 208:../../Middlewares/LVGL/GUI/lvgl/src/widgets/checkbox/lv_checkbox.c ****         lv_checkbox_draw(e);
 742              		.loc 1 208 12 is_stmt 0 view .LVU248
 743 0030 1D2C     		cmp	r4, #29
 744 0032 EED1     		bne	.L14
 209:../../Middlewares/LVGL/GUI/lvgl/src/widgets/checkbox/lv_checkbox.c ****     }
 745              		.loc 1 209 9 is_stmt 1 view .LVU249
 746 0034 2846     		mov	r0, r5
 747              	.LVL85:
 209:../../Middlewares/LVGL/GUI/lvgl/src/widgets/checkbox/lv_checkbox.c ****     }
 748              		.loc 1 209 9 is_stmt 0 view .LVU250
 749 0036 FFF7FEFF 		bl	lv_checkbox_draw
 750              	.LVL86:
 751 003a EAE7     		b	.L14
 752              	.LVL87:
 753              	.L20:
 754              	.LBB84:
 180:../../Middlewares/LVGL/GUI/lvgl/src/widgets/checkbox/lv_checkbox.c ****         lv_checkbox_t * cb = (lv_checkbox_t *)obj;
 755              		.loc 1 180 9 is_stmt 1 view .LVU251
 180:../../Middlewares/LVGL/GUI/lvgl/src/widgets/checkbox/lv_checkbox.c ****         lv_checkbox_t * cb = (lv_checkbox_t *)obj;
 756              		.loc 1 180 26 is_stmt 0 view .LVU252
 757 003c 2846     		mov	r0, r5
 758              	.LVL88:
 180:../../Middlewares/LVGL/GUI/lvgl/src/widgets/checkbox/lv_checkbox.c ****         lv_checkbox_t * cb = (lv_checkbox_t *)obj;
 759              		.loc 1 180 26 view .LVU253
 760 003e FFF7FEFF 		bl	lv_event_get_param
 761              	.LVL89:
 762 0042 8246     		mov	r10, r0
 763              	.LVL90:
 181:../../Middlewares/LVGL/GUI/lvgl/src/widgets/checkbox/lv_checkbox.c **** 
 764              		.loc 1 181 9 is_stmt 1 view .LVU254
 183:../../Middlewares/LVGL/GUI/lvgl/src/widgets/checkbox/lv_checkbox.c ****         int32_t font_h = lv_font_get_line_height(font);
 765              		.loc 1 183 9 view .LVU255
 766              	.LBB85:
 767              	.LBI85:
 550:H:/STM32H7/RGB_LVGL/Middlewares/LVGL/GUI/lvgl/src/core\lv_obj_style_gen.h **** {
 768              		.loc 2 550 33 view .LVU256
 769              	.LBB86:
 552:H:/STM32H7/RGB_LVGL/Middlewares/LVGL/GUI/lvgl/src/core\lv_obj_style_gen.h ****     return (const lv_font_t *)v.ptr;
 770              		.loc 2 552 5 view .LVU257
 552:H:/STM32H7/RGB_LVGL/Middlewares/LVGL/GUI/lvgl/src/core\lv_obj_style_gen.h ****     return (const lv_font_t *)v.ptr;
 771              		.loc 2 552 26 is_stmt 0 view .LVU258
 772 0044 5A22     		movs	r2, #90
 773 0046 0021     		movs	r1, #0
 774 0048 3046     		mov	r0, r6
 775              	.LVL91:
 552:H:/STM32H7/RGB_LVGL/Middlewares/LVGL/GUI/lvgl/src/core\lv_obj_style_gen.h ****     return (const lv_font_t *)v.ptr;
 776              		.loc 2 552 26 view .LVU259
 777 004a FFF7FEFF 		bl	lv_obj_get_style_prop
 778              	.LVL92:
 779 004e 0446     		mov	r4, r0
ARM GAS  C:\Users\28576\AppData\Local\Temp\ccRKCVo4.s 			page 36


 780              	.LVL93:
 552:H:/STM32H7/RGB_LVGL/Middlewares/LVGL/GUI/lvgl/src/core\lv_obj_style_gen.h ****     return (const lv_font_t *)v.ptr;
 781              		.loc 2 552 26 view .LVU260
 782 0050 0690     		str	r0, [sp, #24]
 553:H:/STM32H7/RGB_LVGL/Middlewares/LVGL/GUI/lvgl/src/core\lv_obj_style_gen.h **** }
 783              		.loc 2 553 5 is_stmt 1 view .LVU261
 784              	.LVL94:
 553:H:/STM32H7/RGB_LVGL/Middlewares/LVGL/GUI/lvgl/src/core\lv_obj_style_gen.h **** }
 785              		.loc 2 553 5 is_stmt 0 view .LVU262
 786              	.LBE86:
 787              	.LBE85:
 184:../../Middlewares/LVGL/GUI/lvgl/src/widgets/checkbox/lv_checkbox.c ****         int32_t line_space = lv_obj_get_style_text_line_space(obj, LV_PART_MAIN);
 788              		.loc 1 184 9 is_stmt 1 view .LVU263
 184:../../Middlewares/LVGL/GUI/lvgl/src/widgets/checkbox/lv_checkbox.c ****         int32_t line_space = lv_obj_get_style_text_line_space(obj, LV_PART_MAIN);
 789              		.loc 1 184 26 is_stmt 0 view .LVU264
 790 0052 FFF7FEFF 		bl	lv_font_get_line_height
 791              	.LVL95:
 184:../../Middlewares/LVGL/GUI/lvgl/src/widgets/checkbox/lv_checkbox.c ****         int32_t line_space = lv_obj_get_style_text_line_space(obj, LV_PART_MAIN);
 792              		.loc 1 184 26 view .LVU265
 793 0056 8146     		mov	r9, r0
 794              	.LVL96:
 185:../../Middlewares/LVGL/GUI/lvgl/src/widgets/checkbox/lv_checkbox.c ****         int32_t letter_space = lv_obj_get_style_text_letter_space(obj, LV_PART_MAIN);
 795              		.loc 1 185 9 is_stmt 1 view .LVU266
 796              	.LBB87:
 797              	.LBI87:
 562:H:/STM32H7/RGB_LVGL/Middlewares/LVGL/GUI/lvgl/src/core\lv_obj_style_gen.h **** {
 798              		.loc 2 562 23 view .LVU267
 799              	.LBB88:
 564:H:/STM32H7/RGB_LVGL/Middlewares/LVGL/GUI/lvgl/src/core\lv_obj_style_gen.h ****     return (int32_t)v.num;
 800              		.loc 2 564 5 view .LVU268
 564:H:/STM32H7/RGB_LVGL/Middlewares/LVGL/GUI/lvgl/src/core\lv_obj_style_gen.h ****     return (int32_t)v.num;
 801              		.loc 2 564 26 is_stmt 0 view .LVU269
 802 0058 5C22     		movs	r2, #92
 803 005a 0021     		movs	r1, #0
 804 005c 3046     		mov	r0, r6
 805              	.LVL97:
 564:H:/STM32H7/RGB_LVGL/Middlewares/LVGL/GUI/lvgl/src/core\lv_obj_style_gen.h ****     return (int32_t)v.num;
 806              		.loc 2 564 26 view .LVU270
 807 005e FFF7FEFF 		bl	lv_obj_get_style_prop
 808              	.LVL98:
 809 0062 0546     		mov	r5, r0
 810              	.LVL99:
 564:H:/STM32H7/RGB_LVGL/Middlewares/LVGL/GUI/lvgl/src/core\lv_obj_style_gen.h ****     return (int32_t)v.num;
 811              		.loc 2 564 26 view .LVU271
 812 0064 0690     		str	r0, [sp, #24]
 565:H:/STM32H7/RGB_LVGL/Middlewares/LVGL/GUI/lvgl/src/core\lv_obj_style_gen.h **** }
 813              		.loc 2 565 5 is_stmt 1 view .LVU272
 814              	.LVL100:
 565:H:/STM32H7/RGB_LVGL/Middlewares/LVGL/GUI/lvgl/src/core\lv_obj_style_gen.h **** }
 815              		.loc 2 565 5 is_stmt 0 view .LVU273
 816              	.LBE88:
 817              	.LBE87:
 186:../../Middlewares/LVGL/GUI/lvgl/src/widgets/checkbox/lv_checkbox.c **** 
 818              		.loc 1 186 9 is_stmt 1 view .LVU274
 819              	.LBB89:
 820              	.LBI89:
 556:H:/STM32H7/RGB_LVGL/Middlewares/LVGL/GUI/lvgl/src/core\lv_obj_style_gen.h **** {
ARM GAS  C:\Users\28576\AppData\Local\Temp\ccRKCVo4.s 			page 37


 821              		.loc 2 556 23 view .LVU275
 822              	.LBB90:
 558:H:/STM32H7/RGB_LVGL/Middlewares/LVGL/GUI/lvgl/src/core\lv_obj_style_gen.h ****     return (int32_t)v.num;
 823              		.loc 2 558 5 view .LVU276
 558:H:/STM32H7/RGB_LVGL/Middlewares/LVGL/GUI/lvgl/src/core\lv_obj_style_gen.h ****     return (int32_t)v.num;
 824              		.loc 2 558 26 is_stmt 0 view .LVU277
 825 0066 5B22     		movs	r2, #91
 826 0068 0021     		movs	r1, #0
 827 006a 3046     		mov	r0, r6
 828              	.LVL101:
 558:H:/STM32H7/RGB_LVGL/Middlewares/LVGL/GUI/lvgl/src/core\lv_obj_style_gen.h ****     return (int32_t)v.num;
 829              		.loc 2 558 26 view .LVU278
 830 006c FFF7FEFF 		bl	lv_obj_get_style_prop
 831              	.LVL102:
 832 0070 0346     		mov	r3, r0
 833 0072 0690     		str	r0, [sp, #24]
 559:H:/STM32H7/RGB_LVGL/Middlewares/LVGL/GUI/lvgl/src/core\lv_obj_style_gen.h **** }
 834              		.loc 2 559 5 is_stmt 1 view .LVU279
 835              	.LVL103:
 559:H:/STM32H7/RGB_LVGL/Middlewares/LVGL/GUI/lvgl/src/core\lv_obj_style_gen.h **** }
 836              		.loc 2 559 5 is_stmt 0 view .LVU280
 837              	.LBE90:
 838              	.LBE89:
 188:../../Middlewares/LVGL/GUI/lvgl/src/widgets/checkbox/lv_checkbox.c ****         lv_text_get_size(&txt_size, cb->txt, font, letter_space, line_space, LV_COORD_MAX, LV_TEXT_
 839              		.loc 1 188 9 is_stmt 1 view .LVU281
 189:../../Middlewares/LVGL/GUI/lvgl/src/widgets/checkbox/lv_checkbox.c **** 
 840              		.loc 1 189 9 view .LVU282
 189:../../Middlewares/LVGL/GUI/lvgl/src/widgets/checkbox/lv_checkbox.c **** 
 841              		.loc 1 189 39 is_stmt 0 view .LVU283
 842 0074 F16A     		ldr	r1, [r6, #44]
 189:../../Middlewares/LVGL/GUI/lvgl/src/widgets/checkbox/lv_checkbox.c **** 
 843              		.loc 1 189 9 view .LVU284
 844 0076 0027     		movs	r7, #0
 845 0078 0297     		str	r7, [sp, #8]
 846 007a 6FF06042 		mvn	r2, #-536870912
 847 007e 0192     		str	r2, [sp, #4]
 848 0080 0095     		str	r5, [sp]
 849 0082 2246     		mov	r2, r4
 850 0084 04A8     		add	r0, sp, #16
 851              	.LVL104:
 189:../../Middlewares/LVGL/GUI/lvgl/src/widgets/checkbox/lv_checkbox.c **** 
 852              		.loc 1 189 9 view .LVU285
 853 0086 FFF7FEFF 		bl	lv_text_get_size
 854              	.LVL105:
 191:../../Middlewares/LVGL/GUI/lvgl/src/widgets/checkbox/lv_checkbox.c ****         int32_t marker_leftp = lv_obj_get_style_pad_left(obj, LV_PART_INDICATOR);
 855              		.loc 1 191 9 is_stmt 1 view .LVU286
 856              	.LBB91:
 857              	.LBI91:
 184:H:/STM32H7/RGB_LVGL/Middlewares/LVGL/GUI/lvgl/src/core\lv_obj_style_gen.h **** {
 858              		.loc 2 184 23 view .LVU287
 859              	.LBB92:
 186:H:/STM32H7/RGB_LVGL/Middlewares/LVGL/GUI/lvgl/src/core\lv_obj_style_gen.h ****     return (int32_t)v.num;
 860              		.loc 2 186 5 view .LVU288
 186:H:/STM32H7/RGB_LVGL/Middlewares/LVGL/GUI/lvgl/src/core\lv_obj_style_gen.h ****     return (int32_t)v.num;
 861              		.loc 2 186 26 is_stmt 0 view .LVU289
 862 008a 1522     		movs	r2, #21
 863 008c 3946     		mov	r1, r7
ARM GAS  C:\Users\28576\AppData\Local\Temp\ccRKCVo4.s 			page 38


 864 008e 3046     		mov	r0, r6
 865 0090 FFF7FEFF 		bl	lv_obj_get_style_prop
 866              	.LVL106:
 867 0094 0446     		mov	r4, r0
 868              	.LVL107:
 186:H:/STM32H7/RGB_LVGL/Middlewares/LVGL/GUI/lvgl/src/core\lv_obj_style_gen.h ****     return (int32_t)v.num;
 869              		.loc 2 186 26 view .LVU290
 870 0096 0690     		str	r0, [sp, #24]
 187:H:/STM32H7/RGB_LVGL/Middlewares/LVGL/GUI/lvgl/src/core\lv_obj_style_gen.h **** }
 871              		.loc 2 187 5 is_stmt 1 view .LVU291
 872              	.LVL108:
 187:H:/STM32H7/RGB_LVGL/Middlewares/LVGL/GUI/lvgl/src/core\lv_obj_style_gen.h **** }
 873              		.loc 2 187 5 is_stmt 0 view .LVU292
 874              	.LBE92:
 875              	.LBE91:
 192:../../Middlewares/LVGL/GUI/lvgl/src/widgets/checkbox/lv_checkbox.c ****         int32_t marker_rightp = lv_obj_get_style_pad_right(obj, LV_PART_INDICATOR);
 876              		.loc 1 192 9 is_stmt 1 view .LVU293
 877              	.LBB93:
 878              	.LBI93:
 166:H:/STM32H7/RGB_LVGL/Middlewares/LVGL/GUI/lvgl/src/core\lv_obj_style_gen.h **** {
 879              		.loc 2 166 23 view .LVU294
 880              	.LBB94:
 168:H:/STM32H7/RGB_LVGL/Middlewares/LVGL/GUI/lvgl/src/core\lv_obj_style_gen.h ****     return (int32_t)v.num;
 881              		.loc 2 168 5 view .LVU295
 168:H:/STM32H7/RGB_LVGL/Middlewares/LVGL/GUI/lvgl/src/core\lv_obj_style_gen.h ****     return (int32_t)v.num;
 882              		.loc 2 168 26 is_stmt 0 view .LVU296
 883 0098 1222     		movs	r2, #18
 884 009a 4FF40031 		mov	r1, #131072
 885 009e B046     		mov	r8, r6
 886 00a0 3046     		mov	r0, r6
 887              	.LVL109:
 168:H:/STM32H7/RGB_LVGL/Middlewares/LVGL/GUI/lvgl/src/core\lv_obj_style_gen.h ****     return (int32_t)v.num;
 888              		.loc 2 168 26 view .LVU297
 889 00a2 FFF7FEFF 		bl	lv_obj_get_style_prop
 890              	.LVL110:
 891 00a6 0546     		mov	r5, r0
 892              	.LVL111:
 168:H:/STM32H7/RGB_LVGL/Middlewares/LVGL/GUI/lvgl/src/core\lv_obj_style_gen.h ****     return (int32_t)v.num;
 893              		.loc 2 168 26 view .LVU298
 894 00a8 0690     		str	r0, [sp, #24]
 169:H:/STM32H7/RGB_LVGL/Middlewares/LVGL/GUI/lvgl/src/core\lv_obj_style_gen.h **** }
 895              		.loc 2 169 5 is_stmt 1 view .LVU299
 896              	.LVL112:
 169:H:/STM32H7/RGB_LVGL/Middlewares/LVGL/GUI/lvgl/src/core\lv_obj_style_gen.h **** }
 897              		.loc 2 169 5 is_stmt 0 view .LVU300
 898              	.LBE94:
 899              	.LBE93:
 193:../../Middlewares/LVGL/GUI/lvgl/src/widgets/checkbox/lv_checkbox.c ****         int32_t marker_topp = lv_obj_get_style_pad_top(obj, LV_PART_INDICATOR);
 900              		.loc 1 193 9 is_stmt 1 view .LVU301
 901              	.LBB95:
 902              	.LBI95:
 172:H:/STM32H7/RGB_LVGL/Middlewares/LVGL/GUI/lvgl/src/core\lv_obj_style_gen.h **** {
 903              		.loc 2 172 23 view .LVU302
 904              	.LBB96:
 174:H:/STM32H7/RGB_LVGL/Middlewares/LVGL/GUI/lvgl/src/core\lv_obj_style_gen.h ****     return (int32_t)v.num;
 905              		.loc 2 174 5 view .LVU303
 174:H:/STM32H7/RGB_LVGL/Middlewares/LVGL/GUI/lvgl/src/core\lv_obj_style_gen.h ****     return (int32_t)v.num;
ARM GAS  C:\Users\28576\AppData\Local\Temp\ccRKCVo4.s 			page 39


 906              		.loc 2 174 26 is_stmt 0 view .LVU304
 907 00aa 1322     		movs	r2, #19
 908 00ac 4FF40031 		mov	r1, #131072
 909 00b0 3046     		mov	r0, r6
 910              	.LVL113:
 174:H:/STM32H7/RGB_LVGL/Middlewares/LVGL/GUI/lvgl/src/core\lv_obj_style_gen.h ****     return (int32_t)v.num;
 911              		.loc 2 174 26 view .LVU305
 912 00b2 FFF7FEFF 		bl	lv_obj_get_style_prop
 913              	.LVL114:
 914 00b6 0646     		mov	r6, r0
 915              	.LVL115:
 174:H:/STM32H7/RGB_LVGL/Middlewares/LVGL/GUI/lvgl/src/core\lv_obj_style_gen.h ****     return (int32_t)v.num;
 916              		.loc 2 174 26 view .LVU306
 917 00b8 0690     		str	r0, [sp, #24]
 175:H:/STM32H7/RGB_LVGL/Middlewares/LVGL/GUI/lvgl/src/core\lv_obj_style_gen.h **** }
 918              		.loc 2 175 5 is_stmt 1 view .LVU307
 919              	.LVL116:
 175:H:/STM32H7/RGB_LVGL/Middlewares/LVGL/GUI/lvgl/src/core\lv_obj_style_gen.h **** }
 920              		.loc 2 175 5 is_stmt 0 view .LVU308
 921              	.LBE96:
 922              	.LBE95:
 194:../../Middlewares/LVGL/GUI/lvgl/src/widgets/checkbox/lv_checkbox.c ****         int32_t marker_bottomp = lv_obj_get_style_pad_bottom(obj, LV_PART_INDICATOR);
 923              		.loc 1 194 9 is_stmt 1 view .LVU309
 924              	.LBB97:
 925              	.LBI97:
 154:H:/STM32H7/RGB_LVGL/Middlewares/LVGL/GUI/lvgl/src/core\lv_obj_style_gen.h **** {
 926              		.loc 2 154 23 view .LVU310
 927              	.LBB98:
 156:H:/STM32H7/RGB_LVGL/Middlewares/LVGL/GUI/lvgl/src/core\lv_obj_style_gen.h ****     return (int32_t)v.num;
 928              		.loc 2 156 5 view .LVU311
 156:H:/STM32H7/RGB_LVGL/Middlewares/LVGL/GUI/lvgl/src/core\lv_obj_style_gen.h ****     return (int32_t)v.num;
 929              		.loc 2 156 26 is_stmt 0 view .LVU312
 930 00ba 1022     		movs	r2, #16
 931 00bc 4FF40031 		mov	r1, #131072
 932 00c0 4046     		mov	r0, r8
 933              	.LVL117:
 156:H:/STM32H7/RGB_LVGL/Middlewares/LVGL/GUI/lvgl/src/core\lv_obj_style_gen.h ****     return (int32_t)v.num;
 934              		.loc 2 156 26 view .LVU313
 935 00c2 FFF7FEFF 		bl	lv_obj_get_style_prop
 936              	.LVL118:
 937 00c6 0746     		mov	r7, r0
 938 00c8 0690     		str	r0, [sp, #24]
 157:H:/STM32H7/RGB_LVGL/Middlewares/LVGL/GUI/lvgl/src/core\lv_obj_style_gen.h **** }
 939              		.loc 2 157 5 is_stmt 1 view .LVU314
 940              	.LVL119:
 157:H:/STM32H7/RGB_LVGL/Middlewares/LVGL/GUI/lvgl/src/core\lv_obj_style_gen.h **** }
 941              		.loc 2 157 5 is_stmt 0 view .LVU315
 942              	.LBE98:
 943              	.LBE97:
 195:../../Middlewares/LVGL/GUI/lvgl/src/widgets/checkbox/lv_checkbox.c ****         lv_point_t marker_size;
 944              		.loc 1 195 9 is_stmt 1 view .LVU316
 945              	.LBB99:
 946              	.LBI99:
 160:H:/STM32H7/RGB_LVGL/Middlewares/LVGL/GUI/lvgl/src/core\lv_obj_style_gen.h **** {
 947              		.loc 2 160 23 view .LVU317
 948              	.LBB100:
 162:H:/STM32H7/RGB_LVGL/Middlewares/LVGL/GUI/lvgl/src/core\lv_obj_style_gen.h ****     return (int32_t)v.num;
ARM GAS  C:\Users\28576\AppData\Local\Temp\ccRKCVo4.s 			page 40


 949              		.loc 2 162 5 view .LVU318
 162:H:/STM32H7/RGB_LVGL/Middlewares/LVGL/GUI/lvgl/src/core\lv_obj_style_gen.h ****     return (int32_t)v.num;
 950              		.loc 2 162 26 is_stmt 0 view .LVU319
 951 00ca 1122     		movs	r2, #17
 952 00cc 4FF40031 		mov	r1, #131072
 953 00d0 4046     		mov	r0, r8
 954              	.LVL120:
 162:H:/STM32H7/RGB_LVGL/Middlewares/LVGL/GUI/lvgl/src/core\lv_obj_style_gen.h ****     return (int32_t)v.num;
 955              		.loc 2 162 26 view .LVU320
 956 00d2 FFF7FEFF 		bl	lv_obj_get_style_prop
 957              	.LVL121:
 958 00d6 0690     		str	r0, [sp, #24]
 163:H:/STM32H7/RGB_LVGL/Middlewares/LVGL/GUI/lvgl/src/core\lv_obj_style_gen.h **** }
 959              		.loc 2 163 5 is_stmt 1 view .LVU321
 960              	.LVL122:
 163:H:/STM32H7/RGB_LVGL/Middlewares/LVGL/GUI/lvgl/src/core\lv_obj_style_gen.h **** }
 961              		.loc 2 163 5 is_stmt 0 view .LVU322
 962              	.LBE100:
 963              	.LBE99:
 196:../../Middlewares/LVGL/GUI/lvgl/src/widgets/checkbox/lv_checkbox.c ****         marker_size.x = font_h + marker_leftp + marker_rightp;
 964              		.loc 1 196 9 is_stmt 1 view .LVU323
 197:../../Middlewares/LVGL/GUI/lvgl/src/widgets/checkbox/lv_checkbox.c ****         marker_size.y = font_h + marker_topp + marker_bottomp;
 965              		.loc 1 197 9 view .LVU324
 197:../../Middlewares/LVGL/GUI/lvgl/src/widgets/checkbox/lv_checkbox.c ****         marker_size.y = font_h + marker_topp + marker_bottomp;
 966              		.loc 1 197 32 is_stmt 0 view .LVU325
 967 00d8 4A46     		mov	r2, r9
 968 00da 5319     		adds	r3, r2, r5
 197:../../Middlewares/LVGL/GUI/lvgl/src/widgets/checkbox/lv_checkbox.c ****         marker_size.y = font_h + marker_topp + marker_bottomp;
 969              		.loc 1 197 47 view .LVU326
 970 00dc 3344     		add	r3, r3, r6
 197:../../Middlewares/LVGL/GUI/lvgl/src/widgets/checkbox/lv_checkbox.c ****         marker_size.y = font_h + marker_topp + marker_bottomp;
 971              		.loc 1 197 23 view .LVU327
 972 00de 0693     		str	r3, [sp, #24]
 198:../../Middlewares/LVGL/GUI/lvgl/src/widgets/checkbox/lv_checkbox.c **** 
 973              		.loc 1 198 9 is_stmt 1 view .LVU328
 198:../../Middlewares/LVGL/GUI/lvgl/src/widgets/checkbox/lv_checkbox.c **** 
 974              		.loc 1 198 32 is_stmt 0 view .LVU329
 975 00e0 3A44     		add	r2, r2, r7
 198:../../Middlewares/LVGL/GUI/lvgl/src/widgets/checkbox/lv_checkbox.c **** 
 976              		.loc 1 198 46 view .LVU330
 977 00e2 0244     		add	r2, r2, r0
 198:../../Middlewares/LVGL/GUI/lvgl/src/widgets/checkbox/lv_checkbox.c **** 
 978              		.loc 1 198 23 view .LVU331
 979 00e4 0792     		str	r2, [sp, #28]
 200:../../Middlewares/LVGL/GUI/lvgl/src/widgets/checkbox/lv_checkbox.c ****         p->y = LV_MAX(marker_size.y, txt_size.y);
 980              		.loc 1 200 9 is_stmt 1 view .LVU332
 200:../../Middlewares/LVGL/GUI/lvgl/src/widgets/checkbox/lv_checkbox.c ****         p->y = LV_MAX(marker_size.y, txt_size.y);
 981              		.loc 1 200 40 is_stmt 0 view .LVU333
 982 00e6 0499     		ldr	r1, [sp, #16]
 200:../../Middlewares/LVGL/GUI/lvgl/src/widgets/checkbox/lv_checkbox.c ****         p->y = LV_MAX(marker_size.y, txt_size.y);
 983              		.loc 1 200 30 view .LVU334
 984 00e8 0B44     		add	r3, r3, r1
 200:../../Middlewares/LVGL/GUI/lvgl/src/widgets/checkbox/lv_checkbox.c ****         p->y = LV_MAX(marker_size.y, txt_size.y);
 985              		.loc 1 200 43 view .LVU335
 986 00ea 2344     		add	r3, r3, r4
 200:../../Middlewares/LVGL/GUI/lvgl/src/widgets/checkbox/lv_checkbox.c ****         p->y = LV_MAX(marker_size.y, txt_size.y);
 987              		.loc 1 200 14 view .LVU336
ARM GAS  C:\Users\28576\AppData\Local\Temp\ccRKCVo4.s 			page 41


 988 00ec CAF80030 		str	r3, [r10]
 201:../../Middlewares/LVGL/GUI/lvgl/src/widgets/checkbox/lv_checkbox.c ****     }
 989              		.loc 1 201 9 is_stmt 1 view .LVU337
 201:../../Middlewares/LVGL/GUI/lvgl/src/widgets/checkbox/lv_checkbox.c ****     }
 990              		.loc 1 201 16 is_stmt 0 view .LVU338
 991 00f0 059B     		ldr	r3, [sp, #20]
 992 00f2 9A42     		cmp	r2, r3
 993 00f4 B8BF     		it	lt
 994 00f6 1A46     		movlt	r2, r3
 201:../../Middlewares/LVGL/GUI/lvgl/src/widgets/checkbox/lv_checkbox.c ****     }
 995              		.loc 1 201 14 view .LVU339
 996 00f8 CAF80420 		str	r2, [r10, #4]
 997              	.LBE84:
 998 00fc 89E7     		b	.L14
 999              	.LVL123:
 1000              	.L21:
 1001              	.LBB101:
 204:../../Middlewares/LVGL/GUI/lvgl/src/widgets/checkbox/lv_checkbox.c ****         int32_t m = lv_obj_calculate_ext_draw_size(obj, LV_PART_INDICATOR);
 1002              		.loc 1 204 9 is_stmt 1 view .LVU340
 204:../../Middlewares/LVGL/GUI/lvgl/src/widgets/checkbox/lv_checkbox.c ****         int32_t m = lv_obj_calculate_ext_draw_size(obj, LV_PART_INDICATOR);
 1003              		.loc 1 204 23 is_stmt 0 view .LVU341
 1004 00fe 2846     		mov	r0, r5
 1005              	.LVL124:
 204:../../Middlewares/LVGL/GUI/lvgl/src/widgets/checkbox/lv_checkbox.c ****         int32_t m = lv_obj_calculate_ext_draw_size(obj, LV_PART_INDICATOR);
 1006              		.loc 1 204 23 view .LVU342
 1007 0100 FFF7FEFF 		bl	lv_event_get_param
 1008              	.LVL125:
 1009 0104 0446     		mov	r4, r0
 1010              	.LVL126:
 205:../../Middlewares/LVGL/GUI/lvgl/src/widgets/checkbox/lv_checkbox.c ****         *s = LV_MAX(*s, m);
 1011              		.loc 1 205 9 is_stmt 1 view .LVU343
 205:../../Middlewares/LVGL/GUI/lvgl/src/widgets/checkbox/lv_checkbox.c ****         *s = LV_MAX(*s, m);
 1012              		.loc 1 205 21 is_stmt 0 view .LVU344
 1013 0106 4FF40031 		mov	r1, #131072
 1014 010a 3046     		mov	r0, r6
 1015              	.LVL127:
 205:../../Middlewares/LVGL/GUI/lvgl/src/widgets/checkbox/lv_checkbox.c ****         *s = LV_MAX(*s, m);
 1016              		.loc 1 205 21 view .LVU345
 1017 010c FFF7FEFF 		bl	lv_obj_calculate_ext_draw_size
 1018              	.LVL128:
 206:../../Middlewares/LVGL/GUI/lvgl/src/widgets/checkbox/lv_checkbox.c ****     }
 1019              		.loc 1 206 9 is_stmt 1 view .LVU346
 206:../../Middlewares/LVGL/GUI/lvgl/src/widgets/checkbox/lv_checkbox.c ****     }
 1020              		.loc 1 206 14 is_stmt 0 view .LVU347
 1021 0110 2368     		ldr	r3, [r4]
 1022 0112 9842     		cmp	r0, r3
 1023 0114 B8BF     		it	lt
 1024 0116 1846     		movlt	r0, r3
 1025              	.LVL129:
 206:../../Middlewares/LVGL/GUI/lvgl/src/widgets/checkbox/lv_checkbox.c ****     }
 1026              		.loc 1 206 12 view .LVU348
 1027 0118 2060     		str	r0, [r4]
 1028              	.LBE101:
 1029 011a 7AE7     		b	.L14
 1030              	.L23:
 1031              		.align	2
 1032              	.L22:
ARM GAS  C:\Users\28576\AppData\Local\Temp\ccRKCVo4.s 			page 42


 1033 011c 00000000 		.word	lv_checkbox_class
 1034              		.cfi_endproc
 1035              	.LFE178:
 1037              		.section	.text.lv_checkbox_destructor,"ax",%progbits
 1038              		.align	1
 1039              		.syntax unified
 1040              		.thumb
 1041              		.thumb_func
 1043              	lv_checkbox_destructor:
 1044              	.LVL130:
 1045              	.LFB177:
 155:../../Middlewares/LVGL/GUI/lvgl/src/widgets/checkbox/lv_checkbox.c ****     LV_UNUSED(class_p);
 1046              		.loc 1 155 1 is_stmt 1 view -0
 1047              		.cfi_startproc
 1048              		@ args = 0, pretend = 0, frame = 0
 1049              		@ frame_needed = 0, uses_anonymous_args = 0
 156:../../Middlewares/LVGL/GUI/lvgl/src/widgets/checkbox/lv_checkbox.c ****     LV_TRACE_OBJ_CREATE("begin");
 1050              		.loc 1 156 5 view .LVU350
 157:../../Middlewares/LVGL/GUI/lvgl/src/widgets/checkbox/lv_checkbox.c **** 
 1051              		.loc 1 157 33 view .LVU351
 159:../../Middlewares/LVGL/GUI/lvgl/src/widgets/checkbox/lv_checkbox.c ****     if(!cb->static_txt) {
 1052              		.loc 1 159 5 view .LVU352
 160:../../Middlewares/LVGL/GUI/lvgl/src/widgets/checkbox/lv_checkbox.c ****         lv_free(cb->txt);
 1053              		.loc 1 160 5 view .LVU353
 160:../../Middlewares/LVGL/GUI/lvgl/src/widgets/checkbox/lv_checkbox.c ****         lv_free(cb->txt);
 1054              		.loc 1 160 8 is_stmt 0 view .LVU354
 1055 0000 91F83030 		ldrb	r3, [r1, #48]	@ zero_extendqisi2
 160:../../Middlewares/LVGL/GUI/lvgl/src/widgets/checkbox/lv_checkbox.c ****         lv_free(cb->txt);
 1056              		.loc 1 160 7 view .LVU355
 1057 0004 13F0010F 		tst	r3, #1
 1058 0008 00D0     		beq	.L30
 1059 000a 7047     		bx	lr
 1060              	.L30:
 155:../../Middlewares/LVGL/GUI/lvgl/src/widgets/checkbox/lv_checkbox.c ****     LV_UNUSED(class_p);
 1061              		.loc 1 155 1 view .LVU356
 1062 000c 10B5     		push	{r4, lr}
 1063              	.LCFI8:
 1064              		.cfi_def_cfa_offset 8
 1065              		.cfi_offset 4, -8
 1066              		.cfi_offset 14, -4
 161:../../Middlewares/LVGL/GUI/lvgl/src/widgets/checkbox/lv_checkbox.c ****         cb->txt = NULL;
 1067              		.loc 1 161 9 is_stmt 1 view .LVU357
 1068 000e 0C46     		mov	r4, r1
 1069 0010 C86A     		ldr	r0, [r1, #44]
 1070              	.LVL131:
 161:../../Middlewares/LVGL/GUI/lvgl/src/widgets/checkbox/lv_checkbox.c ****         cb->txt = NULL;
 1071              		.loc 1 161 9 is_stmt 0 view .LVU358
 1072 0012 FFF7FEFF 		bl	lv_free
 1073              	.LVL132:
 162:../../Middlewares/LVGL/GUI/lvgl/src/widgets/checkbox/lv_checkbox.c ****     }
 1074              		.loc 1 162 9 is_stmt 1 view .LVU359
 162:../../Middlewares/LVGL/GUI/lvgl/src/widgets/checkbox/lv_checkbox.c ****     }
 1075              		.loc 1 162 17 is_stmt 0 view .LVU360
 1076 0016 0023     		movs	r3, #0
 1077 0018 E362     		str	r3, [r4, #44]
 164:../../Middlewares/LVGL/GUI/lvgl/src/widgets/checkbox/lv_checkbox.c **** }
 1078              		.loc 1 164 36 is_stmt 1 view .LVU361
ARM GAS  C:\Users\28576\AppData\Local\Temp\ccRKCVo4.s 			page 43


 165:../../Middlewares/LVGL/GUI/lvgl/src/widgets/checkbox/lv_checkbox.c **** 
 1079              		.loc 1 165 1 is_stmt 0 view .LVU362
 1080 001a 10BD     		pop	{r4, pc}
 165:../../Middlewares/LVGL/GUI/lvgl/src/widgets/checkbox/lv_checkbox.c **** 
 1081              		.loc 1 165 1 view .LVU363
 1082              		.cfi_endproc
 1083              	.LFE177:
 1085              		.section	.rodata.lv_checkbox_constructor.str1.4,"aMS",%progbits,1
 1086              		.align	2
 1087              	.LC0:
 1088 0000 43686563 		.ascii	"Check box\000"
 1088      6B20626F 
 1088      7800
 1089              		.section	.text.lv_checkbox_constructor,"ax",%progbits
 1090              		.align	1
 1091              		.syntax unified
 1092              		.thumb
 1093              		.thumb_func
 1095              	lv_checkbox_constructor:
 1096              	.LVL133:
 1097              	.LFB176:
 132:../../Middlewares/LVGL/GUI/lvgl/src/widgets/checkbox/lv_checkbox.c ****     LV_UNUSED(class_p);
 1098              		.loc 1 132 1 is_stmt 1 view -0
 1099              		.cfi_startproc
 1100              		@ args = 0, pretend = 0, frame = 0
 1101              		@ frame_needed = 0, uses_anonymous_args = 0
 132:../../Middlewares/LVGL/GUI/lvgl/src/widgets/checkbox/lv_checkbox.c ****     LV_UNUSED(class_p);
 1102              		.loc 1 132 1 is_stmt 0 view .LVU365
 1103 0000 10B5     		push	{r4, lr}
 1104              	.LCFI9:
 1105              		.cfi_def_cfa_offset 8
 1106              		.cfi_offset 4, -8
 1107              		.cfi_offset 14, -4
 1108 0002 0C46     		mov	r4, r1
 133:../../Middlewares/LVGL/GUI/lvgl/src/widgets/checkbox/lv_checkbox.c ****     LV_TRACE_OBJ_CREATE("begin");
 1109              		.loc 1 133 5 is_stmt 1 view .LVU366
 134:../../Middlewares/LVGL/GUI/lvgl/src/widgets/checkbox/lv_checkbox.c **** 
 1110              		.loc 1 134 33 view .LVU367
 136:../../Middlewares/LVGL/GUI/lvgl/src/widgets/checkbox/lv_checkbox.c **** 
 1111              		.loc 1 136 5 view .LVU368
 1112              	.LVL134:
 139:../../Middlewares/LVGL/GUI/lvgl/src/widgets/checkbox/lv_checkbox.c ****     cb->static_txt = 1;
 1113              		.loc 1 139 5 view .LVU369
 139:../../Middlewares/LVGL/GUI/lvgl/src/widgets/checkbox/lv_checkbox.c ****     cb->static_txt = 1;
 1114              		.loc 1 139 13 is_stmt 0 view .LVU370
 1115 0004 0C4B     		ldr	r3, .L33
 1116 0006 CB62     		str	r3, [r1, #44]
 140:../../Middlewares/LVGL/GUI/lvgl/src/widgets/checkbox/lv_checkbox.c **** #else
 1117              		.loc 1 140 5 is_stmt 1 view .LVU371
 140:../../Middlewares/LVGL/GUI/lvgl/src/widgets/checkbox/lv_checkbox.c **** #else
 1118              		.loc 1 140 20 is_stmt 0 view .LVU372
 1119 0008 91F83030 		ldrb	r3, [r1, #48]	@ zero_extendqisi2
 1120 000c 43F00103 		orr	r3, r3, #1
 1121 0010 81F83030 		strb	r3, [r1, #48]
 146:../../Middlewares/LVGL/GUI/lvgl/src/widgets/checkbox/lv_checkbox.c ****     lv_obj_add_flag(obj, LV_OBJ_FLAG_CHECKABLE);
 1122              		.loc 1 146 5 is_stmt 1 view .LVU373
 1123 0014 0221     		movs	r1, #2
ARM GAS  C:\Users\28576\AppData\Local\Temp\ccRKCVo4.s 			page 44


 1124              	.LVL135:
 146:../../Middlewares/LVGL/GUI/lvgl/src/widgets/checkbox/lv_checkbox.c ****     lv_obj_add_flag(obj, LV_OBJ_FLAG_CHECKABLE);
 1125              		.loc 1 146 5 is_stmt 0 view .LVU374
 1126 0016 2046     		mov	r0, r4
 1127              	.LVL136:
 146:../../Middlewares/LVGL/GUI/lvgl/src/widgets/checkbox/lv_checkbox.c ****     lv_obj_add_flag(obj, LV_OBJ_FLAG_CHECKABLE);
 1128              		.loc 1 146 5 view .LVU375
 1129 0018 FFF7FEFF 		bl	lv_obj_add_flag
 1130              	.LVL137:
 147:../../Middlewares/LVGL/GUI/lvgl/src/widgets/checkbox/lv_checkbox.c ****     lv_obj_add_flag(obj, LV_OBJ_FLAG_SCROLL_ON_FOCUS);
 1131              		.loc 1 147 5 is_stmt 1 view .LVU376
 1132 001c 0821     		movs	r1, #8
 1133 001e 2046     		mov	r0, r4
 1134 0020 FFF7FEFF 		bl	lv_obj_add_flag
 1135              	.LVL138:
 148:../../Middlewares/LVGL/GUI/lvgl/src/widgets/checkbox/lv_checkbox.c ****     lv_obj_remove_flag(obj, LV_OBJ_FLAG_SCROLLABLE);
 1136              		.loc 1 148 5 view .LVU377
 1137 0024 4FF48061 		mov	r1, #1024
 1138 0028 2046     		mov	r0, r4
 1139 002a FFF7FEFF 		bl	lv_obj_add_flag
 1140              	.LVL139:
 149:../../Middlewares/LVGL/GUI/lvgl/src/widgets/checkbox/lv_checkbox.c **** 
 1141              		.loc 1 149 5 view .LVU378
 1142 002e 1021     		movs	r1, #16
 1143 0030 2046     		mov	r0, r4
 1144 0032 FFF7FEFF 		bl	lv_obj_remove_flag
 1145              	.LVL140:
 151:../../Middlewares/LVGL/GUI/lvgl/src/widgets/checkbox/lv_checkbox.c **** }
 1146              		.loc 1 151 36 view .LVU379
 152:../../Middlewares/LVGL/GUI/lvgl/src/widgets/checkbox/lv_checkbox.c **** 
 1147              		.loc 1 152 1 is_stmt 0 view .LVU380
 1148 0036 10BD     		pop	{r4, pc}
 1149              	.LVL141:
 1150              	.L34:
 152:../../Middlewares/LVGL/GUI/lvgl/src/widgets/checkbox/lv_checkbox.c **** 
 1151              		.loc 1 152 1 view .LVU381
 1152              		.align	2
 1153              	.L33:
 1154 0038 00000000 		.word	.LC0
 1155              		.cfi_endproc
 1156              	.LFE176:
 1158              		.section	.text.lv_checkbox_create,"ax",%progbits
 1159              		.align	1
 1160              		.global	lv_checkbox_create
 1161              		.syntax unified
 1162              		.thumb
 1163              		.thumb_func
 1165              	lv_checkbox_create:
 1166              	.LVL142:
 1167              	.LFB172:
  61:../../Middlewares/LVGL/GUI/lvgl/src/widgets/checkbox/lv_checkbox.c ****     LV_LOG_INFO("begin");
 1168              		.loc 1 61 1 is_stmt 1 view -0
 1169              		.cfi_startproc
 1170              		@ args = 0, pretend = 0, frame = 0
 1171              		@ frame_needed = 0, uses_anonymous_args = 0
  61:../../Middlewares/LVGL/GUI/lvgl/src/widgets/checkbox/lv_checkbox.c ****     LV_LOG_INFO("begin");
 1172              		.loc 1 61 1 is_stmt 0 view .LVU383
ARM GAS  C:\Users\28576\AppData\Local\Temp\ccRKCVo4.s 			page 45


 1173 0000 10B5     		push	{r4, lr}
 1174              	.LCFI10:
 1175              		.cfi_def_cfa_offset 8
 1176              		.cfi_offset 4, -8
 1177              		.cfi_offset 14, -4
 1178 0002 0146     		mov	r1, r0
  62:../../Middlewares/LVGL/GUI/lvgl/src/widgets/checkbox/lv_checkbox.c ****     lv_obj_t * obj = lv_obj_class_create_obj(MY_CLASS, parent);
 1179              		.loc 1 62 5 is_stmt 1 view .LVU384
  62:../../Middlewares/LVGL/GUI/lvgl/src/widgets/checkbox/lv_checkbox.c ****     lv_obj_t * obj = lv_obj_class_create_obj(MY_CLASS, parent);
 1180              		.loc 1 62 5 view .LVU385
  62:../../Middlewares/LVGL/GUI/lvgl/src/widgets/checkbox/lv_checkbox.c ****     lv_obj_t * obj = lv_obj_class_create_obj(MY_CLASS, parent);
 1181              		.loc 1 62 5 view .LVU386
  63:../../Middlewares/LVGL/GUI/lvgl/src/widgets/checkbox/lv_checkbox.c ****     lv_obj_class_init_obj(obj);
 1182              		.loc 1 63 5 view .LVU387
  63:../../Middlewares/LVGL/GUI/lvgl/src/widgets/checkbox/lv_checkbox.c ****     lv_obj_class_init_obj(obj);
 1183              		.loc 1 63 22 is_stmt 0 view .LVU388
 1184 0004 0348     		ldr	r0, .L37
 1185              	.LVL143:
  63:../../Middlewares/LVGL/GUI/lvgl/src/widgets/checkbox/lv_checkbox.c ****     lv_obj_class_init_obj(obj);
 1186              		.loc 1 63 22 view .LVU389
 1187 0006 FFF7FEFF 		bl	lv_obj_class_create_obj
 1188              	.LVL144:
  63:../../Middlewares/LVGL/GUI/lvgl/src/widgets/checkbox/lv_checkbox.c ****     lv_obj_class_init_obj(obj);
 1189              		.loc 1 63 22 view .LVU390
 1190 000a 0446     		mov	r4, r0
 1191              	.LVL145:
  64:../../Middlewares/LVGL/GUI/lvgl/src/widgets/checkbox/lv_checkbox.c ****     return obj;
 1192              		.loc 1 64 5 is_stmt 1 view .LVU391
 1193 000c FFF7FEFF 		bl	lv_obj_class_init_obj
 1194              	.LVL146:
  65:../../Middlewares/LVGL/GUI/lvgl/src/widgets/checkbox/lv_checkbox.c **** }
 1195              		.loc 1 65 5 view .LVU392
  66:../../Middlewares/LVGL/GUI/lvgl/src/widgets/checkbox/lv_checkbox.c **** 
 1196              		.loc 1 66 1 is_stmt 0 view .LVU393
 1197 0010 2046     		mov	r0, r4
 1198 0012 10BD     		pop	{r4, pc}
 1199              	.LVL147:
 1200              	.L38:
  66:../../Middlewares/LVGL/GUI/lvgl/src/widgets/checkbox/lv_checkbox.c **** 
 1201              		.loc 1 66 1 view .LVU394
 1202              		.align	2
 1203              	.L37:
 1204 0014 00000000 		.word	lv_checkbox_class
 1205              		.cfi_endproc
 1206              	.LFE172:
 1208              		.section	.text.lv_checkbox_set_text,"ax",%progbits
 1209              		.align	1
 1210              		.global	lv_checkbox_set_text
 1211              		.syntax unified
 1212              		.thumb
 1213              		.thumb_func
 1215              	lv_checkbox_set_text:
 1216              	.LVL148:
 1217              	.LFB173:
  73:../../Middlewares/LVGL/GUI/lvgl/src/widgets/checkbox/lv_checkbox.c ****     lv_checkbox_t * cb = (lv_checkbox_t *)obj;
 1218              		.loc 1 73 1 is_stmt 1 view -0
 1219              		.cfi_startproc
ARM GAS  C:\Users\28576\AppData\Local\Temp\ccRKCVo4.s 			page 46


 1220              		@ args = 0, pretend = 0, frame = 0
 1221              		@ frame_needed = 0, uses_anonymous_args = 0
  73:../../Middlewares/LVGL/GUI/lvgl/src/widgets/checkbox/lv_checkbox.c ****     lv_checkbox_t * cb = (lv_checkbox_t *)obj;
 1222              		.loc 1 73 1 is_stmt 0 view .LVU396
 1223 0000 38B5     		push	{r3, r4, r5, lr}
 1224              	.LCFI11:
 1225              		.cfi_def_cfa_offset 16
 1226              		.cfi_offset 3, -16
 1227              		.cfi_offset 4, -12
 1228              		.cfi_offset 5, -8
 1229              		.cfi_offset 14, -4
 1230 0002 0446     		mov	r4, r0
  74:../../Middlewares/LVGL/GUI/lvgl/src/widgets/checkbox/lv_checkbox.c **** 
 1231              		.loc 1 74 5 is_stmt 1 view .LVU397
 1232              	.LVL149:
  76:../../Middlewares/LVGL/GUI/lvgl/src/widgets/checkbox/lv_checkbox.c ****         size_t len;
 1233              		.loc 1 76 5 view .LVU398
  76:../../Middlewares/LVGL/GUI/lvgl/src/widgets/checkbox/lv_checkbox.c ****         size_t len;
 1234              		.loc 1 76 7 is_stmt 0 view .LVU399
 1235 0004 C9B1     		cbz	r1, .L40
 1236 0006 0846     		mov	r0, r1
 1237              	.LVL150:
  76:../../Middlewares/LVGL/GUI/lvgl/src/widgets/checkbox/lv_checkbox.c ****         size_t len;
 1238              		.loc 1 76 7 view .LVU400
 1239 0008 0D46     		mov	r5, r1
 1240              	.LBB102:
  77:../../Middlewares/LVGL/GUI/lvgl/src/widgets/checkbox/lv_checkbox.c **** 
 1241              		.loc 1 77 9 is_stmt 1 view .LVU401
  82:../../Middlewares/LVGL/GUI/lvgl/src/widgets/checkbox/lv_checkbox.c **** #endif
 1242              		.loc 1 82 9 view .LVU402
  82:../../Middlewares/LVGL/GUI/lvgl/src/widgets/checkbox/lv_checkbox.c **** #endif
 1243              		.loc 1 82 15 is_stmt 0 view .LVU403
 1244 000a FFF7FEFF 		bl	lv_strlen
 1245              	.LVL151:
  82:../../Middlewares/LVGL/GUI/lvgl/src/widgets/checkbox/lv_checkbox.c **** #endif
 1246              		.loc 1 82 13 discriminator 1 view .LVU404
 1247 000e 0130     		adds	r0, r0, #1
 1248              	.LVL152:
  85:../../Middlewares/LVGL/GUI/lvgl/src/widgets/checkbox/lv_checkbox.c ****         else cb->txt = lv_malloc(len);
 1249              		.loc 1 85 9 is_stmt 1 view .LVU405
  85:../../Middlewares/LVGL/GUI/lvgl/src/widgets/checkbox/lv_checkbox.c ****         else cb->txt = lv_malloc(len);
 1250              		.loc 1 85 12 is_stmt 0 view .LVU406
 1251 0010 94F83030 		ldrb	r3, [r4, #48]	@ zero_extendqisi2
  85:../../Middlewares/LVGL/GUI/lvgl/src/widgets/checkbox/lv_checkbox.c ****         else cb->txt = lv_malloc(len);
 1252              		.loc 1 85 11 view .LVU407
 1253 0014 13F0010F 		tst	r3, #1
 1254 0018 16D1     		bne	.L41
  85:../../Middlewares/LVGL/GUI/lvgl/src/widgets/checkbox/lv_checkbox.c ****         else cb->txt = lv_malloc(len);
 1255              		.loc 1 85 29 is_stmt 1 discriminator 1 view .LVU408
  85:../../Middlewares/LVGL/GUI/lvgl/src/widgets/checkbox/lv_checkbox.c ****         else cb->txt = lv_malloc(len);
 1256              		.loc 1 85 39 is_stmt 0 discriminator 1 view .LVU409
 1257 001a 0146     		mov	r1, r0
 1258 001c E06A     		ldr	r0, [r4, #44]
 1259              	.LVL153:
  85:../../Middlewares/LVGL/GUI/lvgl/src/widgets/checkbox/lv_checkbox.c ****         else cb->txt = lv_malloc(len);
 1260              		.loc 1 85 39 discriminator 1 view .LVU410
 1261 001e FFF7FEFF 		bl	lv_realloc
ARM GAS  C:\Users\28576\AppData\Local\Temp\ccRKCVo4.s 			page 47


 1262              	.LVL154:
  85:../../Middlewares/LVGL/GUI/lvgl/src/widgets/checkbox/lv_checkbox.c ****         else cb->txt = lv_malloc(len);
 1263              		.loc 1 85 37 discriminator 2 view .LVU411
 1264 0022 E062     		str	r0, [r4, #44]
 1265              	.L42:
  88:../../Middlewares/LVGL/GUI/lvgl/src/widgets/checkbox/lv_checkbox.c ****         if(NULL == cb->txt) return;
 1266              		.loc 1 88 9 is_stmt 1 view .LVU412
  88:../../Middlewares/LVGL/GUI/lvgl/src/widgets/checkbox/lv_checkbox.c ****         if(NULL == cb->txt) return;
 1267              		.loc 1 88 9 view .LVU413
 1268 0024 E06A     		ldr	r0, [r4, #44]
 1269 0026 98B1     		cbz	r0, .L44
  88:../../Middlewares/LVGL/GUI/lvgl/src/widgets/checkbox/lv_checkbox.c ****         if(NULL == cb->txt) return;
 1270              		.loc 1 88 9 view .LVU414
  88:../../Middlewares/LVGL/GUI/lvgl/src/widgets/checkbox/lv_checkbox.c ****         if(NULL == cb->txt) return;
 1271              		.loc 1 88 34 view .LVU415
  89:../../Middlewares/LVGL/GUI/lvgl/src/widgets/checkbox/lv_checkbox.c **** 
 1272              		.loc 1 89 9 view .LVU416
  94:../../Middlewares/LVGL/GUI/lvgl/src/widgets/checkbox/lv_checkbox.c **** #endif
 1273              		.loc 1 94 9 view .LVU417
 1274 0028 2946     		mov	r1, r5
 1275 002a FFF7FEFF 		bl	lv_strcpy
 1276              	.LVL155:
  97:../../Middlewares/LVGL/GUI/lvgl/src/widgets/checkbox/lv_checkbox.c ****     }
 1277              		.loc 1 97 9 view .LVU418
  97:../../Middlewares/LVGL/GUI/lvgl/src/widgets/checkbox/lv_checkbox.c ****     }
 1278              		.loc 1 97 24 is_stmt 0 view .LVU419
 1279 002e 94F83030 		ldrb	r3, [r4, #48]	@ zero_extendqisi2
 1280 0032 23F00103 		bic	r3, r3, #1
 1281 0036 84F83030 		strb	r3, [r4, #48]
 1282              	.LVL156:
 1283              	.L40:
  97:../../Middlewares/LVGL/GUI/lvgl/src/widgets/checkbox/lv_checkbox.c ****     }
 1284              		.loc 1 97 24 view .LVU420
 1285              	.LBE102:
 100:../../Middlewares/LVGL/GUI/lvgl/src/widgets/checkbox/lv_checkbox.c ****     lv_obj_invalidate(obj);
 1286              		.loc 1 100 5 is_stmt 1 view .LVU421
 1287 003a 2046     		mov	r0, r4
 1288 003c FFF7FEFF 		bl	lv_obj_refresh_self_size
 1289              	.LVL157:
 101:../../Middlewares/LVGL/GUI/lvgl/src/widgets/checkbox/lv_checkbox.c **** }
 1290              		.loc 1 101 5 view .LVU422
 1291 0040 2046     		mov	r0, r4
 1292 0042 FFF7FEFF 		bl	lv_obj_invalidate
 1293              	.LVL158:
 102:../../Middlewares/LVGL/GUI/lvgl/src/widgets/checkbox/lv_checkbox.c **** 
 1294              		.loc 1 102 1 is_stmt 0 view .LVU423
 1295 0046 38BD     		pop	{r3, r4, r5, pc}
 1296              	.LVL159:
 1297              	.L41:
 1298              	.LBB103:
  86:../../Middlewares/LVGL/GUI/lvgl/src/widgets/checkbox/lv_checkbox.c **** 
 1299              		.loc 1 86 14 is_stmt 1 view .LVU424
  86:../../Middlewares/LVGL/GUI/lvgl/src/widgets/checkbox/lv_checkbox.c **** 
 1300              		.loc 1 86 24 is_stmt 0 view .LVU425
 1301 0048 FFF7FEFF 		bl	lv_malloc
 1302              	.LVL160:
  86:../../Middlewares/LVGL/GUI/lvgl/src/widgets/checkbox/lv_checkbox.c **** 
ARM GAS  C:\Users\28576\AppData\Local\Temp\ccRKCVo4.s 			page 48


 1303              		.loc 1 86 22 discriminator 1 view .LVU426
 1304 004c E062     		str	r0, [r4, #44]
 1305 004e E9E7     		b	.L42
 1306              	.L44:
  88:../../Middlewares/LVGL/GUI/lvgl/src/widgets/checkbox/lv_checkbox.c ****         if(NULL == cb->txt) return;
 1307              		.loc 1 88 9 is_stmt 1 view .LVU427
  88:../../Middlewares/LVGL/GUI/lvgl/src/widgets/checkbox/lv_checkbox.c ****         if(NULL == cb->txt) return;
 1308              		.loc 1 88 9 view .LVU428
  88:../../Middlewares/LVGL/GUI/lvgl/src/widgets/checkbox/lv_checkbox.c ****         if(NULL == cb->txt) return;
 1309              		.loc 1 88 9 view .LVU429
  88:../../Middlewares/LVGL/GUI/lvgl/src/widgets/checkbox/lv_checkbox.c ****         if(NULL == cb->txt) return;
 1310              		.loc 1 88 9 view .LVU430
  88:../../Middlewares/LVGL/GUI/lvgl/src/widgets/checkbox/lv_checkbox.c ****         if(NULL == cb->txt) return;
 1311              		.loc 1 88 9 view .LVU431
 1312 0050 FEE7     		b	.L44
 1313              	.LBE103:
 1314              		.cfi_endproc
 1315              	.LFE173:
 1317              		.section	.text.lv_checkbox_set_text_static,"ax",%progbits
 1318              		.align	1
 1319              		.global	lv_checkbox_set_text_static
 1320              		.syntax unified
 1321              		.thumb
 1322              		.thumb_func
 1324              	lv_checkbox_set_text_static:
 1325              	.LVL161:
 1326              	.LFB174:
 105:../../Middlewares/LVGL/GUI/lvgl/src/widgets/checkbox/lv_checkbox.c ****     lv_checkbox_t * cb = (lv_checkbox_t *)obj;
 1327              		.loc 1 105 1 view -0
 1328              		.cfi_startproc
 1329              		@ args = 0, pretend = 0, frame = 0
 1330              		@ frame_needed = 0, uses_anonymous_args = 0
 105:../../Middlewares/LVGL/GUI/lvgl/src/widgets/checkbox/lv_checkbox.c ****     lv_checkbox_t * cb = (lv_checkbox_t *)obj;
 1331              		.loc 1 105 1 is_stmt 0 view .LVU433
 1332 0000 38B5     		push	{r3, r4, r5, lr}
 1333              	.LCFI12:
 1334              		.cfi_def_cfa_offset 16
 1335              		.cfi_offset 3, -16
 1336              		.cfi_offset 4, -12
 1337              		.cfi_offset 5, -8
 1338              		.cfi_offset 14, -4
 1339 0002 0446     		mov	r4, r0
 1340 0004 0D46     		mov	r5, r1
 106:../../Middlewares/LVGL/GUI/lvgl/src/widgets/checkbox/lv_checkbox.c **** 
 1341              		.loc 1 106 5 is_stmt 1 view .LVU434
 1342              	.LVL162:
 108:../../Middlewares/LVGL/GUI/lvgl/src/widgets/checkbox/lv_checkbox.c **** 
 1343              		.loc 1 108 5 view .LVU435
 108:../../Middlewares/LVGL/GUI/lvgl/src/widgets/checkbox/lv_checkbox.c **** 
 1344              		.loc 1 108 8 is_stmt 0 view .LVU436
 1345 0006 90F83030 		ldrb	r3, [r0, #48]	@ zero_extendqisi2
 108:../../Middlewares/LVGL/GUI/lvgl/src/widgets/checkbox/lv_checkbox.c **** 
 1346              		.loc 1 108 7 view .LVU437
 1347 000a 13F0010F 		tst	r3, #1
 1348 000e 0DD0     		beq	.L49
 1349              	.LVL163:
 1350              	.L47:
ARM GAS  C:\Users\28576\AppData\Local\Temp\ccRKCVo4.s 			page 49


 110:../../Middlewares/LVGL/GUI/lvgl/src/widgets/checkbox/lv_checkbox.c ****     cb->static_txt = 1;
 1351              		.loc 1 110 5 is_stmt 1 view .LVU438
 110:../../Middlewares/LVGL/GUI/lvgl/src/widgets/checkbox/lv_checkbox.c ****     cb->static_txt = 1;
 1352              		.loc 1 110 13 is_stmt 0 view .LVU439
 1353 0010 E562     		str	r5, [r4, #44]
 111:../../Middlewares/LVGL/GUI/lvgl/src/widgets/checkbox/lv_checkbox.c **** 
 1354              		.loc 1 111 5 is_stmt 1 view .LVU440
 111:../../Middlewares/LVGL/GUI/lvgl/src/widgets/checkbox/lv_checkbox.c **** 
 1355              		.loc 1 111 20 is_stmt 0 view .LVU441
 1356 0012 94F83030 		ldrb	r3, [r4, #48]	@ zero_extendqisi2
 1357 0016 43F00103 		orr	r3, r3, #1
 1358 001a 84F83030 		strb	r3, [r4, #48]
 113:../../Middlewares/LVGL/GUI/lvgl/src/widgets/checkbox/lv_checkbox.c ****     lv_obj_invalidate(obj);
 1359              		.loc 1 113 5 is_stmt 1 view .LVU442
 1360 001e 2046     		mov	r0, r4
 1361 0020 FFF7FEFF 		bl	lv_obj_refresh_self_size
 1362              	.LVL164:
 114:../../Middlewares/LVGL/GUI/lvgl/src/widgets/checkbox/lv_checkbox.c **** }
 1363              		.loc 1 114 5 view .LVU443
 1364 0024 2046     		mov	r0, r4
 1365 0026 FFF7FEFF 		bl	lv_obj_invalidate
 1366              	.LVL165:
 115:../../Middlewares/LVGL/GUI/lvgl/src/widgets/checkbox/lv_checkbox.c **** 
 1367              		.loc 1 115 1 is_stmt 0 view .LVU444
 1368 002a 38BD     		pop	{r3, r4, r5, pc}
 1369              	.LVL166:
 1370              	.L49:
 108:../../Middlewares/LVGL/GUI/lvgl/src/widgets/checkbox/lv_checkbox.c **** 
 1371              		.loc 1 108 25 is_stmt 1 discriminator 1 view .LVU445
 1372 002c C06A     		ldr	r0, [r0, #44]
 1373              	.LVL167:
 108:../../Middlewares/LVGL/GUI/lvgl/src/widgets/checkbox/lv_checkbox.c **** 
 1374              		.loc 1 108 25 is_stmt 0 discriminator 1 view .LVU446
 1375 002e FFF7FEFF 		bl	lv_free
 1376              	.LVL168:
 108:../../Middlewares/LVGL/GUI/lvgl/src/widgets/checkbox/lv_checkbox.c **** 
 1377              		.loc 1 108 25 discriminator 1 view .LVU447
 1378 0032 EDE7     		b	.L47
 1379              		.cfi_endproc
 1380              	.LFE174:
 1382              		.section	.text.lv_checkbox_get_text,"ax",%progbits
 1383              		.align	1
 1384              		.global	lv_checkbox_get_text
 1385              		.syntax unified
 1386              		.thumb
 1387              		.thumb_func
 1389              	lv_checkbox_get_text:
 1390              	.LVL169:
 1391              	.LFB175:
 122:../../Middlewares/LVGL/GUI/lvgl/src/widgets/checkbox/lv_checkbox.c ****     lv_checkbox_t * cb = (lv_checkbox_t *)obj;
 1392              		.loc 1 122 1 is_stmt 1 view -0
 1393              		.cfi_startproc
 1394              		@ args = 0, pretend = 0, frame = 0
 1395              		@ frame_needed = 0, uses_anonymous_args = 0
 1396              		@ link register save eliminated.
 123:../../Middlewares/LVGL/GUI/lvgl/src/widgets/checkbox/lv_checkbox.c ****     return cb->txt;
 1397              		.loc 1 123 5 view .LVU449
ARM GAS  C:\Users\28576\AppData\Local\Temp\ccRKCVo4.s 			page 50


 124:../../Middlewares/LVGL/GUI/lvgl/src/widgets/checkbox/lv_checkbox.c **** }
 1398              		.loc 1 124 5 view .LVU450
 125:../../Middlewares/LVGL/GUI/lvgl/src/widgets/checkbox/lv_checkbox.c **** 
 1399              		.loc 1 125 1 is_stmt 0 view .LVU451
 1400 0000 C06A     		ldr	r0, [r0, #44]
 1401              	.LVL170:
 125:../../Middlewares/LVGL/GUI/lvgl/src/widgets/checkbox/lv_checkbox.c **** 
 1402              		.loc 1 125 1 view .LVU452
 1403 0002 7047     		bx	lr
 1404              		.cfi_endproc
 1405              	.LFE175:
 1407              		.global	lv_checkbox_class
 1408              		.section	.rodata.str1.4,"aMS",%progbits,1
 1409              		.align	2
 1410              	.LC1:
 1411 0000 6C765F63 		.ascii	"lv_checkbox\000"
 1411      6865636B 
 1411      626F7800 
 1412              		.section	.rodata.lv_checkbox_class,"a"
 1413              		.align	2
 1416              	lv_checkbox_class:
 1417 0000 00000000 		.word	lv_obj_class
 1418 0004 00000000 		.word	lv_checkbox_constructor
 1419 0008 00000000 		.word	lv_checkbox_destructor
 1420 000c 00000000 		.word	lv_checkbox_event
 1421 0010 00000000 		.space	4
 1422 0014 00000000 		.word	.LC1
 1423 0018 FFFFFF3F 		.word	1073741823
 1424 001c FFFFFF3F 		.word	1073741823
 1425 0020 44       		.byte	68
 1426 0021 03       		.byte	3
 1427 0022 00       		.byte	0
 1428 0023 00       		.space	1
 1429              		.text
 1430              	.Letext0:
 1431              		.file 4 "C:/Users/28576/AppData/Roaming/xPacks/@xpack-dev-tools/arm-none-eabi-gcc/15.2.1-1.1.1/.co
 1432              		.file 5 "C:/Users/28576/AppData/Roaming/xPacks/@xpack-dev-tools/arm-none-eabi-gcc/15.2.1-1.1.1/.co
 1433              		.file 6 "C:/Users/28576/AppData/Roaming/xPacks/@xpack-dev-tools/arm-none-eabi-gcc/15.2.1-1.1.1/.co
 1434              		.file 7 "H:/STM32H7/RGB_LVGL/Middlewares/LVGL/GUI/lvgl/src/misc/lv_types.h"
 1435              		.file 8 "H:/STM32H7/RGB_LVGL/Middlewares/LVGL/GUI/lvgl/src/core/lv_obj_private.h"
 1436              		.file 9 "H:/STM32H7/RGB_LVGL/Middlewares/LVGL/GUI/lvgl/src/core/lv_obj_class_private.h"
 1437              		.file 10 "H:/STM32H7/RGB_LVGL/Middlewares/LVGL/GUI/lvgl/src/draw/lv_draw.h"
 1438              		.file 11 "H:/STM32H7/RGB_LVGL/Middlewares/LVGL/GUI/lvgl/src/font/lv_font.h"
 1439              		.file 12 "../../Middlewares/LVGL/GUI/lvgl/src/widgets/checkbox/lv_checkbox_private.h"
 1440              		.file 13 "H:/STM32H7/RGB_LVGL/Middlewares/LVGL/GUI/lvgl/src/misc/lv_array.h"
 1441              		.file 14 "H:/STM32H7/RGB_LVGL/Middlewares/LVGL/GUI/lvgl/src/draw/lv_draw_buf.h"
 1442              		.file 15 "H:/STM32H7/RGB_LVGL/Middlewares/LVGL/GUI/lvgl/src/misc/lv_color.h"
 1443              		.file 16 "H:/STM32H7/RGB_LVGL/Middlewares/LVGL/GUI/lvgl/src/draw/lv_image_dsc.h"
 1444              		.file 17 "H:/STM32H7/RGB_LVGL/Middlewares/LVGL/GUI/lvgl/src/misc/lv_text.h"
 1445              		.file 18 "H:/STM32H7/RGB_LVGL/Middlewares/LVGL/GUI/lvgl/src/misc/lv_bidi.h"
 1446              		.file 19 "H:/STM32H7/RGB_LVGL/Middlewares/LVGL/GUI/lvgl/src/misc/lv_grad.h"
 1447              		.file 20 "H:/STM32H7/RGB_LVGL/Middlewares/LVGL/GUI/lvgl/src/misc/lv_style.h"
 1448              		.file 21 "H:/STM32H7/RGB_LVGL/Middlewares/LVGL/GUI/lvgl/src/misc/lv_event.h"
 1449              		.file 22 "H:/STM32H7/RGB_LVGL/Middlewares/LVGL/GUI/lvgl/src/draw/lv_draw_rect.h"
 1450              		.file 23 "H:/STM32H7/RGB_LVGL/Middlewares/LVGL/GUI/lvgl/src/draw/lv_draw_label.h"
 1451              		.file 24 "H:/STM32H7/RGB_LVGL/Middlewares/LVGL/GUI/lvgl/src/core/lv_obj_class.h"
 1452              		.file 25 "H:/STM32H7/RGB_LVGL/Middlewares/LVGL/GUI/lvgl/src/indev/lv_indev.h"
ARM GAS  C:\Users\28576\AppData\Local\Temp\ccRKCVo4.s 			page 51


 1453              		.file 26 "H:/STM32H7/RGB_LVGL/Middlewares/LVGL/GUI/lvgl/src/core/lv_obj.h"
 1454              		.file 27 "../../Middlewares/LVGL/GUI/lvgl/src/widgets/checkbox/lv_checkbox.h"
 1455              		.file 28 "H:/STM32H7/RGB_LVGL/Middlewares/LVGL/GUI/lvgl/src/core/lv_obj_pos.h"
 1456              		.file 29 "H:/STM32H7/RGB_LVGL/Middlewares/LVGL/GUI/lvgl/src/stdlib/lv_string.h"
 1457              		.file 30 "H:/STM32H7/RGB_LVGL/Middlewares/LVGL/GUI/lvgl/src/stdlib/lv_mem.h"
 1458              		.file 31 "H:/STM32H7/RGB_LVGL/Middlewares/LVGL/GUI/lvgl/src/core/lv_obj_draw.h"
 1459              		.file 32 "H:/STM32H7/RGB_LVGL/Middlewares/LVGL/GUI/lvgl/src/core/lv_obj_event.h"
 1460              		.file 33 "H:/STM32H7/RGB_LVGL/Middlewares/LVGL/GUI/lvgl/src/core/lv_obj_style.h"
ARM GAS  C:\Users\28576\AppData\Local\Temp\ccRKCVo4.s 			page 52

