ARM GAS  C:\Users\28576\AppData\Local\Temp\ccAY92po.s 			page 1


   1              		.cpu cortex-m7
   2              		.arch armv7e-m
   3              		.fpu fpv5-d16
   4              		.eabi_attribute 28, 1
   5              		.eabi_attribute 20, 1
   6              		.eabi_attribute 21, 1
   7              		.eabi_attribute 23, 3
   8              		.eabi_attribute 24, 1
   9              		.eabi_attribute 25, 1
  10              		.eabi_attribute 26, 1
  11              		.eabi_attribute 30, 1
  12              		.eabi_attribute 34, 1
  13              		.eabi_attribute 18, 4
  14              		.file	"lv_cache_lru_ll.c"
  15              		.text
  16              	.Ltext0:
  17              		.cfi_sections	.debug_frame
  18              		.file 1 "../../Middlewares/LVGL/GUI/lvgl/src/misc/cache/class/lv_cache_lru_ll.c"
  19              		.section	.text.destroy_cb,"ax",%progbits
  20              		.align	1
  21              		.syntax unified
  22              		.thumb
  23              		.thumb_func
  25              	destroy_cb:
  26              	.LVL0:
  27              	.LFB21:
   1:../../Middlewares/LVGL/GUI/lvgl/src/misc/cache/class/lv_cache_lru_ll.c **** /**
   2:../../Middlewares/LVGL/GUI/lvgl/src/misc/cache/class/lv_cache_lru_ll.c **** * @file lv_cache_lru_ll.c
   3:../../Middlewares/LVGL/GUI/lvgl/src/misc/cache/class/lv_cache_lru_ll.c **** *
   4:../../Middlewares/LVGL/GUI/lvgl/src/misc/cache/class/lv_cache_lru_ll.c **** */
   5:../../Middlewares/LVGL/GUI/lvgl/src/misc/cache/class/lv_cache_lru_ll.c **** 
   6:../../Middlewares/LVGL/GUI/lvgl/src/misc/cache/class/lv_cache_lru_ll.c **** /*********************************\
   7:../../Middlewares/LVGL/GUI/lvgl/src/misc/cache/class/lv_cache_lru_ll.c **** *                                *
   8:../../Middlewares/LVGL/GUI/lvgl/src/misc/cache/class/lv_cache_lru_ll.c **** *  ┏ ━ ━ ━ ━ ━ ━ ━ ━ ━ ━ ━ ━ ━ ┓ *
   9:../../Middlewares/LVGL/GUI/lvgl/src/misc/cache/class/lv_cache_lru_ll.c **** *       ┌ ─ ─ ─ ┐                *
  10:../../Middlewares/LVGL/GUI/lvgl/src/misc/cache/class/lv_cache_lru_ll.c **** *  ┃      Cache   insert       ┃ *
  11:../../Middlewares/LVGL/GUI/lvgl/src/misc/cache/class/lv_cache_lru_ll.c **** *       │Hitting│  head          *
  12:../../Middlewares/LVGL/GUI/lvgl/src/misc/cache/class/lv_cache_lru_ll.c **** *  ┃     ─ ─ ─ ─               ┃ *
  13:../../Middlewares/LVGL/GUI/lvgl/src/misc/cache/class/lv_cache_lru_ll.c **** *        ┌─────┐                 *
  14:../../Middlewares/LVGL/GUI/lvgl/src/misc/cache/class/lv_cache_lru_ll.c **** *  ┃     │  B  │               ┃ *
  15:../../Middlewares/LVGL/GUI/lvgl/src/misc/cache/class/lv_cache_lru_ll.c **** *        └──▲──┘                 *
  16:../../Middlewares/LVGL/GUI/lvgl/src/misc/cache/class/lv_cache_lru_ll.c **** *  ┃        │                  ┃ *
  17:../../Middlewares/LVGL/GUI/lvgl/src/misc/cache/class/lv_cache_lru_ll.c **** *        ┌──┴──┐                 *
  18:../../Middlewares/LVGL/GUI/lvgl/src/misc/cache/class/lv_cache_lru_ll.c **** *  ┃     │  E  │               ┃ *
  19:../../Middlewares/LVGL/GUI/lvgl/src/misc/cache/class/lv_cache_lru_ll.c **** *        └──▲──┘                 *
  20:../../Middlewares/LVGL/GUI/lvgl/src/misc/cache/class/lv_cache_lru_ll.c **** *  ┃        │                  ┃ *
  21:../../Middlewares/LVGL/GUI/lvgl/src/misc/cache/class/lv_cache_lru_ll.c **** *        ┌──┴──┐                 *
  22:../../Middlewares/LVGL/GUI/lvgl/src/misc/cache/class/lv_cache_lru_ll.c **** *  ┃     │  A  │ ┌ ─ ─ ─ ─ ─ ┐ ┃ *
  23:../../Middlewares/LVGL/GUI/lvgl/src/misc/cache/class/lv_cache_lru_ll.c **** *        └──▲──┘      LRU        *
  24:../../Middlewares/LVGL/GUI/lvgl/src/misc/cache/class/lv_cache_lru_ll.c **** *  ┃        │    │   Cache   │ ┃ *
  25:../../Middlewares/LVGL/GUI/lvgl/src/misc/cache/class/lv_cache_lru_ll.c **** *        ┌──┴──┐  ─ ─ ─ ─ ─ ─    *
  26:../../Middlewares/LVGL/GUI/lvgl/src/misc/cache/class/lv_cache_lru_ll.c **** *  ┃     │  D  │               ┃ *
  27:../../Middlewares/LVGL/GUI/lvgl/src/misc/cache/class/lv_cache_lru_ll.c **** *        └──▲──┘                 *
  28:../../Middlewares/LVGL/GUI/lvgl/src/misc/cache/class/lv_cache_lru_ll.c **** *  ┃        │                  ┃ *
  29:../../Middlewares/LVGL/GUI/lvgl/src/misc/cache/class/lv_cache_lru_ll.c **** *        ┌──┴──┐                 *
  30:../../Middlewares/LVGL/GUI/lvgl/src/misc/cache/class/lv_cache_lru_ll.c **** *  ┃     │  C  │               ┃ *
  31:../../Middlewares/LVGL/GUI/lvgl/src/misc/cache/class/lv_cache_lru_ll.c **** *        └──▲──┘                 *
ARM GAS  C:\Users\28576\AppData\Local\Temp\ccAY92po.s 			page 2


  32:../../Middlewares/LVGL/GUI/lvgl/src/misc/cache/class/lv_cache_lru_ll.c **** *  ┃   ┌ ─ ─│─ ─ ┐             ┃ *
  33:../../Middlewares/LVGL/GUI/lvgl/src/misc/cache/class/lv_cache_lru_ll.c **** *        ┌──┴──┐                 *
  34:../../Middlewares/LVGL/GUI/lvgl/src/misc/cache/class/lv_cache_lru_ll.c **** *  ┃   │ │  F  │ │             ┃ *
  35:../../Middlewares/LVGL/GUI/lvgl/src/misc/cache/class/lv_cache_lru_ll.c **** *        └─────┘                 *
  36:../../Middlewares/LVGL/GUI/lvgl/src/misc/cache/class/lv_cache_lru_ll.c **** *  ┃   └ ─ ─ ─ ─ ┘             ┃ *
  37:../../Middlewares/LVGL/GUI/lvgl/src/misc/cache/class/lv_cache_lru_ll.c **** *        remove                  *
  38:../../Middlewares/LVGL/GUI/lvgl/src/misc/cache/class/lv_cache_lru_ll.c **** *  ┃      tail                 ┃ *
  39:../../Middlewares/LVGL/GUI/lvgl/src/misc/cache/class/lv_cache_lru_ll.c **** *   ━ ━ ━ ━ ━ ━ ━ ━ ━ ━ ━ ━ ━ ━  *
  40:../../Middlewares/LVGL/GUI/lvgl/src/misc/cache/class/lv_cache_lru_ll.c **** *                                *
  41:../../Middlewares/LVGL/GUI/lvgl/src/misc/cache/class/lv_cache_lru_ll.c **** \*********************************/
  42:../../Middlewares/LVGL/GUI/lvgl/src/misc/cache/class/lv_cache_lru_ll.c **** 
  43:../../Middlewares/LVGL/GUI/lvgl/src/misc/cache/class/lv_cache_lru_ll.c **** /*********************
  44:../../Middlewares/LVGL/GUI/lvgl/src/misc/cache/class/lv_cache_lru_ll.c ****  *      INCLUDES
  45:../../Middlewares/LVGL/GUI/lvgl/src/misc/cache/class/lv_cache_lru_ll.c ****  *********************/
  46:../../Middlewares/LVGL/GUI/lvgl/src/misc/cache/class/lv_cache_lru_ll.c **** 
  47:../../Middlewares/LVGL/GUI/lvgl/src/misc/cache/class/lv_cache_lru_ll.c **** #include "lv_cache_lru_ll.h"
  48:../../Middlewares/LVGL/GUI/lvgl/src/misc/cache/class/lv_cache_lru_ll.c **** #include "../lv_cache_entry.h"
  49:../../Middlewares/LVGL/GUI/lvgl/src/misc/cache/class/lv_cache_lru_ll.c **** #include "../../../stdlib/lv_sprintf.h"
  50:../../Middlewares/LVGL/GUI/lvgl/src/misc/cache/class/lv_cache_lru_ll.c **** #include "../../../stdlib/lv_string.h"
  51:../../Middlewares/LVGL/GUI/lvgl/src/misc/cache/class/lv_cache_lru_ll.c **** #include "../../lv_ll.h"
  52:../../Middlewares/LVGL/GUI/lvgl/src/misc/cache/class/lv_cache_lru_ll.c **** 
  53:../../Middlewares/LVGL/GUI/lvgl/src/misc/cache/class/lv_cache_lru_ll.c **** #include "../../lv_iter.h"
  54:../../Middlewares/LVGL/GUI/lvgl/src/misc/cache/class/lv_cache_lru_ll.c **** #include "../../lv_assert.h"
  55:../../Middlewares/LVGL/GUI/lvgl/src/misc/cache/class/lv_cache_lru_ll.c **** 
  56:../../Middlewares/LVGL/GUI/lvgl/src/misc/cache/class/lv_cache_lru_ll.c **** /*********************
  57:../../Middlewares/LVGL/GUI/lvgl/src/misc/cache/class/lv_cache_lru_ll.c ****  *      DEFINES
  58:../../Middlewares/LVGL/GUI/lvgl/src/misc/cache/class/lv_cache_lru_ll.c ****  *********************/
  59:../../Middlewares/LVGL/GUI/lvgl/src/misc/cache/class/lv_cache_lru_ll.c **** 
  60:../../Middlewares/LVGL/GUI/lvgl/src/misc/cache/class/lv_cache_lru_ll.c **** /**********************
  61:../../Middlewares/LVGL/GUI/lvgl/src/misc/cache/class/lv_cache_lru_ll.c ****  *      TYPEDEFS
  62:../../Middlewares/LVGL/GUI/lvgl/src/misc/cache/class/lv_cache_lru_ll.c ****  **********************/
  63:../../Middlewares/LVGL/GUI/lvgl/src/misc/cache/class/lv_cache_lru_ll.c **** 
  64:../../Middlewares/LVGL/GUI/lvgl/src/misc/cache/class/lv_cache_lru_ll.c **** typedef uint32_t (get_data_size_cb_t)(const void * data);
  65:../../Middlewares/LVGL/GUI/lvgl/src/misc/cache/class/lv_cache_lru_ll.c **** 
  66:../../Middlewares/LVGL/GUI/lvgl/src/misc/cache/class/lv_cache_lru_ll.c **** struct _lv_cache_lru_ll_t {
  67:../../Middlewares/LVGL/GUI/lvgl/src/misc/cache/class/lv_cache_lru_ll.c ****     lv_cache_t cache;
  68:../../Middlewares/LVGL/GUI/lvgl/src/misc/cache/class/lv_cache_lru_ll.c ****     lv_ll_t ll;
  69:../../Middlewares/LVGL/GUI/lvgl/src/misc/cache/class/lv_cache_lru_ll.c ****     get_data_size_cb_t * get_data_size_cb;
  70:../../Middlewares/LVGL/GUI/lvgl/src/misc/cache/class/lv_cache_lru_ll.c **** };
  71:../../Middlewares/LVGL/GUI/lvgl/src/misc/cache/class/lv_cache_lru_ll.c **** 
  72:../../Middlewares/LVGL/GUI/lvgl/src/misc/cache/class/lv_cache_lru_ll.c **** typedef struct _lv_cache_lru_ll_t lv_cache_lru_ll_t;
  73:../../Middlewares/LVGL/GUI/lvgl/src/misc/cache/class/lv_cache_lru_ll.c **** 
  74:../../Middlewares/LVGL/GUI/lvgl/src/misc/cache/class/lv_cache_lru_ll.c **** /**********************
  75:../../Middlewares/LVGL/GUI/lvgl/src/misc/cache/class/lv_cache_lru_ll.c ****  *  STATIC PROTOTYPES
  76:../../Middlewares/LVGL/GUI/lvgl/src/misc/cache/class/lv_cache_lru_ll.c ****  **********************/
  77:../../Middlewares/LVGL/GUI/lvgl/src/misc/cache/class/lv_cache_lru_ll.c **** 
  78:../../Middlewares/LVGL/GUI/lvgl/src/misc/cache/class/lv_cache_lru_ll.c **** static void * alloc_cb(void);
  79:../../Middlewares/LVGL/GUI/lvgl/src/misc/cache/class/lv_cache_lru_ll.c **** static bool init_cnt_cb(lv_cache_t * cache);
  80:../../Middlewares/LVGL/GUI/lvgl/src/misc/cache/class/lv_cache_lru_ll.c **** static bool init_size_cb(lv_cache_t * cache);
  81:../../Middlewares/LVGL/GUI/lvgl/src/misc/cache/class/lv_cache_lru_ll.c **** static void  destroy_cb(lv_cache_t * cache, void * user_data);
  82:../../Middlewares/LVGL/GUI/lvgl/src/misc/cache/class/lv_cache_lru_ll.c **** 
  83:../../Middlewares/LVGL/GUI/lvgl/src/misc/cache/class/lv_cache_lru_ll.c **** static lv_cache_entry_t * get_cb(lv_cache_t * cache, const void * key, void * user_data);
  84:../../Middlewares/LVGL/GUI/lvgl/src/misc/cache/class/lv_cache_lru_ll.c **** static lv_cache_entry_t * add_cb(lv_cache_t * cache, const void * key, void * user_data);
  85:../../Middlewares/LVGL/GUI/lvgl/src/misc/cache/class/lv_cache_lru_ll.c **** static void remove_cb(lv_cache_t * cache, lv_cache_entry_t * entry, void * user_data);
  86:../../Middlewares/LVGL/GUI/lvgl/src/misc/cache/class/lv_cache_lru_ll.c **** static void drop_cb(lv_cache_t * cache, const void * key, void * user_data);
  87:../../Middlewares/LVGL/GUI/lvgl/src/misc/cache/class/lv_cache_lru_ll.c **** static void drop_all_cb(lv_cache_t * cache, void * user_data);
  88:../../Middlewares/LVGL/GUI/lvgl/src/misc/cache/class/lv_cache_lru_ll.c **** static lv_cache_entry_t * get_victim_cb(lv_cache_t * cache, void * user_data);
ARM GAS  C:\Users\28576\AppData\Local\Temp\ccAY92po.s 			page 3


  89:../../Middlewares/LVGL/GUI/lvgl/src/misc/cache/class/lv_cache_lru_ll.c **** static lv_cache_reserve_cond_res_t reserve_cond_cb(lv_cache_t * cache, const void * key, size_t res
  90:../../Middlewares/LVGL/GUI/lvgl/src/misc/cache/class/lv_cache_lru_ll.c ****                                                    void * user_data);
  91:../../Middlewares/LVGL/GUI/lvgl/src/misc/cache/class/lv_cache_lru_ll.c **** 
  92:../../Middlewares/LVGL/GUI/lvgl/src/misc/cache/class/lv_cache_lru_ll.c **** static void * alloc_new_node(lv_cache_lru_ll_t * lru, void * key, void * user_data);
  93:../../Middlewares/LVGL/GUI/lvgl/src/misc/cache/class/lv_cache_lru_ll.c **** 
  94:../../Middlewares/LVGL/GUI/lvgl/src/misc/cache/class/lv_cache_lru_ll.c **** static uint32_t cnt_get_data_size_cb(const void * data);
  95:../../Middlewares/LVGL/GUI/lvgl/src/misc/cache/class/lv_cache_lru_ll.c **** static uint32_t size_get_data_size_cb(const void * data);
  96:../../Middlewares/LVGL/GUI/lvgl/src/misc/cache/class/lv_cache_lru_ll.c **** 
  97:../../Middlewares/LVGL/GUI/lvgl/src/misc/cache/class/lv_cache_lru_ll.c **** static lv_iter_t * cache_iter_create_cb(lv_cache_t * cache);
  98:../../Middlewares/LVGL/GUI/lvgl/src/misc/cache/class/lv_cache_lru_ll.c **** static lv_result_t cache_iter_next_cb(void * instance, void * context, void * elem);
  99:../../Middlewares/LVGL/GUI/lvgl/src/misc/cache/class/lv_cache_lru_ll.c **** 
 100:../../Middlewares/LVGL/GUI/lvgl/src/misc/cache/class/lv_cache_lru_ll.c **** /**********************
 101:../../Middlewares/LVGL/GUI/lvgl/src/misc/cache/class/lv_cache_lru_ll.c ****  *  GLOBAL VARIABLES
 102:../../Middlewares/LVGL/GUI/lvgl/src/misc/cache/class/lv_cache_lru_ll.c ****  **********************/
 103:../../Middlewares/LVGL/GUI/lvgl/src/misc/cache/class/lv_cache_lru_ll.c **** const lv_cache_class_t lv_cache_class_lru_ll_count = {
 104:../../Middlewares/LVGL/GUI/lvgl/src/misc/cache/class/lv_cache_lru_ll.c ****     .alloc_cb = alloc_cb,
 105:../../Middlewares/LVGL/GUI/lvgl/src/misc/cache/class/lv_cache_lru_ll.c ****     .init_cb = init_cnt_cb,
 106:../../Middlewares/LVGL/GUI/lvgl/src/misc/cache/class/lv_cache_lru_ll.c ****     .destroy_cb = destroy_cb,
 107:../../Middlewares/LVGL/GUI/lvgl/src/misc/cache/class/lv_cache_lru_ll.c **** 
 108:../../Middlewares/LVGL/GUI/lvgl/src/misc/cache/class/lv_cache_lru_ll.c ****     .get_cb = get_cb,
 109:../../Middlewares/LVGL/GUI/lvgl/src/misc/cache/class/lv_cache_lru_ll.c ****     .add_cb = add_cb,
 110:../../Middlewares/LVGL/GUI/lvgl/src/misc/cache/class/lv_cache_lru_ll.c ****     .remove_cb = remove_cb,
 111:../../Middlewares/LVGL/GUI/lvgl/src/misc/cache/class/lv_cache_lru_ll.c ****     .drop_cb = drop_cb,
 112:../../Middlewares/LVGL/GUI/lvgl/src/misc/cache/class/lv_cache_lru_ll.c ****     .drop_all_cb = drop_all_cb,
 113:../../Middlewares/LVGL/GUI/lvgl/src/misc/cache/class/lv_cache_lru_ll.c ****     .get_victim_cb = get_victim_cb,
 114:../../Middlewares/LVGL/GUI/lvgl/src/misc/cache/class/lv_cache_lru_ll.c ****     .reserve_cond_cb = reserve_cond_cb,
 115:../../Middlewares/LVGL/GUI/lvgl/src/misc/cache/class/lv_cache_lru_ll.c ****     .iter_create_cb = cache_iter_create_cb,
 116:../../Middlewares/LVGL/GUI/lvgl/src/misc/cache/class/lv_cache_lru_ll.c **** };
 117:../../Middlewares/LVGL/GUI/lvgl/src/misc/cache/class/lv_cache_lru_ll.c **** 
 118:../../Middlewares/LVGL/GUI/lvgl/src/misc/cache/class/lv_cache_lru_ll.c **** const lv_cache_class_t lv_cache_class_lru_ll_size = {
 119:../../Middlewares/LVGL/GUI/lvgl/src/misc/cache/class/lv_cache_lru_ll.c ****     .alloc_cb = alloc_cb,
 120:../../Middlewares/LVGL/GUI/lvgl/src/misc/cache/class/lv_cache_lru_ll.c ****     .init_cb = init_size_cb,
 121:../../Middlewares/LVGL/GUI/lvgl/src/misc/cache/class/lv_cache_lru_ll.c ****     .destroy_cb = destroy_cb,
 122:../../Middlewares/LVGL/GUI/lvgl/src/misc/cache/class/lv_cache_lru_ll.c **** 
 123:../../Middlewares/LVGL/GUI/lvgl/src/misc/cache/class/lv_cache_lru_ll.c ****     .get_cb = get_cb,
 124:../../Middlewares/LVGL/GUI/lvgl/src/misc/cache/class/lv_cache_lru_ll.c ****     .add_cb = add_cb,
 125:../../Middlewares/LVGL/GUI/lvgl/src/misc/cache/class/lv_cache_lru_ll.c ****     .remove_cb = remove_cb,
 126:../../Middlewares/LVGL/GUI/lvgl/src/misc/cache/class/lv_cache_lru_ll.c ****     .drop_cb = drop_cb,
 127:../../Middlewares/LVGL/GUI/lvgl/src/misc/cache/class/lv_cache_lru_ll.c ****     .drop_all_cb = drop_all_cb,
 128:../../Middlewares/LVGL/GUI/lvgl/src/misc/cache/class/lv_cache_lru_ll.c ****     .get_victim_cb = get_victim_cb,
 129:../../Middlewares/LVGL/GUI/lvgl/src/misc/cache/class/lv_cache_lru_ll.c ****     .reserve_cond_cb = reserve_cond_cb,
 130:../../Middlewares/LVGL/GUI/lvgl/src/misc/cache/class/lv_cache_lru_ll.c ****     .iter_create_cb = cache_iter_create_cb,
 131:../../Middlewares/LVGL/GUI/lvgl/src/misc/cache/class/lv_cache_lru_ll.c **** };
 132:../../Middlewares/LVGL/GUI/lvgl/src/misc/cache/class/lv_cache_lru_ll.c **** 
 133:../../Middlewares/LVGL/GUI/lvgl/src/misc/cache/class/lv_cache_lru_ll.c **** /**********************
 134:../../Middlewares/LVGL/GUI/lvgl/src/misc/cache/class/lv_cache_lru_ll.c ****  *  STATIC VARIABLES
 135:../../Middlewares/LVGL/GUI/lvgl/src/misc/cache/class/lv_cache_lru_ll.c ****  **********************/
 136:../../Middlewares/LVGL/GUI/lvgl/src/misc/cache/class/lv_cache_lru_ll.c **** 
 137:../../Middlewares/LVGL/GUI/lvgl/src/misc/cache/class/lv_cache_lru_ll.c **** /**********************
 138:../../Middlewares/LVGL/GUI/lvgl/src/misc/cache/class/lv_cache_lru_ll.c ****  *      MACROS
 139:../../Middlewares/LVGL/GUI/lvgl/src/misc/cache/class/lv_cache_lru_ll.c ****  **********************/
 140:../../Middlewares/LVGL/GUI/lvgl/src/misc/cache/class/lv_cache_lru_ll.c **** 
 141:../../Middlewares/LVGL/GUI/lvgl/src/misc/cache/class/lv_cache_lru_ll.c **** /**********************
 142:../../Middlewares/LVGL/GUI/lvgl/src/misc/cache/class/lv_cache_lru_ll.c ****  *   GLOBAL FUNCTIONS
 143:../../Middlewares/LVGL/GUI/lvgl/src/misc/cache/class/lv_cache_lru_ll.c ****  **********************/
 144:../../Middlewares/LVGL/GUI/lvgl/src/misc/cache/class/lv_cache_lru_ll.c **** 
 145:../../Middlewares/LVGL/GUI/lvgl/src/misc/cache/class/lv_cache_lru_ll.c **** /**********************
ARM GAS  C:\Users\28576\AppData\Local\Temp\ccAY92po.s 			page 4


 146:../../Middlewares/LVGL/GUI/lvgl/src/misc/cache/class/lv_cache_lru_ll.c ****  *   STATIC FUNCTIONS
 147:../../Middlewares/LVGL/GUI/lvgl/src/misc/cache/class/lv_cache_lru_ll.c ****  **********************/
 148:../../Middlewares/LVGL/GUI/lvgl/src/misc/cache/class/lv_cache_lru_ll.c **** 
 149:../../Middlewares/LVGL/GUI/lvgl/src/misc/cache/class/lv_cache_lru_ll.c **** static void * alloc_new_node(lv_cache_lru_ll_t * lru, void * key, void * user_data)
 150:../../Middlewares/LVGL/GUI/lvgl/src/misc/cache/class/lv_cache_lru_ll.c **** {
 151:../../Middlewares/LVGL/GUI/lvgl/src/misc/cache/class/lv_cache_lru_ll.c ****     LV_UNUSED(user_data);
 152:../../Middlewares/LVGL/GUI/lvgl/src/misc/cache/class/lv_cache_lru_ll.c **** 
 153:../../Middlewares/LVGL/GUI/lvgl/src/misc/cache/class/lv_cache_lru_ll.c ****     LV_ASSERT_NULL(lru);
 154:../../Middlewares/LVGL/GUI/lvgl/src/misc/cache/class/lv_cache_lru_ll.c ****     LV_ASSERT_NULL(key);
 155:../../Middlewares/LVGL/GUI/lvgl/src/misc/cache/class/lv_cache_lru_ll.c **** 
 156:../../Middlewares/LVGL/GUI/lvgl/src/misc/cache/class/lv_cache_lru_ll.c ****     if(lru == NULL || key == NULL) {
 157:../../Middlewares/LVGL/GUI/lvgl/src/misc/cache/class/lv_cache_lru_ll.c ****         return NULL;
 158:../../Middlewares/LVGL/GUI/lvgl/src/misc/cache/class/lv_cache_lru_ll.c ****     }
 159:../../Middlewares/LVGL/GUI/lvgl/src/misc/cache/class/lv_cache_lru_ll.c **** 
 160:../../Middlewares/LVGL/GUI/lvgl/src/misc/cache/class/lv_cache_lru_ll.c ****     void * new_node = lv_ll_ins_head(&lru->ll);
 161:../../Middlewares/LVGL/GUI/lvgl/src/misc/cache/class/lv_cache_lru_ll.c ****     if(new_node == NULL) {
 162:../../Middlewares/LVGL/GUI/lvgl/src/misc/cache/class/lv_cache_lru_ll.c ****         return NULL;
 163:../../Middlewares/LVGL/GUI/lvgl/src/misc/cache/class/lv_cache_lru_ll.c ****     }
 164:../../Middlewares/LVGL/GUI/lvgl/src/misc/cache/class/lv_cache_lru_ll.c **** 
 165:../../Middlewares/LVGL/GUI/lvgl/src/misc/cache/class/lv_cache_lru_ll.c ****     lv_memcpy(new_node, key, lru->cache.node_size);
 166:../../Middlewares/LVGL/GUI/lvgl/src/misc/cache/class/lv_cache_lru_ll.c ****     lv_cache_entry_t * entry = lv_cache_entry_get_entry(new_node, lru->cache.node_size);
 167:../../Middlewares/LVGL/GUI/lvgl/src/misc/cache/class/lv_cache_lru_ll.c ****     lv_cache_entry_init(entry, &lru->cache, lru->cache.node_size);
 168:../../Middlewares/LVGL/GUI/lvgl/src/misc/cache/class/lv_cache_lru_ll.c ****     return entry;
 169:../../Middlewares/LVGL/GUI/lvgl/src/misc/cache/class/lv_cache_lru_ll.c **** }
 170:../../Middlewares/LVGL/GUI/lvgl/src/misc/cache/class/lv_cache_lru_ll.c **** 
 171:../../Middlewares/LVGL/GUI/lvgl/src/misc/cache/class/lv_cache_lru_ll.c **** static void * alloc_cb(void)
 172:../../Middlewares/LVGL/GUI/lvgl/src/misc/cache/class/lv_cache_lru_ll.c **** {
 173:../../Middlewares/LVGL/GUI/lvgl/src/misc/cache/class/lv_cache_lru_ll.c ****     void * res = lv_malloc(sizeof(lv_cache_lru_ll_t));
 174:../../Middlewares/LVGL/GUI/lvgl/src/misc/cache/class/lv_cache_lru_ll.c ****     LV_ASSERT_MALLOC(res);
 175:../../Middlewares/LVGL/GUI/lvgl/src/misc/cache/class/lv_cache_lru_ll.c ****     if(res == NULL) {
 176:../../Middlewares/LVGL/GUI/lvgl/src/misc/cache/class/lv_cache_lru_ll.c ****         LV_LOG_ERROR("malloc failed");
 177:../../Middlewares/LVGL/GUI/lvgl/src/misc/cache/class/lv_cache_lru_ll.c ****         return NULL;
 178:../../Middlewares/LVGL/GUI/lvgl/src/misc/cache/class/lv_cache_lru_ll.c ****     }
 179:../../Middlewares/LVGL/GUI/lvgl/src/misc/cache/class/lv_cache_lru_ll.c **** 
 180:../../Middlewares/LVGL/GUI/lvgl/src/misc/cache/class/lv_cache_lru_ll.c ****     lv_memzero(res, sizeof(lv_cache_lru_ll_t));
 181:../../Middlewares/LVGL/GUI/lvgl/src/misc/cache/class/lv_cache_lru_ll.c ****     return res;
 182:../../Middlewares/LVGL/GUI/lvgl/src/misc/cache/class/lv_cache_lru_ll.c **** }
 183:../../Middlewares/LVGL/GUI/lvgl/src/misc/cache/class/lv_cache_lru_ll.c **** 
 184:../../Middlewares/LVGL/GUI/lvgl/src/misc/cache/class/lv_cache_lru_ll.c **** static bool init_cnt_cb(lv_cache_t * cache)
 185:../../Middlewares/LVGL/GUI/lvgl/src/misc/cache/class/lv_cache_lru_ll.c **** {
 186:../../Middlewares/LVGL/GUI/lvgl/src/misc/cache/class/lv_cache_lru_ll.c ****     lv_cache_lru_ll_t * lru = (lv_cache_lru_ll_t *)cache;
 187:../../Middlewares/LVGL/GUI/lvgl/src/misc/cache/class/lv_cache_lru_ll.c **** 
 188:../../Middlewares/LVGL/GUI/lvgl/src/misc/cache/class/lv_cache_lru_ll.c ****     LV_ASSERT_NULL(lru->cache.ops.compare_cb);
 189:../../Middlewares/LVGL/GUI/lvgl/src/misc/cache/class/lv_cache_lru_ll.c ****     LV_ASSERT_NULL(lru->cache.ops.free_cb);
 190:../../Middlewares/LVGL/GUI/lvgl/src/misc/cache/class/lv_cache_lru_ll.c ****     LV_ASSERT(lru->cache.node_size > 0);
 191:../../Middlewares/LVGL/GUI/lvgl/src/misc/cache/class/lv_cache_lru_ll.c **** 
 192:../../Middlewares/LVGL/GUI/lvgl/src/misc/cache/class/lv_cache_lru_ll.c ****     if(lru->cache.node_size <= 0 || lru->cache.ops.compare_cb == NULL || lru->cache.ops.free_cb == 
 193:../../Middlewares/LVGL/GUI/lvgl/src/misc/cache/class/lv_cache_lru_ll.c ****         return false;
 194:../../Middlewares/LVGL/GUI/lvgl/src/misc/cache/class/lv_cache_lru_ll.c ****     }
 195:../../Middlewares/LVGL/GUI/lvgl/src/misc/cache/class/lv_cache_lru_ll.c **** 
 196:../../Middlewares/LVGL/GUI/lvgl/src/misc/cache/class/lv_cache_lru_ll.c ****     lv_ll_init(&lru->ll, lv_cache_entry_get_size(lru->cache.node_size));
 197:../../Middlewares/LVGL/GUI/lvgl/src/misc/cache/class/lv_cache_lru_ll.c ****     lru->get_data_size_cb = cnt_get_data_size_cb;
 198:../../Middlewares/LVGL/GUI/lvgl/src/misc/cache/class/lv_cache_lru_ll.c **** 
 199:../../Middlewares/LVGL/GUI/lvgl/src/misc/cache/class/lv_cache_lru_ll.c ****     return true;
 200:../../Middlewares/LVGL/GUI/lvgl/src/misc/cache/class/lv_cache_lru_ll.c **** }
 201:../../Middlewares/LVGL/GUI/lvgl/src/misc/cache/class/lv_cache_lru_ll.c **** 
 202:../../Middlewares/LVGL/GUI/lvgl/src/misc/cache/class/lv_cache_lru_ll.c **** static bool init_size_cb(lv_cache_t * cache)
ARM GAS  C:\Users\28576\AppData\Local\Temp\ccAY92po.s 			page 5


 203:../../Middlewares/LVGL/GUI/lvgl/src/misc/cache/class/lv_cache_lru_ll.c **** {
 204:../../Middlewares/LVGL/GUI/lvgl/src/misc/cache/class/lv_cache_lru_ll.c ****     lv_cache_lru_ll_t * lru = (lv_cache_lru_ll_t *)cache;
 205:../../Middlewares/LVGL/GUI/lvgl/src/misc/cache/class/lv_cache_lru_ll.c **** 
 206:../../Middlewares/LVGL/GUI/lvgl/src/misc/cache/class/lv_cache_lru_ll.c ****     LV_ASSERT_NULL(lru->cache.ops.compare_cb);
 207:../../Middlewares/LVGL/GUI/lvgl/src/misc/cache/class/lv_cache_lru_ll.c ****     LV_ASSERT_NULL(lru->cache.ops.free_cb);
 208:../../Middlewares/LVGL/GUI/lvgl/src/misc/cache/class/lv_cache_lru_ll.c ****     LV_ASSERT(lru->cache.node_size > 0);
 209:../../Middlewares/LVGL/GUI/lvgl/src/misc/cache/class/lv_cache_lru_ll.c **** 
 210:../../Middlewares/LVGL/GUI/lvgl/src/misc/cache/class/lv_cache_lru_ll.c ****     if(lru->cache.node_size <= 0 || lru->cache.ops.compare_cb == NULL || lru->cache.ops.free_cb == 
 211:../../Middlewares/LVGL/GUI/lvgl/src/misc/cache/class/lv_cache_lru_ll.c ****         return false;
 212:../../Middlewares/LVGL/GUI/lvgl/src/misc/cache/class/lv_cache_lru_ll.c ****     }
 213:../../Middlewares/LVGL/GUI/lvgl/src/misc/cache/class/lv_cache_lru_ll.c **** 
 214:../../Middlewares/LVGL/GUI/lvgl/src/misc/cache/class/lv_cache_lru_ll.c ****     lv_ll_init(&lru->ll, lv_cache_entry_get_size(lru->cache.node_size));
 215:../../Middlewares/LVGL/GUI/lvgl/src/misc/cache/class/lv_cache_lru_ll.c ****     lru->get_data_size_cb = size_get_data_size_cb;
 216:../../Middlewares/LVGL/GUI/lvgl/src/misc/cache/class/lv_cache_lru_ll.c **** 
 217:../../Middlewares/LVGL/GUI/lvgl/src/misc/cache/class/lv_cache_lru_ll.c ****     return true;
 218:../../Middlewares/LVGL/GUI/lvgl/src/misc/cache/class/lv_cache_lru_ll.c **** }
 219:../../Middlewares/LVGL/GUI/lvgl/src/misc/cache/class/lv_cache_lru_ll.c **** 
 220:../../Middlewares/LVGL/GUI/lvgl/src/misc/cache/class/lv_cache_lru_ll.c **** static void destroy_cb(lv_cache_t * cache, void * user_data)
 221:../../Middlewares/LVGL/GUI/lvgl/src/misc/cache/class/lv_cache_lru_ll.c **** {
  28              		.loc 1 221 1 view -0
  29              		.cfi_startproc
  30              		@ args = 0, pretend = 0, frame = 0
  31              		@ frame_needed = 0, uses_anonymous_args = 0
 222:../../Middlewares/LVGL/GUI/lvgl/src/misc/cache/class/lv_cache_lru_ll.c ****     LV_UNUSED(user_data);
  32              		.loc 1 222 5 view .LVU1
 223:../../Middlewares/LVGL/GUI/lvgl/src/misc/cache/class/lv_cache_lru_ll.c **** 
 224:../../Middlewares/LVGL/GUI/lvgl/src/misc/cache/class/lv_cache_lru_ll.c ****     lv_cache_lru_ll_t * lru = (lv_cache_lru_ll_t *)cache;
  33              		.loc 1 224 5 view .LVU2
 225:../../Middlewares/LVGL/GUI/lvgl/src/misc/cache/class/lv_cache_lru_ll.c **** 
 226:../../Middlewares/LVGL/GUI/lvgl/src/misc/cache/class/lv_cache_lru_ll.c ****     LV_ASSERT_NULL(lru);
  34              		.loc 1 226 5 view .LVU3
  35              		.loc 1 226 5 view .LVU4
  36 0000 38B1     		cbz	r0, .L3
 221:../../Middlewares/LVGL/GUI/lvgl/src/misc/cache/class/lv_cache_lru_ll.c ****     LV_UNUSED(user_data);
  37              		.loc 1 221 1 is_stmt 0 view .LVU5
  38 0002 10B5     		push	{r4, lr}
  39              	.LCFI0:
  40              		.cfi_def_cfa_offset 8
  41              		.cfi_offset 4, -8
  42              		.cfi_offset 14, -4
  43 0004 0446     		mov	r4, r0
  44              		.loc 1 226 5 is_stmt 1 view .LVU6
  45              		.loc 1 226 24 view .LVU7
 227:../../Middlewares/LVGL/GUI/lvgl/src/misc/cache/class/lv_cache_lru_ll.c **** 
 228:../../Middlewares/LVGL/GUI/lvgl/src/misc/cache/class/lv_cache_lru_ll.c ****     if(lru == NULL) {
  46              		.loc 1 228 5 view .LVU8
 229:../../Middlewares/LVGL/GUI/lvgl/src/misc/cache/class/lv_cache_lru_ll.c ****         return;
 230:../../Middlewares/LVGL/GUI/lvgl/src/misc/cache/class/lv_cache_lru_ll.c ****     }
 231:../../Middlewares/LVGL/GUI/lvgl/src/misc/cache/class/lv_cache_lru_ll.c **** 
 232:../../Middlewares/LVGL/GUI/lvgl/src/misc/cache/class/lv_cache_lru_ll.c ****     cache->clz->drop_all_cb(cache, user_data);
  47              		.loc 1 232 5 view .LVU9
  48              		.loc 1 232 10 is_stmt 0 view .LVU10
  49 0006 0368     		ldr	r3, [r0]
  50              		.loc 1 232 15 view .LVU11
  51 0008 DB69     		ldr	r3, [r3, #28]
  52              		.loc 1 232 5 view .LVU12
  53 000a 9847     		blx	r3
ARM GAS  C:\Users\28576\AppData\Local\Temp\ccAY92po.s 			page 6


  54              	.LVL1:
 233:../../Middlewares/LVGL/GUI/lvgl/src/misc/cache/class/lv_cache_lru_ll.c ****     cache->size = 0;
  55              		.loc 1 233 5 is_stmt 1 view .LVU13
  56              		.loc 1 233 17 is_stmt 0 view .LVU14
  57 000c 0023     		movs	r3, #0
  58 000e E360     		str	r3, [r4, #12]
 234:../../Middlewares/LVGL/GUI/lvgl/src/misc/cache/class/lv_cache_lru_ll.c **** }
  59              		.loc 1 234 1 view .LVU15
  60 0010 10BD     		pop	{r4, pc}
  61              	.LVL2:
  62              	.L3:
  63              	.LCFI1:
  64              		.cfi_def_cfa_offset 0
  65              		.cfi_restore 4
  66              		.cfi_restore 14
 226:../../Middlewares/LVGL/GUI/lvgl/src/misc/cache/class/lv_cache_lru_ll.c **** 
  67              		.loc 1 226 5 is_stmt 1 view .LVU16
 226:../../Middlewares/LVGL/GUI/lvgl/src/misc/cache/class/lv_cache_lru_ll.c **** 
  68              		.loc 1 226 5 view .LVU17
 226:../../Middlewares/LVGL/GUI/lvgl/src/misc/cache/class/lv_cache_lru_ll.c **** 
  69              		.loc 1 226 5 view .LVU18
 226:../../Middlewares/LVGL/GUI/lvgl/src/misc/cache/class/lv_cache_lru_ll.c **** 
  70              		.loc 1 226 5 view .LVU19
 226:../../Middlewares/LVGL/GUI/lvgl/src/misc/cache/class/lv_cache_lru_ll.c **** 
  71              		.loc 1 226 5 view .LVU20
  72 0012 FEE7     		b	.L3
  73              		.cfi_endproc
  74              	.LFE21:
  76              		.section	.text.reserve_cond_cb,"ax",%progbits
  77              		.align	1
  78              		.syntax unified
  79              		.thumb
  80              		.thumb_func
  82              	reserve_cond_cb:
  83              	.LVL3:
  84              	.LFB28:
 235:../../Middlewares/LVGL/GUI/lvgl/src/misc/cache/class/lv_cache_lru_ll.c **** 
 236:../../Middlewares/LVGL/GUI/lvgl/src/misc/cache/class/lv_cache_lru_ll.c **** static lv_cache_entry_t * get_cb(lv_cache_t * cache, const void * key, void * user_data)
 237:../../Middlewares/LVGL/GUI/lvgl/src/misc/cache/class/lv_cache_lru_ll.c **** {
 238:../../Middlewares/LVGL/GUI/lvgl/src/misc/cache/class/lv_cache_lru_ll.c ****     LV_UNUSED(user_data);
 239:../../Middlewares/LVGL/GUI/lvgl/src/misc/cache/class/lv_cache_lru_ll.c **** 
 240:../../Middlewares/LVGL/GUI/lvgl/src/misc/cache/class/lv_cache_lru_ll.c ****     lv_cache_lru_ll_t * lru = (lv_cache_lru_ll_t *)cache;
 241:../../Middlewares/LVGL/GUI/lvgl/src/misc/cache/class/lv_cache_lru_ll.c **** 
 242:../../Middlewares/LVGL/GUI/lvgl/src/misc/cache/class/lv_cache_lru_ll.c ****     LV_ASSERT_NULL(lru);
 243:../../Middlewares/LVGL/GUI/lvgl/src/misc/cache/class/lv_cache_lru_ll.c ****     LV_ASSERT_NULL(key);
 244:../../Middlewares/LVGL/GUI/lvgl/src/misc/cache/class/lv_cache_lru_ll.c **** 
 245:../../Middlewares/LVGL/GUI/lvgl/src/misc/cache/class/lv_cache_lru_ll.c ****     if(lru == NULL || key == NULL) {
 246:../../Middlewares/LVGL/GUI/lvgl/src/misc/cache/class/lv_cache_lru_ll.c ****         return NULL;
 247:../../Middlewares/LVGL/GUI/lvgl/src/misc/cache/class/lv_cache_lru_ll.c ****     }
 248:../../Middlewares/LVGL/GUI/lvgl/src/misc/cache/class/lv_cache_lru_ll.c **** 
 249:../../Middlewares/LVGL/GUI/lvgl/src/misc/cache/class/lv_cache_lru_ll.c ****     /* Linear search */
 250:../../Middlewares/LVGL/GUI/lvgl/src/misc/cache/class/lv_cache_lru_ll.c ****     void * node = NULL;
 251:../../Middlewares/LVGL/GUI/lvgl/src/misc/cache/class/lv_cache_lru_ll.c ****     LV_LL_READ(&lru->ll, node) {
 252:../../Middlewares/LVGL/GUI/lvgl/src/misc/cache/class/lv_cache_lru_ll.c ****         if(lru->cache.ops.compare_cb(node, key) == 0) {
 253:../../Middlewares/LVGL/GUI/lvgl/src/misc/cache/class/lv_cache_lru_ll.c ****             break;
 254:../../Middlewares/LVGL/GUI/lvgl/src/misc/cache/class/lv_cache_lru_ll.c ****         }
 255:../../Middlewares/LVGL/GUI/lvgl/src/misc/cache/class/lv_cache_lru_ll.c ****     }
ARM GAS  C:\Users\28576\AppData\Local\Temp\ccAY92po.s 			page 7


 256:../../Middlewares/LVGL/GUI/lvgl/src/misc/cache/class/lv_cache_lru_ll.c ****     /*cache hit*/
 257:../../Middlewares/LVGL/GUI/lvgl/src/misc/cache/class/lv_cache_lru_ll.c ****     if(node) {
 258:../../Middlewares/LVGL/GUI/lvgl/src/misc/cache/class/lv_cache_lru_ll.c ****         void * head = lv_ll_get_head(&lru->ll);
 259:../../Middlewares/LVGL/GUI/lvgl/src/misc/cache/class/lv_cache_lru_ll.c ****         lv_ll_move_before(&lru->ll, node, head);
 260:../../Middlewares/LVGL/GUI/lvgl/src/misc/cache/class/lv_cache_lru_ll.c **** 
 261:../../Middlewares/LVGL/GUI/lvgl/src/misc/cache/class/lv_cache_lru_ll.c ****         lv_cache_entry_t * entry = lv_cache_entry_get_entry(node, cache->node_size);
 262:../../Middlewares/LVGL/GUI/lvgl/src/misc/cache/class/lv_cache_lru_ll.c ****         return entry;
 263:../../Middlewares/LVGL/GUI/lvgl/src/misc/cache/class/lv_cache_lru_ll.c ****     }
 264:../../Middlewares/LVGL/GUI/lvgl/src/misc/cache/class/lv_cache_lru_ll.c ****     return NULL;
 265:../../Middlewares/LVGL/GUI/lvgl/src/misc/cache/class/lv_cache_lru_ll.c **** }
 266:../../Middlewares/LVGL/GUI/lvgl/src/misc/cache/class/lv_cache_lru_ll.c **** 
 267:../../Middlewares/LVGL/GUI/lvgl/src/misc/cache/class/lv_cache_lru_ll.c **** static lv_cache_entry_t * add_cb(lv_cache_t * cache, const void * key, void * user_data)
 268:../../Middlewares/LVGL/GUI/lvgl/src/misc/cache/class/lv_cache_lru_ll.c **** {
 269:../../Middlewares/LVGL/GUI/lvgl/src/misc/cache/class/lv_cache_lru_ll.c ****     LV_UNUSED(user_data);
 270:../../Middlewares/LVGL/GUI/lvgl/src/misc/cache/class/lv_cache_lru_ll.c **** 
 271:../../Middlewares/LVGL/GUI/lvgl/src/misc/cache/class/lv_cache_lru_ll.c ****     lv_cache_lru_ll_t * lru = (lv_cache_lru_ll_t *)cache;
 272:../../Middlewares/LVGL/GUI/lvgl/src/misc/cache/class/lv_cache_lru_ll.c **** 
 273:../../Middlewares/LVGL/GUI/lvgl/src/misc/cache/class/lv_cache_lru_ll.c ****     LV_ASSERT_NULL(lru);
 274:../../Middlewares/LVGL/GUI/lvgl/src/misc/cache/class/lv_cache_lru_ll.c ****     LV_ASSERT_NULL(key);
 275:../../Middlewares/LVGL/GUI/lvgl/src/misc/cache/class/lv_cache_lru_ll.c **** 
 276:../../Middlewares/LVGL/GUI/lvgl/src/misc/cache/class/lv_cache_lru_ll.c ****     if(lru == NULL || key == NULL) {
 277:../../Middlewares/LVGL/GUI/lvgl/src/misc/cache/class/lv_cache_lru_ll.c ****         return NULL;
 278:../../Middlewares/LVGL/GUI/lvgl/src/misc/cache/class/lv_cache_lru_ll.c ****     }
 279:../../Middlewares/LVGL/GUI/lvgl/src/misc/cache/class/lv_cache_lru_ll.c **** 
 280:../../Middlewares/LVGL/GUI/lvgl/src/misc/cache/class/lv_cache_lru_ll.c ****     lv_cache_entry_t * entry = alloc_new_node(lru, (void *)key, user_data);
 281:../../Middlewares/LVGL/GUI/lvgl/src/misc/cache/class/lv_cache_lru_ll.c ****     if(entry == NULL) {
 282:../../Middlewares/LVGL/GUI/lvgl/src/misc/cache/class/lv_cache_lru_ll.c ****         return NULL;
 283:../../Middlewares/LVGL/GUI/lvgl/src/misc/cache/class/lv_cache_lru_ll.c ****     }
 284:../../Middlewares/LVGL/GUI/lvgl/src/misc/cache/class/lv_cache_lru_ll.c **** 
 285:../../Middlewares/LVGL/GUI/lvgl/src/misc/cache/class/lv_cache_lru_ll.c ****     cache->size += lru->get_data_size_cb(key);
 286:../../Middlewares/LVGL/GUI/lvgl/src/misc/cache/class/lv_cache_lru_ll.c **** 
 287:../../Middlewares/LVGL/GUI/lvgl/src/misc/cache/class/lv_cache_lru_ll.c ****     return entry;
 288:../../Middlewares/LVGL/GUI/lvgl/src/misc/cache/class/lv_cache_lru_ll.c **** }
 289:../../Middlewares/LVGL/GUI/lvgl/src/misc/cache/class/lv_cache_lru_ll.c **** 
 290:../../Middlewares/LVGL/GUI/lvgl/src/misc/cache/class/lv_cache_lru_ll.c **** static void remove_cb(lv_cache_t * cache, lv_cache_entry_t * entry, void * user_data)
 291:../../Middlewares/LVGL/GUI/lvgl/src/misc/cache/class/lv_cache_lru_ll.c **** {
 292:../../Middlewares/LVGL/GUI/lvgl/src/misc/cache/class/lv_cache_lru_ll.c ****     LV_UNUSED(user_data);
 293:../../Middlewares/LVGL/GUI/lvgl/src/misc/cache/class/lv_cache_lru_ll.c **** 
 294:../../Middlewares/LVGL/GUI/lvgl/src/misc/cache/class/lv_cache_lru_ll.c ****     lv_cache_lru_ll_t * lru = (lv_cache_lru_ll_t *)cache;
 295:../../Middlewares/LVGL/GUI/lvgl/src/misc/cache/class/lv_cache_lru_ll.c **** 
 296:../../Middlewares/LVGL/GUI/lvgl/src/misc/cache/class/lv_cache_lru_ll.c ****     LV_ASSERT_NULL(lru);
 297:../../Middlewares/LVGL/GUI/lvgl/src/misc/cache/class/lv_cache_lru_ll.c ****     LV_ASSERT_NULL(entry);
 298:../../Middlewares/LVGL/GUI/lvgl/src/misc/cache/class/lv_cache_lru_ll.c **** 
 299:../../Middlewares/LVGL/GUI/lvgl/src/misc/cache/class/lv_cache_lru_ll.c ****     if(lru == NULL || entry == NULL) {
 300:../../Middlewares/LVGL/GUI/lvgl/src/misc/cache/class/lv_cache_lru_ll.c ****         return;
 301:../../Middlewares/LVGL/GUI/lvgl/src/misc/cache/class/lv_cache_lru_ll.c ****     }
 302:../../Middlewares/LVGL/GUI/lvgl/src/misc/cache/class/lv_cache_lru_ll.c **** 
 303:../../Middlewares/LVGL/GUI/lvgl/src/misc/cache/class/lv_cache_lru_ll.c ****     void * node = lv_cache_entry_get_data(entry);
 304:../../Middlewares/LVGL/GUI/lvgl/src/misc/cache/class/lv_cache_lru_ll.c **** 
 305:../../Middlewares/LVGL/GUI/lvgl/src/misc/cache/class/lv_cache_lru_ll.c ****     lv_ll_remove(&lru->ll, node);
 306:../../Middlewares/LVGL/GUI/lvgl/src/misc/cache/class/lv_cache_lru_ll.c **** 
 307:../../Middlewares/LVGL/GUI/lvgl/src/misc/cache/class/lv_cache_lru_ll.c ****     cache->size -= lru->get_data_size_cb(node);
 308:../../Middlewares/LVGL/GUI/lvgl/src/misc/cache/class/lv_cache_lru_ll.c **** }
 309:../../Middlewares/LVGL/GUI/lvgl/src/misc/cache/class/lv_cache_lru_ll.c **** 
 310:../../Middlewares/LVGL/GUI/lvgl/src/misc/cache/class/lv_cache_lru_ll.c **** static void drop_cb(lv_cache_t * cache, const void * key, void * user_data)
 311:../../Middlewares/LVGL/GUI/lvgl/src/misc/cache/class/lv_cache_lru_ll.c **** {
 312:../../Middlewares/LVGL/GUI/lvgl/src/misc/cache/class/lv_cache_lru_ll.c ****     lv_cache_lru_ll_t * lru = (lv_cache_lru_ll_t *)cache;
ARM GAS  C:\Users\28576\AppData\Local\Temp\ccAY92po.s 			page 8


 313:../../Middlewares/LVGL/GUI/lvgl/src/misc/cache/class/lv_cache_lru_ll.c **** 
 314:../../Middlewares/LVGL/GUI/lvgl/src/misc/cache/class/lv_cache_lru_ll.c ****     LV_ASSERT_NULL(lru);
 315:../../Middlewares/LVGL/GUI/lvgl/src/misc/cache/class/lv_cache_lru_ll.c ****     LV_ASSERT_NULL(key);
 316:../../Middlewares/LVGL/GUI/lvgl/src/misc/cache/class/lv_cache_lru_ll.c **** 
 317:../../Middlewares/LVGL/GUI/lvgl/src/misc/cache/class/lv_cache_lru_ll.c ****     if(lru == NULL || key == NULL) {
 318:../../Middlewares/LVGL/GUI/lvgl/src/misc/cache/class/lv_cache_lru_ll.c ****         return;
 319:../../Middlewares/LVGL/GUI/lvgl/src/misc/cache/class/lv_cache_lru_ll.c ****     }
 320:../../Middlewares/LVGL/GUI/lvgl/src/misc/cache/class/lv_cache_lru_ll.c **** 
 321:../../Middlewares/LVGL/GUI/lvgl/src/misc/cache/class/lv_cache_lru_ll.c ****     void * node = cache->clz->get_cb(cache, key, user_data);
 322:../../Middlewares/LVGL/GUI/lvgl/src/misc/cache/class/lv_cache_lru_ll.c ****     if(node == NULL) {
 323:../../Middlewares/LVGL/GUI/lvgl/src/misc/cache/class/lv_cache_lru_ll.c ****         return;
 324:../../Middlewares/LVGL/GUI/lvgl/src/misc/cache/class/lv_cache_lru_ll.c ****     }
 325:../../Middlewares/LVGL/GUI/lvgl/src/misc/cache/class/lv_cache_lru_ll.c ****     lv_ll_remove(&lru->ll, node);
 326:../../Middlewares/LVGL/GUI/lvgl/src/misc/cache/class/lv_cache_lru_ll.c **** 
 327:../../Middlewares/LVGL/GUI/lvgl/src/misc/cache/class/lv_cache_lru_ll.c ****     lru->cache.ops.free_cb(node, user_data);
 328:../../Middlewares/LVGL/GUI/lvgl/src/misc/cache/class/lv_cache_lru_ll.c ****     cache->size -= lru->get_data_size_cb(node);
 329:../../Middlewares/LVGL/GUI/lvgl/src/misc/cache/class/lv_cache_lru_ll.c **** 
 330:../../Middlewares/LVGL/GUI/lvgl/src/misc/cache/class/lv_cache_lru_ll.c ****     lv_cache_entry_t * entry = lv_cache_entry_get_entry(node, cache->node_size);
 331:../../Middlewares/LVGL/GUI/lvgl/src/misc/cache/class/lv_cache_lru_ll.c ****     lv_cache_entry_delete(entry);
 332:../../Middlewares/LVGL/GUI/lvgl/src/misc/cache/class/lv_cache_lru_ll.c **** }
 333:../../Middlewares/LVGL/GUI/lvgl/src/misc/cache/class/lv_cache_lru_ll.c **** 
 334:../../Middlewares/LVGL/GUI/lvgl/src/misc/cache/class/lv_cache_lru_ll.c **** static void drop_all_cb(lv_cache_t * cache, void * user_data)
 335:../../Middlewares/LVGL/GUI/lvgl/src/misc/cache/class/lv_cache_lru_ll.c **** {
 336:../../Middlewares/LVGL/GUI/lvgl/src/misc/cache/class/lv_cache_lru_ll.c ****     lv_cache_lru_ll_t * lru = (lv_cache_lru_ll_t *)cache;
 337:../../Middlewares/LVGL/GUI/lvgl/src/misc/cache/class/lv_cache_lru_ll.c **** 
 338:../../Middlewares/LVGL/GUI/lvgl/src/misc/cache/class/lv_cache_lru_ll.c ****     LV_ASSERT_NULL(lru);
 339:../../Middlewares/LVGL/GUI/lvgl/src/misc/cache/class/lv_cache_lru_ll.c **** 
 340:../../Middlewares/LVGL/GUI/lvgl/src/misc/cache/class/lv_cache_lru_ll.c ****     if(lru == NULL) {
 341:../../Middlewares/LVGL/GUI/lvgl/src/misc/cache/class/lv_cache_lru_ll.c ****         return;
 342:../../Middlewares/LVGL/GUI/lvgl/src/misc/cache/class/lv_cache_lru_ll.c ****     }
 343:../../Middlewares/LVGL/GUI/lvgl/src/misc/cache/class/lv_cache_lru_ll.c **** 
 344:../../Middlewares/LVGL/GUI/lvgl/src/misc/cache/class/lv_cache_lru_ll.c ****     uint32_t used_cnt = 0;
 345:../../Middlewares/LVGL/GUI/lvgl/src/misc/cache/class/lv_cache_lru_ll.c ****     void * node;
 346:../../Middlewares/LVGL/GUI/lvgl/src/misc/cache/class/lv_cache_lru_ll.c ****     LV_LL_READ(&lru->ll, node) {
 347:../../Middlewares/LVGL/GUI/lvgl/src/misc/cache/class/lv_cache_lru_ll.c ****         /*free user handled data and do other clean up*/
 348:../../Middlewares/LVGL/GUI/lvgl/src/misc/cache/class/lv_cache_lru_ll.c ****         lv_cache_entry_t * entry = lv_cache_entry_get_entry(node, cache->node_size);
 349:../../Middlewares/LVGL/GUI/lvgl/src/misc/cache/class/lv_cache_lru_ll.c ****         if(lv_cache_entry_get_ref(entry) == 0) {
 350:../../Middlewares/LVGL/GUI/lvgl/src/misc/cache/class/lv_cache_lru_ll.c ****             lru->cache.ops.free_cb(node, user_data);
 351:../../Middlewares/LVGL/GUI/lvgl/src/misc/cache/class/lv_cache_lru_ll.c ****         }
 352:../../Middlewares/LVGL/GUI/lvgl/src/misc/cache/class/lv_cache_lru_ll.c ****         else {
 353:../../Middlewares/LVGL/GUI/lvgl/src/misc/cache/class/lv_cache_lru_ll.c ****             LV_LOG_WARN("entry (%p) is still referenced (%" LV_PRId32 ")", (void *)entry, lv_cache_
 354:../../Middlewares/LVGL/GUI/lvgl/src/misc/cache/class/lv_cache_lru_ll.c ****             used_cnt++;
 355:../../Middlewares/LVGL/GUI/lvgl/src/misc/cache/class/lv_cache_lru_ll.c ****         }
 356:../../Middlewares/LVGL/GUI/lvgl/src/misc/cache/class/lv_cache_lru_ll.c ****     }
 357:../../Middlewares/LVGL/GUI/lvgl/src/misc/cache/class/lv_cache_lru_ll.c ****     if(used_cnt > 0) {
 358:../../Middlewares/LVGL/GUI/lvgl/src/misc/cache/class/lv_cache_lru_ll.c ****         LV_LOG_WARN("%" LV_PRId32 " entries are still referenced", used_cnt);
 359:../../Middlewares/LVGL/GUI/lvgl/src/misc/cache/class/lv_cache_lru_ll.c ****     }
 360:../../Middlewares/LVGL/GUI/lvgl/src/misc/cache/class/lv_cache_lru_ll.c **** 
 361:../../Middlewares/LVGL/GUI/lvgl/src/misc/cache/class/lv_cache_lru_ll.c ****     lv_ll_clear(&lru->ll);
 362:../../Middlewares/LVGL/GUI/lvgl/src/misc/cache/class/lv_cache_lru_ll.c **** 
 363:../../Middlewares/LVGL/GUI/lvgl/src/misc/cache/class/lv_cache_lru_ll.c ****     cache->size = 0;
 364:../../Middlewares/LVGL/GUI/lvgl/src/misc/cache/class/lv_cache_lru_ll.c **** }
 365:../../Middlewares/LVGL/GUI/lvgl/src/misc/cache/class/lv_cache_lru_ll.c **** 
 366:../../Middlewares/LVGL/GUI/lvgl/src/misc/cache/class/lv_cache_lru_ll.c **** static lv_cache_entry_t * get_victim_cb(lv_cache_t * cache, void * user_data)
 367:../../Middlewares/LVGL/GUI/lvgl/src/misc/cache/class/lv_cache_lru_ll.c **** {
 368:../../Middlewares/LVGL/GUI/lvgl/src/misc/cache/class/lv_cache_lru_ll.c ****     LV_UNUSED(user_data);
 369:../../Middlewares/LVGL/GUI/lvgl/src/misc/cache/class/lv_cache_lru_ll.c **** 
ARM GAS  C:\Users\28576\AppData\Local\Temp\ccAY92po.s 			page 9


 370:../../Middlewares/LVGL/GUI/lvgl/src/misc/cache/class/lv_cache_lru_ll.c ****     lv_cache_lru_ll_t * lru = (lv_cache_lru_ll_t *)cache;
 371:../../Middlewares/LVGL/GUI/lvgl/src/misc/cache/class/lv_cache_lru_ll.c **** 
 372:../../Middlewares/LVGL/GUI/lvgl/src/misc/cache/class/lv_cache_lru_ll.c ****     LV_ASSERT_NULL(lru);
 373:../../Middlewares/LVGL/GUI/lvgl/src/misc/cache/class/lv_cache_lru_ll.c **** 
 374:../../Middlewares/LVGL/GUI/lvgl/src/misc/cache/class/lv_cache_lru_ll.c ****     void * tail;
 375:../../Middlewares/LVGL/GUI/lvgl/src/misc/cache/class/lv_cache_lru_ll.c ****     LV_LL_READ_BACK(&lru->ll, tail) {
 376:../../Middlewares/LVGL/GUI/lvgl/src/misc/cache/class/lv_cache_lru_ll.c ****         lv_cache_entry_t * entry = lv_cache_entry_get_entry(tail, cache->node_size);
 377:../../Middlewares/LVGL/GUI/lvgl/src/misc/cache/class/lv_cache_lru_ll.c ****         if(lv_cache_entry_get_ref(entry) == 0) {
 378:../../Middlewares/LVGL/GUI/lvgl/src/misc/cache/class/lv_cache_lru_ll.c ****             return entry;
 379:../../Middlewares/LVGL/GUI/lvgl/src/misc/cache/class/lv_cache_lru_ll.c ****         }
 380:../../Middlewares/LVGL/GUI/lvgl/src/misc/cache/class/lv_cache_lru_ll.c ****     }
 381:../../Middlewares/LVGL/GUI/lvgl/src/misc/cache/class/lv_cache_lru_ll.c **** 
 382:../../Middlewares/LVGL/GUI/lvgl/src/misc/cache/class/lv_cache_lru_ll.c ****     return NULL;
 383:../../Middlewares/LVGL/GUI/lvgl/src/misc/cache/class/lv_cache_lru_ll.c **** }
 384:../../Middlewares/LVGL/GUI/lvgl/src/misc/cache/class/lv_cache_lru_ll.c **** 
 385:../../Middlewares/LVGL/GUI/lvgl/src/misc/cache/class/lv_cache_lru_ll.c **** static lv_cache_reserve_cond_res_t reserve_cond_cb(lv_cache_t * cache, const void * key, size_t res
 386:../../Middlewares/LVGL/GUI/lvgl/src/misc/cache/class/lv_cache_lru_ll.c ****                                                    void * user_data)
 387:../../Middlewares/LVGL/GUI/lvgl/src/misc/cache/class/lv_cache_lru_ll.c **** {
  85              		.loc 1 387 1 view -0
  86              		.cfi_startproc
  87              		@ args = 0, pretend = 0, frame = 0
  88              		@ frame_needed = 0, uses_anonymous_args = 0
 388:../../Middlewares/LVGL/GUI/lvgl/src/misc/cache/class/lv_cache_lru_ll.c ****     LV_UNUSED(user_data);
  89              		.loc 1 388 5 view .LVU22
 389:../../Middlewares/LVGL/GUI/lvgl/src/misc/cache/class/lv_cache_lru_ll.c **** 
 390:../../Middlewares/LVGL/GUI/lvgl/src/misc/cache/class/lv_cache_lru_ll.c ****     lv_cache_lru_ll_t * lru = (lv_cache_lru_ll_t *)cache;
  90              		.loc 1 390 5 view .LVU23
 391:../../Middlewares/LVGL/GUI/lvgl/src/misc/cache/class/lv_cache_lru_ll.c **** 
 392:../../Middlewares/LVGL/GUI/lvgl/src/misc/cache/class/lv_cache_lru_ll.c ****     LV_ASSERT_NULL(lru);
  91              		.loc 1 392 5 view .LVU24
  92              		.loc 1 392 5 view .LVU25
  93 0000 88B1     		cbz	r0, .L8
 387:../../Middlewares/LVGL/GUI/lvgl/src/misc/cache/class/lv_cache_lru_ll.c ****     LV_UNUSED(user_data);
  94              		.loc 1 387 1 is_stmt 0 view .LVU26
  95 0002 38B5     		push	{r3, r4, r5, lr}
  96              	.LCFI2:
  97              		.cfi_def_cfa_offset 16
  98              		.cfi_offset 3, -16
  99              		.cfi_offset 4, -12
 100              		.cfi_offset 5, -8
 101              		.cfi_offset 14, -4
 102 0004 1546     		mov	r5, r2
 103 0006 0446     		mov	r4, r0
 104              		.loc 1 392 5 is_stmt 1 view .LVU27
 105              		.loc 1 392 24 view .LVU28
 393:../../Middlewares/LVGL/GUI/lvgl/src/misc/cache/class/lv_cache_lru_ll.c **** 
 394:../../Middlewares/LVGL/GUI/lvgl/src/misc/cache/class/lv_cache_lru_ll.c ****     if(lru == NULL) {
 106              		.loc 1 394 5 view .LVU29
 395:../../Middlewares/LVGL/GUI/lvgl/src/misc/cache/class/lv_cache_lru_ll.c ****         return LV_CACHE_RESERVE_COND_ERROR;
 396:../../Middlewares/LVGL/GUI/lvgl/src/misc/cache/class/lv_cache_lru_ll.c ****     }
 397:../../Middlewares/LVGL/GUI/lvgl/src/misc/cache/class/lv_cache_lru_ll.c **** 
 398:../../Middlewares/LVGL/GUI/lvgl/src/misc/cache/class/lv_cache_lru_ll.c ****     uint32_t data_size = key ? lru->get_data_size_cb(key) : 0;
 107              		.loc 1 398 5 view .LVU30
 108              		.loc 1 398 59 is_stmt 0 view .LVU31
 109 0008 71B1     		cbz	r1, .L11
 110              		.loc 1 398 35 discriminator 1 view .LVU32
 111 000a 036B     		ldr	r3, [r0, #48]
ARM GAS  C:\Users\28576\AppData\Local\Temp\ccAY92po.s 			page 10


 112              	.LVL4:
 113              		.loc 1 398 32 discriminator 1 view .LVU33
 114 000c 0846     		mov	r0, r1
 115              	.LVL5:
 116              		.loc 1 398 32 discriminator 1 view .LVU34
 117 000e 9847     		blx	r3
 118              	.LVL6:
 399:../../Middlewares/LVGL/GUI/lvgl/src/misc/cache/class/lv_cache_lru_ll.c ****     if(data_size > lru->cache.max_size) {
 119              		.loc 1 399 5 is_stmt 1 view .LVU35
 120              		.loc 1 399 30 is_stmt 0 view .LVU36
 121 0010 A368     		ldr	r3, [r4, #8]
 122              		.loc 1 399 7 view .LVU37
 123 0012 8342     		cmp	r3, r0
 124 0014 0CD3     		bcc	.L16
 125              	.LVL7:
 126              	.L9:
 400:../../Middlewares/LVGL/GUI/lvgl/src/misc/cache/class/lv_cache_lru_ll.c ****         LV_LOG_ERROR("data size (%" LV_PRIu32 ") is larger than max size (%" LV_PRIu32 ")", data_si
 401:../../Middlewares/LVGL/GUI/lvgl/src/misc/cache/class/lv_cache_lru_ll.c ****         return LV_CACHE_RESERVE_COND_TOO_LARGE;
 402:../../Middlewares/LVGL/GUI/lvgl/src/misc/cache/class/lv_cache_lru_ll.c ****     }
 403:../../Middlewares/LVGL/GUI/lvgl/src/misc/cache/class/lv_cache_lru_ll.c **** 
 404:../../Middlewares/LVGL/GUI/lvgl/src/misc/cache/class/lv_cache_lru_ll.c ****     return cache->size + reserved_size + data_size > lru->cache.max_size
 127              		.loc 1 404 5 is_stmt 1 view .LVU38
 128              		.loc 1 404 17 is_stmt 0 view .LVU39
 129 0016 E368     		ldr	r3, [r4, #12]
 130              		.loc 1 404 24 view .LVU40
 131 0018 2B44     		add	r3, r3, r5
 132              		.loc 1 404 40 view .LVU41
 133 001a 0344     		add	r3, r3, r0
 134              		.loc 1 404 64 view .LVU42
 135 001c A268     		ldr	r2, [r4, #8]
 405:../../Middlewares/LVGL/GUI/lvgl/src/misc/cache/class/lv_cache_lru_ll.c ****            ? LV_CACHE_RESERVE_COND_NEED_VICTIM
 406:../../Middlewares/LVGL/GUI/lvgl/src/misc/cache/class/lv_cache_lru_ll.c ****            : LV_CACHE_RESERVE_COND_OK;
 136              		.loc 1 406 12 view .LVU43
 137 001e 9342     		cmp	r3, r2
 138 0020 04D8     		bhi	.L17
 139              		.loc 1 406 12 discriminator 2 view .LVU44
 140 0022 0020     		movs	r0, #0
 141              	.L10:
 407:../../Middlewares/LVGL/GUI/lvgl/src/misc/cache/class/lv_cache_lru_ll.c **** }
 142              		.loc 1 407 1 view .LVU45
 143 0024 38BD     		pop	{r3, r4, r5, pc}
 144              	.LVL8:
 145              	.L8:
 146              	.LCFI3:
 147              		.cfi_def_cfa_offset 0
 148              		.cfi_restore 3
 149              		.cfi_restore 4
 150              		.cfi_restore 5
 151              		.cfi_restore 14
 392:../../Middlewares/LVGL/GUI/lvgl/src/misc/cache/class/lv_cache_lru_ll.c **** 
 152              		.loc 1 392 5 is_stmt 1 view .LVU46
 392:../../Middlewares/LVGL/GUI/lvgl/src/misc/cache/class/lv_cache_lru_ll.c **** 
 153              		.loc 1 392 5 view .LVU47
 392:../../Middlewares/LVGL/GUI/lvgl/src/misc/cache/class/lv_cache_lru_ll.c **** 
 154              		.loc 1 392 5 view .LVU48
 392:../../Middlewares/LVGL/GUI/lvgl/src/misc/cache/class/lv_cache_lru_ll.c **** 
 155              		.loc 1 392 5 view .LVU49
ARM GAS  C:\Users\28576\AppData\Local\Temp\ccAY92po.s 			page 11


 392:../../Middlewares/LVGL/GUI/lvgl/src/misc/cache/class/lv_cache_lru_ll.c **** 
 156              		.loc 1 392 5 view .LVU50
 157 0026 FEE7     		b	.L8
 158              	.L11:
 159              	.LCFI4:
 160              		.cfi_def_cfa_offset 16
 161              		.cfi_offset 3, -16
 162              		.cfi_offset 4, -12
 163              		.cfi_offset 5, -8
 164              		.cfi_offset 14, -4
 398:../../Middlewares/LVGL/GUI/lvgl/src/misc/cache/class/lv_cache_lru_ll.c ****     if(data_size > lru->cache.max_size) {
 165              		.loc 1 398 14 is_stmt 0 discriminator 2 view .LVU51
 166 0028 0846     		mov	r0, r1
 167              	.LVL9:
 398:../../Middlewares/LVGL/GUI/lvgl/src/misc/cache/class/lv_cache_lru_ll.c ****     if(data_size > lru->cache.max_size) {
 168              		.loc 1 398 14 discriminator 2 view .LVU52
 169 002a F4E7     		b	.L9
 170              	.LVL10:
 171              	.L17:
 406:../../Middlewares/LVGL/GUI/lvgl/src/misc/cache/class/lv_cache_lru_ll.c **** }
 172              		.loc 1 406 12 discriminator 1 view .LVU53
 173 002c 0220     		movs	r0, #2
 174 002e F9E7     		b	.L10
 175              	.LVL11:
 176              	.L16:
 401:../../Middlewares/LVGL/GUI/lvgl/src/misc/cache/class/lv_cache_lru_ll.c ****     }
 177              		.loc 1 401 16 view .LVU54
 178 0030 0120     		movs	r0, #1
 179              	.LVL12:
 401:../../Middlewares/LVGL/GUI/lvgl/src/misc/cache/class/lv_cache_lru_ll.c ****     }
 180              		.loc 1 401 16 view .LVU55
 181 0032 F7E7     		b	.L10
 182              		.cfi_endproc
 183              	.LFE28:
 185              		.section	.text.cnt_get_data_size_cb,"ax",%progbits
 186              		.align	1
 187              		.syntax unified
 188              		.thumb
 189              		.thumb_func
 191              	cnt_get_data_size_cb:
 192              	.LVL13:
 193              	.LFB29:
 408:../../Middlewares/LVGL/GUI/lvgl/src/misc/cache/class/lv_cache_lru_ll.c **** 
 409:../../Middlewares/LVGL/GUI/lvgl/src/misc/cache/class/lv_cache_lru_ll.c **** static uint32_t cnt_get_data_size_cb(const void * data)
 410:../../Middlewares/LVGL/GUI/lvgl/src/misc/cache/class/lv_cache_lru_ll.c **** {
 194              		.loc 1 410 1 is_stmt 1 view -0
 195              		.cfi_startproc
 196              		@ args = 0, pretend = 0, frame = 0
 197              		@ frame_needed = 0, uses_anonymous_args = 0
 198              		@ link register save eliminated.
 411:../../Middlewares/LVGL/GUI/lvgl/src/misc/cache/class/lv_cache_lru_ll.c ****     LV_UNUSED(data);
 199              		.loc 1 411 5 view .LVU57
 412:../../Middlewares/LVGL/GUI/lvgl/src/misc/cache/class/lv_cache_lru_ll.c ****     return 1;
 200              		.loc 1 412 5 view .LVU58
 413:../../Middlewares/LVGL/GUI/lvgl/src/misc/cache/class/lv_cache_lru_ll.c **** }
 201              		.loc 1 413 1 is_stmt 0 view .LVU59
 202 0000 0120     		movs	r0, #1
ARM GAS  C:\Users\28576\AppData\Local\Temp\ccAY92po.s 			page 12


 203              	.LVL14:
 204              		.loc 1 413 1 view .LVU60
 205 0002 7047     		bx	lr
 206              		.cfi_endproc
 207              	.LFE29:
 209              		.section	.text.size_get_data_size_cb,"ax",%progbits
 210              		.align	1
 211              		.syntax unified
 212              		.thumb
 213              		.thumb_func
 215              	size_get_data_size_cb:
 216              	.LVL15:
 217              	.LFB30:
 414:../../Middlewares/LVGL/GUI/lvgl/src/misc/cache/class/lv_cache_lru_ll.c **** 
 415:../../Middlewares/LVGL/GUI/lvgl/src/misc/cache/class/lv_cache_lru_ll.c **** static uint32_t size_get_data_size_cb(const void * data)
 416:../../Middlewares/LVGL/GUI/lvgl/src/misc/cache/class/lv_cache_lru_ll.c **** {
 218              		.loc 1 416 1 is_stmt 1 view -0
 219              		.cfi_startproc
 220              		@ args = 0, pretend = 0, frame = 0
 221              		@ frame_needed = 0, uses_anonymous_args = 0
 222              		@ link register save eliminated.
 417:../../Middlewares/LVGL/GUI/lvgl/src/misc/cache/class/lv_cache_lru_ll.c ****     lv_cache_slot_size_t * slot = (lv_cache_slot_size_t *)data;
 223              		.loc 1 417 5 view .LVU62
 418:../../Middlewares/LVGL/GUI/lvgl/src/misc/cache/class/lv_cache_lru_ll.c ****     return slot->size;
 224              		.loc 1 418 5 view .LVU63
 419:../../Middlewares/LVGL/GUI/lvgl/src/misc/cache/class/lv_cache_lru_ll.c **** }
 225              		.loc 1 419 1 is_stmt 0 view .LVU64
 226 0000 0068     		ldr	r0, [r0]
 227              	.LVL16:
 228              		.loc 1 419 1 view .LVU65
 229 0002 7047     		bx	lr
 230              		.cfi_endproc
 231              	.LFE30:
 233              		.section	.text.cache_iter_create_cb,"ax",%progbits
 234              		.align	1
 235              		.syntax unified
 236              		.thumb
 237              		.thumb_func
 239              	cache_iter_create_cb:
 240              	.LVL17:
 241              	.LFB31:
 420:../../Middlewares/LVGL/GUI/lvgl/src/misc/cache/class/lv_cache_lru_ll.c **** 
 421:../../Middlewares/LVGL/GUI/lvgl/src/misc/cache/class/lv_cache_lru_ll.c **** static lv_iter_t * cache_iter_create_cb(lv_cache_t * cache)
 422:../../Middlewares/LVGL/GUI/lvgl/src/misc/cache/class/lv_cache_lru_ll.c **** {
 242              		.loc 1 422 1 is_stmt 1 view -0
 243              		.cfi_startproc
 244              		@ args = 0, pretend = 0, frame = 0
 245              		@ frame_needed = 0, uses_anonymous_args = 0
 246              		.loc 1 422 1 is_stmt 0 view .LVU67
 247 0000 10B5     		push	{r4, lr}
 248              	.LCFI5:
 249              		.cfi_def_cfa_offset 8
 250              		.cfi_offset 4, -8
 251              		.cfi_offset 14, -4
 252 0002 0446     		mov	r4, r0
 423:../../Middlewares/LVGL/GUI/lvgl/src/misc/cache/class/lv_cache_lru_ll.c ****     return lv_iter_create(cache, lv_cache_entry_get_size(cache->node_size), 0, cache_iter_next_cb);
 253              		.loc 1 423 5 is_stmt 1 view .LVU68
ARM GAS  C:\Users\28576\AppData\Local\Temp\ccAY92po.s 			page 13


 254              		.loc 1 423 12 is_stmt 0 view .LVU69
 255 0004 4068     		ldr	r0, [r0, #4]
 256              	.LVL18:
 257              		.loc 1 423 12 view .LVU70
 258 0006 FFF7FEFF 		bl	lv_cache_entry_get_size
 259              	.LVL19:
 260 000a 0146     		mov	r1, r0
 261              		.loc 1 423 12 discriminator 1 view .LVU71
 262 000c 024B     		ldr	r3, .L22
 263 000e 0022     		movs	r2, #0
 264 0010 2046     		mov	r0, r4
 265 0012 FFF7FEFF 		bl	lv_iter_create
 266              	.LVL20:
 424:../../Middlewares/LVGL/GUI/lvgl/src/misc/cache/class/lv_cache_lru_ll.c **** }
 267              		.loc 1 424 1 view .LVU72
 268 0016 10BD     		pop	{r4, pc}
 269              	.LVL21:
 270              	.L23:
 271              		.loc 1 424 1 view .LVU73
 272              		.align	2
 273              	.L22:
 274 0018 00000000 		.word	cache_iter_next_cb
 275              		.cfi_endproc
 276              	.LFE31:
 278              		.section	.text.cache_iter_next_cb,"ax",%progbits
 279              		.align	1
 280              		.syntax unified
 281              		.thumb
 282              		.thumb_func
 284              	cache_iter_next_cb:
 285              	.LVL22:
 286              	.LFB32:
 425:../../Middlewares/LVGL/GUI/lvgl/src/misc/cache/class/lv_cache_lru_ll.c **** 
 426:../../Middlewares/LVGL/GUI/lvgl/src/misc/cache/class/lv_cache_lru_ll.c **** static lv_result_t cache_iter_next_cb(void * instance, void * context, void * elem)
 427:../../Middlewares/LVGL/GUI/lvgl/src/misc/cache/class/lv_cache_lru_ll.c **** {
 287              		.loc 1 427 1 is_stmt 1 view -0
 288              		.cfi_startproc
 289              		@ args = 0, pretend = 0, frame = 0
 290              		@ frame_needed = 0, uses_anonymous_args = 0
 428:../../Middlewares/LVGL/GUI/lvgl/src/misc/cache/class/lv_cache_lru_ll.c ****     lv_cache_lru_ll_t * lru = (lv_cache_lru_ll_t *)instance;
 291              		.loc 1 428 5 view .LVU75
 429:../../Middlewares/LVGL/GUI/lvgl/src/misc/cache/class/lv_cache_lru_ll.c ****     void ** ll_node = context;
 292              		.loc 1 429 5 view .LVU76
 430:../../Middlewares/LVGL/GUI/lvgl/src/misc/cache/class/lv_cache_lru_ll.c **** 
 431:../../Middlewares/LVGL/GUI/lvgl/src/misc/cache/class/lv_cache_lru_ll.c ****     LV_ASSERT_NULL(ll_node);
 293              		.loc 1 431 5 view .LVU77
 294              		.loc 1 431 5 view .LVU78
 295 0000 A9B1     		cbz	r1, .L26
 427:../../Middlewares/LVGL/GUI/lvgl/src/misc/cache/class/lv_cache_lru_ll.c ****     lv_cache_lru_ll_t * lru = (lv_cache_lru_ll_t *)instance;
 296              		.loc 1 427 1 is_stmt 0 view .LVU79
 297 0002 70B5     		push	{r4, r5, r6, lr}
 298              	.LCFI6:
 299              		.cfi_def_cfa_offset 16
 300              		.cfi_offset 4, -16
 301              		.cfi_offset 5, -12
 302              		.cfi_offset 6, -8
 303              		.cfi_offset 14, -4
ARM GAS  C:\Users\28576\AppData\Local\Temp\ccAY92po.s 			page 14


 304 0004 0546     		mov	r5, r0
 305 0006 1646     		mov	r6, r2
 306 0008 0C46     		mov	r4, r1
 307              		.loc 1 431 5 is_stmt 1 view .LVU80
 308              		.loc 1 431 28 view .LVU81
 432:../../Middlewares/LVGL/GUI/lvgl/src/misc/cache/class/lv_cache_lru_ll.c **** 
 433:../../Middlewares/LVGL/GUI/lvgl/src/misc/cache/class/lv_cache_lru_ll.c ****     if(*ll_node == NULL) *ll_node = lv_ll_get_head(&lru->ll);
 309              		.loc 1 433 5 view .LVU82
 310              		.loc 1 433 8 is_stmt 0 view .LVU83
 311 000a 0968     		ldr	r1, [r1]
 312              	.LVL23:
 313              		.loc 1 433 7 view .LVU84
 314 000c 81B1     		cbz	r1, .L33
 434:../../Middlewares/LVGL/GUI/lvgl/src/misc/cache/class/lv_cache_lru_ll.c ****     else *ll_node = lv_ll_get_next(&lru->ll, *ll_node);
 315              		.loc 1 434 10 is_stmt 1 view .LVU85
 316              		.loc 1 434 21 is_stmt 0 view .LVU86
 317 000e 2430     		adds	r0, r0, #36
 318              	.LVL24:
 319              		.loc 1 434 21 view .LVU87
 320 0010 FFF7FEFF 		bl	lv_ll_get_next
 321              	.LVL25:
 322              		.loc 1 434 19 discriminator 1 view .LVU88
 323 0014 2060     		str	r0, [r4]
 324              	.L28:
 435:../../Middlewares/LVGL/GUI/lvgl/src/misc/cache/class/lv_cache_lru_ll.c **** 
 436:../../Middlewares/LVGL/GUI/lvgl/src/misc/cache/class/lv_cache_lru_ll.c ****     void * node = *ll_node;
 325              		.loc 1 436 5 is_stmt 1 view .LVU89
 326              		.loc 1 436 12 is_stmt 0 view .LVU90
 327 0016 2468     		ldr	r4, [r4]
 328              	.LVL26:
 437:../../Middlewares/LVGL/GUI/lvgl/src/misc/cache/class/lv_cache_lru_ll.c **** 
 438:../../Middlewares/LVGL/GUI/lvgl/src/misc/cache/class/lv_cache_lru_ll.c ****     if(node == NULL) return LV_RESULT_INVALID;
 329              		.loc 1 438 5 is_stmt 1 view .LVU91
 330              		.loc 1 438 7 is_stmt 0 view .LVU92
 331 0018 7CB1     		cbz	r4, .L30
 439:../../Middlewares/LVGL/GUI/lvgl/src/misc/cache/class/lv_cache_lru_ll.c **** 
 440:../../Middlewares/LVGL/GUI/lvgl/src/misc/cache/class/lv_cache_lru_ll.c ****     lv_memcpy(elem, node, lv_cache_entry_get_size(lru->cache.node_size));
 332              		.loc 1 440 5 is_stmt 1 view .LVU93
 333              		.loc 1 440 27 is_stmt 0 view .LVU94
 334 001a 6868     		ldr	r0, [r5, #4]
 335 001c FFF7FEFF 		bl	lv_cache_entry_get_size
 336              	.LVL27:
 337 0020 0246     		mov	r2, r0
 338              		.loc 1 440 5 discriminator 1 view .LVU95
 339 0022 2146     		mov	r1, r4
 340 0024 3046     		mov	r0, r6
 341 0026 FFF7FEFF 		bl	lv_memcpy
 342              	.LVL28:
 441:../../Middlewares/LVGL/GUI/lvgl/src/misc/cache/class/lv_cache_lru_ll.c **** 
 442:../../Middlewares/LVGL/GUI/lvgl/src/misc/cache/class/lv_cache_lru_ll.c ****     return LV_RESULT_OK;
 343              		.loc 1 442 5 is_stmt 1 view .LVU96
 344              		.loc 1 442 12 is_stmt 0 view .LVU97
 345 002a 0120     		movs	r0, #1
 346              	.L29:
 443:../../Middlewares/LVGL/GUI/lvgl/src/misc/cache/class/lv_cache_lru_ll.c **** }
 347              		.loc 1 443 1 view .LVU98
 348 002c 70BD     		pop	{r4, r5, r6, pc}
ARM GAS  C:\Users\28576\AppData\Local\Temp\ccAY92po.s 			page 15


 349              	.LVL29:
 350              	.L26:
 351              	.LCFI7:
 352              		.cfi_def_cfa_offset 0
 353              		.cfi_restore 4
 354              		.cfi_restore 5
 355              		.cfi_restore 6
 356              		.cfi_restore 14
 431:../../Middlewares/LVGL/GUI/lvgl/src/misc/cache/class/lv_cache_lru_ll.c **** 
 357              		.loc 1 431 5 is_stmt 1 view .LVU99
 431:../../Middlewares/LVGL/GUI/lvgl/src/misc/cache/class/lv_cache_lru_ll.c **** 
 358              		.loc 1 431 5 view .LVU100
 431:../../Middlewares/LVGL/GUI/lvgl/src/misc/cache/class/lv_cache_lru_ll.c **** 
 359              		.loc 1 431 5 view .LVU101
 431:../../Middlewares/LVGL/GUI/lvgl/src/misc/cache/class/lv_cache_lru_ll.c **** 
 360              		.loc 1 431 5 view .LVU102
 431:../../Middlewares/LVGL/GUI/lvgl/src/misc/cache/class/lv_cache_lru_ll.c **** 
 361              		.loc 1 431 5 view .LVU103
 362 002e FEE7     		b	.L26
 363              	.LVL30:
 364              	.L33:
 365              	.LCFI8:
 366              		.cfi_def_cfa_offset 16
 367              		.cfi_offset 4, -16
 368              		.cfi_offset 5, -12
 369              		.cfi_offset 6, -8
 370              		.cfi_offset 14, -4
 433:../../Middlewares/LVGL/GUI/lvgl/src/misc/cache/class/lv_cache_lru_ll.c ****     else *ll_node = lv_ll_get_next(&lru->ll, *ll_node);
 371              		.loc 1 433 26 discriminator 1 view .LVU104
 433:../../Middlewares/LVGL/GUI/lvgl/src/misc/cache/class/lv_cache_lru_ll.c ****     else *ll_node = lv_ll_get_next(&lru->ll, *ll_node);
 372              		.loc 1 433 37 is_stmt 0 discriminator 1 view .LVU105
 373 0030 2430     		adds	r0, r0, #36
 374              	.LVL31:
 433:../../Middlewares/LVGL/GUI/lvgl/src/misc/cache/class/lv_cache_lru_ll.c ****     else *ll_node = lv_ll_get_next(&lru->ll, *ll_node);
 375              		.loc 1 433 37 discriminator 1 view .LVU106
 376 0032 FFF7FEFF 		bl	lv_ll_get_head
 377              	.LVL32:
 433:../../Middlewares/LVGL/GUI/lvgl/src/misc/cache/class/lv_cache_lru_ll.c ****     else *ll_node = lv_ll_get_next(&lru->ll, *ll_node);
 378              		.loc 1 433 35 discriminator 2 view .LVU107
 379 0036 2060     		str	r0, [r4]
 380 0038 EDE7     		b	.L28
 381              	.LVL33:
 382              	.L30:
 438:../../Middlewares/LVGL/GUI/lvgl/src/misc/cache/class/lv_cache_lru_ll.c **** 
 383              		.loc 1 438 29 discriminator 1 view .LVU108
 384 003a 2046     		mov	r0, r4
 385 003c F6E7     		b	.L29
 386              		.cfi_endproc
 387              	.LFE32:
 389              		.section	.text.get_victim_cb,"ax",%progbits
 390              		.align	1
 391              		.syntax unified
 392              		.thumb
 393              		.thumb_func
 395              	get_victim_cb:
 396              	.LVL34:
 397              	.LFB27:
ARM GAS  C:\Users\28576\AppData\Local\Temp\ccAY92po.s 			page 16


 367:../../Middlewares/LVGL/GUI/lvgl/src/misc/cache/class/lv_cache_lru_ll.c ****     LV_UNUSED(user_data);
 398              		.loc 1 367 1 is_stmt 1 view -0
 399              		.cfi_startproc
 400              		@ args = 0, pretend = 0, frame = 0
 401              		@ frame_needed = 0, uses_anonymous_args = 0
 368:../../Middlewares/LVGL/GUI/lvgl/src/misc/cache/class/lv_cache_lru_ll.c **** 
 402              		.loc 1 368 5 view .LVU110
 370:../../Middlewares/LVGL/GUI/lvgl/src/misc/cache/class/lv_cache_lru_ll.c **** 
 403              		.loc 1 370 5 view .LVU111
 372:../../Middlewares/LVGL/GUI/lvgl/src/misc/cache/class/lv_cache_lru_ll.c **** 
 404              		.loc 1 372 5 view .LVU112
 372:../../Middlewares/LVGL/GUI/lvgl/src/misc/cache/class/lv_cache_lru_ll.c **** 
 405              		.loc 1 372 5 view .LVU113
 406 0000 B0B1     		cbz	r0, .L36
 367:../../Middlewares/LVGL/GUI/lvgl/src/misc/cache/class/lv_cache_lru_ll.c ****     LV_UNUSED(user_data);
 407              		.loc 1 367 1 is_stmt 0 view .LVU114
 408 0002 F8B5     		push	{r3, r4, r5, r6, r7, lr}
 409              	.LCFI9:
 410              		.cfi_def_cfa_offset 24
 411              		.cfi_offset 3, -24
 412              		.cfi_offset 4, -20
 413              		.cfi_offset 5, -16
 414              		.cfi_offset 6, -12
 415              		.cfi_offset 7, -8
 416              		.cfi_offset 14, -4
 417 0004 0546     		mov	r5, r0
 372:../../Middlewares/LVGL/GUI/lvgl/src/misc/cache/class/lv_cache_lru_ll.c **** 
 418              		.loc 1 372 5 is_stmt 1 view .LVU115
 372:../../Middlewares/LVGL/GUI/lvgl/src/misc/cache/class/lv_cache_lru_ll.c **** 
 419              		.loc 1 372 24 view .LVU116
 374:../../Middlewares/LVGL/GUI/lvgl/src/misc/cache/class/lv_cache_lru_ll.c ****     LV_LL_READ_BACK(&lru->ll, tail) {
 420              		.loc 1 374 5 view .LVU117
 375:../../Middlewares/LVGL/GUI/lvgl/src/misc/cache/class/lv_cache_lru_ll.c ****         lv_cache_entry_t * entry = lv_cache_entry_get_entry(tail, cache->node_size);
 421              		.loc 1 375 5 view .LVU118
 422 0006 00F12406 		add	r6, r0, #36
 423 000a 3046     		mov	r0, r6
 424              	.LVL35:
 375:../../Middlewares/LVGL/GUI/lvgl/src/misc/cache/class/lv_cache_lru_ll.c ****         lv_cache_entry_t * entry = lv_cache_entry_get_entry(tail, cache->node_size);
 425              		.loc 1 375 5 is_stmt 0 view .LVU119
 426 000c FFF7FEFF 		bl	lv_ll_get_tail
 427              	.LVL36:
 375:../../Middlewares/LVGL/GUI/lvgl/src/misc/cache/class/lv_cache_lru_ll.c ****         lv_cache_entry_t * entry = lv_cache_entry_get_entry(tail, cache->node_size);
 428              		.loc 1 375 5 view .LVU120
 429 0010 0446     		mov	r4, r0
 430              	.LVL37:
 431              	.L37:
 375:../../Middlewares/LVGL/GUI/lvgl/src/misc/cache/class/lv_cache_lru_ll.c ****         lv_cache_entry_t * entry = lv_cache_entry_get_entry(tail, cache->node_size);
 432              		.loc 1 375 5 is_stmt 1 discriminator 2 view .LVU121
 433 0012 7CB1     		cbz	r4, .L34
 434              	.LBB4:
 376:../../Middlewares/LVGL/GUI/lvgl/src/misc/cache/class/lv_cache_lru_ll.c ****         if(lv_cache_entry_get_ref(entry) == 0) {
 435              		.loc 1 376 9 view .LVU122
 376:../../Middlewares/LVGL/GUI/lvgl/src/misc/cache/class/lv_cache_lru_ll.c ****         if(lv_cache_entry_get_ref(entry) == 0) {
 436              		.loc 1 376 36 is_stmt 0 view .LVU123
 437 0014 6968     		ldr	r1, [r5, #4]
 438 0016 2046     		mov	r0, r4
 439 0018 FFF7FEFF 		bl	lv_cache_entry_get_entry
ARM GAS  C:\Users\28576\AppData\Local\Temp\ccAY92po.s 			page 17


 440              	.LVL38:
 441 001c 0746     		mov	r7, r0
 442              	.LVL39:
 377:../../Middlewares/LVGL/GUI/lvgl/src/misc/cache/class/lv_cache_lru_ll.c ****             return entry;
 443              		.loc 1 377 9 is_stmt 1 view .LVU124
 377:../../Middlewares/LVGL/GUI/lvgl/src/misc/cache/class/lv_cache_lru_ll.c ****             return entry;
 444              		.loc 1 377 12 is_stmt 0 view .LVU125
 445 001e FFF7FEFF 		bl	lv_cache_entry_get_ref
 446              	.LVL40:
 377:../../Middlewares/LVGL/GUI/lvgl/src/misc/cache/class/lv_cache_lru_ll.c ****             return entry;
 447              		.loc 1 377 11 discriminator 1 view .LVU126
 448 0022 30B1     		cbz	r0, .L40
 449              	.LBE4:
 375:../../Middlewares/LVGL/GUI/lvgl/src/misc/cache/class/lv_cache_lru_ll.c ****         lv_cache_entry_t * entry = lv_cache_entry_get_entry(tail, cache->node_size);
 450              		.loc 1 375 5 is_stmt 1 discriminator 4 view .LVU127
 451 0024 2146     		mov	r1, r4
 452 0026 3046     		mov	r0, r6
 453 0028 FFF7FEFF 		bl	lv_ll_get_prev
 454              	.LVL41:
 455 002c 0446     		mov	r4, r0
 456              	.LVL42:
 375:../../Middlewares/LVGL/GUI/lvgl/src/misc/cache/class/lv_cache_lru_ll.c ****         lv_cache_entry_t * entry = lv_cache_entry_get_entry(tail, cache->node_size);
 457              		.loc 1 375 5 is_stmt 0 discriminator 4 view .LVU128
 458 002e F0E7     		b	.L37
 459              	.LVL43:
 460              	.L36:
 461              	.LCFI10:
 462              		.cfi_def_cfa_offset 0
 463              		.cfi_restore 3
 464              		.cfi_restore 4
 465              		.cfi_restore 5
 466              		.cfi_restore 6
 467              		.cfi_restore 7
 468              		.cfi_restore 14
 372:../../Middlewares/LVGL/GUI/lvgl/src/misc/cache/class/lv_cache_lru_ll.c **** 
 469              		.loc 1 372 5 is_stmt 1 view .LVU129
 372:../../Middlewares/LVGL/GUI/lvgl/src/misc/cache/class/lv_cache_lru_ll.c **** 
 470              		.loc 1 372 5 view .LVU130
 372:../../Middlewares/LVGL/GUI/lvgl/src/misc/cache/class/lv_cache_lru_ll.c **** 
 471              		.loc 1 372 5 view .LVU131
 372:../../Middlewares/LVGL/GUI/lvgl/src/misc/cache/class/lv_cache_lru_ll.c **** 
 472              		.loc 1 372 5 view .LVU132
 372:../../Middlewares/LVGL/GUI/lvgl/src/misc/cache/class/lv_cache_lru_ll.c **** 
 473              		.loc 1 372 5 view .LVU133
 474 0030 FEE7     		b	.L36
 475              	.LVL44:
 476              	.L40:
 477              	.LCFI11:
 478              		.cfi_def_cfa_offset 24
 479              		.cfi_offset 3, -24
 480              		.cfi_offset 4, -20
 481              		.cfi_offset 5, -16
 482              		.cfi_offset 6, -12
 483              		.cfi_offset 7, -8
 484              		.cfi_offset 14, -4
 485              	.LBB5:
 378:../../Middlewares/LVGL/GUI/lvgl/src/misc/cache/class/lv_cache_lru_ll.c ****         }
ARM GAS  C:\Users\28576\AppData\Local\Temp\ccAY92po.s 			page 18


 486              		.loc 1 378 20 is_stmt 0 view .LVU134
 487 0032 3C46     		mov	r4, r7
 488              	.LVL45:
 489              	.L34:
 378:../../Middlewares/LVGL/GUI/lvgl/src/misc/cache/class/lv_cache_lru_ll.c ****         }
 490              		.loc 1 378 20 view .LVU135
 491              	.LBE5:
 383:../../Middlewares/LVGL/GUI/lvgl/src/misc/cache/class/lv_cache_lru_ll.c **** 
 492              		.loc 1 383 1 view .LVU136
 493 0034 2046     		mov	r0, r4
 494 0036 F8BD     		pop	{r3, r4, r5, r6, r7, pc}
 383:../../Middlewares/LVGL/GUI/lvgl/src/misc/cache/class/lv_cache_lru_ll.c **** 
 495              		.loc 1 383 1 view .LVU137
 496              		.cfi_endproc
 497              	.LFE27:
 499              		.section	.text.drop_all_cb,"ax",%progbits
 500              		.align	1
 501              		.syntax unified
 502              		.thumb
 503              		.thumb_func
 505              	drop_all_cb:
 506              	.LVL46:
 507              	.LFB26:
 335:../../Middlewares/LVGL/GUI/lvgl/src/misc/cache/class/lv_cache_lru_ll.c ****     lv_cache_lru_ll_t * lru = (lv_cache_lru_ll_t *)cache;
 508              		.loc 1 335 1 is_stmt 1 view -0
 509              		.cfi_startproc
 510              		@ args = 0, pretend = 0, frame = 0
 511              		@ frame_needed = 0, uses_anonymous_args = 0
 336:../../Middlewares/LVGL/GUI/lvgl/src/misc/cache/class/lv_cache_lru_ll.c **** 
 512              		.loc 1 336 5 view .LVU139
 338:../../Middlewares/LVGL/GUI/lvgl/src/misc/cache/class/lv_cache_lru_ll.c **** 
 513              		.loc 1 338 5 view .LVU140
 338:../../Middlewares/LVGL/GUI/lvgl/src/misc/cache/class/lv_cache_lru_ll.c **** 
 514              		.loc 1 338 5 view .LVU141
 515 0000 48B1     		cbz	r0, .L45
 335:../../Middlewares/LVGL/GUI/lvgl/src/misc/cache/class/lv_cache_lru_ll.c ****     lv_cache_lru_ll_t * lru = (lv_cache_lru_ll_t *)cache;
 516              		.loc 1 335 1 is_stmt 0 view .LVU142
 517 0002 F8B5     		push	{r3, r4, r5, r6, r7, lr}
 518              	.LCFI12:
 519              		.cfi_def_cfa_offset 24
 520              		.cfi_offset 3, -24
 521              		.cfi_offset 4, -20
 522              		.cfi_offset 5, -16
 523              		.cfi_offset 6, -12
 524              		.cfi_offset 7, -8
 525              		.cfi_offset 14, -4
 526 0004 0F46     		mov	r7, r1
 527 0006 0546     		mov	r5, r0
 338:../../Middlewares/LVGL/GUI/lvgl/src/misc/cache/class/lv_cache_lru_ll.c **** 
 528              		.loc 1 338 5 is_stmt 1 view .LVU143
 338:../../Middlewares/LVGL/GUI/lvgl/src/misc/cache/class/lv_cache_lru_ll.c **** 
 529              		.loc 1 338 24 view .LVU144
 340:../../Middlewares/LVGL/GUI/lvgl/src/misc/cache/class/lv_cache_lru_ll.c ****         return;
 530              		.loc 1 340 5 view .LVU145
 344:../../Middlewares/LVGL/GUI/lvgl/src/misc/cache/class/lv_cache_lru_ll.c ****     void * node;
 531              		.loc 1 344 5 view .LVU146
 532              	.LVL47:
ARM GAS  C:\Users\28576\AppData\Local\Temp\ccAY92po.s 			page 19


 345:../../Middlewares/LVGL/GUI/lvgl/src/misc/cache/class/lv_cache_lru_ll.c ****     LV_LL_READ(&lru->ll, node) {
 533              		.loc 1 345 5 view .LVU147
 346:../../Middlewares/LVGL/GUI/lvgl/src/misc/cache/class/lv_cache_lru_ll.c ****         /*free user handled data and do other clean up*/
 534              		.loc 1 346 5 view .LVU148
 535 0008 00F12406 		add	r6, r0, #36
 536 000c 3046     		mov	r0, r6
 537              	.LVL48:
 346:../../Middlewares/LVGL/GUI/lvgl/src/misc/cache/class/lv_cache_lru_ll.c ****         /*free user handled data and do other clean up*/
 538              		.loc 1 346 5 is_stmt 0 view .LVU149
 539 000e FFF7FEFF 		bl	lv_ll_get_head
 540              	.LVL49:
 346:../../Middlewares/LVGL/GUI/lvgl/src/misc/cache/class/lv_cache_lru_ll.c ****         /*free user handled data and do other clean up*/
 541              		.loc 1 346 5 view .LVU150
 542 0012 0446     		mov	r4, r0
 543              	.LVL50:
 346:../../Middlewares/LVGL/GUI/lvgl/src/misc/cache/class/lv_cache_lru_ll.c ****         /*free user handled data and do other clean up*/
 544              		.loc 1 346 5 view .LVU151
 545 0014 05E0     		b	.L46
 546              	.LVL51:
 547              	.L45:
 548              	.LCFI13:
 549              		.cfi_def_cfa_offset 0
 550              		.cfi_restore 3
 551              		.cfi_restore 4
 552              		.cfi_restore 5
 553              		.cfi_restore 6
 554              		.cfi_restore 7
 555              		.cfi_restore 14
 338:../../Middlewares/LVGL/GUI/lvgl/src/misc/cache/class/lv_cache_lru_ll.c **** 
 556              		.loc 1 338 5 is_stmt 1 view .LVU152
 338:../../Middlewares/LVGL/GUI/lvgl/src/misc/cache/class/lv_cache_lru_ll.c **** 
 557              		.loc 1 338 5 view .LVU153
 338:../../Middlewares/LVGL/GUI/lvgl/src/misc/cache/class/lv_cache_lru_ll.c **** 
 558              		.loc 1 338 5 view .LVU154
 338:../../Middlewares/LVGL/GUI/lvgl/src/misc/cache/class/lv_cache_lru_ll.c **** 
 559              		.loc 1 338 5 view .LVU155
 338:../../Middlewares/LVGL/GUI/lvgl/src/misc/cache/class/lv_cache_lru_ll.c **** 
 560              		.loc 1 338 5 view .LVU156
 561 0016 FEE7     		b	.L45
 562              	.LVL52:
 563              	.L47:
 564              	.LCFI14:
 565              		.cfi_def_cfa_offset 24
 566              		.cfi_offset 3, -24
 567              		.cfi_offset 4, -20
 568              		.cfi_offset 5, -16
 569              		.cfi_offset 6, -12
 570              		.cfi_offset 7, -8
 571              		.cfi_offset 14, -4
 346:../../Middlewares/LVGL/GUI/lvgl/src/misc/cache/class/lv_cache_lru_ll.c ****         /*free user handled data and do other clean up*/
 572              		.loc 1 346 5 discriminator 4 view .LVU157
 573 0018 2146     		mov	r1, r4
 574 001a 3046     		mov	r0, r6
 575 001c FFF7FEFF 		bl	lv_ll_get_next
 576              	.LVL53:
 577 0020 0446     		mov	r4, r0
 578              	.LVL54:
ARM GAS  C:\Users\28576\AppData\Local\Temp\ccAY92po.s 			page 20


 579              	.L46:
 346:../../Middlewares/LVGL/GUI/lvgl/src/misc/cache/class/lv_cache_lru_ll.c ****         /*free user handled data and do other clean up*/
 580              		.loc 1 346 5 discriminator 2 view .LVU158
 581 0022 64B1     		cbz	r4, .L51
 582              	.LBB6:
 348:../../Middlewares/LVGL/GUI/lvgl/src/misc/cache/class/lv_cache_lru_ll.c ****         if(lv_cache_entry_get_ref(entry) == 0) {
 583              		.loc 1 348 9 view .LVU159
 348:../../Middlewares/LVGL/GUI/lvgl/src/misc/cache/class/lv_cache_lru_ll.c ****         if(lv_cache_entry_get_ref(entry) == 0) {
 584              		.loc 1 348 36 is_stmt 0 view .LVU160
 585 0024 6968     		ldr	r1, [r5, #4]
 586 0026 2046     		mov	r0, r4
 587 0028 FFF7FEFF 		bl	lv_cache_entry_get_entry
 588              	.LVL55:
 349:../../Middlewares/LVGL/GUI/lvgl/src/misc/cache/class/lv_cache_lru_ll.c ****             lru->cache.ops.free_cb(node, user_data);
 589              		.loc 1 349 9 is_stmt 1 view .LVU161
 349:../../Middlewares/LVGL/GUI/lvgl/src/misc/cache/class/lv_cache_lru_ll.c ****             lru->cache.ops.free_cb(node, user_data);
 590              		.loc 1 349 12 is_stmt 0 view .LVU162
 591 002c FFF7FEFF 		bl	lv_cache_entry_get_ref
 592              	.LVL56:
 349:../../Middlewares/LVGL/GUI/lvgl/src/misc/cache/class/lv_cache_lru_ll.c ****             lru->cache.ops.free_cb(node, user_data);
 593              		.loc 1 349 11 discriminator 1 view .LVU163
 594 0030 0028     		cmp	r0, #0
 595 0032 F1D1     		bne	.L47
 350:../../Middlewares/LVGL/GUI/lvgl/src/misc/cache/class/lv_cache_lru_ll.c ****         }
 596              		.loc 1 350 13 is_stmt 1 view .LVU164
 350:../../Middlewares/LVGL/GUI/lvgl/src/misc/cache/class/lv_cache_lru_ll.c ****         }
 597              		.loc 1 350 27 is_stmt 0 view .LVU165
 598 0034 AB69     		ldr	r3, [r5, #24]
 350:../../Middlewares/LVGL/GUI/lvgl/src/misc/cache/class/lv_cache_lru_ll.c ****         }
 599              		.loc 1 350 13 view .LVU166
 600 0036 3946     		mov	r1, r7
 601 0038 2046     		mov	r0, r4
 602 003a 9847     		blx	r3
 603              	.LVL57:
 604 003c ECE7     		b	.L47
 605              	.LVL58:
 606              	.L51:
 350:../../Middlewares/LVGL/GUI/lvgl/src/misc/cache/class/lv_cache_lru_ll.c ****         }
 607              		.loc 1 350 13 view .LVU167
 608              	.LBE6:
 357:../../Middlewares/LVGL/GUI/lvgl/src/misc/cache/class/lv_cache_lru_ll.c ****         LV_LOG_WARN("%" LV_PRId32 " entries are still referenced", used_cnt);
 609              		.loc 1 357 5 is_stmt 1 view .LVU168
 358:../../Middlewares/LVGL/GUI/lvgl/src/misc/cache/class/lv_cache_lru_ll.c ****     }
 610              		.loc 1 358 9 view .LVU169
 358:../../Middlewares/LVGL/GUI/lvgl/src/misc/cache/class/lv_cache_lru_ll.c ****     }
 611              		.loc 1 358 9 view .LVU170
 358:../../Middlewares/LVGL/GUI/lvgl/src/misc/cache/class/lv_cache_lru_ll.c ****     }
 612              		.loc 1 358 9 view .LVU171
 361:../../Middlewares/LVGL/GUI/lvgl/src/misc/cache/class/lv_cache_lru_ll.c **** 
 613              		.loc 1 361 5 view .LVU172
 614 003e 3046     		mov	r0, r6
 615 0040 FFF7FEFF 		bl	lv_ll_clear
 616              	.LVL59:
 363:../../Middlewares/LVGL/GUI/lvgl/src/misc/cache/class/lv_cache_lru_ll.c **** }
 617              		.loc 1 363 5 view .LVU173
 363:../../Middlewares/LVGL/GUI/lvgl/src/misc/cache/class/lv_cache_lru_ll.c **** }
 618              		.loc 1 363 17 is_stmt 0 view .LVU174
ARM GAS  C:\Users\28576\AppData\Local\Temp\ccAY92po.s 			page 21


 619 0044 EC60     		str	r4, [r5, #12]
 364:../../Middlewares/LVGL/GUI/lvgl/src/misc/cache/class/lv_cache_lru_ll.c **** 
 620              		.loc 1 364 1 view .LVU175
 621 0046 F8BD     		pop	{r3, r4, r5, r6, r7, pc}
 364:../../Middlewares/LVGL/GUI/lvgl/src/misc/cache/class/lv_cache_lru_ll.c **** 
 622              		.loc 1 364 1 view .LVU176
 623              		.cfi_endproc
 624              	.LFE26:
 626              		.section	.text.drop_cb,"ax",%progbits
 627              		.align	1
 628              		.syntax unified
 629              		.thumb
 630              		.thumb_func
 632              	drop_cb:
 633              	.LVL60:
 634              	.LFB25:
 311:../../Middlewares/LVGL/GUI/lvgl/src/misc/cache/class/lv_cache_lru_ll.c ****     lv_cache_lru_ll_t * lru = (lv_cache_lru_ll_t *)cache;
 635              		.loc 1 311 1 is_stmt 1 view -0
 636              		.cfi_startproc
 637              		@ args = 0, pretend = 0, frame = 0
 638              		@ frame_needed = 0, uses_anonymous_args = 0
 312:../../Middlewares/LVGL/GUI/lvgl/src/misc/cache/class/lv_cache_lru_ll.c **** 
 639              		.loc 1 312 5 view .LVU178
 314:../../Middlewares/LVGL/GUI/lvgl/src/misc/cache/class/lv_cache_lru_ll.c ****     LV_ASSERT_NULL(key);
 640              		.loc 1 314 5 view .LVU179
 314:../../Middlewares/LVGL/GUI/lvgl/src/misc/cache/class/lv_cache_lru_ll.c ****     LV_ASSERT_NULL(key);
 641              		.loc 1 314 5 view .LVU180
 642 0000 F0B1     		cbz	r0, .L54
 311:../../Middlewares/LVGL/GUI/lvgl/src/misc/cache/class/lv_cache_lru_ll.c ****     lv_cache_lru_ll_t * lru = (lv_cache_lru_ll_t *)cache;
 643              		.loc 1 311 1 is_stmt 0 view .LVU181
 644 0002 70B5     		push	{r4, r5, r6, lr}
 645              	.LCFI15:
 646              		.cfi_def_cfa_offset 16
 647              		.cfi_offset 4, -16
 648              		.cfi_offset 5, -12
 649              		.cfi_offset 6, -8
 650              		.cfi_offset 14, -4
 651 0004 0446     		mov	r4, r0
 314:../../Middlewares/LVGL/GUI/lvgl/src/misc/cache/class/lv_cache_lru_ll.c ****     LV_ASSERT_NULL(key);
 652              		.loc 1 314 5 is_stmt 1 view .LVU182
 314:../../Middlewares/LVGL/GUI/lvgl/src/misc/cache/class/lv_cache_lru_ll.c ****     LV_ASSERT_NULL(key);
 653              		.loc 1 314 24 view .LVU183
 315:../../Middlewares/LVGL/GUI/lvgl/src/misc/cache/class/lv_cache_lru_ll.c **** 
 654              		.loc 1 315 5 view .LVU184
 315:../../Middlewares/LVGL/GUI/lvgl/src/misc/cache/class/lv_cache_lru_ll.c **** 
 655              		.loc 1 315 5 view .LVU185
 656 0006 E1B1     		cbz	r1, .L56
 315:../../Middlewares/LVGL/GUI/lvgl/src/misc/cache/class/lv_cache_lru_ll.c **** 
 657              		.loc 1 315 5 view .LVU186
 315:../../Middlewares/LVGL/GUI/lvgl/src/misc/cache/class/lv_cache_lru_ll.c **** 
 658              		.loc 1 315 24 view .LVU187
 317:../../Middlewares/LVGL/GUI/lvgl/src/misc/cache/class/lv_cache_lru_ll.c ****         return;
 659              		.loc 1 317 5 view .LVU188
 321:../../Middlewares/LVGL/GUI/lvgl/src/misc/cache/class/lv_cache_lru_ll.c ****     if(node == NULL) {
 660              		.loc 1 321 5 view .LVU189
 321:../../Middlewares/LVGL/GUI/lvgl/src/misc/cache/class/lv_cache_lru_ll.c ****     if(node == NULL) {
 661              		.loc 1 321 24 is_stmt 0 view .LVU190
ARM GAS  C:\Users\28576\AppData\Local\Temp\ccAY92po.s 			page 22


 662 0008 0368     		ldr	r3, [r0]
 321:../../Middlewares/LVGL/GUI/lvgl/src/misc/cache/class/lv_cache_lru_ll.c ****     if(node == NULL) {
 663              		.loc 1 321 29 view .LVU191
 664 000a DB68     		ldr	r3, [r3, #12]
 321:../../Middlewares/LVGL/GUI/lvgl/src/misc/cache/class/lv_cache_lru_ll.c ****     if(node == NULL) {
 665              		.loc 1 321 19 view .LVU192
 666 000c 1646     		mov	r6, r2
 667 000e 9847     		blx	r3
 668              	.LVL61:
 322:../../Middlewares/LVGL/GUI/lvgl/src/misc/cache/class/lv_cache_lru_ll.c ****         return;
 669              		.loc 1 322 5 is_stmt 1 view .LVU193
 322:../../Middlewares/LVGL/GUI/lvgl/src/misc/cache/class/lv_cache_lru_ll.c ****         return;
 670              		.loc 1 322 7 is_stmt 0 view .LVU194
 671 0010 0546     		mov	r5, r0
 672 0012 A0B1     		cbz	r0, .L52
 325:../../Middlewares/LVGL/GUI/lvgl/src/misc/cache/class/lv_cache_lru_ll.c **** 
 673              		.loc 1 325 5 is_stmt 1 view .LVU195
 674 0014 0146     		mov	r1, r0
 675 0016 04F12400 		add	r0, r4, #36
 676              	.LVL62:
 325:../../Middlewares/LVGL/GUI/lvgl/src/misc/cache/class/lv_cache_lru_ll.c **** 
 677              		.loc 1 325 5 is_stmt 0 view .LVU196
 678 001a FFF7FEFF 		bl	lv_ll_remove
 679              	.LVL63:
 327:../../Middlewares/LVGL/GUI/lvgl/src/misc/cache/class/lv_cache_lru_ll.c ****     cache->size -= lru->get_data_size_cb(node);
 680              		.loc 1 327 5 is_stmt 1 view .LVU197
 327:../../Middlewares/LVGL/GUI/lvgl/src/misc/cache/class/lv_cache_lru_ll.c ****     cache->size -= lru->get_data_size_cb(node);
 681              		.loc 1 327 19 is_stmt 0 view .LVU198
 682 001e A369     		ldr	r3, [r4, #24]
 327:../../Middlewares/LVGL/GUI/lvgl/src/misc/cache/class/lv_cache_lru_ll.c ****     cache->size -= lru->get_data_size_cb(node);
 683              		.loc 1 327 5 view .LVU199
 684 0020 3146     		mov	r1, r6
 685 0022 2846     		mov	r0, r5
 686 0024 9847     		blx	r3
 687              	.LVL64:
 328:../../Middlewares/LVGL/GUI/lvgl/src/misc/cache/class/lv_cache_lru_ll.c **** 
 688              		.loc 1 328 5 is_stmt 1 view .LVU200
 328:../../Middlewares/LVGL/GUI/lvgl/src/misc/cache/class/lv_cache_lru_ll.c **** 
 689              		.loc 1 328 23 is_stmt 0 view .LVU201
 690 0026 236B     		ldr	r3, [r4, #48]
 328:../../Middlewares/LVGL/GUI/lvgl/src/misc/cache/class/lv_cache_lru_ll.c **** 
 691              		.loc 1 328 20 view .LVU202
 692 0028 2846     		mov	r0, r5
 693 002a 9847     		blx	r3
 694              	.LVL65:
 328:../../Middlewares/LVGL/GUI/lvgl/src/misc/cache/class/lv_cache_lru_ll.c **** 
 695              		.loc 1 328 10 discriminator 1 view .LVU203
 696 002c E368     		ldr	r3, [r4, #12]
 328:../../Middlewares/LVGL/GUI/lvgl/src/misc/cache/class/lv_cache_lru_ll.c **** 
 697              		.loc 1 328 17 discriminator 1 view .LVU204
 698 002e 1B1A     		subs	r3, r3, r0
 699 0030 E360     		str	r3, [r4, #12]
 330:../../Middlewares/LVGL/GUI/lvgl/src/misc/cache/class/lv_cache_lru_ll.c ****     lv_cache_entry_delete(entry);
 700              		.loc 1 330 5 is_stmt 1 view .LVU205
 330:../../Middlewares/LVGL/GUI/lvgl/src/misc/cache/class/lv_cache_lru_ll.c ****     lv_cache_entry_delete(entry);
 701              		.loc 1 330 32 is_stmt 0 view .LVU206
 702 0032 6168     		ldr	r1, [r4, #4]
ARM GAS  C:\Users\28576\AppData\Local\Temp\ccAY92po.s 			page 23


 703 0034 2846     		mov	r0, r5
 704 0036 FFF7FEFF 		bl	lv_cache_entry_get_entry
 705              	.LVL66:
 331:../../Middlewares/LVGL/GUI/lvgl/src/misc/cache/class/lv_cache_lru_ll.c **** }
 706              		.loc 1 331 5 is_stmt 1 view .LVU207
 707 003a FFF7FEFF 		bl	lv_cache_entry_delete
 708              	.LVL67:
 709              	.L52:
 332:../../Middlewares/LVGL/GUI/lvgl/src/misc/cache/class/lv_cache_lru_ll.c **** 
 710              		.loc 1 332 1 is_stmt 0 view .LVU208
 711 003e 70BD     		pop	{r4, r5, r6, pc}
 712              	.LVL68:
 713              	.L54:
 714              	.LCFI16:
 715              		.cfi_def_cfa_offset 0
 716              		.cfi_restore 4
 717              		.cfi_restore 5
 718              		.cfi_restore 6
 719              		.cfi_restore 14
 314:../../Middlewares/LVGL/GUI/lvgl/src/misc/cache/class/lv_cache_lru_ll.c ****     LV_ASSERT_NULL(key);
 720              		.loc 1 314 5 is_stmt 1 view .LVU209
 314:../../Middlewares/LVGL/GUI/lvgl/src/misc/cache/class/lv_cache_lru_ll.c ****     LV_ASSERT_NULL(key);
 721              		.loc 1 314 5 view .LVU210
 314:../../Middlewares/LVGL/GUI/lvgl/src/misc/cache/class/lv_cache_lru_ll.c ****     LV_ASSERT_NULL(key);
 722              		.loc 1 314 5 view .LVU211
 314:../../Middlewares/LVGL/GUI/lvgl/src/misc/cache/class/lv_cache_lru_ll.c ****     LV_ASSERT_NULL(key);
 723              		.loc 1 314 5 view .LVU212
 314:../../Middlewares/LVGL/GUI/lvgl/src/misc/cache/class/lv_cache_lru_ll.c ****     LV_ASSERT_NULL(key);
 724              		.loc 1 314 5 view .LVU213
 725 0040 FEE7     		b	.L54
 726              	.L56:
 727              	.LCFI17:
 728              		.cfi_def_cfa_offset 16
 729              		.cfi_offset 4, -16
 730              		.cfi_offset 5, -12
 731              		.cfi_offset 6, -8
 732              		.cfi_offset 14, -4
 315:../../Middlewares/LVGL/GUI/lvgl/src/misc/cache/class/lv_cache_lru_ll.c **** 
 733              		.loc 1 315 5 view .LVU214
 315:../../Middlewares/LVGL/GUI/lvgl/src/misc/cache/class/lv_cache_lru_ll.c **** 
 734              		.loc 1 315 5 view .LVU215
 315:../../Middlewares/LVGL/GUI/lvgl/src/misc/cache/class/lv_cache_lru_ll.c **** 
 735              		.loc 1 315 5 view .LVU216
 315:../../Middlewares/LVGL/GUI/lvgl/src/misc/cache/class/lv_cache_lru_ll.c **** 
 736              		.loc 1 315 5 view .LVU217
 315:../../Middlewares/LVGL/GUI/lvgl/src/misc/cache/class/lv_cache_lru_ll.c **** 
 737              		.loc 1 315 5 view .LVU218
 738 0042 FEE7     		b	.L56
 739              		.cfi_endproc
 740              	.LFE25:
 742              		.section	.text.remove_cb,"ax",%progbits
 743              		.align	1
 744              		.syntax unified
 745              		.thumb
 746              		.thumb_func
 748              	remove_cb:
 749              	.LVL69:
ARM GAS  C:\Users\28576\AppData\Local\Temp\ccAY92po.s 			page 24


 750              	.LFB24:
 291:../../Middlewares/LVGL/GUI/lvgl/src/misc/cache/class/lv_cache_lru_ll.c ****     LV_UNUSED(user_data);
 751              		.loc 1 291 1 view -0
 752              		.cfi_startproc
 753              		@ args = 0, pretend = 0, frame = 0
 754              		@ frame_needed = 0, uses_anonymous_args = 0
 292:../../Middlewares/LVGL/GUI/lvgl/src/misc/cache/class/lv_cache_lru_ll.c **** 
 755              		.loc 1 292 5 view .LVU220
 294:../../Middlewares/LVGL/GUI/lvgl/src/misc/cache/class/lv_cache_lru_ll.c **** 
 756              		.loc 1 294 5 view .LVU221
 296:../../Middlewares/LVGL/GUI/lvgl/src/misc/cache/class/lv_cache_lru_ll.c ****     LV_ASSERT_NULL(entry);
 757              		.loc 1 296 5 view .LVU222
 296:../../Middlewares/LVGL/GUI/lvgl/src/misc/cache/class/lv_cache_lru_ll.c ****     LV_ASSERT_NULL(entry);
 758              		.loc 1 296 5 view .LVU223
 759 0000 90B1     		cbz	r0, .L62
 291:../../Middlewares/LVGL/GUI/lvgl/src/misc/cache/class/lv_cache_lru_ll.c ****     LV_UNUSED(user_data);
 760              		.loc 1 291 1 is_stmt 0 view .LVU224
 761 0002 38B5     		push	{r3, r4, r5, lr}
 762              	.LCFI18:
 763              		.cfi_def_cfa_offset 16
 764              		.cfi_offset 3, -16
 765              		.cfi_offset 4, -12
 766              		.cfi_offset 5, -8
 767              		.cfi_offset 14, -4
 768 0004 0446     		mov	r4, r0
 296:../../Middlewares/LVGL/GUI/lvgl/src/misc/cache/class/lv_cache_lru_ll.c ****     LV_ASSERT_NULL(entry);
 769              		.loc 1 296 5 is_stmt 1 view .LVU225
 296:../../Middlewares/LVGL/GUI/lvgl/src/misc/cache/class/lv_cache_lru_ll.c ****     LV_ASSERT_NULL(entry);
 770              		.loc 1 296 24 view .LVU226
 297:../../Middlewares/LVGL/GUI/lvgl/src/misc/cache/class/lv_cache_lru_ll.c **** 
 771              		.loc 1 297 5 view .LVU227
 297:../../Middlewares/LVGL/GUI/lvgl/src/misc/cache/class/lv_cache_lru_ll.c **** 
 772              		.loc 1 297 5 view .LVU228
 773 0006 81B1     		cbz	r1, .L64
 297:../../Middlewares/LVGL/GUI/lvgl/src/misc/cache/class/lv_cache_lru_ll.c **** 
 774              		.loc 1 297 5 view .LVU229
 297:../../Middlewares/LVGL/GUI/lvgl/src/misc/cache/class/lv_cache_lru_ll.c **** 
 775              		.loc 1 297 26 view .LVU230
 299:../../Middlewares/LVGL/GUI/lvgl/src/misc/cache/class/lv_cache_lru_ll.c ****         return;
 776              		.loc 1 299 5 view .LVU231
 303:../../Middlewares/LVGL/GUI/lvgl/src/misc/cache/class/lv_cache_lru_ll.c **** 
 777              		.loc 1 303 5 view .LVU232
 303:../../Middlewares/LVGL/GUI/lvgl/src/misc/cache/class/lv_cache_lru_ll.c **** 
 778              		.loc 1 303 19 is_stmt 0 view .LVU233
 779 0008 0846     		mov	r0, r1
 780              	.LVL70:
 303:../../Middlewares/LVGL/GUI/lvgl/src/misc/cache/class/lv_cache_lru_ll.c **** 
 781              		.loc 1 303 19 view .LVU234
 782 000a FFF7FEFF 		bl	lv_cache_entry_get_data
 783              	.LVL71:
 303:../../Middlewares/LVGL/GUI/lvgl/src/misc/cache/class/lv_cache_lru_ll.c **** 
 784              		.loc 1 303 19 view .LVU235
 785 000e 0546     		mov	r5, r0
 786              	.LVL72:
 305:../../Middlewares/LVGL/GUI/lvgl/src/misc/cache/class/lv_cache_lru_ll.c **** 
 787              		.loc 1 305 5 is_stmt 1 view .LVU236
 788 0010 0146     		mov	r1, r0
ARM GAS  C:\Users\28576\AppData\Local\Temp\ccAY92po.s 			page 25


 789 0012 04F12400 		add	r0, r4, #36
 790              	.LVL73:
 305:../../Middlewares/LVGL/GUI/lvgl/src/misc/cache/class/lv_cache_lru_ll.c **** 
 791              		.loc 1 305 5 is_stmt 0 view .LVU237
 792 0016 FFF7FEFF 		bl	lv_ll_remove
 793              	.LVL74:
 307:../../Middlewares/LVGL/GUI/lvgl/src/misc/cache/class/lv_cache_lru_ll.c **** }
 794              		.loc 1 307 5 is_stmt 1 view .LVU238
 307:../../Middlewares/LVGL/GUI/lvgl/src/misc/cache/class/lv_cache_lru_ll.c **** }
 795              		.loc 1 307 23 is_stmt 0 view .LVU239
 796 001a 236B     		ldr	r3, [r4, #48]
 307:../../Middlewares/LVGL/GUI/lvgl/src/misc/cache/class/lv_cache_lru_ll.c **** }
 797              		.loc 1 307 20 view .LVU240
 798 001c 2846     		mov	r0, r5
 799 001e 9847     		blx	r3
 800              	.LVL75:
 307:../../Middlewares/LVGL/GUI/lvgl/src/misc/cache/class/lv_cache_lru_ll.c **** }
 801              		.loc 1 307 10 discriminator 1 view .LVU241
 802 0020 E368     		ldr	r3, [r4, #12]
 307:../../Middlewares/LVGL/GUI/lvgl/src/misc/cache/class/lv_cache_lru_ll.c **** }
 803              		.loc 1 307 17 discriminator 1 view .LVU242
 804 0022 1B1A     		subs	r3, r3, r0
 805 0024 E360     		str	r3, [r4, #12]
 308:../../Middlewares/LVGL/GUI/lvgl/src/misc/cache/class/lv_cache_lru_ll.c **** 
 806              		.loc 1 308 1 view .LVU243
 807 0026 38BD     		pop	{r3, r4, r5, pc}
 808              	.LVL76:
 809              	.L62:
 810              	.LCFI19:
 811              		.cfi_def_cfa_offset 0
 812              		.cfi_restore 3
 813              		.cfi_restore 4
 814              		.cfi_restore 5
 815              		.cfi_restore 14
 296:../../Middlewares/LVGL/GUI/lvgl/src/misc/cache/class/lv_cache_lru_ll.c ****     LV_ASSERT_NULL(entry);
 816              		.loc 1 296 5 is_stmt 1 view .LVU244
 296:../../Middlewares/LVGL/GUI/lvgl/src/misc/cache/class/lv_cache_lru_ll.c ****     LV_ASSERT_NULL(entry);
 817              		.loc 1 296 5 view .LVU245
 296:../../Middlewares/LVGL/GUI/lvgl/src/misc/cache/class/lv_cache_lru_ll.c ****     LV_ASSERT_NULL(entry);
 818              		.loc 1 296 5 view .LVU246
 296:../../Middlewares/LVGL/GUI/lvgl/src/misc/cache/class/lv_cache_lru_ll.c ****     LV_ASSERT_NULL(entry);
 819              		.loc 1 296 5 view .LVU247
 296:../../Middlewares/LVGL/GUI/lvgl/src/misc/cache/class/lv_cache_lru_ll.c ****     LV_ASSERT_NULL(entry);
 820              		.loc 1 296 5 view .LVU248
 821 0028 FEE7     		b	.L62
 822              	.L64:
 823              	.LCFI20:
 824              		.cfi_def_cfa_offset 16
 825              		.cfi_offset 3, -16
 826              		.cfi_offset 4, -12
 827              		.cfi_offset 5, -8
 828              		.cfi_offset 14, -4
 297:../../Middlewares/LVGL/GUI/lvgl/src/misc/cache/class/lv_cache_lru_ll.c **** 
 829              		.loc 1 297 5 view .LVU249
 297:../../Middlewares/LVGL/GUI/lvgl/src/misc/cache/class/lv_cache_lru_ll.c **** 
 830              		.loc 1 297 5 view .LVU250
 297:../../Middlewares/LVGL/GUI/lvgl/src/misc/cache/class/lv_cache_lru_ll.c **** 
ARM GAS  C:\Users\28576\AppData\Local\Temp\ccAY92po.s 			page 26


 831              		.loc 1 297 5 view .LVU251
 297:../../Middlewares/LVGL/GUI/lvgl/src/misc/cache/class/lv_cache_lru_ll.c **** 
 832              		.loc 1 297 5 view .LVU252
 297:../../Middlewares/LVGL/GUI/lvgl/src/misc/cache/class/lv_cache_lru_ll.c **** 
 833              		.loc 1 297 5 view .LVU253
 834 002a FEE7     		b	.L64
 835              		.cfi_endproc
 836              	.LFE24:
 838              		.section	.text.alloc_new_node,"ax",%progbits
 839              		.align	1
 840              		.syntax unified
 841              		.thumb
 842              		.thumb_func
 844              	alloc_new_node:
 845              	.LVL77:
 846              	.LFB17:
 150:../../Middlewares/LVGL/GUI/lvgl/src/misc/cache/class/lv_cache_lru_ll.c ****     LV_UNUSED(user_data);
 847              		.loc 1 150 1 view -0
 848              		.cfi_startproc
 849              		@ args = 0, pretend = 0, frame = 0
 850              		@ frame_needed = 0, uses_anonymous_args = 0
 151:../../Middlewares/LVGL/GUI/lvgl/src/misc/cache/class/lv_cache_lru_ll.c **** 
 851              		.loc 1 151 5 view .LVU255
 153:../../Middlewares/LVGL/GUI/lvgl/src/misc/cache/class/lv_cache_lru_ll.c ****     LV_ASSERT_NULL(key);
 852              		.loc 1 153 5 view .LVU256
 153:../../Middlewares/LVGL/GUI/lvgl/src/misc/cache/class/lv_cache_lru_ll.c ****     LV_ASSERT_NULL(key);
 853              		.loc 1 153 5 view .LVU257
 854 0000 B8B1     		cbz	r0, .L69
 150:../../Middlewares/LVGL/GUI/lvgl/src/misc/cache/class/lv_cache_lru_ll.c ****     LV_UNUSED(user_data);
 855              		.loc 1 150 1 is_stmt 0 view .LVU258
 856 0002 70B5     		push	{r4, r5, r6, lr}
 857              	.LCFI21:
 858              		.cfi_def_cfa_offset 16
 859              		.cfi_offset 4, -16
 860              		.cfi_offset 5, -12
 861              		.cfi_offset 6, -8
 862              		.cfi_offset 14, -4
 863 0004 0E46     		mov	r6, r1
 864 0006 0446     		mov	r4, r0
 153:../../Middlewares/LVGL/GUI/lvgl/src/misc/cache/class/lv_cache_lru_ll.c ****     LV_ASSERT_NULL(key);
 865              		.loc 1 153 5 is_stmt 1 view .LVU259
 153:../../Middlewares/LVGL/GUI/lvgl/src/misc/cache/class/lv_cache_lru_ll.c ****     LV_ASSERT_NULL(key);
 866              		.loc 1 153 24 view .LVU260
 154:../../Middlewares/LVGL/GUI/lvgl/src/misc/cache/class/lv_cache_lru_ll.c **** 
 867              		.loc 1 154 5 view .LVU261
 154:../../Middlewares/LVGL/GUI/lvgl/src/misc/cache/class/lv_cache_lru_ll.c **** 
 868              		.loc 1 154 5 view .LVU262
 869 0008 A1B1     		cbz	r1, .L71
 154:../../Middlewares/LVGL/GUI/lvgl/src/misc/cache/class/lv_cache_lru_ll.c **** 
 870              		.loc 1 154 5 view .LVU263
 154:../../Middlewares/LVGL/GUI/lvgl/src/misc/cache/class/lv_cache_lru_ll.c **** 
 871              		.loc 1 154 24 view .LVU264
 156:../../Middlewares/LVGL/GUI/lvgl/src/misc/cache/class/lv_cache_lru_ll.c ****         return NULL;
 872              		.loc 1 156 5 view .LVU265
 160:../../Middlewares/LVGL/GUI/lvgl/src/misc/cache/class/lv_cache_lru_ll.c ****     if(new_node == NULL) {
 873              		.loc 1 160 5 view .LVU266
 160:../../Middlewares/LVGL/GUI/lvgl/src/misc/cache/class/lv_cache_lru_ll.c ****     if(new_node == NULL) {
ARM GAS  C:\Users\28576\AppData\Local\Temp\ccAY92po.s 			page 27


 874              		.loc 1 160 23 is_stmt 0 view .LVU267
 875 000a 2430     		adds	r0, r0, #36
 876              	.LVL78:
 160:../../Middlewares/LVGL/GUI/lvgl/src/misc/cache/class/lv_cache_lru_ll.c ****     if(new_node == NULL) {
 877              		.loc 1 160 23 view .LVU268
 878 000c FFF7FEFF 		bl	lv_ll_ins_head
 879              	.LVL79:
 161:../../Middlewares/LVGL/GUI/lvgl/src/misc/cache/class/lv_cache_lru_ll.c ****         return NULL;
 880              		.loc 1 161 5 is_stmt 1 view .LVU269
 161:../../Middlewares/LVGL/GUI/lvgl/src/misc/cache/class/lv_cache_lru_ll.c ****         return NULL;
 881              		.loc 1 161 7 is_stmt 0 view .LVU270
 882 0010 0546     		mov	r5, r0
 883 0012 60B1     		cbz	r0, .L67
 165:../../Middlewares/LVGL/GUI/lvgl/src/misc/cache/class/lv_cache_lru_ll.c ****     lv_cache_entry_t * entry = lv_cache_entry_get_entry(new_node, lru->cache.node_size);
 884              		.loc 1 165 5 is_stmt 1 view .LVU271
 885 0014 6268     		ldr	r2, [r4, #4]
 886 0016 3146     		mov	r1, r6
 887 0018 FFF7FEFF 		bl	lv_memcpy
 888              	.LVL80:
 166:../../Middlewares/LVGL/GUI/lvgl/src/misc/cache/class/lv_cache_lru_ll.c ****     lv_cache_entry_init(entry, &lru->cache, lru->cache.node_size);
 889              		.loc 1 166 5 view .LVU272
 166:../../Middlewares/LVGL/GUI/lvgl/src/misc/cache/class/lv_cache_lru_ll.c ****     lv_cache_entry_init(entry, &lru->cache, lru->cache.node_size);
 890              		.loc 1 166 32 is_stmt 0 view .LVU273
 891 001c 6168     		ldr	r1, [r4, #4]
 892 001e 2846     		mov	r0, r5
 893 0020 FFF7FEFF 		bl	lv_cache_entry_get_entry
 894              	.LVL81:
 895 0024 0546     		mov	r5, r0
 896              	.LVL82:
 167:../../Middlewares/LVGL/GUI/lvgl/src/misc/cache/class/lv_cache_lru_ll.c ****     return entry;
 897              		.loc 1 167 5 is_stmt 1 view .LVU274
 898 0026 6268     		ldr	r2, [r4, #4]
 899 0028 2146     		mov	r1, r4
 900 002a FFF7FEFF 		bl	lv_cache_entry_init
 901              	.LVL83:
 168:../../Middlewares/LVGL/GUI/lvgl/src/misc/cache/class/lv_cache_lru_ll.c **** }
 902              		.loc 1 168 5 view .LVU275
 903              	.L67:
 169:../../Middlewares/LVGL/GUI/lvgl/src/misc/cache/class/lv_cache_lru_ll.c **** 
 904              		.loc 1 169 1 is_stmt 0 view .LVU276
 905 002e 2846     		mov	r0, r5
 906 0030 70BD     		pop	{r4, r5, r6, pc}
 907              	.LVL84:
 908              	.L69:
 909              	.LCFI22:
 910              		.cfi_def_cfa_offset 0
 911              		.cfi_restore 4
 912              		.cfi_restore 5
 913              		.cfi_restore 6
 914              		.cfi_restore 14
 153:../../Middlewares/LVGL/GUI/lvgl/src/misc/cache/class/lv_cache_lru_ll.c ****     LV_ASSERT_NULL(key);
 915              		.loc 1 153 5 is_stmt 1 view .LVU277
 153:../../Middlewares/LVGL/GUI/lvgl/src/misc/cache/class/lv_cache_lru_ll.c ****     LV_ASSERT_NULL(key);
 916              		.loc 1 153 5 view .LVU278
 153:../../Middlewares/LVGL/GUI/lvgl/src/misc/cache/class/lv_cache_lru_ll.c ****     LV_ASSERT_NULL(key);
 917              		.loc 1 153 5 view .LVU279
 153:../../Middlewares/LVGL/GUI/lvgl/src/misc/cache/class/lv_cache_lru_ll.c ****     LV_ASSERT_NULL(key);
ARM GAS  C:\Users\28576\AppData\Local\Temp\ccAY92po.s 			page 28


 918              		.loc 1 153 5 view .LVU280
 153:../../Middlewares/LVGL/GUI/lvgl/src/misc/cache/class/lv_cache_lru_ll.c ****     LV_ASSERT_NULL(key);
 919              		.loc 1 153 5 view .LVU281
 920 0032 FEE7     		b	.L69
 921              	.L71:
 922              	.LCFI23:
 923              		.cfi_def_cfa_offset 16
 924              		.cfi_offset 4, -16
 925              		.cfi_offset 5, -12
 926              		.cfi_offset 6, -8
 927              		.cfi_offset 14, -4
 154:../../Middlewares/LVGL/GUI/lvgl/src/misc/cache/class/lv_cache_lru_ll.c **** 
 928              		.loc 1 154 5 view .LVU282
 154:../../Middlewares/LVGL/GUI/lvgl/src/misc/cache/class/lv_cache_lru_ll.c **** 
 929              		.loc 1 154 5 view .LVU283
 154:../../Middlewares/LVGL/GUI/lvgl/src/misc/cache/class/lv_cache_lru_ll.c **** 
 930              		.loc 1 154 5 view .LVU284
 154:../../Middlewares/LVGL/GUI/lvgl/src/misc/cache/class/lv_cache_lru_ll.c **** 
 931              		.loc 1 154 5 view .LVU285
 154:../../Middlewares/LVGL/GUI/lvgl/src/misc/cache/class/lv_cache_lru_ll.c **** 
 932              		.loc 1 154 5 view .LVU286
 933 0034 FEE7     		b	.L71
 934              		.cfi_endproc
 935              	.LFE17:
 937              		.section	.text.add_cb,"ax",%progbits
 938              		.align	1
 939              		.syntax unified
 940              		.thumb
 941              		.thumb_func
 943              	add_cb:
 944              	.LVL85:
 945              	.LFB23:
 268:../../Middlewares/LVGL/GUI/lvgl/src/misc/cache/class/lv_cache_lru_ll.c ****     LV_UNUSED(user_data);
 946              		.loc 1 268 1 view -0
 947              		.cfi_startproc
 948              		@ args = 0, pretend = 0, frame = 0
 949              		@ frame_needed = 0, uses_anonymous_args = 0
 269:../../Middlewares/LVGL/GUI/lvgl/src/misc/cache/class/lv_cache_lru_ll.c **** 
 950              		.loc 1 269 5 view .LVU288
 271:../../Middlewares/LVGL/GUI/lvgl/src/misc/cache/class/lv_cache_lru_ll.c **** 
 951              		.loc 1 271 5 view .LVU289
 273:../../Middlewares/LVGL/GUI/lvgl/src/misc/cache/class/lv_cache_lru_ll.c ****     LV_ASSERT_NULL(key);
 952              		.loc 1 273 5 view .LVU290
 273:../../Middlewares/LVGL/GUI/lvgl/src/misc/cache/class/lv_cache_lru_ll.c ****     LV_ASSERT_NULL(key);
 953              		.loc 1 273 5 view .LVU291
 954 0000 78B1     		cbz	r0, .L77
 268:../../Middlewares/LVGL/GUI/lvgl/src/misc/cache/class/lv_cache_lru_ll.c ****     LV_UNUSED(user_data);
 955              		.loc 1 268 1 is_stmt 0 view .LVU292
 956 0002 70B5     		push	{r4, r5, r6, lr}
 957              	.LCFI24:
 958              		.cfi_def_cfa_offset 16
 959              		.cfi_offset 4, -16
 960              		.cfi_offset 5, -12
 961              		.cfi_offset 6, -8
 962              		.cfi_offset 14, -4
 963 0004 0C46     		mov	r4, r1
 964 0006 0546     		mov	r5, r0
ARM GAS  C:\Users\28576\AppData\Local\Temp\ccAY92po.s 			page 29


 273:../../Middlewares/LVGL/GUI/lvgl/src/misc/cache/class/lv_cache_lru_ll.c ****     LV_ASSERT_NULL(key);
 965              		.loc 1 273 5 is_stmt 1 view .LVU293
 273:../../Middlewares/LVGL/GUI/lvgl/src/misc/cache/class/lv_cache_lru_ll.c ****     LV_ASSERT_NULL(key);
 966              		.loc 1 273 24 view .LVU294
 274:../../Middlewares/LVGL/GUI/lvgl/src/misc/cache/class/lv_cache_lru_ll.c **** 
 967              		.loc 1 274 5 view .LVU295
 274:../../Middlewares/LVGL/GUI/lvgl/src/misc/cache/class/lv_cache_lru_ll.c **** 
 968              		.loc 1 274 5 view .LVU296
 969 0008 61B1     		cbz	r1, .L79
 274:../../Middlewares/LVGL/GUI/lvgl/src/misc/cache/class/lv_cache_lru_ll.c **** 
 970              		.loc 1 274 5 view .LVU297
 274:../../Middlewares/LVGL/GUI/lvgl/src/misc/cache/class/lv_cache_lru_ll.c **** 
 971              		.loc 1 274 24 view .LVU298
 276:../../Middlewares/LVGL/GUI/lvgl/src/misc/cache/class/lv_cache_lru_ll.c ****         return NULL;
 972              		.loc 1 276 5 view .LVU299
 280:../../Middlewares/LVGL/GUI/lvgl/src/misc/cache/class/lv_cache_lru_ll.c ****     if(entry == NULL) {
 973              		.loc 1 280 5 view .LVU300
 280:../../Middlewares/LVGL/GUI/lvgl/src/misc/cache/class/lv_cache_lru_ll.c ****     if(entry == NULL) {
 974              		.loc 1 280 32 is_stmt 0 view .LVU301
 975 000a FFF7FEFF 		bl	alloc_new_node
 976              	.LVL86:
 281:../../Middlewares/LVGL/GUI/lvgl/src/misc/cache/class/lv_cache_lru_ll.c ****         return NULL;
 977              		.loc 1 281 5 is_stmt 1 view .LVU302
 281:../../Middlewares/LVGL/GUI/lvgl/src/misc/cache/class/lv_cache_lru_ll.c ****         return NULL;
 978              		.loc 1 281 7 is_stmt 0 view .LVU303
 979 000e 0646     		mov	r6, r0
 980 0010 28B1     		cbz	r0, .L75
 285:../../Middlewares/LVGL/GUI/lvgl/src/misc/cache/class/lv_cache_lru_ll.c **** 
 981              		.loc 1 285 5 is_stmt 1 view .LVU304
 285:../../Middlewares/LVGL/GUI/lvgl/src/misc/cache/class/lv_cache_lru_ll.c **** 
 982              		.loc 1 285 23 is_stmt 0 view .LVU305
 983 0012 2B6B     		ldr	r3, [r5, #48]
 285:../../Middlewares/LVGL/GUI/lvgl/src/misc/cache/class/lv_cache_lru_ll.c **** 
 984              		.loc 1 285 20 view .LVU306
 985 0014 2046     		mov	r0, r4
 986              	.LVL87:
 285:../../Middlewares/LVGL/GUI/lvgl/src/misc/cache/class/lv_cache_lru_ll.c **** 
 987              		.loc 1 285 20 view .LVU307
 988 0016 9847     		blx	r3
 989              	.LVL88:
 285:../../Middlewares/LVGL/GUI/lvgl/src/misc/cache/class/lv_cache_lru_ll.c **** 
 990              		.loc 1 285 10 discriminator 1 view .LVU308
 991 0018 EB68     		ldr	r3, [r5, #12]
 285:../../Middlewares/LVGL/GUI/lvgl/src/misc/cache/class/lv_cache_lru_ll.c **** 
 992              		.loc 1 285 17 discriminator 1 view .LVU309
 993 001a 0344     		add	r3, r3, r0
 994 001c EB60     		str	r3, [r5, #12]
 287:../../Middlewares/LVGL/GUI/lvgl/src/misc/cache/class/lv_cache_lru_ll.c **** }
 995              		.loc 1 287 5 is_stmt 1 view .LVU310
 996              	.L75:
 288:../../Middlewares/LVGL/GUI/lvgl/src/misc/cache/class/lv_cache_lru_ll.c **** 
 997              		.loc 1 288 1 is_stmt 0 view .LVU311
 998 001e 3046     		mov	r0, r6
 999 0020 70BD     		pop	{r4, r5, r6, pc}
 1000              	.LVL89:
 1001              	.L77:
 1002              	.LCFI25:
ARM GAS  C:\Users\28576\AppData\Local\Temp\ccAY92po.s 			page 30


 1003              		.cfi_def_cfa_offset 0
 1004              		.cfi_restore 4
 1005              		.cfi_restore 5
 1006              		.cfi_restore 6
 1007              		.cfi_restore 14
 273:../../Middlewares/LVGL/GUI/lvgl/src/misc/cache/class/lv_cache_lru_ll.c ****     LV_ASSERT_NULL(key);
 1008              		.loc 1 273 5 is_stmt 1 view .LVU312
 273:../../Middlewares/LVGL/GUI/lvgl/src/misc/cache/class/lv_cache_lru_ll.c ****     LV_ASSERT_NULL(key);
 1009              		.loc 1 273 5 view .LVU313
 273:../../Middlewares/LVGL/GUI/lvgl/src/misc/cache/class/lv_cache_lru_ll.c ****     LV_ASSERT_NULL(key);
 1010              		.loc 1 273 5 view .LVU314
 273:../../Middlewares/LVGL/GUI/lvgl/src/misc/cache/class/lv_cache_lru_ll.c ****     LV_ASSERT_NULL(key);
 1011              		.loc 1 273 5 view .LVU315
 273:../../Middlewares/LVGL/GUI/lvgl/src/misc/cache/class/lv_cache_lru_ll.c ****     LV_ASSERT_NULL(key);
 1012              		.loc 1 273 5 view .LVU316
 1013 0022 FEE7     		b	.L77
 1014              	.L79:
 1015              	.LCFI26:
 1016              		.cfi_def_cfa_offset 16
 1017              		.cfi_offset 4, -16
 1018              		.cfi_offset 5, -12
 1019              		.cfi_offset 6, -8
 1020              		.cfi_offset 14, -4
 274:../../Middlewares/LVGL/GUI/lvgl/src/misc/cache/class/lv_cache_lru_ll.c **** 
 1021              		.loc 1 274 5 view .LVU317
 274:../../Middlewares/LVGL/GUI/lvgl/src/misc/cache/class/lv_cache_lru_ll.c **** 
 1022              		.loc 1 274 5 view .LVU318
 274:../../Middlewares/LVGL/GUI/lvgl/src/misc/cache/class/lv_cache_lru_ll.c **** 
 1023              		.loc 1 274 5 view .LVU319
 274:../../Middlewares/LVGL/GUI/lvgl/src/misc/cache/class/lv_cache_lru_ll.c **** 
 1024              		.loc 1 274 5 view .LVU320
 274:../../Middlewares/LVGL/GUI/lvgl/src/misc/cache/class/lv_cache_lru_ll.c **** 
 1025              		.loc 1 274 5 view .LVU321
 1026 0024 FEE7     		b	.L79
 1027              		.cfi_endproc
 1028              	.LFE23:
 1030              		.section	.text.get_cb,"ax",%progbits
 1031              		.align	1
 1032              		.syntax unified
 1033              		.thumb
 1034              		.thumb_func
 1036              	get_cb:
 1037              	.LVL90:
 1038              	.LFB22:
 237:../../Middlewares/LVGL/GUI/lvgl/src/misc/cache/class/lv_cache_lru_ll.c ****     LV_UNUSED(user_data);
 1039              		.loc 1 237 1 view -0
 1040              		.cfi_startproc
 1041              		@ args = 0, pretend = 0, frame = 0
 1042              		@ frame_needed = 0, uses_anonymous_args = 0
 238:../../Middlewares/LVGL/GUI/lvgl/src/misc/cache/class/lv_cache_lru_ll.c **** 
 1043              		.loc 1 238 5 view .LVU323
 240:../../Middlewares/LVGL/GUI/lvgl/src/misc/cache/class/lv_cache_lru_ll.c **** 
 1044              		.loc 1 240 5 view .LVU324
 242:../../Middlewares/LVGL/GUI/lvgl/src/misc/cache/class/lv_cache_lru_ll.c ****     LV_ASSERT_NULL(key);
 1045              		.loc 1 242 5 view .LVU325
 242:../../Middlewares/LVGL/GUI/lvgl/src/misc/cache/class/lv_cache_lru_ll.c ****     LV_ASSERT_NULL(key);
 1046              		.loc 1 242 5 view .LVU326
ARM GAS  C:\Users\28576\AppData\Local\Temp\ccAY92po.s 			page 31


 1047 0000 A8B1     		cbz	r0, .L85
 237:../../Middlewares/LVGL/GUI/lvgl/src/misc/cache/class/lv_cache_lru_ll.c ****     LV_UNUSED(user_data);
 1048              		.loc 1 237 1 is_stmt 0 view .LVU327
 1049 0002 F8B5     		push	{r3, r4, r5, r6, r7, lr}
 1050              	.LCFI27:
 1051              		.cfi_def_cfa_offset 24
 1052              		.cfi_offset 3, -24
 1053              		.cfi_offset 4, -20
 1054              		.cfi_offset 5, -16
 1055              		.cfi_offset 6, -12
 1056              		.cfi_offset 7, -8
 1057              		.cfi_offset 14, -4
 1058 0004 0D46     		mov	r5, r1
 1059 0006 0646     		mov	r6, r0
 242:../../Middlewares/LVGL/GUI/lvgl/src/misc/cache/class/lv_cache_lru_ll.c ****     LV_ASSERT_NULL(key);
 1060              		.loc 1 242 5 is_stmt 1 view .LVU328
 242:../../Middlewares/LVGL/GUI/lvgl/src/misc/cache/class/lv_cache_lru_ll.c ****     LV_ASSERT_NULL(key);
 1061              		.loc 1 242 24 view .LVU329
 243:../../Middlewares/LVGL/GUI/lvgl/src/misc/cache/class/lv_cache_lru_ll.c **** 
 1062              		.loc 1 243 5 view .LVU330
 243:../../Middlewares/LVGL/GUI/lvgl/src/misc/cache/class/lv_cache_lru_ll.c **** 
 1063              		.loc 1 243 5 view .LVU331
 1064 0008 91B1     		cbz	r1, .L87
 243:../../Middlewares/LVGL/GUI/lvgl/src/misc/cache/class/lv_cache_lru_ll.c **** 
 1065              		.loc 1 243 5 view .LVU332
 243:../../Middlewares/LVGL/GUI/lvgl/src/misc/cache/class/lv_cache_lru_ll.c **** 
 1066              		.loc 1 243 24 view .LVU333
 245:../../Middlewares/LVGL/GUI/lvgl/src/misc/cache/class/lv_cache_lru_ll.c ****         return NULL;
 1067              		.loc 1 245 5 view .LVU334
 250:../../Middlewares/LVGL/GUI/lvgl/src/misc/cache/class/lv_cache_lru_ll.c ****     LV_LL_READ(&lru->ll, node) {
 1068              		.loc 1 250 5 view .LVU335
 1069              	.LVL91:
 251:../../Middlewares/LVGL/GUI/lvgl/src/misc/cache/class/lv_cache_lru_ll.c ****         if(lru->cache.ops.compare_cb(node, key) == 0) {
 1070              		.loc 1 251 5 view .LVU336
 1071 000a 00F12407 		add	r7, r0, #36
 1072 000e 3846     		mov	r0, r7
 1073              	.LVL92:
 251:../../Middlewares/LVGL/GUI/lvgl/src/misc/cache/class/lv_cache_lru_ll.c ****         if(lru->cache.ops.compare_cb(node, key) == 0) {
 1074              		.loc 1 251 5 is_stmt 0 view .LVU337
 1075 0010 FFF7FEFF 		bl	lv_ll_get_head
 1076              	.LVL93:
 251:../../Middlewares/LVGL/GUI/lvgl/src/misc/cache/class/lv_cache_lru_ll.c ****         if(lru->cache.ops.compare_cb(node, key) == 0) {
 1077              		.loc 1 251 5 view .LVU338
 1078 0014 0446     		mov	r4, r0
 1079              	.LVL94:
 1080              	.L88:
 251:../../Middlewares/LVGL/GUI/lvgl/src/misc/cache/class/lv_cache_lru_ll.c ****         if(lru->cache.ops.compare_cb(node, key) == 0) {
 1081              		.loc 1 251 5 is_stmt 1 discriminator 2 view .LVU339
 1082 0016 64B1     		cbz	r4, .L89
 252:../../Middlewares/LVGL/GUI/lvgl/src/misc/cache/class/lv_cache_lru_ll.c ****             break;
 1083              		.loc 1 252 9 view .LVU340
 252:../../Middlewares/LVGL/GUI/lvgl/src/misc/cache/class/lv_cache_lru_ll.c ****             break;
 1084              		.loc 1 252 26 is_stmt 0 view .LVU341
 1085 0018 3369     		ldr	r3, [r6, #16]
 252:../../Middlewares/LVGL/GUI/lvgl/src/misc/cache/class/lv_cache_lru_ll.c ****             break;
 1086              		.loc 1 252 12 view .LVU342
 1087 001a 2946     		mov	r1, r5
ARM GAS  C:\Users\28576\AppData\Local\Temp\ccAY92po.s 			page 32


 1088 001c 2046     		mov	r0, r4
 1089 001e 9847     		blx	r3
 1090              	.LVL95:
 252:../../Middlewares/LVGL/GUI/lvgl/src/misc/cache/class/lv_cache_lru_ll.c ****             break;
 1091              		.loc 1 252 11 discriminator 1 view .LVU343
 1092 0020 38B1     		cbz	r0, .L89
 251:../../Middlewares/LVGL/GUI/lvgl/src/misc/cache/class/lv_cache_lru_ll.c ****         if(lru->cache.ops.compare_cb(node, key) == 0) {
 1093              		.loc 1 251 5 is_stmt 1 discriminator 4 view .LVU344
 1094 0022 2146     		mov	r1, r4
 1095 0024 3846     		mov	r0, r7
 1096 0026 FFF7FEFF 		bl	lv_ll_get_next
 1097              	.LVL96:
 1098 002a 0446     		mov	r4, r0
 1099              	.LVL97:
 251:../../Middlewares/LVGL/GUI/lvgl/src/misc/cache/class/lv_cache_lru_ll.c ****         if(lru->cache.ops.compare_cb(node, key) == 0) {
 1100              		.loc 1 251 5 is_stmt 0 discriminator 4 view .LVU345
 1101 002c F3E7     		b	.L88
 1102              	.LVL98:
 1103              	.L85:
 1104              	.LCFI28:
 1105              		.cfi_def_cfa_offset 0
 1106              		.cfi_restore 3
 1107              		.cfi_restore 4
 1108              		.cfi_restore 5
 1109              		.cfi_restore 6
 1110              		.cfi_restore 7
 1111              		.cfi_restore 14
 242:../../Middlewares/LVGL/GUI/lvgl/src/misc/cache/class/lv_cache_lru_ll.c ****     LV_ASSERT_NULL(key);
 1112              		.loc 1 242 5 is_stmt 1 view .LVU346
 242:../../Middlewares/LVGL/GUI/lvgl/src/misc/cache/class/lv_cache_lru_ll.c ****     LV_ASSERT_NULL(key);
 1113              		.loc 1 242 5 view .LVU347
 242:../../Middlewares/LVGL/GUI/lvgl/src/misc/cache/class/lv_cache_lru_ll.c ****     LV_ASSERT_NULL(key);
 1114              		.loc 1 242 5 view .LVU348
 242:../../Middlewares/LVGL/GUI/lvgl/src/misc/cache/class/lv_cache_lru_ll.c ****     LV_ASSERT_NULL(key);
 1115              		.loc 1 242 5 view .LVU349
 242:../../Middlewares/LVGL/GUI/lvgl/src/misc/cache/class/lv_cache_lru_ll.c ****     LV_ASSERT_NULL(key);
 1116              		.loc 1 242 5 view .LVU350
 1117 002e FEE7     		b	.L85
 1118              	.L87:
 1119              	.LCFI29:
 1120              		.cfi_def_cfa_offset 24
 1121              		.cfi_offset 3, -24
 1122              		.cfi_offset 4, -20
 1123              		.cfi_offset 5, -16
 1124              		.cfi_offset 6, -12
 1125              		.cfi_offset 7, -8
 1126              		.cfi_offset 14, -4
 243:../../Middlewares/LVGL/GUI/lvgl/src/misc/cache/class/lv_cache_lru_ll.c **** 
 1127              		.loc 1 243 5 view .LVU351
 243:../../Middlewares/LVGL/GUI/lvgl/src/misc/cache/class/lv_cache_lru_ll.c **** 
 1128              		.loc 1 243 5 view .LVU352
 243:../../Middlewares/LVGL/GUI/lvgl/src/misc/cache/class/lv_cache_lru_ll.c **** 
 1129              		.loc 1 243 5 view .LVU353
 243:../../Middlewares/LVGL/GUI/lvgl/src/misc/cache/class/lv_cache_lru_ll.c **** 
 1130              		.loc 1 243 5 view .LVU354
 243:../../Middlewares/LVGL/GUI/lvgl/src/misc/cache/class/lv_cache_lru_ll.c **** 
 1131              		.loc 1 243 5 view .LVU355
ARM GAS  C:\Users\28576\AppData\Local\Temp\ccAY92po.s 			page 33


 1132 0030 FEE7     		b	.L87
 1133              	.LVL99:
 1134              	.L89:
 257:../../Middlewares/LVGL/GUI/lvgl/src/misc/cache/class/lv_cache_lru_ll.c ****         void * head = lv_ll_get_head(&lru->ll);
 1135              		.loc 1 257 5 view .LVU356
 257:../../Middlewares/LVGL/GUI/lvgl/src/misc/cache/class/lv_cache_lru_ll.c ****         void * head = lv_ll_get_head(&lru->ll);
 1136              		.loc 1 257 7 is_stmt 0 view .LVU357
 1137 0032 64B1     		cbz	r4, .L83
 1138              	.LBB7:
 258:../../Middlewares/LVGL/GUI/lvgl/src/misc/cache/class/lv_cache_lru_ll.c ****         lv_ll_move_before(&lru->ll, node, head);
 1139              		.loc 1 258 9 is_stmt 1 view .LVU358
 258:../../Middlewares/LVGL/GUI/lvgl/src/misc/cache/class/lv_cache_lru_ll.c ****         lv_ll_move_before(&lru->ll, node, head);
 1140              		.loc 1 258 23 is_stmt 0 view .LVU359
 1141 0034 3846     		mov	r0, r7
 1142 0036 FFF7FEFF 		bl	lv_ll_get_head
 1143              	.LVL100:
 1144 003a 0246     		mov	r2, r0
 1145              	.LVL101:
 259:../../Middlewares/LVGL/GUI/lvgl/src/misc/cache/class/lv_cache_lru_ll.c **** 
 1146              		.loc 1 259 9 is_stmt 1 view .LVU360
 1147 003c 2146     		mov	r1, r4
 1148 003e 3846     		mov	r0, r7
 1149              	.LVL102:
 259:../../Middlewares/LVGL/GUI/lvgl/src/misc/cache/class/lv_cache_lru_ll.c **** 
 1150              		.loc 1 259 9 is_stmt 0 view .LVU361
 1151 0040 FFF7FEFF 		bl	lv_ll_move_before
 1152              	.LVL103:
 261:../../Middlewares/LVGL/GUI/lvgl/src/misc/cache/class/lv_cache_lru_ll.c ****         return entry;
 1153              		.loc 1 261 9 is_stmt 1 view .LVU362
 261:../../Middlewares/LVGL/GUI/lvgl/src/misc/cache/class/lv_cache_lru_ll.c ****         return entry;
 1154              		.loc 1 261 36 is_stmt 0 view .LVU363
 1155 0044 7168     		ldr	r1, [r6, #4]
 1156 0046 2046     		mov	r0, r4
 1157 0048 FFF7FEFF 		bl	lv_cache_entry_get_entry
 1158              	.LVL104:
 1159 004c 0446     		mov	r4, r0
 1160              	.LVL105:
 262:../../Middlewares/LVGL/GUI/lvgl/src/misc/cache/class/lv_cache_lru_ll.c ****     }
 1161              		.loc 1 262 9 is_stmt 1 view .LVU364
 1162              	.L83:
 262:../../Middlewares/LVGL/GUI/lvgl/src/misc/cache/class/lv_cache_lru_ll.c ****     }
 1163              		.loc 1 262 9 is_stmt 0 view .LVU365
 1164              	.LBE7:
 265:../../Middlewares/LVGL/GUI/lvgl/src/misc/cache/class/lv_cache_lru_ll.c **** 
 1165              		.loc 1 265 1 view .LVU366
 1166 004e 2046     		mov	r0, r4
 1167 0050 F8BD     		pop	{r3, r4, r5, r6, r7, pc}
 265:../../Middlewares/LVGL/GUI/lvgl/src/misc/cache/class/lv_cache_lru_ll.c **** 
 1168              		.loc 1 265 1 view .LVU367
 1169              		.cfi_endproc
 1170              	.LFE22:
 1172              		.section	.text.init_cnt_cb,"ax",%progbits
 1173              		.align	1
 1174              		.syntax unified
 1175              		.thumb
 1176              		.thumb_func
 1178              	init_cnt_cb:
ARM GAS  C:\Users\28576\AppData\Local\Temp\ccAY92po.s 			page 34


 1179              	.LVL106:
 1180              	.LFB19:
 185:../../Middlewares/LVGL/GUI/lvgl/src/misc/cache/class/lv_cache_lru_ll.c ****     lv_cache_lru_ll_t * lru = (lv_cache_lru_ll_t *)cache;
 1181              		.loc 1 185 1 is_stmt 1 view -0
 1182              		.cfi_startproc
 1183              		@ args = 0, pretend = 0, frame = 0
 1184              		@ frame_needed = 0, uses_anonymous_args = 0
 186:../../Middlewares/LVGL/GUI/lvgl/src/misc/cache/class/lv_cache_lru_ll.c **** 
 1185              		.loc 1 186 5 view .LVU369
 188:../../Middlewares/LVGL/GUI/lvgl/src/misc/cache/class/lv_cache_lru_ll.c ****     LV_ASSERT_NULL(lru->cache.ops.free_cb);
 1186              		.loc 1 188 5 view .LVU370
 188:../../Middlewares/LVGL/GUI/lvgl/src/misc/cache/class/lv_cache_lru_ll.c ****     LV_ASSERT_NULL(lru->cache.ops.free_cb);
 1187              		.loc 1 188 5 view .LVU371
 1188 0000 0369     		ldr	r3, [r0, #16]
 1189 0002 33B1     		cbz	r3, .L96
 185:../../Middlewares/LVGL/GUI/lvgl/src/misc/cache/class/lv_cache_lru_ll.c ****     lv_cache_lru_ll_t * lru = (lv_cache_lru_ll_t *)cache;
 1190              		.loc 1 185 1 is_stmt 0 view .LVU372
 1191 0004 10B5     		push	{r4, lr}
 1192              	.LCFI30:
 1193              		.cfi_def_cfa_offset 8
 1194              		.cfi_offset 4, -8
 1195              		.cfi_offset 14, -4
 1196 0006 0446     		mov	r4, r0
 188:../../Middlewares/LVGL/GUI/lvgl/src/misc/cache/class/lv_cache_lru_ll.c ****     LV_ASSERT_NULL(lru->cache.ops.free_cb);
 1197              		.loc 1 188 5 is_stmt 1 view .LVU373
 188:../../Middlewares/LVGL/GUI/lvgl/src/misc/cache/class/lv_cache_lru_ll.c ****     LV_ASSERT_NULL(lru->cache.ops.free_cb);
 1198              		.loc 1 188 46 view .LVU374
 189:../../Middlewares/LVGL/GUI/lvgl/src/misc/cache/class/lv_cache_lru_ll.c ****     LV_ASSERT(lru->cache.node_size > 0);
 1199              		.loc 1 189 5 view .LVU375
 189:../../Middlewares/LVGL/GUI/lvgl/src/misc/cache/class/lv_cache_lru_ll.c ****     LV_ASSERT(lru->cache.node_size > 0);
 1200              		.loc 1 189 5 view .LVU376
 1201 0008 8369     		ldr	r3, [r0, #24]
 1202 000a 1BB1     		cbz	r3, .L98
 189:../../Middlewares/LVGL/GUI/lvgl/src/misc/cache/class/lv_cache_lru_ll.c ****     LV_ASSERT(lru->cache.node_size > 0);
 1203              		.loc 1 189 5 view .LVU377
 189:../../Middlewares/LVGL/GUI/lvgl/src/misc/cache/class/lv_cache_lru_ll.c ****     LV_ASSERT(lru->cache.node_size > 0);
 1204              		.loc 1 189 43 view .LVU378
 190:../../Middlewares/LVGL/GUI/lvgl/src/misc/cache/class/lv_cache_lru_ll.c **** 
 1205              		.loc 1 190 5 view .LVU379
 190:../../Middlewares/LVGL/GUI/lvgl/src/misc/cache/class/lv_cache_lru_ll.c **** 
 1206              		.loc 1 190 5 view .LVU380
 1207 000c 4068     		ldr	r0, [r0, #4]
 1208              	.LVL107:
 190:../../Middlewares/LVGL/GUI/lvgl/src/misc/cache/class/lv_cache_lru_ll.c **** 
 1209              		.loc 1 190 5 is_stmt 0 view .LVU381
 1210 000e 10B9     		cbnz	r0, .L99
 1211              	.L100:
 190:../../Middlewares/LVGL/GUI/lvgl/src/misc/cache/class/lv_cache_lru_ll.c **** 
 1212              		.loc 1 190 5 is_stmt 1 view .LVU382
 190:../../Middlewares/LVGL/GUI/lvgl/src/misc/cache/class/lv_cache_lru_ll.c **** 
 1213              		.loc 1 190 5 view .LVU383
 190:../../Middlewares/LVGL/GUI/lvgl/src/misc/cache/class/lv_cache_lru_ll.c **** 
 1214              		.loc 1 190 5 view .LVU384
 190:../../Middlewares/LVGL/GUI/lvgl/src/misc/cache/class/lv_cache_lru_ll.c **** 
 1215              		.loc 1 190 5 view .LVU385
 190:../../Middlewares/LVGL/GUI/lvgl/src/misc/cache/class/lv_cache_lru_ll.c **** 
 1216              		.loc 1 190 5 view .LVU386
ARM GAS  C:\Users\28576\AppData\Local\Temp\ccAY92po.s 			page 35


 1217 0010 FEE7     		b	.L100
 1218              	.LVL108:
 1219              	.L96:
 1220              	.LCFI31:
 1221              		.cfi_def_cfa_offset 0
 1222              		.cfi_restore 4
 1223              		.cfi_restore 14
 188:../../Middlewares/LVGL/GUI/lvgl/src/misc/cache/class/lv_cache_lru_ll.c ****     LV_ASSERT_NULL(lru->cache.ops.free_cb);
 1224              		.loc 1 188 5 view .LVU387
 188:../../Middlewares/LVGL/GUI/lvgl/src/misc/cache/class/lv_cache_lru_ll.c ****     LV_ASSERT_NULL(lru->cache.ops.free_cb);
 1225              		.loc 1 188 5 view .LVU388
 188:../../Middlewares/LVGL/GUI/lvgl/src/misc/cache/class/lv_cache_lru_ll.c ****     LV_ASSERT_NULL(lru->cache.ops.free_cb);
 1226              		.loc 1 188 5 view .LVU389
 188:../../Middlewares/LVGL/GUI/lvgl/src/misc/cache/class/lv_cache_lru_ll.c ****     LV_ASSERT_NULL(lru->cache.ops.free_cb);
 1227              		.loc 1 188 5 view .LVU390
 188:../../Middlewares/LVGL/GUI/lvgl/src/misc/cache/class/lv_cache_lru_ll.c ****     LV_ASSERT_NULL(lru->cache.ops.free_cb);
 1228              		.loc 1 188 5 view .LVU391
 1229 0012 FEE7     		b	.L96
 1230              	.L98:
 1231              	.LCFI32:
 1232              		.cfi_def_cfa_offset 8
 1233              		.cfi_offset 4, -8
 1234              		.cfi_offset 14, -4
 189:../../Middlewares/LVGL/GUI/lvgl/src/misc/cache/class/lv_cache_lru_ll.c ****     LV_ASSERT(lru->cache.node_size > 0);
 1235              		.loc 1 189 5 view .LVU392
 189:../../Middlewares/LVGL/GUI/lvgl/src/misc/cache/class/lv_cache_lru_ll.c ****     LV_ASSERT(lru->cache.node_size > 0);
 1236              		.loc 1 189 5 view .LVU393
 189:../../Middlewares/LVGL/GUI/lvgl/src/misc/cache/class/lv_cache_lru_ll.c ****     LV_ASSERT(lru->cache.node_size > 0);
 1237              		.loc 1 189 5 view .LVU394
 189:../../Middlewares/LVGL/GUI/lvgl/src/misc/cache/class/lv_cache_lru_ll.c ****     LV_ASSERT(lru->cache.node_size > 0);
 1238              		.loc 1 189 5 view .LVU395
 189:../../Middlewares/LVGL/GUI/lvgl/src/misc/cache/class/lv_cache_lru_ll.c ****     LV_ASSERT(lru->cache.node_size > 0);
 1239              		.loc 1 189 5 view .LVU396
 1240 0014 FEE7     		b	.L98
 1241              	.LVL109:
 1242              	.L99:
 190:../../Middlewares/LVGL/GUI/lvgl/src/misc/cache/class/lv_cache_lru_ll.c **** 
 1243              		.loc 1 190 5 view .LVU397
 192:../../Middlewares/LVGL/GUI/lvgl/src/misc/cache/class/lv_cache_lru_ll.c ****         return false;
 1244              		.loc 1 192 5 view .LVU398
 196:../../Middlewares/LVGL/GUI/lvgl/src/misc/cache/class/lv_cache_lru_ll.c ****     lru->get_data_size_cb = cnt_get_data_size_cb;
 1245              		.loc 1 196 5 view .LVU399
 1246 0016 FFF7FEFF 		bl	lv_cache_entry_get_size
 1247              	.LVL110:
 1248 001a 0146     		mov	r1, r0
 196:../../Middlewares/LVGL/GUI/lvgl/src/misc/cache/class/lv_cache_lru_ll.c ****     lru->get_data_size_cb = cnt_get_data_size_cb;
 1249              		.loc 1 196 5 is_stmt 0 discriminator 1 view .LVU400
 1250 001c 04F12400 		add	r0, r4, #36
 1251 0020 FFF7FEFF 		bl	lv_ll_init
 1252              	.LVL111:
 197:../../Middlewares/LVGL/GUI/lvgl/src/misc/cache/class/lv_cache_lru_ll.c **** 
 1253              		.loc 1 197 5 is_stmt 1 view .LVU401
 197:../../Middlewares/LVGL/GUI/lvgl/src/misc/cache/class/lv_cache_lru_ll.c **** 
 1254              		.loc 1 197 27 is_stmt 0 view .LVU402
 1255 0024 014B     		ldr	r3, .L103
 1256 0026 2363     		str	r3, [r4, #48]
 199:../../Middlewares/LVGL/GUI/lvgl/src/misc/cache/class/lv_cache_lru_ll.c **** }
ARM GAS  C:\Users\28576\AppData\Local\Temp\ccAY92po.s 			page 36


 1257              		.loc 1 199 5 is_stmt 1 view .LVU403
 200:../../Middlewares/LVGL/GUI/lvgl/src/misc/cache/class/lv_cache_lru_ll.c **** 
 1258              		.loc 1 200 1 is_stmt 0 view .LVU404
 1259 0028 0120     		movs	r0, #1
 1260 002a 10BD     		pop	{r4, pc}
 1261              	.LVL112:
 1262              	.L104:
 200:../../Middlewares/LVGL/GUI/lvgl/src/misc/cache/class/lv_cache_lru_ll.c **** 
 1263              		.loc 1 200 1 view .LVU405
 1264              		.align	2
 1265              	.L103:
 1266 002c 00000000 		.word	cnt_get_data_size_cb
 1267              		.cfi_endproc
 1268              	.LFE19:
 1270              		.section	.text.init_size_cb,"ax",%progbits
 1271              		.align	1
 1272              		.syntax unified
 1273              		.thumb
 1274              		.thumb_func
 1276              	init_size_cb:
 1277              	.LVL113:
 1278              	.LFB20:
 203:../../Middlewares/LVGL/GUI/lvgl/src/misc/cache/class/lv_cache_lru_ll.c ****     lv_cache_lru_ll_t * lru = (lv_cache_lru_ll_t *)cache;
 1279              		.loc 1 203 1 is_stmt 1 view -0
 1280              		.cfi_startproc
 1281              		@ args = 0, pretend = 0, frame = 0
 1282              		@ frame_needed = 0, uses_anonymous_args = 0
 204:../../Middlewares/LVGL/GUI/lvgl/src/misc/cache/class/lv_cache_lru_ll.c **** 
 1283              		.loc 1 204 5 view .LVU407
 206:../../Middlewares/LVGL/GUI/lvgl/src/misc/cache/class/lv_cache_lru_ll.c ****     LV_ASSERT_NULL(lru->cache.ops.free_cb);
 1284              		.loc 1 206 5 view .LVU408
 206:../../Middlewares/LVGL/GUI/lvgl/src/misc/cache/class/lv_cache_lru_ll.c ****     LV_ASSERT_NULL(lru->cache.ops.free_cb);
 1285              		.loc 1 206 5 view .LVU409
 1286 0000 0369     		ldr	r3, [r0, #16]
 1287 0002 33B1     		cbz	r3, .L107
 203:../../Middlewares/LVGL/GUI/lvgl/src/misc/cache/class/lv_cache_lru_ll.c ****     lv_cache_lru_ll_t * lru = (lv_cache_lru_ll_t *)cache;
 1288              		.loc 1 203 1 is_stmt 0 view .LVU410
 1289 0004 10B5     		push	{r4, lr}
 1290              	.LCFI33:
 1291              		.cfi_def_cfa_offset 8
 1292              		.cfi_offset 4, -8
 1293              		.cfi_offset 14, -4
 1294 0006 0446     		mov	r4, r0
 206:../../Middlewares/LVGL/GUI/lvgl/src/misc/cache/class/lv_cache_lru_ll.c ****     LV_ASSERT_NULL(lru->cache.ops.free_cb);
 1295              		.loc 1 206 5 is_stmt 1 view .LVU411
 206:../../Middlewares/LVGL/GUI/lvgl/src/misc/cache/class/lv_cache_lru_ll.c ****     LV_ASSERT_NULL(lru->cache.ops.free_cb);
 1296              		.loc 1 206 46 view .LVU412
 207:../../Middlewares/LVGL/GUI/lvgl/src/misc/cache/class/lv_cache_lru_ll.c ****     LV_ASSERT(lru->cache.node_size > 0);
 1297              		.loc 1 207 5 view .LVU413
 207:../../Middlewares/LVGL/GUI/lvgl/src/misc/cache/class/lv_cache_lru_ll.c ****     LV_ASSERT(lru->cache.node_size > 0);
 1298              		.loc 1 207 5 view .LVU414
 1299 0008 8369     		ldr	r3, [r0, #24]
 1300 000a 1BB1     		cbz	r3, .L109
 207:../../Middlewares/LVGL/GUI/lvgl/src/misc/cache/class/lv_cache_lru_ll.c ****     LV_ASSERT(lru->cache.node_size > 0);
 1301              		.loc 1 207 5 view .LVU415
 207:../../Middlewares/LVGL/GUI/lvgl/src/misc/cache/class/lv_cache_lru_ll.c ****     LV_ASSERT(lru->cache.node_size > 0);
 1302              		.loc 1 207 43 view .LVU416
ARM GAS  C:\Users\28576\AppData\Local\Temp\ccAY92po.s 			page 37


 208:../../Middlewares/LVGL/GUI/lvgl/src/misc/cache/class/lv_cache_lru_ll.c **** 
 1303              		.loc 1 208 5 view .LVU417
 208:../../Middlewares/LVGL/GUI/lvgl/src/misc/cache/class/lv_cache_lru_ll.c **** 
 1304              		.loc 1 208 5 view .LVU418
 1305 000c 4068     		ldr	r0, [r0, #4]
 1306              	.LVL114:
 208:../../Middlewares/LVGL/GUI/lvgl/src/misc/cache/class/lv_cache_lru_ll.c **** 
 1307              		.loc 1 208 5 is_stmt 0 view .LVU419
 1308 000e 10B9     		cbnz	r0, .L110
 1309              	.L111:
 208:../../Middlewares/LVGL/GUI/lvgl/src/misc/cache/class/lv_cache_lru_ll.c **** 
 1310              		.loc 1 208 5 is_stmt 1 view .LVU420
 208:../../Middlewares/LVGL/GUI/lvgl/src/misc/cache/class/lv_cache_lru_ll.c **** 
 1311              		.loc 1 208 5 view .LVU421
 208:../../Middlewares/LVGL/GUI/lvgl/src/misc/cache/class/lv_cache_lru_ll.c **** 
 1312              		.loc 1 208 5 view .LVU422
 208:../../Middlewares/LVGL/GUI/lvgl/src/misc/cache/class/lv_cache_lru_ll.c **** 
 1313              		.loc 1 208 5 view .LVU423
 208:../../Middlewares/LVGL/GUI/lvgl/src/misc/cache/class/lv_cache_lru_ll.c **** 
 1314              		.loc 1 208 5 view .LVU424
 1315 0010 FEE7     		b	.L111
 1316              	.LVL115:
 1317              	.L107:
 1318              	.LCFI34:
 1319              		.cfi_def_cfa_offset 0
 1320              		.cfi_restore 4
 1321              		.cfi_restore 14
 206:../../Middlewares/LVGL/GUI/lvgl/src/misc/cache/class/lv_cache_lru_ll.c ****     LV_ASSERT_NULL(lru->cache.ops.free_cb);
 1322              		.loc 1 206 5 view .LVU425
 206:../../Middlewares/LVGL/GUI/lvgl/src/misc/cache/class/lv_cache_lru_ll.c ****     LV_ASSERT_NULL(lru->cache.ops.free_cb);
 1323              		.loc 1 206 5 view .LVU426
 206:../../Middlewares/LVGL/GUI/lvgl/src/misc/cache/class/lv_cache_lru_ll.c ****     LV_ASSERT_NULL(lru->cache.ops.free_cb);
 1324              		.loc 1 206 5 view .LVU427
 206:../../Middlewares/LVGL/GUI/lvgl/src/misc/cache/class/lv_cache_lru_ll.c ****     LV_ASSERT_NULL(lru->cache.ops.free_cb);
 1325              		.loc 1 206 5 view .LVU428
 206:../../Middlewares/LVGL/GUI/lvgl/src/misc/cache/class/lv_cache_lru_ll.c ****     LV_ASSERT_NULL(lru->cache.ops.free_cb);
 1326              		.loc 1 206 5 view .LVU429
 1327 0012 FEE7     		b	.L107
 1328              	.L109:
 1329              	.LCFI35:
 1330              		.cfi_def_cfa_offset 8
 1331              		.cfi_offset 4, -8
 1332              		.cfi_offset 14, -4
 207:../../Middlewares/LVGL/GUI/lvgl/src/misc/cache/class/lv_cache_lru_ll.c ****     LV_ASSERT(lru->cache.node_size > 0);
 1333              		.loc 1 207 5 view .LVU430
 207:../../Middlewares/LVGL/GUI/lvgl/src/misc/cache/class/lv_cache_lru_ll.c ****     LV_ASSERT(lru->cache.node_size > 0);
 1334              		.loc 1 207 5 view .LVU431
 207:../../Middlewares/LVGL/GUI/lvgl/src/misc/cache/class/lv_cache_lru_ll.c ****     LV_ASSERT(lru->cache.node_size > 0);
 1335              		.loc 1 207 5 view .LVU432
 207:../../Middlewares/LVGL/GUI/lvgl/src/misc/cache/class/lv_cache_lru_ll.c ****     LV_ASSERT(lru->cache.node_size > 0);
 1336              		.loc 1 207 5 view .LVU433
 207:../../Middlewares/LVGL/GUI/lvgl/src/misc/cache/class/lv_cache_lru_ll.c ****     LV_ASSERT(lru->cache.node_size > 0);
 1337              		.loc 1 207 5 view .LVU434
 1338 0014 FEE7     		b	.L109
 1339              	.LVL116:
 1340              	.L110:
 208:../../Middlewares/LVGL/GUI/lvgl/src/misc/cache/class/lv_cache_lru_ll.c **** 
ARM GAS  C:\Users\28576\AppData\Local\Temp\ccAY92po.s 			page 38


 1341              		.loc 1 208 5 view .LVU435
 210:../../Middlewares/LVGL/GUI/lvgl/src/misc/cache/class/lv_cache_lru_ll.c ****         return false;
 1342              		.loc 1 210 5 view .LVU436
 214:../../Middlewares/LVGL/GUI/lvgl/src/misc/cache/class/lv_cache_lru_ll.c ****     lru->get_data_size_cb = size_get_data_size_cb;
 1343              		.loc 1 214 5 view .LVU437
 1344 0016 FFF7FEFF 		bl	lv_cache_entry_get_size
 1345              	.LVL117:
 1346 001a 0146     		mov	r1, r0
 214:../../Middlewares/LVGL/GUI/lvgl/src/misc/cache/class/lv_cache_lru_ll.c ****     lru->get_data_size_cb = size_get_data_size_cb;
 1347              		.loc 1 214 5 is_stmt 0 discriminator 1 view .LVU438
 1348 001c 04F12400 		add	r0, r4, #36
 1349 0020 FFF7FEFF 		bl	lv_ll_init
 1350              	.LVL118:
 215:../../Middlewares/LVGL/GUI/lvgl/src/misc/cache/class/lv_cache_lru_ll.c **** 
 1351              		.loc 1 215 5 is_stmt 1 view .LVU439
 215:../../Middlewares/LVGL/GUI/lvgl/src/misc/cache/class/lv_cache_lru_ll.c **** 
 1352              		.loc 1 215 27 is_stmt 0 view .LVU440
 1353 0024 014B     		ldr	r3, .L114
 1354 0026 2363     		str	r3, [r4, #48]
 217:../../Middlewares/LVGL/GUI/lvgl/src/misc/cache/class/lv_cache_lru_ll.c **** }
 1355              		.loc 1 217 5 is_stmt 1 view .LVU441
 218:../../Middlewares/LVGL/GUI/lvgl/src/misc/cache/class/lv_cache_lru_ll.c **** 
 1356              		.loc 1 218 1 is_stmt 0 view .LVU442
 1357 0028 0120     		movs	r0, #1
 1358 002a 10BD     		pop	{r4, pc}
 1359              	.LVL119:
 1360              	.L115:
 218:../../Middlewares/LVGL/GUI/lvgl/src/misc/cache/class/lv_cache_lru_ll.c **** 
 1361              		.loc 1 218 1 view .LVU443
 1362              		.align	2
 1363              	.L114:
 1364 002c 00000000 		.word	size_get_data_size_cb
 1365              		.cfi_endproc
 1366              	.LFE20:
 1368              		.section	.text.alloc_cb,"ax",%progbits
 1369              		.align	1
 1370              		.syntax unified
 1371              		.thumb
 1372              		.thumb_func
 1374              	alloc_cb:
 1375              	.LFB18:
 172:../../Middlewares/LVGL/GUI/lvgl/src/misc/cache/class/lv_cache_lru_ll.c ****     void * res = lv_malloc(sizeof(lv_cache_lru_ll_t));
 1376              		.loc 1 172 1 is_stmt 1 view -0
 1377              		.cfi_startproc
 1378              		@ args = 0, pretend = 0, frame = 0
 1379              		@ frame_needed = 0, uses_anonymous_args = 0
 1380 0000 10B5     		push	{r4, lr}
 1381              	.LCFI36:
 1382              		.cfi_def_cfa_offset 8
 1383              		.cfi_offset 4, -8
 1384              		.cfi_offset 14, -4
 173:../../Middlewares/LVGL/GUI/lvgl/src/misc/cache/class/lv_cache_lru_ll.c ****     LV_ASSERT_MALLOC(res);
 1385              		.loc 1 173 5 view .LVU445
 173:../../Middlewares/LVGL/GUI/lvgl/src/misc/cache/class/lv_cache_lru_ll.c ****     LV_ASSERT_MALLOC(res);
 1386              		.loc 1 173 18 is_stmt 0 view .LVU446
 1387 0002 3420     		movs	r0, #52
 1388 0004 FFF7FEFF 		bl	lv_malloc
ARM GAS  C:\Users\28576\AppData\Local\Temp\ccAY92po.s 			page 39


 1389              	.LVL120:
 174:../../Middlewares/LVGL/GUI/lvgl/src/misc/cache/class/lv_cache_lru_ll.c ****     if(res == NULL) {
 1390              		.loc 1 174 5 is_stmt 1 view .LVU447
 174:../../Middlewares/LVGL/GUI/lvgl/src/misc/cache/class/lv_cache_lru_ll.c ****     if(res == NULL) {
 1391              		.loc 1 174 5 view .LVU448
 1392 0008 30B1     		cbz	r0, .L118
 174:../../Middlewares/LVGL/GUI/lvgl/src/misc/cache/class/lv_cache_lru_ll.c ****     if(res == NULL) {
 1393              		.loc 1 174 5 view .LVU449
 174:../../Middlewares/LVGL/GUI/lvgl/src/misc/cache/class/lv_cache_lru_ll.c ****     if(res == NULL) {
 1394              		.loc 1 174 26 view .LVU450
 175:../../Middlewares/LVGL/GUI/lvgl/src/misc/cache/class/lv_cache_lru_ll.c ****         LV_LOG_ERROR("malloc failed");
 1395              		.loc 1 175 5 view .LVU451
 180:../../Middlewares/LVGL/GUI/lvgl/src/misc/cache/class/lv_cache_lru_ll.c ****     return res;
 1396              		.loc 1 180 5 view .LVU452
 1397              	.LVL121:
 1398              	.LBB8:
 1399              	.LBI8:
 1400              		.file 2 "H:/STM32H7/RGB_LVGL/Middlewares/LVGL/GUI/lvgl/src/stdlib/lv_string.h"
   1:H:/STM32H7/RGB_LVGL/Middlewares/LVGL/GUI/lvgl/src/stdlib\lv_string.h **** /**
   2:H:/STM32H7/RGB_LVGL/Middlewares/LVGL/GUI/lvgl/src/stdlib\lv_string.h ****  * @file lv_string.h
   3:H:/STM32H7/RGB_LVGL/Middlewares/LVGL/GUI/lvgl/src/stdlib\lv_string.h ****  *
   4:H:/STM32H7/RGB_LVGL/Middlewares/LVGL/GUI/lvgl/src/stdlib\lv_string.h ****  */
   5:H:/STM32H7/RGB_LVGL/Middlewares/LVGL/GUI/lvgl/src/stdlib\lv_string.h **** 
   6:H:/STM32H7/RGB_LVGL/Middlewares/LVGL/GUI/lvgl/src/stdlib\lv_string.h **** #ifndef LV_STRING_H
   7:H:/STM32H7/RGB_LVGL/Middlewares/LVGL/GUI/lvgl/src/stdlib\lv_string.h **** #define LV_STRING_H
   8:H:/STM32H7/RGB_LVGL/Middlewares/LVGL/GUI/lvgl/src/stdlib\lv_string.h **** 
   9:H:/STM32H7/RGB_LVGL/Middlewares/LVGL/GUI/lvgl/src/stdlib\lv_string.h **** #ifdef __cplusplus
  10:H:/STM32H7/RGB_LVGL/Middlewares/LVGL/GUI/lvgl/src/stdlib\lv_string.h **** extern "C" {
  11:H:/STM32H7/RGB_LVGL/Middlewares/LVGL/GUI/lvgl/src/stdlib\lv_string.h **** #endif
  12:H:/STM32H7/RGB_LVGL/Middlewares/LVGL/GUI/lvgl/src/stdlib\lv_string.h **** 
  13:H:/STM32H7/RGB_LVGL/Middlewares/LVGL/GUI/lvgl/src/stdlib\lv_string.h **** /*********************
  14:H:/STM32H7/RGB_LVGL/Middlewares/LVGL/GUI/lvgl/src/stdlib\lv_string.h ****  *      INCLUDES
  15:H:/STM32H7/RGB_LVGL/Middlewares/LVGL/GUI/lvgl/src/stdlib\lv_string.h ****  *********************/
  16:H:/STM32H7/RGB_LVGL/Middlewares/LVGL/GUI/lvgl/src/stdlib\lv_string.h **** #include "../lv_conf_internal.h"
  17:H:/STM32H7/RGB_LVGL/Middlewares/LVGL/GUI/lvgl/src/stdlib\lv_string.h **** #include "../misc/lv_types.h"
  18:H:/STM32H7/RGB_LVGL/Middlewares/LVGL/GUI/lvgl/src/stdlib\lv_string.h **** 
  19:H:/STM32H7/RGB_LVGL/Middlewares/LVGL/GUI/lvgl/src/stdlib\lv_string.h **** /*********************
  20:H:/STM32H7/RGB_LVGL/Middlewares/LVGL/GUI/lvgl/src/stdlib\lv_string.h ****  *      DEFINES
  21:H:/STM32H7/RGB_LVGL/Middlewares/LVGL/GUI/lvgl/src/stdlib\lv_string.h ****  *********************/
  22:H:/STM32H7/RGB_LVGL/Middlewares/LVGL/GUI/lvgl/src/stdlib\lv_string.h **** 
  23:H:/STM32H7/RGB_LVGL/Middlewares/LVGL/GUI/lvgl/src/stdlib\lv_string.h **** /**********************
  24:H:/STM32H7/RGB_LVGL/Middlewares/LVGL/GUI/lvgl/src/stdlib\lv_string.h ****  *      TYPEDEFS
  25:H:/STM32H7/RGB_LVGL/Middlewares/LVGL/GUI/lvgl/src/stdlib\lv_string.h ****  **********************/
  26:H:/STM32H7/RGB_LVGL/Middlewares/LVGL/GUI/lvgl/src/stdlib\lv_string.h **** 
  27:H:/STM32H7/RGB_LVGL/Middlewares/LVGL/GUI/lvgl/src/stdlib\lv_string.h **** /**********************
  28:H:/STM32H7/RGB_LVGL/Middlewares/LVGL/GUI/lvgl/src/stdlib\lv_string.h ****  * GLOBAL PROTOTYPES
  29:H:/STM32H7/RGB_LVGL/Middlewares/LVGL/GUI/lvgl/src/stdlib\lv_string.h ****  **********************/
  30:H:/STM32H7/RGB_LVGL/Middlewares/LVGL/GUI/lvgl/src/stdlib\lv_string.h **** 
  31:H:/STM32H7/RGB_LVGL/Middlewares/LVGL/GUI/lvgl/src/stdlib\lv_string.h **** /**
  32:H:/STM32H7/RGB_LVGL/Middlewares/LVGL/GUI/lvgl/src/stdlib\lv_string.h ****  * @brief Copies a block of memory from a source address to a destination address.
  33:H:/STM32H7/RGB_LVGL/Middlewares/LVGL/GUI/lvgl/src/stdlib\lv_string.h ****  * @param dst Pointer to the destination array where the content is to be copied.
  34:H:/STM32H7/RGB_LVGL/Middlewares/LVGL/GUI/lvgl/src/stdlib\lv_string.h ****  * @param src Pointer to the source of data to be copied.
  35:H:/STM32H7/RGB_LVGL/Middlewares/LVGL/GUI/lvgl/src/stdlib\lv_string.h ****  * @param len Number of bytes to copy.
  36:H:/STM32H7/RGB_LVGL/Middlewares/LVGL/GUI/lvgl/src/stdlib\lv_string.h ****  * @return Pointer to the destination array.
  37:H:/STM32H7/RGB_LVGL/Middlewares/LVGL/GUI/lvgl/src/stdlib\lv_string.h ****  * @note The function does not check for any overlapping of the source and destination memory block
  38:H:/STM32H7/RGB_LVGL/Middlewares/LVGL/GUI/lvgl/src/stdlib\lv_string.h ****  */
  39:H:/STM32H7/RGB_LVGL/Middlewares/LVGL/GUI/lvgl/src/stdlib\lv_string.h **** void * lv_memcpy(void * dst, const void * src, size_t len);
ARM GAS  C:\Users\28576\AppData\Local\Temp\ccAY92po.s 			page 40


  40:H:/STM32H7/RGB_LVGL/Middlewares/LVGL/GUI/lvgl/src/stdlib\lv_string.h **** 
  41:H:/STM32H7/RGB_LVGL/Middlewares/LVGL/GUI/lvgl/src/stdlib\lv_string.h **** /**
  42:H:/STM32H7/RGB_LVGL/Middlewares/LVGL/GUI/lvgl/src/stdlib\lv_string.h ****  * @brief Fills a block of memory with a specified value.
  43:H:/STM32H7/RGB_LVGL/Middlewares/LVGL/GUI/lvgl/src/stdlib\lv_string.h ****  * @param dst Pointer to the destination array to fill with the specified value.
  44:H:/STM32H7/RGB_LVGL/Middlewares/LVGL/GUI/lvgl/src/stdlib\lv_string.h ****  * @param v Value to be set. The value is passed as an int, but the function fills
  45:H:/STM32H7/RGB_LVGL/Middlewares/LVGL/GUI/lvgl/src/stdlib\lv_string.h ****  *          the block of memory using the unsigned char conversion of this value.
  46:H:/STM32H7/RGB_LVGL/Middlewares/LVGL/GUI/lvgl/src/stdlib\lv_string.h ****  * @param len Number of bytes to be set to the value.
  47:H:/STM32H7/RGB_LVGL/Middlewares/LVGL/GUI/lvgl/src/stdlib\lv_string.h ****  */
  48:H:/STM32H7/RGB_LVGL/Middlewares/LVGL/GUI/lvgl/src/stdlib\lv_string.h **** void lv_memset(void * dst, uint8_t v, size_t len);
  49:H:/STM32H7/RGB_LVGL/Middlewares/LVGL/GUI/lvgl/src/stdlib\lv_string.h **** 
  50:H:/STM32H7/RGB_LVGL/Middlewares/LVGL/GUI/lvgl/src/stdlib\lv_string.h **** /**
  51:H:/STM32H7/RGB_LVGL/Middlewares/LVGL/GUI/lvgl/src/stdlib\lv_string.h ****  * @brief Move a block of memory from source to destination
  52:H:/STM32H7/RGB_LVGL/Middlewares/LVGL/GUI/lvgl/src/stdlib\lv_string.h ****  * @param dst Pointer to the destination array where the content is to be copied.
  53:H:/STM32H7/RGB_LVGL/Middlewares/LVGL/GUI/lvgl/src/stdlib\lv_string.h ****  * @param src Pointer to the source of data to be copied.
  54:H:/STM32H7/RGB_LVGL/Middlewares/LVGL/GUI/lvgl/src/stdlib\lv_string.h ****  * @param len Number of bytes to copy
  55:H:/STM32H7/RGB_LVGL/Middlewares/LVGL/GUI/lvgl/src/stdlib\lv_string.h ****  * @return Pointer to the destination array.
  56:H:/STM32H7/RGB_LVGL/Middlewares/LVGL/GUI/lvgl/src/stdlib\lv_string.h ****  */
  57:H:/STM32H7/RGB_LVGL/Middlewares/LVGL/GUI/lvgl/src/stdlib\lv_string.h **** void * lv_memmove(void * dst, const void * src, size_t len);
  58:H:/STM32H7/RGB_LVGL/Middlewares/LVGL/GUI/lvgl/src/stdlib\lv_string.h **** 
  59:H:/STM32H7/RGB_LVGL/Middlewares/LVGL/GUI/lvgl/src/stdlib\lv_string.h **** /**
  60:H:/STM32H7/RGB_LVGL/Middlewares/LVGL/GUI/lvgl/src/stdlib\lv_string.h ****  * @brief This function will compare two memory blocks
  61:H:/STM32H7/RGB_LVGL/Middlewares/LVGL/GUI/lvgl/src/stdlib\lv_string.h ****  * @param p1 Pointer to the first memory block
  62:H:/STM32H7/RGB_LVGL/Middlewares/LVGL/GUI/lvgl/src/stdlib\lv_string.h ****  * @param p2 Pointer to the second memory block
  63:H:/STM32H7/RGB_LVGL/Middlewares/LVGL/GUI/lvgl/src/stdlib\lv_string.h ****  * @param len Number of bytes to compare
  64:H:/STM32H7/RGB_LVGL/Middlewares/LVGL/GUI/lvgl/src/stdlib\lv_string.h ****  * @return The difference between the value of the first unmatching byte.
  65:H:/STM32H7/RGB_LVGL/Middlewares/LVGL/GUI/lvgl/src/stdlib\lv_string.h ****  */
  66:H:/STM32H7/RGB_LVGL/Middlewares/LVGL/GUI/lvgl/src/stdlib\lv_string.h **** int lv_memcmp(const void * p1, const void * p2, size_t len);
  67:H:/STM32H7/RGB_LVGL/Middlewares/LVGL/GUI/lvgl/src/stdlib\lv_string.h **** 
  68:H:/STM32H7/RGB_LVGL/Middlewares/LVGL/GUI/lvgl/src/stdlib\lv_string.h **** /**
  69:H:/STM32H7/RGB_LVGL/Middlewares/LVGL/GUI/lvgl/src/stdlib\lv_string.h ****  * Same as `memset(dst, 0x00, len)`.
  70:H:/STM32H7/RGB_LVGL/Middlewares/LVGL/GUI/lvgl/src/stdlib\lv_string.h ****  * @param dst pointer to the destination buffer
  71:H:/STM32H7/RGB_LVGL/Middlewares/LVGL/GUI/lvgl/src/stdlib\lv_string.h ****  * @param len number of byte to set
  72:H:/STM32H7/RGB_LVGL/Middlewares/LVGL/GUI/lvgl/src/stdlib\lv_string.h ****  */
  73:H:/STM32H7/RGB_LVGL/Middlewares/LVGL/GUI/lvgl/src/stdlib\lv_string.h **** static inline void lv_memzero(void * dst, size_t len)
 1401              		.loc 2 73 20 view .LVU453
 1402              	.LBB9:
  74:H:/STM32H7/RGB_LVGL/Middlewares/LVGL/GUI/lvgl/src/stdlib\lv_string.h **** {
  75:H:/STM32H7/RGB_LVGL/Middlewares/LVGL/GUI/lvgl/src/stdlib\lv_string.h ****     lv_memset(dst, 0x00, len);
 1403              		.loc 2 75 5 view .LVU454
 1404 000a 3422     		movs	r2, #52
 1405 000c 0021     		movs	r1, #0
 1406 000e 0446     		mov	r4, r0
 1407 0010 FFF7FEFF 		bl	lv_memset
 1408              	.LVL122:
 1409              		.loc 2 75 5 is_stmt 0 view .LVU455
 1410              	.LBE9:
 1411              	.LBE8:
 181:../../Middlewares/LVGL/GUI/lvgl/src/misc/cache/class/lv_cache_lru_ll.c **** }
 1412              		.loc 1 181 5 is_stmt 1 view .LVU456
 182:../../Middlewares/LVGL/GUI/lvgl/src/misc/cache/class/lv_cache_lru_ll.c **** 
 1413              		.loc 1 182 1 is_stmt 0 view .LVU457
 1414 0014 2046     		mov	r0, r4
 1415 0016 10BD     		pop	{r4, pc}
 1416              	.LVL123:
 1417              	.L118:
 174:../../Middlewares/LVGL/GUI/lvgl/src/misc/cache/class/lv_cache_lru_ll.c ****     if(res == NULL) {
 1418              		.loc 1 174 5 is_stmt 1 view .LVU458
ARM GAS  C:\Users\28576\AppData\Local\Temp\ccAY92po.s 			page 41


 174:../../Middlewares/LVGL/GUI/lvgl/src/misc/cache/class/lv_cache_lru_ll.c ****     if(res == NULL) {
 1419              		.loc 1 174 5 view .LVU459
 174:../../Middlewares/LVGL/GUI/lvgl/src/misc/cache/class/lv_cache_lru_ll.c ****     if(res == NULL) {
 1420              		.loc 1 174 5 view .LVU460
 174:../../Middlewares/LVGL/GUI/lvgl/src/misc/cache/class/lv_cache_lru_ll.c ****     if(res == NULL) {
 1421              		.loc 1 174 5 view .LVU461
 174:../../Middlewares/LVGL/GUI/lvgl/src/misc/cache/class/lv_cache_lru_ll.c ****     if(res == NULL) {
 1422              		.loc 1 174 5 view .LVU462
 1423 0018 FEE7     		b	.L118
 1424              		.cfi_endproc
 1425              	.LFE18:
 1427              		.global	lv_cache_class_lru_ll_size
 1428              		.section	.rodata.lv_cache_class_lru_ll_size,"a"
 1429              		.align	2
 1432              	lv_cache_class_lru_ll_size:
 1433 0000 00000000 		.word	alloc_cb
 1434 0004 00000000 		.word	init_size_cb
 1435 0008 00000000 		.word	destroy_cb
 1436 000c 00000000 		.word	get_cb
 1437 0010 00000000 		.word	add_cb
 1438 0014 00000000 		.word	remove_cb
 1439 0018 00000000 		.word	drop_cb
 1440 001c 00000000 		.word	drop_all_cb
 1441 0020 00000000 		.word	get_victim_cb
 1442 0024 00000000 		.word	reserve_cond_cb
 1443 0028 00000000 		.word	cache_iter_create_cb
 1444              		.global	lv_cache_class_lru_ll_count
 1445              		.section	.rodata.lv_cache_class_lru_ll_count,"a"
 1446              		.align	2
 1449              	lv_cache_class_lru_ll_count:
 1450 0000 00000000 		.word	alloc_cb
 1451 0004 00000000 		.word	init_cnt_cb
 1452 0008 00000000 		.word	destroy_cb
 1453 000c 00000000 		.word	get_cb
 1454 0010 00000000 		.word	add_cb
 1455 0014 00000000 		.word	remove_cb
 1456 0018 00000000 		.word	drop_cb
 1457 001c 00000000 		.word	drop_all_cb
 1458 0020 00000000 		.word	get_victim_cb
 1459 0024 00000000 		.word	reserve_cond_cb
 1460 0028 00000000 		.word	cache_iter_create_cb
 1461              		.text
 1462              	.Letext0:
 1463              		.file 3 "C:/Users/28576/AppData/Roaming/xPacks/@xpack-dev-tools/arm-none-eabi-gcc/15.2.1-1.1.1/.co
 1464              		.file 4 "C:/Users/28576/AppData/Roaming/xPacks/@xpack-dev-tools/arm-none-eabi-gcc/15.2.1-1.1.1/.co
 1465              		.file 5 "C:/Users/28576/AppData/Roaming/xPacks/@xpack-dev-tools/arm-none-eabi-gcc/15.2.1-1.1.1/.co
 1466              		.file 6 "H:/STM32H7/RGB_LVGL/Middlewares/LVGL/GUI/lvgl/src/misc/lv_types.h"
 1467              		.file 7 "../../Middlewares/LVGL/GUI/lvgl/src/misc/cache/class/../lv_cache_private.h"
 1468              		.file 8 "H:/STM32H7/RGB_LVGL/Middlewares/LVGL/GUI/lvgl/src/osal/lv_os_none.h"
 1469              		.file 9 "../../Middlewares/LVGL/GUI/lvgl/src/misc/cache/class/lv_cache_lru_ll.h"
 1470              		.file 10 "H:/STM32H7/RGB_LVGL/Middlewares/LVGL/GUI/lvgl/src/misc/lv_ll.h"
 1471              		.file 11 "H:/STM32H7/RGB_LVGL/Middlewares/LVGL/GUI/lvgl/src/misc/lv_iter.h"
 1472              		.file 12 "../../Middlewares/LVGL/GUI/lvgl/src/misc/cache/class/../lv_cache_entry.h"
 1473              		.file 13 "H:/STM32H7/RGB_LVGL/Middlewares/LVGL/GUI/lvgl/src/stdlib/lv_mem.h"
ARM GAS  C:\Users\28576\AppData\Local\Temp\ccAY92po.s 			page 42

