ARM GAS  C:\Users\28576\AppData\Local\Temp\ccagJBpt.s 			page 1


   1              		.cpu cortex-m7
   2              		.arch armv7e-m
   3              		.fpu fpv5-d16
   4              		.eabi_attribute 28, 1
   5              		.eabi_attribute 20, 1
   6              		.eabi_attribute 21, 1
   7              		.eabi_attribute 23, 3
   8              		.eabi_attribute 24, 1
   9              		.eabi_attribute 25, 1
  10              		.eabi_attribute 26, 1
  11              		.eabi_attribute 30, 1
  12              		.eabi_attribute 34, 1
  13              		.eabi_attribute 18, 4
  14              		.file	"lv_draw_sw_mask.c"
  15              		.text
  16              	.Ltext0:
  17              		.cfi_sections	.debug_frame
  18              		.file 1 "../../Middlewares/LVGL/GUI/lvgl/src/draw/sw/lv_draw_sw_mask.c"
  19              		.section	.text.lv_draw_mask_fade,"ax",%progbits
  20              		.align	1
  21              		.syntax unified
  22              		.thumb
  23              		.thumb_func
  25              	lv_draw_mask_fade:
  26              	.LVL0:
  27              	.LFB203:
   1:../../Middlewares/LVGL/GUI/lvgl/src/draw/sw/lv_draw_sw_mask.c **** /**
   2:../../Middlewares/LVGL/GUI/lvgl/src/draw/sw/lv_draw_sw_mask.c ****  * @file lv_draw_sw_mask.c
   3:../../Middlewares/LVGL/GUI/lvgl/src/draw/sw/lv_draw_sw_mask.c ****  *
   4:../../Middlewares/LVGL/GUI/lvgl/src/draw/sw/lv_draw_sw_mask.c ****  */
   5:../../Middlewares/LVGL/GUI/lvgl/src/draw/sw/lv_draw_sw_mask.c **** 
   6:../../Middlewares/LVGL/GUI/lvgl/src/draw/sw/lv_draw_sw_mask.c **** /*********************
   7:../../Middlewares/LVGL/GUI/lvgl/src/draw/sw/lv_draw_sw_mask.c ****  *      INCLUDES
   8:../../Middlewares/LVGL/GUI/lvgl/src/draw/sw/lv_draw_sw_mask.c ****  *********************/
   9:../../Middlewares/LVGL/GUI/lvgl/src/draw/sw/lv_draw_sw_mask.c **** #include "lv_draw_sw_mask_private.h"
  10:../../Middlewares/LVGL/GUI/lvgl/src/draw/sw/lv_draw_sw_mask.c **** #include "../lv_draw_mask_private.h"
  11:../../Middlewares/LVGL/GUI/lvgl/src/draw/sw/lv_draw_sw_mask.c **** #include "../lv_draw.h"
  12:../../Middlewares/LVGL/GUI/lvgl/src/draw/sw/lv_draw_sw_mask.c **** 
  13:../../Middlewares/LVGL/GUI/lvgl/src/draw/sw/lv_draw_sw_mask.c **** #if LV_DRAW_SW_COMPLEX
  14:../../Middlewares/LVGL/GUI/lvgl/src/draw/sw/lv_draw_sw_mask.c **** #include "../../core/lv_global.h"
  15:../../Middlewares/LVGL/GUI/lvgl/src/draw/sw/lv_draw_sw_mask.c **** #include "../../misc/lv_math.h"
  16:../../Middlewares/LVGL/GUI/lvgl/src/draw/sw/lv_draw_sw_mask.c **** #include "../../misc/lv_log.h"
  17:../../Middlewares/LVGL/GUI/lvgl/src/draw/sw/lv_draw_sw_mask.c **** #include "../../misc/lv_assert.h"
  18:../../Middlewares/LVGL/GUI/lvgl/src/draw/sw/lv_draw_sw_mask.c **** #include "../../osal/lv_os.h"
  19:../../Middlewares/LVGL/GUI/lvgl/src/draw/sw/lv_draw_sw_mask.c **** #include "../../stdlib/lv_string.h"
  20:../../Middlewares/LVGL/GUI/lvgl/src/draw/sw/lv_draw_sw_mask.c **** 
  21:../../Middlewares/LVGL/GUI/lvgl/src/draw/sw/lv_draw_sw_mask.c **** /*********************
  22:../../Middlewares/LVGL/GUI/lvgl/src/draw/sw/lv_draw_sw_mask.c ****  *      DEFINES
  23:../../Middlewares/LVGL/GUI/lvgl/src/draw/sw/lv_draw_sw_mask.c ****  *********************/
  24:../../Middlewares/LVGL/GUI/lvgl/src/draw/sw/lv_draw_sw_mask.c **** #define CIRCLE_CACHE_LIFE_MAX           1000
  25:../../Middlewares/LVGL/GUI/lvgl/src/draw/sw/lv_draw_sw_mask.c **** #define CIRCLE_CACHE_AGING(life, r)     life = LV_MIN(life + (r < 16 ? 1 : (r >> 4)), 1000)
  26:../../Middlewares/LVGL/GUI/lvgl/src/draw/sw/lv_draw_sw_mask.c **** #define circle_cache_mutex              LV_GLOBAL_DEFAULT()->draw_info.circle_cache_mutex
  27:../../Middlewares/LVGL/GUI/lvgl/src/draw/sw/lv_draw_sw_mask.c **** #define _circle_cache                   LV_GLOBAL_DEFAULT()->sw_circle_cache
  28:../../Middlewares/LVGL/GUI/lvgl/src/draw/sw/lv_draw_sw_mask.c **** 
  29:../../Middlewares/LVGL/GUI/lvgl/src/draw/sw/lv_draw_sw_mask.c **** /**********************
  30:../../Middlewares/LVGL/GUI/lvgl/src/draw/sw/lv_draw_sw_mask.c ****  *      TYPEDEFS
  31:../../Middlewares/LVGL/GUI/lvgl/src/draw/sw/lv_draw_sw_mask.c ****  **********************/
ARM GAS  C:\Users\28576\AppData\Local\Temp\ccagJBpt.s 			page 2


  32:../../Middlewares/LVGL/GUI/lvgl/src/draw/sw/lv_draw_sw_mask.c **** 
  33:../../Middlewares/LVGL/GUI/lvgl/src/draw/sw/lv_draw_sw_mask.c **** /**********************
  34:../../Middlewares/LVGL/GUI/lvgl/src/draw/sw/lv_draw_sw_mask.c ****  *  STATIC PROTOTYPES
  35:../../Middlewares/LVGL/GUI/lvgl/src/draw/sw/lv_draw_sw_mask.c ****  **********************/
  36:../../Middlewares/LVGL/GUI/lvgl/src/draw/sw/lv_draw_sw_mask.c **** static lv_draw_sw_mask_res_t /* LV_ATTRIBUTE_FAST_MEM */ lv_draw_mask_line(lv_opa_t * mask_buf, int
  37:../../Middlewares/LVGL/GUI/lvgl/src/draw/sw/lv_draw_sw_mask.c ****                                                                            int32_t abs_y, int32_t l
  38:../../Middlewares/LVGL/GUI/lvgl/src/draw/sw/lv_draw_sw_mask.c ****                                                                            lv_draw_sw_mask_line_par
  39:../../Middlewares/LVGL/GUI/lvgl/src/draw/sw/lv_draw_sw_mask.c **** static lv_draw_sw_mask_res_t /* LV_ATTRIBUTE_FAST_MEM */ lv_draw_mask_radius(lv_opa_t * mask_buf, i
  40:../../Middlewares/LVGL/GUI/lvgl/src/draw/sw/lv_draw_sw_mask.c ****                                                                              int32_t abs_y, int32_t
  41:../../Middlewares/LVGL/GUI/lvgl/src/draw/sw/lv_draw_sw_mask.c ****                                                                              lv_draw_sw_mask_radius
  42:../../Middlewares/LVGL/GUI/lvgl/src/draw/sw/lv_draw_sw_mask.c **** static lv_draw_sw_mask_res_t /* LV_ATTRIBUTE_FAST_MEM */ lv_draw_mask_angle(lv_opa_t * mask_buf, in
  43:../../Middlewares/LVGL/GUI/lvgl/src/draw/sw/lv_draw_sw_mask.c ****                                                                             int32_t abs_y, int32_t 
  44:../../Middlewares/LVGL/GUI/lvgl/src/draw/sw/lv_draw_sw_mask.c ****                                                                             lv_draw_sw_mask_angle_p
  45:../../Middlewares/LVGL/GUI/lvgl/src/draw/sw/lv_draw_sw_mask.c **** static lv_draw_sw_mask_res_t /* LV_ATTRIBUTE_FAST_MEM */ lv_draw_mask_fade(lv_opa_t * mask_buf, int
  46:../../Middlewares/LVGL/GUI/lvgl/src/draw/sw/lv_draw_sw_mask.c ****                                                                            int32_t abs_y, int32_t l
  47:../../Middlewares/LVGL/GUI/lvgl/src/draw/sw/lv_draw_sw_mask.c ****                                                                            lv_draw_sw_mask_fade_par
  48:../../Middlewares/LVGL/GUI/lvgl/src/draw/sw/lv_draw_sw_mask.c **** static lv_draw_sw_mask_res_t /* LV_ATTRIBUTE_FAST_MEM */ lv_draw_mask_map(lv_opa_t * mask_buf, int3
  49:../../Middlewares/LVGL/GUI/lvgl/src/draw/sw/lv_draw_sw_mask.c ****                                                                           int32_t abs_y, int32_t le
  50:../../Middlewares/LVGL/GUI/lvgl/src/draw/sw/lv_draw_sw_mask.c ****                                                                           lv_draw_sw_mask_map_param
  51:../../Middlewares/LVGL/GUI/lvgl/src/draw/sw/lv_draw_sw_mask.c **** 
  52:../../Middlewares/LVGL/GUI/lvgl/src/draw/sw/lv_draw_sw_mask.c **** static lv_draw_sw_mask_res_t /* LV_ATTRIBUTE_FAST_MEM */ line_mask_flat(lv_opa_t * mask_buf, int32_
  53:../../Middlewares/LVGL/GUI/lvgl/src/draw/sw/lv_draw_sw_mask.c ****                                                                         int32_t abs_y,
  54:../../Middlewares/LVGL/GUI/lvgl/src/draw/sw/lv_draw_sw_mask.c ****                                                                         int32_t len,
  55:../../Middlewares/LVGL/GUI/lvgl/src/draw/sw/lv_draw_sw_mask.c ****                                                                         lv_draw_sw_mask_line_param_
  56:../../Middlewares/LVGL/GUI/lvgl/src/draw/sw/lv_draw_sw_mask.c **** static lv_draw_sw_mask_res_t /* LV_ATTRIBUTE_FAST_MEM */ line_mask_steep(lv_opa_t * mask_buf, int32
  57:../../Middlewares/LVGL/GUI/lvgl/src/draw/sw/lv_draw_sw_mask.c ****                                                                          int32_t abs_y,
  58:../../Middlewares/LVGL/GUI/lvgl/src/draw/sw/lv_draw_sw_mask.c ****                                                                          int32_t len,
  59:../../Middlewares/LVGL/GUI/lvgl/src/draw/sw/lv_draw_sw_mask.c ****                                                                          lv_draw_sw_mask_line_param
  60:../../Middlewares/LVGL/GUI/lvgl/src/draw/sw/lv_draw_sw_mask.c **** 
  61:../../Middlewares/LVGL/GUI/lvgl/src/draw/sw/lv_draw_sw_mask.c **** static void circ_init(lv_point_t * c, int32_t * tmp, int32_t radius);
  62:../../Middlewares/LVGL/GUI/lvgl/src/draw/sw/lv_draw_sw_mask.c **** static bool circ_cont(lv_point_t * c);
  63:../../Middlewares/LVGL/GUI/lvgl/src/draw/sw/lv_draw_sw_mask.c **** static void circ_next(lv_point_t * c, int32_t * tmp);
  64:../../Middlewares/LVGL/GUI/lvgl/src/draw/sw/lv_draw_sw_mask.c **** static void circ_calc_aa4(lv_draw_sw_mask_radius_circle_dsc_t * c, int32_t radius);
  65:../../Middlewares/LVGL/GUI/lvgl/src/draw/sw/lv_draw_sw_mask.c **** static lv_opa_t * get_next_line(lv_draw_sw_mask_radius_circle_dsc_t * c, int32_t y, int32_t * len,
  66:../../Middlewares/LVGL/GUI/lvgl/src/draw/sw/lv_draw_sw_mask.c ****                                 int32_t * x_start);
  67:../../Middlewares/LVGL/GUI/lvgl/src/draw/sw/lv_draw_sw_mask.c **** static inline lv_opa_t /* LV_ATTRIBUTE_FAST_MEM */ mask_mix(lv_opa_t mask_act, lv_opa_t mask_new);
  68:../../Middlewares/LVGL/GUI/lvgl/src/draw/sw/lv_draw_sw_mask.c **** 
  69:../../Middlewares/LVGL/GUI/lvgl/src/draw/sw/lv_draw_sw_mask.c **** /**********************
  70:../../Middlewares/LVGL/GUI/lvgl/src/draw/sw/lv_draw_sw_mask.c ****  *  STATIC VARIABLES
  71:../../Middlewares/LVGL/GUI/lvgl/src/draw/sw/lv_draw_sw_mask.c ****  **********************/
  72:../../Middlewares/LVGL/GUI/lvgl/src/draw/sw/lv_draw_sw_mask.c **** 
  73:../../Middlewares/LVGL/GUI/lvgl/src/draw/sw/lv_draw_sw_mask.c **** /**********************
  74:../../Middlewares/LVGL/GUI/lvgl/src/draw/sw/lv_draw_sw_mask.c ****  *      MACROS
  75:../../Middlewares/LVGL/GUI/lvgl/src/draw/sw/lv_draw_sw_mask.c ****  **********************/
  76:../../Middlewares/LVGL/GUI/lvgl/src/draw/sw/lv_draw_sw_mask.c **** 
  77:../../Middlewares/LVGL/GUI/lvgl/src/draw/sw/lv_draw_sw_mask.c **** /**********************
  78:../../Middlewares/LVGL/GUI/lvgl/src/draw/sw/lv_draw_sw_mask.c ****  *   GLOBAL FUNCTIONS
  79:../../Middlewares/LVGL/GUI/lvgl/src/draw/sw/lv_draw_sw_mask.c ****  **********************/
  80:../../Middlewares/LVGL/GUI/lvgl/src/draw/sw/lv_draw_sw_mask.c **** 
  81:../../Middlewares/LVGL/GUI/lvgl/src/draw/sw/lv_draw_sw_mask.c **** void lv_draw_sw_mask_init(void)
  82:../../Middlewares/LVGL/GUI/lvgl/src/draw/sw/lv_draw_sw_mask.c **** {
  83:../../Middlewares/LVGL/GUI/lvgl/src/draw/sw/lv_draw_sw_mask.c ****     lv_mutex_init(&circle_cache_mutex);
  84:../../Middlewares/LVGL/GUI/lvgl/src/draw/sw/lv_draw_sw_mask.c **** }
  85:../../Middlewares/LVGL/GUI/lvgl/src/draw/sw/lv_draw_sw_mask.c **** 
  86:../../Middlewares/LVGL/GUI/lvgl/src/draw/sw/lv_draw_sw_mask.c **** void lv_draw_sw_mask_deinit(void)
  87:../../Middlewares/LVGL/GUI/lvgl/src/draw/sw/lv_draw_sw_mask.c **** {
  88:../../Middlewares/LVGL/GUI/lvgl/src/draw/sw/lv_draw_sw_mask.c ****     lv_mutex_delete(&circle_cache_mutex);
ARM GAS  C:\Users\28576\AppData\Local\Temp\ccagJBpt.s 			page 3


  89:../../Middlewares/LVGL/GUI/lvgl/src/draw/sw/lv_draw_sw_mask.c **** }
  90:../../Middlewares/LVGL/GUI/lvgl/src/draw/sw/lv_draw_sw_mask.c **** 
  91:../../Middlewares/LVGL/GUI/lvgl/src/draw/sw/lv_draw_sw_mask.c **** lv_draw_sw_mask_res_t LV_ATTRIBUTE_FAST_MEM lv_draw_sw_mask_apply(void * masks[], lv_opa_t * mask_b
  92:../../Middlewares/LVGL/GUI/lvgl/src/draw/sw/lv_draw_sw_mask.c ****                                                                   int32_t abs_y,
  93:../../Middlewares/LVGL/GUI/lvgl/src/draw/sw/lv_draw_sw_mask.c ****                                                                   int32_t len)
  94:../../Middlewares/LVGL/GUI/lvgl/src/draw/sw/lv_draw_sw_mask.c **** {
  95:../../Middlewares/LVGL/GUI/lvgl/src/draw/sw/lv_draw_sw_mask.c ****     bool changed = false;
  96:../../Middlewares/LVGL/GUI/lvgl/src/draw/sw/lv_draw_sw_mask.c ****     lv_draw_sw_mask_common_dsc_t * dsc;
  97:../../Middlewares/LVGL/GUI/lvgl/src/draw/sw/lv_draw_sw_mask.c **** 
  98:../../Middlewares/LVGL/GUI/lvgl/src/draw/sw/lv_draw_sw_mask.c ****     uint32_t i;
  99:../../Middlewares/LVGL/GUI/lvgl/src/draw/sw/lv_draw_sw_mask.c ****     for(i = 0; masks[i]; i++) {
 100:../../Middlewares/LVGL/GUI/lvgl/src/draw/sw/lv_draw_sw_mask.c ****         dsc = masks[i];
 101:../../Middlewares/LVGL/GUI/lvgl/src/draw/sw/lv_draw_sw_mask.c ****         lv_draw_sw_mask_res_t res = LV_DRAW_SW_MASK_RES_FULL_COVER;
 102:../../Middlewares/LVGL/GUI/lvgl/src/draw/sw/lv_draw_sw_mask.c ****         res = dsc->cb(mask_buf, abs_x, abs_y, len, masks[i]);
 103:../../Middlewares/LVGL/GUI/lvgl/src/draw/sw/lv_draw_sw_mask.c ****         if(res == LV_DRAW_SW_MASK_RES_TRANSP) return LV_DRAW_SW_MASK_RES_TRANSP;
 104:../../Middlewares/LVGL/GUI/lvgl/src/draw/sw/lv_draw_sw_mask.c ****         else if(res == LV_DRAW_SW_MASK_RES_CHANGED) changed = true;
 105:../../Middlewares/LVGL/GUI/lvgl/src/draw/sw/lv_draw_sw_mask.c ****     }
 106:../../Middlewares/LVGL/GUI/lvgl/src/draw/sw/lv_draw_sw_mask.c **** 
 107:../../Middlewares/LVGL/GUI/lvgl/src/draw/sw/lv_draw_sw_mask.c ****     return changed ? LV_DRAW_SW_MASK_RES_CHANGED : LV_DRAW_SW_MASK_RES_FULL_COVER;
 108:../../Middlewares/LVGL/GUI/lvgl/src/draw/sw/lv_draw_sw_mask.c **** }
 109:../../Middlewares/LVGL/GUI/lvgl/src/draw/sw/lv_draw_sw_mask.c **** 
 110:../../Middlewares/LVGL/GUI/lvgl/src/draw/sw/lv_draw_sw_mask.c **** void lv_draw_sw_mask_free_param(void * p)
 111:../../Middlewares/LVGL/GUI/lvgl/src/draw/sw/lv_draw_sw_mask.c **** {
 112:../../Middlewares/LVGL/GUI/lvgl/src/draw/sw/lv_draw_sw_mask.c ****     lv_mutex_lock(&circle_cache_mutex);
 113:../../Middlewares/LVGL/GUI/lvgl/src/draw/sw/lv_draw_sw_mask.c ****     lv_draw_sw_mask_common_dsc_t * pdsc = p;
 114:../../Middlewares/LVGL/GUI/lvgl/src/draw/sw/lv_draw_sw_mask.c ****     if(pdsc->type == LV_DRAW_SW_MASK_TYPE_RADIUS) {
 115:../../Middlewares/LVGL/GUI/lvgl/src/draw/sw/lv_draw_sw_mask.c ****         lv_draw_sw_mask_radius_param_t * radius_p = (lv_draw_sw_mask_radius_param_t *) p;
 116:../../Middlewares/LVGL/GUI/lvgl/src/draw/sw/lv_draw_sw_mask.c ****         if(radius_p->circle) {
 117:../../Middlewares/LVGL/GUI/lvgl/src/draw/sw/lv_draw_sw_mask.c ****             if(radius_p->circle->life < 0) {
 118:../../Middlewares/LVGL/GUI/lvgl/src/draw/sw/lv_draw_sw_mask.c ****                 lv_free(radius_p->circle->cir_opa);
 119:../../Middlewares/LVGL/GUI/lvgl/src/draw/sw/lv_draw_sw_mask.c ****                 lv_free(radius_p->circle);
 120:../../Middlewares/LVGL/GUI/lvgl/src/draw/sw/lv_draw_sw_mask.c ****             }
 121:../../Middlewares/LVGL/GUI/lvgl/src/draw/sw/lv_draw_sw_mask.c ****             else {
 122:../../Middlewares/LVGL/GUI/lvgl/src/draw/sw/lv_draw_sw_mask.c ****                 radius_p->circle->used_cnt--;
 123:../../Middlewares/LVGL/GUI/lvgl/src/draw/sw/lv_draw_sw_mask.c ****             }
 124:../../Middlewares/LVGL/GUI/lvgl/src/draw/sw/lv_draw_sw_mask.c ****         }
 125:../../Middlewares/LVGL/GUI/lvgl/src/draw/sw/lv_draw_sw_mask.c ****     }
 126:../../Middlewares/LVGL/GUI/lvgl/src/draw/sw/lv_draw_sw_mask.c **** 
 127:../../Middlewares/LVGL/GUI/lvgl/src/draw/sw/lv_draw_sw_mask.c ****     lv_mutex_unlock(&circle_cache_mutex);
 128:../../Middlewares/LVGL/GUI/lvgl/src/draw/sw/lv_draw_sw_mask.c **** }
 129:../../Middlewares/LVGL/GUI/lvgl/src/draw/sw/lv_draw_sw_mask.c **** 
 130:../../Middlewares/LVGL/GUI/lvgl/src/draw/sw/lv_draw_sw_mask.c **** void lv_draw_sw_mask_cleanup(void)
 131:../../Middlewares/LVGL/GUI/lvgl/src/draw/sw/lv_draw_sw_mask.c **** {
 132:../../Middlewares/LVGL/GUI/lvgl/src/draw/sw/lv_draw_sw_mask.c ****     uint8_t i;
 133:../../Middlewares/LVGL/GUI/lvgl/src/draw/sw/lv_draw_sw_mask.c ****     for(i = 0; i < LV_DRAW_SW_CIRCLE_CACHE_SIZE; i++) {
 134:../../Middlewares/LVGL/GUI/lvgl/src/draw/sw/lv_draw_sw_mask.c ****         if(_circle_cache[i].buf) {
 135:../../Middlewares/LVGL/GUI/lvgl/src/draw/sw/lv_draw_sw_mask.c ****             lv_free(_circle_cache[i].buf);
 136:../../Middlewares/LVGL/GUI/lvgl/src/draw/sw/lv_draw_sw_mask.c ****         }
 137:../../Middlewares/LVGL/GUI/lvgl/src/draw/sw/lv_draw_sw_mask.c ****         lv_memzero(&(_circle_cache[i]), sizeof(_circle_cache[i]));
 138:../../Middlewares/LVGL/GUI/lvgl/src/draw/sw/lv_draw_sw_mask.c ****     }
 139:../../Middlewares/LVGL/GUI/lvgl/src/draw/sw/lv_draw_sw_mask.c **** }
 140:../../Middlewares/LVGL/GUI/lvgl/src/draw/sw/lv_draw_sw_mask.c **** 
 141:../../Middlewares/LVGL/GUI/lvgl/src/draw/sw/lv_draw_sw_mask.c **** void lv_draw_sw_mask_line_points_init(lv_draw_sw_mask_line_param_t * param, int32_t p1x, int32_t p1
 142:../../Middlewares/LVGL/GUI/lvgl/src/draw/sw/lv_draw_sw_mask.c ****                                       int32_t p2x,
 143:../../Middlewares/LVGL/GUI/lvgl/src/draw/sw/lv_draw_sw_mask.c ****                                       int32_t p2y, lv_draw_sw_mask_line_side_t side)
 144:../../Middlewares/LVGL/GUI/lvgl/src/draw/sw/lv_draw_sw_mask.c **** {
 145:../../Middlewares/LVGL/GUI/lvgl/src/draw/sw/lv_draw_sw_mask.c ****     lv_memzero(param, sizeof(lv_draw_sw_mask_line_param_t));
ARM GAS  C:\Users\28576\AppData\Local\Temp\ccagJBpt.s 			page 4


 146:../../Middlewares/LVGL/GUI/lvgl/src/draw/sw/lv_draw_sw_mask.c **** 
 147:../../Middlewares/LVGL/GUI/lvgl/src/draw/sw/lv_draw_sw_mask.c ****     if(p1y == p2y && side == LV_DRAW_SW_MASK_LINE_SIDE_BOTTOM) {
 148:../../Middlewares/LVGL/GUI/lvgl/src/draw/sw/lv_draw_sw_mask.c ****         p1y--;
 149:../../Middlewares/LVGL/GUI/lvgl/src/draw/sw/lv_draw_sw_mask.c ****         p2y--;
 150:../../Middlewares/LVGL/GUI/lvgl/src/draw/sw/lv_draw_sw_mask.c ****     }
 151:../../Middlewares/LVGL/GUI/lvgl/src/draw/sw/lv_draw_sw_mask.c **** 
 152:../../Middlewares/LVGL/GUI/lvgl/src/draw/sw/lv_draw_sw_mask.c ****     if(p1y > p2y) {
 153:../../Middlewares/LVGL/GUI/lvgl/src/draw/sw/lv_draw_sw_mask.c ****         int32_t t;
 154:../../Middlewares/LVGL/GUI/lvgl/src/draw/sw/lv_draw_sw_mask.c ****         t = p2x;
 155:../../Middlewares/LVGL/GUI/lvgl/src/draw/sw/lv_draw_sw_mask.c ****         p2x = p1x;
 156:../../Middlewares/LVGL/GUI/lvgl/src/draw/sw/lv_draw_sw_mask.c ****         p1x = t;
 157:../../Middlewares/LVGL/GUI/lvgl/src/draw/sw/lv_draw_sw_mask.c **** 
 158:../../Middlewares/LVGL/GUI/lvgl/src/draw/sw/lv_draw_sw_mask.c ****         t = p2y;
 159:../../Middlewares/LVGL/GUI/lvgl/src/draw/sw/lv_draw_sw_mask.c ****         p2y = p1y;
 160:../../Middlewares/LVGL/GUI/lvgl/src/draw/sw/lv_draw_sw_mask.c ****         p1y = t;
 161:../../Middlewares/LVGL/GUI/lvgl/src/draw/sw/lv_draw_sw_mask.c ****     }
 162:../../Middlewares/LVGL/GUI/lvgl/src/draw/sw/lv_draw_sw_mask.c **** 
 163:../../Middlewares/LVGL/GUI/lvgl/src/draw/sw/lv_draw_sw_mask.c ****     lv_point_set(&param->cfg.p1, p1x, p1y);
 164:../../Middlewares/LVGL/GUI/lvgl/src/draw/sw/lv_draw_sw_mask.c ****     lv_point_set(&param->cfg.p2, p2x, p2y);
 165:../../Middlewares/LVGL/GUI/lvgl/src/draw/sw/lv_draw_sw_mask.c ****     param->cfg.side = side;
 166:../../Middlewares/LVGL/GUI/lvgl/src/draw/sw/lv_draw_sw_mask.c **** 
 167:../../Middlewares/LVGL/GUI/lvgl/src/draw/sw/lv_draw_sw_mask.c ****     lv_point_set(&param->origo, p1x, p1y);
 168:../../Middlewares/LVGL/GUI/lvgl/src/draw/sw/lv_draw_sw_mask.c ****     param->flat = (LV_ABS(p2x - p1x) > LV_ABS(p2y - p1y)) ? 1 : 0;
 169:../../Middlewares/LVGL/GUI/lvgl/src/draw/sw/lv_draw_sw_mask.c ****     param->yx_steep = 0;
 170:../../Middlewares/LVGL/GUI/lvgl/src/draw/sw/lv_draw_sw_mask.c ****     param->xy_steep = 0;
 171:../../Middlewares/LVGL/GUI/lvgl/src/draw/sw/lv_draw_sw_mask.c ****     param->dsc.cb = (lv_draw_sw_mask_xcb_t)lv_draw_mask_line;
 172:../../Middlewares/LVGL/GUI/lvgl/src/draw/sw/lv_draw_sw_mask.c ****     param->dsc.type = LV_DRAW_SW_MASK_TYPE_LINE;
 173:../../Middlewares/LVGL/GUI/lvgl/src/draw/sw/lv_draw_sw_mask.c **** 
 174:../../Middlewares/LVGL/GUI/lvgl/src/draw/sw/lv_draw_sw_mask.c ****     int32_t dx = p2x - p1x;
 175:../../Middlewares/LVGL/GUI/lvgl/src/draw/sw/lv_draw_sw_mask.c ****     int32_t dy = p2y - p1y;
 176:../../Middlewares/LVGL/GUI/lvgl/src/draw/sw/lv_draw_sw_mask.c **** 
 177:../../Middlewares/LVGL/GUI/lvgl/src/draw/sw/lv_draw_sw_mask.c ****     if(param->flat) {
 178:../../Middlewares/LVGL/GUI/lvgl/src/draw/sw/lv_draw_sw_mask.c ****         /*Normalize the steep. Delta x should be relative to delta x = 1024*/
 179:../../Middlewares/LVGL/GUI/lvgl/src/draw/sw/lv_draw_sw_mask.c ****         int32_t m;
 180:../../Middlewares/LVGL/GUI/lvgl/src/draw/sw/lv_draw_sw_mask.c **** 
 181:../../Middlewares/LVGL/GUI/lvgl/src/draw/sw/lv_draw_sw_mask.c ****         if(dx) {
 182:../../Middlewares/LVGL/GUI/lvgl/src/draw/sw/lv_draw_sw_mask.c ****             m = (1L << 20) / dx;  /*m is multiplier to normalize y (upscaled by 1024)*/
 183:../../Middlewares/LVGL/GUI/lvgl/src/draw/sw/lv_draw_sw_mask.c ****             param->yx_steep = (m * dy) >> 10;
 184:../../Middlewares/LVGL/GUI/lvgl/src/draw/sw/lv_draw_sw_mask.c ****         }
 185:../../Middlewares/LVGL/GUI/lvgl/src/draw/sw/lv_draw_sw_mask.c **** 
 186:../../Middlewares/LVGL/GUI/lvgl/src/draw/sw/lv_draw_sw_mask.c ****         if(dy) {
 187:../../Middlewares/LVGL/GUI/lvgl/src/draw/sw/lv_draw_sw_mask.c ****             m = (1L << 20) / dy;  /*m is multiplier to normalize x (upscaled by 1024)*/
 188:../../Middlewares/LVGL/GUI/lvgl/src/draw/sw/lv_draw_sw_mask.c ****             param->xy_steep = (m * dx) >> 10;
 189:../../Middlewares/LVGL/GUI/lvgl/src/draw/sw/lv_draw_sw_mask.c ****         }
 190:../../Middlewares/LVGL/GUI/lvgl/src/draw/sw/lv_draw_sw_mask.c ****         param->steep = param->yx_steep;
 191:../../Middlewares/LVGL/GUI/lvgl/src/draw/sw/lv_draw_sw_mask.c ****     }
 192:../../Middlewares/LVGL/GUI/lvgl/src/draw/sw/lv_draw_sw_mask.c ****     else {
 193:../../Middlewares/LVGL/GUI/lvgl/src/draw/sw/lv_draw_sw_mask.c ****         /*Normalize the steep. Delta y should be relative to delta x = 1024*/
 194:../../Middlewares/LVGL/GUI/lvgl/src/draw/sw/lv_draw_sw_mask.c ****         int32_t m;
 195:../../Middlewares/LVGL/GUI/lvgl/src/draw/sw/lv_draw_sw_mask.c **** 
 196:../../Middlewares/LVGL/GUI/lvgl/src/draw/sw/lv_draw_sw_mask.c ****         if(dy) {
 197:../../Middlewares/LVGL/GUI/lvgl/src/draw/sw/lv_draw_sw_mask.c ****             m = (1L << 20) / dy;  /*m is multiplier to normalize x (upscaled by 1024)*/
 198:../../Middlewares/LVGL/GUI/lvgl/src/draw/sw/lv_draw_sw_mask.c ****             param->xy_steep = (m * dx) >> 10;
 199:../../Middlewares/LVGL/GUI/lvgl/src/draw/sw/lv_draw_sw_mask.c ****         }
 200:../../Middlewares/LVGL/GUI/lvgl/src/draw/sw/lv_draw_sw_mask.c **** 
 201:../../Middlewares/LVGL/GUI/lvgl/src/draw/sw/lv_draw_sw_mask.c ****         if(dx) {
 202:../../Middlewares/LVGL/GUI/lvgl/src/draw/sw/lv_draw_sw_mask.c ****             m = (1L << 20) / dx;  /*m is multiplier to normalize x (upscaled by 1024)*/
ARM GAS  C:\Users\28576\AppData\Local\Temp\ccagJBpt.s 			page 5


 203:../../Middlewares/LVGL/GUI/lvgl/src/draw/sw/lv_draw_sw_mask.c ****             param->yx_steep = (m * dy) >> 10;
 204:../../Middlewares/LVGL/GUI/lvgl/src/draw/sw/lv_draw_sw_mask.c ****         }
 205:../../Middlewares/LVGL/GUI/lvgl/src/draw/sw/lv_draw_sw_mask.c ****         param->steep = param->xy_steep;
 206:../../Middlewares/LVGL/GUI/lvgl/src/draw/sw/lv_draw_sw_mask.c ****     }
 207:../../Middlewares/LVGL/GUI/lvgl/src/draw/sw/lv_draw_sw_mask.c **** 
 208:../../Middlewares/LVGL/GUI/lvgl/src/draw/sw/lv_draw_sw_mask.c ****     if(param->cfg.side == LV_DRAW_SW_MASK_LINE_SIDE_LEFT) param->inv = 0;
 209:../../Middlewares/LVGL/GUI/lvgl/src/draw/sw/lv_draw_sw_mask.c ****     else if(param->cfg.side == LV_DRAW_SW_MASK_LINE_SIDE_RIGHT) param->inv = 1;
 210:../../Middlewares/LVGL/GUI/lvgl/src/draw/sw/lv_draw_sw_mask.c ****     else if(param->cfg.side == LV_DRAW_SW_MASK_LINE_SIDE_TOP) {
 211:../../Middlewares/LVGL/GUI/lvgl/src/draw/sw/lv_draw_sw_mask.c ****         if(param->steep > 0) param->inv = 1;
 212:../../Middlewares/LVGL/GUI/lvgl/src/draw/sw/lv_draw_sw_mask.c ****         else param->inv = 0;
 213:../../Middlewares/LVGL/GUI/lvgl/src/draw/sw/lv_draw_sw_mask.c ****     }
 214:../../Middlewares/LVGL/GUI/lvgl/src/draw/sw/lv_draw_sw_mask.c ****     else if(param->cfg.side == LV_DRAW_SW_MASK_LINE_SIDE_BOTTOM) {
 215:../../Middlewares/LVGL/GUI/lvgl/src/draw/sw/lv_draw_sw_mask.c ****         if(param->steep > 0) param->inv = 0;
 216:../../Middlewares/LVGL/GUI/lvgl/src/draw/sw/lv_draw_sw_mask.c ****         else param->inv = 1;
 217:../../Middlewares/LVGL/GUI/lvgl/src/draw/sw/lv_draw_sw_mask.c ****     }
 218:../../Middlewares/LVGL/GUI/lvgl/src/draw/sw/lv_draw_sw_mask.c **** 
 219:../../Middlewares/LVGL/GUI/lvgl/src/draw/sw/lv_draw_sw_mask.c ****     param->spx = param->steep >> 2;
 220:../../Middlewares/LVGL/GUI/lvgl/src/draw/sw/lv_draw_sw_mask.c ****     if(param->steep < 0) param->spx = -param->spx;
 221:../../Middlewares/LVGL/GUI/lvgl/src/draw/sw/lv_draw_sw_mask.c **** }
 222:../../Middlewares/LVGL/GUI/lvgl/src/draw/sw/lv_draw_sw_mask.c **** 
 223:../../Middlewares/LVGL/GUI/lvgl/src/draw/sw/lv_draw_sw_mask.c **** void lv_draw_sw_mask_line_angle_init(lv_draw_sw_mask_line_param_t * param, int32_t p1x, int32_t py,
 224:../../Middlewares/LVGL/GUI/lvgl/src/draw/sw/lv_draw_sw_mask.c ****                                      lv_draw_sw_mask_line_side_t side)
 225:../../Middlewares/LVGL/GUI/lvgl/src/draw/sw/lv_draw_sw_mask.c **** {
 226:../../Middlewares/LVGL/GUI/lvgl/src/draw/sw/lv_draw_sw_mask.c ****     /*Find an optimal degree.
 227:../../Middlewares/LVGL/GUI/lvgl/src/draw/sw/lv_draw_sw_mask.c ****      *lv_mask_line_points_init will swap the points to keep the smaller y in p1
 228:../../Middlewares/LVGL/GUI/lvgl/src/draw/sw/lv_draw_sw_mask.c ****      *Theoretically a line with `angle` or `angle+180` is the same only the points are swapped
 229:../../Middlewares/LVGL/GUI/lvgl/src/draw/sw/lv_draw_sw_mask.c ****      *Find the degree which keeps the origo in place*/
 230:../../Middlewares/LVGL/GUI/lvgl/src/draw/sw/lv_draw_sw_mask.c ****     if(angle > 180) angle -= 180; /*> 180 will swap the origo*/
 231:../../Middlewares/LVGL/GUI/lvgl/src/draw/sw/lv_draw_sw_mask.c **** 
 232:../../Middlewares/LVGL/GUI/lvgl/src/draw/sw/lv_draw_sw_mask.c ****     int32_t p2x;
 233:../../Middlewares/LVGL/GUI/lvgl/src/draw/sw/lv_draw_sw_mask.c ****     int32_t p2y;
 234:../../Middlewares/LVGL/GUI/lvgl/src/draw/sw/lv_draw_sw_mask.c **** 
 235:../../Middlewares/LVGL/GUI/lvgl/src/draw/sw/lv_draw_sw_mask.c ****     p2x = (lv_trigo_sin(angle + 90) >> 5) + p1x;
 236:../../Middlewares/LVGL/GUI/lvgl/src/draw/sw/lv_draw_sw_mask.c ****     p2y = (lv_trigo_sin(angle) >> 5) + py;
 237:../../Middlewares/LVGL/GUI/lvgl/src/draw/sw/lv_draw_sw_mask.c **** 
 238:../../Middlewares/LVGL/GUI/lvgl/src/draw/sw/lv_draw_sw_mask.c ****     lv_draw_sw_mask_line_points_init(param, p1x, py, p2x, p2y, side);
 239:../../Middlewares/LVGL/GUI/lvgl/src/draw/sw/lv_draw_sw_mask.c **** }
 240:../../Middlewares/LVGL/GUI/lvgl/src/draw/sw/lv_draw_sw_mask.c **** 
 241:../../Middlewares/LVGL/GUI/lvgl/src/draw/sw/lv_draw_sw_mask.c **** void lv_draw_sw_mask_angle_init(lv_draw_sw_mask_angle_param_t * param, int32_t vertex_x, int32_t ve
 242:../../Middlewares/LVGL/GUI/lvgl/src/draw/sw/lv_draw_sw_mask.c ****                                 int32_t start_angle, int32_t end_angle)
 243:../../Middlewares/LVGL/GUI/lvgl/src/draw/sw/lv_draw_sw_mask.c **** {
 244:../../Middlewares/LVGL/GUI/lvgl/src/draw/sw/lv_draw_sw_mask.c ****     lv_draw_sw_mask_line_side_t start_side;
 245:../../Middlewares/LVGL/GUI/lvgl/src/draw/sw/lv_draw_sw_mask.c ****     lv_draw_sw_mask_line_side_t end_side;
 246:../../Middlewares/LVGL/GUI/lvgl/src/draw/sw/lv_draw_sw_mask.c **** 
 247:../../Middlewares/LVGL/GUI/lvgl/src/draw/sw/lv_draw_sw_mask.c ****     /*Constrain the input angles*/
 248:../../Middlewares/LVGL/GUI/lvgl/src/draw/sw/lv_draw_sw_mask.c ****     if(start_angle < 0)
 249:../../Middlewares/LVGL/GUI/lvgl/src/draw/sw/lv_draw_sw_mask.c ****         start_angle = 0;
 250:../../Middlewares/LVGL/GUI/lvgl/src/draw/sw/lv_draw_sw_mask.c ****     else if(start_angle > 359)
 251:../../Middlewares/LVGL/GUI/lvgl/src/draw/sw/lv_draw_sw_mask.c ****         start_angle = 359;
 252:../../Middlewares/LVGL/GUI/lvgl/src/draw/sw/lv_draw_sw_mask.c **** 
 253:../../Middlewares/LVGL/GUI/lvgl/src/draw/sw/lv_draw_sw_mask.c ****     if(end_angle < 0)
 254:../../Middlewares/LVGL/GUI/lvgl/src/draw/sw/lv_draw_sw_mask.c ****         end_angle = 0;
 255:../../Middlewares/LVGL/GUI/lvgl/src/draw/sw/lv_draw_sw_mask.c ****     else if(end_angle > 359)
 256:../../Middlewares/LVGL/GUI/lvgl/src/draw/sw/lv_draw_sw_mask.c ****         end_angle = 359;
 257:../../Middlewares/LVGL/GUI/lvgl/src/draw/sw/lv_draw_sw_mask.c **** 
 258:../../Middlewares/LVGL/GUI/lvgl/src/draw/sw/lv_draw_sw_mask.c ****     if(end_angle < start_angle) {
 259:../../Middlewares/LVGL/GUI/lvgl/src/draw/sw/lv_draw_sw_mask.c ****         param->delta_deg = 360 - start_angle + end_angle;
ARM GAS  C:\Users\28576\AppData\Local\Temp\ccagJBpt.s 			page 6


 260:../../Middlewares/LVGL/GUI/lvgl/src/draw/sw/lv_draw_sw_mask.c ****     }
 261:../../Middlewares/LVGL/GUI/lvgl/src/draw/sw/lv_draw_sw_mask.c ****     else {
 262:../../Middlewares/LVGL/GUI/lvgl/src/draw/sw/lv_draw_sw_mask.c ****         param->delta_deg = LV_ABS(end_angle - start_angle);
 263:../../Middlewares/LVGL/GUI/lvgl/src/draw/sw/lv_draw_sw_mask.c ****     }
 264:../../Middlewares/LVGL/GUI/lvgl/src/draw/sw/lv_draw_sw_mask.c **** 
 265:../../Middlewares/LVGL/GUI/lvgl/src/draw/sw/lv_draw_sw_mask.c ****     param->cfg.start_angle = start_angle;
 266:../../Middlewares/LVGL/GUI/lvgl/src/draw/sw/lv_draw_sw_mask.c ****     param->cfg.end_angle = end_angle;
 267:../../Middlewares/LVGL/GUI/lvgl/src/draw/sw/lv_draw_sw_mask.c ****     lv_point_set(&param->cfg.vertex_p, vertex_x, vertex_y);
 268:../../Middlewares/LVGL/GUI/lvgl/src/draw/sw/lv_draw_sw_mask.c ****     param->dsc.cb = (lv_draw_sw_mask_xcb_t)lv_draw_mask_angle;
 269:../../Middlewares/LVGL/GUI/lvgl/src/draw/sw/lv_draw_sw_mask.c ****     param->dsc.type = LV_DRAW_SW_MASK_TYPE_ANGLE;
 270:../../Middlewares/LVGL/GUI/lvgl/src/draw/sw/lv_draw_sw_mask.c **** 
 271:../../Middlewares/LVGL/GUI/lvgl/src/draw/sw/lv_draw_sw_mask.c ****     LV_ASSERT_MSG(start_angle >= 0 && start_angle <= 360, "Unexpected start angle");
 272:../../Middlewares/LVGL/GUI/lvgl/src/draw/sw/lv_draw_sw_mask.c **** 
 273:../../Middlewares/LVGL/GUI/lvgl/src/draw/sw/lv_draw_sw_mask.c ****     if(start_angle >= 0 && start_angle < 180) {
 274:../../Middlewares/LVGL/GUI/lvgl/src/draw/sw/lv_draw_sw_mask.c ****         start_side = LV_DRAW_SW_MASK_LINE_SIDE_LEFT;
 275:../../Middlewares/LVGL/GUI/lvgl/src/draw/sw/lv_draw_sw_mask.c ****     }
 276:../../Middlewares/LVGL/GUI/lvgl/src/draw/sw/lv_draw_sw_mask.c ****     else
 277:../../Middlewares/LVGL/GUI/lvgl/src/draw/sw/lv_draw_sw_mask.c ****         start_side = LV_DRAW_SW_MASK_LINE_SIDE_RIGHT; /*silence compiler*/
 278:../../Middlewares/LVGL/GUI/lvgl/src/draw/sw/lv_draw_sw_mask.c **** 
 279:../../Middlewares/LVGL/GUI/lvgl/src/draw/sw/lv_draw_sw_mask.c ****     LV_ASSERT_MSG(end_angle >= 0 && start_angle <= 360, "Unexpected end angle");
 280:../../Middlewares/LVGL/GUI/lvgl/src/draw/sw/lv_draw_sw_mask.c **** 
 281:../../Middlewares/LVGL/GUI/lvgl/src/draw/sw/lv_draw_sw_mask.c ****     if(end_angle >= 0 && end_angle < 180) {
 282:../../Middlewares/LVGL/GUI/lvgl/src/draw/sw/lv_draw_sw_mask.c ****         end_side = LV_DRAW_SW_MASK_LINE_SIDE_RIGHT;
 283:../../Middlewares/LVGL/GUI/lvgl/src/draw/sw/lv_draw_sw_mask.c ****     }
 284:../../Middlewares/LVGL/GUI/lvgl/src/draw/sw/lv_draw_sw_mask.c ****     else if(end_angle >= 180 && end_angle < 360) {
 285:../../Middlewares/LVGL/GUI/lvgl/src/draw/sw/lv_draw_sw_mask.c ****         end_side = LV_DRAW_SW_MASK_LINE_SIDE_LEFT;
 286:../../Middlewares/LVGL/GUI/lvgl/src/draw/sw/lv_draw_sw_mask.c ****     }
 287:../../Middlewares/LVGL/GUI/lvgl/src/draw/sw/lv_draw_sw_mask.c ****     else
 288:../../Middlewares/LVGL/GUI/lvgl/src/draw/sw/lv_draw_sw_mask.c ****         end_side = LV_DRAW_SW_MASK_LINE_SIDE_RIGHT; /*silence compiler*/
 289:../../Middlewares/LVGL/GUI/lvgl/src/draw/sw/lv_draw_sw_mask.c **** 
 290:../../Middlewares/LVGL/GUI/lvgl/src/draw/sw/lv_draw_sw_mask.c ****     lv_draw_sw_mask_line_angle_init(&param->start_line, vertex_x, vertex_y, start_angle, start_side
 291:../../Middlewares/LVGL/GUI/lvgl/src/draw/sw/lv_draw_sw_mask.c ****     lv_draw_sw_mask_line_angle_init(&param->end_line, vertex_x, vertex_y, end_angle, end_side);
 292:../../Middlewares/LVGL/GUI/lvgl/src/draw/sw/lv_draw_sw_mask.c **** }
 293:../../Middlewares/LVGL/GUI/lvgl/src/draw/sw/lv_draw_sw_mask.c **** 
 294:../../Middlewares/LVGL/GUI/lvgl/src/draw/sw/lv_draw_sw_mask.c **** void lv_draw_sw_mask_radius_init(lv_draw_sw_mask_radius_param_t * param, const lv_area_t * rect, in
 295:../../Middlewares/LVGL/GUI/lvgl/src/draw/sw/lv_draw_sw_mask.c ****                                  bool inv)
 296:../../Middlewares/LVGL/GUI/lvgl/src/draw/sw/lv_draw_sw_mask.c **** {
 297:../../Middlewares/LVGL/GUI/lvgl/src/draw/sw/lv_draw_sw_mask.c ****     int32_t w = lv_area_get_width(rect);
 298:../../Middlewares/LVGL/GUI/lvgl/src/draw/sw/lv_draw_sw_mask.c ****     int32_t h = lv_area_get_height(rect);
 299:../../Middlewares/LVGL/GUI/lvgl/src/draw/sw/lv_draw_sw_mask.c ****     int32_t short_side = LV_MIN(w, h);
 300:../../Middlewares/LVGL/GUI/lvgl/src/draw/sw/lv_draw_sw_mask.c ****     if(radius > short_side >> 1) radius = short_side >> 1;
 301:../../Middlewares/LVGL/GUI/lvgl/src/draw/sw/lv_draw_sw_mask.c ****     if(radius < 0) radius = 0;
 302:../../Middlewares/LVGL/GUI/lvgl/src/draw/sw/lv_draw_sw_mask.c **** 
 303:../../Middlewares/LVGL/GUI/lvgl/src/draw/sw/lv_draw_sw_mask.c ****     lv_area_copy(&param->cfg.rect, rect);
 304:../../Middlewares/LVGL/GUI/lvgl/src/draw/sw/lv_draw_sw_mask.c ****     param->cfg.radius = radius;
 305:../../Middlewares/LVGL/GUI/lvgl/src/draw/sw/lv_draw_sw_mask.c ****     param->cfg.outer = inv ? 1 : 0;
 306:../../Middlewares/LVGL/GUI/lvgl/src/draw/sw/lv_draw_sw_mask.c ****     param->dsc.cb = (lv_draw_sw_mask_xcb_t)lv_draw_mask_radius;
 307:../../Middlewares/LVGL/GUI/lvgl/src/draw/sw/lv_draw_sw_mask.c ****     param->dsc.type = LV_DRAW_SW_MASK_TYPE_RADIUS;
 308:../../Middlewares/LVGL/GUI/lvgl/src/draw/sw/lv_draw_sw_mask.c **** 
 309:../../Middlewares/LVGL/GUI/lvgl/src/draw/sw/lv_draw_sw_mask.c ****     if(radius == 0) {
 310:../../Middlewares/LVGL/GUI/lvgl/src/draw/sw/lv_draw_sw_mask.c ****         param->circle = NULL;
 311:../../Middlewares/LVGL/GUI/lvgl/src/draw/sw/lv_draw_sw_mask.c ****         return;
 312:../../Middlewares/LVGL/GUI/lvgl/src/draw/sw/lv_draw_sw_mask.c ****     }
 313:../../Middlewares/LVGL/GUI/lvgl/src/draw/sw/lv_draw_sw_mask.c **** 
 314:../../Middlewares/LVGL/GUI/lvgl/src/draw/sw/lv_draw_sw_mask.c ****     lv_mutex_lock(&circle_cache_mutex);
 315:../../Middlewares/LVGL/GUI/lvgl/src/draw/sw/lv_draw_sw_mask.c **** 
 316:../../Middlewares/LVGL/GUI/lvgl/src/draw/sw/lv_draw_sw_mask.c ****     uint32_t i;
ARM GAS  C:\Users\28576\AppData\Local\Temp\ccagJBpt.s 			page 7


 317:../../Middlewares/LVGL/GUI/lvgl/src/draw/sw/lv_draw_sw_mask.c **** 
 318:../../Middlewares/LVGL/GUI/lvgl/src/draw/sw/lv_draw_sw_mask.c ****     /*Try to reuse a circle cache entry*/
 319:../../Middlewares/LVGL/GUI/lvgl/src/draw/sw/lv_draw_sw_mask.c ****     for(i = 0; i < LV_DRAW_SW_CIRCLE_CACHE_SIZE; i++) {
 320:../../Middlewares/LVGL/GUI/lvgl/src/draw/sw/lv_draw_sw_mask.c ****         if(_circle_cache[i].radius == radius) {
 321:../../Middlewares/LVGL/GUI/lvgl/src/draw/sw/lv_draw_sw_mask.c ****             _circle_cache[i].used_cnt++;
 322:../../Middlewares/LVGL/GUI/lvgl/src/draw/sw/lv_draw_sw_mask.c ****             CIRCLE_CACHE_AGING(_circle_cache[i].life, radius);
 323:../../Middlewares/LVGL/GUI/lvgl/src/draw/sw/lv_draw_sw_mask.c ****             param->circle = &(_circle_cache[i]);
 324:../../Middlewares/LVGL/GUI/lvgl/src/draw/sw/lv_draw_sw_mask.c ****             lv_mutex_unlock(&circle_cache_mutex);
 325:../../Middlewares/LVGL/GUI/lvgl/src/draw/sw/lv_draw_sw_mask.c ****             return;
 326:../../Middlewares/LVGL/GUI/lvgl/src/draw/sw/lv_draw_sw_mask.c ****         }
 327:../../Middlewares/LVGL/GUI/lvgl/src/draw/sw/lv_draw_sw_mask.c ****     }
 328:../../Middlewares/LVGL/GUI/lvgl/src/draw/sw/lv_draw_sw_mask.c **** 
 329:../../Middlewares/LVGL/GUI/lvgl/src/draw/sw/lv_draw_sw_mask.c ****     /*If not cached use the free entry with lowest life*/
 330:../../Middlewares/LVGL/GUI/lvgl/src/draw/sw/lv_draw_sw_mask.c ****     lv_draw_sw_mask_radius_circle_dsc_t * entry = NULL;
 331:../../Middlewares/LVGL/GUI/lvgl/src/draw/sw/lv_draw_sw_mask.c ****     for(i = 0; i < LV_DRAW_SW_CIRCLE_CACHE_SIZE; i++) {
 332:../../Middlewares/LVGL/GUI/lvgl/src/draw/sw/lv_draw_sw_mask.c ****         if(_circle_cache[i].used_cnt == 0) {
 333:../../Middlewares/LVGL/GUI/lvgl/src/draw/sw/lv_draw_sw_mask.c ****             if(!entry) entry = &(_circle_cache[i]);
 334:../../Middlewares/LVGL/GUI/lvgl/src/draw/sw/lv_draw_sw_mask.c ****             else if(_circle_cache[i].life < entry->life) entry = &(_circle_cache[i]);
 335:../../Middlewares/LVGL/GUI/lvgl/src/draw/sw/lv_draw_sw_mask.c ****         }
 336:../../Middlewares/LVGL/GUI/lvgl/src/draw/sw/lv_draw_sw_mask.c ****     }
 337:../../Middlewares/LVGL/GUI/lvgl/src/draw/sw/lv_draw_sw_mask.c **** 
 338:../../Middlewares/LVGL/GUI/lvgl/src/draw/sw/lv_draw_sw_mask.c ****     /*There is no unused entry. Allocate one temporarily*/
 339:../../Middlewares/LVGL/GUI/lvgl/src/draw/sw/lv_draw_sw_mask.c ****     if(!entry) {
 340:../../Middlewares/LVGL/GUI/lvgl/src/draw/sw/lv_draw_sw_mask.c ****         entry = lv_malloc_zeroed(sizeof(lv_draw_sw_mask_radius_circle_dsc_t));
 341:../../Middlewares/LVGL/GUI/lvgl/src/draw/sw/lv_draw_sw_mask.c ****         LV_ASSERT_MALLOC(entry);
 342:../../Middlewares/LVGL/GUI/lvgl/src/draw/sw/lv_draw_sw_mask.c ****         entry->life = -1;
 343:../../Middlewares/LVGL/GUI/lvgl/src/draw/sw/lv_draw_sw_mask.c ****     }
 344:../../Middlewares/LVGL/GUI/lvgl/src/draw/sw/lv_draw_sw_mask.c ****     else {
 345:../../Middlewares/LVGL/GUI/lvgl/src/draw/sw/lv_draw_sw_mask.c ****         entry->used_cnt++;
 346:../../Middlewares/LVGL/GUI/lvgl/src/draw/sw/lv_draw_sw_mask.c ****         entry->life = 0;
 347:../../Middlewares/LVGL/GUI/lvgl/src/draw/sw/lv_draw_sw_mask.c ****         CIRCLE_CACHE_AGING(entry->life, radius);
 348:../../Middlewares/LVGL/GUI/lvgl/src/draw/sw/lv_draw_sw_mask.c ****     }
 349:../../Middlewares/LVGL/GUI/lvgl/src/draw/sw/lv_draw_sw_mask.c **** 
 350:../../Middlewares/LVGL/GUI/lvgl/src/draw/sw/lv_draw_sw_mask.c ****     param->circle = entry;
 351:../../Middlewares/LVGL/GUI/lvgl/src/draw/sw/lv_draw_sw_mask.c **** 
 352:../../Middlewares/LVGL/GUI/lvgl/src/draw/sw/lv_draw_sw_mask.c ****     circ_calc_aa4(param->circle, radius);
 353:../../Middlewares/LVGL/GUI/lvgl/src/draw/sw/lv_draw_sw_mask.c ****     lv_mutex_unlock(&circle_cache_mutex);
 354:../../Middlewares/LVGL/GUI/lvgl/src/draw/sw/lv_draw_sw_mask.c **** 
 355:../../Middlewares/LVGL/GUI/lvgl/src/draw/sw/lv_draw_sw_mask.c **** }
 356:../../Middlewares/LVGL/GUI/lvgl/src/draw/sw/lv_draw_sw_mask.c **** 
 357:../../Middlewares/LVGL/GUI/lvgl/src/draw/sw/lv_draw_sw_mask.c **** void lv_draw_sw_mask_fade_init(lv_draw_sw_mask_fade_param_t * param, const lv_area_t * coords, lv_o
 358:../../Middlewares/LVGL/GUI/lvgl/src/draw/sw/lv_draw_sw_mask.c ****                                int32_t y_top,
 359:../../Middlewares/LVGL/GUI/lvgl/src/draw/sw/lv_draw_sw_mask.c ****                                lv_opa_t opa_bottom, int32_t y_bottom)
 360:../../Middlewares/LVGL/GUI/lvgl/src/draw/sw/lv_draw_sw_mask.c **** {
 361:../../Middlewares/LVGL/GUI/lvgl/src/draw/sw/lv_draw_sw_mask.c ****     lv_area_copy(&param->cfg.coords, coords);
 362:../../Middlewares/LVGL/GUI/lvgl/src/draw/sw/lv_draw_sw_mask.c ****     param->cfg.opa_top = opa_top;
 363:../../Middlewares/LVGL/GUI/lvgl/src/draw/sw/lv_draw_sw_mask.c ****     param->cfg.opa_bottom = opa_bottom;
 364:../../Middlewares/LVGL/GUI/lvgl/src/draw/sw/lv_draw_sw_mask.c ****     param->cfg.y_top = y_top;
 365:../../Middlewares/LVGL/GUI/lvgl/src/draw/sw/lv_draw_sw_mask.c ****     param->cfg.y_bottom = y_bottom;
 366:../../Middlewares/LVGL/GUI/lvgl/src/draw/sw/lv_draw_sw_mask.c ****     param->dsc.cb = (lv_draw_sw_mask_xcb_t)lv_draw_mask_fade;
 367:../../Middlewares/LVGL/GUI/lvgl/src/draw/sw/lv_draw_sw_mask.c ****     param->dsc.type = LV_DRAW_SW_MASK_TYPE_FADE;
 368:../../Middlewares/LVGL/GUI/lvgl/src/draw/sw/lv_draw_sw_mask.c **** }
 369:../../Middlewares/LVGL/GUI/lvgl/src/draw/sw/lv_draw_sw_mask.c **** 
 370:../../Middlewares/LVGL/GUI/lvgl/src/draw/sw/lv_draw_sw_mask.c **** void lv_draw_sw_mask_map_init(lv_draw_sw_mask_map_param_t * param, const lv_area_t * coords, const 
 371:../../Middlewares/LVGL/GUI/lvgl/src/draw/sw/lv_draw_sw_mask.c **** {
 372:../../Middlewares/LVGL/GUI/lvgl/src/draw/sw/lv_draw_sw_mask.c ****     lv_area_copy(&param->cfg.coords, coords);
 373:../../Middlewares/LVGL/GUI/lvgl/src/draw/sw/lv_draw_sw_mask.c ****     param->cfg.map = map;
ARM GAS  C:\Users\28576\AppData\Local\Temp\ccagJBpt.s 			page 8


 374:../../Middlewares/LVGL/GUI/lvgl/src/draw/sw/lv_draw_sw_mask.c ****     param->dsc.cb = (lv_draw_sw_mask_xcb_t)lv_draw_mask_map;
 375:../../Middlewares/LVGL/GUI/lvgl/src/draw/sw/lv_draw_sw_mask.c ****     param->dsc.type = LV_DRAW_SW_MASK_TYPE_MAP;
 376:../../Middlewares/LVGL/GUI/lvgl/src/draw/sw/lv_draw_sw_mask.c **** }
 377:../../Middlewares/LVGL/GUI/lvgl/src/draw/sw/lv_draw_sw_mask.c **** 
 378:../../Middlewares/LVGL/GUI/lvgl/src/draw/sw/lv_draw_sw_mask.c **** /**********************
 379:../../Middlewares/LVGL/GUI/lvgl/src/draw/sw/lv_draw_sw_mask.c ****  *   STATIC FUNCTIONS
 380:../../Middlewares/LVGL/GUI/lvgl/src/draw/sw/lv_draw_sw_mask.c ****  **********************/
 381:../../Middlewares/LVGL/GUI/lvgl/src/draw/sw/lv_draw_sw_mask.c **** 
 382:../../Middlewares/LVGL/GUI/lvgl/src/draw/sw/lv_draw_sw_mask.c **** static lv_draw_sw_mask_res_t LV_ATTRIBUTE_FAST_MEM lv_draw_mask_line(lv_opa_t * mask_buf, int32_t a
 383:../../Middlewares/LVGL/GUI/lvgl/src/draw/sw/lv_draw_sw_mask.c ****                                                                      int32_t abs_y, int32_t len,
 384:../../Middlewares/LVGL/GUI/lvgl/src/draw/sw/lv_draw_sw_mask.c ****                                                                      lv_draw_sw_mask_line_param_t *
 385:../../Middlewares/LVGL/GUI/lvgl/src/draw/sw/lv_draw_sw_mask.c **** {
 386:../../Middlewares/LVGL/GUI/lvgl/src/draw/sw/lv_draw_sw_mask.c ****     /*Make to points relative to the vertex*/
 387:../../Middlewares/LVGL/GUI/lvgl/src/draw/sw/lv_draw_sw_mask.c ****     abs_y -= p->origo.y;
 388:../../Middlewares/LVGL/GUI/lvgl/src/draw/sw/lv_draw_sw_mask.c ****     abs_x -= p->origo.x;
 389:../../Middlewares/LVGL/GUI/lvgl/src/draw/sw/lv_draw_sw_mask.c **** 
 390:../../Middlewares/LVGL/GUI/lvgl/src/draw/sw/lv_draw_sw_mask.c ****     /*Handle special cases*/
 391:../../Middlewares/LVGL/GUI/lvgl/src/draw/sw/lv_draw_sw_mask.c ****     if(p->steep == 0) {
 392:../../Middlewares/LVGL/GUI/lvgl/src/draw/sw/lv_draw_sw_mask.c ****         /*Horizontal*/
 393:../../Middlewares/LVGL/GUI/lvgl/src/draw/sw/lv_draw_sw_mask.c ****         if(p->flat) {
 394:../../Middlewares/LVGL/GUI/lvgl/src/draw/sw/lv_draw_sw_mask.c ****             /*Non sense: Can't be on the right/left of a horizontal line*/
 395:../../Middlewares/LVGL/GUI/lvgl/src/draw/sw/lv_draw_sw_mask.c ****             if(p->cfg.side == LV_DRAW_SW_MASK_LINE_SIDE_LEFT ||
 396:../../Middlewares/LVGL/GUI/lvgl/src/draw/sw/lv_draw_sw_mask.c ****                p->cfg.side == LV_DRAW_SW_MASK_LINE_SIDE_RIGHT) return LV_DRAW_SW_MASK_RES_FULL_COVE
 397:../../Middlewares/LVGL/GUI/lvgl/src/draw/sw/lv_draw_sw_mask.c ****             else if(p->cfg.side == LV_DRAW_SW_MASK_LINE_SIDE_TOP && abs_y < 0) return LV_DRAW_SW_MA
 398:../../Middlewares/LVGL/GUI/lvgl/src/draw/sw/lv_draw_sw_mask.c ****             else if(p->cfg.side == LV_DRAW_SW_MASK_LINE_SIDE_BOTTOM && abs_y > 0) return LV_DRAW_SW
 399:../../Middlewares/LVGL/GUI/lvgl/src/draw/sw/lv_draw_sw_mask.c ****             else {
 400:../../Middlewares/LVGL/GUI/lvgl/src/draw/sw/lv_draw_sw_mask.c ****                 return LV_DRAW_SW_MASK_RES_TRANSP;
 401:../../Middlewares/LVGL/GUI/lvgl/src/draw/sw/lv_draw_sw_mask.c ****             }
 402:../../Middlewares/LVGL/GUI/lvgl/src/draw/sw/lv_draw_sw_mask.c ****         }
 403:../../Middlewares/LVGL/GUI/lvgl/src/draw/sw/lv_draw_sw_mask.c ****         /*Vertical*/
 404:../../Middlewares/LVGL/GUI/lvgl/src/draw/sw/lv_draw_sw_mask.c ****         else {
 405:../../Middlewares/LVGL/GUI/lvgl/src/draw/sw/lv_draw_sw_mask.c ****             /*Non sense: Can't be on the top/bottom of a vertical line*/
 406:../../Middlewares/LVGL/GUI/lvgl/src/draw/sw/lv_draw_sw_mask.c ****             if(p->cfg.side == LV_DRAW_SW_MASK_LINE_SIDE_TOP ||
 407:../../Middlewares/LVGL/GUI/lvgl/src/draw/sw/lv_draw_sw_mask.c ****                p->cfg.side == LV_DRAW_SW_MASK_LINE_SIDE_BOTTOM) return LV_DRAW_SW_MASK_RES_FULL_COV
 408:../../Middlewares/LVGL/GUI/lvgl/src/draw/sw/lv_draw_sw_mask.c ****             else if(p->cfg.side == LV_DRAW_SW_MASK_LINE_SIDE_RIGHT && abs_x > 0) return LV_DRAW_SW_
 409:../../Middlewares/LVGL/GUI/lvgl/src/draw/sw/lv_draw_sw_mask.c ****             else if(p->cfg.side == LV_DRAW_SW_MASK_LINE_SIDE_LEFT) {
 410:../../Middlewares/LVGL/GUI/lvgl/src/draw/sw/lv_draw_sw_mask.c ****                 if(abs_x + len < 0) return LV_DRAW_SW_MASK_RES_FULL_COVER;
 411:../../Middlewares/LVGL/GUI/lvgl/src/draw/sw/lv_draw_sw_mask.c ****                 else {
 412:../../Middlewares/LVGL/GUI/lvgl/src/draw/sw/lv_draw_sw_mask.c ****                     int32_t k = - abs_x;
 413:../../Middlewares/LVGL/GUI/lvgl/src/draw/sw/lv_draw_sw_mask.c ****                     if(k < 0) return LV_DRAW_SW_MASK_RES_TRANSP;
 414:../../Middlewares/LVGL/GUI/lvgl/src/draw/sw/lv_draw_sw_mask.c ****                     if(k >= 0 && k < len) lv_memzero(&mask_buf[k], len - k);
 415:../../Middlewares/LVGL/GUI/lvgl/src/draw/sw/lv_draw_sw_mask.c ****                     return  LV_DRAW_SW_MASK_RES_CHANGED;
 416:../../Middlewares/LVGL/GUI/lvgl/src/draw/sw/lv_draw_sw_mask.c ****                 }
 417:../../Middlewares/LVGL/GUI/lvgl/src/draw/sw/lv_draw_sw_mask.c ****             }
 418:../../Middlewares/LVGL/GUI/lvgl/src/draw/sw/lv_draw_sw_mask.c ****             else {
 419:../../Middlewares/LVGL/GUI/lvgl/src/draw/sw/lv_draw_sw_mask.c ****                 if(abs_x + len < 0) return LV_DRAW_SW_MASK_RES_TRANSP;
 420:../../Middlewares/LVGL/GUI/lvgl/src/draw/sw/lv_draw_sw_mask.c ****                 else {
 421:../../Middlewares/LVGL/GUI/lvgl/src/draw/sw/lv_draw_sw_mask.c ****                     int32_t k = - abs_x;
 422:../../Middlewares/LVGL/GUI/lvgl/src/draw/sw/lv_draw_sw_mask.c ****                     if(k < 0) k = 0;
 423:../../Middlewares/LVGL/GUI/lvgl/src/draw/sw/lv_draw_sw_mask.c ****                     if(k >= len) return LV_DRAW_SW_MASK_RES_TRANSP;
 424:../../Middlewares/LVGL/GUI/lvgl/src/draw/sw/lv_draw_sw_mask.c ****                     else if(k >= 0 && k < len) lv_memzero(&mask_buf[0], k);
 425:../../Middlewares/LVGL/GUI/lvgl/src/draw/sw/lv_draw_sw_mask.c ****                     return  LV_DRAW_SW_MASK_RES_CHANGED;
 426:../../Middlewares/LVGL/GUI/lvgl/src/draw/sw/lv_draw_sw_mask.c ****                 }
 427:../../Middlewares/LVGL/GUI/lvgl/src/draw/sw/lv_draw_sw_mask.c ****             }
 428:../../Middlewares/LVGL/GUI/lvgl/src/draw/sw/lv_draw_sw_mask.c ****         }
 429:../../Middlewares/LVGL/GUI/lvgl/src/draw/sw/lv_draw_sw_mask.c ****     }
 430:../../Middlewares/LVGL/GUI/lvgl/src/draw/sw/lv_draw_sw_mask.c **** 
ARM GAS  C:\Users\28576\AppData\Local\Temp\ccagJBpt.s 			page 9


 431:../../Middlewares/LVGL/GUI/lvgl/src/draw/sw/lv_draw_sw_mask.c ****     lv_draw_sw_mask_res_t res;
 432:../../Middlewares/LVGL/GUI/lvgl/src/draw/sw/lv_draw_sw_mask.c ****     if(p->flat) {
 433:../../Middlewares/LVGL/GUI/lvgl/src/draw/sw/lv_draw_sw_mask.c ****         res = line_mask_flat(mask_buf, abs_x, abs_y, len, p);
 434:../../Middlewares/LVGL/GUI/lvgl/src/draw/sw/lv_draw_sw_mask.c ****     }
 435:../../Middlewares/LVGL/GUI/lvgl/src/draw/sw/lv_draw_sw_mask.c ****     else {
 436:../../Middlewares/LVGL/GUI/lvgl/src/draw/sw/lv_draw_sw_mask.c ****         res = line_mask_steep(mask_buf, abs_x, abs_y, len, p);
 437:../../Middlewares/LVGL/GUI/lvgl/src/draw/sw/lv_draw_sw_mask.c ****     }
 438:../../Middlewares/LVGL/GUI/lvgl/src/draw/sw/lv_draw_sw_mask.c **** 
 439:../../Middlewares/LVGL/GUI/lvgl/src/draw/sw/lv_draw_sw_mask.c ****     return res;
 440:../../Middlewares/LVGL/GUI/lvgl/src/draw/sw/lv_draw_sw_mask.c **** }
 441:../../Middlewares/LVGL/GUI/lvgl/src/draw/sw/lv_draw_sw_mask.c **** 
 442:../../Middlewares/LVGL/GUI/lvgl/src/draw/sw/lv_draw_sw_mask.c **** static lv_draw_sw_mask_res_t LV_ATTRIBUTE_FAST_MEM line_mask_flat(lv_opa_t * mask_buf, int32_t abs_
 443:../../Middlewares/LVGL/GUI/lvgl/src/draw/sw/lv_draw_sw_mask.c ****                                                                   int32_t abs_y,
 444:../../Middlewares/LVGL/GUI/lvgl/src/draw/sw/lv_draw_sw_mask.c ****                                                                   int32_t len,
 445:../../Middlewares/LVGL/GUI/lvgl/src/draw/sw/lv_draw_sw_mask.c ****                                                                   lv_draw_sw_mask_line_param_t * p)
 446:../../Middlewares/LVGL/GUI/lvgl/src/draw/sw/lv_draw_sw_mask.c **** {
 447:../../Middlewares/LVGL/GUI/lvgl/src/draw/sw/lv_draw_sw_mask.c **** 
 448:../../Middlewares/LVGL/GUI/lvgl/src/draw/sw/lv_draw_sw_mask.c ****     int32_t y_at_x;
 449:../../Middlewares/LVGL/GUI/lvgl/src/draw/sw/lv_draw_sw_mask.c ****     y_at_x = (int32_t)((int32_t)p->yx_steep * abs_x) >> 10;
 450:../../Middlewares/LVGL/GUI/lvgl/src/draw/sw/lv_draw_sw_mask.c **** 
 451:../../Middlewares/LVGL/GUI/lvgl/src/draw/sw/lv_draw_sw_mask.c ****     if(p->yx_steep > 0) {
 452:../../Middlewares/LVGL/GUI/lvgl/src/draw/sw/lv_draw_sw_mask.c ****         if(y_at_x > abs_y) {
 453:../../Middlewares/LVGL/GUI/lvgl/src/draw/sw/lv_draw_sw_mask.c ****             if(p->inv) {
 454:../../Middlewares/LVGL/GUI/lvgl/src/draw/sw/lv_draw_sw_mask.c ****                 return LV_DRAW_SW_MASK_RES_FULL_COVER;
 455:../../Middlewares/LVGL/GUI/lvgl/src/draw/sw/lv_draw_sw_mask.c ****             }
 456:../../Middlewares/LVGL/GUI/lvgl/src/draw/sw/lv_draw_sw_mask.c ****             else {
 457:../../Middlewares/LVGL/GUI/lvgl/src/draw/sw/lv_draw_sw_mask.c ****                 return LV_DRAW_SW_MASK_RES_TRANSP;
 458:../../Middlewares/LVGL/GUI/lvgl/src/draw/sw/lv_draw_sw_mask.c ****             }
 459:../../Middlewares/LVGL/GUI/lvgl/src/draw/sw/lv_draw_sw_mask.c ****         }
 460:../../Middlewares/LVGL/GUI/lvgl/src/draw/sw/lv_draw_sw_mask.c ****     }
 461:../../Middlewares/LVGL/GUI/lvgl/src/draw/sw/lv_draw_sw_mask.c ****     else {
 462:../../Middlewares/LVGL/GUI/lvgl/src/draw/sw/lv_draw_sw_mask.c ****         if(y_at_x < abs_y) {
 463:../../Middlewares/LVGL/GUI/lvgl/src/draw/sw/lv_draw_sw_mask.c ****             if(p->inv) {
 464:../../Middlewares/LVGL/GUI/lvgl/src/draw/sw/lv_draw_sw_mask.c ****                 return LV_DRAW_SW_MASK_RES_FULL_COVER;
 465:../../Middlewares/LVGL/GUI/lvgl/src/draw/sw/lv_draw_sw_mask.c ****             }
 466:../../Middlewares/LVGL/GUI/lvgl/src/draw/sw/lv_draw_sw_mask.c ****             else {
 467:../../Middlewares/LVGL/GUI/lvgl/src/draw/sw/lv_draw_sw_mask.c ****                 return LV_DRAW_SW_MASK_RES_TRANSP;
 468:../../Middlewares/LVGL/GUI/lvgl/src/draw/sw/lv_draw_sw_mask.c ****             }
 469:../../Middlewares/LVGL/GUI/lvgl/src/draw/sw/lv_draw_sw_mask.c ****         }
 470:../../Middlewares/LVGL/GUI/lvgl/src/draw/sw/lv_draw_sw_mask.c ****     }
 471:../../Middlewares/LVGL/GUI/lvgl/src/draw/sw/lv_draw_sw_mask.c **** 
 472:../../Middlewares/LVGL/GUI/lvgl/src/draw/sw/lv_draw_sw_mask.c ****     /*At the end of the mask if the limit line is smaller than the mask's y.
 473:../../Middlewares/LVGL/GUI/lvgl/src/draw/sw/lv_draw_sw_mask.c ****      *Then the mask is in the "good" area*/
 474:../../Middlewares/LVGL/GUI/lvgl/src/draw/sw/lv_draw_sw_mask.c ****     y_at_x = (int32_t)((int32_t)p->yx_steep * (abs_x + len)) >> 10;
 475:../../Middlewares/LVGL/GUI/lvgl/src/draw/sw/lv_draw_sw_mask.c ****     if(p->yx_steep > 0) {
 476:../../Middlewares/LVGL/GUI/lvgl/src/draw/sw/lv_draw_sw_mask.c ****         if(y_at_x < abs_y) {
 477:../../Middlewares/LVGL/GUI/lvgl/src/draw/sw/lv_draw_sw_mask.c ****             if(p->inv) {
 478:../../Middlewares/LVGL/GUI/lvgl/src/draw/sw/lv_draw_sw_mask.c ****                 return LV_DRAW_SW_MASK_RES_TRANSP;
 479:../../Middlewares/LVGL/GUI/lvgl/src/draw/sw/lv_draw_sw_mask.c ****             }
 480:../../Middlewares/LVGL/GUI/lvgl/src/draw/sw/lv_draw_sw_mask.c ****             else {
 481:../../Middlewares/LVGL/GUI/lvgl/src/draw/sw/lv_draw_sw_mask.c ****                 return LV_DRAW_SW_MASK_RES_FULL_COVER;
 482:../../Middlewares/LVGL/GUI/lvgl/src/draw/sw/lv_draw_sw_mask.c ****             }
 483:../../Middlewares/LVGL/GUI/lvgl/src/draw/sw/lv_draw_sw_mask.c ****         }
 484:../../Middlewares/LVGL/GUI/lvgl/src/draw/sw/lv_draw_sw_mask.c ****     }
 485:../../Middlewares/LVGL/GUI/lvgl/src/draw/sw/lv_draw_sw_mask.c ****     else {
 486:../../Middlewares/LVGL/GUI/lvgl/src/draw/sw/lv_draw_sw_mask.c ****         if(y_at_x > abs_y) {
 487:../../Middlewares/LVGL/GUI/lvgl/src/draw/sw/lv_draw_sw_mask.c ****             if(p->inv) {
ARM GAS  C:\Users\28576\AppData\Local\Temp\ccagJBpt.s 			page 10


 488:../../Middlewares/LVGL/GUI/lvgl/src/draw/sw/lv_draw_sw_mask.c ****                 return LV_DRAW_SW_MASK_RES_TRANSP;
 489:../../Middlewares/LVGL/GUI/lvgl/src/draw/sw/lv_draw_sw_mask.c ****             }
 490:../../Middlewares/LVGL/GUI/lvgl/src/draw/sw/lv_draw_sw_mask.c ****             else {
 491:../../Middlewares/LVGL/GUI/lvgl/src/draw/sw/lv_draw_sw_mask.c ****                 return LV_DRAW_SW_MASK_RES_FULL_COVER;
 492:../../Middlewares/LVGL/GUI/lvgl/src/draw/sw/lv_draw_sw_mask.c ****             }
 493:../../Middlewares/LVGL/GUI/lvgl/src/draw/sw/lv_draw_sw_mask.c ****         }
 494:../../Middlewares/LVGL/GUI/lvgl/src/draw/sw/lv_draw_sw_mask.c ****     }
 495:../../Middlewares/LVGL/GUI/lvgl/src/draw/sw/lv_draw_sw_mask.c **** 
 496:../../Middlewares/LVGL/GUI/lvgl/src/draw/sw/lv_draw_sw_mask.c ****     int32_t xe;
 497:../../Middlewares/LVGL/GUI/lvgl/src/draw/sw/lv_draw_sw_mask.c ****     if(p->yx_steep > 0) xe = ((abs_y * 256) * p->xy_steep) >> 10;
 498:../../Middlewares/LVGL/GUI/lvgl/src/draw/sw/lv_draw_sw_mask.c ****     else xe = (((abs_y + 1) * 256) * p->xy_steep) >> 10;
 499:../../Middlewares/LVGL/GUI/lvgl/src/draw/sw/lv_draw_sw_mask.c **** 
 500:../../Middlewares/LVGL/GUI/lvgl/src/draw/sw/lv_draw_sw_mask.c ****     int32_t xei = xe >> 8;
 501:../../Middlewares/LVGL/GUI/lvgl/src/draw/sw/lv_draw_sw_mask.c ****     int32_t xef = xe & 0xFF;
 502:../../Middlewares/LVGL/GUI/lvgl/src/draw/sw/lv_draw_sw_mask.c **** 
 503:../../Middlewares/LVGL/GUI/lvgl/src/draw/sw/lv_draw_sw_mask.c ****     int32_t px_h;
 504:../../Middlewares/LVGL/GUI/lvgl/src/draw/sw/lv_draw_sw_mask.c ****     if(xef == 0) px_h = 255;
 505:../../Middlewares/LVGL/GUI/lvgl/src/draw/sw/lv_draw_sw_mask.c ****     else px_h = 255 - (((255 - xef) * p->spx) >> 8);
 506:../../Middlewares/LVGL/GUI/lvgl/src/draw/sw/lv_draw_sw_mask.c ****     int32_t k = xei - abs_x;
 507:../../Middlewares/LVGL/GUI/lvgl/src/draw/sw/lv_draw_sw_mask.c ****     lv_opa_t m;
 508:../../Middlewares/LVGL/GUI/lvgl/src/draw/sw/lv_draw_sw_mask.c **** 
 509:../../Middlewares/LVGL/GUI/lvgl/src/draw/sw/lv_draw_sw_mask.c ****     if(xef) {
 510:../../Middlewares/LVGL/GUI/lvgl/src/draw/sw/lv_draw_sw_mask.c ****         if(k >= 0 && k < len) {
 511:../../Middlewares/LVGL/GUI/lvgl/src/draw/sw/lv_draw_sw_mask.c ****             m = 255 - (((255 - xef) * (255 - px_h)) >> 9);
 512:../../Middlewares/LVGL/GUI/lvgl/src/draw/sw/lv_draw_sw_mask.c ****             if(p->inv) m = 255 - m;
 513:../../Middlewares/LVGL/GUI/lvgl/src/draw/sw/lv_draw_sw_mask.c ****             mask_buf[k] = mask_mix(mask_buf[k], m);
 514:../../Middlewares/LVGL/GUI/lvgl/src/draw/sw/lv_draw_sw_mask.c ****         }
 515:../../Middlewares/LVGL/GUI/lvgl/src/draw/sw/lv_draw_sw_mask.c ****         k++;
 516:../../Middlewares/LVGL/GUI/lvgl/src/draw/sw/lv_draw_sw_mask.c ****     }
 517:../../Middlewares/LVGL/GUI/lvgl/src/draw/sw/lv_draw_sw_mask.c **** 
 518:../../Middlewares/LVGL/GUI/lvgl/src/draw/sw/lv_draw_sw_mask.c ****     while(px_h > p->spx) {
 519:../../Middlewares/LVGL/GUI/lvgl/src/draw/sw/lv_draw_sw_mask.c ****         if(k >= 0 && k < len) {
 520:../../Middlewares/LVGL/GUI/lvgl/src/draw/sw/lv_draw_sw_mask.c ****             m = px_h - (p->spx >> 1);
 521:../../Middlewares/LVGL/GUI/lvgl/src/draw/sw/lv_draw_sw_mask.c ****             if(p->inv) m = 255 - m;
 522:../../Middlewares/LVGL/GUI/lvgl/src/draw/sw/lv_draw_sw_mask.c ****             mask_buf[k] = mask_mix(mask_buf[k], m);
 523:../../Middlewares/LVGL/GUI/lvgl/src/draw/sw/lv_draw_sw_mask.c ****         }
 524:../../Middlewares/LVGL/GUI/lvgl/src/draw/sw/lv_draw_sw_mask.c ****         px_h -= p->spx;
 525:../../Middlewares/LVGL/GUI/lvgl/src/draw/sw/lv_draw_sw_mask.c ****         k++;
 526:../../Middlewares/LVGL/GUI/lvgl/src/draw/sw/lv_draw_sw_mask.c ****         if(k >= len) break;
 527:../../Middlewares/LVGL/GUI/lvgl/src/draw/sw/lv_draw_sw_mask.c ****     }
 528:../../Middlewares/LVGL/GUI/lvgl/src/draw/sw/lv_draw_sw_mask.c **** 
 529:../../Middlewares/LVGL/GUI/lvgl/src/draw/sw/lv_draw_sw_mask.c ****     if(k < len && k >= 0) {
 530:../../Middlewares/LVGL/GUI/lvgl/src/draw/sw/lv_draw_sw_mask.c ****         int32_t x_inters = (px_h * p->xy_steep) >> 10;
 531:../../Middlewares/LVGL/GUI/lvgl/src/draw/sw/lv_draw_sw_mask.c ****         m = (x_inters * px_h) >> 9;
 532:../../Middlewares/LVGL/GUI/lvgl/src/draw/sw/lv_draw_sw_mask.c ****         if(p->yx_steep < 0) m = 255 - m;
 533:../../Middlewares/LVGL/GUI/lvgl/src/draw/sw/lv_draw_sw_mask.c ****         if(p->inv) m = 255 - m;
 534:../../Middlewares/LVGL/GUI/lvgl/src/draw/sw/lv_draw_sw_mask.c ****         mask_buf[k] = mask_mix(mask_buf[k], m);
 535:../../Middlewares/LVGL/GUI/lvgl/src/draw/sw/lv_draw_sw_mask.c ****     }
 536:../../Middlewares/LVGL/GUI/lvgl/src/draw/sw/lv_draw_sw_mask.c **** 
 537:../../Middlewares/LVGL/GUI/lvgl/src/draw/sw/lv_draw_sw_mask.c ****     if(p->inv) {
 538:../../Middlewares/LVGL/GUI/lvgl/src/draw/sw/lv_draw_sw_mask.c ****         k = xei - abs_x;
 539:../../Middlewares/LVGL/GUI/lvgl/src/draw/sw/lv_draw_sw_mask.c ****         if(k > len) {
 540:../../Middlewares/LVGL/GUI/lvgl/src/draw/sw/lv_draw_sw_mask.c ****             return LV_DRAW_SW_MASK_RES_TRANSP;
 541:../../Middlewares/LVGL/GUI/lvgl/src/draw/sw/lv_draw_sw_mask.c ****         }
 542:../../Middlewares/LVGL/GUI/lvgl/src/draw/sw/lv_draw_sw_mask.c ****         if(k >= 0) {
 543:../../Middlewares/LVGL/GUI/lvgl/src/draw/sw/lv_draw_sw_mask.c ****             lv_memzero(&mask_buf[0], k);
 544:../../Middlewares/LVGL/GUI/lvgl/src/draw/sw/lv_draw_sw_mask.c ****         }
ARM GAS  C:\Users\28576\AppData\Local\Temp\ccagJBpt.s 			page 11


 545:../../Middlewares/LVGL/GUI/lvgl/src/draw/sw/lv_draw_sw_mask.c ****     }
 546:../../Middlewares/LVGL/GUI/lvgl/src/draw/sw/lv_draw_sw_mask.c ****     else {
 547:../../Middlewares/LVGL/GUI/lvgl/src/draw/sw/lv_draw_sw_mask.c ****         k++;
 548:../../Middlewares/LVGL/GUI/lvgl/src/draw/sw/lv_draw_sw_mask.c ****         if(k < 0) {
 549:../../Middlewares/LVGL/GUI/lvgl/src/draw/sw/lv_draw_sw_mask.c ****             return LV_DRAW_SW_MASK_RES_TRANSP;
 550:../../Middlewares/LVGL/GUI/lvgl/src/draw/sw/lv_draw_sw_mask.c ****         }
 551:../../Middlewares/LVGL/GUI/lvgl/src/draw/sw/lv_draw_sw_mask.c ****         if(k <= len) {
 552:../../Middlewares/LVGL/GUI/lvgl/src/draw/sw/lv_draw_sw_mask.c ****             lv_memzero(&mask_buf[k], len - k);
 553:../../Middlewares/LVGL/GUI/lvgl/src/draw/sw/lv_draw_sw_mask.c ****         }
 554:../../Middlewares/LVGL/GUI/lvgl/src/draw/sw/lv_draw_sw_mask.c ****     }
 555:../../Middlewares/LVGL/GUI/lvgl/src/draw/sw/lv_draw_sw_mask.c **** 
 556:../../Middlewares/LVGL/GUI/lvgl/src/draw/sw/lv_draw_sw_mask.c ****     return LV_DRAW_SW_MASK_RES_CHANGED;
 557:../../Middlewares/LVGL/GUI/lvgl/src/draw/sw/lv_draw_sw_mask.c **** }
 558:../../Middlewares/LVGL/GUI/lvgl/src/draw/sw/lv_draw_sw_mask.c **** 
 559:../../Middlewares/LVGL/GUI/lvgl/src/draw/sw/lv_draw_sw_mask.c **** static lv_draw_sw_mask_res_t LV_ATTRIBUTE_FAST_MEM line_mask_steep(lv_opa_t * mask_buf, int32_t abs
 560:../../Middlewares/LVGL/GUI/lvgl/src/draw/sw/lv_draw_sw_mask.c ****                                                                    int32_t abs_y,
 561:../../Middlewares/LVGL/GUI/lvgl/src/draw/sw/lv_draw_sw_mask.c ****                                                                    int32_t len,
 562:../../Middlewares/LVGL/GUI/lvgl/src/draw/sw/lv_draw_sw_mask.c ****                                                                    lv_draw_sw_mask_line_param_t * p
 563:../../Middlewares/LVGL/GUI/lvgl/src/draw/sw/lv_draw_sw_mask.c **** {
 564:../../Middlewares/LVGL/GUI/lvgl/src/draw/sw/lv_draw_sw_mask.c ****     int32_t k;
 565:../../Middlewares/LVGL/GUI/lvgl/src/draw/sw/lv_draw_sw_mask.c ****     int32_t x_at_y;
 566:../../Middlewares/LVGL/GUI/lvgl/src/draw/sw/lv_draw_sw_mask.c ****     /*At the beginning of the mask if the limit line is greater than the mask's y.
 567:../../Middlewares/LVGL/GUI/lvgl/src/draw/sw/lv_draw_sw_mask.c ****      *Then the mask is in the "wrong" area*/
 568:../../Middlewares/LVGL/GUI/lvgl/src/draw/sw/lv_draw_sw_mask.c ****     x_at_y = (int32_t)((int32_t)p->xy_steep * abs_y) >> 10;
 569:../../Middlewares/LVGL/GUI/lvgl/src/draw/sw/lv_draw_sw_mask.c ****     if(p->xy_steep > 0) x_at_y++;
 570:../../Middlewares/LVGL/GUI/lvgl/src/draw/sw/lv_draw_sw_mask.c ****     if(x_at_y < abs_x) {
 571:../../Middlewares/LVGL/GUI/lvgl/src/draw/sw/lv_draw_sw_mask.c ****         if(p->inv) {
 572:../../Middlewares/LVGL/GUI/lvgl/src/draw/sw/lv_draw_sw_mask.c ****             return LV_DRAW_SW_MASK_RES_FULL_COVER;
 573:../../Middlewares/LVGL/GUI/lvgl/src/draw/sw/lv_draw_sw_mask.c ****         }
 574:../../Middlewares/LVGL/GUI/lvgl/src/draw/sw/lv_draw_sw_mask.c ****         else {
 575:../../Middlewares/LVGL/GUI/lvgl/src/draw/sw/lv_draw_sw_mask.c ****             return LV_DRAW_SW_MASK_RES_TRANSP;
 576:../../Middlewares/LVGL/GUI/lvgl/src/draw/sw/lv_draw_sw_mask.c ****         }
 577:../../Middlewares/LVGL/GUI/lvgl/src/draw/sw/lv_draw_sw_mask.c ****     }
 578:../../Middlewares/LVGL/GUI/lvgl/src/draw/sw/lv_draw_sw_mask.c **** 
 579:../../Middlewares/LVGL/GUI/lvgl/src/draw/sw/lv_draw_sw_mask.c ****     /*At the end of the mask if the limit line is smaller than the mask's y.
 580:../../Middlewares/LVGL/GUI/lvgl/src/draw/sw/lv_draw_sw_mask.c ****      *Then the mask is in the "good" area*/
 581:../../Middlewares/LVGL/GUI/lvgl/src/draw/sw/lv_draw_sw_mask.c ****     x_at_y = (int32_t)((int32_t)p->xy_steep * (abs_y)) >> 10;
 582:../../Middlewares/LVGL/GUI/lvgl/src/draw/sw/lv_draw_sw_mask.c ****     if(x_at_y > abs_x + len) {
 583:../../Middlewares/LVGL/GUI/lvgl/src/draw/sw/lv_draw_sw_mask.c ****         if(p->inv) {
 584:../../Middlewares/LVGL/GUI/lvgl/src/draw/sw/lv_draw_sw_mask.c ****             return LV_DRAW_SW_MASK_RES_TRANSP;
 585:../../Middlewares/LVGL/GUI/lvgl/src/draw/sw/lv_draw_sw_mask.c ****         }
 586:../../Middlewares/LVGL/GUI/lvgl/src/draw/sw/lv_draw_sw_mask.c ****         else {
 587:../../Middlewares/LVGL/GUI/lvgl/src/draw/sw/lv_draw_sw_mask.c ****             return LV_DRAW_SW_MASK_RES_FULL_COVER;
 588:../../Middlewares/LVGL/GUI/lvgl/src/draw/sw/lv_draw_sw_mask.c ****         }
 589:../../Middlewares/LVGL/GUI/lvgl/src/draw/sw/lv_draw_sw_mask.c ****     }
 590:../../Middlewares/LVGL/GUI/lvgl/src/draw/sw/lv_draw_sw_mask.c **** 
 591:../../Middlewares/LVGL/GUI/lvgl/src/draw/sw/lv_draw_sw_mask.c ****     /*X start*/
 592:../../Middlewares/LVGL/GUI/lvgl/src/draw/sw/lv_draw_sw_mask.c ****     int32_t xs = ((abs_y * 256) * p->xy_steep) >> 10;
 593:../../Middlewares/LVGL/GUI/lvgl/src/draw/sw/lv_draw_sw_mask.c ****     int32_t xsi = xs >> 8;
 594:../../Middlewares/LVGL/GUI/lvgl/src/draw/sw/lv_draw_sw_mask.c ****     int32_t xsf = xs & 0xFF;
 595:../../Middlewares/LVGL/GUI/lvgl/src/draw/sw/lv_draw_sw_mask.c **** 
 596:../../Middlewares/LVGL/GUI/lvgl/src/draw/sw/lv_draw_sw_mask.c ****     /*X end*/
 597:../../Middlewares/LVGL/GUI/lvgl/src/draw/sw/lv_draw_sw_mask.c ****     int32_t xe = (((abs_y + 1) * 256) * p->xy_steep) >> 10;
 598:../../Middlewares/LVGL/GUI/lvgl/src/draw/sw/lv_draw_sw_mask.c ****     int32_t xei = xe >> 8;
 599:../../Middlewares/LVGL/GUI/lvgl/src/draw/sw/lv_draw_sw_mask.c ****     int32_t xef = xe & 0xFF;
 600:../../Middlewares/LVGL/GUI/lvgl/src/draw/sw/lv_draw_sw_mask.c **** 
 601:../../Middlewares/LVGL/GUI/lvgl/src/draw/sw/lv_draw_sw_mask.c ****     lv_opa_t m;
ARM GAS  C:\Users\28576\AppData\Local\Temp\ccagJBpt.s 			page 12


 602:../../Middlewares/LVGL/GUI/lvgl/src/draw/sw/lv_draw_sw_mask.c **** 
 603:../../Middlewares/LVGL/GUI/lvgl/src/draw/sw/lv_draw_sw_mask.c ****     k = xsi - abs_x;
 604:../../Middlewares/LVGL/GUI/lvgl/src/draw/sw/lv_draw_sw_mask.c ****     if(xsi != xei && (p->xy_steep < 0 && xsf == 0)) {
 605:../../Middlewares/LVGL/GUI/lvgl/src/draw/sw/lv_draw_sw_mask.c ****         xsf = 0xFF;
 606:../../Middlewares/LVGL/GUI/lvgl/src/draw/sw/lv_draw_sw_mask.c ****         xsi = xei;
 607:../../Middlewares/LVGL/GUI/lvgl/src/draw/sw/lv_draw_sw_mask.c ****         k--;
 608:../../Middlewares/LVGL/GUI/lvgl/src/draw/sw/lv_draw_sw_mask.c ****     }
 609:../../Middlewares/LVGL/GUI/lvgl/src/draw/sw/lv_draw_sw_mask.c **** 
 610:../../Middlewares/LVGL/GUI/lvgl/src/draw/sw/lv_draw_sw_mask.c ****     if(xsi == xei) {
 611:../../Middlewares/LVGL/GUI/lvgl/src/draw/sw/lv_draw_sw_mask.c ****         if(k >= 0 && k < len) {
 612:../../Middlewares/LVGL/GUI/lvgl/src/draw/sw/lv_draw_sw_mask.c ****             m = (xsf + xef) >> 1;
 613:../../Middlewares/LVGL/GUI/lvgl/src/draw/sw/lv_draw_sw_mask.c ****             if(p->inv) m = 255 - m;
 614:../../Middlewares/LVGL/GUI/lvgl/src/draw/sw/lv_draw_sw_mask.c ****             mask_buf[k] = mask_mix(mask_buf[k], m);
 615:../../Middlewares/LVGL/GUI/lvgl/src/draw/sw/lv_draw_sw_mask.c ****         }
 616:../../Middlewares/LVGL/GUI/lvgl/src/draw/sw/lv_draw_sw_mask.c ****         k++;
 617:../../Middlewares/LVGL/GUI/lvgl/src/draw/sw/lv_draw_sw_mask.c **** 
 618:../../Middlewares/LVGL/GUI/lvgl/src/draw/sw/lv_draw_sw_mask.c ****         if(p->inv) {
 619:../../Middlewares/LVGL/GUI/lvgl/src/draw/sw/lv_draw_sw_mask.c ****             k = xsi - abs_x;
 620:../../Middlewares/LVGL/GUI/lvgl/src/draw/sw/lv_draw_sw_mask.c ****             if(k >= len) {
 621:../../Middlewares/LVGL/GUI/lvgl/src/draw/sw/lv_draw_sw_mask.c ****                 return LV_DRAW_SW_MASK_RES_TRANSP;
 622:../../Middlewares/LVGL/GUI/lvgl/src/draw/sw/lv_draw_sw_mask.c ****             }
 623:../../Middlewares/LVGL/GUI/lvgl/src/draw/sw/lv_draw_sw_mask.c ****             if(k >= 0) lv_memzero(&mask_buf[0], k);
 624:../../Middlewares/LVGL/GUI/lvgl/src/draw/sw/lv_draw_sw_mask.c **** 
 625:../../Middlewares/LVGL/GUI/lvgl/src/draw/sw/lv_draw_sw_mask.c ****         }
 626:../../Middlewares/LVGL/GUI/lvgl/src/draw/sw/lv_draw_sw_mask.c ****         else {
 627:../../Middlewares/LVGL/GUI/lvgl/src/draw/sw/lv_draw_sw_mask.c ****             if(k > len) k = len;
 628:../../Middlewares/LVGL/GUI/lvgl/src/draw/sw/lv_draw_sw_mask.c ****             if(k == 0) return LV_DRAW_SW_MASK_RES_TRANSP;
 629:../../Middlewares/LVGL/GUI/lvgl/src/draw/sw/lv_draw_sw_mask.c ****             else if(k > 0) lv_memzero(&mask_buf[k],  len - k);
 630:../../Middlewares/LVGL/GUI/lvgl/src/draw/sw/lv_draw_sw_mask.c ****         }
 631:../../Middlewares/LVGL/GUI/lvgl/src/draw/sw/lv_draw_sw_mask.c **** 
 632:../../Middlewares/LVGL/GUI/lvgl/src/draw/sw/lv_draw_sw_mask.c ****     }
 633:../../Middlewares/LVGL/GUI/lvgl/src/draw/sw/lv_draw_sw_mask.c ****     else {
 634:../../Middlewares/LVGL/GUI/lvgl/src/draw/sw/lv_draw_sw_mask.c ****         int32_t y_inters;
 635:../../Middlewares/LVGL/GUI/lvgl/src/draw/sw/lv_draw_sw_mask.c ****         if(p->xy_steep < 0) {
 636:../../Middlewares/LVGL/GUI/lvgl/src/draw/sw/lv_draw_sw_mask.c ****             y_inters = (xsf * (-p->yx_steep)) >> 10;
 637:../../Middlewares/LVGL/GUI/lvgl/src/draw/sw/lv_draw_sw_mask.c ****             if(k >= 0 && k < len) {
 638:../../Middlewares/LVGL/GUI/lvgl/src/draw/sw/lv_draw_sw_mask.c ****                 m = (y_inters * xsf) >> 9;
 639:../../Middlewares/LVGL/GUI/lvgl/src/draw/sw/lv_draw_sw_mask.c ****                 if(p->inv) m = 255 - m;
 640:../../Middlewares/LVGL/GUI/lvgl/src/draw/sw/lv_draw_sw_mask.c ****                 mask_buf[k] = mask_mix(mask_buf[k], m);
 641:../../Middlewares/LVGL/GUI/lvgl/src/draw/sw/lv_draw_sw_mask.c ****             }
 642:../../Middlewares/LVGL/GUI/lvgl/src/draw/sw/lv_draw_sw_mask.c ****             k--;
 643:../../Middlewares/LVGL/GUI/lvgl/src/draw/sw/lv_draw_sw_mask.c **** 
 644:../../Middlewares/LVGL/GUI/lvgl/src/draw/sw/lv_draw_sw_mask.c ****             int32_t x_inters = ((255 - y_inters) * (-p->xy_steep)) >> 10;
 645:../../Middlewares/LVGL/GUI/lvgl/src/draw/sw/lv_draw_sw_mask.c **** 
 646:../../Middlewares/LVGL/GUI/lvgl/src/draw/sw/lv_draw_sw_mask.c ****             if(k >= 0 && k < len) {
 647:../../Middlewares/LVGL/GUI/lvgl/src/draw/sw/lv_draw_sw_mask.c ****                 m = 255 - (((255 - y_inters) * x_inters) >> 9);
 648:../../Middlewares/LVGL/GUI/lvgl/src/draw/sw/lv_draw_sw_mask.c ****                 if(p->inv) m = 255 - m;
 649:../../Middlewares/LVGL/GUI/lvgl/src/draw/sw/lv_draw_sw_mask.c ****                 mask_buf[k] = mask_mix(mask_buf[k], m);
 650:../../Middlewares/LVGL/GUI/lvgl/src/draw/sw/lv_draw_sw_mask.c ****             }
 651:../../Middlewares/LVGL/GUI/lvgl/src/draw/sw/lv_draw_sw_mask.c **** 
 652:../../Middlewares/LVGL/GUI/lvgl/src/draw/sw/lv_draw_sw_mask.c ****             k += 2;
 653:../../Middlewares/LVGL/GUI/lvgl/src/draw/sw/lv_draw_sw_mask.c **** 
 654:../../Middlewares/LVGL/GUI/lvgl/src/draw/sw/lv_draw_sw_mask.c ****             if(p->inv) {
 655:../../Middlewares/LVGL/GUI/lvgl/src/draw/sw/lv_draw_sw_mask.c ****                 k = xsi - abs_x - 1;
 656:../../Middlewares/LVGL/GUI/lvgl/src/draw/sw/lv_draw_sw_mask.c **** 
 657:../../Middlewares/LVGL/GUI/lvgl/src/draw/sw/lv_draw_sw_mask.c ****                 if(k > len) k = len;
 658:../../Middlewares/LVGL/GUI/lvgl/src/draw/sw/lv_draw_sw_mask.c ****                 else if(k > 0) lv_memzero(&mask_buf[0],  k);
ARM GAS  C:\Users\28576\AppData\Local\Temp\ccagJBpt.s 			page 13


 659:../../Middlewares/LVGL/GUI/lvgl/src/draw/sw/lv_draw_sw_mask.c **** 
 660:../../Middlewares/LVGL/GUI/lvgl/src/draw/sw/lv_draw_sw_mask.c ****             }
 661:../../Middlewares/LVGL/GUI/lvgl/src/draw/sw/lv_draw_sw_mask.c ****             else {
 662:../../Middlewares/LVGL/GUI/lvgl/src/draw/sw/lv_draw_sw_mask.c ****                 if(k > len) return LV_DRAW_SW_MASK_RES_FULL_COVER;
 663:../../Middlewares/LVGL/GUI/lvgl/src/draw/sw/lv_draw_sw_mask.c ****                 if(k >= 0) lv_memzero(&mask_buf[k],  len - k);
 664:../../Middlewares/LVGL/GUI/lvgl/src/draw/sw/lv_draw_sw_mask.c ****             }
 665:../../Middlewares/LVGL/GUI/lvgl/src/draw/sw/lv_draw_sw_mask.c **** 
 666:../../Middlewares/LVGL/GUI/lvgl/src/draw/sw/lv_draw_sw_mask.c ****         }
 667:../../Middlewares/LVGL/GUI/lvgl/src/draw/sw/lv_draw_sw_mask.c ****         else {
 668:../../Middlewares/LVGL/GUI/lvgl/src/draw/sw/lv_draw_sw_mask.c ****             y_inters = ((255 - xsf) * p->yx_steep) >> 10;
 669:../../Middlewares/LVGL/GUI/lvgl/src/draw/sw/lv_draw_sw_mask.c ****             if(k >= 0 && k < len) {
 670:../../Middlewares/LVGL/GUI/lvgl/src/draw/sw/lv_draw_sw_mask.c ****                 m = 255 - ((y_inters * (255 - xsf)) >> 9);
 671:../../Middlewares/LVGL/GUI/lvgl/src/draw/sw/lv_draw_sw_mask.c ****                 if(p->inv) m = 255 - m;
 672:../../Middlewares/LVGL/GUI/lvgl/src/draw/sw/lv_draw_sw_mask.c ****                 mask_buf[k] = mask_mix(mask_buf[k], m);
 673:../../Middlewares/LVGL/GUI/lvgl/src/draw/sw/lv_draw_sw_mask.c ****             }
 674:../../Middlewares/LVGL/GUI/lvgl/src/draw/sw/lv_draw_sw_mask.c **** 
 675:../../Middlewares/LVGL/GUI/lvgl/src/draw/sw/lv_draw_sw_mask.c ****             k++;
 676:../../Middlewares/LVGL/GUI/lvgl/src/draw/sw/lv_draw_sw_mask.c **** 
 677:../../Middlewares/LVGL/GUI/lvgl/src/draw/sw/lv_draw_sw_mask.c ****             int32_t x_inters = ((255 - y_inters) * p->xy_steep) >> 10;
 678:../../Middlewares/LVGL/GUI/lvgl/src/draw/sw/lv_draw_sw_mask.c ****             if(k >= 0 && k < len) {
 679:../../Middlewares/LVGL/GUI/lvgl/src/draw/sw/lv_draw_sw_mask.c ****                 m = ((255 - y_inters) * x_inters) >> 9;
 680:../../Middlewares/LVGL/GUI/lvgl/src/draw/sw/lv_draw_sw_mask.c ****                 if(p->inv) m = 255 - m;
 681:../../Middlewares/LVGL/GUI/lvgl/src/draw/sw/lv_draw_sw_mask.c ****                 mask_buf[k] = mask_mix(mask_buf[k], m);
 682:../../Middlewares/LVGL/GUI/lvgl/src/draw/sw/lv_draw_sw_mask.c ****             }
 683:../../Middlewares/LVGL/GUI/lvgl/src/draw/sw/lv_draw_sw_mask.c ****             k++;
 684:../../Middlewares/LVGL/GUI/lvgl/src/draw/sw/lv_draw_sw_mask.c **** 
 685:../../Middlewares/LVGL/GUI/lvgl/src/draw/sw/lv_draw_sw_mask.c ****             if(p->inv) {
 686:../../Middlewares/LVGL/GUI/lvgl/src/draw/sw/lv_draw_sw_mask.c ****                 k = xsi - abs_x;
 687:../../Middlewares/LVGL/GUI/lvgl/src/draw/sw/lv_draw_sw_mask.c ****                 if(k > len)  return LV_DRAW_SW_MASK_RES_TRANSP;
 688:../../Middlewares/LVGL/GUI/lvgl/src/draw/sw/lv_draw_sw_mask.c ****                 if(k >= 0) lv_memzero(&mask_buf[0],  k);
 689:../../Middlewares/LVGL/GUI/lvgl/src/draw/sw/lv_draw_sw_mask.c **** 
 690:../../Middlewares/LVGL/GUI/lvgl/src/draw/sw/lv_draw_sw_mask.c ****             }
 691:../../Middlewares/LVGL/GUI/lvgl/src/draw/sw/lv_draw_sw_mask.c ****             else {
 692:../../Middlewares/LVGL/GUI/lvgl/src/draw/sw/lv_draw_sw_mask.c ****                 if(k > len) k = len;
 693:../../Middlewares/LVGL/GUI/lvgl/src/draw/sw/lv_draw_sw_mask.c ****                 if(k == 0) return LV_DRAW_SW_MASK_RES_TRANSP;
 694:../../Middlewares/LVGL/GUI/lvgl/src/draw/sw/lv_draw_sw_mask.c ****                 else if(k > 0) lv_memzero(&mask_buf[k],  len - k);
 695:../../Middlewares/LVGL/GUI/lvgl/src/draw/sw/lv_draw_sw_mask.c ****             }
 696:../../Middlewares/LVGL/GUI/lvgl/src/draw/sw/lv_draw_sw_mask.c ****         }
 697:../../Middlewares/LVGL/GUI/lvgl/src/draw/sw/lv_draw_sw_mask.c ****     }
 698:../../Middlewares/LVGL/GUI/lvgl/src/draw/sw/lv_draw_sw_mask.c **** 
 699:../../Middlewares/LVGL/GUI/lvgl/src/draw/sw/lv_draw_sw_mask.c ****     return LV_DRAW_SW_MASK_RES_CHANGED;
 700:../../Middlewares/LVGL/GUI/lvgl/src/draw/sw/lv_draw_sw_mask.c **** }
 701:../../Middlewares/LVGL/GUI/lvgl/src/draw/sw/lv_draw_sw_mask.c **** 
 702:../../Middlewares/LVGL/GUI/lvgl/src/draw/sw/lv_draw_sw_mask.c **** static lv_draw_sw_mask_res_t LV_ATTRIBUTE_FAST_MEM lv_draw_mask_angle(lv_opa_t * mask_buf, int32_t 
 703:../../Middlewares/LVGL/GUI/lvgl/src/draw/sw/lv_draw_sw_mask.c ****                                                                       int32_t abs_y, int32_t len,
 704:../../Middlewares/LVGL/GUI/lvgl/src/draw/sw/lv_draw_sw_mask.c ****                                                                       lv_draw_sw_mask_angle_param_t
 705:../../Middlewares/LVGL/GUI/lvgl/src/draw/sw/lv_draw_sw_mask.c **** {
 706:../../Middlewares/LVGL/GUI/lvgl/src/draw/sw/lv_draw_sw_mask.c ****     int32_t rel_y = abs_y - p->cfg.vertex_p.y;
 707:../../Middlewares/LVGL/GUI/lvgl/src/draw/sw/lv_draw_sw_mask.c ****     int32_t rel_x = abs_x - p->cfg.vertex_p.x;
 708:../../Middlewares/LVGL/GUI/lvgl/src/draw/sw/lv_draw_sw_mask.c **** 
 709:../../Middlewares/LVGL/GUI/lvgl/src/draw/sw/lv_draw_sw_mask.c ****     if(p->cfg.start_angle < 180 && p->cfg.end_angle < 180 &&
 710:../../Middlewares/LVGL/GUI/lvgl/src/draw/sw/lv_draw_sw_mask.c ****        p->cfg.start_angle != 0  && p->cfg.end_angle != 0 &&
 711:../../Middlewares/LVGL/GUI/lvgl/src/draw/sw/lv_draw_sw_mask.c ****        p->cfg.start_angle > p->cfg.end_angle) {
 712:../../Middlewares/LVGL/GUI/lvgl/src/draw/sw/lv_draw_sw_mask.c **** 
 713:../../Middlewares/LVGL/GUI/lvgl/src/draw/sw/lv_draw_sw_mask.c ****         if(abs_y < p->cfg.vertex_p.y) {
 714:../../Middlewares/LVGL/GUI/lvgl/src/draw/sw/lv_draw_sw_mask.c ****             return LV_DRAW_SW_MASK_RES_FULL_COVER;
 715:../../Middlewares/LVGL/GUI/lvgl/src/draw/sw/lv_draw_sw_mask.c ****         }
ARM GAS  C:\Users\28576\AppData\Local\Temp\ccagJBpt.s 			page 14


 716:../../Middlewares/LVGL/GUI/lvgl/src/draw/sw/lv_draw_sw_mask.c **** 
 717:../../Middlewares/LVGL/GUI/lvgl/src/draw/sw/lv_draw_sw_mask.c ****         /*Start angle mask can work only from the end of end angle mask*/
 718:../../Middlewares/LVGL/GUI/lvgl/src/draw/sw/lv_draw_sw_mask.c ****         int32_t end_angle_first = (rel_y * p->end_line.xy_steep) >> 10;
 719:../../Middlewares/LVGL/GUI/lvgl/src/draw/sw/lv_draw_sw_mask.c ****         int32_t start_angle_last = ((rel_y + 1) * p->start_line.xy_steep) >> 10;
 720:../../Middlewares/LVGL/GUI/lvgl/src/draw/sw/lv_draw_sw_mask.c **** 
 721:../../Middlewares/LVGL/GUI/lvgl/src/draw/sw/lv_draw_sw_mask.c ****         /*Do not let the line end cross the vertex else it will affect the opposite part*/
 722:../../Middlewares/LVGL/GUI/lvgl/src/draw/sw/lv_draw_sw_mask.c ****         if(p->cfg.start_angle > 270 && p->cfg.start_angle <= 359 && start_angle_last < 0) start_ang
 723:../../Middlewares/LVGL/GUI/lvgl/src/draw/sw/lv_draw_sw_mask.c ****         else if(p->cfg.start_angle > 0 && p->cfg.start_angle <= 90 && start_angle_last < 0) start_a
 724:../../Middlewares/LVGL/GUI/lvgl/src/draw/sw/lv_draw_sw_mask.c ****         else if(p->cfg.start_angle > 90 && p->cfg.start_angle < 270 && start_angle_last > 0) start_
 725:../../Middlewares/LVGL/GUI/lvgl/src/draw/sw/lv_draw_sw_mask.c **** 
 726:../../Middlewares/LVGL/GUI/lvgl/src/draw/sw/lv_draw_sw_mask.c ****         if(p->cfg.end_angle > 270 && p->cfg.end_angle <= 359 && start_angle_last < 0) start_angle_l
 727:../../Middlewares/LVGL/GUI/lvgl/src/draw/sw/lv_draw_sw_mask.c ****         else if(p->cfg.end_angle > 0 &&   p->cfg.end_angle <= 90 && start_angle_last < 0) start_ang
 728:../../Middlewares/LVGL/GUI/lvgl/src/draw/sw/lv_draw_sw_mask.c ****         else if(p->cfg.end_angle > 90 &&  p->cfg.end_angle < 270 && start_angle_last > 0) start_ang
 729:../../Middlewares/LVGL/GUI/lvgl/src/draw/sw/lv_draw_sw_mask.c **** 
 730:../../Middlewares/LVGL/GUI/lvgl/src/draw/sw/lv_draw_sw_mask.c ****         int32_t dist = (end_angle_first - start_angle_last) >> 1;
 731:../../Middlewares/LVGL/GUI/lvgl/src/draw/sw/lv_draw_sw_mask.c **** 
 732:../../Middlewares/LVGL/GUI/lvgl/src/draw/sw/lv_draw_sw_mask.c ****         lv_draw_sw_mask_res_t res1 = LV_DRAW_SW_MASK_RES_FULL_COVER;
 733:../../Middlewares/LVGL/GUI/lvgl/src/draw/sw/lv_draw_sw_mask.c ****         lv_draw_sw_mask_res_t res2 = LV_DRAW_SW_MASK_RES_FULL_COVER;
 734:../../Middlewares/LVGL/GUI/lvgl/src/draw/sw/lv_draw_sw_mask.c **** 
 735:../../Middlewares/LVGL/GUI/lvgl/src/draw/sw/lv_draw_sw_mask.c ****         int32_t tmp = start_angle_last + dist - rel_x;
 736:../../Middlewares/LVGL/GUI/lvgl/src/draw/sw/lv_draw_sw_mask.c ****         if(tmp > len) tmp = len;
 737:../../Middlewares/LVGL/GUI/lvgl/src/draw/sw/lv_draw_sw_mask.c ****         if(tmp > 0) {
 738:../../Middlewares/LVGL/GUI/lvgl/src/draw/sw/lv_draw_sw_mask.c ****             res1 = lv_draw_mask_line(&mask_buf[0], abs_x, abs_y, tmp, &p->start_line);
 739:../../Middlewares/LVGL/GUI/lvgl/src/draw/sw/lv_draw_sw_mask.c ****             if(res1 == LV_DRAW_SW_MASK_RES_TRANSP) {
 740:../../Middlewares/LVGL/GUI/lvgl/src/draw/sw/lv_draw_sw_mask.c ****                 lv_memzero(&mask_buf[0], tmp);
 741:../../Middlewares/LVGL/GUI/lvgl/src/draw/sw/lv_draw_sw_mask.c ****             }
 742:../../Middlewares/LVGL/GUI/lvgl/src/draw/sw/lv_draw_sw_mask.c ****         }
 743:../../Middlewares/LVGL/GUI/lvgl/src/draw/sw/lv_draw_sw_mask.c **** 
 744:../../Middlewares/LVGL/GUI/lvgl/src/draw/sw/lv_draw_sw_mask.c ****         if(tmp > len) tmp = len;
 745:../../Middlewares/LVGL/GUI/lvgl/src/draw/sw/lv_draw_sw_mask.c ****         if(tmp < 0) tmp = 0;
 746:../../Middlewares/LVGL/GUI/lvgl/src/draw/sw/lv_draw_sw_mask.c ****         res2 = lv_draw_mask_line(&mask_buf[tmp], abs_x + tmp, abs_y, len - tmp, &p->end_line);
 747:../../Middlewares/LVGL/GUI/lvgl/src/draw/sw/lv_draw_sw_mask.c ****         if(res2 == LV_DRAW_SW_MASK_RES_TRANSP) {
 748:../../Middlewares/LVGL/GUI/lvgl/src/draw/sw/lv_draw_sw_mask.c ****             lv_memzero(&mask_buf[tmp], len - tmp);
 749:../../Middlewares/LVGL/GUI/lvgl/src/draw/sw/lv_draw_sw_mask.c ****         }
 750:../../Middlewares/LVGL/GUI/lvgl/src/draw/sw/lv_draw_sw_mask.c ****         if(res1 == res2) return res1;
 751:../../Middlewares/LVGL/GUI/lvgl/src/draw/sw/lv_draw_sw_mask.c ****         else return LV_DRAW_SW_MASK_RES_CHANGED;
 752:../../Middlewares/LVGL/GUI/lvgl/src/draw/sw/lv_draw_sw_mask.c ****     }
 753:../../Middlewares/LVGL/GUI/lvgl/src/draw/sw/lv_draw_sw_mask.c ****     else if(p->cfg.start_angle > 180 && p->cfg.end_angle > 180 && p->cfg.start_angle > p->cfg.end_a
 754:../../Middlewares/LVGL/GUI/lvgl/src/draw/sw/lv_draw_sw_mask.c **** 
 755:../../Middlewares/LVGL/GUI/lvgl/src/draw/sw/lv_draw_sw_mask.c ****         if(abs_y > p->cfg.vertex_p.y) {
 756:../../Middlewares/LVGL/GUI/lvgl/src/draw/sw/lv_draw_sw_mask.c ****             return LV_DRAW_SW_MASK_RES_FULL_COVER;
 757:../../Middlewares/LVGL/GUI/lvgl/src/draw/sw/lv_draw_sw_mask.c ****         }
 758:../../Middlewares/LVGL/GUI/lvgl/src/draw/sw/lv_draw_sw_mask.c **** 
 759:../../Middlewares/LVGL/GUI/lvgl/src/draw/sw/lv_draw_sw_mask.c ****         /*Start angle mask can work only from the end of end angle mask*/
 760:../../Middlewares/LVGL/GUI/lvgl/src/draw/sw/lv_draw_sw_mask.c ****         int32_t end_angle_first = (rel_y * p->end_line.xy_steep) >> 10;
 761:../../Middlewares/LVGL/GUI/lvgl/src/draw/sw/lv_draw_sw_mask.c ****         int32_t start_angle_last = ((rel_y + 1) * p->start_line.xy_steep) >> 10;
 762:../../Middlewares/LVGL/GUI/lvgl/src/draw/sw/lv_draw_sw_mask.c **** 
 763:../../Middlewares/LVGL/GUI/lvgl/src/draw/sw/lv_draw_sw_mask.c ****         /*Do not let the line end cross the vertex else it will affect the opposite part*/
 764:../../Middlewares/LVGL/GUI/lvgl/src/draw/sw/lv_draw_sw_mask.c ****         if(p->cfg.start_angle > 270 && p->cfg.start_angle <= 359 && start_angle_last < 0) start_ang
 765:../../Middlewares/LVGL/GUI/lvgl/src/draw/sw/lv_draw_sw_mask.c ****         else if(p->cfg.start_angle > 0 && p->cfg.start_angle <= 90 && start_angle_last < 0) start_a
 766:../../Middlewares/LVGL/GUI/lvgl/src/draw/sw/lv_draw_sw_mask.c ****         else if(p->cfg.start_angle > 90 && p->cfg.start_angle < 270 && start_angle_last > 0) start_
 767:../../Middlewares/LVGL/GUI/lvgl/src/draw/sw/lv_draw_sw_mask.c **** 
 768:../../Middlewares/LVGL/GUI/lvgl/src/draw/sw/lv_draw_sw_mask.c ****         if(p->cfg.end_angle > 270 && p->cfg.end_angle <= 359 && start_angle_last < 0) start_angle_l
 769:../../Middlewares/LVGL/GUI/lvgl/src/draw/sw/lv_draw_sw_mask.c ****         else if(p->cfg.end_angle > 0 &&   p->cfg.end_angle <= 90 && start_angle_last < 0) start_ang
 770:../../Middlewares/LVGL/GUI/lvgl/src/draw/sw/lv_draw_sw_mask.c ****         else if(p->cfg.end_angle > 90 &&  p->cfg.end_angle < 270 && start_angle_last > 0) start_ang
 771:../../Middlewares/LVGL/GUI/lvgl/src/draw/sw/lv_draw_sw_mask.c **** 
 772:../../Middlewares/LVGL/GUI/lvgl/src/draw/sw/lv_draw_sw_mask.c ****         int32_t dist = (end_angle_first - start_angle_last) >> 1;
ARM GAS  C:\Users\28576\AppData\Local\Temp\ccagJBpt.s 			page 15


 773:../../Middlewares/LVGL/GUI/lvgl/src/draw/sw/lv_draw_sw_mask.c **** 
 774:../../Middlewares/LVGL/GUI/lvgl/src/draw/sw/lv_draw_sw_mask.c ****         lv_draw_sw_mask_res_t res1 = LV_DRAW_SW_MASK_RES_FULL_COVER;
 775:../../Middlewares/LVGL/GUI/lvgl/src/draw/sw/lv_draw_sw_mask.c ****         lv_draw_sw_mask_res_t res2 = LV_DRAW_SW_MASK_RES_FULL_COVER;
 776:../../Middlewares/LVGL/GUI/lvgl/src/draw/sw/lv_draw_sw_mask.c **** 
 777:../../Middlewares/LVGL/GUI/lvgl/src/draw/sw/lv_draw_sw_mask.c ****         int32_t tmp = start_angle_last + dist - rel_x;
 778:../../Middlewares/LVGL/GUI/lvgl/src/draw/sw/lv_draw_sw_mask.c ****         if(tmp > len) tmp = len;
 779:../../Middlewares/LVGL/GUI/lvgl/src/draw/sw/lv_draw_sw_mask.c ****         if(tmp > 0) {
 780:../../Middlewares/LVGL/GUI/lvgl/src/draw/sw/lv_draw_sw_mask.c ****             res1 = lv_draw_mask_line(&mask_buf[0], abs_x, abs_y, tmp, (lv_draw_sw_mask_line_param_t
 781:../../Middlewares/LVGL/GUI/lvgl/src/draw/sw/lv_draw_sw_mask.c ****             if(res1 == LV_DRAW_SW_MASK_RES_TRANSP) {
 782:../../Middlewares/LVGL/GUI/lvgl/src/draw/sw/lv_draw_sw_mask.c ****                 lv_memzero(&mask_buf[0], tmp);
 783:../../Middlewares/LVGL/GUI/lvgl/src/draw/sw/lv_draw_sw_mask.c ****             }
 784:../../Middlewares/LVGL/GUI/lvgl/src/draw/sw/lv_draw_sw_mask.c ****         }
 785:../../Middlewares/LVGL/GUI/lvgl/src/draw/sw/lv_draw_sw_mask.c **** 
 786:../../Middlewares/LVGL/GUI/lvgl/src/draw/sw/lv_draw_sw_mask.c ****         if(tmp > len) tmp = len;
 787:../../Middlewares/LVGL/GUI/lvgl/src/draw/sw/lv_draw_sw_mask.c ****         if(tmp < 0) tmp = 0;
 788:../../Middlewares/LVGL/GUI/lvgl/src/draw/sw/lv_draw_sw_mask.c ****         res2 = lv_draw_mask_line(&mask_buf[tmp], abs_x + tmp, abs_y, len - tmp, (lv_draw_sw_mask_li
 789:../../Middlewares/LVGL/GUI/lvgl/src/draw/sw/lv_draw_sw_mask.c ****         if(res2 == LV_DRAW_SW_MASK_RES_TRANSP) {
 790:../../Middlewares/LVGL/GUI/lvgl/src/draw/sw/lv_draw_sw_mask.c ****             lv_memzero(&mask_buf[tmp], len - tmp);
 791:../../Middlewares/LVGL/GUI/lvgl/src/draw/sw/lv_draw_sw_mask.c ****         }
 792:../../Middlewares/LVGL/GUI/lvgl/src/draw/sw/lv_draw_sw_mask.c ****         if(res1 == res2) return res1;
 793:../../Middlewares/LVGL/GUI/lvgl/src/draw/sw/lv_draw_sw_mask.c ****         else return LV_DRAW_SW_MASK_RES_CHANGED;
 794:../../Middlewares/LVGL/GUI/lvgl/src/draw/sw/lv_draw_sw_mask.c ****     }
 795:../../Middlewares/LVGL/GUI/lvgl/src/draw/sw/lv_draw_sw_mask.c ****     else  {
 796:../../Middlewares/LVGL/GUI/lvgl/src/draw/sw/lv_draw_sw_mask.c **** 
 797:../../Middlewares/LVGL/GUI/lvgl/src/draw/sw/lv_draw_sw_mask.c ****         lv_draw_sw_mask_res_t res1 = LV_DRAW_SW_MASK_RES_FULL_COVER;
 798:../../Middlewares/LVGL/GUI/lvgl/src/draw/sw/lv_draw_sw_mask.c ****         lv_draw_sw_mask_res_t res2 = LV_DRAW_SW_MASK_RES_FULL_COVER;
 799:../../Middlewares/LVGL/GUI/lvgl/src/draw/sw/lv_draw_sw_mask.c **** 
 800:../../Middlewares/LVGL/GUI/lvgl/src/draw/sw/lv_draw_sw_mask.c ****         if(p->cfg.start_angle == 180) {
 801:../../Middlewares/LVGL/GUI/lvgl/src/draw/sw/lv_draw_sw_mask.c ****             if(abs_y < p->cfg.vertex_p.y) res1 = LV_DRAW_SW_MASK_RES_FULL_COVER;
 802:../../Middlewares/LVGL/GUI/lvgl/src/draw/sw/lv_draw_sw_mask.c ****             else res1 = LV_DRAW_SW_MASK_RES_UNKNOWN;
 803:../../Middlewares/LVGL/GUI/lvgl/src/draw/sw/lv_draw_sw_mask.c ****         }
 804:../../Middlewares/LVGL/GUI/lvgl/src/draw/sw/lv_draw_sw_mask.c ****         else if(p->cfg.start_angle == 0) {
 805:../../Middlewares/LVGL/GUI/lvgl/src/draw/sw/lv_draw_sw_mask.c ****             if(abs_y < p->cfg.vertex_p.y) res1 = LV_DRAW_SW_MASK_RES_UNKNOWN;
 806:../../Middlewares/LVGL/GUI/lvgl/src/draw/sw/lv_draw_sw_mask.c ****             else res1 = LV_DRAW_SW_MASK_RES_FULL_COVER;
 807:../../Middlewares/LVGL/GUI/lvgl/src/draw/sw/lv_draw_sw_mask.c ****         }
 808:../../Middlewares/LVGL/GUI/lvgl/src/draw/sw/lv_draw_sw_mask.c ****         else if((p->cfg.start_angle < 180 && abs_y < p->cfg.vertex_p.y) ||
 809:../../Middlewares/LVGL/GUI/lvgl/src/draw/sw/lv_draw_sw_mask.c ****                 (p->cfg.start_angle > 180 && abs_y >= p->cfg.vertex_p.y)) {
 810:../../Middlewares/LVGL/GUI/lvgl/src/draw/sw/lv_draw_sw_mask.c ****             res1 = LV_DRAW_SW_MASK_RES_UNKNOWN;
 811:../../Middlewares/LVGL/GUI/lvgl/src/draw/sw/lv_draw_sw_mask.c ****         }
 812:../../Middlewares/LVGL/GUI/lvgl/src/draw/sw/lv_draw_sw_mask.c ****         else  {
 813:../../Middlewares/LVGL/GUI/lvgl/src/draw/sw/lv_draw_sw_mask.c ****             res1 = lv_draw_mask_line(mask_buf, abs_x, abs_y, len, &p->start_line);
 814:../../Middlewares/LVGL/GUI/lvgl/src/draw/sw/lv_draw_sw_mask.c ****         }
 815:../../Middlewares/LVGL/GUI/lvgl/src/draw/sw/lv_draw_sw_mask.c **** 
 816:../../Middlewares/LVGL/GUI/lvgl/src/draw/sw/lv_draw_sw_mask.c ****         if(p->cfg.end_angle == 180) {
 817:../../Middlewares/LVGL/GUI/lvgl/src/draw/sw/lv_draw_sw_mask.c ****             if(abs_y < p->cfg.vertex_p.y) res2 = LV_DRAW_SW_MASK_RES_UNKNOWN;
 818:../../Middlewares/LVGL/GUI/lvgl/src/draw/sw/lv_draw_sw_mask.c ****             else res2 = LV_DRAW_SW_MASK_RES_FULL_COVER;
 819:../../Middlewares/LVGL/GUI/lvgl/src/draw/sw/lv_draw_sw_mask.c ****         }
 820:../../Middlewares/LVGL/GUI/lvgl/src/draw/sw/lv_draw_sw_mask.c ****         else if(p->cfg.end_angle == 0) {
 821:../../Middlewares/LVGL/GUI/lvgl/src/draw/sw/lv_draw_sw_mask.c ****             if(abs_y < p->cfg.vertex_p.y) res2 = LV_DRAW_SW_MASK_RES_FULL_COVER;
 822:../../Middlewares/LVGL/GUI/lvgl/src/draw/sw/lv_draw_sw_mask.c ****             else res2 = LV_DRAW_SW_MASK_RES_UNKNOWN;
 823:../../Middlewares/LVGL/GUI/lvgl/src/draw/sw/lv_draw_sw_mask.c ****         }
 824:../../Middlewares/LVGL/GUI/lvgl/src/draw/sw/lv_draw_sw_mask.c ****         else if((p->cfg.end_angle < 180 && abs_y < p->cfg.vertex_p.y) ||
 825:../../Middlewares/LVGL/GUI/lvgl/src/draw/sw/lv_draw_sw_mask.c ****                 (p->cfg.end_angle > 180 && abs_y >= p->cfg.vertex_p.y)) {
 826:../../Middlewares/LVGL/GUI/lvgl/src/draw/sw/lv_draw_sw_mask.c ****             res2 = LV_DRAW_SW_MASK_RES_UNKNOWN;
 827:../../Middlewares/LVGL/GUI/lvgl/src/draw/sw/lv_draw_sw_mask.c ****         }
 828:../../Middlewares/LVGL/GUI/lvgl/src/draw/sw/lv_draw_sw_mask.c ****         else {
 829:../../Middlewares/LVGL/GUI/lvgl/src/draw/sw/lv_draw_sw_mask.c ****             res2 = lv_draw_mask_line(mask_buf, abs_x, abs_y, len, &p->end_line);
ARM GAS  C:\Users\28576\AppData\Local\Temp\ccagJBpt.s 			page 16


 830:../../Middlewares/LVGL/GUI/lvgl/src/draw/sw/lv_draw_sw_mask.c ****         }
 831:../../Middlewares/LVGL/GUI/lvgl/src/draw/sw/lv_draw_sw_mask.c **** 
 832:../../Middlewares/LVGL/GUI/lvgl/src/draw/sw/lv_draw_sw_mask.c ****         if(res1 == LV_DRAW_SW_MASK_RES_TRANSP || res2 == LV_DRAW_SW_MASK_RES_TRANSP) return LV_DRAW
 833:../../Middlewares/LVGL/GUI/lvgl/src/draw/sw/lv_draw_sw_mask.c ****         else if(res1 == LV_DRAW_SW_MASK_RES_UNKNOWN && res2 == LV_DRAW_SW_MASK_RES_UNKNOWN) return 
 834:../../Middlewares/LVGL/GUI/lvgl/src/draw/sw/lv_draw_sw_mask.c ****         else if(res1 == LV_DRAW_SW_MASK_RES_FULL_COVER &&
 835:../../Middlewares/LVGL/GUI/lvgl/src/draw/sw/lv_draw_sw_mask.c ****                 res2 == LV_DRAW_SW_MASK_RES_FULL_COVER) return LV_DRAW_SW_MASK_RES_FULL_COVER;
 836:../../Middlewares/LVGL/GUI/lvgl/src/draw/sw/lv_draw_sw_mask.c ****         else return LV_DRAW_SW_MASK_RES_CHANGED;
 837:../../Middlewares/LVGL/GUI/lvgl/src/draw/sw/lv_draw_sw_mask.c ****     }
 838:../../Middlewares/LVGL/GUI/lvgl/src/draw/sw/lv_draw_sw_mask.c **** }
 839:../../Middlewares/LVGL/GUI/lvgl/src/draw/sw/lv_draw_sw_mask.c **** 
 840:../../Middlewares/LVGL/GUI/lvgl/src/draw/sw/lv_draw_sw_mask.c **** static lv_draw_sw_mask_res_t LV_ATTRIBUTE_FAST_MEM lv_draw_mask_radius(lv_opa_t * mask_buf, int32_t
 841:../../Middlewares/LVGL/GUI/lvgl/src/draw/sw/lv_draw_sw_mask.c ****                                                                        int32_t abs_y, int32_t len,
 842:../../Middlewares/LVGL/GUI/lvgl/src/draw/sw/lv_draw_sw_mask.c ****                                                                        lv_draw_sw_mask_radius_param
 843:../../Middlewares/LVGL/GUI/lvgl/src/draw/sw/lv_draw_sw_mask.c **** {
 844:../../Middlewares/LVGL/GUI/lvgl/src/draw/sw/lv_draw_sw_mask.c ****     bool outer = p->cfg.outer;
 845:../../Middlewares/LVGL/GUI/lvgl/src/draw/sw/lv_draw_sw_mask.c ****     int32_t radius = p->cfg.radius;
 846:../../Middlewares/LVGL/GUI/lvgl/src/draw/sw/lv_draw_sw_mask.c ****     lv_area_t rect;
 847:../../Middlewares/LVGL/GUI/lvgl/src/draw/sw/lv_draw_sw_mask.c ****     lv_area_copy(&rect, &p->cfg.rect);
 848:../../Middlewares/LVGL/GUI/lvgl/src/draw/sw/lv_draw_sw_mask.c **** 
 849:../../Middlewares/LVGL/GUI/lvgl/src/draw/sw/lv_draw_sw_mask.c ****     if(outer == false) {
 850:../../Middlewares/LVGL/GUI/lvgl/src/draw/sw/lv_draw_sw_mask.c ****         if((abs_y < rect.y1 || abs_y > rect.y2)) {
 851:../../Middlewares/LVGL/GUI/lvgl/src/draw/sw/lv_draw_sw_mask.c ****             return LV_DRAW_SW_MASK_RES_TRANSP;
 852:../../Middlewares/LVGL/GUI/lvgl/src/draw/sw/lv_draw_sw_mask.c ****         }
 853:../../Middlewares/LVGL/GUI/lvgl/src/draw/sw/lv_draw_sw_mask.c ****     }
 854:../../Middlewares/LVGL/GUI/lvgl/src/draw/sw/lv_draw_sw_mask.c ****     else {
 855:../../Middlewares/LVGL/GUI/lvgl/src/draw/sw/lv_draw_sw_mask.c ****         if(abs_y < rect.y1 || abs_y > rect.y2) {
 856:../../Middlewares/LVGL/GUI/lvgl/src/draw/sw/lv_draw_sw_mask.c ****             return LV_DRAW_SW_MASK_RES_FULL_COVER;
 857:../../Middlewares/LVGL/GUI/lvgl/src/draw/sw/lv_draw_sw_mask.c ****         }
 858:../../Middlewares/LVGL/GUI/lvgl/src/draw/sw/lv_draw_sw_mask.c ****     }
 859:../../Middlewares/LVGL/GUI/lvgl/src/draw/sw/lv_draw_sw_mask.c **** 
 860:../../Middlewares/LVGL/GUI/lvgl/src/draw/sw/lv_draw_sw_mask.c ****     if((abs_x >= rect.x1 + radius && abs_x + len <= rect.x2 - radius) ||
 861:../../Middlewares/LVGL/GUI/lvgl/src/draw/sw/lv_draw_sw_mask.c ****        (abs_y >= rect.y1 + radius && abs_y <= rect.y2 - radius)) {
 862:../../Middlewares/LVGL/GUI/lvgl/src/draw/sw/lv_draw_sw_mask.c ****         if(outer == false) {
 863:../../Middlewares/LVGL/GUI/lvgl/src/draw/sw/lv_draw_sw_mask.c ****             /*Remove the edges*/
 864:../../Middlewares/LVGL/GUI/lvgl/src/draw/sw/lv_draw_sw_mask.c ****             int32_t last = rect.x1 - abs_x;
 865:../../Middlewares/LVGL/GUI/lvgl/src/draw/sw/lv_draw_sw_mask.c ****             if(last > len) return LV_DRAW_SW_MASK_RES_TRANSP;
 866:../../Middlewares/LVGL/GUI/lvgl/src/draw/sw/lv_draw_sw_mask.c ****             if(last >= 0) {
 867:../../Middlewares/LVGL/GUI/lvgl/src/draw/sw/lv_draw_sw_mask.c ****                 lv_memzero(&mask_buf[0], last);
 868:../../Middlewares/LVGL/GUI/lvgl/src/draw/sw/lv_draw_sw_mask.c ****             }
 869:../../Middlewares/LVGL/GUI/lvgl/src/draw/sw/lv_draw_sw_mask.c **** 
 870:../../Middlewares/LVGL/GUI/lvgl/src/draw/sw/lv_draw_sw_mask.c ****             int32_t first = rect.x2 - abs_x + 1;
 871:../../Middlewares/LVGL/GUI/lvgl/src/draw/sw/lv_draw_sw_mask.c ****             if(first <= 0) return LV_DRAW_SW_MASK_RES_TRANSP;
 872:../../Middlewares/LVGL/GUI/lvgl/src/draw/sw/lv_draw_sw_mask.c ****             else if(first < len) {
 873:../../Middlewares/LVGL/GUI/lvgl/src/draw/sw/lv_draw_sw_mask.c ****                 lv_memzero(&mask_buf[first], len - first);
 874:../../Middlewares/LVGL/GUI/lvgl/src/draw/sw/lv_draw_sw_mask.c ****             }
 875:../../Middlewares/LVGL/GUI/lvgl/src/draw/sw/lv_draw_sw_mask.c ****             if(last == 0 && first == len) return LV_DRAW_SW_MASK_RES_FULL_COVER;
 876:../../Middlewares/LVGL/GUI/lvgl/src/draw/sw/lv_draw_sw_mask.c ****             else return LV_DRAW_SW_MASK_RES_CHANGED;
 877:../../Middlewares/LVGL/GUI/lvgl/src/draw/sw/lv_draw_sw_mask.c ****         }
 878:../../Middlewares/LVGL/GUI/lvgl/src/draw/sw/lv_draw_sw_mask.c ****         else {
 879:../../Middlewares/LVGL/GUI/lvgl/src/draw/sw/lv_draw_sw_mask.c ****             int32_t first = rect.x1 - abs_x;
 880:../../Middlewares/LVGL/GUI/lvgl/src/draw/sw/lv_draw_sw_mask.c ****             if(first < 0) first = 0;
 881:../../Middlewares/LVGL/GUI/lvgl/src/draw/sw/lv_draw_sw_mask.c ****             if(first <= len) {
 882:../../Middlewares/LVGL/GUI/lvgl/src/draw/sw/lv_draw_sw_mask.c ****                 int32_t last = rect.x2 - abs_x - first + 1;
 883:../../Middlewares/LVGL/GUI/lvgl/src/draw/sw/lv_draw_sw_mask.c ****                 if(first + last > len) last = len - first;
 884:../../Middlewares/LVGL/GUI/lvgl/src/draw/sw/lv_draw_sw_mask.c ****                 if(last >= 0) {
 885:../../Middlewares/LVGL/GUI/lvgl/src/draw/sw/lv_draw_sw_mask.c ****                     lv_memzero(&mask_buf[first], last);
 886:../../Middlewares/LVGL/GUI/lvgl/src/draw/sw/lv_draw_sw_mask.c ****                 }
ARM GAS  C:\Users\28576\AppData\Local\Temp\ccagJBpt.s 			page 17


 887:../../Middlewares/LVGL/GUI/lvgl/src/draw/sw/lv_draw_sw_mask.c ****             }
 888:../../Middlewares/LVGL/GUI/lvgl/src/draw/sw/lv_draw_sw_mask.c ****         }
 889:../../Middlewares/LVGL/GUI/lvgl/src/draw/sw/lv_draw_sw_mask.c ****         return LV_DRAW_SW_MASK_RES_CHANGED;
 890:../../Middlewares/LVGL/GUI/lvgl/src/draw/sw/lv_draw_sw_mask.c ****     }
 891:../../Middlewares/LVGL/GUI/lvgl/src/draw/sw/lv_draw_sw_mask.c **** 
 892:../../Middlewares/LVGL/GUI/lvgl/src/draw/sw/lv_draw_sw_mask.c ****     int32_t k = rect.x1 - abs_x; /*First relevant coordinate on the of the mask*/
 893:../../Middlewares/LVGL/GUI/lvgl/src/draw/sw/lv_draw_sw_mask.c ****     int32_t w = lv_area_get_width(&rect);
 894:../../Middlewares/LVGL/GUI/lvgl/src/draw/sw/lv_draw_sw_mask.c ****     int32_t h = lv_area_get_height(&rect);
 895:../../Middlewares/LVGL/GUI/lvgl/src/draw/sw/lv_draw_sw_mask.c ****     abs_x -= rect.x1;
 896:../../Middlewares/LVGL/GUI/lvgl/src/draw/sw/lv_draw_sw_mask.c ****     abs_y -= rect.y1;
 897:../../Middlewares/LVGL/GUI/lvgl/src/draw/sw/lv_draw_sw_mask.c **** 
 898:../../Middlewares/LVGL/GUI/lvgl/src/draw/sw/lv_draw_sw_mask.c ****     int32_t aa_len;
 899:../../Middlewares/LVGL/GUI/lvgl/src/draw/sw/lv_draw_sw_mask.c ****     int32_t x_start;
 900:../../Middlewares/LVGL/GUI/lvgl/src/draw/sw/lv_draw_sw_mask.c ****     int32_t cir_y;
 901:../../Middlewares/LVGL/GUI/lvgl/src/draw/sw/lv_draw_sw_mask.c ****     if(abs_y < radius) {
 902:../../Middlewares/LVGL/GUI/lvgl/src/draw/sw/lv_draw_sw_mask.c ****         cir_y = radius - abs_y - 1;
 903:../../Middlewares/LVGL/GUI/lvgl/src/draw/sw/lv_draw_sw_mask.c ****     }
 904:../../Middlewares/LVGL/GUI/lvgl/src/draw/sw/lv_draw_sw_mask.c ****     else {
 905:../../Middlewares/LVGL/GUI/lvgl/src/draw/sw/lv_draw_sw_mask.c ****         cir_y = abs_y - (h - radius);
 906:../../Middlewares/LVGL/GUI/lvgl/src/draw/sw/lv_draw_sw_mask.c ****     }
 907:../../Middlewares/LVGL/GUI/lvgl/src/draw/sw/lv_draw_sw_mask.c ****     lv_opa_t * aa_opa = get_next_line(p->circle, cir_y, &aa_len, &x_start);
 908:../../Middlewares/LVGL/GUI/lvgl/src/draw/sw/lv_draw_sw_mask.c ****     int32_t cir_x_right = k + w - radius + x_start;
 909:../../Middlewares/LVGL/GUI/lvgl/src/draw/sw/lv_draw_sw_mask.c ****     int32_t cir_x_left = k + radius - x_start - 1;
 910:../../Middlewares/LVGL/GUI/lvgl/src/draw/sw/lv_draw_sw_mask.c ****     int32_t i;
 911:../../Middlewares/LVGL/GUI/lvgl/src/draw/sw/lv_draw_sw_mask.c **** 
 912:../../Middlewares/LVGL/GUI/lvgl/src/draw/sw/lv_draw_sw_mask.c ****     if(outer == false) {
 913:../../Middlewares/LVGL/GUI/lvgl/src/draw/sw/lv_draw_sw_mask.c ****         for(i = 0; i < aa_len; i++) {
 914:../../Middlewares/LVGL/GUI/lvgl/src/draw/sw/lv_draw_sw_mask.c ****             lv_opa_t opa = aa_opa[aa_len - i - 1];
 915:../../Middlewares/LVGL/GUI/lvgl/src/draw/sw/lv_draw_sw_mask.c ****             if(cir_x_right + i >= 0 && cir_x_right + i < len) {
 916:../../Middlewares/LVGL/GUI/lvgl/src/draw/sw/lv_draw_sw_mask.c ****                 mask_buf[cir_x_right + i] = mask_mix(opa, mask_buf[cir_x_right + i]);
 917:../../Middlewares/LVGL/GUI/lvgl/src/draw/sw/lv_draw_sw_mask.c ****             }
 918:../../Middlewares/LVGL/GUI/lvgl/src/draw/sw/lv_draw_sw_mask.c ****             if(cir_x_left - i >= 0 && cir_x_left - i < len) {
 919:../../Middlewares/LVGL/GUI/lvgl/src/draw/sw/lv_draw_sw_mask.c ****                 mask_buf[cir_x_left - i] = mask_mix(opa, mask_buf[cir_x_left - i]);
 920:../../Middlewares/LVGL/GUI/lvgl/src/draw/sw/lv_draw_sw_mask.c ****             }
 921:../../Middlewares/LVGL/GUI/lvgl/src/draw/sw/lv_draw_sw_mask.c ****         }
 922:../../Middlewares/LVGL/GUI/lvgl/src/draw/sw/lv_draw_sw_mask.c **** 
 923:../../Middlewares/LVGL/GUI/lvgl/src/draw/sw/lv_draw_sw_mask.c ****         /*Clean the right side*/
 924:../../Middlewares/LVGL/GUI/lvgl/src/draw/sw/lv_draw_sw_mask.c ****         cir_x_right = LV_CLAMP(0, cir_x_right + i, len);
 925:../../Middlewares/LVGL/GUI/lvgl/src/draw/sw/lv_draw_sw_mask.c ****         lv_memzero(&mask_buf[cir_x_right], len - cir_x_right);
 926:../../Middlewares/LVGL/GUI/lvgl/src/draw/sw/lv_draw_sw_mask.c **** 
 927:../../Middlewares/LVGL/GUI/lvgl/src/draw/sw/lv_draw_sw_mask.c ****         /*Clean the left side*/
 928:../../Middlewares/LVGL/GUI/lvgl/src/draw/sw/lv_draw_sw_mask.c ****         cir_x_left = LV_CLAMP(0, cir_x_left - aa_len + 1, len);
 929:../../Middlewares/LVGL/GUI/lvgl/src/draw/sw/lv_draw_sw_mask.c ****         lv_memzero(&mask_buf[0], cir_x_left);
 930:../../Middlewares/LVGL/GUI/lvgl/src/draw/sw/lv_draw_sw_mask.c ****     }
 931:../../Middlewares/LVGL/GUI/lvgl/src/draw/sw/lv_draw_sw_mask.c ****     else {
 932:../../Middlewares/LVGL/GUI/lvgl/src/draw/sw/lv_draw_sw_mask.c ****         for(i = 0; i < aa_len; i++) {
 933:../../Middlewares/LVGL/GUI/lvgl/src/draw/sw/lv_draw_sw_mask.c ****             lv_opa_t opa = 255 - (aa_opa[aa_len - 1 - i]);
 934:../../Middlewares/LVGL/GUI/lvgl/src/draw/sw/lv_draw_sw_mask.c ****             if(cir_x_right + i >= 0 && cir_x_right + i < len) {
 935:../../Middlewares/LVGL/GUI/lvgl/src/draw/sw/lv_draw_sw_mask.c ****                 mask_buf[cir_x_right + i] = mask_mix(opa, mask_buf[cir_x_right + i]);
 936:../../Middlewares/LVGL/GUI/lvgl/src/draw/sw/lv_draw_sw_mask.c ****             }
 937:../../Middlewares/LVGL/GUI/lvgl/src/draw/sw/lv_draw_sw_mask.c ****             if(cir_x_left - i >= 0 && cir_x_left - i < len) {
 938:../../Middlewares/LVGL/GUI/lvgl/src/draw/sw/lv_draw_sw_mask.c ****                 mask_buf[cir_x_left - i] = mask_mix(opa, mask_buf[cir_x_left - i]);
 939:../../Middlewares/LVGL/GUI/lvgl/src/draw/sw/lv_draw_sw_mask.c ****             }
 940:../../Middlewares/LVGL/GUI/lvgl/src/draw/sw/lv_draw_sw_mask.c ****         }
 941:../../Middlewares/LVGL/GUI/lvgl/src/draw/sw/lv_draw_sw_mask.c **** 
 942:../../Middlewares/LVGL/GUI/lvgl/src/draw/sw/lv_draw_sw_mask.c ****         int32_t clr_start = LV_CLAMP(0, cir_x_left + 1, len);
 943:../../Middlewares/LVGL/GUI/lvgl/src/draw/sw/lv_draw_sw_mask.c ****         int32_t clr_len = LV_CLAMP(0, cir_x_right - clr_start, len - clr_start);
ARM GAS  C:\Users\28576\AppData\Local\Temp\ccagJBpt.s 			page 18


 944:../../Middlewares/LVGL/GUI/lvgl/src/draw/sw/lv_draw_sw_mask.c ****         lv_memzero(&mask_buf[clr_start], clr_len);
 945:../../Middlewares/LVGL/GUI/lvgl/src/draw/sw/lv_draw_sw_mask.c ****     }
 946:../../Middlewares/LVGL/GUI/lvgl/src/draw/sw/lv_draw_sw_mask.c **** 
 947:../../Middlewares/LVGL/GUI/lvgl/src/draw/sw/lv_draw_sw_mask.c ****     return LV_DRAW_SW_MASK_RES_CHANGED;
 948:../../Middlewares/LVGL/GUI/lvgl/src/draw/sw/lv_draw_sw_mask.c **** }
 949:../../Middlewares/LVGL/GUI/lvgl/src/draw/sw/lv_draw_sw_mask.c **** 
 950:../../Middlewares/LVGL/GUI/lvgl/src/draw/sw/lv_draw_sw_mask.c **** static lv_draw_sw_mask_res_t LV_ATTRIBUTE_FAST_MEM lv_draw_mask_fade(lv_opa_t * mask_buf, int32_t a
 951:../../Middlewares/LVGL/GUI/lvgl/src/draw/sw/lv_draw_sw_mask.c ****                                                                      int32_t abs_y, int32_t len,
 952:../../Middlewares/LVGL/GUI/lvgl/src/draw/sw/lv_draw_sw_mask.c ****                                                                      lv_draw_sw_mask_fade_param_t *
 953:../../Middlewares/LVGL/GUI/lvgl/src/draw/sw/lv_draw_sw_mask.c **** {
  28              		.loc 1 953 1 view -0
  29              		.cfi_startproc
  30              		@ args = 4, pretend = 0, frame = 0
  31              		@ frame_needed = 0, uses_anonymous_args = 0
  32              		.loc 1 953 1 is_stmt 0 view .LVU1
  33 0000 30B5     		push	{r4, r5, lr}
  34              	.LCFI0:
  35              		.cfi_def_cfa_offset 12
  36              		.cfi_offset 4, -12
  37              		.cfi_offset 5, -8
  38              		.cfi_offset 14, -4
  39 0002 DDF80CE0 		ldr	lr, [sp, #12]
 954:../../Middlewares/LVGL/GUI/lvgl/src/draw/sw/lv_draw_sw_mask.c ****     if(abs_y < p->cfg.coords.y1) return LV_DRAW_SW_MASK_RES_FULL_COVER;
  40              		.loc 1 954 5 is_stmt 1 view .LVU2
  41              		.loc 1 954 7 is_stmt 0 view .LVU3
  42 0006 DEF80C40 		ldr	r4, [lr, #12]
  43 000a 9442     		cmp	r4, r2
  44 000c 00F39280 		bgt	.L16
 955:../../Middlewares/LVGL/GUI/lvgl/src/draw/sw/lv_draw_sw_mask.c ****     if(abs_y > p->cfg.coords.y2) return LV_DRAW_SW_MASK_RES_FULL_COVER;
  45              		.loc 1 955 5 is_stmt 1 view .LVU4
  46              		.loc 1 955 7 is_stmt 0 view .LVU5
  47 0010 DEF81440 		ldr	r4, [lr, #20]
  48 0014 9442     		cmp	r4, r2
  49 0016 C0F28F80 		blt	.L17
 956:../../Middlewares/LVGL/GUI/lvgl/src/draw/sw/lv_draw_sw_mask.c ****     if(abs_x + len < p->cfg.coords.x1) return LV_DRAW_SW_MASK_RES_FULL_COVER;
  50              		.loc 1 956 5 is_stmt 1 view .LVU6
  51              		.loc 1 956 14 is_stmt 0 view .LVU7
  52 001a 01EB030C 		add	ip, r1, r3
  53              		.loc 1 956 35 view .LVU8
  54 001e DEF80840 		ldr	r4, [lr, #8]
  55 0022 2546     		mov	r5, r4
  56              		.loc 1 956 7 view .LVU9
  57 0024 A445     		cmp	ip, r4
  58 0026 C0F28980 		blt	.L18
 957:../../Middlewares/LVGL/GUI/lvgl/src/draw/sw/lv_draw_sw_mask.c ****     if(abs_x > p->cfg.coords.x2) return LV_DRAW_SW_MASK_RES_FULL_COVER;
  59              		.loc 1 957 5 is_stmt 1 view .LVU10
  60              		.loc 1 957 29 is_stmt 0 view .LVU11
  61 002a DEF81040 		ldr	r4, [lr, #16]
  62              		.loc 1 957 7 view .LVU12
  63 002e 8C42     		cmp	r4, r1
  64 0030 C0F28680 		blt	.L19
 958:../../Middlewares/LVGL/GUI/lvgl/src/draw/sw/lv_draw_sw_mask.c **** 
 959:../../Middlewares/LVGL/GUI/lvgl/src/draw/sw/lv_draw_sw_mask.c ****     if(abs_x + len > p->cfg.coords.x2) len -= abs_x + len - p->cfg.coords.x2 - 1;
  65              		.loc 1 959 5 is_stmt 1 view .LVU13
  66              		.loc 1 959 7 is_stmt 0 view .LVU14
  67 0034 A445     		cmp	ip, r4
  68 0036 05DD     		ble	.L3
ARM GAS  C:\Users\28576\AppData\Local\Temp\ccagJBpt.s 			page 19


  69              		.loc 1 959 40 is_stmt 1 discriminator 1 view .LVU15
  70              		.loc 1 959 59 is_stmt 0 discriminator 1 view .LVU16
  71 0038 ACEB040C 		sub	ip, ip, r4
  72              		.loc 1 959 78 discriminator 1 view .LVU17
  73 003c 0CF1FF3C 		add	ip, ip, #-1
  74              		.loc 1 959 44 discriminator 1 view .LVU18
  75 0040 A3EB0C03 		sub	r3, r3, ip
  76              	.LVL1:
  77              	.L3:
 960:../../Middlewares/LVGL/GUI/lvgl/src/draw/sw/lv_draw_sw_mask.c **** 
 961:../../Middlewares/LVGL/GUI/lvgl/src/draw/sw/lv_draw_sw_mask.c ****     if(abs_x < p->cfg.coords.x1) {
  78              		.loc 1 961 5 is_stmt 1 view .LVU19
  79              		.loc 1 961 7 is_stmt 0 view .LVU20
  80 0044 8D42     		cmp	r5, r1
  81 0046 02DD     		ble	.L4
  82              	.LBB122:
 962:../../Middlewares/LVGL/GUI/lvgl/src/draw/sw/lv_draw_sw_mask.c ****         int32_t x_ofs = 0;
  83              		.loc 1 962 9 is_stmt 1 view .LVU21
  84              	.LVL2:
 963:../../Middlewares/LVGL/GUI/lvgl/src/draw/sw/lv_draw_sw_mask.c ****         x_ofs = p->cfg.coords.x1 - abs_x;
  85              		.loc 1 963 9 view .LVU22
  86              		.loc 1 963 15 is_stmt 0 view .LVU23
  87 0048 691A     		subs	r1, r5, r1
  88              	.LVL3:
 964:../../Middlewares/LVGL/GUI/lvgl/src/draw/sw/lv_draw_sw_mask.c ****         len -= x_ofs;
  89              		.loc 1 964 9 is_stmt 1 view .LVU24
  90              		.loc 1 964 13 is_stmt 0 view .LVU25
  91 004a 5B1A     		subs	r3, r3, r1
  92              	.LVL4:
 965:../../Middlewares/LVGL/GUI/lvgl/src/draw/sw/lv_draw_sw_mask.c ****         mask_buf += x_ofs;
  93              		.loc 1 965 9 is_stmt 1 view .LVU26
  94              		.loc 1 965 18 is_stmt 0 view .LVU27
  95 004c 0844     		add	r0, r0, r1
  96              	.LVL5:
  97              	.L4:
  98              		.loc 1 965 18 view .LVU28
  99              	.LBE122:
 966:../../Middlewares/LVGL/GUI/lvgl/src/draw/sw/lv_draw_sw_mask.c ****     }
 967:../../Middlewares/LVGL/GUI/lvgl/src/draw/sw/lv_draw_sw_mask.c **** 
 968:../../Middlewares/LVGL/GUI/lvgl/src/draw/sw/lv_draw_sw_mask.c ****     int32_t i;
 100              		.loc 1 968 5 is_stmt 1 view .LVU29
 969:../../Middlewares/LVGL/GUI/lvgl/src/draw/sw/lv_draw_sw_mask.c **** 
 970:../../Middlewares/LVGL/GUI/lvgl/src/draw/sw/lv_draw_sw_mask.c ****     if(abs_y <= p->cfg.y_top) {
 101              		.loc 1 970 5 view .LVU30
 102              		.loc 1 970 23 is_stmt 0 view .LVU31
 103 004e DEF818C0 		ldr	ip, [lr, #24]
 104              		.loc 1 970 7 view .LVU32
 105 0052 9445     		cmp	ip, r2
 106 0054 33DA     		bge	.L28
 971:../../Middlewares/LVGL/GUI/lvgl/src/draw/sw/lv_draw_sw_mask.c ****         for(i = 0; i < len; i++) {
 972:../../Middlewares/LVGL/GUI/lvgl/src/draw/sw/lv_draw_sw_mask.c ****             mask_buf[i] = mask_mix(mask_buf[i], p->cfg.opa_top);
 973:../../Middlewares/LVGL/GUI/lvgl/src/draw/sw/lv_draw_sw_mask.c ****         }
 974:../../Middlewares/LVGL/GUI/lvgl/src/draw/sw/lv_draw_sw_mask.c ****         return LV_DRAW_SW_MASK_RES_CHANGED;
 975:../../Middlewares/LVGL/GUI/lvgl/src/draw/sw/lv_draw_sw_mask.c ****     }
 976:../../Middlewares/LVGL/GUI/lvgl/src/draw/sw/lv_draw_sw_mask.c ****     else if(abs_y >= p->cfg.y_bottom) {
 107              		.loc 1 976 10 is_stmt 1 view .LVU33
 108              		.loc 1 976 28 is_stmt 0 view .LVU34
ARM GAS  C:\Users\28576\AppData\Local\Temp\ccagJBpt.s 			page 20


 109 0056 DEF81C10 		ldr	r1, [lr, #28]
 110              		.loc 1 976 12 view .LVU35
 111 005a 9142     		cmp	r1, r2
 112 005c 4CDD     		ble	.L22
 113              	.LBB123:
 977:../../Middlewares/LVGL/GUI/lvgl/src/draw/sw/lv_draw_sw_mask.c ****         for(i = 0; i < len; i++) {
 978:../../Middlewares/LVGL/GUI/lvgl/src/draw/sw/lv_draw_sw_mask.c ****             mask_buf[i] = mask_mix(mask_buf[i], p->cfg.opa_bottom);
 979:../../Middlewares/LVGL/GUI/lvgl/src/draw/sw/lv_draw_sw_mask.c ****         }
 980:../../Middlewares/LVGL/GUI/lvgl/src/draw/sw/lv_draw_sw_mask.c ****         return LV_DRAW_SW_MASK_RES_CHANGED;
 981:../../Middlewares/LVGL/GUI/lvgl/src/draw/sw/lv_draw_sw_mask.c ****     }
 982:../../Middlewares/LVGL/GUI/lvgl/src/draw/sw/lv_draw_sw_mask.c ****     else {
 983:../../Middlewares/LVGL/GUI/lvgl/src/draw/sw/lv_draw_sw_mask.c ****         /*Calculate the opa proportionally*/
 984:../../Middlewares/LVGL/GUI/lvgl/src/draw/sw/lv_draw_sw_mask.c ****         int16_t opa_diff = p->cfg.opa_bottom - p->cfg.opa_top;
 114              		.loc 1 984 9 is_stmt 1 view .LVU36
 115              		.loc 1 984 34 is_stmt 0 view .LVU37
 116 005e 9EF82140 		ldrb	r4, [lr, #33]	@ zero_extendqisi2
 117              		.loc 1 984 54 view .LVU38
 118 0062 9EF820E0 		ldrb	lr, [lr, #32]	@ zero_extendqisi2
 119              		.loc 1 984 17 view .LVU39
 120 0066 A4EB0E04 		sub	r4, r4, lr
 121              	.LVL6:
 985:../../Middlewares/LVGL/GUI/lvgl/src/draw/sw/lv_draw_sw_mask.c ****         int32_t y_diff = p->cfg.y_bottom - p->cfg.y_top + 1;
 122              		.loc 1 985 9 is_stmt 1 view .LVU40
 123              		.loc 1 985 42 is_stmt 0 view .LVU41
 124 006a A1EB0C01 		sub	r1, r1, ip
 125              		.loc 1 985 17 view .LVU42
 126 006e 0131     		adds	r1, r1, #1
 127              	.LVL7:
 986:../../Middlewares/LVGL/GUI/lvgl/src/draw/sw/lv_draw_sw_mask.c ****         lv_opa_t opa_act = LV_OPA_MIX2(abs_y - p->cfg.y_top, opa_diff) / y_diff;
 128              		.loc 1 986 9 is_stmt 1 view .LVU43
 129              		.loc 1 986 28 is_stmt 0 view .LVU44
 130 0070 A2EB0C02 		sub	r2, r2, ip
 131              	.LVL8:
 132              		.loc 1 986 28 view .LVU45
 133 0074 02FB04FC 		mul	ip, r2, r4
 134              		.loc 1 986 72 view .LVU46
 135 0078 CCF3072C 		ubfx	ip, ip, #8, #8
 136 007c 9CFBF1FC 		sdiv	ip, ip, r1
 137              	.LVL9:
 987:../../Middlewares/LVGL/GUI/lvgl/src/draw/sw/lv_draw_sw_mask.c ****         opa_act += p->cfg.opa_top;
 138              		.loc 1 987 9 is_stmt 1 view .LVU47
 139              		.loc 1 987 17 is_stmt 0 view .LVU48
 140 0080 5EFA8CFC 		uxtab	ip, lr, ip
 141              	.LVL10:
 142              		.loc 1 987 17 view .LVU49
 143 0084 5FFA8CFC 		uxtb	ip, ip
 144              	.LVL11:
 988:../../Middlewares/LVGL/GUI/lvgl/src/draw/sw/lv_draw_sw_mask.c **** 
 989:../../Middlewares/LVGL/GUI/lvgl/src/draw/sw/lv_draw_sw_mask.c ****         for(i = 0; i < len; i++) {
 145              		.loc 1 989 9 is_stmt 1 view .LVU50
 146              		.loc 1 989 15 is_stmt 0 view .LVU51
 147 0088 0021     		movs	r1, #0
 148              	.LVL12:
 149              		.loc 1 989 9 view .LVU52
 150 008a 44E0     		b	.L13
 151              	.LVL13:
 152              	.L30:
ARM GAS  C:\Users\28576\AppData\Local\Temp\ccagJBpt.s 			page 21


 153              		.loc 1 989 9 view .LVU53
 154              	.LBE123:
 155              	.LBB128:
 156              	.LBB129:
 990:../../Middlewares/LVGL/GUI/lvgl/src/draw/sw/lv_draw_sw_mask.c ****             mask_buf[i] = mask_mix(mask_buf[i], opa_act);
 991:../../Middlewares/LVGL/GUI/lvgl/src/draw/sw/lv_draw_sw_mask.c ****         }
 992:../../Middlewares/LVGL/GUI/lvgl/src/draw/sw/lv_draw_sw_mask.c ****         return LV_DRAW_SW_MASK_RES_CHANGED;
 993:../../Middlewares/LVGL/GUI/lvgl/src/draw/sw/lv_draw_sw_mask.c ****     }
 994:../../Middlewares/LVGL/GUI/lvgl/src/draw/sw/lv_draw_sw_mask.c **** }
 995:../../Middlewares/LVGL/GUI/lvgl/src/draw/sw/lv_draw_sw_mask.c **** 
 996:../../Middlewares/LVGL/GUI/lvgl/src/draw/sw/lv_draw_sw_mask.c **** static lv_draw_sw_mask_res_t LV_ATTRIBUTE_FAST_MEM lv_draw_mask_map(lv_opa_t * mask_buf, int32_t ab
 997:../../Middlewares/LVGL/GUI/lvgl/src/draw/sw/lv_draw_sw_mask.c ****                                                                     int32_t abs_y, int32_t len,
 998:../../Middlewares/LVGL/GUI/lvgl/src/draw/sw/lv_draw_sw_mask.c ****                                                                     lv_draw_sw_mask_map_param_t * p
 999:../../Middlewares/LVGL/GUI/lvgl/src/draw/sw/lv_draw_sw_mask.c **** {
1000:../../Middlewares/LVGL/GUI/lvgl/src/draw/sw/lv_draw_sw_mask.c ****     /*Handle out of the mask cases*/
1001:../../Middlewares/LVGL/GUI/lvgl/src/draw/sw/lv_draw_sw_mask.c ****     if(abs_y < p->cfg.coords.y1) return LV_DRAW_SW_MASK_RES_FULL_COVER;
1002:../../Middlewares/LVGL/GUI/lvgl/src/draw/sw/lv_draw_sw_mask.c ****     if(abs_y > p->cfg.coords.y2) return LV_DRAW_SW_MASK_RES_FULL_COVER;
1003:../../Middlewares/LVGL/GUI/lvgl/src/draw/sw/lv_draw_sw_mask.c ****     if(abs_x + len < p->cfg.coords.x1) return LV_DRAW_SW_MASK_RES_FULL_COVER;
1004:../../Middlewares/LVGL/GUI/lvgl/src/draw/sw/lv_draw_sw_mask.c ****     if(abs_x > p->cfg.coords.x2) return LV_DRAW_SW_MASK_RES_FULL_COVER;
1005:../../Middlewares/LVGL/GUI/lvgl/src/draw/sw/lv_draw_sw_mask.c **** 
1006:../../Middlewares/LVGL/GUI/lvgl/src/draw/sw/lv_draw_sw_mask.c ****     /*Got to the current row in the map*/
1007:../../Middlewares/LVGL/GUI/lvgl/src/draw/sw/lv_draw_sw_mask.c ****     const lv_opa_t * map_tmp = p->cfg.map;
1008:../../Middlewares/LVGL/GUI/lvgl/src/draw/sw/lv_draw_sw_mask.c ****     map_tmp += (abs_y - p->cfg.coords.y1) * lv_area_get_width(&p->cfg.coords);
1009:../../Middlewares/LVGL/GUI/lvgl/src/draw/sw/lv_draw_sw_mask.c **** 
1010:../../Middlewares/LVGL/GUI/lvgl/src/draw/sw/lv_draw_sw_mask.c ****     if(abs_x + len > p->cfg.coords.x2) len -= abs_x + len - p->cfg.coords.x2 - 1;
1011:../../Middlewares/LVGL/GUI/lvgl/src/draw/sw/lv_draw_sw_mask.c **** 
1012:../../Middlewares/LVGL/GUI/lvgl/src/draw/sw/lv_draw_sw_mask.c ****     if(abs_x < p->cfg.coords.x1) {
1013:../../Middlewares/LVGL/GUI/lvgl/src/draw/sw/lv_draw_sw_mask.c ****         int32_t x_ofs = 0;
1014:../../Middlewares/LVGL/GUI/lvgl/src/draw/sw/lv_draw_sw_mask.c ****         x_ofs = p->cfg.coords.x1 - abs_x;
1015:../../Middlewares/LVGL/GUI/lvgl/src/draw/sw/lv_draw_sw_mask.c ****         len -= x_ofs;
1016:../../Middlewares/LVGL/GUI/lvgl/src/draw/sw/lv_draw_sw_mask.c ****         mask_buf += x_ofs;
1017:../../Middlewares/LVGL/GUI/lvgl/src/draw/sw/lv_draw_sw_mask.c ****     }
1018:../../Middlewares/LVGL/GUI/lvgl/src/draw/sw/lv_draw_sw_mask.c ****     else {
1019:../../Middlewares/LVGL/GUI/lvgl/src/draw/sw/lv_draw_sw_mask.c ****         map_tmp += (abs_x - p->cfg.coords.x1);
1020:../../Middlewares/LVGL/GUI/lvgl/src/draw/sw/lv_draw_sw_mask.c ****     }
1021:../../Middlewares/LVGL/GUI/lvgl/src/draw/sw/lv_draw_sw_mask.c **** 
1022:../../Middlewares/LVGL/GUI/lvgl/src/draw/sw/lv_draw_sw_mask.c ****     int32_t i;
1023:../../Middlewares/LVGL/GUI/lvgl/src/draw/sw/lv_draw_sw_mask.c ****     for(i = 0; i < len; i++) {
1024:../../Middlewares/LVGL/GUI/lvgl/src/draw/sw/lv_draw_sw_mask.c ****         mask_buf[i] = mask_mix(mask_buf[i], map_tmp[i]);
1025:../../Middlewares/LVGL/GUI/lvgl/src/draw/sw/lv_draw_sw_mask.c ****     }
1026:../../Middlewares/LVGL/GUI/lvgl/src/draw/sw/lv_draw_sw_mask.c **** 
1027:../../Middlewares/LVGL/GUI/lvgl/src/draw/sw/lv_draw_sw_mask.c ****     return LV_DRAW_SW_MASK_RES_CHANGED;
1028:../../Middlewares/LVGL/GUI/lvgl/src/draw/sw/lv_draw_sw_mask.c **** }
1029:../../Middlewares/LVGL/GUI/lvgl/src/draw/sw/lv_draw_sw_mask.c **** 
1030:../../Middlewares/LVGL/GUI/lvgl/src/draw/sw/lv_draw_sw_mask.c **** /**
1031:../../Middlewares/LVGL/GUI/lvgl/src/draw/sw/lv_draw_sw_mask.c ****  * Initialize the circle drawing
1032:../../Middlewares/LVGL/GUI/lvgl/src/draw/sw/lv_draw_sw_mask.c ****  * @param c pointer to a point. The coordinates will be calculated here
1033:../../Middlewares/LVGL/GUI/lvgl/src/draw/sw/lv_draw_sw_mask.c ****  * @param tmp point to a variable. It will store temporary data
1034:../../Middlewares/LVGL/GUI/lvgl/src/draw/sw/lv_draw_sw_mask.c ****  * @param radius radius of the circle
1035:../../Middlewares/LVGL/GUI/lvgl/src/draw/sw/lv_draw_sw_mask.c ****  */
1036:../../Middlewares/LVGL/GUI/lvgl/src/draw/sw/lv_draw_sw_mask.c **** static void circ_init(lv_point_t * c, int32_t * tmp, int32_t radius)
1037:../../Middlewares/LVGL/GUI/lvgl/src/draw/sw/lv_draw_sw_mask.c **** {
1038:../../Middlewares/LVGL/GUI/lvgl/src/draw/sw/lv_draw_sw_mask.c ****     c->x = radius;
1039:../../Middlewares/LVGL/GUI/lvgl/src/draw/sw/lv_draw_sw_mask.c ****     c->y = 0;
1040:../../Middlewares/LVGL/GUI/lvgl/src/draw/sw/lv_draw_sw_mask.c ****     *tmp = 1 - radius;
1041:../../Middlewares/LVGL/GUI/lvgl/src/draw/sw/lv_draw_sw_mask.c **** }
1042:../../Middlewares/LVGL/GUI/lvgl/src/draw/sw/lv_draw_sw_mask.c **** 
ARM GAS  C:\Users\28576\AppData\Local\Temp\ccagJBpt.s 			page 22


1043:../../Middlewares/LVGL/GUI/lvgl/src/draw/sw/lv_draw_sw_mask.c **** /**
1044:../../Middlewares/LVGL/GUI/lvgl/src/draw/sw/lv_draw_sw_mask.c ****  * Test the circle drawing is ready or not
1045:../../Middlewares/LVGL/GUI/lvgl/src/draw/sw/lv_draw_sw_mask.c ****  * @param c same as in circ_init
1046:../../Middlewares/LVGL/GUI/lvgl/src/draw/sw/lv_draw_sw_mask.c ****  * @return true if the circle is not ready yet
1047:../../Middlewares/LVGL/GUI/lvgl/src/draw/sw/lv_draw_sw_mask.c ****  */
1048:../../Middlewares/LVGL/GUI/lvgl/src/draw/sw/lv_draw_sw_mask.c **** static bool circ_cont(lv_point_t * c)
1049:../../Middlewares/LVGL/GUI/lvgl/src/draw/sw/lv_draw_sw_mask.c **** {
1050:../../Middlewares/LVGL/GUI/lvgl/src/draw/sw/lv_draw_sw_mask.c ****     return c->y <= c->x;
1051:../../Middlewares/LVGL/GUI/lvgl/src/draw/sw/lv_draw_sw_mask.c **** }
1052:../../Middlewares/LVGL/GUI/lvgl/src/draw/sw/lv_draw_sw_mask.c **** 
1053:../../Middlewares/LVGL/GUI/lvgl/src/draw/sw/lv_draw_sw_mask.c **** /**
1054:../../Middlewares/LVGL/GUI/lvgl/src/draw/sw/lv_draw_sw_mask.c ****  * Get the next point from the circle
1055:../../Middlewares/LVGL/GUI/lvgl/src/draw/sw/lv_draw_sw_mask.c ****  * @param c same as in circ_init. The next point stored here.
1056:../../Middlewares/LVGL/GUI/lvgl/src/draw/sw/lv_draw_sw_mask.c ****  * @param tmp same as in circ_init.
1057:../../Middlewares/LVGL/GUI/lvgl/src/draw/sw/lv_draw_sw_mask.c ****  */
1058:../../Middlewares/LVGL/GUI/lvgl/src/draw/sw/lv_draw_sw_mask.c **** static void circ_next(lv_point_t * c, int32_t * tmp)
1059:../../Middlewares/LVGL/GUI/lvgl/src/draw/sw/lv_draw_sw_mask.c **** {
1060:../../Middlewares/LVGL/GUI/lvgl/src/draw/sw/lv_draw_sw_mask.c **** 
1061:../../Middlewares/LVGL/GUI/lvgl/src/draw/sw/lv_draw_sw_mask.c ****     if(*tmp <= 0) {
1062:../../Middlewares/LVGL/GUI/lvgl/src/draw/sw/lv_draw_sw_mask.c ****         (*tmp) += 2 * c->y + 3; /*Change in decision criterion for y -> y+1*/
1063:../../Middlewares/LVGL/GUI/lvgl/src/draw/sw/lv_draw_sw_mask.c ****     }
1064:../../Middlewares/LVGL/GUI/lvgl/src/draw/sw/lv_draw_sw_mask.c ****     else {
1065:../../Middlewares/LVGL/GUI/lvgl/src/draw/sw/lv_draw_sw_mask.c ****         (*tmp) += 2 * (c->y - c->x) + 5; /*Change for y -> y+1, x -> x-1*/
1066:../../Middlewares/LVGL/GUI/lvgl/src/draw/sw/lv_draw_sw_mask.c ****         c->x--;
1067:../../Middlewares/LVGL/GUI/lvgl/src/draw/sw/lv_draw_sw_mask.c ****     }
1068:../../Middlewares/LVGL/GUI/lvgl/src/draw/sw/lv_draw_sw_mask.c ****     c->y++;
1069:../../Middlewares/LVGL/GUI/lvgl/src/draw/sw/lv_draw_sw_mask.c **** }
1070:../../Middlewares/LVGL/GUI/lvgl/src/draw/sw/lv_draw_sw_mask.c **** 
1071:../../Middlewares/LVGL/GUI/lvgl/src/draw/sw/lv_draw_sw_mask.c **** static void circ_calc_aa4(lv_draw_sw_mask_radius_circle_dsc_t * c, int32_t radius)
1072:../../Middlewares/LVGL/GUI/lvgl/src/draw/sw/lv_draw_sw_mask.c **** {
1073:../../Middlewares/LVGL/GUI/lvgl/src/draw/sw/lv_draw_sw_mask.c ****     if(radius == 0) return;
1074:../../Middlewares/LVGL/GUI/lvgl/src/draw/sw/lv_draw_sw_mask.c ****     c->radius = radius;
1075:../../Middlewares/LVGL/GUI/lvgl/src/draw/sw/lv_draw_sw_mask.c **** 
1076:../../Middlewares/LVGL/GUI/lvgl/src/draw/sw/lv_draw_sw_mask.c ****     /*Allocate buffers*/
1077:../../Middlewares/LVGL/GUI/lvgl/src/draw/sw/lv_draw_sw_mask.c ****     if(c->buf) lv_free(c->buf);
1078:../../Middlewares/LVGL/GUI/lvgl/src/draw/sw/lv_draw_sw_mask.c **** 
1079:../../Middlewares/LVGL/GUI/lvgl/src/draw/sw/lv_draw_sw_mask.c ****     c->buf = lv_malloc(radius * 6 + 6);  /*Use uint16_t for opa_start_on_y and x_start_on_y*/
1080:../../Middlewares/LVGL/GUI/lvgl/src/draw/sw/lv_draw_sw_mask.c ****     LV_ASSERT_MALLOC(c->buf);
1081:../../Middlewares/LVGL/GUI/lvgl/src/draw/sw/lv_draw_sw_mask.c ****     c->cir_opa = c->buf;
1082:../../Middlewares/LVGL/GUI/lvgl/src/draw/sw/lv_draw_sw_mask.c ****     c->opa_start_on_y = (uint16_t *)(c->buf + 2 * radius + 2);
1083:../../Middlewares/LVGL/GUI/lvgl/src/draw/sw/lv_draw_sw_mask.c ****     c->x_start_on_y = (uint16_t *)(c->buf + 4 * radius + 4);
1084:../../Middlewares/LVGL/GUI/lvgl/src/draw/sw/lv_draw_sw_mask.c **** 
1085:../../Middlewares/LVGL/GUI/lvgl/src/draw/sw/lv_draw_sw_mask.c ****     /*Special case, handle manually*/
1086:../../Middlewares/LVGL/GUI/lvgl/src/draw/sw/lv_draw_sw_mask.c ****     if(radius == 1) {
1087:../../Middlewares/LVGL/GUI/lvgl/src/draw/sw/lv_draw_sw_mask.c ****         c->cir_opa[0] = 180;
1088:../../Middlewares/LVGL/GUI/lvgl/src/draw/sw/lv_draw_sw_mask.c ****         c->opa_start_on_y[0] = 0;
1089:../../Middlewares/LVGL/GUI/lvgl/src/draw/sw/lv_draw_sw_mask.c ****         c->opa_start_on_y[1] = 1;
1090:../../Middlewares/LVGL/GUI/lvgl/src/draw/sw/lv_draw_sw_mask.c ****         c->x_start_on_y[0] = 0;
1091:../../Middlewares/LVGL/GUI/lvgl/src/draw/sw/lv_draw_sw_mask.c ****         return;
1092:../../Middlewares/LVGL/GUI/lvgl/src/draw/sw/lv_draw_sw_mask.c ****     }
1093:../../Middlewares/LVGL/GUI/lvgl/src/draw/sw/lv_draw_sw_mask.c **** 
1094:../../Middlewares/LVGL/GUI/lvgl/src/draw/sw/lv_draw_sw_mask.c ****     const size_t cir_xy_size = (radius + 1) * 2 * 2 * sizeof(int32_t);
1095:../../Middlewares/LVGL/GUI/lvgl/src/draw/sw/lv_draw_sw_mask.c ****     int32_t * cir_x = lv_malloc_zeroed(cir_xy_size);
1096:../../Middlewares/LVGL/GUI/lvgl/src/draw/sw/lv_draw_sw_mask.c ****     LV_ASSERT_MALLOC(cir_x);
1097:../../Middlewares/LVGL/GUI/lvgl/src/draw/sw/lv_draw_sw_mask.c ****     int32_t * cir_y = &cir_x[(radius + 1) * 2];
1098:../../Middlewares/LVGL/GUI/lvgl/src/draw/sw/lv_draw_sw_mask.c **** 
1099:../../Middlewares/LVGL/GUI/lvgl/src/draw/sw/lv_draw_sw_mask.c ****     uint32_t y_8th_cnt = 0;
ARM GAS  C:\Users\28576\AppData\Local\Temp\ccagJBpt.s 			page 23


1100:../../Middlewares/LVGL/GUI/lvgl/src/draw/sw/lv_draw_sw_mask.c ****     lv_point_t cp;
1101:../../Middlewares/LVGL/GUI/lvgl/src/draw/sw/lv_draw_sw_mask.c ****     int32_t tmp;
1102:../../Middlewares/LVGL/GUI/lvgl/src/draw/sw/lv_draw_sw_mask.c ****     circ_init(&cp, &tmp, radius * 4);    /*Upscale by 4*/
1103:../../Middlewares/LVGL/GUI/lvgl/src/draw/sw/lv_draw_sw_mask.c ****     int32_t i;
1104:../../Middlewares/LVGL/GUI/lvgl/src/draw/sw/lv_draw_sw_mask.c **** 
1105:../../Middlewares/LVGL/GUI/lvgl/src/draw/sw/lv_draw_sw_mask.c ****     uint32_t x_int[4];
1106:../../Middlewares/LVGL/GUI/lvgl/src/draw/sw/lv_draw_sw_mask.c ****     uint32_t x_fract[4];
1107:../../Middlewares/LVGL/GUI/lvgl/src/draw/sw/lv_draw_sw_mask.c ****     int32_t cir_size = 0;
1108:../../Middlewares/LVGL/GUI/lvgl/src/draw/sw/lv_draw_sw_mask.c ****     x_int[0] = cp.x >> 2;
1109:../../Middlewares/LVGL/GUI/lvgl/src/draw/sw/lv_draw_sw_mask.c ****     x_fract[0] = 0;
1110:../../Middlewares/LVGL/GUI/lvgl/src/draw/sw/lv_draw_sw_mask.c **** 
1111:../../Middlewares/LVGL/GUI/lvgl/src/draw/sw/lv_draw_sw_mask.c ****     /*Calculate an 1/8 circle*/
1112:../../Middlewares/LVGL/GUI/lvgl/src/draw/sw/lv_draw_sw_mask.c ****     while(circ_cont(&cp)) {
1113:../../Middlewares/LVGL/GUI/lvgl/src/draw/sw/lv_draw_sw_mask.c ****         /*Calculate 4 point of the circle */
1114:../../Middlewares/LVGL/GUI/lvgl/src/draw/sw/lv_draw_sw_mask.c ****         for(i = 0; i < 4; i++) {
1115:../../Middlewares/LVGL/GUI/lvgl/src/draw/sw/lv_draw_sw_mask.c ****             circ_next(&cp, &tmp);
1116:../../Middlewares/LVGL/GUI/lvgl/src/draw/sw/lv_draw_sw_mask.c ****             if(circ_cont(&cp) == false) break;
1117:../../Middlewares/LVGL/GUI/lvgl/src/draw/sw/lv_draw_sw_mask.c ****             x_int[i] = cp.x >> 2;
1118:../../Middlewares/LVGL/GUI/lvgl/src/draw/sw/lv_draw_sw_mask.c ****             x_fract[i] = cp.x & 0x3;
1119:../../Middlewares/LVGL/GUI/lvgl/src/draw/sw/lv_draw_sw_mask.c ****         }
1120:../../Middlewares/LVGL/GUI/lvgl/src/draw/sw/lv_draw_sw_mask.c ****         if(i != 4) break;
1121:../../Middlewares/LVGL/GUI/lvgl/src/draw/sw/lv_draw_sw_mask.c **** 
1122:../../Middlewares/LVGL/GUI/lvgl/src/draw/sw/lv_draw_sw_mask.c ****         /*All lines on the same x when downscaled*/
1123:../../Middlewares/LVGL/GUI/lvgl/src/draw/sw/lv_draw_sw_mask.c ****         if(x_int[0] == x_int[3]) {
1124:../../Middlewares/LVGL/GUI/lvgl/src/draw/sw/lv_draw_sw_mask.c ****             cir_x[cir_size] = x_int[0];
1125:../../Middlewares/LVGL/GUI/lvgl/src/draw/sw/lv_draw_sw_mask.c ****             cir_y[cir_size] = y_8th_cnt;
1126:../../Middlewares/LVGL/GUI/lvgl/src/draw/sw/lv_draw_sw_mask.c ****             c->cir_opa[cir_size] = x_fract[0] + x_fract[1] + x_fract[2] + x_fract[3];
1127:../../Middlewares/LVGL/GUI/lvgl/src/draw/sw/lv_draw_sw_mask.c ****             c->cir_opa[cir_size] *= 16;
1128:../../Middlewares/LVGL/GUI/lvgl/src/draw/sw/lv_draw_sw_mask.c ****             cir_size++;
1129:../../Middlewares/LVGL/GUI/lvgl/src/draw/sw/lv_draw_sw_mask.c ****         }
1130:../../Middlewares/LVGL/GUI/lvgl/src/draw/sw/lv_draw_sw_mask.c ****         /*Second line on new x when downscaled*/
1131:../../Middlewares/LVGL/GUI/lvgl/src/draw/sw/lv_draw_sw_mask.c ****         else if(x_int[0] != x_int[1]) {
1132:../../Middlewares/LVGL/GUI/lvgl/src/draw/sw/lv_draw_sw_mask.c ****             cir_x[cir_size] = x_int[0];
1133:../../Middlewares/LVGL/GUI/lvgl/src/draw/sw/lv_draw_sw_mask.c ****             cir_y[cir_size] = y_8th_cnt;
1134:../../Middlewares/LVGL/GUI/lvgl/src/draw/sw/lv_draw_sw_mask.c ****             c->cir_opa[cir_size] = x_fract[0];
1135:../../Middlewares/LVGL/GUI/lvgl/src/draw/sw/lv_draw_sw_mask.c ****             c->cir_opa[cir_size] *= 16;
1136:../../Middlewares/LVGL/GUI/lvgl/src/draw/sw/lv_draw_sw_mask.c ****             cir_size++;
1137:../../Middlewares/LVGL/GUI/lvgl/src/draw/sw/lv_draw_sw_mask.c **** 
1138:../../Middlewares/LVGL/GUI/lvgl/src/draw/sw/lv_draw_sw_mask.c ****             cir_x[cir_size] = x_int[0] - 1;
1139:../../Middlewares/LVGL/GUI/lvgl/src/draw/sw/lv_draw_sw_mask.c ****             cir_y[cir_size] = y_8th_cnt;
1140:../../Middlewares/LVGL/GUI/lvgl/src/draw/sw/lv_draw_sw_mask.c ****             c->cir_opa[cir_size] = 1 * 4 + x_fract[1] + x_fract[2] + x_fract[3];;
1141:../../Middlewares/LVGL/GUI/lvgl/src/draw/sw/lv_draw_sw_mask.c ****             c->cir_opa[cir_size] *= 16;
1142:../../Middlewares/LVGL/GUI/lvgl/src/draw/sw/lv_draw_sw_mask.c ****             cir_size++;
1143:../../Middlewares/LVGL/GUI/lvgl/src/draw/sw/lv_draw_sw_mask.c ****         }
1144:../../Middlewares/LVGL/GUI/lvgl/src/draw/sw/lv_draw_sw_mask.c ****         /*Third line on new x when downscaled*/
1145:../../Middlewares/LVGL/GUI/lvgl/src/draw/sw/lv_draw_sw_mask.c ****         else if(x_int[0] != x_int[2]) {
1146:../../Middlewares/LVGL/GUI/lvgl/src/draw/sw/lv_draw_sw_mask.c ****             cir_x[cir_size] = x_int[0];
1147:../../Middlewares/LVGL/GUI/lvgl/src/draw/sw/lv_draw_sw_mask.c ****             cir_y[cir_size] = y_8th_cnt;
1148:../../Middlewares/LVGL/GUI/lvgl/src/draw/sw/lv_draw_sw_mask.c ****             c->cir_opa[cir_size] = x_fract[0] + x_fract[1];
1149:../../Middlewares/LVGL/GUI/lvgl/src/draw/sw/lv_draw_sw_mask.c ****             c->cir_opa[cir_size] *= 16;
1150:../../Middlewares/LVGL/GUI/lvgl/src/draw/sw/lv_draw_sw_mask.c ****             cir_size++;
1151:../../Middlewares/LVGL/GUI/lvgl/src/draw/sw/lv_draw_sw_mask.c **** 
1152:../../Middlewares/LVGL/GUI/lvgl/src/draw/sw/lv_draw_sw_mask.c ****             cir_x[cir_size] = x_int[0] - 1;
1153:../../Middlewares/LVGL/GUI/lvgl/src/draw/sw/lv_draw_sw_mask.c ****             cir_y[cir_size] = y_8th_cnt;
1154:../../Middlewares/LVGL/GUI/lvgl/src/draw/sw/lv_draw_sw_mask.c ****             c->cir_opa[cir_size] = 2 * 4 + x_fract[2] + x_fract[3];;
1155:../../Middlewares/LVGL/GUI/lvgl/src/draw/sw/lv_draw_sw_mask.c ****             c->cir_opa[cir_size] *= 16;
1156:../../Middlewares/LVGL/GUI/lvgl/src/draw/sw/lv_draw_sw_mask.c ****             cir_size++;
ARM GAS  C:\Users\28576\AppData\Local\Temp\ccagJBpt.s 			page 24


1157:../../Middlewares/LVGL/GUI/lvgl/src/draw/sw/lv_draw_sw_mask.c ****         }
1158:../../Middlewares/LVGL/GUI/lvgl/src/draw/sw/lv_draw_sw_mask.c ****         /*Forth line on new x when downscaled*/
1159:../../Middlewares/LVGL/GUI/lvgl/src/draw/sw/lv_draw_sw_mask.c ****         else {
1160:../../Middlewares/LVGL/GUI/lvgl/src/draw/sw/lv_draw_sw_mask.c ****             cir_x[cir_size] = x_int[0];
1161:../../Middlewares/LVGL/GUI/lvgl/src/draw/sw/lv_draw_sw_mask.c ****             cir_y[cir_size] = y_8th_cnt;
1162:../../Middlewares/LVGL/GUI/lvgl/src/draw/sw/lv_draw_sw_mask.c ****             c->cir_opa[cir_size] = x_fract[0] + x_fract[1] + x_fract[2];
1163:../../Middlewares/LVGL/GUI/lvgl/src/draw/sw/lv_draw_sw_mask.c ****             c->cir_opa[cir_size] *= 16;
1164:../../Middlewares/LVGL/GUI/lvgl/src/draw/sw/lv_draw_sw_mask.c ****             cir_size++;
1165:../../Middlewares/LVGL/GUI/lvgl/src/draw/sw/lv_draw_sw_mask.c **** 
1166:../../Middlewares/LVGL/GUI/lvgl/src/draw/sw/lv_draw_sw_mask.c ****             cir_x[cir_size] = x_int[0] - 1;
1167:../../Middlewares/LVGL/GUI/lvgl/src/draw/sw/lv_draw_sw_mask.c ****             cir_y[cir_size] = y_8th_cnt;
1168:../../Middlewares/LVGL/GUI/lvgl/src/draw/sw/lv_draw_sw_mask.c ****             c->cir_opa[cir_size] = 3 * 4 + x_fract[3];;
1169:../../Middlewares/LVGL/GUI/lvgl/src/draw/sw/lv_draw_sw_mask.c ****             c->cir_opa[cir_size] *= 16;
1170:../../Middlewares/LVGL/GUI/lvgl/src/draw/sw/lv_draw_sw_mask.c ****             cir_size++;
1171:../../Middlewares/LVGL/GUI/lvgl/src/draw/sw/lv_draw_sw_mask.c ****         }
1172:../../Middlewares/LVGL/GUI/lvgl/src/draw/sw/lv_draw_sw_mask.c **** 
1173:../../Middlewares/LVGL/GUI/lvgl/src/draw/sw/lv_draw_sw_mask.c ****         y_8th_cnt++;
1174:../../Middlewares/LVGL/GUI/lvgl/src/draw/sw/lv_draw_sw_mask.c ****     }
1175:../../Middlewares/LVGL/GUI/lvgl/src/draw/sw/lv_draw_sw_mask.c **** 
1176:../../Middlewares/LVGL/GUI/lvgl/src/draw/sw/lv_draw_sw_mask.c ****     /*The point on the 1/8 circle is special, calculate it manually*/
1177:../../Middlewares/LVGL/GUI/lvgl/src/draw/sw/lv_draw_sw_mask.c ****     int32_t mid = radius * 723;
1178:../../Middlewares/LVGL/GUI/lvgl/src/draw/sw/lv_draw_sw_mask.c ****     int32_t mid_int = mid >> 10;
1179:../../Middlewares/LVGL/GUI/lvgl/src/draw/sw/lv_draw_sw_mask.c ****     if(cir_x[cir_size - 1] != mid_int || cir_y[cir_size - 1] != mid_int) {
1180:../../Middlewares/LVGL/GUI/lvgl/src/draw/sw/lv_draw_sw_mask.c ****         int32_t tmp_val = mid - (mid_int << 10);
1181:../../Middlewares/LVGL/GUI/lvgl/src/draw/sw/lv_draw_sw_mask.c ****         if(tmp_val <= 512) {
1182:../../Middlewares/LVGL/GUI/lvgl/src/draw/sw/lv_draw_sw_mask.c ****             tmp_val = tmp_val * tmp_val * 2;
1183:../../Middlewares/LVGL/GUI/lvgl/src/draw/sw/lv_draw_sw_mask.c ****             tmp_val = tmp_val >> (10 + 6);
1184:../../Middlewares/LVGL/GUI/lvgl/src/draw/sw/lv_draw_sw_mask.c ****         }
1185:../../Middlewares/LVGL/GUI/lvgl/src/draw/sw/lv_draw_sw_mask.c ****         else {
1186:../../Middlewares/LVGL/GUI/lvgl/src/draw/sw/lv_draw_sw_mask.c ****             tmp_val = 1024 - tmp_val;
1187:../../Middlewares/LVGL/GUI/lvgl/src/draw/sw/lv_draw_sw_mask.c ****             tmp_val = tmp_val * tmp_val * 2;
1188:../../Middlewares/LVGL/GUI/lvgl/src/draw/sw/lv_draw_sw_mask.c ****             tmp_val = tmp_val >> (10 + 6);
1189:../../Middlewares/LVGL/GUI/lvgl/src/draw/sw/lv_draw_sw_mask.c ****             tmp_val = 15 - tmp_val;
1190:../../Middlewares/LVGL/GUI/lvgl/src/draw/sw/lv_draw_sw_mask.c ****         }
1191:../../Middlewares/LVGL/GUI/lvgl/src/draw/sw/lv_draw_sw_mask.c **** 
1192:../../Middlewares/LVGL/GUI/lvgl/src/draw/sw/lv_draw_sw_mask.c ****         cir_x[cir_size] = mid_int;
1193:../../Middlewares/LVGL/GUI/lvgl/src/draw/sw/lv_draw_sw_mask.c ****         cir_y[cir_size] = mid_int;
1194:../../Middlewares/LVGL/GUI/lvgl/src/draw/sw/lv_draw_sw_mask.c ****         c->cir_opa[cir_size] = tmp_val;
1195:../../Middlewares/LVGL/GUI/lvgl/src/draw/sw/lv_draw_sw_mask.c ****         c->cir_opa[cir_size] *= 16;
1196:../../Middlewares/LVGL/GUI/lvgl/src/draw/sw/lv_draw_sw_mask.c ****         cir_size++;
1197:../../Middlewares/LVGL/GUI/lvgl/src/draw/sw/lv_draw_sw_mask.c ****     }
1198:../../Middlewares/LVGL/GUI/lvgl/src/draw/sw/lv_draw_sw_mask.c **** 
1199:../../Middlewares/LVGL/GUI/lvgl/src/draw/sw/lv_draw_sw_mask.c ****     /*Build the second octet by mirroring the first*/
1200:../../Middlewares/LVGL/GUI/lvgl/src/draw/sw/lv_draw_sw_mask.c ****     for(i = cir_size - 2; i >= 0; i--, cir_size++) {
1201:../../Middlewares/LVGL/GUI/lvgl/src/draw/sw/lv_draw_sw_mask.c ****         cir_x[cir_size] = cir_y[i];
1202:../../Middlewares/LVGL/GUI/lvgl/src/draw/sw/lv_draw_sw_mask.c ****         cir_y[cir_size] = cir_x[i];
1203:../../Middlewares/LVGL/GUI/lvgl/src/draw/sw/lv_draw_sw_mask.c ****         c->cir_opa[cir_size] = c->cir_opa[i];
1204:../../Middlewares/LVGL/GUI/lvgl/src/draw/sw/lv_draw_sw_mask.c ****     }
1205:../../Middlewares/LVGL/GUI/lvgl/src/draw/sw/lv_draw_sw_mask.c **** 
1206:../../Middlewares/LVGL/GUI/lvgl/src/draw/sw/lv_draw_sw_mask.c ****     int32_t y = 0;
1207:../../Middlewares/LVGL/GUI/lvgl/src/draw/sw/lv_draw_sw_mask.c ****     i = 0;
1208:../../Middlewares/LVGL/GUI/lvgl/src/draw/sw/lv_draw_sw_mask.c ****     c->opa_start_on_y[0] = 0;
1209:../../Middlewares/LVGL/GUI/lvgl/src/draw/sw/lv_draw_sw_mask.c ****     while(i < cir_size) {
1210:../../Middlewares/LVGL/GUI/lvgl/src/draw/sw/lv_draw_sw_mask.c ****         c->opa_start_on_y[y] = i;
1211:../../Middlewares/LVGL/GUI/lvgl/src/draw/sw/lv_draw_sw_mask.c ****         c->x_start_on_y[y] = cir_x[i];
1212:../../Middlewares/LVGL/GUI/lvgl/src/draw/sw/lv_draw_sw_mask.c ****         for(; cir_y[i] == y && i < (int32_t)cir_size; i++) {
1213:../../Middlewares/LVGL/GUI/lvgl/src/draw/sw/lv_draw_sw_mask.c ****             c->x_start_on_y[y] = LV_MIN(c->x_start_on_y[y], cir_x[i]);
ARM GAS  C:\Users\28576\AppData\Local\Temp\ccagJBpt.s 			page 25


1214:../../Middlewares/LVGL/GUI/lvgl/src/draw/sw/lv_draw_sw_mask.c ****         }
1215:../../Middlewares/LVGL/GUI/lvgl/src/draw/sw/lv_draw_sw_mask.c ****         y++;
1216:../../Middlewares/LVGL/GUI/lvgl/src/draw/sw/lv_draw_sw_mask.c ****     }
1217:../../Middlewares/LVGL/GUI/lvgl/src/draw/sw/lv_draw_sw_mask.c **** 
1218:../../Middlewares/LVGL/GUI/lvgl/src/draw/sw/lv_draw_sw_mask.c ****     lv_free(cir_x);
1219:../../Middlewares/LVGL/GUI/lvgl/src/draw/sw/lv_draw_sw_mask.c **** }
1220:../../Middlewares/LVGL/GUI/lvgl/src/draw/sw/lv_draw_sw_mask.c **** 
1221:../../Middlewares/LVGL/GUI/lvgl/src/draw/sw/lv_draw_sw_mask.c **** static lv_opa_t * get_next_line(lv_draw_sw_mask_radius_circle_dsc_t * c, int32_t y, int32_t * len,
1222:../../Middlewares/LVGL/GUI/lvgl/src/draw/sw/lv_draw_sw_mask.c ****                                 int32_t * x_start)
1223:../../Middlewares/LVGL/GUI/lvgl/src/draw/sw/lv_draw_sw_mask.c **** {
1224:../../Middlewares/LVGL/GUI/lvgl/src/draw/sw/lv_draw_sw_mask.c ****     *len = c->opa_start_on_y[y + 1] - c->opa_start_on_y[y];
1225:../../Middlewares/LVGL/GUI/lvgl/src/draw/sw/lv_draw_sw_mask.c ****     *x_start = c->x_start_on_y[y];
1226:../../Middlewares/LVGL/GUI/lvgl/src/draw/sw/lv_draw_sw_mask.c ****     return &c->cir_opa[c->opa_start_on_y[y]];
1227:../../Middlewares/LVGL/GUI/lvgl/src/draw/sw/lv_draw_sw_mask.c **** }
1228:../../Middlewares/LVGL/GUI/lvgl/src/draw/sw/lv_draw_sw_mask.c **** 
1229:../../Middlewares/LVGL/GUI/lvgl/src/draw/sw/lv_draw_sw_mask.c **** static inline lv_opa_t LV_ATTRIBUTE_FAST_MEM mask_mix(lv_opa_t mask_act, lv_opa_t mask_new)
1230:../../Middlewares/LVGL/GUI/lvgl/src/draw/sw/lv_draw_sw_mask.c **** {
1231:../../Middlewares/LVGL/GUI/lvgl/src/draw/sw/lv_draw_sw_mask.c ****     if(mask_new >= LV_OPA_MAX) return mask_act;
1232:../../Middlewares/LVGL/GUI/lvgl/src/draw/sw/lv_draw_sw_mask.c ****     if(mask_new <= LV_OPA_MIN) return 0;
1233:../../Middlewares/LVGL/GUI/lvgl/src/draw/sw/lv_draw_sw_mask.c **** 
1234:../../Middlewares/LVGL/GUI/lvgl/src/draw/sw/lv_draw_sw_mask.c ****     return LV_UDIV255(mask_act * mask_new);
 157              		.loc 1 1234 5 is_stmt 1 view .LVU54
 158              		.loc 1 1234 12 is_stmt 0 view .LVU55
 159 008c 0CFB02F2 		mul	r2, ip, r2
 160              	.LVL14:
 161              		.loc 1 1234 12 view .LVU56
 162 0090 02EB022C 		add	ip, r2, r2, lsl #8
 163              	.LVL15:
 164              		.loc 1 1234 12 view .LVU57
 165 0094 02EBCC12 		add	r2, r2, ip, lsl #7
 166 0098 C2F3C752 		ubfx	r2, r2, #23, #8
 167              	.L7:
 168              	.LVL16:
 169              		.loc 1 1234 12 view .LVU58
 170              	.LBE129:
 171              	.LBE128:
 972:../../Middlewares/LVGL/GUI/lvgl/src/draw/sw/lv_draw_sw_mask.c ****         }
 172              		.loc 1 972 25 discriminator 1 view .LVU59
 173 009c 2270     		strb	r2, [r4]
 971:../../Middlewares/LVGL/GUI/lvgl/src/draw/sw/lv_draw_sw_mask.c ****             mask_buf[i] = mask_mix(mask_buf[i], p->cfg.opa_top);
 174              		.loc 1 971 30 is_stmt 1 discriminator 3 view .LVU60
 175 009e 0131     		adds	r1, r1, #1
 176              	.LVL17:
 177              	.L5:
 971:../../Middlewares/LVGL/GUI/lvgl/src/draw/sw/lv_draw_sw_mask.c ****             mask_buf[i] = mask_mix(mask_buf[i], p->cfg.opa_top);
 178              		.loc 1 971 22 discriminator 1 view .LVU61
 179 00a0 8B42     		cmp	r3, r1
 180 00a2 0EDD     		ble	.L29
 972:../../Middlewares/LVGL/GUI/lvgl/src/draw/sw/lv_draw_sw_mask.c ****         }
 181              		.loc 1 972 13 view .LVU62
 972:../../Middlewares/LVGL/GUI/lvgl/src/draw/sw/lv_draw_sw_mask.c ****         }
 182              		.loc 1 972 44 is_stmt 0 view .LVU63
 183 00a4 4218     		adds	r2, r0, r1
 184 00a6 1446     		mov	r4, r2
 972:../../Middlewares/LVGL/GUI/lvgl/src/draw/sw/lv_draw_sw_mask.c ****         }
 185              		.loc 1 972 27 view .LVU64
 186 00a8 425C     		ldrb	r2, [r0, r1]	@ zero_extendqisi2
ARM GAS  C:\Users\28576\AppData\Local\Temp\ccagJBpt.s 			page 26


 187 00aa 9EF820C0 		ldrb	ip, [lr, #32]	@ zero_extendqisi2
 188              	.LVL18:
 189              	.LBB131:
 190              	.LBI128:
1229:../../Middlewares/LVGL/GUI/lvgl/src/draw/sw/lv_draw_sw_mask.c **** {
 191              		.loc 1 1229 46 is_stmt 1 view .LVU65
 192              	.LBB130:
1231:../../Middlewares/LVGL/GUI/lvgl/src/draw/sw/lv_draw_sw_mask.c ****     if(mask_new <= LV_OPA_MIN) return 0;
 193              		.loc 1 1231 5 view .LVU66
1231:../../Middlewares/LVGL/GUI/lvgl/src/draw/sw/lv_draw_sw_mask.c ****     if(mask_new <= LV_OPA_MIN) return 0;
 194              		.loc 1 1231 7 is_stmt 0 view .LVU67
 195 00ae BCF1FC0F 		cmp	ip, #252
 196 00b2 F3D8     		bhi	.L7
1232:../../Middlewares/LVGL/GUI/lvgl/src/draw/sw/lv_draw_sw_mask.c **** 
 197              		.loc 1 1232 5 is_stmt 1 view .LVU68
1232:../../Middlewares/LVGL/GUI/lvgl/src/draw/sw/lv_draw_sw_mask.c **** 
 198              		.loc 1 1232 7 is_stmt 0 view .LVU69
 199 00b4 BCF1020F 		cmp	ip, #2
 200 00b8 E8D8     		bhi	.L30
1232:../../Middlewares/LVGL/GUI/lvgl/src/draw/sw/lv_draw_sw_mask.c **** 
 201              		.loc 1 1232 39 discriminator 1 view .LVU70
 202 00ba 0022     		movs	r2, #0
 203              	.LVL19:
1232:../../Middlewares/LVGL/GUI/lvgl/src/draw/sw/lv_draw_sw_mask.c **** 
 204              		.loc 1 1232 39 discriminator 1 view .LVU71
 205 00bc EEE7     		b	.L7
 206              	.LVL20:
 207              	.L28:
1232:../../Middlewares/LVGL/GUI/lvgl/src/draw/sw/lv_draw_sw_mask.c **** 
 208              		.loc 1 1232 39 discriminator 1 view .LVU72
 209              	.LBE130:
 210              	.LBE131:
 971:../../Middlewares/LVGL/GUI/lvgl/src/draw/sw/lv_draw_sw_mask.c ****             mask_buf[i] = mask_mix(mask_buf[i], p->cfg.opa_top);
 211              		.loc 1 971 15 view .LVU73
 212 00be 0021     		movs	r1, #0
 213 00c0 EEE7     		b	.L5
 214              	.LVL21:
 215              	.L29:
 974:../../Middlewares/LVGL/GUI/lvgl/src/draw/sw/lv_draw_sw_mask.c ****     }
 216              		.loc 1 974 16 view .LVU74
 217 00c2 0220     		movs	r0, #2
 218              	.LVL22:
 974:../../Middlewares/LVGL/GUI/lvgl/src/draw/sw/lv_draw_sw_mask.c ****     }
 219              		.loc 1 974 16 view .LVU75
 220 00c4 37E0     		b	.L2
 221              	.LVL23:
 222              	.L32:
 223              	.LBB132:
 224              	.LBB133:
 225              		.loc 1 1234 5 is_stmt 1 view .LVU76
 226              		.loc 1 1234 12 is_stmt 0 view .LVU77
 227 00c6 0CFB02F2 		mul	r2, ip, r2
 228              	.LVL24:
 229              		.loc 1 1234 12 view .LVU78
 230 00ca 02EB022C 		add	ip, r2, r2, lsl #8
 231              	.LVL25:
 232              		.loc 1 1234 12 view .LVU79
ARM GAS  C:\Users\28576\AppData\Local\Temp\ccagJBpt.s 			page 27


 233 00ce 02EBCC12 		add	r2, r2, ip, lsl #7
 234 00d2 C2F3C752 		ubfx	r2, r2, #23, #8
 235              	.L11:
 236              	.LVL26:
 237              		.loc 1 1234 12 view .LVU80
 238              	.LBE133:
 239              	.LBE132:
 978:../../Middlewares/LVGL/GUI/lvgl/src/draw/sw/lv_draw_sw_mask.c ****         }
 240              		.loc 1 978 25 discriminator 1 view .LVU81
 241 00d6 2270     		strb	r2, [r4]
 977:../../Middlewares/LVGL/GUI/lvgl/src/draw/sw/lv_draw_sw_mask.c ****             mask_buf[i] = mask_mix(mask_buf[i], p->cfg.opa_bottom);
 242              		.loc 1 977 30 is_stmt 1 discriminator 3 view .LVU82
 243 00d8 0131     		adds	r1, r1, #1
 244              	.LVL27:
 245              	.L9:
 977:../../Middlewares/LVGL/GUI/lvgl/src/draw/sw/lv_draw_sw_mask.c ****             mask_buf[i] = mask_mix(mask_buf[i], p->cfg.opa_bottom);
 246              		.loc 1 977 22 discriminator 1 view .LVU83
 247 00da 8B42     		cmp	r3, r1
 248 00dc 0EDD     		ble	.L31
 978:../../Middlewares/LVGL/GUI/lvgl/src/draw/sw/lv_draw_sw_mask.c ****         }
 249              		.loc 1 978 13 view .LVU84
 978:../../Middlewares/LVGL/GUI/lvgl/src/draw/sw/lv_draw_sw_mask.c ****         }
 250              		.loc 1 978 44 is_stmt 0 view .LVU85
 251 00de 4218     		adds	r2, r0, r1
 252 00e0 1446     		mov	r4, r2
 978:../../Middlewares/LVGL/GUI/lvgl/src/draw/sw/lv_draw_sw_mask.c ****         }
 253              		.loc 1 978 27 view .LVU86
 254 00e2 425C     		ldrb	r2, [r0, r1]	@ zero_extendqisi2
 255 00e4 9EF821C0 		ldrb	ip, [lr, #33]	@ zero_extendqisi2
 256              	.LVL28:
 257              	.LBB135:
 258              	.LBI132:
1229:../../Middlewares/LVGL/GUI/lvgl/src/draw/sw/lv_draw_sw_mask.c **** {
 259              		.loc 1 1229 46 is_stmt 1 view .LVU87
 260              	.LBB134:
1231:../../Middlewares/LVGL/GUI/lvgl/src/draw/sw/lv_draw_sw_mask.c ****     if(mask_new <= LV_OPA_MIN) return 0;
 261              		.loc 1 1231 5 view .LVU88
1231:../../Middlewares/LVGL/GUI/lvgl/src/draw/sw/lv_draw_sw_mask.c ****     if(mask_new <= LV_OPA_MIN) return 0;
 262              		.loc 1 1231 7 is_stmt 0 view .LVU89
 263 00e8 BCF1FC0F 		cmp	ip, #252
 264 00ec F3D8     		bhi	.L11
1232:../../Middlewares/LVGL/GUI/lvgl/src/draw/sw/lv_draw_sw_mask.c **** 
 265              		.loc 1 1232 5 is_stmt 1 view .LVU90
1232:../../Middlewares/LVGL/GUI/lvgl/src/draw/sw/lv_draw_sw_mask.c **** 
 266              		.loc 1 1232 7 is_stmt 0 view .LVU91
 267 00ee BCF1020F 		cmp	ip, #2
 268 00f2 E8D8     		bhi	.L32
1232:../../Middlewares/LVGL/GUI/lvgl/src/draw/sw/lv_draw_sw_mask.c **** 
 269              		.loc 1 1232 39 discriminator 1 view .LVU92
 270 00f4 0022     		movs	r2, #0
 271              	.LVL29:
1232:../../Middlewares/LVGL/GUI/lvgl/src/draw/sw/lv_draw_sw_mask.c **** 
 272              		.loc 1 1232 39 discriminator 1 view .LVU93
 273 00f6 EEE7     		b	.L11
 274              	.LVL30:
 275              	.L22:
1232:../../Middlewares/LVGL/GUI/lvgl/src/draw/sw/lv_draw_sw_mask.c **** 
ARM GAS  C:\Users\28576\AppData\Local\Temp\ccagJBpt.s 			page 28


 276              		.loc 1 1232 39 discriminator 1 view .LVU94
 277              	.LBE134:
 278              	.LBE135:
 977:../../Middlewares/LVGL/GUI/lvgl/src/draw/sw/lv_draw_sw_mask.c ****             mask_buf[i] = mask_mix(mask_buf[i], p->cfg.opa_bottom);
 279              		.loc 1 977 15 view .LVU95
 280 00f8 0021     		movs	r1, #0
 281 00fa EEE7     		b	.L9
 282              	.LVL31:
 283              	.L31:
 980:../../Middlewares/LVGL/GUI/lvgl/src/draw/sw/lv_draw_sw_mask.c ****     }
 284              		.loc 1 980 16 view .LVU96
 285 00fc 0220     		movs	r0, #2
 286              	.LVL32:
 980:../../Middlewares/LVGL/GUI/lvgl/src/draw/sw/lv_draw_sw_mask.c ****     }
 287              		.loc 1 980 16 view .LVU97
 288 00fe 1AE0     		b	.L2
 289              	.LVL33:
 290              	.L34:
 291              	.LBB136:
 292              	.LBB124:
 293              	.LBB125:
 294              		.loc 1 1234 5 is_stmt 1 view .LVU98
 295              		.loc 1 1234 12 is_stmt 0 view .LVU99
 296 0100 0CFB02F2 		mul	r2, ip, r2
 297              	.LVL34:
 298              		.loc 1 1234 12 view .LVU100
 299 0104 02EB0224 		add	r4, r2, r2, lsl #8
 300 0108 02EBC412 		add	r2, r2, r4, lsl #7
 301 010c C2F3C752 		ubfx	r2, r2, #23, #8
 302              	.L14:
 303              	.LVL35:
 304              		.loc 1 1234 12 view .LVU101
 305              	.LBE125:
 306              	.LBE124:
 990:../../Middlewares/LVGL/GUI/lvgl/src/draw/sw/lv_draw_sw_mask.c ****         }
 307              		.loc 1 990 25 discriminator 1 view .LVU102
 308 0110 8EF80020 		strb	r2, [lr]
 989:../../Middlewares/LVGL/GUI/lvgl/src/draw/sw/lv_draw_sw_mask.c ****             mask_buf[i] = mask_mix(mask_buf[i], opa_act);
 309              		.loc 1 989 30 is_stmt 1 discriminator 3 view .LVU103
 310 0114 0131     		adds	r1, r1, #1
 311              	.LVL36:
 312              	.L13:
 989:../../Middlewares/LVGL/GUI/lvgl/src/draw/sw/lv_draw_sw_mask.c ****             mask_buf[i] = mask_mix(mask_buf[i], opa_act);
 313              		.loc 1 989 22 discriminator 1 view .LVU104
 314 0116 8B42     		cmp	r3, r1
 315 0118 0ADD     		ble	.L33
 990:../../Middlewares/LVGL/GUI/lvgl/src/draw/sw/lv_draw_sw_mask.c ****         }
 316              		.loc 1 990 13 view .LVU105
 990:../../Middlewares/LVGL/GUI/lvgl/src/draw/sw/lv_draw_sw_mask.c ****         }
 317              		.loc 1 990 44 is_stmt 0 view .LVU106
 318 011a 00EB010E 		add	lr, r0, r1
 990:../../Middlewares/LVGL/GUI/lvgl/src/draw/sw/lv_draw_sw_mask.c ****         }
 319              		.loc 1 990 27 view .LVU107
 320 011e 425C     		ldrb	r2, [r0, r1]	@ zero_extendqisi2
 321              	.LVL37:
 322              	.LBB127:
 323              	.LBI124:
ARM GAS  C:\Users\28576\AppData\Local\Temp\ccagJBpt.s 			page 29


1229:../../Middlewares/LVGL/GUI/lvgl/src/draw/sw/lv_draw_sw_mask.c **** {
 324              		.loc 1 1229 46 is_stmt 1 view .LVU108
 325              	.LBB126:
1231:../../Middlewares/LVGL/GUI/lvgl/src/draw/sw/lv_draw_sw_mask.c ****     if(mask_new <= LV_OPA_MIN) return 0;
 326              		.loc 1 1231 5 view .LVU109
1231:../../Middlewares/LVGL/GUI/lvgl/src/draw/sw/lv_draw_sw_mask.c ****     if(mask_new <= LV_OPA_MIN) return 0;
 327              		.loc 1 1231 7 is_stmt 0 view .LVU110
 328 0120 BCF1FC0F 		cmp	ip, #252
 329 0124 F4D8     		bhi	.L14
1232:../../Middlewares/LVGL/GUI/lvgl/src/draw/sw/lv_draw_sw_mask.c **** 
 330              		.loc 1 1232 5 is_stmt 1 view .LVU111
1232:../../Middlewares/LVGL/GUI/lvgl/src/draw/sw/lv_draw_sw_mask.c **** 
 331              		.loc 1 1232 7 is_stmt 0 view .LVU112
 332 0126 BCF1020F 		cmp	ip, #2
 333 012a E9D8     		bhi	.L34
1232:../../Middlewares/LVGL/GUI/lvgl/src/draw/sw/lv_draw_sw_mask.c **** 
 334              		.loc 1 1232 39 discriminator 1 view .LVU113
 335 012c 0022     		movs	r2, #0
 336              	.LVL38:
1232:../../Middlewares/LVGL/GUI/lvgl/src/draw/sw/lv_draw_sw_mask.c **** 
 337              		.loc 1 1232 39 discriminator 1 view .LVU114
 338 012e EFE7     		b	.L14
 339              	.LVL39:
 340              	.L33:
1232:../../Middlewares/LVGL/GUI/lvgl/src/draw/sw/lv_draw_sw_mask.c **** 
 341              		.loc 1 1232 39 discriminator 1 view .LVU115
 342              	.LBE126:
 343              	.LBE127:
 992:../../Middlewares/LVGL/GUI/lvgl/src/draw/sw/lv_draw_sw_mask.c ****     }
 344              		.loc 1 992 16 view .LVU116
 345 0130 0220     		movs	r0, #2
 346              	.LVL40:
 992:../../Middlewares/LVGL/GUI/lvgl/src/draw/sw/lv_draw_sw_mask.c ****     }
 347              		.loc 1 992 16 view .LVU117
 348 0132 00E0     		b	.L2
 349              	.LVL41:
 350              	.L16:
 992:../../Middlewares/LVGL/GUI/lvgl/src/draw/sw/lv_draw_sw_mask.c ****     }
 351              		.loc 1 992 16 view .LVU118
 352              	.LBE136:
 954:../../Middlewares/LVGL/GUI/lvgl/src/draw/sw/lv_draw_sw_mask.c ****     if(abs_y > p->cfg.coords.y2) return LV_DRAW_SW_MASK_RES_FULL_COVER;
 353              		.loc 1 954 41 discriminator 1 view .LVU119
 354 0134 0120     		movs	r0, #1
 355              	.LVL42:
 356              	.L2:
 994:../../Middlewares/LVGL/GUI/lvgl/src/draw/sw/lv_draw_sw_mask.c **** 
 357              		.loc 1 994 1 view .LVU120
 358 0136 30BD     		pop	{r4, r5, pc}
 359              	.LVL43:
 360              	.L17:
 955:../../Middlewares/LVGL/GUI/lvgl/src/draw/sw/lv_draw_sw_mask.c ****     if(abs_x + len < p->cfg.coords.x1) return LV_DRAW_SW_MASK_RES_FULL_COVER;
 361              		.loc 1 955 41 discriminator 1 view .LVU121
 362 0138 0120     		movs	r0, #1
 363              	.LVL44:
 955:../../Middlewares/LVGL/GUI/lvgl/src/draw/sw/lv_draw_sw_mask.c ****     if(abs_x + len < p->cfg.coords.x1) return LV_DRAW_SW_MASK_RES_FULL_COVER;
 364              		.loc 1 955 41 discriminator 1 view .LVU122
 365 013a FCE7     		b	.L2
ARM GAS  C:\Users\28576\AppData\Local\Temp\ccagJBpt.s 			page 30


 366              	.LVL45:
 367              	.L18:
 956:../../Middlewares/LVGL/GUI/lvgl/src/draw/sw/lv_draw_sw_mask.c ****     if(abs_x > p->cfg.coords.x2) return LV_DRAW_SW_MASK_RES_FULL_COVER;
 368              		.loc 1 956 47 discriminator 1 view .LVU123
 369 013c 0120     		movs	r0, #1
 370              	.LVL46:
 956:../../Middlewares/LVGL/GUI/lvgl/src/draw/sw/lv_draw_sw_mask.c ****     if(abs_x > p->cfg.coords.x2) return LV_DRAW_SW_MASK_RES_FULL_COVER;
 371              		.loc 1 956 47 discriminator 1 view .LVU124
 372 013e FAE7     		b	.L2
 373              	.LVL47:
 374              	.L19:
 957:../../Middlewares/LVGL/GUI/lvgl/src/draw/sw/lv_draw_sw_mask.c **** 
 375              		.loc 1 957 41 discriminator 1 view .LVU125
 376 0140 0120     		movs	r0, #1
 377              	.LVL48:
 957:../../Middlewares/LVGL/GUI/lvgl/src/draw/sw/lv_draw_sw_mask.c **** 
 378              		.loc 1 957 41 discriminator 1 view .LVU126
 379 0142 F8E7     		b	.L2
 380              		.cfi_endproc
 381              	.LFE203:
 383              		.section	.text.circ_init,"ax",%progbits
 384              		.align	1
 385              		.syntax unified
 386              		.thumb
 387              		.thumb_func
 389              	circ_init:
 390              	.LVL49:
 391              	.LFB205:
1037:../../Middlewares/LVGL/GUI/lvgl/src/draw/sw/lv_draw_sw_mask.c ****     c->x = radius;
 392              		.loc 1 1037 1 is_stmt 1 view -0
 393              		.cfi_startproc
 394              		@ args = 0, pretend = 0, frame = 0
 395              		@ frame_needed = 0, uses_anonymous_args = 0
 396              		@ link register save eliminated.
1038:../../Middlewares/LVGL/GUI/lvgl/src/draw/sw/lv_draw_sw_mask.c ****     c->y = 0;
 397              		.loc 1 1038 5 view .LVU128
1038:../../Middlewares/LVGL/GUI/lvgl/src/draw/sw/lv_draw_sw_mask.c ****     c->y = 0;
 398              		.loc 1 1038 10 is_stmt 0 view .LVU129
 399 0000 0260     		str	r2, [r0]
1039:../../Middlewares/LVGL/GUI/lvgl/src/draw/sw/lv_draw_sw_mask.c ****     *tmp = 1 - radius;
 400              		.loc 1 1039 5 is_stmt 1 view .LVU130
1039:../../Middlewares/LVGL/GUI/lvgl/src/draw/sw/lv_draw_sw_mask.c ****     *tmp = 1 - radius;
 401              		.loc 1 1039 10 is_stmt 0 view .LVU131
 402 0002 0023     		movs	r3, #0
 403 0004 4360     		str	r3, [r0, #4]
1040:../../Middlewares/LVGL/GUI/lvgl/src/draw/sw/lv_draw_sw_mask.c **** }
 404              		.loc 1 1040 5 is_stmt 1 view .LVU132
1040:../../Middlewares/LVGL/GUI/lvgl/src/draw/sw/lv_draw_sw_mask.c **** }
 405              		.loc 1 1040 14 is_stmt 0 view .LVU133
 406 0006 C2F10102 		rsb	r2, r2, #1
 407              	.LVL50:
1040:../../Middlewares/LVGL/GUI/lvgl/src/draw/sw/lv_draw_sw_mask.c **** }
 408              		.loc 1 1040 10 view .LVU134
 409 000a 0A60     		str	r2, [r1]
 410              	.LVL51:
1041:../../Middlewares/LVGL/GUI/lvgl/src/draw/sw/lv_draw_sw_mask.c **** 
 411              		.loc 1 1041 1 view .LVU135
ARM GAS  C:\Users\28576\AppData\Local\Temp\ccagJBpt.s 			page 31


 412 000c 7047     		bx	lr
 413              		.cfi_endproc
 414              	.LFE205:
 416              		.section	.text.circ_cont,"ax",%progbits
 417              		.align	1
 418              		.syntax unified
 419              		.thumb
 420              		.thumb_func
 422              	circ_cont:
 423              	.LVL52:
 424              	.LFB206:
1049:../../Middlewares/LVGL/GUI/lvgl/src/draw/sw/lv_draw_sw_mask.c ****     return c->y <= c->x;
 425              		.loc 1 1049 1 is_stmt 1 view -0
 426              		.cfi_startproc
 427              		@ args = 0, pretend = 0, frame = 0
 428              		@ frame_needed = 0, uses_anonymous_args = 0
 429              		@ link register save eliminated.
1050:../../Middlewares/LVGL/GUI/lvgl/src/draw/sw/lv_draw_sw_mask.c **** }
 430              		.loc 1 1050 5 view .LVU137
1050:../../Middlewares/LVGL/GUI/lvgl/src/draw/sw/lv_draw_sw_mask.c **** }
 431              		.loc 1 1050 13 is_stmt 0 view .LVU138
 432 0000 4268     		ldr	r2, [r0, #4]
1050:../../Middlewares/LVGL/GUI/lvgl/src/draw/sw/lv_draw_sw_mask.c **** }
 433              		.loc 1 1050 21 view .LVU139
 434 0002 0068     		ldr	r0, [r0]
 435              	.LVL53:
1051:../../Middlewares/LVGL/GUI/lvgl/src/draw/sw/lv_draw_sw_mask.c **** 
 436              		.loc 1 1051 1 view .LVU140
 437 0004 8242     		cmp	r2, r0
 438 0006 CCBF     		ite	gt
 439 0008 0020     		movgt	r0, #0
 440 000a 0120     		movle	r0, #1
 441 000c 7047     		bx	lr
 442              		.cfi_endproc
 443              	.LFE206:
 445              		.section	.text.circ_next,"ax",%progbits
 446              		.align	1
 447              		.syntax unified
 448              		.thumb
 449              		.thumb_func
 451              	circ_next:
 452              	.LVL54:
 453              	.LFB207:
1059:../../Middlewares/LVGL/GUI/lvgl/src/draw/sw/lv_draw_sw_mask.c **** 
 454              		.loc 1 1059 1 is_stmt 1 view -0
 455              		.cfi_startproc
 456              		@ args = 0, pretend = 0, frame = 0
 457              		@ frame_needed = 0, uses_anonymous_args = 0
 458              		@ link register save eliminated.
1061:../../Middlewares/LVGL/GUI/lvgl/src/draw/sw/lv_draw_sw_mask.c ****         (*tmp) += 2 * c->y + 3; /*Change in decision criterion for y -> y+1*/
 459              		.loc 1 1061 5 view .LVU142
1061:../../Middlewares/LVGL/GUI/lvgl/src/draw/sw/lv_draw_sw_mask.c ****         (*tmp) += 2 * c->y + 3; /*Change in decision criterion for y -> y+1*/
 460              		.loc 1 1061 8 is_stmt 0 view .LVU143
 461 0000 0B68     		ldr	r3, [r1]
1061:../../Middlewares/LVGL/GUI/lvgl/src/draw/sw/lv_draw_sw_mask.c ****         (*tmp) += 2 * c->y + 3; /*Change in decision criterion for y -> y+1*/
 462              		.loc 1 1061 7 view .LVU144
 463 0002 002B     		cmp	r3, #0
ARM GAS  C:\Users\28576\AppData\Local\Temp\ccagJBpt.s 			page 32


 464 0004 0FDD     		ble	.L43
1059:../../Middlewares/LVGL/GUI/lvgl/src/draw/sw/lv_draw_sw_mask.c **** 
 465              		.loc 1 1059 1 view .LVU145
 466 0006 10B4     		push	{r4}
 467              	.LCFI1:
 468              		.cfi_def_cfa_offset 4
 469              		.cfi_offset 4, -4
1065:../../Middlewares/LVGL/GUI/lvgl/src/draw/sw/lv_draw_sw_mask.c ****         c->x--;
 470              		.loc 1 1065 9 is_stmt 1 view .LVU146
1065:../../Middlewares/LVGL/GUI/lvgl/src/draw/sw/lv_draw_sw_mask.c ****         c->x--;
 471              		.loc 1 1065 25 is_stmt 0 view .LVU147
 472 0008 4268     		ldr	r2, [r0, #4]
1065:../../Middlewares/LVGL/GUI/lvgl/src/draw/sw/lv_draw_sw_mask.c ****         c->x--;
 473              		.loc 1 1065 29 view .LVU148
 474 000a 0468     		ldr	r4, [r0]
 475 000c 121B     		subs	r2, r2, r4
1065:../../Middlewares/LVGL/GUI/lvgl/src/draw/sw/lv_draw_sw_mask.c ****         c->x--;
 476              		.loc 1 1065 21 view .LVU149
 477 000e 5200     		lsls	r2, r2, #1
1065:../../Middlewares/LVGL/GUI/lvgl/src/draw/sw/lv_draw_sw_mask.c ****         c->x--;
 478              		.loc 1 1065 37 view .LVU150
 479 0010 0532     		adds	r2, r2, #5
1065:../../Middlewares/LVGL/GUI/lvgl/src/draw/sw/lv_draw_sw_mask.c ****         c->x--;
 480              		.loc 1 1065 16 view .LVU151
 481 0012 1344     		add	r3, r3, r2
 482 0014 0B60     		str	r3, [r1]
1066:../../Middlewares/LVGL/GUI/lvgl/src/draw/sw/lv_draw_sw_mask.c ****     }
 483              		.loc 1 1066 9 is_stmt 1 view .LVU152
1066:../../Middlewares/LVGL/GUI/lvgl/src/draw/sw/lv_draw_sw_mask.c ****     }
 484              		.loc 1 1066 10 is_stmt 0 view .LVU153
 485 0016 0368     		ldr	r3, [r0]
1066:../../Middlewares/LVGL/GUI/lvgl/src/draw/sw/lv_draw_sw_mask.c ****     }
 486              		.loc 1 1066 13 view .LVU154
 487 0018 013B     		subs	r3, r3, #1
 488 001a 0360     		str	r3, [r0]
1068:../../Middlewares/LVGL/GUI/lvgl/src/draw/sw/lv_draw_sw_mask.c **** }
 489              		.loc 1 1068 5 is_stmt 1 view .LVU155
1068:../../Middlewares/LVGL/GUI/lvgl/src/draw/sw/lv_draw_sw_mask.c **** }
 490              		.loc 1 1068 6 is_stmt 0 view .LVU156
 491 001c 4368     		ldr	r3, [r0, #4]
1068:../../Middlewares/LVGL/GUI/lvgl/src/draw/sw/lv_draw_sw_mask.c **** }
 492              		.loc 1 1068 9 view .LVU157
 493 001e 0133     		adds	r3, r3, #1
 494 0020 4360     		str	r3, [r0, #4]
1069:../../Middlewares/LVGL/GUI/lvgl/src/draw/sw/lv_draw_sw_mask.c **** 
 495              		.loc 1 1069 1 view .LVU158
 496 0022 10BC     		pop	{r4}
 497              	.LCFI2:
 498              		.cfi_restore 4
 499              		.cfi_def_cfa_offset 0
 500 0024 7047     		bx	lr
 501              	.L43:
1062:../../Middlewares/LVGL/GUI/lvgl/src/draw/sw/lv_draw_sw_mask.c ****     }
 502              		.loc 1 1062 9 is_stmt 1 view .LVU159
1062:../../Middlewares/LVGL/GUI/lvgl/src/draw/sw/lv_draw_sw_mask.c ****     }
 503              		.loc 1 1062 24 is_stmt 0 view .LVU160
 504 0026 4268     		ldr	r2, [r0, #4]
ARM GAS  C:\Users\28576\AppData\Local\Temp\ccagJBpt.s 			page 33


1062:../../Middlewares/LVGL/GUI/lvgl/src/draw/sw/lv_draw_sw_mask.c ****     }
 505              		.loc 1 1062 21 view .LVU161
 506 0028 5200     		lsls	r2, r2, #1
1062:../../Middlewares/LVGL/GUI/lvgl/src/draw/sw/lv_draw_sw_mask.c ****     }
 507              		.loc 1 1062 28 view .LVU162
 508 002a 0332     		adds	r2, r2, #3
1062:../../Middlewares/LVGL/GUI/lvgl/src/draw/sw/lv_draw_sw_mask.c ****     }
 509              		.loc 1 1062 16 view .LVU163
 510 002c 1344     		add	r3, r3, r2
 511 002e 0B60     		str	r3, [r1]
1068:../../Middlewares/LVGL/GUI/lvgl/src/draw/sw/lv_draw_sw_mask.c **** }
 512              		.loc 1 1068 5 is_stmt 1 view .LVU164
1068:../../Middlewares/LVGL/GUI/lvgl/src/draw/sw/lv_draw_sw_mask.c **** }
 513              		.loc 1 1068 6 is_stmt 0 view .LVU165
 514 0030 4368     		ldr	r3, [r0, #4]
1068:../../Middlewares/LVGL/GUI/lvgl/src/draw/sw/lv_draw_sw_mask.c **** }
 515              		.loc 1 1068 9 view .LVU166
 516 0032 0133     		adds	r3, r3, #1
 517 0034 4360     		str	r3, [r0, #4]
 518 0036 7047     		bx	lr
 519              		.cfi_endproc
 520              	.LFE207:
 522              		.section	.text.get_next_line,"ax",%progbits
 523              		.align	1
 524              		.syntax unified
 525              		.thumb
 526              		.thumb_func
 528              	get_next_line:
 529              	.LVL55:
 530              	.LFB209:
1223:../../Middlewares/LVGL/GUI/lvgl/src/draw/sw/lv_draw_sw_mask.c ****     *len = c->opa_start_on_y[y + 1] - c->opa_start_on_y[y];
 531              		.loc 1 1223 1 is_stmt 1 view -0
 532              		.cfi_startproc
 533              		@ args = 0, pretend = 0, frame = 0
 534              		@ frame_needed = 0, uses_anonymous_args = 0
1223:../../Middlewares/LVGL/GUI/lvgl/src/draw/sw/lv_draw_sw_mask.c ****     *len = c->opa_start_on_y[y + 1] - c->opa_start_on_y[y];
 535              		.loc 1 1223 1 is_stmt 0 view .LVU168
 536 0000 00B5     		push	{lr}
 537              	.LCFI3:
 538              		.cfi_def_cfa_offset 4
 539              		.cfi_offset 14, -4
1224:../../Middlewares/LVGL/GUI/lvgl/src/draw/sw/lv_draw_sw_mask.c ****     *x_start = c->x_start_on_y[y];
 540              		.loc 1 1224 5 is_stmt 1 view .LVU169
1224:../../Middlewares/LVGL/GUI/lvgl/src/draw/sw/lv_draw_sw_mask.c ****     *x_start = c->x_start_on_y[y];
 541              		.loc 1 1224 13 is_stmt 0 view .LVU170
 542 0002 D0F80CE0 		ldr	lr, [r0, #12]
1224:../../Middlewares/LVGL/GUI/lvgl/src/draw/sw/lv_draw_sw_mask.c ****     *x_start = c->x_start_on_y[y];
 543              		.loc 1 1224 32 view .LVU171
 544 0006 01F1010C 		add	ip, r1, #1
1224:../../Middlewares/LVGL/GUI/lvgl/src/draw/sw/lv_draw_sw_mask.c ****     *x_start = c->x_start_on_y[y];
 545              		.loc 1 1224 29 view .LVU172
 546 000a 3EF81CC0 		ldrh	ip, [lr, ip, lsl #1]
1224:../../Middlewares/LVGL/GUI/lvgl/src/draw/sw/lv_draw_sw_mask.c ****     *x_start = c->x_start_on_y[y];
 547              		.loc 1 1224 56 view .LVU173
 548 000e 3EF811E0 		ldrh	lr, [lr, r1, lsl #1]
1224:../../Middlewares/LVGL/GUI/lvgl/src/draw/sw/lv_draw_sw_mask.c ****     *x_start = c->x_start_on_y[y];
 549              		.loc 1 1224 37 view .LVU174
ARM GAS  C:\Users\28576\AppData\Local\Temp\ccagJBpt.s 			page 34


 550 0012 ACEB0E0C 		sub	ip, ip, lr
1224:../../Middlewares/LVGL/GUI/lvgl/src/draw/sw/lv_draw_sw_mask.c ****     *x_start = c->x_start_on_y[y];
 551              		.loc 1 1224 10 view .LVU175
 552 0016 C2F800C0 		str	ip, [r2]
1225:../../Middlewares/LVGL/GUI/lvgl/src/draw/sw/lv_draw_sw_mask.c ****     return &c->cir_opa[c->opa_start_on_y[y]];
 553              		.loc 1 1225 5 is_stmt 1 view .LVU176
1225:../../Middlewares/LVGL/GUI/lvgl/src/draw/sw/lv_draw_sw_mask.c ****     return &c->cir_opa[c->opa_start_on_y[y]];
 554              		.loc 1 1225 17 is_stmt 0 view .LVU177
 555 001a 8268     		ldr	r2, [r0, #8]
 556              	.LVL56:
1225:../../Middlewares/LVGL/GUI/lvgl/src/draw/sw/lv_draw_sw_mask.c ****     return &c->cir_opa[c->opa_start_on_y[y]];
 557              		.loc 1 1225 31 view .LVU178
 558 001c 32F81120 		ldrh	r2, [r2, r1, lsl #1]
1225:../../Middlewares/LVGL/GUI/lvgl/src/draw/sw/lv_draw_sw_mask.c ****     return &c->cir_opa[c->opa_start_on_y[y]];
 559              		.loc 1 1225 14 view .LVU179
 560 0020 1A60     		str	r2, [r3]
1226:../../Middlewares/LVGL/GUI/lvgl/src/draw/sw/lv_draw_sw_mask.c **** }
 561              		.loc 1 1226 5 is_stmt 1 view .LVU180
1226:../../Middlewares/LVGL/GUI/lvgl/src/draw/sw/lv_draw_sw_mask.c **** }
 562              		.loc 1 1226 14 is_stmt 0 view .LVU181
 563 0022 4268     		ldr	r2, [r0, #4]
1226:../../Middlewares/LVGL/GUI/lvgl/src/draw/sw/lv_draw_sw_mask.c **** }
 564              		.loc 1 1226 25 view .LVU182
 565 0024 C368     		ldr	r3, [r0, #12]
 566              	.LVL57:
1226:../../Middlewares/LVGL/GUI/lvgl/src/draw/sw/lv_draw_sw_mask.c **** }
 567              		.loc 1 1226 41 view .LVU183
 568 0026 33F81100 		ldrh	r0, [r3, r1, lsl #1]
 569              	.LVL58:
1227:../../Middlewares/LVGL/GUI/lvgl/src/draw/sw/lv_draw_sw_mask.c **** 
 570              		.loc 1 1227 1 view .LVU184
 571 002a 1044     		add	r0, r0, r2
 572 002c 00BD     		pop	{pc}
 573              		.cfi_endproc
 574              	.LFE209:
 576              		.section	.text.line_mask_flat,"ax",%progbits
 577              		.align	1
 578              		.syntax unified
 579              		.thumb
 580              		.thumb_func
 582              	line_mask_flat:
 583              	.LVL59:
 584              	.LFB199:
 446:../../Middlewares/LVGL/GUI/lvgl/src/draw/sw/lv_draw_sw_mask.c **** 
 585              		.loc 1 446 1 is_stmt 1 view -0
 586              		.cfi_startproc
 587              		@ args = 4, pretend = 0, frame = 0
 588              		@ frame_needed = 0, uses_anonymous_args = 0
 446:../../Middlewares/LVGL/GUI/lvgl/src/draw/sw/lv_draw_sw_mask.c **** 
 589              		.loc 1 446 1 is_stmt 0 view .LVU186
 590 0000 F8B5     		push	{r3, r4, r5, r6, r7, lr}
 591              	.LCFI4:
 592              		.cfi_def_cfa_offset 24
 593              		.cfi_offset 3, -24
 594              		.cfi_offset 4, -20
 595              		.cfi_offset 5, -16
 596              		.cfi_offset 6, -12
ARM GAS  C:\Users\28576\AppData\Local\Temp\ccagJBpt.s 			page 35


 597              		.cfi_offset 7, -8
 598              		.cfi_offset 14, -4
 599 0002 0C46     		mov	r4, r1
 600 0004 1946     		mov	r1, r3
 601              	.LVL60:
 446:../../Middlewares/LVGL/GUI/lvgl/src/draw/sw/lv_draw_sw_mask.c **** 
 602              		.loc 1 446 1 view .LVU187
 603 0006 069B     		ldr	r3, [sp, #24]
 604              	.LVL61:
 448:../../Middlewares/LVGL/GUI/lvgl/src/draw/sw/lv_draw_sw_mask.c ****     y_at_x = (int32_t)((int32_t)p->yx_steep * abs_x) >> 10;
 605              		.loc 1 448 5 is_stmt 1 view .LVU188
 449:../../Middlewares/LVGL/GUI/lvgl/src/draw/sw/lv_draw_sw_mask.c **** 
 606              		.loc 1 449 5 view .LVU189
 449:../../Middlewares/LVGL/GUI/lvgl/src/draw/sw/lv_draw_sw_mask.c **** 
 607              		.loc 1 449 34 is_stmt 0 view .LVU190
 608 0008 9D6A     		ldr	r5, [r3, #40]
 449:../../Middlewares/LVGL/GUI/lvgl/src/draw/sw/lv_draw_sw_mask.c **** 
 609              		.loc 1 449 14 view .LVU191
 610 000a 04FB05FC 		mul	ip, r4, r5
 449:../../Middlewares/LVGL/GUI/lvgl/src/draw/sw/lv_draw_sw_mask.c **** 
 611              		.loc 1 449 12 view .LVU192
 612 000e 4FEAAC2C 		asr	ip, ip, #10
 613              	.LVL62:
 451:../../Middlewares/LVGL/GUI/lvgl/src/draw/sw/lv_draw_sw_mask.c ****         if(y_at_x > abs_y) {
 614              		.loc 1 451 5 is_stmt 1 view .LVU193
 451:../../Middlewares/LVGL/GUI/lvgl/src/draw/sw/lv_draw_sw_mask.c ****         if(y_at_x > abs_y) {
 615              		.loc 1 451 7 is_stmt 0 view .LVU194
 616 0012 002D     		cmp	r5, #0
 617 0014 09DD     		ble	.L47
 452:../../Middlewares/LVGL/GUI/lvgl/src/draw/sw/lv_draw_sw_mask.c ****             if(p->inv) {
 618              		.loc 1 452 9 is_stmt 1 view .LVU195
 452:../../Middlewares/LVGL/GUI/lvgl/src/draw/sw/lv_draw_sw_mask.c ****             if(p->inv) {
 619              		.loc 1 452 11 is_stmt 0 view .LVU196
 620 0016 9445     		cmp	ip, r2
 621 0018 10DD     		ble	.L48
 453:../../Middlewares/LVGL/GUI/lvgl/src/draw/sw/lv_draw_sw_mask.c ****                 return LV_DRAW_SW_MASK_RES_FULL_COVER;
 622              		.loc 1 453 13 is_stmt 1 view .LVU197
 453:../../Middlewares/LVGL/GUI/lvgl/src/draw/sw/lv_draw_sw_mask.c ****                 return LV_DRAW_SW_MASK_RES_FULL_COVER;
 623              		.loc 1 453 16 is_stmt 0 view .LVU198
 624 001a 93F83430 		ldrb	r3, [r3, #52]	@ zero_extendqisi2
 453:../../Middlewares/LVGL/GUI/lvgl/src/draw/sw/lv_draw_sw_mask.c ****                 return LV_DRAW_SW_MASK_RES_FULL_COVER;
 625              		.loc 1 453 15 view .LVU199
 626 001e 13F00203 		ands	r3, r3, #2
 627 0022 00D0     		beq	.L49
 454:../../Middlewares/LVGL/GUI/lvgl/src/draw/sw/lv_draw_sw_mask.c ****             }
 628              		.loc 1 454 24 view .LVU200
 629 0024 0123     		movs	r3, #1
 630              	.LVL63:
 631              	.L49:
 557:../../Middlewares/LVGL/GUI/lvgl/src/draw/sw/lv_draw_sw_mask.c **** 
 632              		.loc 1 557 1 view .LVU201
 633 0026 1846     		mov	r0, r3
 634 0028 F8BD     		pop	{r3, r4, r5, r6, r7, pc}
 635              	.LVL64:
 636              	.L47:
 462:../../Middlewares/LVGL/GUI/lvgl/src/draw/sw/lv_draw_sw_mask.c ****             if(p->inv) {
 637              		.loc 1 462 9 is_stmt 1 view .LVU202
ARM GAS  C:\Users\28576\AppData\Local\Temp\ccagJBpt.s 			page 36


 462:../../Middlewares/LVGL/GUI/lvgl/src/draw/sw/lv_draw_sw_mask.c ****             if(p->inv) {
 638              		.loc 1 462 11 is_stmt 0 view .LVU203
 639 002a 9445     		cmp	ip, r2
 640 002c 06DA     		bge	.L48
 463:../../Middlewares/LVGL/GUI/lvgl/src/draw/sw/lv_draw_sw_mask.c ****                 return LV_DRAW_SW_MASK_RES_FULL_COVER;
 641              		.loc 1 463 13 is_stmt 1 view .LVU204
 463:../../Middlewares/LVGL/GUI/lvgl/src/draw/sw/lv_draw_sw_mask.c ****                 return LV_DRAW_SW_MASK_RES_FULL_COVER;
 642              		.loc 1 463 16 is_stmt 0 view .LVU205
 643 002e 93F83430 		ldrb	r3, [r3, #52]	@ zero_extendqisi2
 463:../../Middlewares/LVGL/GUI/lvgl/src/draw/sw/lv_draw_sw_mask.c ****                 return LV_DRAW_SW_MASK_RES_FULL_COVER;
 644              		.loc 1 463 15 view .LVU206
 645 0032 13F00203 		ands	r3, r3, #2
 646 0036 F6D0     		beq	.L49
 464:../../Middlewares/LVGL/GUI/lvgl/src/draw/sw/lv_draw_sw_mask.c ****             }
 647              		.loc 1 464 24 view .LVU207
 648 0038 0123     		movs	r3, #1
 649 003a F4E7     		b	.L49
 650              	.L48:
 474:../../Middlewares/LVGL/GUI/lvgl/src/draw/sw/lv_draw_sw_mask.c ****     if(p->yx_steep > 0) {
 651              		.loc 1 474 5 is_stmt 1 view .LVU208
 474:../../Middlewares/LVGL/GUI/lvgl/src/draw/sw/lv_draw_sw_mask.c ****     if(p->yx_steep > 0) {
 652              		.loc 1 474 54 is_stmt 0 view .LVU209
 653 003c 04EB010C 		add	ip, r4, r1
 654              	.LVL65:
 474:../../Middlewares/LVGL/GUI/lvgl/src/draw/sw/lv_draw_sw_mask.c ****     if(p->yx_steep > 0) {
 655              		.loc 1 474 14 view .LVU210
 656 0040 0CFB05FC 		mul	ip, ip, r5
 474:../../Middlewares/LVGL/GUI/lvgl/src/draw/sw/lv_draw_sw_mask.c ****     if(p->yx_steep > 0) {
 657              		.loc 1 474 12 view .LVU211
 658 0044 4FEAAC2C 		asr	ip, ip, #10
 659              	.LVL66:
 475:../../Middlewares/LVGL/GUI/lvgl/src/draw/sw/lv_draw_sw_mask.c ****         if(y_at_x < abs_y) {
 660              		.loc 1 475 5 is_stmt 1 view .LVU212
 475:../../Middlewares/LVGL/GUI/lvgl/src/draw/sw/lv_draw_sw_mask.c ****         if(y_at_x < abs_y) {
 661              		.loc 1 475 7 is_stmt 0 view .LVU213
 662 0048 002D     		cmp	r5, #0
 663 004a 09DD     		ble	.L50
 476:../../Middlewares/LVGL/GUI/lvgl/src/draw/sw/lv_draw_sw_mask.c ****             if(p->inv) {
 664              		.loc 1 476 9 is_stmt 1 view .LVU214
 476:../../Middlewares/LVGL/GUI/lvgl/src/draw/sw/lv_draw_sw_mask.c ****             if(p->inv) {
 665              		.loc 1 476 11 is_stmt 0 view .LVU215
 666 004c 6245     		cmp	r2, ip
 667 004e 11DD     		ble	.L51
 477:../../Middlewares/LVGL/GUI/lvgl/src/draw/sw/lv_draw_sw_mask.c ****                 return LV_DRAW_SW_MASK_RES_TRANSP;
 668              		.loc 1 477 13 is_stmt 1 view .LVU216
 477:../../Middlewares/LVGL/GUI/lvgl/src/draw/sw/lv_draw_sw_mask.c ****                 return LV_DRAW_SW_MASK_RES_TRANSP;
 669              		.loc 1 477 16 is_stmt 0 view .LVU217
 670 0050 93F83430 		ldrb	r3, [r3, #52]	@ zero_extendqisi2
 477:../../Middlewares/LVGL/GUI/lvgl/src/draw/sw/lv_draw_sw_mask.c ****                 return LV_DRAW_SW_MASK_RES_TRANSP;
 671              		.loc 1 477 15 view .LVU218
 672 0054 13F0020F 		tst	r3, #2
 673 0058 00F0DB80 		beq	.L70
 478:../../Middlewares/LVGL/GUI/lvgl/src/draw/sw/lv_draw_sw_mask.c ****             }
 674              		.loc 1 478 24 view .LVU219
 675 005c 0023     		movs	r3, #0
 676 005e E2E7     		b	.L49
 677              	.L50:
ARM GAS  C:\Users\28576\AppData\Local\Temp\ccagJBpt.s 			page 37


 486:../../Middlewares/LVGL/GUI/lvgl/src/draw/sw/lv_draw_sw_mask.c ****             if(p->inv) {
 678              		.loc 1 486 9 is_stmt 1 view .LVU220
 486:../../Middlewares/LVGL/GUI/lvgl/src/draw/sw/lv_draw_sw_mask.c ****             if(p->inv) {
 679              		.loc 1 486 11 is_stmt 0 view .LVU221
 680 0060 6245     		cmp	r2, ip
 681 0062 07DA     		bge	.L51
 487:../../Middlewares/LVGL/GUI/lvgl/src/draw/sw/lv_draw_sw_mask.c ****                 return LV_DRAW_SW_MASK_RES_TRANSP;
 682              		.loc 1 487 13 is_stmt 1 view .LVU222
 487:../../Middlewares/LVGL/GUI/lvgl/src/draw/sw/lv_draw_sw_mask.c ****                 return LV_DRAW_SW_MASK_RES_TRANSP;
 683              		.loc 1 487 16 is_stmt 0 view .LVU223
 684 0064 93F83430 		ldrb	r3, [r3, #52]	@ zero_extendqisi2
 487:../../Middlewares/LVGL/GUI/lvgl/src/draw/sw/lv_draw_sw_mask.c ****                 return LV_DRAW_SW_MASK_RES_TRANSP;
 685              		.loc 1 487 15 view .LVU224
 686 0068 13F0020F 		tst	r3, #2
 687 006c 00F0D380 		beq	.L71
 488:../../Middlewares/LVGL/GUI/lvgl/src/draw/sw/lv_draw_sw_mask.c ****             }
 688              		.loc 1 488 24 view .LVU225
 689 0070 0023     		movs	r3, #0
 690 0072 D8E7     		b	.L49
 691              	.L51:
 496:../../Middlewares/LVGL/GUI/lvgl/src/draw/sw/lv_draw_sw_mask.c ****     if(p->yx_steep > 0) xe = ((abs_y * 256) * p->xy_steep) >> 10;
 692              		.loc 1 496 5 is_stmt 1 view .LVU226
 497:../../Middlewares/LVGL/GUI/lvgl/src/draw/sw/lv_draw_sw_mask.c ****     else xe = (((abs_y + 1) * 256) * p->xy_steep) >> 10;
 693              		.loc 1 497 5 view .LVU227
 497:../../Middlewares/LVGL/GUI/lvgl/src/draw/sw/lv_draw_sw_mask.c ****     else xe = (((abs_y + 1) * 256) * p->xy_steep) >> 10;
 694              		.loc 1 497 7 is_stmt 0 view .LVU228
 695 0074 002D     		cmp	r5, #0
 696 0076 0DDD     		ble	.L52
 497:../../Middlewares/LVGL/GUI/lvgl/src/draw/sw/lv_draw_sw_mask.c ****     else xe = (((abs_y + 1) * 256) * p->xy_steep) >> 10;
 697              		.loc 1 497 25 is_stmt 1 discriminator 1 view .LVU229
 497:../../Middlewares/LVGL/GUI/lvgl/src/draw/sw/lv_draw_sw_mask.c ****     else xe = (((abs_y + 1) * 256) * p->xy_steep) >> 10;
 698              		.loc 1 497 48 is_stmt 0 discriminator 1 view .LVU230
 699 0078 5D6A     		ldr	r5, [r3, #36]
 497:../../Middlewares/LVGL/GUI/lvgl/src/draw/sw/lv_draw_sw_mask.c ****     else xe = (((abs_y + 1) * 256) * p->xy_steep) >> 10;
 700              		.loc 1 497 45 discriminator 1 view .LVU231
 701 007a 05FB02F2 		mul	r2, r5, r2
 702              	.LVL67:
 497:../../Middlewares/LVGL/GUI/lvgl/src/draw/sw/lv_draw_sw_mask.c ****     else xe = (((abs_y + 1) * 256) * p->xy_steep) >> 10;
 703              		.loc 1 497 28 discriminator 1 view .LVU232
 704 007e 42F39502 		sbfx	r2, r2, #2, #22
 705              	.LVL68:
 706              	.L53:
 500:../../Middlewares/LVGL/GUI/lvgl/src/draw/sw/lv_draw_sw_mask.c ****     int32_t xef = xe & 0xFF;
 707              		.loc 1 500 5 is_stmt 1 view .LVU233
 500:../../Middlewares/LVGL/GUI/lvgl/src/draw/sw/lv_draw_sw_mask.c ****     int32_t xef = xe & 0xFF;
 708              		.loc 1 500 13 is_stmt 0 view .LVU234
 709 0082 1512     		asrs	r5, r2, #8
 710 0084 2F46     		mov	r7, r5
 711              	.LVL69:
 501:../../Middlewares/LVGL/GUI/lvgl/src/draw/sw/lv_draw_sw_mask.c **** 
 712              		.loc 1 501 5 is_stmt 1 view .LVU235
 503:../../Middlewares/LVGL/GUI/lvgl/src/draw/sw/lv_draw_sw_mask.c ****     if(xef == 0) px_h = 255;
 713              		.loc 1 503 5 view .LVU236
 504:../../Middlewares/LVGL/GUI/lvgl/src/draw/sw/lv_draw_sw_mask.c ****     else px_h = 255 - (((255 - xef) * p->spx) >> 8);
 714              		.loc 1 504 5 view .LVU237
 504:../../Middlewares/LVGL/GUI/lvgl/src/draw/sw/lv_draw_sw_mask.c ****     else px_h = 255 - (((255 - xef) * p->spx) >> 8);
 715              		.loc 1 504 7 is_stmt 0 view .LVU238
ARM GAS  C:\Users\28576\AppData\Local\Temp\ccagJBpt.s 			page 38


 716 0086 12F0FF02 		ands	r2, r2, #255
 717              	.LVL70:
 504:../../Middlewares/LVGL/GUI/lvgl/src/draw/sw/lv_draw_sw_mask.c ****     else px_h = 255 - (((255 - xef) * p->spx) >> 8);
 718              		.loc 1 504 7 view .LVU239
 719 008a 09D1     		bne	.L54
 720              	.LVL71:
 506:../../Middlewares/LVGL/GUI/lvgl/src/draw/sw/lv_draw_sw_mask.c ****     lv_opa_t m;
 721              		.loc 1 506 5 is_stmt 1 view .LVU240
 506:../../Middlewares/LVGL/GUI/lvgl/src/draw/sw/lv_draw_sw_mask.c ****     lv_opa_t m;
 722              		.loc 1 506 13 is_stmt 0 view .LVU241
 723 008c A5EB040C 		sub	ip, r5, r4
 724              	.LVL72:
 507:../../Middlewares/LVGL/GUI/lvgl/src/draw/sw/lv_draw_sw_mask.c **** 
 725              		.loc 1 507 5 is_stmt 1 view .LVU242
 509:../../Middlewares/LVGL/GUI/lvgl/src/draw/sw/lv_draw_sw_mask.c ****         if(k >= 0 && k < len) {
 726              		.loc 1 509 5 view .LVU243
 504:../../Middlewares/LVGL/GUI/lvgl/src/draw/sw/lv_draw_sw_mask.c ****     else px_h = 255 - (((255 - xef) * p->spx) >> 8);
 727              		.loc 1 504 23 is_stmt 0 discriminator 1 view .LVU244
 728 0090 FF22     		movs	r2, #255
 729 0092 3DE0     		b	.L63
 730              	.LVL73:
 731              	.L52:
 498:../../Middlewares/LVGL/GUI/lvgl/src/draw/sw/lv_draw_sw_mask.c **** 
 732              		.loc 1 498 10 is_stmt 1 view .LVU245
 498:../../Middlewares/LVGL/GUI/lvgl/src/draw/sw/lv_draw_sw_mask.c **** 
 733              		.loc 1 498 39 is_stmt 0 view .LVU246
 734 0094 5D6A     		ldr	r5, [r3, #36]
 498:../../Middlewares/LVGL/GUI/lvgl/src/draw/sw/lv_draw_sw_mask.c **** 
 735              		.loc 1 498 36 view .LVU247
 736 0096 02FB0555 		mla	r5, r2, r5, r5
 498:../../Middlewares/LVGL/GUI/lvgl/src/draw/sw/lv_draw_sw_mask.c **** 
 737              		.loc 1 498 13 view .LVU248
 738 009a 45F39502 		sbfx	r2, r5, #2, #22
 739              	.LVL74:
 498:../../Middlewares/LVGL/GUI/lvgl/src/draw/sw/lv_draw_sw_mask.c **** 
 740              		.loc 1 498 13 view .LVU249
 741 009e F0E7     		b	.L53
 742              	.LVL75:
 743              	.L54:
 505:../../Middlewares/LVGL/GUI/lvgl/src/draw/sw/lv_draw_sw_mask.c ****     int32_t k = xei - abs_x;
 744              		.loc 1 505 10 is_stmt 1 view .LVU250
 505:../../Middlewares/LVGL/GUI/lvgl/src/draw/sw/lv_draw_sw_mask.c ****     int32_t k = xei - abs_x;
 745              		.loc 1 505 30 is_stmt 0 view .LVU251
 746 00a0 C2F1FF05 		rsb	r5, r2, #255
 747              	.LVL76:
 505:../../Middlewares/LVGL/GUI/lvgl/src/draw/sw/lv_draw_sw_mask.c ****     int32_t k = xei - abs_x;
 748              		.loc 1 505 40 view .LVU252
 749 00a4 1E6B     		ldr	r6, [r3, #48]
 505:../../Middlewares/LVGL/GUI/lvgl/src/draw/sw/lv_draw_sw_mask.c ****     int32_t k = xei - abs_x;
 750              		.loc 1 505 37 view .LVU253
 751 00a6 05FB06F6 		mul	r6, r5, r6
 505:../../Middlewares/LVGL/GUI/lvgl/src/draw/sw/lv_draw_sw_mask.c ****     int32_t k = xei - abs_x;
 752              		.loc 1 505 47 view .LVU254
 753 00aa 3612     		asrs	r6, r6, #8
 505:../../Middlewares/LVGL/GUI/lvgl/src/draw/sw/lv_draw_sw_mask.c ****     int32_t k = xei - abs_x;
 754              		.loc 1 505 15 view .LVU255
 755 00ac C6F1FF02 		rsb	r2, r6, #255
ARM GAS  C:\Users\28576\AppData\Local\Temp\ccagJBpt.s 			page 39


 756              	.LVL77:
 506:../../Middlewares/LVGL/GUI/lvgl/src/draw/sw/lv_draw_sw_mask.c ****     lv_opa_t m;
 757              		.loc 1 506 5 is_stmt 1 view .LVU256
 506:../../Middlewares/LVGL/GUI/lvgl/src/draw/sw/lv_draw_sw_mask.c ****     lv_opa_t m;
 758              		.loc 1 506 13 is_stmt 0 view .LVU257
 759 00b0 A7EB040C 		sub	ip, r7, r4
 760              	.LVL78:
 507:../../Middlewares/LVGL/GUI/lvgl/src/draw/sw/lv_draw_sw_mask.c **** 
 761              		.loc 1 507 5 is_stmt 1 view .LVU258
 509:../../Middlewares/LVGL/GUI/lvgl/src/draw/sw/lv_draw_sw_mask.c ****         if(k >= 0 && k < len) {
 762              		.loc 1 509 5 view .LVU259
 510:../../Middlewares/LVGL/GUI/lvgl/src/draw/sw/lv_draw_sw_mask.c ****             m = 255 - (((255 - xef) * (255 - px_h)) >> 9);
 763              		.loc 1 510 9 view .LVU260
 510:../../Middlewares/LVGL/GUI/lvgl/src/draw/sw/lv_draw_sw_mask.c ****             m = 255 - (((255 - xef) * (255 - px_h)) >> 9);
 764              		.loc 1 510 11 is_stmt 0 view .LVU261
 765 00b4 BCF1000F 		cmp	ip, #0
 766 00b8 A8BF     		it	ge
 767 00ba 6145     		cmpge	r1, ip
 768 00bc 1BDD     		ble	.L56
 511:../../Middlewares/LVGL/GUI/lvgl/src/draw/sw/lv_draw_sw_mask.c ****             if(p->inv) m = 255 - m;
 769              		.loc 1 511 13 is_stmt 1 view .LVU262
 511:../../Middlewares/LVGL/GUI/lvgl/src/draw/sw/lv_draw_sw_mask.c ****             if(p->inv) m = 255 - m;
 770              		.loc 1 511 37 is_stmt 0 view .LVU263
 771 00be 06FB05F5 		mul	r5, r6, r5
 511:../../Middlewares/LVGL/GUI/lvgl/src/draw/sw/lv_draw_sw_mask.c ****             if(p->inv) m = 255 - m;
 772              		.loc 1 511 21 view .LVU264
 773 00c2 C5F34725 		ubfx	r5, r5, #9, #8
 511:../../Middlewares/LVGL/GUI/lvgl/src/draw/sw/lv_draw_sw_mask.c ****             if(p->inv) m = 255 - m;
 774              		.loc 1 511 15 view .LVU265
 775 00c6 85F0FF0E 		eor	lr, r5, #255
 776              	.LVL79:
 512:../../Middlewares/LVGL/GUI/lvgl/src/draw/sw/lv_draw_sw_mask.c ****             mask_buf[k] = mask_mix(mask_buf[k], m);
 777              		.loc 1 512 13 is_stmt 1 view .LVU266
 512:../../Middlewares/LVGL/GUI/lvgl/src/draw/sw/lv_draw_sw_mask.c ****             mask_buf[k] = mask_mix(mask_buf[k], m);
 778              		.loc 1 512 16 is_stmt 0 view .LVU267
 779 00ca 93F83460 		ldrb	r6, [r3, #52]	@ zero_extendqisi2
 512:../../Middlewares/LVGL/GUI/lvgl/src/draw/sw/lv_draw_sw_mask.c ****             mask_buf[k] = mask_mix(mask_buf[k], m);
 780              		.loc 1 512 15 view .LVU268
 781 00ce 16F0020F 		tst	r6, #2
 782 00d2 00D1     		bne	.L57
 511:../../Middlewares/LVGL/GUI/lvgl/src/draw/sw/lv_draw_sw_mask.c ****             if(p->inv) m = 255 - m;
 783              		.loc 1 511 15 view .LVU269
 784 00d4 7546     		mov	r5, lr
 785              	.L57:
 786              	.LVL80:
 513:../../Middlewares/LVGL/GUI/lvgl/src/draw/sw/lv_draw_sw_mask.c ****         }
 787              		.loc 1 513 13 is_stmt 1 view .LVU270
 513:../../Middlewares/LVGL/GUI/lvgl/src/draw/sw/lv_draw_sw_mask.c ****         }
 788              		.loc 1 513 27 is_stmt 0 view .LVU271
 789 00d6 10F80C60 		ldrb	r6, [r0, ip]	@ zero_extendqisi2
 790              	.LVL81:
 791              	.LBB137:
 792              	.LBI137:
1229:../../Middlewares/LVGL/GUI/lvgl/src/draw/sw/lv_draw_sw_mask.c **** {
 793              		.loc 1 1229 46 is_stmt 1 view .LVU272
 794              	.LBB138:
1231:../../Middlewares/LVGL/GUI/lvgl/src/draw/sw/lv_draw_sw_mask.c ****     if(mask_new <= LV_OPA_MIN) return 0;
ARM GAS  C:\Users\28576\AppData\Local\Temp\ccagJBpt.s 			page 40


 795              		.loc 1 1231 5 view .LVU273
1231:../../Middlewares/LVGL/GUI/lvgl/src/draw/sw/lv_draw_sw_mask.c ****     if(mask_new <= LV_OPA_MIN) return 0;
 796              		.loc 1 1231 7 is_stmt 0 view .LVU274
 797 00da FC2D     		cmp	r5, #252
 798 00dc 09D8     		bhi	.L58
1232:../../Middlewares/LVGL/GUI/lvgl/src/draw/sw/lv_draw_sw_mask.c **** 
 799              		.loc 1 1232 5 is_stmt 1 view .LVU275
1232:../../Middlewares/LVGL/GUI/lvgl/src/draw/sw/lv_draw_sw_mask.c **** 
 800              		.loc 1 1232 7 is_stmt 0 view .LVU276
 801 00de 022D     		cmp	r5, #2
 802 00e0 0CD9     		bls	.L72
 803              		.loc 1 1234 5 is_stmt 1 view .LVU277
 804              		.loc 1 1234 12 is_stmt 0 view .LVU278
 805 00e2 06FB05F5 		mul	r5, r6, r5
 806              	.LVL82:
 807              		.loc 1 1234 12 view .LVU279
 808 00e6 05EB0526 		add	r6, r5, r5, lsl #8
 809              	.LVL83:
 810              		.loc 1 1234 12 view .LVU280
 811 00ea 05EBC615 		add	r5, r5, r6, lsl #7
 812 00ee C5F3C756 		ubfx	r6, r5, #23, #8
 813              	.L58:
 814              	.LVL84:
 815              		.loc 1 1234 12 view .LVU281
 816              	.LBE138:
 817              	.LBE137:
 513:../../Middlewares/LVGL/GUI/lvgl/src/draw/sw/lv_draw_sw_mask.c ****         }
 818              		.loc 1 513 25 discriminator 1 view .LVU282
 819 00f2 00F80C60 		strb	r6, [r0, ip]
 820              	.LVL85:
 821              	.L56:
 515:../../Middlewares/LVGL/GUI/lvgl/src/draw/sw/lv_draw_sw_mask.c ****     }
 822              		.loc 1 515 9 is_stmt 1 view .LVU283
 515:../../Middlewares/LVGL/GUI/lvgl/src/draw/sw/lv_draw_sw_mask.c ****     }
 823              		.loc 1 515 10 is_stmt 0 view .LVU284
 824 00f6 0CF1010C 		add	ip, ip, #1
 825              	.LVL86:
 515:../../Middlewares/LVGL/GUI/lvgl/src/draw/sw/lv_draw_sw_mask.c ****     }
 826              		.loc 1 515 10 view .LVU285
 827 00fa 09E0     		b	.L63
 828              	.LVL87:
 829              	.L72:
 830              	.LBB140:
 831              	.LBB139:
1232:../../Middlewares/LVGL/GUI/lvgl/src/draw/sw/lv_draw_sw_mask.c **** 
 832              		.loc 1 1232 39 discriminator 1 view .LVU286
 833 00fc 0026     		movs	r6, #0
 834              	.LVL88:
1232:../../Middlewares/LVGL/GUI/lvgl/src/draw/sw/lv_draw_sw_mask.c **** 
 835              		.loc 1 1232 39 discriminator 1 view .LVU287
 836 00fe F8E7     		b	.L58
 837              	.LVL89:
 838              	.L73:
1232:../../Middlewares/LVGL/GUI/lvgl/src/draw/sw/lv_draw_sw_mask.c **** 
 839              		.loc 1 1232 39 discriminator 1 view .LVU288
 840              	.LBE139:
 841              	.LBE140:
ARM GAS  C:\Users\28576\AppData\Local\Temp\ccagJBpt.s 			page 41


 842              	.LBB141:
 843              	.LBB142:
 844 0100 0025     		movs	r5, #0
 845              	.LVL90:
 846              	.L61:
1232:../../Middlewares/LVGL/GUI/lvgl/src/draw/sw/lv_draw_sw_mask.c **** 
 847              		.loc 1 1232 39 discriminator 1 view .LVU289
 848              	.LBE142:
 849              	.LBE141:
 522:../../Middlewares/LVGL/GUI/lvgl/src/draw/sw/lv_draw_sw_mask.c ****         }
 850              		.loc 1 522 25 discriminator 1 view .LVU290
 851 0102 3570     		strb	r5, [r6]
 852              	.LVL91:
 853              	.L59:
 524:../../Middlewares/LVGL/GUI/lvgl/src/draw/sw/lv_draw_sw_mask.c ****         k++;
 854              		.loc 1 524 9 is_stmt 1 view .LVU291
 524:../../Middlewares/LVGL/GUI/lvgl/src/draw/sw/lv_draw_sw_mask.c ****         k++;
 855              		.loc 1 524 18 is_stmt 0 view .LVU292
 856 0104 1D6B     		ldr	r5, [r3, #48]
 524:../../Middlewares/LVGL/GUI/lvgl/src/draw/sw/lv_draw_sw_mask.c ****         k++;
 857              		.loc 1 524 14 view .LVU293
 858 0106 521B     		subs	r2, r2, r5
 859              	.LVL92:
 525:../../Middlewares/LVGL/GUI/lvgl/src/draw/sw/lv_draw_sw_mask.c ****         if(k >= len) break;
 860              		.loc 1 525 9 is_stmt 1 view .LVU294
 525:../../Middlewares/LVGL/GUI/lvgl/src/draw/sw/lv_draw_sw_mask.c ****         if(k >= len) break;
 861              		.loc 1 525 10 is_stmt 0 view .LVU295
 862 0108 0CF1010C 		add	ip, ip, #1
 863              	.LVL93:
 526:../../Middlewares/LVGL/GUI/lvgl/src/draw/sw/lv_draw_sw_mask.c ****     }
 864              		.loc 1 526 9 is_stmt 1 view .LVU296
 526:../../Middlewares/LVGL/GUI/lvgl/src/draw/sw/lv_draw_sw_mask.c ****     }
 865              		.loc 1 526 11 is_stmt 0 view .LVU297
 866 010c 6145     		cmp	r1, ip
 867 010e 2CDD     		ble	.L62
 868              	.LVL94:
 869              	.L63:
 518:../../Middlewares/LVGL/GUI/lvgl/src/draw/sw/lv_draw_sw_mask.c ****         if(k >= 0 && k < len) {
 870              		.loc 1 518 16 is_stmt 1 view .LVU298
 518:../../Middlewares/LVGL/GUI/lvgl/src/draw/sw/lv_draw_sw_mask.c ****         if(k >= 0 && k < len) {
 871              		.loc 1 518 19 is_stmt 0 view .LVU299
 872 0110 1D6B     		ldr	r5, [r3, #48]
 518:../../Middlewares/LVGL/GUI/lvgl/src/draw/sw/lv_draw_sw_mask.c ****         if(k >= 0 && k < len) {
 873              		.loc 1 518 16 view .LVU300
 874 0112 9542     		cmp	r5, r2
 875 0114 29DA     		bge	.L62
 519:../../Middlewares/LVGL/GUI/lvgl/src/draw/sw/lv_draw_sw_mask.c ****             m = px_h - (p->spx >> 1);
 876              		.loc 1 519 9 is_stmt 1 view .LVU301
 519:../../Middlewares/LVGL/GUI/lvgl/src/draw/sw/lv_draw_sw_mask.c ****             m = px_h - (p->spx >> 1);
 877              		.loc 1 519 19 is_stmt 0 view .LVU302
 878 0116 6FEA0C06 		mvn	r6, ip
 879 011a F60F     		lsrs	r6, r6, #31
 880 011c 8C45     		cmp	ip, r1
 881 011e A8BF     		it	ge
 882 0120 0026     		movge	r6, #0
 519:../../Middlewares/LVGL/GUI/lvgl/src/draw/sw/lv_draw_sw_mask.c ****             m = px_h - (p->spx >> 1);
 883              		.loc 1 519 11 view .LVU303
ARM GAS  C:\Users\28576\AppData\Local\Temp\ccagJBpt.s 			page 42


 884 0122 002E     		cmp	r6, #0
 885 0124 EED0     		beq	.L59
 520:../../Middlewares/LVGL/GUI/lvgl/src/draw/sw/lv_draw_sw_mask.c ****             if(p->inv) m = 255 - m;
 886              		.loc 1 520 13 is_stmt 1 view .LVU304
 520:../../Middlewares/LVGL/GUI/lvgl/src/draw/sw/lv_draw_sw_mask.c ****             if(p->inv) m = 255 - m;
 887              		.loc 1 520 22 is_stmt 0 view .LVU305
 888 0126 5FFA82FE 		uxtb	lr, r2
 889 012a C5F34705 		ubfx	r5, r5, #1, #8
 520:../../Middlewares/LVGL/GUI/lvgl/src/draw/sw/lv_draw_sw_mask.c ****             if(p->inv) m = 255 - m;
 890              		.loc 1 520 15 view .LVU306
 891 012e AEEB050E 		sub	lr, lr, r5
 892 0132 5FFA8EFE 		uxtb	lr, lr
 893              	.LVL95:
 521:../../Middlewares/LVGL/GUI/lvgl/src/draw/sw/lv_draw_sw_mask.c ****             mask_buf[k] = mask_mix(mask_buf[k], m);
 894              		.loc 1 521 13 is_stmt 1 view .LVU307
 521:../../Middlewares/LVGL/GUI/lvgl/src/draw/sw/lv_draw_sw_mask.c ****             mask_buf[k] = mask_mix(mask_buf[k], m);
 895              		.loc 1 521 16 is_stmt 0 view .LVU308
 896 0136 93F83450 		ldrb	r5, [r3, #52]	@ zero_extendqisi2
 521:../../Middlewares/LVGL/GUI/lvgl/src/draw/sw/lv_draw_sw_mask.c ****             mask_buf[k] = mask_mix(mask_buf[k], m);
 897              		.loc 1 521 15 view .LVU309
 898 013a 15F0020F 		tst	r5, #2
 899 013e 01D0     		beq	.L60
 521:../../Middlewares/LVGL/GUI/lvgl/src/draw/sw/lv_draw_sw_mask.c ****             mask_buf[k] = mask_mix(mask_buf[k], m);
 900              		.loc 1 521 24 is_stmt 1 discriminator 1 view .LVU310
 521:../../Middlewares/LVGL/GUI/lvgl/src/draw/sw/lv_draw_sw_mask.c ****             mask_buf[k] = mask_mix(mask_buf[k], m);
 901              		.loc 1 521 26 is_stmt 0 discriminator 1 view .LVU311
 902 0140 8EF0FF0E 		eor	lr, lr, #255
 903              	.LVL96:
 904              	.L60:
 522:../../Middlewares/LVGL/GUI/lvgl/src/draw/sw/lv_draw_sw_mask.c ****         }
 905              		.loc 1 522 13 is_stmt 1 view .LVU312
 522:../../Middlewares/LVGL/GUI/lvgl/src/draw/sw/lv_draw_sw_mask.c ****         }
 906              		.loc 1 522 44 is_stmt 0 view .LVU313
 907 0144 00EB0C06 		add	r6, r0, ip
 522:../../Middlewares/LVGL/GUI/lvgl/src/draw/sw/lv_draw_sw_mask.c ****         }
 908              		.loc 1 522 27 view .LVU314
 909 0148 10F80C50 		ldrb	r5, [r0, ip]	@ zero_extendqisi2
 910              	.LVL97:
 911              	.LBB144:
 912              	.LBI141:
1229:../../Middlewares/LVGL/GUI/lvgl/src/draw/sw/lv_draw_sw_mask.c **** {
 913              		.loc 1 1229 46 is_stmt 1 view .LVU315
 914              	.LBB143:
1231:../../Middlewares/LVGL/GUI/lvgl/src/draw/sw/lv_draw_sw_mask.c ****     if(mask_new <= LV_OPA_MIN) return 0;
 915              		.loc 1 1231 5 view .LVU316
1231:../../Middlewares/LVGL/GUI/lvgl/src/draw/sw/lv_draw_sw_mask.c ****     if(mask_new <= LV_OPA_MIN) return 0;
 916              		.loc 1 1231 7 is_stmt 0 view .LVU317
 917 014c BEF1FC0F 		cmp	lr, #252
 918 0150 D7D8     		bhi	.L61
1232:../../Middlewares/LVGL/GUI/lvgl/src/draw/sw/lv_draw_sw_mask.c **** 
 919              		.loc 1 1232 5 is_stmt 1 view .LVU318
1232:../../Middlewares/LVGL/GUI/lvgl/src/draw/sw/lv_draw_sw_mask.c **** 
 920              		.loc 1 1232 7 is_stmt 0 view .LVU319
 921 0152 BEF1020F 		cmp	lr, #2
 922 0156 D3D9     		bls	.L73
 923              		.loc 1 1234 5 is_stmt 1 view .LVU320
 924              		.loc 1 1234 12 is_stmt 0 view .LVU321
ARM GAS  C:\Users\28576\AppData\Local\Temp\ccagJBpt.s 			page 43


 925 0158 0EFB05F5 		mul	r5, lr, r5
 926              	.LVL98:
 927              		.loc 1 1234 12 view .LVU322
 928 015c 05EB052E 		add	lr, r5, r5, lsl #8
 929              	.LVL99:
 930              		.loc 1 1234 12 view .LVU323
 931 0160 05EBCE15 		add	r5, r5, lr, lsl #7
 932 0164 C5F3C755 		ubfx	r5, r5, #23, #8
 933 0168 CBE7     		b	.L61
 934              	.LVL100:
 935              	.L62:
 936              		.loc 1 1234 12 view .LVU324
 937              	.LBE143:
 938              	.LBE144:
 529:../../Middlewares/LVGL/GUI/lvgl/src/draw/sw/lv_draw_sw_mask.c ****         int32_t x_inters = (px_h * p->xy_steep) >> 10;
 939              		.loc 1 529 5 is_stmt 1 view .LVU325
 529:../../Middlewares/LVGL/GUI/lvgl/src/draw/sw/lv_draw_sw_mask.c ****         int32_t x_inters = (px_h * p->xy_steep) >> 10;
 940              		.loc 1 529 16 is_stmt 0 view .LVU326
 941 016a 8C45     		cmp	ip, r1
 942 016c ACBF     		ite	ge
 943 016e 0025     		movge	r5, #0
 944 0170 0125     		movlt	r5, #1
 945 0172 BCF1000F 		cmp	ip, #0
 946 0176 B8BF     		it	lt
 947 0178 0025     		movlt	r5, #0
 529:../../Middlewares/LVGL/GUI/lvgl/src/draw/sw/lv_draw_sw_mask.c ****         int32_t x_inters = (px_h * p->xy_steep) >> 10;
 948              		.loc 1 529 7 view .LVU327
 949 017a 25B3     		cbz	r5, .L65
 950              	.LBB145:
 530:../../Middlewares/LVGL/GUI/lvgl/src/draw/sw/lv_draw_sw_mask.c ****         m = (x_inters * px_h) >> 9;
 951              		.loc 1 530 9 is_stmt 1 view .LVU328
 530:../../Middlewares/LVGL/GUI/lvgl/src/draw/sw/lv_draw_sw_mask.c ****         m = (x_inters * px_h) >> 9;
 952              		.loc 1 530 37 is_stmt 0 view .LVU329
 953 017c 5D6A     		ldr	r5, [r3, #36]
 530:../../Middlewares/LVGL/GUI/lvgl/src/draw/sw/lv_draw_sw_mask.c ****         m = (x_inters * px_h) >> 9;
 954              		.loc 1 530 34 view .LVU330
 955 017e 02FB05F5 		mul	r5, r2, r5
 530:../../Middlewares/LVGL/GUI/lvgl/src/draw/sw/lv_draw_sw_mask.c ****         m = (x_inters * px_h) >> 9;
 956              		.loc 1 530 17 view .LVU331
 957 0182 AD12     		asrs	r5, r5, #10
 958              	.LVL101:
 531:../../Middlewares/LVGL/GUI/lvgl/src/draw/sw/lv_draw_sw_mask.c ****         if(p->yx_steep < 0) m = 255 - m;
 959              		.loc 1 531 9 is_stmt 1 view .LVU332
 531:../../Middlewares/LVGL/GUI/lvgl/src/draw/sw/lv_draw_sw_mask.c ****         if(p->yx_steep < 0) m = 255 - m;
 960              		.loc 1 531 23 is_stmt 0 view .LVU333
 961 0184 05FB02FE 		mul	lr, r5, r2
 531:../../Middlewares/LVGL/GUI/lvgl/src/draw/sw/lv_draw_sw_mask.c ****         if(p->yx_steep < 0) m = 255 - m;
 962              		.loc 1 531 11 view .LVU334
 963 0188 CEF3472E 		ubfx	lr, lr, #9, #8
 964              	.LVL102:
 532:../../Middlewares/LVGL/GUI/lvgl/src/draw/sw/lv_draw_sw_mask.c ****         if(p->inv) m = 255 - m;
 965              		.loc 1 532 9 is_stmt 1 view .LVU335
 532:../../Middlewares/LVGL/GUI/lvgl/src/draw/sw/lv_draw_sw_mask.c ****         if(p->inv) m = 255 - m;
 966              		.loc 1 532 13 is_stmt 0 view .LVU336
 967 018c 9A6A     		ldr	r2, [r3, #40]
 968              	.LVL103:
 532:../../Middlewares/LVGL/GUI/lvgl/src/draw/sw/lv_draw_sw_mask.c ****         if(p->inv) m = 255 - m;
ARM GAS  C:\Users\28576\AppData\Local\Temp\ccagJBpt.s 			page 44


 969              		.loc 1 532 11 view .LVU337
 970 018e 002A     		cmp	r2, #0
 971 0190 25DB     		blt	.L79
 972              	.LVL104:
 973              	.L66:
 533:../../Middlewares/LVGL/GUI/lvgl/src/draw/sw/lv_draw_sw_mask.c ****         mask_buf[k] = mask_mix(mask_buf[k], m);
 974              		.loc 1 533 9 is_stmt 1 view .LVU338
 533:../../Middlewares/LVGL/GUI/lvgl/src/draw/sw/lv_draw_sw_mask.c ****         mask_buf[k] = mask_mix(mask_buf[k], m);
 975              		.loc 1 533 12 is_stmt 0 view .LVU339
 976 0192 93F83420 		ldrb	r2, [r3, #52]	@ zero_extendqisi2
 533:../../Middlewares/LVGL/GUI/lvgl/src/draw/sw/lv_draw_sw_mask.c ****         mask_buf[k] = mask_mix(mask_buf[k], m);
 977              		.loc 1 533 11 view .LVU340
 978 0196 12F0020F 		tst	r2, #2
 979 019a 01D0     		beq	.L67
 533:../../Middlewares/LVGL/GUI/lvgl/src/draw/sw/lv_draw_sw_mask.c ****         mask_buf[k] = mask_mix(mask_buf[k], m);
 980              		.loc 1 533 20 is_stmt 1 discriminator 1 view .LVU341
 533:../../Middlewares/LVGL/GUI/lvgl/src/draw/sw/lv_draw_sw_mask.c ****         mask_buf[k] = mask_mix(mask_buf[k], m);
 981              		.loc 1 533 22 is_stmt 0 discriminator 1 view .LVU342
 982 019c 8EF0FF0E 		eor	lr, lr, #255
 983              	.LVL105:
 984              	.L67:
 534:../../Middlewares/LVGL/GUI/lvgl/src/draw/sw/lv_draw_sw_mask.c ****     }
 985              		.loc 1 534 9 is_stmt 1 view .LVU343
 534:../../Middlewares/LVGL/GUI/lvgl/src/draw/sw/lv_draw_sw_mask.c ****     }
 986              		.loc 1 534 40 is_stmt 0 view .LVU344
 987 01a0 00EB0C05 		add	r5, r0, ip
 988              	.LVL106:
 534:../../Middlewares/LVGL/GUI/lvgl/src/draw/sw/lv_draw_sw_mask.c ****     }
 989              		.loc 1 534 23 view .LVU345
 990 01a4 10F80C20 		ldrb	r2, [r0, ip]	@ zero_extendqisi2
 991              	.LVL107:
 992              	.LBB146:
 993              	.LBI146:
1229:../../Middlewares/LVGL/GUI/lvgl/src/draw/sw/lv_draw_sw_mask.c **** {
 994              		.loc 1 1229 46 is_stmt 1 view .LVU346
 995              	.LBB147:
1231:../../Middlewares/LVGL/GUI/lvgl/src/draw/sw/lv_draw_sw_mask.c ****     if(mask_new <= LV_OPA_MIN) return 0;
 996              		.loc 1 1231 5 view .LVU347
1231:../../Middlewares/LVGL/GUI/lvgl/src/draw/sw/lv_draw_sw_mask.c ****     if(mask_new <= LV_OPA_MIN) return 0;
 997              		.loc 1 1231 7 is_stmt 0 view .LVU348
 998 01a8 BEF1FC0F 		cmp	lr, #252
 999 01ac 0AD8     		bhi	.L68
1232:../../Middlewares/LVGL/GUI/lvgl/src/draw/sw/lv_draw_sw_mask.c **** 
 1000              		.loc 1 1232 5 is_stmt 1 view .LVU349
1232:../../Middlewares/LVGL/GUI/lvgl/src/draw/sw/lv_draw_sw_mask.c **** 
 1001              		.loc 1 1232 7 is_stmt 0 view .LVU350
 1002 01ae BEF1020F 		cmp	lr, #2
 1003 01b2 17D9     		bls	.L74
 1004              		.loc 1 1234 5 is_stmt 1 view .LVU351
 1005              		.loc 1 1234 12 is_stmt 0 view .LVU352
 1006 01b4 0EFB02F2 		mul	r2, lr, r2
 1007              	.LVL108:
 1008              		.loc 1 1234 12 view .LVU353
 1009 01b8 02EB0226 		add	r6, r2, r2, lsl #8
 1010 01bc 02EBC612 		add	r2, r2, r6, lsl #7
 1011 01c0 C2F3C752 		ubfx	r2, r2, #23, #8
 1012              	.L68:
ARM GAS  C:\Users\28576\AppData\Local\Temp\ccagJBpt.s 			page 45


 1013              	.LVL109:
 1014              		.loc 1 1234 12 view .LVU354
 1015              	.LBE147:
 1016              	.LBE146:
 534:../../Middlewares/LVGL/GUI/lvgl/src/draw/sw/lv_draw_sw_mask.c ****     }
 1017              		.loc 1 534 21 discriminator 1 view .LVU355
 1018 01c4 2A70     		strb	r2, [r5]
 1019              	.LVL110:
 1020              	.L65:
 534:../../Middlewares/LVGL/GUI/lvgl/src/draw/sw/lv_draw_sw_mask.c ****     }
 1021              		.loc 1 534 21 discriminator 1 view .LVU356
 1022              	.LBE145:
 537:../../Middlewares/LVGL/GUI/lvgl/src/draw/sw/lv_draw_sw_mask.c ****         k = xei - abs_x;
 1023              		.loc 1 537 5 is_stmt 1 view .LVU357
 537:../../Middlewares/LVGL/GUI/lvgl/src/draw/sw/lv_draw_sw_mask.c ****         k = xei - abs_x;
 1024              		.loc 1 537 8 is_stmt 0 view .LVU358
 1025 01c6 93F83430 		ldrb	r3, [r3, #52]	@ zero_extendqisi2
 537:../../Middlewares/LVGL/GUI/lvgl/src/draw/sw/lv_draw_sw_mask.c ****         k = xei - abs_x;
 1026              		.loc 1 537 7 view .LVU359
 1027 01ca 13F00203 		ands	r3, r3, #2
 1028 01ce 10D0     		beq	.L69
 538:../../Middlewares/LVGL/GUI/lvgl/src/draw/sw/lv_draw_sw_mask.c ****         if(k > len) {
 1029              		.loc 1 538 9 is_stmt 1 view .LVU360
 538:../../Middlewares/LVGL/GUI/lvgl/src/draw/sw/lv_draw_sw_mask.c ****         if(k > len) {
 1030              		.loc 1 538 11 is_stmt 0 view .LVU361
 1031 01d0 3A1B     		subs	r2, r7, r4
 1032              	.LVL111:
 539:../../Middlewares/LVGL/GUI/lvgl/src/draw/sw/lv_draw_sw_mask.c ****             return LV_DRAW_SW_MASK_RES_TRANSP;
 1033              		.loc 1 539 9 is_stmt 1 view .LVU362
 539:../../Middlewares/LVGL/GUI/lvgl/src/draw/sw/lv_draw_sw_mask.c ****             return LV_DRAW_SW_MASK_RES_TRANSP;
 1034              		.loc 1 539 11 is_stmt 0 view .LVU363
 1035 01d2 9142     		cmp	r1, r2
 1036 01d4 21DB     		blt	.L75
 542:../../Middlewares/LVGL/GUI/lvgl/src/draw/sw/lv_draw_sw_mask.c ****             lv_memzero(&mask_buf[0], k);
 1037              		.loc 1 542 9 is_stmt 1 view .LVU364
 542:../../Middlewares/LVGL/GUI/lvgl/src/draw/sw/lv_draw_sw_mask.c ****             lv_memzero(&mask_buf[0], k);
 1038              		.loc 1 542 11 is_stmt 0 view .LVU365
 1039 01d6 002A     		cmp	r2, #0
 1040 01d8 06DA     		bge	.L80
 556:../../Middlewares/LVGL/GUI/lvgl/src/draw/sw/lv_draw_sw_mask.c **** }
 1041              		.loc 1 556 12 view .LVU366
 1042 01da 0223     		movs	r3, #2
 1043 01dc 23E7     		b	.L49
 1044              	.LVL112:
 1045              	.L79:
 1046              	.LBB150:
 532:../../Middlewares/LVGL/GUI/lvgl/src/draw/sw/lv_draw_sw_mask.c ****         if(p->inv) m = 255 - m;
 1047              		.loc 1 532 29 is_stmt 1 discriminator 1 view .LVU367
 532:../../Middlewares/LVGL/GUI/lvgl/src/draw/sw/lv_draw_sw_mask.c ****         if(p->inv) m = 255 - m;
 1048              		.loc 1 532 31 is_stmt 0 discriminator 1 view .LVU368
 1049 01de 8EF0FF0E 		eor	lr, lr, #255
 1050              	.LVL113:
 532:../../Middlewares/LVGL/GUI/lvgl/src/draw/sw/lv_draw_sw_mask.c ****         if(p->inv) m = 255 - m;
 1051              		.loc 1 532 31 discriminator 1 view .LVU369
 1052 01e2 D6E7     		b	.L66
 1053              	.LVL114:
 1054              	.L74:
ARM GAS  C:\Users\28576\AppData\Local\Temp\ccagJBpt.s 			page 46


 1055              	.LBB149:
 1056              	.LBB148:
1232:../../Middlewares/LVGL/GUI/lvgl/src/draw/sw/lv_draw_sw_mask.c **** 
 1057              		.loc 1 1232 39 discriminator 1 view .LVU370
 1058 01e4 0022     		movs	r2, #0
 1059              	.LVL115:
1232:../../Middlewares/LVGL/GUI/lvgl/src/draw/sw/lv_draw_sw_mask.c **** 
 1060              		.loc 1 1232 39 discriminator 1 view .LVU371
 1061 01e6 EDE7     		b	.L68
 1062              	.LVL116:
 1063              	.L80:
1232:../../Middlewares/LVGL/GUI/lvgl/src/draw/sw/lv_draw_sw_mask.c **** 
 1064              		.loc 1 1232 39 discriminator 1 view .LVU372
 1065              	.LBE148:
 1066              	.LBE149:
 1067              	.LBE150:
 543:../../Middlewares/LVGL/GUI/lvgl/src/draw/sw/lv_draw_sw_mask.c ****         }
 1068              		.loc 1 543 13 is_stmt 1 view .LVU373
 1069              	.LBB151:
 1070              	.LBI151:
 1071              		.file 2 "H:/STM32H7/RGB_LVGL/Middlewares/LVGL/GUI/lvgl/src/stdlib/lv_string.h"
   1:H:/STM32H7/RGB_LVGL/Middlewares/LVGL/GUI/lvgl/src/stdlib\lv_string.h **** /**
   2:H:/STM32H7/RGB_LVGL/Middlewares/LVGL/GUI/lvgl/src/stdlib\lv_string.h ****  * @file lv_string.h
   3:H:/STM32H7/RGB_LVGL/Middlewares/LVGL/GUI/lvgl/src/stdlib\lv_string.h ****  *
   4:H:/STM32H7/RGB_LVGL/Middlewares/LVGL/GUI/lvgl/src/stdlib\lv_string.h ****  */
   5:H:/STM32H7/RGB_LVGL/Middlewares/LVGL/GUI/lvgl/src/stdlib\lv_string.h **** 
   6:H:/STM32H7/RGB_LVGL/Middlewares/LVGL/GUI/lvgl/src/stdlib\lv_string.h **** #ifndef LV_STRING_H
   7:H:/STM32H7/RGB_LVGL/Middlewares/LVGL/GUI/lvgl/src/stdlib\lv_string.h **** #define LV_STRING_H
   8:H:/STM32H7/RGB_LVGL/Middlewares/LVGL/GUI/lvgl/src/stdlib\lv_string.h **** 
   9:H:/STM32H7/RGB_LVGL/Middlewares/LVGL/GUI/lvgl/src/stdlib\lv_string.h **** #ifdef __cplusplus
  10:H:/STM32H7/RGB_LVGL/Middlewares/LVGL/GUI/lvgl/src/stdlib\lv_string.h **** extern "C" {
  11:H:/STM32H7/RGB_LVGL/Middlewares/LVGL/GUI/lvgl/src/stdlib\lv_string.h **** #endif
  12:H:/STM32H7/RGB_LVGL/Middlewares/LVGL/GUI/lvgl/src/stdlib\lv_string.h **** 
  13:H:/STM32H7/RGB_LVGL/Middlewares/LVGL/GUI/lvgl/src/stdlib\lv_string.h **** /*********************
  14:H:/STM32H7/RGB_LVGL/Middlewares/LVGL/GUI/lvgl/src/stdlib\lv_string.h ****  *      INCLUDES
  15:H:/STM32H7/RGB_LVGL/Middlewares/LVGL/GUI/lvgl/src/stdlib\lv_string.h ****  *********************/
  16:H:/STM32H7/RGB_LVGL/Middlewares/LVGL/GUI/lvgl/src/stdlib\lv_string.h **** #include "../lv_conf_internal.h"
  17:H:/STM32H7/RGB_LVGL/Middlewares/LVGL/GUI/lvgl/src/stdlib\lv_string.h **** #include "../misc/lv_types.h"
  18:H:/STM32H7/RGB_LVGL/Middlewares/LVGL/GUI/lvgl/src/stdlib\lv_string.h **** 
  19:H:/STM32H7/RGB_LVGL/Middlewares/LVGL/GUI/lvgl/src/stdlib\lv_string.h **** /*********************
  20:H:/STM32H7/RGB_LVGL/Middlewares/LVGL/GUI/lvgl/src/stdlib\lv_string.h ****  *      DEFINES
  21:H:/STM32H7/RGB_LVGL/Middlewares/LVGL/GUI/lvgl/src/stdlib\lv_string.h ****  *********************/
  22:H:/STM32H7/RGB_LVGL/Middlewares/LVGL/GUI/lvgl/src/stdlib\lv_string.h **** 
  23:H:/STM32H7/RGB_LVGL/Middlewares/LVGL/GUI/lvgl/src/stdlib\lv_string.h **** /**********************
  24:H:/STM32H7/RGB_LVGL/Middlewares/LVGL/GUI/lvgl/src/stdlib\lv_string.h ****  *      TYPEDEFS
  25:H:/STM32H7/RGB_LVGL/Middlewares/LVGL/GUI/lvgl/src/stdlib\lv_string.h ****  **********************/
  26:H:/STM32H7/RGB_LVGL/Middlewares/LVGL/GUI/lvgl/src/stdlib\lv_string.h **** 
  27:H:/STM32H7/RGB_LVGL/Middlewares/LVGL/GUI/lvgl/src/stdlib\lv_string.h **** /**********************
  28:H:/STM32H7/RGB_LVGL/Middlewares/LVGL/GUI/lvgl/src/stdlib\lv_string.h ****  * GLOBAL PROTOTYPES
  29:H:/STM32H7/RGB_LVGL/Middlewares/LVGL/GUI/lvgl/src/stdlib\lv_string.h ****  **********************/
  30:H:/STM32H7/RGB_LVGL/Middlewares/LVGL/GUI/lvgl/src/stdlib\lv_string.h **** 
  31:H:/STM32H7/RGB_LVGL/Middlewares/LVGL/GUI/lvgl/src/stdlib\lv_string.h **** /**
  32:H:/STM32H7/RGB_LVGL/Middlewares/LVGL/GUI/lvgl/src/stdlib\lv_string.h ****  * @brief Copies a block of memory from a source address to a destination address.
  33:H:/STM32H7/RGB_LVGL/Middlewares/LVGL/GUI/lvgl/src/stdlib\lv_string.h ****  * @param dst Pointer to the destination array where the content is to be copied.
  34:H:/STM32H7/RGB_LVGL/Middlewares/LVGL/GUI/lvgl/src/stdlib\lv_string.h ****  * @param src Pointer to the source of data to be copied.
  35:H:/STM32H7/RGB_LVGL/Middlewares/LVGL/GUI/lvgl/src/stdlib\lv_string.h ****  * @param len Number of bytes to copy.
  36:H:/STM32H7/RGB_LVGL/Middlewares/LVGL/GUI/lvgl/src/stdlib\lv_string.h ****  * @return Pointer to the destination array.
ARM GAS  C:\Users\28576\AppData\Local\Temp\ccagJBpt.s 			page 47


  37:H:/STM32H7/RGB_LVGL/Middlewares/LVGL/GUI/lvgl/src/stdlib\lv_string.h ****  * @note The function does not check for any overlapping of the source and destination memory block
  38:H:/STM32H7/RGB_LVGL/Middlewares/LVGL/GUI/lvgl/src/stdlib\lv_string.h ****  */
  39:H:/STM32H7/RGB_LVGL/Middlewares/LVGL/GUI/lvgl/src/stdlib\lv_string.h **** void * lv_memcpy(void * dst, const void * src, size_t len);
  40:H:/STM32H7/RGB_LVGL/Middlewares/LVGL/GUI/lvgl/src/stdlib\lv_string.h **** 
  41:H:/STM32H7/RGB_LVGL/Middlewares/LVGL/GUI/lvgl/src/stdlib\lv_string.h **** /**
  42:H:/STM32H7/RGB_LVGL/Middlewares/LVGL/GUI/lvgl/src/stdlib\lv_string.h ****  * @brief Fills a block of memory with a specified value.
  43:H:/STM32H7/RGB_LVGL/Middlewares/LVGL/GUI/lvgl/src/stdlib\lv_string.h ****  * @param dst Pointer to the destination array to fill with the specified value.
  44:H:/STM32H7/RGB_LVGL/Middlewares/LVGL/GUI/lvgl/src/stdlib\lv_string.h ****  * @param v Value to be set. The value is passed as an int, but the function fills
  45:H:/STM32H7/RGB_LVGL/Middlewares/LVGL/GUI/lvgl/src/stdlib\lv_string.h ****  *          the block of memory using the unsigned char conversion of this value.
  46:H:/STM32H7/RGB_LVGL/Middlewares/LVGL/GUI/lvgl/src/stdlib\lv_string.h ****  * @param len Number of bytes to be set to the value.
  47:H:/STM32H7/RGB_LVGL/Middlewares/LVGL/GUI/lvgl/src/stdlib\lv_string.h ****  */
  48:H:/STM32H7/RGB_LVGL/Middlewares/LVGL/GUI/lvgl/src/stdlib\lv_string.h **** void lv_memset(void * dst, uint8_t v, size_t len);
  49:H:/STM32H7/RGB_LVGL/Middlewares/LVGL/GUI/lvgl/src/stdlib\lv_string.h **** 
  50:H:/STM32H7/RGB_LVGL/Middlewares/LVGL/GUI/lvgl/src/stdlib\lv_string.h **** /**
  51:H:/STM32H7/RGB_LVGL/Middlewares/LVGL/GUI/lvgl/src/stdlib\lv_string.h ****  * @brief Move a block of memory from source to destination
  52:H:/STM32H7/RGB_LVGL/Middlewares/LVGL/GUI/lvgl/src/stdlib\lv_string.h ****  * @param dst Pointer to the destination array where the content is to be copied.
  53:H:/STM32H7/RGB_LVGL/Middlewares/LVGL/GUI/lvgl/src/stdlib\lv_string.h ****  * @param src Pointer to the source of data to be copied.
  54:H:/STM32H7/RGB_LVGL/Middlewares/LVGL/GUI/lvgl/src/stdlib\lv_string.h ****  * @param len Number of bytes to copy
  55:H:/STM32H7/RGB_LVGL/Middlewares/LVGL/GUI/lvgl/src/stdlib\lv_string.h ****  * @return Pointer to the destination array.
  56:H:/STM32H7/RGB_LVGL/Middlewares/LVGL/GUI/lvgl/src/stdlib\lv_string.h ****  */
  57:H:/STM32H7/RGB_LVGL/Middlewares/LVGL/GUI/lvgl/src/stdlib\lv_string.h **** void * lv_memmove(void * dst, const void * src, size_t len);
  58:H:/STM32H7/RGB_LVGL/Middlewares/LVGL/GUI/lvgl/src/stdlib\lv_string.h **** 
  59:H:/STM32H7/RGB_LVGL/Middlewares/LVGL/GUI/lvgl/src/stdlib\lv_string.h **** /**
  60:H:/STM32H7/RGB_LVGL/Middlewares/LVGL/GUI/lvgl/src/stdlib\lv_string.h ****  * @brief This function will compare two memory blocks
  61:H:/STM32H7/RGB_LVGL/Middlewares/LVGL/GUI/lvgl/src/stdlib\lv_string.h ****  * @param p1 Pointer to the first memory block
  62:H:/STM32H7/RGB_LVGL/Middlewares/LVGL/GUI/lvgl/src/stdlib\lv_string.h ****  * @param p2 Pointer to the second memory block
  63:H:/STM32H7/RGB_LVGL/Middlewares/LVGL/GUI/lvgl/src/stdlib\lv_string.h ****  * @param len Number of bytes to compare
  64:H:/STM32H7/RGB_LVGL/Middlewares/LVGL/GUI/lvgl/src/stdlib\lv_string.h ****  * @return The difference between the value of the first unmatching byte.
  65:H:/STM32H7/RGB_LVGL/Middlewares/LVGL/GUI/lvgl/src/stdlib\lv_string.h ****  */
  66:H:/STM32H7/RGB_LVGL/Middlewares/LVGL/GUI/lvgl/src/stdlib\lv_string.h **** int lv_memcmp(const void * p1, const void * p2, size_t len);
  67:H:/STM32H7/RGB_LVGL/Middlewares/LVGL/GUI/lvgl/src/stdlib\lv_string.h **** 
  68:H:/STM32H7/RGB_LVGL/Middlewares/LVGL/GUI/lvgl/src/stdlib\lv_string.h **** /**
  69:H:/STM32H7/RGB_LVGL/Middlewares/LVGL/GUI/lvgl/src/stdlib\lv_string.h ****  * Same as `memset(dst, 0x00, len)`.
  70:H:/STM32H7/RGB_LVGL/Middlewares/LVGL/GUI/lvgl/src/stdlib\lv_string.h ****  * @param dst pointer to the destination buffer
  71:H:/STM32H7/RGB_LVGL/Middlewares/LVGL/GUI/lvgl/src/stdlib\lv_string.h ****  * @param len number of byte to set
  72:H:/STM32H7/RGB_LVGL/Middlewares/LVGL/GUI/lvgl/src/stdlib\lv_string.h ****  */
  73:H:/STM32H7/RGB_LVGL/Middlewares/LVGL/GUI/lvgl/src/stdlib\lv_string.h **** static inline void lv_memzero(void * dst, size_t len)
 1072              		.loc 2 73 20 view .LVU374
 1073              	.LBB152:
  74:H:/STM32H7/RGB_LVGL/Middlewares/LVGL/GUI/lvgl/src/stdlib\lv_string.h **** {
  75:H:/STM32H7/RGB_LVGL/Middlewares/LVGL/GUI/lvgl/src/stdlib\lv_string.h ****     lv_memset(dst, 0x00, len);
 1074              		.loc 2 75 5 view .LVU375
 1075 01e8 0021     		movs	r1, #0
 1076              	.LVL117:
 1077              		.loc 2 75 5 is_stmt 0 view .LVU376
 1078 01ea FFF7FEFF 		bl	lv_memset
 1079              	.LVL118:
 1080              		.loc 2 75 5 view .LVU377
 1081              	.LBE152:
 1082              	.LBE151:
 556:../../Middlewares/LVGL/GUI/lvgl/src/draw/sw/lv_draw_sw_mask.c **** }
 1083              		.loc 1 556 12 view .LVU378
 1084 01ee 0223     		movs	r3, #2
 1085              	.LBB154:
 1086              	.LBB153:
  76:H:/STM32H7/RGB_LVGL/Middlewares/LVGL/GUI/lvgl/src/stdlib\lv_string.h **** }
 1087              		.loc 2 76 1 view .LVU379
ARM GAS  C:\Users\28576\AppData\Local\Temp\ccagJBpt.s 			page 48


 1088 01f0 19E7     		b	.L49
 1089              	.LVL119:
 1090              	.L69:
 1091              		.loc 2 76 1 view .LVU380
 1092              	.LBE153:
 1093              	.LBE154:
 547:../../Middlewares/LVGL/GUI/lvgl/src/draw/sw/lv_draw_sw_mask.c ****         if(k < 0) {
 1094              		.loc 1 547 9 is_stmt 1 view .LVU381
 548:../../Middlewares/LVGL/GUI/lvgl/src/draw/sw/lv_draw_sw_mask.c ****             return LV_DRAW_SW_MASK_RES_TRANSP;
 1095              		.loc 1 548 9 view .LVU382
 548:../../Middlewares/LVGL/GUI/lvgl/src/draw/sw/lv_draw_sw_mask.c ****             return LV_DRAW_SW_MASK_RES_TRANSP;
 1096              		.loc 1 548 11 is_stmt 0 view .LVU383
 1097 01f2 1CF1010C 		adds	ip, ip, #1
 1098              	.LVL120:
 548:../../Middlewares/LVGL/GUI/lvgl/src/draw/sw/lv_draw_sw_mask.c ****             return LV_DRAW_SW_MASK_RES_TRANSP;
 1099              		.loc 1 548 11 view .LVU384
 1100 01f6 3FF516AF 		bmi	.L49
 551:../../Middlewares/LVGL/GUI/lvgl/src/draw/sw/lv_draw_sw_mask.c ****             lv_memzero(&mask_buf[k], len - k);
 1101              		.loc 1 551 9 is_stmt 1 view .LVU385
 551:../../Middlewares/LVGL/GUI/lvgl/src/draw/sw/lv_draw_sw_mask.c ****             lv_memzero(&mask_buf[k], len - k);
 1102              		.loc 1 551 11 is_stmt 0 view .LVU386
 1103 01fa 6145     		cmp	r1, ip
 1104 01fc 01DA     		bge	.L81
 556:../../Middlewares/LVGL/GUI/lvgl/src/draw/sw/lv_draw_sw_mask.c **** }
 1105              		.loc 1 556 12 view .LVU387
 1106 01fe 0223     		movs	r3, #2
 1107 0200 11E7     		b	.L49
 1108              	.L81:
 552:../../Middlewares/LVGL/GUI/lvgl/src/draw/sw/lv_draw_sw_mask.c ****         }
 1109              		.loc 1 552 13 is_stmt 1 view .LVU388
 1110              	.LVL121:
 1111              	.LBB155:
 1112              	.LBI155:
  73:H:/STM32H7/RGB_LVGL/Middlewares/LVGL/GUI/lvgl/src/stdlib\lv_string.h **** {
 1113              		.loc 2 73 20 view .LVU389
 1114              	.LBB156:
  75:H:/STM32H7/RGB_LVGL/Middlewares/LVGL/GUI/lvgl/src/stdlib\lv_string.h **** }
 1115              		.loc 2 75 5 view .LVU390
 1116 0202 A1EB0C02 		sub	r2, r1, ip
 1117              	.LVL122:
  75:H:/STM32H7/RGB_LVGL/Middlewares/LVGL/GUI/lvgl/src/stdlib\lv_string.h **** }
 1118              		.loc 2 75 5 is_stmt 0 view .LVU391
 1119 0206 0021     		movs	r1, #0
 1120              	.LVL123:
  75:H:/STM32H7/RGB_LVGL/Middlewares/LVGL/GUI/lvgl/src/stdlib\lv_string.h **** }
 1121              		.loc 2 75 5 view .LVU392
 1122 0208 6044     		add	r0, r0, ip
 1123              	.LVL124:
  75:H:/STM32H7/RGB_LVGL/Middlewares/LVGL/GUI/lvgl/src/stdlib\lv_string.h **** }
 1124              		.loc 2 75 5 view .LVU393
 1125 020a FFF7FEFF 		bl	lv_memset
 1126              	.LVL125:
  75:H:/STM32H7/RGB_LVGL/Middlewares/LVGL/GUI/lvgl/src/stdlib\lv_string.h **** }
 1127              		.loc 2 75 5 view .LVU394
 1128              	.LBE156:
 1129              	.LBE155:
 556:../../Middlewares/LVGL/GUI/lvgl/src/draw/sw/lv_draw_sw_mask.c **** }
ARM GAS  C:\Users\28576\AppData\Local\Temp\ccagJBpt.s 			page 49


 1130              		.loc 1 556 12 view .LVU395
 1131 020e 0223     		movs	r3, #2
 1132              	.LBB158:
 1133              	.LBB157:
 1134              		.loc 2 76 1 view .LVU396
 1135 0210 09E7     		b	.L49
 1136              	.LVL126:
 1137              	.L70:
 1138              		.loc 2 76 1 view .LVU397
 1139              	.LBE157:
 1140              	.LBE158:
 481:../../Middlewares/LVGL/GUI/lvgl/src/draw/sw/lv_draw_sw_mask.c ****             }
 1141              		.loc 1 481 24 view .LVU398
 1142 0212 0123     		movs	r3, #1
 1143 0214 07E7     		b	.L49
 1144              	.L71:
 491:../../Middlewares/LVGL/GUI/lvgl/src/draw/sw/lv_draw_sw_mask.c ****             }
 1145              		.loc 1 491 24 view .LVU399
 1146 0216 0123     		movs	r3, #1
 1147 0218 05E7     		b	.L49
 1148              	.LVL127:
 1149              	.L75:
 540:../../Middlewares/LVGL/GUI/lvgl/src/draw/sw/lv_draw_sw_mask.c ****         }
 1150              		.loc 1 540 20 view .LVU400
 1151 021a 0023     		movs	r3, #0
 1152 021c 03E7     		b	.L49
 1153              		.cfi_endproc
 1154              	.LFE199:
 1156              		.section	.text.line_mask_steep,"ax",%progbits
 1157              		.align	1
 1158              		.syntax unified
 1159              		.thumb
 1160              		.thumb_func
 1162              	line_mask_steep:
 1163              	.LVL128:
 1164              	.LFB200:
 563:../../Middlewares/LVGL/GUI/lvgl/src/draw/sw/lv_draw_sw_mask.c ****     int32_t k;
 1165              		.loc 1 563 1 is_stmt 1 view -0
 1166              		.cfi_startproc
 1167              		@ args = 4, pretend = 0, frame = 0
 1168              		@ frame_needed = 0, uses_anonymous_args = 0
 563:../../Middlewares/LVGL/GUI/lvgl/src/draw/sw/lv_draw_sw_mask.c ****     int32_t k;
 1169              		.loc 1 563 1 is_stmt 0 view .LVU402
 1170 0000 2DE9F041 		push	{r4, r5, r6, r7, r8, lr}
 1171              	.LCFI5:
 1172              		.cfi_def_cfa_offset 24
 1173              		.cfi_offset 4, -24
 1174              		.cfi_offset 5, -20
 1175              		.cfi_offset 6, -16
 1176              		.cfi_offset 7, -12
 1177              		.cfi_offset 8, -8
 1178              		.cfi_offset 14, -4
 1179 0004 0746     		mov	r7, r0
 1180 0006 1E46     		mov	r6, r3
 1181 0008 DDF818E0 		ldr	lr, [sp, #24]
 564:../../Middlewares/LVGL/GUI/lvgl/src/draw/sw/lv_draw_sw_mask.c ****     int32_t x_at_y;
 1182              		.loc 1 564 5 is_stmt 1 view .LVU403
ARM GAS  C:\Users\28576\AppData\Local\Temp\ccagJBpt.s 			page 50


 565:../../Middlewares/LVGL/GUI/lvgl/src/draw/sw/lv_draw_sw_mask.c ****     /*At the beginning of the mask if the limit line is greater than the mask's y.
 1183              		.loc 1 565 5 view .LVU404
 568:../../Middlewares/LVGL/GUI/lvgl/src/draw/sw/lv_draw_sw_mask.c ****     if(p->xy_steep > 0) x_at_y++;
 1184              		.loc 1 568 5 view .LVU405
 568:../../Middlewares/LVGL/GUI/lvgl/src/draw/sw/lv_draw_sw_mask.c ****     if(p->xy_steep > 0) x_at_y++;
 1185              		.loc 1 568 34 is_stmt 0 view .LVU406
 1186 000c DEF82440 		ldr	r4, [lr, #36]
 568:../../Middlewares/LVGL/GUI/lvgl/src/draw/sw/lv_draw_sw_mask.c ****     if(p->xy_steep > 0) x_at_y++;
 1187              		.loc 1 568 14 view .LVU407
 1188 0010 02FB04F0 		mul	r0, r2, r4
 1189              	.LVL129:
 568:../../Middlewares/LVGL/GUI/lvgl/src/draw/sw/lv_draw_sw_mask.c ****     if(p->xy_steep > 0) x_at_y++;
 1190              		.loc 1 568 12 view .LVU408
 1191 0014 4FEAA02C 		asr	ip, r0, #10
 1192              	.LVL130:
 569:../../Middlewares/LVGL/GUI/lvgl/src/draw/sw/lv_draw_sw_mask.c ****     if(x_at_y < abs_x) {
 1193              		.loc 1 569 5 is_stmt 1 view .LVU409
 569:../../Middlewares/LVGL/GUI/lvgl/src/draw/sw/lv_draw_sw_mask.c ****     if(x_at_y < abs_x) {
 1194              		.loc 1 569 7 is_stmt 0 view .LVU410
 1195 0018 002C     		cmp	r4, #0
 1196 001a 0BDD     		ble	.L110
 569:../../Middlewares/LVGL/GUI/lvgl/src/draw/sw/lv_draw_sw_mask.c ****     if(x_at_y < abs_x) {
 1197              		.loc 1 569 25 is_stmt 1 discriminator 1 view .LVU411
 569:../../Middlewares/LVGL/GUI/lvgl/src/draw/sw/lv_draw_sw_mask.c ****     if(x_at_y < abs_x) {
 1198              		.loc 1 569 31 is_stmt 0 discriminator 1 view .LVU412
 1199 001c 0CF10103 		add	r3, ip, #1
 1200              	.LVL131:
 1201              	.L83:
 570:../../Middlewares/LVGL/GUI/lvgl/src/draw/sw/lv_draw_sw_mask.c ****         if(p->inv) {
 1202              		.loc 1 570 5 is_stmt 1 view .LVU413
 570:../../Middlewares/LVGL/GUI/lvgl/src/draw/sw/lv_draw_sw_mask.c ****         if(p->inv) {
 1203              		.loc 1 570 7 is_stmt 0 view .LVU414
 1204 0020 8B42     		cmp	r3, r1
 1205 0022 09DA     		bge	.L84
 571:../../Middlewares/LVGL/GUI/lvgl/src/draw/sw/lv_draw_sw_mask.c ****             return LV_DRAW_SW_MASK_RES_FULL_COVER;
 1206              		.loc 1 571 9 is_stmt 1 view .LVU415
 571:../../Middlewares/LVGL/GUI/lvgl/src/draw/sw/lv_draw_sw_mask.c ****             return LV_DRAW_SW_MASK_RES_FULL_COVER;
 1207              		.loc 1 571 12 is_stmt 0 view .LVU416
 1208 0024 9EF83400 		ldrb	r0, [lr, #52]	@ zero_extendqisi2
 571:../../Middlewares/LVGL/GUI/lvgl/src/draw/sw/lv_draw_sw_mask.c ****             return LV_DRAW_SW_MASK_RES_FULL_COVER;
 1209              		.loc 1 571 11 view .LVU417
 1210 0028 10F00200 		ands	r0, r0, #2
 1211 002c 00D0     		beq	.L85
 572:../../Middlewares/LVGL/GUI/lvgl/src/draw/sw/lv_draw_sw_mask.c ****         }
 1212              		.loc 1 572 20 view .LVU418
 1213 002e 0120     		movs	r0, #1
 1214              	.LVL132:
 1215              	.L85:
 700:../../Middlewares/LVGL/GUI/lvgl/src/draw/sw/lv_draw_sw_mask.c **** 
 1216              		.loc 1 700 1 view .LVU419
 1217 0030 BDE8F081 		pop	{r4, r5, r6, r7, r8, pc}
 1218              	.LVL133:
 1219              	.L110:
 568:../../Middlewares/LVGL/GUI/lvgl/src/draw/sw/lv_draw_sw_mask.c ****     if(p->xy_steep > 0) x_at_y++;
 1220              		.loc 1 568 12 view .LVU420
 1221 0034 6346     		mov	r3, ip
 1222              	.LVL134:
ARM GAS  C:\Users\28576\AppData\Local\Temp\ccagJBpt.s 			page 51


 568:../../Middlewares/LVGL/GUI/lvgl/src/draw/sw/lv_draw_sw_mask.c ****     if(p->xy_steep > 0) x_at_y++;
 1223              		.loc 1 568 12 view .LVU421
 1224 0036 F3E7     		b	.L83
 1225              	.LVL135:
 1226              	.L84:
 581:../../Middlewares/LVGL/GUI/lvgl/src/draw/sw/lv_draw_sw_mask.c ****     if(x_at_y > abs_x + len) {
 1227              		.loc 1 581 5 is_stmt 1 view .LVU422
 582:../../Middlewares/LVGL/GUI/lvgl/src/draw/sw/lv_draw_sw_mask.c ****         if(p->inv) {
 1228              		.loc 1 582 5 view .LVU423
 582:../../Middlewares/LVGL/GUI/lvgl/src/draw/sw/lv_draw_sw_mask.c ****         if(p->inv) {
 1229              		.loc 1 582 23 is_stmt 0 view .LVU424
 1230 0038 8B19     		adds	r3, r1, r6
 582:../../Middlewares/LVGL/GUI/lvgl/src/draw/sw/lv_draw_sw_mask.c ****         if(p->inv) {
 1231              		.loc 1 582 7 view .LVU425
 1232 003a 6345     		cmp	r3, ip
 1233 003c 07DA     		bge	.L86
 583:../../Middlewares/LVGL/GUI/lvgl/src/draw/sw/lv_draw_sw_mask.c ****             return LV_DRAW_SW_MASK_RES_TRANSP;
 1234              		.loc 1 583 9 is_stmt 1 view .LVU426
 583:../../Middlewares/LVGL/GUI/lvgl/src/draw/sw/lv_draw_sw_mask.c ****             return LV_DRAW_SW_MASK_RES_TRANSP;
 1235              		.loc 1 583 12 is_stmt 0 view .LVU427
 1236 003e 9EF83430 		ldrb	r3, [lr, #52]	@ zero_extendqisi2
 583:../../Middlewares/LVGL/GUI/lvgl/src/draw/sw/lv_draw_sw_mask.c ****             return LV_DRAW_SW_MASK_RES_TRANSP;
 1237              		.loc 1 583 11 view .LVU428
 1238 0042 13F0020F 		tst	r3, #2
 1239 0046 00F06681 		beq	.L111
 584:../../Middlewares/LVGL/GUI/lvgl/src/draw/sw/lv_draw_sw_mask.c ****         }
 1240              		.loc 1 584 20 view .LVU429
 1241 004a 0020     		movs	r0, #0
 1242 004c F0E7     		b	.L85
 1243              	.L86:
 592:../../Middlewares/LVGL/GUI/lvgl/src/draw/sw/lv_draw_sw_mask.c ****     int32_t xsi = xs >> 8;
 1244              		.loc 1 592 5 is_stmt 1 view .LVU430
 1245              	.LVL136:
 593:../../Middlewares/LVGL/GUI/lvgl/src/draw/sw/lv_draw_sw_mask.c ****     int32_t xsf = xs & 0xFF;
 1246              		.loc 1 593 5 view .LVU431
 593:../../Middlewares/LVGL/GUI/lvgl/src/draw/sw/lv_draw_sw_mask.c ****     int32_t xsf = xs & 0xFF;
 1247              		.loc 1 593 13 is_stmt 0 view .LVU432
 1248 004e 40F38D23 		sbfx	r3, r0, #10, #14
 1249 0052 1D46     		mov	r5, r3
 1250 0054 9846     		mov	r8, r3
 1251              	.LVL137:
 594:../../Middlewares/LVGL/GUI/lvgl/src/draw/sw/lv_draw_sw_mask.c **** 
 1252              		.loc 1 594 5 is_stmt 1 view .LVU433
 594:../../Middlewares/LVGL/GUI/lvgl/src/draw/sw/lv_draw_sw_mask.c **** 
 1253              		.loc 1 594 13 is_stmt 0 view .LVU434
 1254 0056 C0F38700 		ubfx	r0, r0, #2, #8
 1255              	.LVL138:
 597:../../Middlewares/LVGL/GUI/lvgl/src/draw/sw/lv_draw_sw_mask.c ****     int32_t xei = xe >> 8;
 1256              		.loc 1 597 5 is_stmt 1 view .LVU435
 597:../../Middlewares/LVGL/GUI/lvgl/src/draw/sw/lv_draw_sw_mask.c ****     int32_t xei = xe >> 8;
 1257              		.loc 1 597 39 is_stmt 0 view .LVU436
 1258 005a 02FB0442 		mla	r2, r2, r4, r4
 1259              	.LVL139:
 598:../../Middlewares/LVGL/GUI/lvgl/src/draw/sw/lv_draw_sw_mask.c ****     int32_t xef = xe & 0xFF;
 1260              		.loc 1 598 5 is_stmt 1 view .LVU437
 598:../../Middlewares/LVGL/GUI/lvgl/src/draw/sw/lv_draw_sw_mask.c ****     int32_t xef = xe & 0xFF;
 1261              		.loc 1 598 13 is_stmt 0 view .LVU438
ARM GAS  C:\Users\28576\AppData\Local\Temp\ccagJBpt.s 			page 52


 1262 005e 42F38D2C 		sbfx	ip, r2, #10, #14
 1263              	.LVL140:
 599:../../Middlewares/LVGL/GUI/lvgl/src/draw/sw/lv_draw_sw_mask.c **** 
 1264              		.loc 1 599 5 is_stmt 1 view .LVU439
 599:../../Middlewares/LVGL/GUI/lvgl/src/draw/sw/lv_draw_sw_mask.c **** 
 1265              		.loc 1 599 13 is_stmt 0 view .LVU440
 1266 0062 C2F38702 		ubfx	r2, r2, #2, #8
 1267              	.LVL141:
 601:../../Middlewares/LVGL/GUI/lvgl/src/draw/sw/lv_draw_sw_mask.c **** 
 1268              		.loc 1 601 5 is_stmt 1 view .LVU441
 603:../../Middlewares/LVGL/GUI/lvgl/src/draw/sw/lv_draw_sw_mask.c ****     if(xsi != xei && (p->xy_steep < 0 && xsf == 0)) {
 1269              		.loc 1 603 5 view .LVU442
 603:../../Middlewares/LVGL/GUI/lvgl/src/draw/sw/lv_draw_sw_mask.c ****     if(xsi != xei && (p->xy_steep < 0 && xsf == 0)) {
 1270              		.loc 1 603 7 is_stmt 0 view .LVU443
 1271 0066 5B1A     		subs	r3, r3, r1
 1272              	.LVL142:
 604:../../Middlewares/LVGL/GUI/lvgl/src/draw/sw/lv_draw_sw_mask.c ****         xsf = 0xFF;
 1273              		.loc 1 604 5 is_stmt 1 view .LVU444
 604:../../Middlewares/LVGL/GUI/lvgl/src/draw/sw/lv_draw_sw_mask.c ****         xsf = 0xFF;
 1274              		.loc 1 604 7 is_stmt 0 view .LVU445
 1275 0068 6545     		cmp	r5, ip
 1276 006a 01D0     		beq	.L87
 604:../../Middlewares/LVGL/GUI/lvgl/src/draw/sw/lv_draw_sw_mask.c ****         xsf = 0xFF;
 1277              		.loc 1 604 19 discriminator 1 view .LVU446
 1278 006c 002C     		cmp	r4, #0
 1279 006e 6ADB     		blt	.L130
 1280              	.LVL143:
 1281              	.L87:
 610:../../Middlewares/LVGL/GUI/lvgl/src/draw/sw/lv_draw_sw_mask.c ****         if(k >= 0 && k < len) {
 1282              		.loc 1 610 5 is_stmt 1 view .LVU447
 610:../../Middlewares/LVGL/GUI/lvgl/src/draw/sw/lv_draw_sw_mask.c ****         if(k >= 0 && k < len) {
 1283              		.loc 1 610 7 is_stmt 0 view .LVU448
 1284 0070 E045     		cmp	r8, ip
 1285 0072 6ED0     		beq	.L131
 1286              	.LBB159:
 634:../../Middlewares/LVGL/GUI/lvgl/src/draw/sw/lv_draw_sw_mask.c ****         if(p->xy_steep < 0) {
 1287              		.loc 1 634 9 is_stmt 1 view .LVU449
 635:../../Middlewares/LVGL/GUI/lvgl/src/draw/sw/lv_draw_sw_mask.c ****             y_inters = (xsf * (-p->yx_steep)) >> 10;
 1288              		.loc 1 635 9 view .LVU450
 635:../../Middlewares/LVGL/GUI/lvgl/src/draw/sw/lv_draw_sw_mask.c ****             y_inters = (xsf * (-p->yx_steep)) >> 10;
 1289              		.loc 1 635 11 is_stmt 0 view .LVU451
 1290 0074 002C     		cmp	r4, #0
 1291 0076 C0F2B680 		blt	.L132
 1292              	.LBB160:
 668:../../Middlewares/LVGL/GUI/lvgl/src/draw/sw/lv_draw_sw_mask.c ****             if(k >= 0 && k < len) {
 1293              		.loc 1 668 13 is_stmt 1 view .LVU452
 668:../../Middlewares/LVGL/GUI/lvgl/src/draw/sw/lv_draw_sw_mask.c ****             if(k >= 0 && k < len) {
 1294              		.loc 1 668 30 is_stmt 0 view .LVU453
 1295 007a C0F1FF00 		rsb	r0, r0, #255
 1296              	.LVL144:
 668:../../Middlewares/LVGL/GUI/lvgl/src/draw/sw/lv_draw_sw_mask.c ****             if(k >= 0 && k < len) {
 1297              		.loc 1 668 40 view .LVU454
 1298 007e DEF82820 		ldr	r2, [lr, #40]
 1299              	.LVL145:
 668:../../Middlewares/LVGL/GUI/lvgl/src/draw/sw/lv_draw_sw_mask.c ****             if(k >= 0 && k < len) {
 1300              		.loc 1 668 37 view .LVU455
 1301 0082 00FB02F2 		mul	r2, r0, r2
ARM GAS  C:\Users\28576\AppData\Local\Temp\ccagJBpt.s 			page 53


 668:../../Middlewares/LVGL/GUI/lvgl/src/draw/sw/lv_draw_sw_mask.c ****             if(k >= 0 && k < len) {
 1302              		.loc 1 668 22 view .LVU456
 1303 0086 9412     		asrs	r4, r2, #10
 1304              	.LVL146:
 669:../../Middlewares/LVGL/GUI/lvgl/src/draw/sw/lv_draw_sw_mask.c ****                 m = 255 - ((y_inters * (255 - xsf)) >> 9);
 1305              		.loc 1 669 13 is_stmt 1 view .LVU457
 669:../../Middlewares/LVGL/GUI/lvgl/src/draw/sw/lv_draw_sw_mask.c ****                 m = 255 - ((y_inters * (255 - xsf)) >> 9);
 1306              		.loc 1 669 23 is_stmt 0 view .LVU458
 1307 0088 DA43     		mvns	r2, r3
 1308 008a D20F     		lsrs	r2, r2, #31
 1309 008c B342     		cmp	r3, r6
 1310 008e A8BF     		it	ge
 1311 0090 0022     		movge	r2, #0
 669:../../Middlewares/LVGL/GUI/lvgl/src/draw/sw/lv_draw_sw_mask.c ****                 m = 255 - ((y_inters * (255 - xsf)) >> 9);
 1312              		.loc 1 669 15 view .LVU459
 1313 0092 EAB1     		cbz	r2, .L102
 670:../../Middlewares/LVGL/GUI/lvgl/src/draw/sw/lv_draw_sw_mask.c ****                 if(p->inv) m = 255 - m;
 1314              		.loc 1 670 17 is_stmt 1 view .LVU460
 670:../../Middlewares/LVGL/GUI/lvgl/src/draw/sw/lv_draw_sw_mask.c ****                 if(p->inv) m = 255 - m;
 1315              		.loc 1 670 38 is_stmt 0 view .LVU461
 1316 0094 04FB00F0 		mul	r0, r4, r0
 670:../../Middlewares/LVGL/GUI/lvgl/src/draw/sw/lv_draw_sw_mask.c ****                 if(p->inv) m = 255 - m;
 1317              		.loc 1 670 25 view .LVU462
 1318 0098 C0F34722 		ubfx	r2, r0, #9, #8
 670:../../Middlewares/LVGL/GUI/lvgl/src/draw/sw/lv_draw_sw_mask.c ****                 if(p->inv) m = 255 - m;
 1319              		.loc 1 670 19 view .LVU463
 1320 009c 82F0FF0C 		eor	ip, r2, #255
 1321              	.LVL147:
 671:../../Middlewares/LVGL/GUI/lvgl/src/draw/sw/lv_draw_sw_mask.c ****                 mask_buf[k] = mask_mix(mask_buf[k], m);
 1322              		.loc 1 671 17 is_stmt 1 view .LVU464
 671:../../Middlewares/LVGL/GUI/lvgl/src/draw/sw/lv_draw_sw_mask.c ****                 mask_buf[k] = mask_mix(mask_buf[k], m);
 1323              		.loc 1 671 20 is_stmt 0 view .LVU465
 1324 00a0 9EF83400 		ldrb	r0, [lr, #52]	@ zero_extendqisi2
 671:../../Middlewares/LVGL/GUI/lvgl/src/draw/sw/lv_draw_sw_mask.c ****                 mask_buf[k] = mask_mix(mask_buf[k], m);
 1325              		.loc 1 671 19 view .LVU466
 1326 00a4 10F0020F 		tst	r0, #2
 1327 00a8 00D1     		bne	.L103
 670:../../Middlewares/LVGL/GUI/lvgl/src/draw/sw/lv_draw_sw_mask.c ****                 if(p->inv) m = 255 - m;
 1328              		.loc 1 670 19 view .LVU467
 1329 00aa 6246     		mov	r2, ip
 1330              	.L103:
 1331              	.LVL148:
 672:../../Middlewares/LVGL/GUI/lvgl/src/draw/sw/lv_draw_sw_mask.c ****             }
 1332              		.loc 1 672 17 is_stmt 1 view .LVU468
 672:../../Middlewares/LVGL/GUI/lvgl/src/draw/sw/lv_draw_sw_mask.c ****             }
 1333              		.loc 1 672 48 is_stmt 0 view .LVU469
 1334 00ac 07EB030C 		add	ip, r7, r3
 672:../../Middlewares/LVGL/GUI/lvgl/src/draw/sw/lv_draw_sw_mask.c ****             }
 1335              		.loc 1 672 31 view .LVU470
 1336 00b0 F85C     		ldrb	r0, [r7, r3]	@ zero_extendqisi2
 1337              	.LVL149:
 1338              	.LBB161:
 1339              	.LBI161:
1229:../../Middlewares/LVGL/GUI/lvgl/src/draw/sw/lv_draw_sw_mask.c **** {
 1340              		.loc 1 1229 46 is_stmt 1 view .LVU471
 1341              	.LBB162:
1231:../../Middlewares/LVGL/GUI/lvgl/src/draw/sw/lv_draw_sw_mask.c ****     if(mask_new <= LV_OPA_MIN) return 0;
ARM GAS  C:\Users\28576\AppData\Local\Temp\ccagJBpt.s 			page 54


 1342              		.loc 1 1231 5 view .LVU472
1231:../../Middlewares/LVGL/GUI/lvgl/src/draw/sw/lv_draw_sw_mask.c ****     if(mask_new <= LV_OPA_MIN) return 0;
 1343              		.loc 1 1231 7 is_stmt 0 view .LVU473
 1344 00b2 FC2A     		cmp	r2, #252
 1345 00b4 0AD8     		bhi	.L104
1232:../../Middlewares/LVGL/GUI/lvgl/src/draw/sw/lv_draw_sw_mask.c **** 
 1346              		.loc 1 1232 5 is_stmt 1 view .LVU474
1232:../../Middlewares/LVGL/GUI/lvgl/src/draw/sw/lv_draw_sw_mask.c **** 
 1347              		.loc 1 1232 7 is_stmt 0 view .LVU475
 1348 00b6 022A     		cmp	r2, #2
 1349 00b8 40F21181 		bls	.L123
 1350              		.loc 1 1234 5 is_stmt 1 view .LVU476
 1351              		.loc 1 1234 12 is_stmt 0 view .LVU477
 1352 00bc 02FB00F0 		mul	r0, r2, r0
 1353              	.LVL150:
 1354              		.loc 1 1234 12 view .LVU478
 1355 00c0 00EB0022 		add	r2, r0, r0, lsl #8
 1356              	.LVL151:
 1357              		.loc 1 1234 12 view .LVU479
 1358 00c4 00EBC210 		add	r0, r0, r2, lsl #7
 1359 00c8 C0F3C750 		ubfx	r0, r0, #23, #8
 1360              	.L104:
 1361              	.LVL152:
 1362              		.loc 1 1234 12 view .LVU480
 1363              	.LBE162:
 1364              	.LBE161:
 672:../../Middlewares/LVGL/GUI/lvgl/src/draw/sw/lv_draw_sw_mask.c ****             }
 1365              		.loc 1 672 29 discriminator 1 view .LVU481
 1366 00cc 8CF80000 		strb	r0, [ip]
 1367              	.LVL153:
 1368              	.L102:
 675:../../Middlewares/LVGL/GUI/lvgl/src/draw/sw/lv_draw_sw_mask.c **** 
 1369              		.loc 1 675 13 is_stmt 1 view .LVU482
 675:../../Middlewares/LVGL/GUI/lvgl/src/draw/sw/lv_draw_sw_mask.c **** 
 1370              		.loc 1 675 14 is_stmt 0 view .LVU483
 1371 00d0 03F1010C 		add	ip, r3, #1
 1372              	.LVL154:
 677:../../Middlewares/LVGL/GUI/lvgl/src/draw/sw/lv_draw_sw_mask.c ****             if(k >= 0 && k < len) {
 1373              		.loc 1 677 13 is_stmt 1 view .LVU484
 677:../../Middlewares/LVGL/GUI/lvgl/src/draw/sw/lv_draw_sw_mask.c ****             if(k >= 0 && k < len) {
 1374              		.loc 1 677 38 is_stmt 0 view .LVU485
 1375 00d4 C4F1FF02 		rsb	r2, r4, #255
 677:../../Middlewares/LVGL/GUI/lvgl/src/draw/sw/lv_draw_sw_mask.c ****             if(k >= 0 && k < len) {
 1376              		.loc 1 677 53 view .LVU486
 1377 00d8 DEF82400 		ldr	r0, [lr, #36]
 677:../../Middlewares/LVGL/GUI/lvgl/src/draw/sw/lv_draw_sw_mask.c ****             if(k >= 0 && k < len) {
 1378              		.loc 1 677 50 view .LVU487
 1379 00dc 02FB00F0 		mul	r0, r2, r0
 677:../../Middlewares/LVGL/GUI/lvgl/src/draw/sw/lv_draw_sw_mask.c ****             if(k >= 0 && k < len) {
 1380              		.loc 1 677 21 view .LVU488
 1381 00e0 8012     		asrs	r0, r0, #10
 1382              	.LVL155:
 678:../../Middlewares/LVGL/GUI/lvgl/src/draw/sw/lv_draw_sw_mask.c ****                 m = ((255 - y_inters) * x_inters) >> 9;
 1383              		.loc 1 678 13 is_stmt 1 view .LVU489
 678:../../Middlewares/LVGL/GUI/lvgl/src/draw/sw/lv_draw_sw_mask.c ****                 m = ((255 - y_inters) * x_inters) >> 9;
 1384              		.loc 1 678 15 is_stmt 0 view .LVU490
 1385 00e2 BCF1000F 		cmp	ip, #0
ARM GAS  C:\Users\28576\AppData\Local\Temp\ccagJBpt.s 			page 55


 1386 00e6 A8BF     		it	ge
 1387 00e8 6645     		cmpge	r6, ip
 1388 00ea 1BDD     		ble	.L105
 679:../../Middlewares/LVGL/GUI/lvgl/src/draw/sw/lv_draw_sw_mask.c ****                 if(p->inv) m = 255 - m;
 1389              		.loc 1 679 17 is_stmt 1 view .LVU491
 679:../../Middlewares/LVGL/GUI/lvgl/src/draw/sw/lv_draw_sw_mask.c ****                 if(p->inv) m = 255 - m;
 1390              		.loc 1 679 39 is_stmt 0 view .LVU492
 1391 00ec 00FB02F2 		mul	r2, r0, r2
 679:../../Middlewares/LVGL/GUI/lvgl/src/draw/sw/lv_draw_sw_mask.c ****                 if(p->inv) m = 255 - m;
 1392              		.loc 1 679 19 view .LVU493
 1393 00f0 C2F34722 		ubfx	r2, r2, #9, #8
 1394              	.LVL156:
 680:../../Middlewares/LVGL/GUI/lvgl/src/draw/sw/lv_draw_sw_mask.c ****                 mask_buf[k] = mask_mix(mask_buf[k], m);
 1395              		.loc 1 680 17 is_stmt 1 view .LVU494
 680:../../Middlewares/LVGL/GUI/lvgl/src/draw/sw/lv_draw_sw_mask.c ****                 mask_buf[k] = mask_mix(mask_buf[k], m);
 1396              		.loc 1 680 20 is_stmt 0 view .LVU495
 1397 00f4 9EF83400 		ldrb	r0, [lr, #52]	@ zero_extendqisi2
 1398              	.LVL157:
 680:../../Middlewares/LVGL/GUI/lvgl/src/draw/sw/lv_draw_sw_mask.c ****                 mask_buf[k] = mask_mix(mask_buf[k], m);
 1399              		.loc 1 680 19 view .LVU496
 1400 00f8 10F0020F 		tst	r0, #2
 1401 00fc 01D0     		beq	.L106
 680:../../Middlewares/LVGL/GUI/lvgl/src/draw/sw/lv_draw_sw_mask.c ****                 mask_buf[k] = mask_mix(mask_buf[k], m);
 1402              		.loc 1 680 28 is_stmt 1 discriminator 1 view .LVU497
 680:../../Middlewares/LVGL/GUI/lvgl/src/draw/sw/lv_draw_sw_mask.c ****                 mask_buf[k] = mask_mix(mask_buf[k], m);
 1403              		.loc 1 680 30 is_stmt 0 discriminator 1 view .LVU498
 1404 00fe 82F0FF02 		eor	r2, r2, #255
 1405              	.LVL158:
 1406              	.L106:
 681:../../Middlewares/LVGL/GUI/lvgl/src/draw/sw/lv_draw_sw_mask.c ****             }
 1407              		.loc 1 681 17 is_stmt 1 view .LVU499
 681:../../Middlewares/LVGL/GUI/lvgl/src/draw/sw/lv_draw_sw_mask.c ****             }
 1408              		.loc 1 681 31 is_stmt 0 view .LVU500
 1409 0102 17F80C00 		ldrb	r0, [r7, ip]	@ zero_extendqisi2
 1410              	.LVL159:
 1411              	.LBB164:
 1412              	.LBI164:
1229:../../Middlewares/LVGL/GUI/lvgl/src/draw/sw/lv_draw_sw_mask.c **** {
 1413              		.loc 1 1229 46 is_stmt 1 view .LVU501
 1414              	.LBB165:
1231:../../Middlewares/LVGL/GUI/lvgl/src/draw/sw/lv_draw_sw_mask.c ****     if(mask_new <= LV_OPA_MIN) return 0;
 1415              		.loc 1 1231 5 view .LVU502
1231:../../Middlewares/LVGL/GUI/lvgl/src/draw/sw/lv_draw_sw_mask.c ****     if(mask_new <= LV_OPA_MIN) return 0;
 1416              		.loc 1 1231 7 is_stmt 0 view .LVU503
 1417 0106 FC2A     		cmp	r2, #252
 1418 0108 0AD8     		bhi	.L107
1232:../../Middlewares/LVGL/GUI/lvgl/src/draw/sw/lv_draw_sw_mask.c **** 
 1419              		.loc 1 1232 5 is_stmt 1 view .LVU504
1232:../../Middlewares/LVGL/GUI/lvgl/src/draw/sw/lv_draw_sw_mask.c **** 
 1420              		.loc 1 1232 7 is_stmt 0 view .LVU505
 1421 010a 022A     		cmp	r2, #2
 1422 010c 40F2E980 		bls	.L124
 1423              		.loc 1 1234 5 is_stmt 1 view .LVU506
 1424              		.loc 1 1234 12 is_stmt 0 view .LVU507
 1425 0110 02FB00F0 		mul	r0, r2, r0
 1426              	.LVL160:
 1427              		.loc 1 1234 12 view .LVU508
ARM GAS  C:\Users\28576\AppData\Local\Temp\ccagJBpt.s 			page 56


 1428 0114 00EB0022 		add	r2, r0, r0, lsl #8
 1429              	.LVL161:
 1430              		.loc 1 1234 12 view .LVU509
 1431 0118 00EBC210 		add	r0, r0, r2, lsl #7
 1432 011c C0F3C750 		ubfx	r0, r0, #23, #8
 1433              	.L107:
 1434              	.LVL162:
 1435              		.loc 1 1234 12 view .LVU510
 1436              	.LBE165:
 1437              	.LBE164:
 681:../../Middlewares/LVGL/GUI/lvgl/src/draw/sw/lv_draw_sw_mask.c ****             }
 1438              		.loc 1 681 29 discriminator 1 view .LVU511
 1439 0120 07F80C00 		strb	r0, [r7, ip]
 1440              	.LVL163:
 1441              	.L105:
 683:../../Middlewares/LVGL/GUI/lvgl/src/draw/sw/lv_draw_sw_mask.c **** 
 1442              		.loc 1 683 13 is_stmt 1 view .LVU512
 683:../../Middlewares/LVGL/GUI/lvgl/src/draw/sw/lv_draw_sw_mask.c **** 
 1443              		.loc 1 683 14 is_stmt 0 view .LVU513
 1444 0124 9C1C     		adds	r4, r3, #2
 1445              	.LVL164:
 685:../../Middlewares/LVGL/GUI/lvgl/src/draw/sw/lv_draw_sw_mask.c ****                 k = xsi - abs_x;
 1446              		.loc 1 685 13 is_stmt 1 view .LVU514
 685:../../Middlewares/LVGL/GUI/lvgl/src/draw/sw/lv_draw_sw_mask.c ****                 k = xsi - abs_x;
 1447              		.loc 1 685 16 is_stmt 0 view .LVU515
 1448 0126 9EF83400 		ldrb	r0, [lr, #52]	@ zero_extendqisi2
 685:../../Middlewares/LVGL/GUI/lvgl/src/draw/sw/lv_draw_sw_mask.c ****                 k = xsi - abs_x;
 1449              		.loc 1 685 15 view .LVU516
 1450 012a 10F00200 		ands	r0, r0, #2
 1451 012e 00F0E080 		beq	.L108
 686:../../Middlewares/LVGL/GUI/lvgl/src/draw/sw/lv_draw_sw_mask.c ****                 if(k > len)  return LV_DRAW_SW_MASK_RES_TRANSP;
 1452              		.loc 1 686 17 is_stmt 1 view .LVU517
 686:../../Middlewares/LVGL/GUI/lvgl/src/draw/sw/lv_draw_sw_mask.c ****                 if(k > len)  return LV_DRAW_SW_MASK_RES_TRANSP;
 1453              		.loc 1 686 19 is_stmt 0 view .LVU518
 1454 0132 4346     		mov	r3, r8
 1455 0134 5A1A     		subs	r2, r3, r1
 1456              	.LVL165:
 687:../../Middlewares/LVGL/GUI/lvgl/src/draw/sw/lv_draw_sw_mask.c ****                 if(k >= 0) lv_memzero(&mask_buf[0],  k);
 1457              		.loc 1 687 17 is_stmt 1 view .LVU519
 687:../../Middlewares/LVGL/GUI/lvgl/src/draw/sw/lv_draw_sw_mask.c ****                 if(k >= 0) lv_memzero(&mask_buf[0],  k);
 1458              		.loc 1 687 19 is_stmt 0 view .LVU520
 1459 0136 9642     		cmp	r6, r2
 1460 0138 C0F2F580 		blt	.L125
 1461              	.LVL166:
 688:../../Middlewares/LVGL/GUI/lvgl/src/draw/sw/lv_draw_sw_mask.c **** 
 1462              		.loc 1 688 17 is_stmt 1 view .LVU521
 688:../../Middlewares/LVGL/GUI/lvgl/src/draw/sw/lv_draw_sw_mask.c **** 
 1463              		.loc 1 688 19 is_stmt 0 view .LVU522
 1464 013c 002A     		cmp	r2, #0
 1465 013e 80F2D280 		bge	.L133
 1466              	.LBE160:
 1467              	.LBE159:
 699:../../Middlewares/LVGL/GUI/lvgl/src/draw/sw/lv_draw_sw_mask.c **** }
 1468              		.loc 1 699 12 view .LVU523
 1469 0142 0220     		movs	r0, #2
 1470 0144 74E7     		b	.L85
 1471              	.LVL167:
ARM GAS  C:\Users\28576\AppData\Local\Temp\ccagJBpt.s 			page 57


 1472              	.L130:
 604:../../Middlewares/LVGL/GUI/lvgl/src/draw/sw/lv_draw_sw_mask.c ****         xsf = 0xFF;
 1473              		.loc 1 604 39 discriminator 2 view .LVU524
 1474 0146 0028     		cmp	r0, #0
 1475 0148 92D1     		bne	.L87
 605:../../Middlewares/LVGL/GUI/lvgl/src/draw/sw/lv_draw_sw_mask.c ****         xsi = xei;
 1476              		.loc 1 605 9 is_stmt 1 view .LVU525
 1477              	.LVL168:
 606:../../Middlewares/LVGL/GUI/lvgl/src/draw/sw/lv_draw_sw_mask.c ****         k--;
 1478              		.loc 1 606 9 view .LVU526
 607:../../Middlewares/LVGL/GUI/lvgl/src/draw/sw/lv_draw_sw_mask.c ****     }
 1479              		.loc 1 607 9 view .LVU527
 607:../../Middlewares/LVGL/GUI/lvgl/src/draw/sw/lv_draw_sw_mask.c ****     }
 1480              		.loc 1 607 10 is_stmt 0 view .LVU528
 1481 014a 013B     		subs	r3, r3, #1
 1482              	.LVL169:
 606:../../Middlewares/LVGL/GUI/lvgl/src/draw/sw/lv_draw_sw_mask.c ****         k--;
 1483              		.loc 1 606 13 view .LVU529
 1484 014c E046     		mov	r8, ip
 605:../../Middlewares/LVGL/GUI/lvgl/src/draw/sw/lv_draw_sw_mask.c ****         xsi = xei;
 1485              		.loc 1 605 13 view .LVU530
 1486 014e FF20     		movs	r0, #255
 1487 0150 8EE7     		b	.L87
 1488              	.LVL170:
 1489              	.L131:
 611:../../Middlewares/LVGL/GUI/lvgl/src/draw/sw/lv_draw_sw_mask.c ****             m = (xsf + xef) >> 1;
 1490              		.loc 1 611 9 is_stmt 1 view .LVU531
 611:../../Middlewares/LVGL/GUI/lvgl/src/draw/sw/lv_draw_sw_mask.c ****             m = (xsf + xef) >> 1;
 1491              		.loc 1 611 19 is_stmt 0 view .LVU532
 1492 0152 DC43     		mvns	r4, r3
 1493              	.LVL171:
 611:../../Middlewares/LVGL/GUI/lvgl/src/draw/sw/lv_draw_sw_mask.c ****             m = (xsf + xef) >> 1;
 1494              		.loc 1 611 19 view .LVU533
 1495 0154 E40F     		lsrs	r4, r4, #31
 1496 0156 B342     		cmp	r3, r6
 1497 0158 A8BF     		it	ge
 1498 015a 0024     		movge	r4, #0
 611:../../Middlewares/LVGL/GUI/lvgl/src/draw/sw/lv_draw_sw_mask.c ****             m = (xsf + xef) >> 1;
 1499              		.loc 1 611 11 view .LVU534
 1500 015c D4B1     		cbz	r4, .L89
 612:../../Middlewares/LVGL/GUI/lvgl/src/draw/sw/lv_draw_sw_mask.c ****             if(p->inv) m = 255 - m;
 1501              		.loc 1 612 13 is_stmt 1 view .LVU535
 612:../../Middlewares/LVGL/GUI/lvgl/src/draw/sw/lv_draw_sw_mask.c ****             if(p->inv) m = 255 - m;
 1502              		.loc 1 612 22 is_stmt 0 view .LVU536
 1503 015e 0244     		add	r2, r2, r0
 1504              	.LVL172:
 612:../../Middlewares/LVGL/GUI/lvgl/src/draw/sw/lv_draw_sw_mask.c ****             if(p->inv) m = 255 - m;
 1505              		.loc 1 612 15 view .LVU537
 1506 0160 C2F3470C 		ubfx	ip, r2, #1, #8
 1507              	.LVL173:
 613:../../Middlewares/LVGL/GUI/lvgl/src/draw/sw/lv_draw_sw_mask.c ****             mask_buf[k] = mask_mix(mask_buf[k], m);
 1508              		.loc 1 613 13 is_stmt 1 view .LVU538
 613:../../Middlewares/LVGL/GUI/lvgl/src/draw/sw/lv_draw_sw_mask.c ****             mask_buf[k] = mask_mix(mask_buf[k], m);
 1509              		.loc 1 613 16 is_stmt 0 view .LVU539
 1510 0164 9EF83420 		ldrb	r2, [lr, #52]	@ zero_extendqisi2
 613:../../Middlewares/LVGL/GUI/lvgl/src/draw/sw/lv_draw_sw_mask.c ****             mask_buf[k] = mask_mix(mask_buf[k], m);
 1511              		.loc 1 613 15 view .LVU540
ARM GAS  C:\Users\28576\AppData\Local\Temp\ccagJBpt.s 			page 58


 1512 0168 12F0020F 		tst	r2, #2
 1513 016c 01D0     		beq	.L90
 613:../../Middlewares/LVGL/GUI/lvgl/src/draw/sw/lv_draw_sw_mask.c ****             mask_buf[k] = mask_mix(mask_buf[k], m);
 1514              		.loc 1 613 24 is_stmt 1 discriminator 1 view .LVU541
 613:../../Middlewares/LVGL/GUI/lvgl/src/draw/sw/lv_draw_sw_mask.c ****             mask_buf[k] = mask_mix(mask_buf[k], m);
 1515              		.loc 1 613 26 is_stmt 0 discriminator 1 view .LVU542
 1516 016e 8CF0FF0C 		eor	ip, ip, #255
 1517              	.LVL174:
 1518              	.L90:
 614:../../Middlewares/LVGL/GUI/lvgl/src/draw/sw/lv_draw_sw_mask.c ****         }
 1519              		.loc 1 614 13 is_stmt 1 view .LVU543
 614:../../Middlewares/LVGL/GUI/lvgl/src/draw/sw/lv_draw_sw_mask.c ****         }
 1520              		.loc 1 614 44 is_stmt 0 view .LVU544
 1521 0172 F818     		adds	r0, r7, r3
 1522              	.LVL175:
 614:../../Middlewares/LVGL/GUI/lvgl/src/draw/sw/lv_draw_sw_mask.c ****         }
 1523              		.loc 1 614 27 view .LVU545
 1524 0174 FA5C     		ldrb	r2, [r7, r3]	@ zero_extendqisi2
 1525              	.LVL176:
 1526              	.LBB204:
 1527              	.LBI204:
1229:../../Middlewares/LVGL/GUI/lvgl/src/draw/sw/lv_draw_sw_mask.c **** {
 1528              		.loc 1 1229 46 is_stmt 1 view .LVU546
 1529              	.LBB205:
1231:../../Middlewares/LVGL/GUI/lvgl/src/draw/sw/lv_draw_sw_mask.c ****     if(mask_new <= LV_OPA_MIN) return 0;
 1530              		.loc 1 1231 5 view .LVU547
1231:../../Middlewares/LVGL/GUI/lvgl/src/draw/sw/lv_draw_sw_mask.c ****     if(mask_new <= LV_OPA_MIN) return 0;
 1531              		.loc 1 1231 7 is_stmt 0 view .LVU548
 1532 0176 BCF1FC0F 		cmp	ip, #252
 1533 017a 0AD8     		bhi	.L91
1232:../../Middlewares/LVGL/GUI/lvgl/src/draw/sw/lv_draw_sw_mask.c **** 
 1534              		.loc 1 1232 5 is_stmt 1 view .LVU549
1232:../../Middlewares/LVGL/GUI/lvgl/src/draw/sw/lv_draw_sw_mask.c **** 
 1535              		.loc 1 1232 7 is_stmt 0 view .LVU550
 1536 017c BCF1020F 		cmp	ip, #2
 1537 0180 17D9     		bls	.L112
 1538              		.loc 1 1234 5 is_stmt 1 view .LVU551
 1539              		.loc 1 1234 12 is_stmt 0 view .LVU552
 1540 0182 02FB0CFC 		mul	ip, r2, ip
 1541              	.LVL177:
 1542              		.loc 1 1234 12 view .LVU553
 1543 0186 0CEB0C22 		add	r2, ip, ip, lsl #8
 1544              	.LVL178:
 1545              		.loc 1 1234 12 view .LVU554
 1546 018a 0CEBC21C 		add	ip, ip, r2, lsl #7
 1547 018e CCF3C752 		ubfx	r2, ip, #23, #8
 1548              	.L91:
 1549              	.LVL179:
 1550              		.loc 1 1234 12 view .LVU555
 1551              	.LBE205:
 1552              	.LBE204:
 614:../../Middlewares/LVGL/GUI/lvgl/src/draw/sw/lv_draw_sw_mask.c ****         }
 1553              		.loc 1 614 25 discriminator 1 view .LVU556
 1554 0192 0270     		strb	r2, [r0]
 1555              	.LVL180:
 1556              	.L89:
 616:../../Middlewares/LVGL/GUI/lvgl/src/draw/sw/lv_draw_sw_mask.c **** 
ARM GAS  C:\Users\28576\AppData\Local\Temp\ccagJBpt.s 			page 59


 1557              		.loc 1 616 9 is_stmt 1 view .LVU557
 616:../../Middlewares/LVGL/GUI/lvgl/src/draw/sw/lv_draw_sw_mask.c **** 
 1558              		.loc 1 616 10 is_stmt 0 view .LVU558
 1559 0194 0133     		adds	r3, r3, #1
 1560              	.LVL181:
 618:../../Middlewares/LVGL/GUI/lvgl/src/draw/sw/lv_draw_sw_mask.c ****             k = xsi - abs_x;
 1561              		.loc 1 618 9 is_stmt 1 view .LVU559
 618:../../Middlewares/LVGL/GUI/lvgl/src/draw/sw/lv_draw_sw_mask.c ****             k = xsi - abs_x;
 1562              		.loc 1 618 12 is_stmt 0 view .LVU560
 1563 0196 9EF83400 		ldrb	r0, [lr, #52]	@ zero_extendqisi2
 618:../../Middlewares/LVGL/GUI/lvgl/src/draw/sw/lv_draw_sw_mask.c ****             k = xsi - abs_x;
 1564              		.loc 1 618 11 view .LVU561
 1565 019a 10F00200 		ands	r0, r0, #2
 1566 019e 10D0     		beq	.L92
 619:../../Middlewares/LVGL/GUI/lvgl/src/draw/sw/lv_draw_sw_mask.c ****             if(k >= len) {
 1567              		.loc 1 619 13 is_stmt 1 view .LVU562
 619:../../Middlewares/LVGL/GUI/lvgl/src/draw/sw/lv_draw_sw_mask.c ****             if(k >= len) {
 1568              		.loc 1 619 15 is_stmt 0 view .LVU563
 1569 01a0 4346     		mov	r3, r8
 1570              	.LVL182:
 619:../../Middlewares/LVGL/GUI/lvgl/src/draw/sw/lv_draw_sw_mask.c ****             if(k >= len) {
 1571              		.loc 1 619 15 view .LVU564
 1572 01a2 5A1A     		subs	r2, r3, r1
 1573              	.LVL183:
 620:../../Middlewares/LVGL/GUI/lvgl/src/draw/sw/lv_draw_sw_mask.c ****                 return LV_DRAW_SW_MASK_RES_TRANSP;
 1574              		.loc 1 620 13 is_stmt 1 view .LVU565
 620:../../Middlewares/LVGL/GUI/lvgl/src/draw/sw/lv_draw_sw_mask.c ****                 return LV_DRAW_SW_MASK_RES_TRANSP;
 1575              		.loc 1 620 15 is_stmt 0 view .LVU566
 1576 01a4 9642     		cmp	r6, r2
 1577 01a6 40F3B880 		ble	.L113
 1578              	.LVL184:
 623:../../Middlewares/LVGL/GUI/lvgl/src/draw/sw/lv_draw_sw_mask.c **** 
 1579              		.loc 1 623 13 is_stmt 1 view .LVU567
 623:../../Middlewares/LVGL/GUI/lvgl/src/draw/sw/lv_draw_sw_mask.c **** 
 1580              		.loc 1 623 15 is_stmt 0 view .LVU568
 1581 01aa 002A     		cmp	r2, #0
 1582 01ac 03DA     		bge	.L134
 699:../../Middlewares/LVGL/GUI/lvgl/src/draw/sw/lv_draw_sw_mask.c **** }
 1583              		.loc 1 699 12 view .LVU569
 1584 01ae 0220     		movs	r0, #2
 1585 01b0 3EE7     		b	.L85
 1586              	.LVL185:
 1587              	.L112:
 1588              	.LBB207:
 1589              	.LBB206:
1232:../../Middlewares/LVGL/GUI/lvgl/src/draw/sw/lv_draw_sw_mask.c **** 
 1590              		.loc 1 1232 39 discriminator 1 view .LVU570
 1591 01b2 0022     		movs	r2, #0
 1592              	.LVL186:
1232:../../Middlewares/LVGL/GUI/lvgl/src/draw/sw/lv_draw_sw_mask.c **** 
 1593              		.loc 1 1232 39 discriminator 1 view .LVU571
 1594 01b4 EDE7     		b	.L91
 1595              	.LVL187:
 1596              	.L134:
1232:../../Middlewares/LVGL/GUI/lvgl/src/draw/sw/lv_draw_sw_mask.c **** 
 1597              		.loc 1 1232 39 discriminator 1 view .LVU572
 1598              	.LBE206:
ARM GAS  C:\Users\28576\AppData\Local\Temp\ccagJBpt.s 			page 60


 1599              	.LBE207:
 623:../../Middlewares/LVGL/GUI/lvgl/src/draw/sw/lv_draw_sw_mask.c **** 
 1600              		.loc 1 623 24 is_stmt 1 discriminator 1 view .LVU573
 1601              	.LBB208:
 1602              	.LBI208:
  73:H:/STM32H7/RGB_LVGL/Middlewares/LVGL/GUI/lvgl/src/stdlib\lv_string.h **** {
 1603              		.loc 2 73 20 view .LVU574
 1604              	.LBB209:
  75:H:/STM32H7/RGB_LVGL/Middlewares/LVGL/GUI/lvgl/src/stdlib\lv_string.h **** }
 1605              		.loc 2 75 5 view .LVU575
 1606 01b6 0021     		movs	r1, #0
 1607              	.LVL188:
  75:H:/STM32H7/RGB_LVGL/Middlewares/LVGL/GUI/lvgl/src/stdlib\lv_string.h **** }
 1608              		.loc 2 75 5 is_stmt 0 view .LVU576
 1609 01b8 3846     		mov	r0, r7
 1610 01ba FFF7FEFF 		bl	lv_memset
 1611              	.LVL189:
  75:H:/STM32H7/RGB_LVGL/Middlewares/LVGL/GUI/lvgl/src/stdlib\lv_string.h **** }
 1612              		.loc 2 75 5 view .LVU577
 1613              	.LBE209:
 1614              	.LBE208:
 699:../../Middlewares/LVGL/GUI/lvgl/src/draw/sw/lv_draw_sw_mask.c **** }
 1615              		.loc 1 699 12 view .LVU578
 1616 01be 0220     		movs	r0, #2
 1617              	.LBB211:
 1618              	.LBB210:
 1619              		.loc 2 76 1 view .LVU579
 1620 01c0 36E7     		b	.L85
 1621              	.LVL190:
 1622              	.L92:
 1623              		.loc 2 76 1 view .LVU580
 1624              	.LBE210:
 1625              	.LBE211:
 627:../../Middlewares/LVGL/GUI/lvgl/src/draw/sw/lv_draw_sw_mask.c ****             if(k == 0) return LV_DRAW_SW_MASK_RES_TRANSP;
 1626              		.loc 1 627 13 is_stmt 1 view .LVU581
 627:../../Middlewares/LVGL/GUI/lvgl/src/draw/sw/lv_draw_sw_mask.c ****             if(k == 0) return LV_DRAW_SW_MASK_RES_TRANSP;
 1627              		.loc 1 627 15 is_stmt 0 view .LVU582
 1628 01c2 9E42     		cmp	r6, r3
 1629 01c4 00DA     		bge	.L93
 627:../../Middlewares/LVGL/GUI/lvgl/src/draw/sw/lv_draw_sw_mask.c ****             if(k == 0) return LV_DRAW_SW_MASK_RES_TRANSP;
 1630              		.loc 1 627 27 discriminator 1 view .LVU583
 1631 01c6 3346     		mov	r3, r6
 1632              	.LVL191:
 1633              	.L93:
 628:../../Middlewares/LVGL/GUI/lvgl/src/draw/sw/lv_draw_sw_mask.c ****             else if(k > 0) lv_memzero(&mask_buf[k],  len - k);
 1634              		.loc 1 628 13 is_stmt 1 view .LVU584
 628:../../Middlewares/LVGL/GUI/lvgl/src/draw/sw/lv_draw_sw_mask.c ****             else if(k > 0) lv_memzero(&mask_buf[k],  len - k);
 1635              		.loc 1 628 15 is_stmt 0 view .LVU585
 1636 01c8 002B     		cmp	r3, #0
 1637 01ca 3FF431AF 		beq	.L85
 629:../../Middlewares/LVGL/GUI/lvgl/src/draw/sw/lv_draw_sw_mask.c ****         }
 1638              		.loc 1 629 18 is_stmt 1 view .LVU586
 629:../../Middlewares/LVGL/GUI/lvgl/src/draw/sw/lv_draw_sw_mask.c ****         }
 1639              		.loc 1 629 20 is_stmt 0 view .LVU587
 1640 01ce 002B     		cmp	r3, #0
 1641 01d0 01DC     		bgt	.L135
 699:../../Middlewares/LVGL/GUI/lvgl/src/draw/sw/lv_draw_sw_mask.c **** }
ARM GAS  C:\Users\28576\AppData\Local\Temp\ccagJBpt.s 			page 61


 1642              		.loc 1 699 12 view .LVU588
 1643 01d2 0220     		movs	r0, #2
 1644 01d4 2CE7     		b	.L85
 1645              	.L135:
 629:../../Middlewares/LVGL/GUI/lvgl/src/draw/sw/lv_draw_sw_mask.c ****         }
 1646              		.loc 1 629 28 is_stmt 1 discriminator 1 view .LVU589
 1647              	.LVL192:
 1648              	.LBB212:
 1649              	.LBI212:
  73:H:/STM32H7/RGB_LVGL/Middlewares/LVGL/GUI/lvgl/src/stdlib\lv_string.h **** {
 1650              		.loc 2 73 20 view .LVU590
 1651              	.LBB213:
  75:H:/STM32H7/RGB_LVGL/Middlewares/LVGL/GUI/lvgl/src/stdlib\lv_string.h **** }
 1652              		.loc 2 75 5 view .LVU591
 1653 01d6 F21A     		subs	r2, r6, r3
 1654              	.LVL193:
  75:H:/STM32H7/RGB_LVGL/Middlewares/LVGL/GUI/lvgl/src/stdlib\lv_string.h **** }
 1655              		.loc 2 75 5 is_stmt 0 view .LVU592
 1656 01d8 0021     		movs	r1, #0
 1657              	.LVL194:
  75:H:/STM32H7/RGB_LVGL/Middlewares/LVGL/GUI/lvgl/src/stdlib\lv_string.h **** }
 1658              		.loc 2 75 5 view .LVU593
 1659 01da 3846     		mov	r0, r7
 1660 01dc 1844     		add	r0, r0, r3
 1661              	.LVL195:
  75:H:/STM32H7/RGB_LVGL/Middlewares/LVGL/GUI/lvgl/src/stdlib\lv_string.h **** }
 1662              		.loc 2 75 5 view .LVU594
 1663 01de FFF7FEFF 		bl	lv_memset
 1664              	.LVL196:
  75:H:/STM32H7/RGB_LVGL/Middlewares/LVGL/GUI/lvgl/src/stdlib\lv_string.h **** }
 1665              		.loc 2 75 5 view .LVU595
 1666              	.LBE213:
 1667              	.LBE212:
 699:../../Middlewares/LVGL/GUI/lvgl/src/draw/sw/lv_draw_sw_mask.c **** }
 1668              		.loc 1 699 12 view .LVU596
 1669 01e2 0220     		movs	r0, #2
 1670              	.LBB215:
 1671              	.LBB214:
 1672              		.loc 2 76 1 view .LVU597
 1673 01e4 24E7     		b	.L85
 1674              	.LVL197:
 1675              	.L132:
 1676              		.loc 2 76 1 view .LVU598
 1677              	.LBE214:
 1678              	.LBE215:
 1679              	.LBB216:
 1680              	.LBB177:
 636:../../Middlewares/LVGL/GUI/lvgl/src/draw/sw/lv_draw_sw_mask.c ****             if(k >= 0 && k < len) {
 1681              		.loc 1 636 13 is_stmt 1 view .LVU599
 636:../../Middlewares/LVGL/GUI/lvgl/src/draw/sw/lv_draw_sw_mask.c ****             if(k >= 0 && k < len) {
 1682              		.loc 1 636 34 is_stmt 0 view .LVU600
 1683 01e6 DEF82820 		ldr	r2, [lr, #40]
 1684              	.LVL198:
 636:../../Middlewares/LVGL/GUI/lvgl/src/draw/sw/lv_draw_sw_mask.c ****             if(k >= 0 && k < len) {
 1685              		.loc 1 636 32 view .LVU601
 1686 01ea 5242     		rsbs	r2, r2, #0
 636:../../Middlewares/LVGL/GUI/lvgl/src/draw/sw/lv_draw_sw_mask.c ****             if(k >= 0 && k < len) {
ARM GAS  C:\Users\28576\AppData\Local\Temp\ccagJBpt.s 			page 62


 1687              		.loc 1 636 29 view .LVU602
 1688 01ec 00FB02F2 		mul	r2, r0, r2
 636:../../Middlewares/LVGL/GUI/lvgl/src/draw/sw/lv_draw_sw_mask.c ****             if(k >= 0 && k < len) {
 1689              		.loc 1 636 22 view .LVU603
 1690 01f0 9212     		asrs	r2, r2, #10
 1691              	.LVL199:
 637:../../Middlewares/LVGL/GUI/lvgl/src/draw/sw/lv_draw_sw_mask.c ****                 m = (y_inters * xsf) >> 9;
 1692              		.loc 1 637 13 is_stmt 1 view .LVU604
 637:../../Middlewares/LVGL/GUI/lvgl/src/draw/sw/lv_draw_sw_mask.c ****                 m = (y_inters * xsf) >> 9;
 1693              		.loc 1 637 23 is_stmt 0 view .LVU605
 1694 01f2 DC43     		mvns	r4, r3
 1695              	.LVL200:
 637:../../Middlewares/LVGL/GUI/lvgl/src/draw/sw/lv_draw_sw_mask.c ****                 m = (y_inters * xsf) >> 9;
 1696              		.loc 1 637 23 view .LVU606
 1697 01f4 E40F     		lsrs	r4, r4, #31
 1698 01f6 B342     		cmp	r3, r6
 1699 01f8 A8BF     		it	ge
 1700 01fa 0024     		movge	r4, #0
 637:../../Middlewares/LVGL/GUI/lvgl/src/draw/sw/lv_draw_sw_mask.c ****                 m = (y_inters * xsf) >> 9;
 1701              		.loc 1 637 15 view .LVU607
 1702 01fc DCB1     		cbz	r4, .L95
 638:../../Middlewares/LVGL/GUI/lvgl/src/draw/sw/lv_draw_sw_mask.c ****                 if(p->inv) m = 255 - m;
 1703              		.loc 1 638 17 is_stmt 1 view .LVU608
 638:../../Middlewares/LVGL/GUI/lvgl/src/draw/sw/lv_draw_sw_mask.c ****                 if(p->inv) m = 255 - m;
 1704              		.loc 1 638 31 is_stmt 0 view .LVU609
 1705 01fe 02FB00F0 		mul	r0, r2, r0
 1706              	.LVL201:
 638:../../Middlewares/LVGL/GUI/lvgl/src/draw/sw/lv_draw_sw_mask.c ****                 if(p->inv) m = 255 - m;
 1707              		.loc 1 638 19 view .LVU610
 1708 0202 C0F34720 		ubfx	r0, r0, #9, #8
 1709              	.LVL202:
 639:../../Middlewares/LVGL/GUI/lvgl/src/draw/sw/lv_draw_sw_mask.c ****                 mask_buf[k] = mask_mix(mask_buf[k], m);
 1710              		.loc 1 639 17 is_stmt 1 view .LVU611
 639:../../Middlewares/LVGL/GUI/lvgl/src/draw/sw/lv_draw_sw_mask.c ****                 mask_buf[k] = mask_mix(mask_buf[k], m);
 1711              		.loc 1 639 20 is_stmt 0 view .LVU612
 1712 0206 9EF83440 		ldrb	r4, [lr, #52]	@ zero_extendqisi2
 639:../../Middlewares/LVGL/GUI/lvgl/src/draw/sw/lv_draw_sw_mask.c ****                 mask_buf[k] = mask_mix(mask_buf[k], m);
 1713              		.loc 1 639 19 view .LVU613
 1714 020a 14F0020F 		tst	r4, #2
 1715 020e 01D0     		beq	.L96
 639:../../Middlewares/LVGL/GUI/lvgl/src/draw/sw/lv_draw_sw_mask.c ****                 mask_buf[k] = mask_mix(mask_buf[k], m);
 1716              		.loc 1 639 28 is_stmt 1 discriminator 1 view .LVU614
 639:../../Middlewares/LVGL/GUI/lvgl/src/draw/sw/lv_draw_sw_mask.c ****                 mask_buf[k] = mask_mix(mask_buf[k], m);
 1717              		.loc 1 639 30 is_stmt 0 discriminator 1 view .LVU615
 1718 0210 80F0FF00 		eor	r0, r0, #255
 1719              	.LVL203:
 1720              	.L96:
 640:../../Middlewares/LVGL/GUI/lvgl/src/draw/sw/lv_draw_sw_mask.c ****             }
 1721              		.loc 1 640 17 is_stmt 1 view .LVU616
 640:../../Middlewares/LVGL/GUI/lvgl/src/draw/sw/lv_draw_sw_mask.c ****             }
 1722              		.loc 1 640 48 is_stmt 0 view .LVU617
 1723 0214 07EB030C 		add	ip, r7, r3
 1724              	.LVL204:
 640:../../Middlewares/LVGL/GUI/lvgl/src/draw/sw/lv_draw_sw_mask.c ****             }
 1725              		.loc 1 640 31 view .LVU618
 1726 0218 FC5C     		ldrb	r4, [r7, r3]	@ zero_extendqisi2
 1727              	.LVL205:
ARM GAS  C:\Users\28576\AppData\Local\Temp\ccagJBpt.s 			page 63


 1728              	.LBB178:
 1729              	.LBI178:
1229:../../Middlewares/LVGL/GUI/lvgl/src/draw/sw/lv_draw_sw_mask.c **** {
 1730              		.loc 1 1229 46 is_stmt 1 view .LVU619
 1731              	.LBB179:
1231:../../Middlewares/LVGL/GUI/lvgl/src/draw/sw/lv_draw_sw_mask.c ****     if(mask_new <= LV_OPA_MIN) return 0;
 1732              		.loc 1 1231 5 view .LVU620
1231:../../Middlewares/LVGL/GUI/lvgl/src/draw/sw/lv_draw_sw_mask.c ****     if(mask_new <= LV_OPA_MIN) return 0;
 1733              		.loc 1 1231 7 is_stmt 0 view .LVU621
 1734 021a FC28     		cmp	r0, #252
 1735 021c 09D8     		bhi	.L97
1232:../../Middlewares/LVGL/GUI/lvgl/src/draw/sw/lv_draw_sw_mask.c **** 
 1736              		.loc 1 1232 5 is_stmt 1 view .LVU622
1232:../../Middlewares/LVGL/GUI/lvgl/src/draw/sw/lv_draw_sw_mask.c **** 
 1737              		.loc 1 1232 7 is_stmt 0 view .LVU623
 1738 021e 0228     		cmp	r0, #2
 1739 0220 45D9     		bls	.L117
 1740              		.loc 1 1234 5 is_stmt 1 view .LVU624
 1741              		.loc 1 1234 12 is_stmt 0 view .LVU625
 1742 0222 00FB04F4 		mul	r4, r0, r4
 1743              	.LVL206:
 1744              		.loc 1 1234 12 view .LVU626
 1745 0226 04EB0420 		add	r0, r4, r4, lsl #8
 1746              	.LVL207:
 1747              		.loc 1 1234 12 view .LVU627
 1748 022a 04EBC014 		add	r4, r4, r0, lsl #7
 1749 022e C4F3C754 		ubfx	r4, r4, #23, #8
 1750              	.L97:
 1751              	.LVL208:
 1752              		.loc 1 1234 12 view .LVU628
 1753              	.LBE179:
 1754              	.LBE178:
 640:../../Middlewares/LVGL/GUI/lvgl/src/draw/sw/lv_draw_sw_mask.c ****             }
 1755              		.loc 1 640 29 discriminator 1 view .LVU629
 1756 0232 8CF80040 		strb	r4, [ip]
 1757              	.LVL209:
 1758              	.L95:
 642:../../Middlewares/LVGL/GUI/lvgl/src/draw/sw/lv_draw_sw_mask.c **** 
 1759              		.loc 1 642 13 is_stmt 1 view .LVU630
 642:../../Middlewares/LVGL/GUI/lvgl/src/draw/sw/lv_draw_sw_mask.c **** 
 1760              		.loc 1 642 14 is_stmt 0 view .LVU631
 1761 0236 5C1E     		subs	r4, r3, #1
 1762              	.LVL210:
 644:../../Middlewares/LVGL/GUI/lvgl/src/draw/sw/lv_draw_sw_mask.c **** 
 1763              		.loc 1 644 13 is_stmt 1 view .LVU632
 644:../../Middlewares/LVGL/GUI/lvgl/src/draw/sw/lv_draw_sw_mask.c **** 
 1764              		.loc 1 644 38 is_stmt 0 view .LVU633
 1765 0238 C2F1FF02 		rsb	r2, r2, #255
 1766              	.LVL211:
 644:../../Middlewares/LVGL/GUI/lvgl/src/draw/sw/lv_draw_sw_mask.c **** 
 1767              		.loc 1 644 55 view .LVU634
 1768 023c DEF82400 		ldr	r0, [lr, #36]
 644:../../Middlewares/LVGL/GUI/lvgl/src/draw/sw/lv_draw_sw_mask.c **** 
 1769              		.loc 1 644 53 view .LVU635
 1770 0240 4042     		rsbs	r0, r0, #0
 644:../../Middlewares/LVGL/GUI/lvgl/src/draw/sw/lv_draw_sw_mask.c **** 
 1771              		.loc 1 644 50 view .LVU636
ARM GAS  C:\Users\28576\AppData\Local\Temp\ccagJBpt.s 			page 64


 1772 0242 02FB00F0 		mul	r0, r2, r0
 644:../../Middlewares/LVGL/GUI/lvgl/src/draw/sw/lv_draw_sw_mask.c **** 
 1773              		.loc 1 644 21 view .LVU637
 1774 0246 8512     		asrs	r5, r0, #10
 1775              	.LVL212:
 646:../../Middlewares/LVGL/GUI/lvgl/src/draw/sw/lv_draw_sw_mask.c ****                 m = 255 - (((255 - y_inters) * x_inters) >> 9);
 1776              		.loc 1 646 13 is_stmt 1 view .LVU638
 646:../../Middlewares/LVGL/GUI/lvgl/src/draw/sw/lv_draw_sw_mask.c ****                 m = 255 - (((255 - y_inters) * x_inters) >> 9);
 1777              		.loc 1 646 18 is_stmt 0 view .LVU639
 1778 0248 C3F1000C 		rsb	ip, r3, #0
 646:../../Middlewares/LVGL/GUI/lvgl/src/draw/sw/lv_draw_sw_mask.c ****                 m = 255 - (((255 - y_inters) * x_inters) >> 9);
 1779              		.loc 1 646 28 view .LVU640
 1780 024c 3046     		mov	r0, r6
 1781 024e A642     		cmp	r6, r4
 1782 0250 D4BF     		ite	le
 1783 0252 0020     		movle	r0, #0
 1784 0254 0120     		movgt	r0, #1
 646:../../Middlewares/LVGL/GUI/lvgl/src/draw/sw/lv_draw_sw_mask.c ****                 m = 255 - (((255 - y_inters) * x_inters) >> 9);
 1785              		.loc 1 646 15 view .LVU641
 1786 0256 10EADC7C 		ands	ip, r0, ip, lsr #31
 1787 025a 19D0     		beq	.L98
 647:../../Middlewares/LVGL/GUI/lvgl/src/draw/sw/lv_draw_sw_mask.c ****                 if(p->inv) m = 255 - m;
 1788              		.loc 1 647 17 is_stmt 1 view .LVU642
 647:../../Middlewares/LVGL/GUI/lvgl/src/draw/sw/lv_draw_sw_mask.c ****                 if(p->inv) m = 255 - m;
 1789              		.loc 1 647 46 is_stmt 0 view .LVU643
 1790 025c 05FB02F2 		mul	r2, r5, r2
 647:../../Middlewares/LVGL/GUI/lvgl/src/draw/sw/lv_draw_sw_mask.c ****                 if(p->inv) m = 255 - m;
 1791              		.loc 1 647 25 view .LVU644
 1792 0260 C2F34722 		ubfx	r2, r2, #9, #8
 647:../../Middlewares/LVGL/GUI/lvgl/src/draw/sw/lv_draw_sw_mask.c ****                 if(p->inv) m = 255 - m;
 1793              		.loc 1 647 19 view .LVU645
 1794 0264 82F0FF0C 		eor	ip, r2, #255
 1795              	.LVL213:
 648:../../Middlewares/LVGL/GUI/lvgl/src/draw/sw/lv_draw_sw_mask.c ****                 mask_buf[k] = mask_mix(mask_buf[k], m);
 1796              		.loc 1 648 17 is_stmt 1 view .LVU646
 648:../../Middlewares/LVGL/GUI/lvgl/src/draw/sw/lv_draw_sw_mask.c ****                 mask_buf[k] = mask_mix(mask_buf[k], m);
 1797              		.loc 1 648 20 is_stmt 0 view .LVU647
 1798 0268 9EF83400 		ldrb	r0, [lr, #52]	@ zero_extendqisi2
 648:../../Middlewares/LVGL/GUI/lvgl/src/draw/sw/lv_draw_sw_mask.c ****                 mask_buf[k] = mask_mix(mask_buf[k], m);
 1799              		.loc 1 648 19 view .LVU648
 1800 026c 10F0020F 		tst	r0, #2
 1801 0270 00D1     		bne	.L99
 647:../../Middlewares/LVGL/GUI/lvgl/src/draw/sw/lv_draw_sw_mask.c ****                 if(p->inv) m = 255 - m;
 1802              		.loc 1 647 19 view .LVU649
 1803 0272 6246     		mov	r2, ip
 1804              	.L99:
 1805              	.LVL214:
 649:../../Middlewares/LVGL/GUI/lvgl/src/draw/sw/lv_draw_sw_mask.c ****             }
 1806              		.loc 1 649 17 is_stmt 1 view .LVU650
 649:../../Middlewares/LVGL/GUI/lvgl/src/draw/sw/lv_draw_sw_mask.c ****             }
 1807              		.loc 1 649 31 is_stmt 0 view .LVU651
 1808 0274 385D     		ldrb	r0, [r7, r4]	@ zero_extendqisi2
 1809              	.LVL215:
 1810              	.LBB181:
 1811              	.LBI181:
1229:../../Middlewares/LVGL/GUI/lvgl/src/draw/sw/lv_draw_sw_mask.c **** {
 1812              		.loc 1 1229 46 is_stmt 1 view .LVU652
ARM GAS  C:\Users\28576\AppData\Local\Temp\ccagJBpt.s 			page 65


 1813              	.LBB182:
1231:../../Middlewares/LVGL/GUI/lvgl/src/draw/sw/lv_draw_sw_mask.c ****     if(mask_new <= LV_OPA_MIN) return 0;
 1814              		.loc 1 1231 5 view .LVU653
1231:../../Middlewares/LVGL/GUI/lvgl/src/draw/sw/lv_draw_sw_mask.c ****     if(mask_new <= LV_OPA_MIN) return 0;
 1815              		.loc 1 1231 7 is_stmt 0 view .LVU654
 1816 0276 FC2A     		cmp	r2, #252
 1817 0278 09D8     		bhi	.L100
1232:../../Middlewares/LVGL/GUI/lvgl/src/draw/sw/lv_draw_sw_mask.c **** 
 1818              		.loc 1 1232 5 is_stmt 1 view .LVU655
1232:../../Middlewares/LVGL/GUI/lvgl/src/draw/sw/lv_draw_sw_mask.c **** 
 1819              		.loc 1 1232 7 is_stmt 0 view .LVU656
 1820 027a 022A     		cmp	r2, #2
 1821 027c 19D9     		bls	.L118
 1822              		.loc 1 1234 5 is_stmt 1 view .LVU657
 1823              		.loc 1 1234 12 is_stmt 0 view .LVU658
 1824 027e 02FB00F0 		mul	r0, r2, r0
 1825              	.LVL216:
 1826              		.loc 1 1234 12 view .LVU659
 1827 0282 00EB0022 		add	r2, r0, r0, lsl #8
 1828              	.LVL217:
 1829              		.loc 1 1234 12 view .LVU660
 1830 0286 00EBC210 		add	r0, r0, r2, lsl #7
 1831 028a C0F3C750 		ubfx	r0, r0, #23, #8
 1832              	.L100:
 1833              	.LVL218:
 1834              		.loc 1 1234 12 view .LVU661
 1835              	.LBE182:
 1836              	.LBE181:
 649:../../Middlewares/LVGL/GUI/lvgl/src/draw/sw/lv_draw_sw_mask.c ****             }
 1837              		.loc 1 649 29 discriminator 1 view .LVU662
 1838 028e 3855     		strb	r0, [r7, r4]
 1839              	.LVL219:
 1840              	.L98:
 652:../../Middlewares/LVGL/GUI/lvgl/src/draw/sw/lv_draw_sw_mask.c **** 
 1841              		.loc 1 652 13 is_stmt 1 view .LVU663
 652:../../Middlewares/LVGL/GUI/lvgl/src/draw/sw/lv_draw_sw_mask.c **** 
 1842              		.loc 1 652 15 is_stmt 0 view .LVU664
 1843 0290 0133     		adds	r3, r3, #1
 1844              	.LVL220:
 654:../../Middlewares/LVGL/GUI/lvgl/src/draw/sw/lv_draw_sw_mask.c ****                 k = xsi - abs_x - 1;
 1845              		.loc 1 654 13 is_stmt 1 view .LVU665
 654:../../Middlewares/LVGL/GUI/lvgl/src/draw/sw/lv_draw_sw_mask.c ****                 k = xsi - abs_x - 1;
 1846              		.loc 1 654 16 is_stmt 0 view .LVU666
 1847 0292 9EF83420 		ldrb	r2, [lr, #52]	@ zero_extendqisi2
 654:../../Middlewares/LVGL/GUI/lvgl/src/draw/sw/lv_draw_sw_mask.c ****                 k = xsi - abs_x - 1;
 1848              		.loc 1 654 15 view .LVU667
 1849 0296 12F0020F 		tst	r2, #2
 1850 029a 12D0     		beq	.L101
 655:../../Middlewares/LVGL/GUI/lvgl/src/draw/sw/lv_draw_sw_mask.c **** 
 1851              		.loc 1 655 17 is_stmt 1 view .LVU668
 655:../../Middlewares/LVGL/GUI/lvgl/src/draw/sw/lv_draw_sw_mask.c **** 
 1852              		.loc 1 655 25 is_stmt 0 view .LVU669
 1853 029c 4346     		mov	r3, r8
 1854              	.LVL221:
 655:../../Middlewares/LVGL/GUI/lvgl/src/draw/sw/lv_draw_sw_mask.c **** 
 1855              		.loc 1 655 25 view .LVU670
 1856 029e 5A1A     		subs	r2, r3, r1
ARM GAS  C:\Users\28576\AppData\Local\Temp\ccagJBpt.s 			page 66


 655:../../Middlewares/LVGL/GUI/lvgl/src/draw/sw/lv_draw_sw_mask.c **** 
 1857              		.loc 1 655 19 view .LVU671
 1858 02a0 013A     		subs	r2, r2, #1
 1859              	.LVL222:
 657:../../Middlewares/LVGL/GUI/lvgl/src/draw/sw/lv_draw_sw_mask.c ****                 else if(k > 0) lv_memzero(&mask_buf[0],  k);
 1860              		.loc 1 657 17 is_stmt 1 view .LVU672
 657:../../Middlewares/LVGL/GUI/lvgl/src/draw/sw/lv_draw_sw_mask.c ****                 else if(k > 0) lv_memzero(&mask_buf[0],  k);
 1861              		.loc 1 657 19 is_stmt 0 view .LVU673
 1862 02a2 9642     		cmp	r6, r2
 1863 02a4 3BDB     		blt	.L119
 1864              	.LVL223:
 658:../../Middlewares/LVGL/GUI/lvgl/src/draw/sw/lv_draw_sw_mask.c **** 
 1865              		.loc 1 658 22 is_stmt 1 view .LVU674
 658:../../Middlewares/LVGL/GUI/lvgl/src/draw/sw/lv_draw_sw_mask.c **** 
 1866              		.loc 1 658 24 is_stmt 0 view .LVU675
 1867 02a6 002A     		cmp	r2, #0
 1868 02a8 05DC     		bgt	.L136
 1869              	.LBE177:
 1870              	.LBE216:
 699:../../Middlewares/LVGL/GUI/lvgl/src/draw/sw/lv_draw_sw_mask.c **** }
 1871              		.loc 1 699 12 view .LVU676
 1872 02aa 0220     		movs	r0, #2
 1873 02ac C0E6     		b	.L85
 1874              	.LVL224:
 1875              	.L117:
 1876              	.LBB217:
 1877              	.LBB194:
 1878              	.LBB184:
 1879              	.LBB180:
1232:../../Middlewares/LVGL/GUI/lvgl/src/draw/sw/lv_draw_sw_mask.c **** 
 1880              		.loc 1 1232 39 discriminator 1 view .LVU677
 1881 02ae 0024     		movs	r4, #0
 1882              	.LVL225:
1232:../../Middlewares/LVGL/GUI/lvgl/src/draw/sw/lv_draw_sw_mask.c **** 
 1883              		.loc 1 1232 39 discriminator 1 view .LVU678
 1884 02b0 BFE7     		b	.L97
 1885              	.LVL226:
 1886              	.L118:
1232:../../Middlewares/LVGL/GUI/lvgl/src/draw/sw/lv_draw_sw_mask.c **** 
 1887              		.loc 1 1232 39 discriminator 1 view .LVU679
 1888              	.LBE180:
 1889              	.LBE184:
 1890              	.LBB185:
 1891              	.LBB183:
 1892 02b2 0020     		movs	r0, #0
 1893              	.LVL227:
1232:../../Middlewares/LVGL/GUI/lvgl/src/draw/sw/lv_draw_sw_mask.c **** 
 1894              		.loc 1 1232 39 discriminator 1 view .LVU680
 1895 02b4 EBE7     		b	.L100
 1896              	.LVL228:
 1897              	.L136:
1232:../../Middlewares/LVGL/GUI/lvgl/src/draw/sw/lv_draw_sw_mask.c **** 
 1898              		.loc 1 1232 39 discriminator 1 view .LVU681
 1899              	.LBE183:
 1900              	.LBE185:
 658:../../Middlewares/LVGL/GUI/lvgl/src/draw/sw/lv_draw_sw_mask.c **** 
 1901              		.loc 1 658 32 is_stmt 1 discriminator 1 view .LVU682
ARM GAS  C:\Users\28576\AppData\Local\Temp\ccagJBpt.s 			page 67


 1902              	.LBB186:
 1903              	.LBI186:
  73:H:/STM32H7/RGB_LVGL/Middlewares/LVGL/GUI/lvgl/src/stdlib\lv_string.h **** {
 1904              		.loc 2 73 20 view .LVU683
 1905              	.LBB187:
  75:H:/STM32H7/RGB_LVGL/Middlewares/LVGL/GUI/lvgl/src/stdlib\lv_string.h **** }
 1906              		.loc 2 75 5 view .LVU684
 1907 02b6 0021     		movs	r1, #0
 1908              	.LVL229:
  75:H:/STM32H7/RGB_LVGL/Middlewares/LVGL/GUI/lvgl/src/stdlib\lv_string.h **** }
 1909              		.loc 2 75 5 is_stmt 0 view .LVU685
 1910 02b8 3846     		mov	r0, r7
 1911 02ba FFF7FEFF 		bl	lv_memset
 1912              	.LVL230:
  75:H:/STM32H7/RGB_LVGL/Middlewares/LVGL/GUI/lvgl/src/stdlib\lv_string.h **** }
 1913              		.loc 2 75 5 view .LVU686
 1914              	.LBE187:
 1915              	.LBE186:
 1916              	.LBE194:
 1917              	.LBE217:
 699:../../Middlewares/LVGL/GUI/lvgl/src/draw/sw/lv_draw_sw_mask.c **** }
 1918              		.loc 1 699 12 view .LVU687
 1919 02be 0220     		movs	r0, #2
 1920              	.LBB218:
 1921              	.LBB195:
 1922              	.LBB189:
 1923              	.LBB188:
 1924              		.loc 2 76 1 view .LVU688
 1925 02c0 B6E6     		b	.L85
 1926              	.LVL231:
 1927              	.L101:
 1928              		.loc 2 76 1 view .LVU689
 1929              	.LBE188:
 1930              	.LBE189:
 662:../../Middlewares/LVGL/GUI/lvgl/src/draw/sw/lv_draw_sw_mask.c ****                 if(k >= 0) lv_memzero(&mask_buf[k],  len - k);
 1931              		.loc 1 662 17 is_stmt 1 view .LVU690
 662:../../Middlewares/LVGL/GUI/lvgl/src/draw/sw/lv_draw_sw_mask.c ****                 if(k >= 0) lv_memzero(&mask_buf[k],  len - k);
 1932              		.loc 1 662 19 is_stmt 0 view .LVU691
 1933 02c2 9E42     		cmp	r6, r3
 1934 02c4 2DDB     		blt	.L121
 663:../../Middlewares/LVGL/GUI/lvgl/src/draw/sw/lv_draw_sw_mask.c ****             }
 1935              		.loc 1 663 17 is_stmt 1 view .LVU692
 663:../../Middlewares/LVGL/GUI/lvgl/src/draw/sw/lv_draw_sw_mask.c ****             }
 1936              		.loc 1 663 19 is_stmt 0 view .LVU693
 1937 02c6 002B     		cmp	r3, #0
 1938 02c8 01DA     		bge	.L137
 1939              	.LBE195:
 1940              	.LBE218:
 699:../../Middlewares/LVGL/GUI/lvgl/src/draw/sw/lv_draw_sw_mask.c **** }
 1941              		.loc 1 699 12 view .LVU694
 1942 02ca 0220     		movs	r0, #2
 1943 02cc B0E6     		b	.L85
 1944              	.L137:
 1945              	.LBB219:
 1946              	.LBB196:
 663:../../Middlewares/LVGL/GUI/lvgl/src/draw/sw/lv_draw_sw_mask.c ****             }
 1947              		.loc 1 663 28 is_stmt 1 discriminator 1 view .LVU695
ARM GAS  C:\Users\28576\AppData\Local\Temp\ccagJBpt.s 			page 68


 1948              	.LVL232:
 1949              	.LBB190:
 1950              	.LBI190:
  73:H:/STM32H7/RGB_LVGL/Middlewares/LVGL/GUI/lvgl/src/stdlib\lv_string.h **** {
 1951              		.loc 2 73 20 view .LVU696
 1952              	.LBB191:
  75:H:/STM32H7/RGB_LVGL/Middlewares/LVGL/GUI/lvgl/src/stdlib\lv_string.h **** }
 1953              		.loc 2 75 5 view .LVU697
 1954 02ce F21A     		subs	r2, r6, r3
 1955              	.LVL233:
  75:H:/STM32H7/RGB_LVGL/Middlewares/LVGL/GUI/lvgl/src/stdlib\lv_string.h **** }
 1956              		.loc 2 75 5 is_stmt 0 view .LVU698
 1957 02d0 0021     		movs	r1, #0
 1958              	.LVL234:
  75:H:/STM32H7/RGB_LVGL/Middlewares/LVGL/GUI/lvgl/src/stdlib\lv_string.h **** }
 1959              		.loc 2 75 5 view .LVU699
 1960 02d2 3846     		mov	r0, r7
 1961 02d4 1844     		add	r0, r0, r3
 1962              	.LVL235:
  75:H:/STM32H7/RGB_LVGL/Middlewares/LVGL/GUI/lvgl/src/stdlib\lv_string.h **** }
 1963              		.loc 2 75 5 view .LVU700
 1964 02d6 FFF7FEFF 		bl	lv_memset
 1965              	.LVL236:
  75:H:/STM32H7/RGB_LVGL/Middlewares/LVGL/GUI/lvgl/src/stdlib\lv_string.h **** }
 1966              		.loc 2 75 5 view .LVU701
 1967              	.LBE191:
 1968              	.LBE190:
 1969              	.LBE196:
 1970              	.LBE219:
 699:../../Middlewares/LVGL/GUI/lvgl/src/draw/sw/lv_draw_sw_mask.c **** }
 1971              		.loc 1 699 12 view .LVU702
 1972 02da 0220     		movs	r0, #2
 1973              	.LBB220:
 1974              	.LBB197:
 1975              	.LBB193:
 1976              	.LBB192:
 1977              		.loc 2 76 1 view .LVU703
 1978 02dc A8E6     		b	.L85
 1979              	.LVL237:
 1980              	.L123:
 1981              		.loc 2 76 1 view .LVU704
 1982              	.LBE192:
 1983              	.LBE193:
 1984              	.LBE197:
 1985              	.LBB198:
 1986              	.LBB167:
 1987              	.LBB163:
1232:../../Middlewares/LVGL/GUI/lvgl/src/draw/sw/lv_draw_sw_mask.c **** 
 1988              		.loc 1 1232 39 discriminator 1 view .LVU705
 1989 02de 0020     		movs	r0, #0
 1990              	.LVL238:
1232:../../Middlewares/LVGL/GUI/lvgl/src/draw/sw/lv_draw_sw_mask.c **** 
 1991              		.loc 1 1232 39 discriminator 1 view .LVU706
 1992 02e0 F4E6     		b	.L104
 1993              	.LVL239:
 1994              	.L124:
1232:../../Middlewares/LVGL/GUI/lvgl/src/draw/sw/lv_draw_sw_mask.c **** 
ARM GAS  C:\Users\28576\AppData\Local\Temp\ccagJBpt.s 			page 69


 1995              		.loc 1 1232 39 discriminator 1 view .LVU707
 1996              	.LBE163:
 1997              	.LBE167:
 1998              	.LBB168:
 1999              	.LBB166:
 2000 02e2 0020     		movs	r0, #0
 2001              	.LVL240:
1232:../../Middlewares/LVGL/GUI/lvgl/src/draw/sw/lv_draw_sw_mask.c **** 
 2002              		.loc 1 1232 39 discriminator 1 view .LVU708
 2003 02e4 1CE7     		b	.L107
 2004              	.LVL241:
 2005              	.L133:
1232:../../Middlewares/LVGL/GUI/lvgl/src/draw/sw/lv_draw_sw_mask.c **** 
 2006              		.loc 1 1232 39 discriminator 1 view .LVU709
 2007              	.LBE166:
 2008              	.LBE168:
 688:../../Middlewares/LVGL/GUI/lvgl/src/draw/sw/lv_draw_sw_mask.c **** 
 2009              		.loc 1 688 28 is_stmt 1 discriminator 1 view .LVU710
 2010              	.LBB169:
 2011              	.LBI169:
  73:H:/STM32H7/RGB_LVGL/Middlewares/LVGL/GUI/lvgl/src/stdlib\lv_string.h **** {
 2012              		.loc 2 73 20 view .LVU711
 2013              	.LBB170:
  75:H:/STM32H7/RGB_LVGL/Middlewares/LVGL/GUI/lvgl/src/stdlib\lv_string.h **** }
 2014              		.loc 2 75 5 view .LVU712
 2015 02e6 0021     		movs	r1, #0
 2016              	.LVL242:
  75:H:/STM32H7/RGB_LVGL/Middlewares/LVGL/GUI/lvgl/src/stdlib\lv_string.h **** }
 2017              		.loc 2 75 5 is_stmt 0 view .LVU713
 2018 02e8 3846     		mov	r0, r7
 2019 02ea FFF7FEFF 		bl	lv_memset
 2020              	.LVL243:
  75:H:/STM32H7/RGB_LVGL/Middlewares/LVGL/GUI/lvgl/src/stdlib\lv_string.h **** }
 2021              		.loc 2 75 5 view .LVU714
 2022              	.LBE170:
 2023              	.LBE169:
 2024              	.LBE198:
 2025              	.LBE220:
 699:../../Middlewares/LVGL/GUI/lvgl/src/draw/sw/lv_draw_sw_mask.c **** }
 2026              		.loc 1 699 12 view .LVU715
 2027 02ee 0220     		movs	r0, #2
 2028              	.LBB221:
 2029              	.LBB199:
 2030              	.LBB172:
 2031              	.LBB171:
 2032              		.loc 2 76 1 view .LVU716
 2033 02f0 9EE6     		b	.L85
 2034              	.LVL244:
 2035              	.L108:
 2036              		.loc 2 76 1 view .LVU717
 2037              	.LBE171:
 2038              	.LBE172:
 692:../../Middlewares/LVGL/GUI/lvgl/src/draw/sw/lv_draw_sw_mask.c ****                 if(k == 0) return LV_DRAW_SW_MASK_RES_TRANSP;
 2039              		.loc 1 692 17 is_stmt 1 view .LVU718
 692:../../Middlewares/LVGL/GUI/lvgl/src/draw/sw/lv_draw_sw_mask.c ****                 if(k == 0) return LV_DRAW_SW_MASK_RES_TRANSP;
 2040              		.loc 1 692 19 is_stmt 0 view .LVU719
 2041 02f2 A642     		cmp	r6, r4
ARM GAS  C:\Users\28576\AppData\Local\Temp\ccagJBpt.s 			page 70


 2042 02f4 00DA     		bge	.L109
 692:../../Middlewares/LVGL/GUI/lvgl/src/draw/sw/lv_draw_sw_mask.c ****                 if(k == 0) return LV_DRAW_SW_MASK_RES_TRANSP;
 2043              		.loc 1 692 31 discriminator 1 view .LVU720
 2044 02f6 3446     		mov	r4, r6
 2045              	.LVL245:
 2046              	.L109:
 693:../../Middlewares/LVGL/GUI/lvgl/src/draw/sw/lv_draw_sw_mask.c ****                 else if(k > 0) lv_memzero(&mask_buf[k],  len - k);
 2047              		.loc 1 693 17 is_stmt 1 view .LVU721
 693:../../Middlewares/LVGL/GUI/lvgl/src/draw/sw/lv_draw_sw_mask.c ****                 else if(k > 0) lv_memzero(&mask_buf[k],  len - k);
 2048              		.loc 1 693 19 is_stmt 0 view .LVU722
 2049 02f8 002C     		cmp	r4, #0
 2050 02fa 3FF499AE 		beq	.L85
 694:../../Middlewares/LVGL/GUI/lvgl/src/draw/sw/lv_draw_sw_mask.c ****             }
 2051              		.loc 1 694 22 is_stmt 1 view .LVU723
 694:../../Middlewares/LVGL/GUI/lvgl/src/draw/sw/lv_draw_sw_mask.c ****             }
 2052              		.loc 1 694 24 is_stmt 0 view .LVU724
 2053 02fe 002C     		cmp	r4, #0
 2054 0300 01DC     		bgt	.L138
 2055              	.LBE199:
 2056              	.LBE221:
 699:../../Middlewares/LVGL/GUI/lvgl/src/draw/sw/lv_draw_sw_mask.c **** }
 2057              		.loc 1 699 12 view .LVU725
 2058 0302 0220     		movs	r0, #2
 2059 0304 94E6     		b	.L85
 2060              	.L138:
 2061              	.LBB222:
 2062              	.LBB200:
 694:../../Middlewares/LVGL/GUI/lvgl/src/draw/sw/lv_draw_sw_mask.c ****             }
 2063              		.loc 1 694 32 is_stmt 1 discriminator 1 view .LVU726
 2064              	.LVL246:
 2065              	.LBB173:
 2066              	.LBI173:
  73:H:/STM32H7/RGB_LVGL/Middlewares/LVGL/GUI/lvgl/src/stdlib\lv_string.h **** {
 2067              		.loc 2 73 20 view .LVU727
 2068              	.LBB174:
  75:H:/STM32H7/RGB_LVGL/Middlewares/LVGL/GUI/lvgl/src/stdlib\lv_string.h **** }
 2069              		.loc 2 75 5 view .LVU728
 2070 0306 321B     		subs	r2, r6, r4
 2071              	.LVL247:
  75:H:/STM32H7/RGB_LVGL/Middlewares/LVGL/GUI/lvgl/src/stdlib\lv_string.h **** }
 2072              		.loc 2 75 5 is_stmt 0 view .LVU729
 2073 0308 0021     		movs	r1, #0
 2074              	.LVL248:
  75:H:/STM32H7/RGB_LVGL/Middlewares/LVGL/GUI/lvgl/src/stdlib\lv_string.h **** }
 2075              		.loc 2 75 5 view .LVU730
 2076 030a 3846     		mov	r0, r7
 2077 030c 2044     		add	r0, r0, r4
 2078              	.LVL249:
  75:H:/STM32H7/RGB_LVGL/Middlewares/LVGL/GUI/lvgl/src/stdlib\lv_string.h **** }
 2079              		.loc 2 75 5 view .LVU731
 2080 030e FFF7FEFF 		bl	lv_memset
 2081              	.LVL250:
  75:H:/STM32H7/RGB_LVGL/Middlewares/LVGL/GUI/lvgl/src/stdlib\lv_string.h **** }
 2082              		.loc 2 75 5 view .LVU732
 2083              	.LBE174:
 2084              	.LBE173:
 2085              	.LBE200:
ARM GAS  C:\Users\28576\AppData\Local\Temp\ccagJBpt.s 			page 71


 2086              	.LBE222:
 699:../../Middlewares/LVGL/GUI/lvgl/src/draw/sw/lv_draw_sw_mask.c **** }
 2087              		.loc 1 699 12 view .LVU733
 2088 0312 0220     		movs	r0, #2
 2089              	.LBB223:
 2090              	.LBB201:
 2091              	.LBB176:
 2092              	.LBB175:
 2093              		.loc 2 76 1 view .LVU734
 2094 0314 8CE6     		b	.L85
 2095              	.LVL251:
 2096              	.L111:
 2097              		.loc 2 76 1 view .LVU735
 2098              	.LBE175:
 2099              	.LBE176:
 2100              	.LBE201:
 2101              	.LBE223:
 587:../../Middlewares/LVGL/GUI/lvgl/src/draw/sw/lv_draw_sw_mask.c ****         }
 2102              		.loc 1 587 20 view .LVU736
 2103 0316 0120     		movs	r0, #1
 2104 0318 8AE6     		b	.L85
 2105              	.LVL252:
 2106              	.L113:
 621:../../Middlewares/LVGL/GUI/lvgl/src/draw/sw/lv_draw_sw_mask.c ****             }
 2107              		.loc 1 621 24 view .LVU737
 2108 031a 0020     		movs	r0, #0
 2109 031c 88E6     		b	.L85
 2110              	.LVL253:
 2111              	.L119:
 699:../../Middlewares/LVGL/GUI/lvgl/src/draw/sw/lv_draw_sw_mask.c **** }
 2112              		.loc 1 699 12 view .LVU738
 2113 031e 0220     		movs	r0, #2
 2114 0320 86E6     		b	.L85
 2115              	.LVL254:
 2116              	.L121:
 2117              	.LBB224:
 2118              	.LBB202:
 662:../../Middlewares/LVGL/GUI/lvgl/src/draw/sw/lv_draw_sw_mask.c ****                 if(k >= 0) lv_memzero(&mask_buf[k],  len - k);
 2119              		.loc 1 662 36 discriminator 1 view .LVU739
 2120 0322 0120     		movs	r0, #1
 2121 0324 84E6     		b	.L85
 2122              	.LVL255:
 2123              	.L125:
 662:../../Middlewares/LVGL/GUI/lvgl/src/draw/sw/lv_draw_sw_mask.c ****                 if(k >= 0) lv_memzero(&mask_buf[k],  len - k);
 2124              		.loc 1 662 36 discriminator 1 view .LVU740
 2125              	.LBE202:
 2126              	.LBB203:
 687:../../Middlewares/LVGL/GUI/lvgl/src/draw/sw/lv_draw_sw_mask.c ****                 if(k >= 0) lv_memzero(&mask_buf[0],  k);
 2127              		.loc 1 687 37 discriminator 1 view .LVU741
 2128 0326 0020     		movs	r0, #0
 2129 0328 82E6     		b	.L85
 2130              	.LBE203:
 2131              	.LBE224:
 2132              		.cfi_endproc
 2133              	.LFE200:
 2135              		.section	.text.lv_draw_mask_line,"ax",%progbits
 2136              		.align	1
ARM GAS  C:\Users\28576\AppData\Local\Temp\ccagJBpt.s 			page 72


 2137              		.syntax unified
 2138              		.thumb
 2139              		.thumb_func
 2141              	lv_draw_mask_line:
 2142              	.LVL256:
 2143              	.LFB198:
 385:../../Middlewares/LVGL/GUI/lvgl/src/draw/sw/lv_draw_sw_mask.c ****     /*Make to points relative to the vertex*/
 2144              		.loc 1 385 1 is_stmt 1 view -0
 2145              		.cfi_startproc
 2146              		@ args = 4, pretend = 0, frame = 0
 2147              		@ frame_needed = 0, uses_anonymous_args = 0
 385:../../Middlewares/LVGL/GUI/lvgl/src/draw/sw/lv_draw_sw_mask.c ****     /*Make to points relative to the vertex*/
 2148              		.loc 1 385 1 is_stmt 0 view .LVU743
 2149 0000 70B5     		push	{r4, r5, r6, lr}
 2150              	.LCFI6:
 2151              		.cfi_def_cfa_offset 16
 2152              		.cfi_offset 4, -16
 2153              		.cfi_offset 5, -12
 2154              		.cfi_offset 6, -8
 2155              		.cfi_offset 14, -4
 2156 0002 82B0     		sub	sp, sp, #8
 2157              	.LCFI7:
 2158              		.cfi_def_cfa_offset 24
 2159 0004 0546     		mov	r5, r0
 2160 0006 0846     		mov	r0, r1
 2161              	.LVL257:
 385:../../Middlewares/LVGL/GUI/lvgl/src/draw/sw/lv_draw_sw_mask.c ****     /*Make to points relative to the vertex*/
 2162              		.loc 1 385 1 view .LVU744
 2163 0008 0E46     		mov	r6, r1
 2164 000a 1C46     		mov	r4, r3
 2165 000c 0699     		ldr	r1, [sp, #24]
 2166              	.LVL258:
 387:../../Middlewares/LVGL/GUI/lvgl/src/draw/sw/lv_draw_sw_mask.c ****     abs_x -= p->origo.x;
 2167              		.loc 1 387 5 is_stmt 1 view .LVU745
 387:../../Middlewares/LVGL/GUI/lvgl/src/draw/sw/lv_draw_sw_mask.c ****     abs_x -= p->origo.x;
 2168              		.loc 1 387 11 is_stmt 0 view .LVU746
 2169 000e 0B6A     		ldr	r3, [r1, #32]
 2170              	.LVL259:
 387:../../Middlewares/LVGL/GUI/lvgl/src/draw/sw/lv_draw_sw_mask.c ****     abs_x -= p->origo.x;
 2171              		.loc 1 387 11 view .LVU747
 2172 0010 D21A     		subs	r2, r2, r3
 2173              	.LVL260:
 388:../../Middlewares/LVGL/GUI/lvgl/src/draw/sw/lv_draw_sw_mask.c **** 
 2174              		.loc 1 388 5 is_stmt 1 view .LVU748
 388:../../Middlewares/LVGL/GUI/lvgl/src/draw/sw/lv_draw_sw_mask.c **** 
 2175              		.loc 1 388 22 is_stmt 0 view .LVU749
 2176 0012 D1F81CC0 		ldr	ip, [r1, #28]
 388:../../Middlewares/LVGL/GUI/lvgl/src/draw/sw/lv_draw_sw_mask.c **** 
 2177              		.loc 1 388 11 view .LVU750
 2178 0016 A0EB0C0E 		sub	lr, r0, ip
 2179              	.LVL261:
 391:../../Middlewares/LVGL/GUI/lvgl/src/draw/sw/lv_draw_sw_mask.c ****         /*Horizontal*/
 2180              		.loc 1 391 5 is_stmt 1 view .LVU751
 391:../../Middlewares/LVGL/GUI/lvgl/src/draw/sw/lv_draw_sw_mask.c ****         /*Horizontal*/
 2181              		.loc 1 391 9 is_stmt 0 view .LVU752
 2182 001a CB6A     		ldr	r3, [r1, #44]
 391:../../Middlewares/LVGL/GUI/lvgl/src/draw/sw/lv_draw_sw_mask.c ****         /*Horizontal*/
ARM GAS  C:\Users\28576\AppData\Local\Temp\ccagJBpt.s 			page 73


 2183              		.loc 1 391 7 view .LVU753
 2184 001c 002B     		cmp	r3, #0
 2185 001e 4BD1     		bne	.L140
 393:../../Middlewares/LVGL/GUI/lvgl/src/draw/sw/lv_draw_sw_mask.c ****             /*Non sense: Can't be on the right/left of a horizontal line*/
 2186              		.loc 1 393 9 is_stmt 1 view .LVU754
 393:../../Middlewares/LVGL/GUI/lvgl/src/draw/sw/lv_draw_sw_mask.c ****             /*Non sense: Can't be on the right/left of a horizontal line*/
 2187              		.loc 1 393 12 is_stmt 0 view .LVU755
 2188 0020 91F83400 		ldrb	r0, [r1, #52]	@ zero_extendqisi2
 393:../../Middlewares/LVGL/GUI/lvgl/src/draw/sw/lv_draw_sw_mask.c ****             /*Non sense: Can't be on the right/left of a horizontal line*/
 2189              		.loc 1 393 11 view .LVU756
 2190 0024 10F00100 		ands	r0, r0, #1
 2191 0028 10D0     		beq	.L141
 395:../../Middlewares/LVGL/GUI/lvgl/src/draw/sw/lv_draw_sw_mask.c ****                p->cfg.side == LV_DRAW_SW_MASK_LINE_SIDE_RIGHT) return LV_DRAW_SW_MASK_RES_FULL_COVE
 2192              		.loc 1 395 13 is_stmt 1 view .LVU757
 395:../../Middlewares/LVGL/GUI/lvgl/src/draw/sw/lv_draw_sw_mask.c ****                p->cfg.side == LV_DRAW_SW_MASK_LINE_SIDE_RIGHT) return LV_DRAW_SW_MASK_RES_FULL_COVE
 2193              		.loc 1 395 28 is_stmt 0 view .LVU758
 2194 002a 0B7E     		ldrb	r3, [r1, #24]	@ zero_extendqisi2
 395:../../Middlewares/LVGL/GUI/lvgl/src/draw/sw/lv_draw_sw_mask.c ****                p->cfg.side == LV_DRAW_SW_MASK_LINE_SIDE_RIGHT) return LV_DRAW_SW_MASK_RES_FULL_COVE
 2195              		.loc 1 395 15 view .LVU759
 2196 002c 13F0060F 		tst	r3, #6
 2197 0030 4DD0     		beq	.L142
 397:../../Middlewares/LVGL/GUI/lvgl/src/draw/sw/lv_draw_sw_mask.c ****             else if(p->cfg.side == LV_DRAW_SW_MASK_LINE_SIDE_BOTTOM && abs_y > 0) return LV_DRAW_SW
 2198              		.loc 1 397 18 is_stmt 1 view .LVU760
 397:../../Middlewares/LVGL/GUI/lvgl/src/draw/sw/lv_draw_sw_mask.c ****             else if(p->cfg.side == LV_DRAW_SW_MASK_LINE_SIDE_BOTTOM && abs_y > 0) return LV_DRAW_SW
 2199              		.loc 1 397 33 is_stmt 0 view .LVU761
 2200 0032 03F00703 		and	r3, r3, #7
 397:../../Middlewares/LVGL/GUI/lvgl/src/draw/sw/lv_draw_sw_mask.c ****             else if(p->cfg.side == LV_DRAW_SW_MASK_LINE_SIDE_BOTTOM && abs_y > 0) return LV_DRAW_SW
 2201              		.loc 1 397 20 view .LVU762
 2202 0036 022B     		cmp	r3, #2
 2203 0038 05D0     		beq	.L156
 2204              	.L143:
 398:../../Middlewares/LVGL/GUI/lvgl/src/draw/sw/lv_draw_sw_mask.c ****             else {
 2205              		.loc 1 398 18 is_stmt 1 view .LVU763
 398:../../Middlewares/LVGL/GUI/lvgl/src/draw/sw/lv_draw_sw_mask.c ****             else {
 2206              		.loc 1 398 20 is_stmt 0 view .LVU764
 2207 003a 032B     		cmp	r3, #3
 2208 003c 50D1     		bne	.L150
 398:../../Middlewares/LVGL/GUI/lvgl/src/draw/sw/lv_draw_sw_mask.c ****             else {
 2209              		.loc 1 398 69 discriminator 1 view .LVU765
 2210 003e 002A     		cmp	r2, #0
 2211 0040 45DC     		bgt	.L142
 400:../../Middlewares/LVGL/GUI/lvgl/src/draw/sw/lv_draw_sw_mask.c ****             }
 2212              		.loc 1 400 24 view .LVU766
 2213 0042 0020     		movs	r0, #0
 2214 0044 43E0     		b	.L142
 2215              	.L156:
 397:../../Middlewares/LVGL/GUI/lvgl/src/draw/sw/lv_draw_sw_mask.c ****             else if(p->cfg.side == LV_DRAW_SW_MASK_LINE_SIDE_BOTTOM && abs_y > 0) return LV_DRAW_SW
 2216              		.loc 1 397 66 discriminator 1 view .LVU767
 2217 0046 002A     		cmp	r2, #0
 2218 0048 F7DA     		bge	.L143
 2219 004a 40E0     		b	.L142
 2220              	.L141:
 406:../../Middlewares/LVGL/GUI/lvgl/src/draw/sw/lv_draw_sw_mask.c ****                p->cfg.side == LV_DRAW_SW_MASK_LINE_SIDE_BOTTOM) return LV_DRAW_SW_MASK_RES_FULL_COV
 2221              		.loc 1 406 13 is_stmt 1 view .LVU768
 406:../../Middlewares/LVGL/GUI/lvgl/src/draw/sw/lv_draw_sw_mask.c ****                p->cfg.side == LV_DRAW_SW_MASK_LINE_SIDE_BOTTOM) return LV_DRAW_SW_MASK_RES_FULL_COV
 2222              		.loc 1 406 28 is_stmt 0 view .LVU769
 2223 004c 0A7E     		ldrb	r2, [r1, #24]	@ zero_extendqisi2
ARM GAS  C:\Users\28576\AppData\Local\Temp\ccagJBpt.s 			page 74


 2224              	.LVL262:
 406:../../Middlewares/LVGL/GUI/lvgl/src/draw/sw/lv_draw_sw_mask.c ****                p->cfg.side == LV_DRAW_SW_MASK_LINE_SIDE_BOTTOM) return LV_DRAW_SW_MASK_RES_FULL_COV
 2225              		.loc 1 406 61 view .LVU770
 2226 004e 02F00601 		and	r1, r2, #6
 2227              	.LVL263:
 406:../../Middlewares/LVGL/GUI/lvgl/src/draw/sw/lv_draw_sw_mask.c ****                p->cfg.side == LV_DRAW_SW_MASK_LINE_SIDE_BOTTOM) return LV_DRAW_SW_MASK_RES_FULL_COV
 2228              		.loc 1 406 15 view .LVU771
 2229 0052 0229     		cmp	r1, #2
 2230 0054 46D0     		beq	.L151
 408:../../Middlewares/LVGL/GUI/lvgl/src/draw/sw/lv_draw_sw_mask.c ****             else if(p->cfg.side == LV_DRAW_SW_MASK_LINE_SIDE_LEFT) {
 2231              		.loc 1 408 18 is_stmt 1 view .LVU772
 408:../../Middlewares/LVGL/GUI/lvgl/src/draw/sw/lv_draw_sw_mask.c ****             else if(p->cfg.side == LV_DRAW_SW_MASK_LINE_SIDE_LEFT) {
 2232              		.loc 1 408 33 is_stmt 0 view .LVU773
 2233 0056 02F00702 		and	r2, r2, #7
 408:../../Middlewares/LVGL/GUI/lvgl/src/draw/sw/lv_draw_sw_mask.c ****             else if(p->cfg.side == LV_DRAW_SW_MASK_LINE_SIDE_LEFT) {
 2234              		.loc 1 408 20 view .LVU774
 2235 005a 012A     		cmp	r2, #1
 2236 005c 08D0     		beq	.L157
 2237              	.L144:
 409:../../Middlewares/LVGL/GUI/lvgl/src/draw/sw/lv_draw_sw_mask.c ****                 if(abs_x + len < 0) return LV_DRAW_SW_MASK_RES_FULL_COVER;
 2238              		.loc 1 409 18 is_stmt 1 view .LVU775
 409:../../Middlewares/LVGL/GUI/lvgl/src/draw/sw/lv_draw_sw_mask.c ****                 if(abs_x + len < 0) return LV_DRAW_SW_MASK_RES_FULL_COVER;
 2239              		.loc 1 409 20 is_stmt 0 view .LVU776
 2240 005e C2B9     		cbnz	r2, .L145
 410:../../Middlewares/LVGL/GUI/lvgl/src/draw/sw/lv_draw_sw_mask.c ****                 else {
 2241              		.loc 1 410 17 is_stmt 1 view .LVU777
 410:../../Middlewares/LVGL/GUI/lvgl/src/draw/sw/lv_draw_sw_mask.c ****                 else {
 2242              		.loc 1 410 19 is_stmt 0 view .LVU778
 2243 0060 1EEB040F 		cmn	lr, r4
 2244 0064 40D4     		bmi	.L153
 2245              	.LBB225:
 412:../../Middlewares/LVGL/GUI/lvgl/src/draw/sw/lv_draw_sw_mask.c ****                     if(k < 0) return LV_DRAW_SW_MASK_RES_TRANSP;
 2246              		.loc 1 412 21 is_stmt 1 view .LVU779
 2247              	.LVL264:
 413:../../Middlewares/LVGL/GUI/lvgl/src/draw/sw/lv_draw_sw_mask.c ****                     if(k >= 0 && k < len) lv_memzero(&mask_buf[k], len - k);
 2248              		.loc 1 413 21 view .LVU780
 413:../../Middlewares/LVGL/GUI/lvgl/src/draw/sw/lv_draw_sw_mask.c ****                     if(k >= 0 && k < len) lv_memzero(&mask_buf[k], len - k);
 2249              		.loc 1 413 23 is_stmt 0 view .LVU781
 2250 0066 BCEB060C 		subs	ip, ip, r6
 2251              	.LVL265:
 413:../../Middlewares/LVGL/GUI/lvgl/src/draw/sw/lv_draw_sw_mask.c ****                     if(k >= 0 && k < len) lv_memzero(&mask_buf[k], len - k);
 2252              		.loc 1 413 23 view .LVU782
 2253 006a 06D5     		bpl	.L158
 413:../../Middlewares/LVGL/GUI/lvgl/src/draw/sw/lv_draw_sw_mask.c ****                     if(k >= 0 && k < len) lv_memzero(&mask_buf[k], len - k);
 2254              		.loc 1 413 38 discriminator 1 view .LVU783
 2255 006c 1046     		mov	r0, r2
 2256 006e 2EE0     		b	.L142
 2257              	.LVL266:
 2258              	.L157:
 413:../../Middlewares/LVGL/GUI/lvgl/src/draw/sw/lv_draw_sw_mask.c ****                     if(k >= 0 && k < len) lv_memzero(&mask_buf[k], len - k);
 2259              		.loc 1 413 38 discriminator 1 view .LVU784
 2260              	.LBE225:
 408:../../Middlewares/LVGL/GUI/lvgl/src/draw/sw/lv_draw_sw_mask.c ****             else if(p->cfg.side == LV_DRAW_SW_MASK_LINE_SIDE_LEFT) {
 2261              		.loc 1 408 68 discriminator 1 view .LVU785
 2262 0070 BEF1000F 		cmp	lr, #0
 2263 0074 F3DD     		ble	.L144
 408:../../Middlewares/LVGL/GUI/lvgl/src/draw/sw/lv_draw_sw_mask.c ****             else if(p->cfg.side == LV_DRAW_SW_MASK_LINE_SIDE_LEFT) {
ARM GAS  C:\Users\28576\AppData\Local\Temp\ccagJBpt.s 			page 75


 2264              		.loc 1 408 89 discriminator 2 view .LVU786
 2265 0076 1046     		mov	r0, r2
 2266 0078 29E0     		b	.L142
 2267              	.LVL267:
 2268              	.L158:
 2269              	.LBB228:
 414:../../Middlewares/LVGL/GUI/lvgl/src/draw/sw/lv_draw_sw_mask.c ****                     return  LV_DRAW_SW_MASK_RES_CHANGED;
 2270              		.loc 1 414 21 is_stmt 1 view .LVU787
 414:../../Middlewares/LVGL/GUI/lvgl/src/draw/sw/lv_draw_sw_mask.c ****                     return  LV_DRAW_SW_MASK_RES_CHANGED;
 2271              		.loc 1 414 23 is_stmt 0 view .LVU788
 2272 007a 6445     		cmp	r4, ip
 2273 007c 01DC     		bgt	.L159
 2274              	.LVL268:
 2275              	.L146:
 415:../../Middlewares/LVGL/GUI/lvgl/src/draw/sw/lv_draw_sw_mask.c ****                 }
 2276              		.loc 1 415 21 is_stmt 1 view .LVU789
 415:../../Middlewares/LVGL/GUI/lvgl/src/draw/sw/lv_draw_sw_mask.c ****                 }
 2277              		.loc 1 415 29 is_stmt 0 view .LVU790
 2278 007e 0220     		movs	r0, #2
 2279 0080 25E0     		b	.L142
 2280              	.LVL269:
 2281              	.L159:
 414:../../Middlewares/LVGL/GUI/lvgl/src/draw/sw/lv_draw_sw_mask.c ****                     return  LV_DRAW_SW_MASK_RES_CHANGED;
 2282              		.loc 1 414 43 is_stmt 1 discriminator 1 view .LVU791
 2283              	.LBB226:
 2284              	.LBI226:
  73:H:/STM32H7/RGB_LVGL/Middlewares/LVGL/GUI/lvgl/src/stdlib\lv_string.h **** {
 2285              		.loc 2 73 20 view .LVU792
 2286              	.LBB227:
  75:H:/STM32H7/RGB_LVGL/Middlewares/LVGL/GUI/lvgl/src/stdlib\lv_string.h **** }
 2287              		.loc 2 75 5 view .LVU793
 2288 0082 A4EB0C02 		sub	r2, r4, ip
 2289 0086 0021     		movs	r1, #0
 2290 0088 2846     		mov	r0, r5
 2291 008a 6044     		add	r0, r0, ip
 2292              	.LVL270:
  75:H:/STM32H7/RGB_LVGL/Middlewares/LVGL/GUI/lvgl/src/stdlib\lv_string.h **** }
 2293              		.loc 2 75 5 is_stmt 0 view .LVU794
 2294 008c FFF7FEFF 		bl	lv_memset
 2295              	.LVL271:
 2296              		.loc 2 76 1 view .LVU795
 2297 0090 F5E7     		b	.L146
 2298              	.LVL272:
 2299              	.L145:
 2300              		.loc 2 76 1 view .LVU796
 2301              	.LBE227:
 2302              	.LBE226:
 2303              	.LBE228:
 419:../../Middlewares/LVGL/GUI/lvgl/src/draw/sw/lv_draw_sw_mask.c ****                 else {
 2304              		.loc 1 419 17 is_stmt 1 view .LVU797
 419:../../Middlewares/LVGL/GUI/lvgl/src/draw/sw/lv_draw_sw_mask.c ****                 else {
 2305              		.loc 1 419 19 is_stmt 0 view .LVU798
 2306 0092 1EEB040F 		cmn	lr, r4
 2307 0096 1AD4     		bmi	.L142
 2308              	.LBB229:
 421:../../Middlewares/LVGL/GUI/lvgl/src/draw/sw/lv_draw_sw_mask.c ****                     if(k < 0) k = 0;
 2309              		.loc 1 421 21 is_stmt 1 view .LVU799
ARM GAS  C:\Users\28576\AppData\Local\Temp\ccagJBpt.s 			page 76


 2310              	.LVL273:
 422:../../Middlewares/LVGL/GUI/lvgl/src/draw/sw/lv_draw_sw_mask.c ****                     if(k >= len) return LV_DRAW_SW_MASK_RES_TRANSP;
 2311              		.loc 1 422 21 view .LVU800
 422:../../Middlewares/LVGL/GUI/lvgl/src/draw/sw/lv_draw_sw_mask.c ****                     if(k >= len) return LV_DRAW_SW_MASK_RES_TRANSP;
 2312              		.loc 1 422 23 is_stmt 0 view .LVU801
 2313 0098 BCEB0601 		subs	r1, ip, r6
 2314              	.LVL274:
 422:../../Middlewares/LVGL/GUI/lvgl/src/draw/sw/lv_draw_sw_mask.c ****                     if(k >= len) return LV_DRAW_SW_MASK_RES_TRANSP;
 2315              		.loc 1 422 23 view .LVU802
 2316 009c 00D4     		bmi	.L147
 421:../../Middlewares/LVGL/GUI/lvgl/src/draw/sw/lv_draw_sw_mask.c ****                     if(k < 0) k = 0;
 2317              		.loc 1 421 29 view .LVU803
 2318 009e 0B46     		mov	r3, r1
 2319              	.L147:
 2320              	.LVL275:
 423:../../Middlewares/LVGL/GUI/lvgl/src/draw/sw/lv_draw_sw_mask.c ****                     else if(k >= 0 && k < len) lv_memzero(&mask_buf[0], k);
 2321              		.loc 1 423 21 is_stmt 1 view .LVU804
 423:../../Middlewares/LVGL/GUI/lvgl/src/draw/sw/lv_draw_sw_mask.c ****                     else if(k >= 0 && k < len) lv_memzero(&mask_buf[0], k);
 2322              		.loc 1 423 23 is_stmt 0 view .LVU805
 2323 00a0 A342     		cmp	r3, r4
 2324 00a2 14DA     		bge	.L142
 424:../../Middlewares/LVGL/GUI/lvgl/src/draw/sw/lv_draw_sw_mask.c ****                     return  LV_DRAW_SW_MASK_RES_CHANGED;
 2325              		.loc 1 424 26 is_stmt 1 view .LVU806
 424:../../Middlewares/LVGL/GUI/lvgl/src/draw/sw/lv_draw_sw_mask.c ****                     return  LV_DRAW_SW_MASK_RES_CHANGED;
 2326              		.loc 1 424 28 is_stmt 0 view .LVU807
 2327 00a4 002B     		cmp	r3, #0
 2328 00a6 01DA     		bge	.L160
 2329              	.LVL276:
 2330              	.L148:
 425:../../Middlewares/LVGL/GUI/lvgl/src/draw/sw/lv_draw_sw_mask.c ****                 }
 2331              		.loc 1 425 21 is_stmt 1 view .LVU808
 425:../../Middlewares/LVGL/GUI/lvgl/src/draw/sw/lv_draw_sw_mask.c ****                 }
 2332              		.loc 1 425 29 is_stmt 0 view .LVU809
 2333 00a8 0220     		movs	r0, #2
 2334 00aa 10E0     		b	.L142
 2335              	.LVL277:
 2336              	.L160:
 424:../../Middlewares/LVGL/GUI/lvgl/src/draw/sw/lv_draw_sw_mask.c ****                     return  LV_DRAW_SW_MASK_RES_CHANGED;
 2337              		.loc 1 424 48 is_stmt 1 discriminator 1 view .LVU810
 2338              	.LBB230:
 2339              	.LBI230:
  73:H:/STM32H7/RGB_LVGL/Middlewares/LVGL/GUI/lvgl/src/stdlib\lv_string.h **** {
 2340              		.loc 2 73 20 view .LVU811
 2341              	.LBB231:
  75:H:/STM32H7/RGB_LVGL/Middlewares/LVGL/GUI/lvgl/src/stdlib\lv_string.h **** }
 2342              		.loc 2 75 5 view .LVU812
 2343 00ac 1A46     		mov	r2, r3
 2344 00ae 0021     		movs	r1, #0
 2345 00b0 2846     		mov	r0, r5
 2346 00b2 FFF7FEFF 		bl	lv_memset
 2347              	.LVL278:
 2348              		.loc 2 76 1 is_stmt 0 view .LVU813
 2349 00b6 F7E7     		b	.L148
 2350              	.LVL279:
 2351              	.L140:
 2352              		.loc 2 76 1 view .LVU814
 2353              	.LBE231:
ARM GAS  C:\Users\28576\AppData\Local\Temp\ccagJBpt.s 			page 77


 2354              	.LBE230:
 2355              	.LBE229:
 431:../../Middlewares/LVGL/GUI/lvgl/src/draw/sw/lv_draw_sw_mask.c ****     if(p->flat) {
 2356              		.loc 1 431 5 is_stmt 1 view .LVU815
 432:../../Middlewares/LVGL/GUI/lvgl/src/draw/sw/lv_draw_sw_mask.c ****         res = line_mask_flat(mask_buf, abs_x, abs_y, len, p);
 2357              		.loc 1 432 5 view .LVU816
 432:../../Middlewares/LVGL/GUI/lvgl/src/draw/sw/lv_draw_sw_mask.c ****         res = line_mask_flat(mask_buf, abs_x, abs_y, len, p);
 2358              		.loc 1 432 8 is_stmt 0 view .LVU817
 2359 00b8 91F83430 		ldrb	r3, [r1, #52]	@ zero_extendqisi2
 432:../../Middlewares/LVGL/GUI/lvgl/src/draw/sw/lv_draw_sw_mask.c ****         res = line_mask_flat(mask_buf, abs_x, abs_y, len, p);
 2360              		.loc 1 432 7 view .LVU818
 2361 00bc 13F0010F 		tst	r3, #1
 2362 00c0 07D0     		beq	.L149
 433:../../Middlewares/LVGL/GUI/lvgl/src/draw/sw/lv_draw_sw_mask.c ****     }
 2363              		.loc 1 433 9 is_stmt 1 view .LVU819
 433:../../Middlewares/LVGL/GUI/lvgl/src/draw/sw/lv_draw_sw_mask.c ****     }
 2364              		.loc 1 433 15 is_stmt 0 view .LVU820
 2365 00c2 0091     		str	r1, [sp]
 2366 00c4 2346     		mov	r3, r4
 2367 00c6 7146     		mov	r1, lr
 2368 00c8 2846     		mov	r0, r5
 2369 00ca FFF7FEFF 		bl	line_mask_flat
 2370              	.LVL280:
 2371              	.L142:
 440:../../Middlewares/LVGL/GUI/lvgl/src/draw/sw/lv_draw_sw_mask.c **** 
 2372              		.loc 1 440 1 view .LVU821
 2373 00ce 02B0     		add	sp, sp, #8
 2374              	.LCFI8:
 2375              		.cfi_remember_state
 2376              		.cfi_def_cfa_offset 16
 2377              		@ sp needed
 2378 00d0 70BD     		pop	{r4, r5, r6, pc}
 2379              	.LVL281:
 2380              	.L149:
 2381              	.LCFI9:
 2382              		.cfi_restore_state
 436:../../Middlewares/LVGL/GUI/lvgl/src/draw/sw/lv_draw_sw_mask.c ****     }
 2383              		.loc 1 436 9 is_stmt 1 view .LVU822
 436:../../Middlewares/LVGL/GUI/lvgl/src/draw/sw/lv_draw_sw_mask.c ****     }
 2384              		.loc 1 436 15 is_stmt 0 view .LVU823
 2385 00d2 0091     		str	r1, [sp]
 2386 00d4 2346     		mov	r3, r4
 2387 00d6 7146     		mov	r1, lr
 2388 00d8 2846     		mov	r0, r5
 2389 00da FFF7FEFF 		bl	line_mask_steep
 2390              	.LVL282:
 436:../../Middlewares/LVGL/GUI/lvgl/src/draw/sw/lv_draw_sw_mask.c ****     }
 2391              		.loc 1 436 15 view .LVU824
 2392 00de F6E7     		b	.L142
 2393              	.LVL283:
 2394              	.L150:
 400:../../Middlewares/LVGL/GUI/lvgl/src/draw/sw/lv_draw_sw_mask.c ****             }
 2395              		.loc 1 400 24 view .LVU825
 2396 00e0 0020     		movs	r0, #0
 2397 00e2 F4E7     		b	.L142
 2398              	.LVL284:
 2399              	.L151:
ARM GAS  C:\Users\28576\AppData\Local\Temp\ccagJBpt.s 			page 78


 407:../../Middlewares/LVGL/GUI/lvgl/src/draw/sw/lv_draw_sw_mask.c ****             else if(p->cfg.side == LV_DRAW_SW_MASK_LINE_SIDE_RIGHT && abs_x > 0) return LV_DRAW_SW_
 2400              		.loc 1 407 72 view .LVU826
 2401 00e4 0120     		movs	r0, #1
 2402 00e6 F2E7     		b	.L142
 2403              	.L153:
 410:../../Middlewares/LVGL/GUI/lvgl/src/draw/sw/lv_draw_sw_mask.c ****                 else {
 2404              		.loc 1 410 44 discriminator 1 view .LVU827
 2405 00e8 0120     		movs	r0, #1
 2406 00ea F0E7     		b	.L142
 2407              		.cfi_endproc
 2408              	.LFE198:
 2410              		.section	.text.lv_draw_mask_angle,"ax",%progbits
 2411              		.align	1
 2412              		.syntax unified
 2413              		.thumb
 2414              		.thumb_func
 2416              	lv_draw_mask_angle:
 2417              	.LVL285:
 2418              	.LFB201:
 705:../../Middlewares/LVGL/GUI/lvgl/src/draw/sw/lv_draw_sw_mask.c ****     int32_t rel_y = abs_y - p->cfg.vertex_p.y;
 2419              		.loc 1 705 1 is_stmt 1 view -0
 2420              		.cfi_startproc
 2421              		@ args = 4, pretend = 0, frame = 0
 2422              		@ frame_needed = 0, uses_anonymous_args = 0
 705:../../Middlewares/LVGL/GUI/lvgl/src/draw/sw/lv_draw_sw_mask.c ****     int32_t rel_y = abs_y - p->cfg.vertex_p.y;
 2423              		.loc 1 705 1 is_stmt 0 view .LVU829
 2424 0000 2DE9F047 		push	{r4, r5, r6, r7, r8, r9, r10, lr}
 2425              	.LCFI10:
 2426              		.cfi_def_cfa_offset 32
 2427              		.cfi_offset 4, -32
 2428              		.cfi_offset 5, -28
 2429              		.cfi_offset 6, -24
 2430              		.cfi_offset 7, -20
 2431              		.cfi_offset 8, -16
 2432              		.cfi_offset 9, -12
 2433              		.cfi_offset 10, -8
 2434              		.cfi_offset 14, -4
 2435 0004 82B0     		sub	sp, sp, #8
 2436              	.LCFI11:
 2437              		.cfi_def_cfa_offset 40
 2438 0006 8046     		mov	r8, r0
 2439 0008 8946     		mov	r9, r1
 2440 000a 1546     		mov	r5, r2
 2441 000c 1F46     		mov	r7, r3
 2442 000e 0A9C     		ldr	r4, [sp, #40]
 706:../../Middlewares/LVGL/GUI/lvgl/src/draw/sw/lv_draw_sw_mask.c ****     int32_t rel_x = abs_x - p->cfg.vertex_p.x;
 2443              		.loc 1 706 5 is_stmt 1 view .LVU830
 706:../../Middlewares/LVGL/GUI/lvgl/src/draw/sw/lv_draw_sw_mask.c ****     int32_t rel_x = abs_x - p->cfg.vertex_p.x;
 2444              		.loc 1 706 44 is_stmt 0 view .LVU831
 2445 0010 E368     		ldr	r3, [r4, #12]
 2446              	.LVL286:
 706:../../Middlewares/LVGL/GUI/lvgl/src/draw/sw/lv_draw_sw_mask.c ****     int32_t rel_x = abs_x - p->cfg.vertex_p.x;
 2447              		.loc 1 706 13 view .LVU832
 2448 0012 D61A     		subs	r6, r2, r3
 2449              	.LVL287:
 707:../../Middlewares/LVGL/GUI/lvgl/src/draw/sw/lv_draw_sw_mask.c **** 
 2450              		.loc 1 707 5 is_stmt 1 view .LVU833
ARM GAS  C:\Users\28576\AppData\Local\Temp\ccagJBpt.s 			page 79


 707:../../Middlewares/LVGL/GUI/lvgl/src/draw/sw/lv_draw_sw_mask.c **** 
 2451              		.loc 1 707 44 is_stmt 0 view .LVU834
 2452 0014 A268     		ldr	r2, [r4, #8]
 2453              	.LVL288:
 707:../../Middlewares/LVGL/GUI/lvgl/src/draw/sw/lv_draw_sw_mask.c **** 
 2454              		.loc 1 707 13 view .LVU835
 2455 0016 891A     		subs	r1, r1, r2
 2456              	.LVL289:
 709:../../Middlewares/LVGL/GUI/lvgl/src/draw/sw/lv_draw_sw_mask.c ****        p->cfg.start_angle != 0  && p->cfg.end_angle != 0 &&
 2457              		.loc 1 709 5 is_stmt 1 view .LVU836
 709:../../Middlewares/LVGL/GUI/lvgl/src/draw/sw/lv_draw_sw_mask.c ****        p->cfg.start_angle != 0  && p->cfg.end_angle != 0 &&
 2458              		.loc 1 709 14 is_stmt 0 view .LVU837
 2459 0018 2269     		ldr	r2, [r4, #16]
 709:../../Middlewares/LVGL/GUI/lvgl/src/draw/sw/lv_draw_sw_mask.c ****        p->cfg.start_angle != 0  && p->cfg.end_angle != 0 &&
 2460              		.loc 1 709 7 view .LVU838
 2461 001a B32A     		cmp	r2, #179
 2462 001c 00F38280 		bgt	.L162
 709:../../Middlewares/LVGL/GUI/lvgl/src/draw/sw/lv_draw_sw_mask.c ****        p->cfg.start_angle != 0  && p->cfg.end_angle != 0 &&
 2463              		.loc 1 709 42 discriminator 1 view .LVU839
 2464 0020 6069     		ldr	r0, [r4, #20]
 2465              	.LVL290:
 709:../../Middlewares/LVGL/GUI/lvgl/src/draw/sw/lv_draw_sw_mask.c ****        p->cfg.start_angle != 0  && p->cfg.end_angle != 0 &&
 2466              		.loc 1 709 33 discriminator 1 view .LVU840
 2467 0022 B328     		cmp	r0, #179
 2468 0024 7EDC     		bgt	.L162
 709:../../Middlewares/LVGL/GUI/lvgl/src/draw/sw/lv_draw_sw_mask.c ****        p->cfg.start_angle != 0  && p->cfg.end_angle != 0 &&
 2469              		.loc 1 709 59 discriminator 2 view .LVU841
 2470 0026 002A     		cmp	r2, #0
 2471 0028 7CD0     		beq	.L162
 710:../../Middlewares/LVGL/GUI/lvgl/src/draw/sw/lv_draw_sw_mask.c ****        p->cfg.start_angle > p->cfg.end_angle) {
 2472              		.loc 1 710 33 view .LVU842
 2473 002a 0028     		cmp	r0, #0
 2474 002c 7AD0     		beq	.L162
 710:../../Middlewares/LVGL/GUI/lvgl/src/draw/sw/lv_draw_sw_mask.c ****        p->cfg.start_angle > p->cfg.end_angle) {
 2475              		.loc 1 710 58 discriminator 1 view .LVU843
 2476 002e 8242     		cmp	r2, r0
 2477 0030 78DD     		ble	.L162
 2478              	.LBB232:
 713:../../Middlewares/LVGL/GUI/lvgl/src/draw/sw/lv_draw_sw_mask.c ****             return LV_DRAW_SW_MASK_RES_FULL_COVER;
 2479              		.loc 1 713 9 is_stmt 1 view .LVU844
 713:../../Middlewares/LVGL/GUI/lvgl/src/draw/sw/lv_draw_sw_mask.c ****             return LV_DRAW_SW_MASK_RES_FULL_COVER;
 2480              		.loc 1 713 11 is_stmt 0 view .LVU845
 2481 0032 AB42     		cmp	r3, r5
 2482 0034 00F35581 		bgt	.L197
 718:../../Middlewares/LVGL/GUI/lvgl/src/draw/sw/lv_draw_sw_mask.c ****         int32_t start_angle_last = ((rel_y + 1) * p->start_line.xy_steep) >> 10;
 2483              		.loc 1 718 9 is_stmt 1 view .LVU846
 718:../../Middlewares/LVGL/GUI/lvgl/src/draw/sw/lv_draw_sw_mask.c ****         int32_t start_angle_last = ((rel_y + 1) * p->start_line.xy_steep) >> 10;
 2484              		.loc 1 718 55 is_stmt 0 view .LVU847
 2485 0038 636F     		ldr	r3, [r4, #116]
 718:../../Middlewares/LVGL/GUI/lvgl/src/draw/sw/lv_draw_sw_mask.c ****         int32_t start_angle_last = ((rel_y + 1) * p->start_line.xy_steep) >> 10;
 2486              		.loc 1 718 42 view .LVU848
 2487 003a 06FB03F3 		mul	r3, r6, r3
 718:../../Middlewares/LVGL/GUI/lvgl/src/draw/sw/lv_draw_sw_mask.c ****         int32_t start_angle_last = ((rel_y + 1) * p->start_line.xy_steep) >> 10;
 2488              		.loc 1 718 17 view .LVU849
 2489 003e 4FEAA32C 		asr	ip, r3, #10
 2490              	.LVL291:
 719:../../Middlewares/LVGL/GUI/lvgl/src/draw/sw/lv_draw_sw_mask.c **** 
ARM GAS  C:\Users\28576\AppData\Local\Temp\ccagJBpt.s 			page 80


 2491              		.loc 1 719 9 is_stmt 1 view .LVU850
 719:../../Middlewares/LVGL/GUI/lvgl/src/draw/sw/lv_draw_sw_mask.c **** 
 2492              		.loc 1 719 64 is_stmt 0 view .LVU851
 2493 0042 E36B     		ldr	r3, [r4, #60]
 719:../../Middlewares/LVGL/GUI/lvgl/src/draw/sw/lv_draw_sw_mask.c **** 
 2494              		.loc 1 719 49 view .LVU852
 2495 0044 06FB0333 		mla	r3, r6, r3, r3
 719:../../Middlewares/LVGL/GUI/lvgl/src/draw/sw/lv_draw_sw_mask.c **** 
 2496              		.loc 1 719 17 view .LVU853
 2497 0048 9E12     		asrs	r6, r3, #10
 2498              	.LVL292:
 722:../../Middlewares/LVGL/GUI/lvgl/src/draw/sw/lv_draw_sw_mask.c ****         else if(p->cfg.start_angle > 0 && p->cfg.start_angle <= 90 && start_angle_last < 0) start_a
 2499              		.loc 1 722 9 is_stmt 1 view .LVU854
 722:../../Middlewares/LVGL/GUI/lvgl/src/draw/sw/lv_draw_sw_mask.c ****         else if(p->cfg.start_angle > 0 && p->cfg.start_angle <= 90 && start_angle_last < 0) start_a
 2500              		.loc 1 722 37 is_stmt 0 view .LVU855
 2501 004a A2F20F13 		subw	r3, r2, #271
 722:../../Middlewares/LVGL/GUI/lvgl/src/draw/sw/lv_draw_sw_mask.c ****         else if(p->cfg.start_angle > 0 && p->cfg.start_angle <= 90 && start_angle_last < 0) start_a
 2502              		.loc 1 722 11 view .LVU856
 2503 004e 582B     		cmp	r3, #88
 2504 0050 01D8     		bhi	.L164
 722:../../Middlewares/LVGL/GUI/lvgl/src/draw/sw/lv_draw_sw_mask.c ****         else if(p->cfg.start_angle > 0 && p->cfg.start_angle <= 90 && start_angle_last < 0) start_a
 2505              		.loc 1 722 66 discriminator 1 view .LVU857
 2506 0052 002E     		cmp	r6, #0
 2507 0054 0BDB     		blt	.L198
 2508              	.L164:
 723:../../Middlewares/LVGL/GUI/lvgl/src/draw/sw/lv_draw_sw_mask.c ****         else if(p->cfg.start_angle > 90 && p->cfg.start_angle < 270 && start_angle_last > 0) start_
 2509              		.loc 1 723 14 is_stmt 1 view .LVU858
 723:../../Middlewares/LVGL/GUI/lvgl/src/draw/sw/lv_draw_sw_mask.c ****         else if(p->cfg.start_angle > 90 && p->cfg.start_angle < 270 && start_angle_last > 0) start_
 2510              		.loc 1 723 40 is_stmt 0 view .LVU859
 2511 0056 531E     		subs	r3, r2, #1
 723:../../Middlewares/LVGL/GUI/lvgl/src/draw/sw/lv_draw_sw_mask.c ****         else if(p->cfg.start_angle > 90 && p->cfg.start_angle < 270 && start_angle_last > 0) start_
 2512              		.loc 1 723 16 view .LVU860
 2513 0058 592B     		cmp	r3, #89
 2514 005a 01D8     		bhi	.L166
 723:../../Middlewares/LVGL/GUI/lvgl/src/draw/sw/lv_draw_sw_mask.c ****         else if(p->cfg.start_angle > 90 && p->cfg.start_angle < 270 && start_angle_last > 0) start_
 2515              		.loc 1 723 68 discriminator 1 view .LVU861
 2516 005c 002E     		cmp	r6, #0
 2517 005e 19DB     		blt	.L199
 2518              	.L166:
 724:../../Middlewares/LVGL/GUI/lvgl/src/draw/sw/lv_draw_sw_mask.c **** 
 2519              		.loc 1 724 14 is_stmt 1 view .LVU862
 724:../../Middlewares/LVGL/GUI/lvgl/src/draw/sw/lv_draw_sw_mask.c **** 
 2520              		.loc 1 724 41 is_stmt 0 view .LVU863
 2521 0060 5B3A     		subs	r2, r2, #91
 724:../../Middlewares/LVGL/GUI/lvgl/src/draw/sw/lv_draw_sw_mask.c **** 
 2522              		.loc 1 724 16 view .LVU864
 2523 0062 B22A     		cmp	r2, #178
 2524 0064 04D8     		bhi	.L165
 724:../../Middlewares/LVGL/GUI/lvgl/src/draw/sw/lv_draw_sw_mask.c **** 
 2525              		.loc 1 724 69 discriminator 1 view .LVU865
 2526 0066 002E     		cmp	r6, #0
 2527 0068 02DD     		ble	.L165
 724:../../Middlewares/LVGL/GUI/lvgl/src/draw/sw/lv_draw_sw_mask.c **** 
 2528              		.loc 1 724 111 discriminator 2 view .LVU866
 2529 006a 0026     		movs	r6, #0
 2530              	.LVL293:
 724:../../Middlewares/LVGL/GUI/lvgl/src/draw/sw/lv_draw_sw_mask.c **** 
ARM GAS  C:\Users\28576\AppData\Local\Temp\ccagJBpt.s 			page 81


 2531              		.loc 1 724 111 discriminator 2 view .LVU867
 2532 006c 00E0     		b	.L165
 2533              	.LVL294:
 2534              	.L198:
 722:../../Middlewares/LVGL/GUI/lvgl/src/draw/sw/lv_draw_sw_mask.c ****         else if(p->cfg.start_angle > 0 && p->cfg.start_angle <= 90 && start_angle_last < 0) start_a
 2535              		.loc 1 722 108 discriminator 2 view .LVU868
 2536 006e 0026     		movs	r6, #0
 2537              	.LVL295:
 2538              	.L165:
 726:../../Middlewares/LVGL/GUI/lvgl/src/draw/sw/lv_draw_sw_mask.c ****         else if(p->cfg.end_angle > 0 &&   p->cfg.end_angle <= 90 && start_angle_last < 0) start_ang
 2539              		.loc 1 726 9 is_stmt 1 view .LVU869
 726:../../Middlewares/LVGL/GUI/lvgl/src/draw/sw/lv_draw_sw_mask.c ****         else if(p->cfg.end_angle > 0 &&   p->cfg.end_angle <= 90 && start_angle_last < 0) start_ang
 2540              		.loc 1 726 35 is_stmt 0 view .LVU870
 2541 0070 A0F20F13 		subw	r3, r0, #271
 726:../../Middlewares/LVGL/GUI/lvgl/src/draw/sw/lv_draw_sw_mask.c ****         else if(p->cfg.end_angle > 0 &&   p->cfg.end_angle <= 90 && start_angle_last < 0) start_ang
 2542              		.loc 1 726 11 view .LVU871
 2543 0074 582B     		cmp	r3, #88
 2544 0076 01D8     		bhi	.L167
 726:../../Middlewares/LVGL/GUI/lvgl/src/draw/sw/lv_draw_sw_mask.c ****         else if(p->cfg.end_angle > 0 &&   p->cfg.end_angle <= 90 && start_angle_last < 0) start_ang
 2545              		.loc 1 726 62 discriminator 1 view .LVU872
 2546 0078 002E     		cmp	r6, #0
 2547 007a 0DDB     		blt	.L201
 2548              	.L167:
 727:../../Middlewares/LVGL/GUI/lvgl/src/draw/sw/lv_draw_sw_mask.c ****         else if(p->cfg.end_angle > 90 &&  p->cfg.end_angle < 270 && start_angle_last > 0) start_ang
 2549              		.loc 1 727 14 is_stmt 1 view .LVU873
 727:../../Middlewares/LVGL/GUI/lvgl/src/draw/sw/lv_draw_sw_mask.c ****         else if(p->cfg.end_angle > 90 &&  p->cfg.end_angle < 270 && start_angle_last > 0) start_ang
 2550              		.loc 1 727 38 is_stmt 0 view .LVU874
 2551 007c 431E     		subs	r3, r0, #1
 727:../../Middlewares/LVGL/GUI/lvgl/src/draw/sw/lv_draw_sw_mask.c ****         else if(p->cfg.end_angle > 90 &&  p->cfg.end_angle < 270 && start_angle_last > 0) start_ang
 2552              		.loc 1 727 16 view .LVU875
 2553 007e 592B     		cmp	r3, #89
 2554 0080 01D8     		bhi	.L169
 727:../../Middlewares/LVGL/GUI/lvgl/src/draw/sw/lv_draw_sw_mask.c ****         else if(p->cfg.end_angle > 90 &&  p->cfg.end_angle < 270 && start_angle_last > 0) start_ang
 2555              		.loc 1 727 66 discriminator 1 view .LVU876
 2556 0082 002E     		cmp	r6, #0
 2557 0084 31DB     		blt	.L202
 2558              	.L169:
 728:../../Middlewares/LVGL/GUI/lvgl/src/draw/sw/lv_draw_sw_mask.c **** 
 2559              		.loc 1 728 14 is_stmt 1 view .LVU877
 728:../../Middlewares/LVGL/GUI/lvgl/src/draw/sw/lv_draw_sw_mask.c **** 
 2560              		.loc 1 728 39 is_stmt 0 view .LVU878
 2561 0086 5B38     		subs	r0, r0, #91
 728:../../Middlewares/LVGL/GUI/lvgl/src/draw/sw/lv_draw_sw_mask.c **** 
 2562              		.loc 1 728 16 view .LVU879
 2563 0088 B228     		cmp	r0, #178
 2564 008a 06D8     		bhi	.L168
 728:../../Middlewares/LVGL/GUI/lvgl/src/draw/sw/lv_draw_sw_mask.c **** 
 2565              		.loc 1 728 66 discriminator 1 view .LVU880
 2566 008c 002E     		cmp	r6, #0
 2567 008e 04DD     		ble	.L168
 728:../../Middlewares/LVGL/GUI/lvgl/src/draw/sw/lv_draw_sw_mask.c **** 
 2568              		.loc 1 728 108 discriminator 2 view .LVU881
 2569 0090 0026     		movs	r6, #0
 2570              	.LVL296:
 728:../../Middlewares/LVGL/GUI/lvgl/src/draw/sw/lv_draw_sw_mask.c **** 
 2571              		.loc 1 728 108 discriminator 2 view .LVU882
 2572 0092 02E0     		b	.L168
ARM GAS  C:\Users\28576\AppData\Local\Temp\ccagJBpt.s 			page 82


 2573              	.LVL297:
 2574              	.L199:
 723:../../Middlewares/LVGL/GUI/lvgl/src/draw/sw/lv_draw_sw_mask.c ****         else if(p->cfg.start_angle > 90 && p->cfg.start_angle < 270 && start_angle_last > 0) start_
 2575              		.loc 1 723 110 discriminator 2 view .LVU883
 2576 0094 0026     		movs	r6, #0
 2577              	.LVL298:
 723:../../Middlewares/LVGL/GUI/lvgl/src/draw/sw/lv_draw_sw_mask.c ****         else if(p->cfg.start_angle > 90 && p->cfg.start_angle < 270 && start_angle_last > 0) start_
 2578              		.loc 1 723 110 discriminator 2 view .LVU884
 2579 0096 EBE7     		b	.L165
 2580              	.LVL299:
 2581              	.L201:
 726:../../Middlewares/LVGL/GUI/lvgl/src/draw/sw/lv_draw_sw_mask.c ****         else if(p->cfg.end_angle > 0 &&   p->cfg.end_angle <= 90 && start_angle_last < 0) start_ang
 2582              		.loc 1 726 104 discriminator 2 view .LVU885
 2583 0098 0026     		movs	r6, #0
 2584              	.LVL300:
 2585              	.L168:
 730:../../Middlewares/LVGL/GUI/lvgl/src/draw/sw/lv_draw_sw_mask.c **** 
 2586              		.loc 1 730 9 is_stmt 1 view .LVU886
 730:../../Middlewares/LVGL/GUI/lvgl/src/draw/sw/lv_draw_sw_mask.c **** 
 2587              		.loc 1 730 41 is_stmt 0 view .LVU887
 2588 009a ACEB0603 		sub	r3, ip, r6
 2589              	.LVL301:
 732:../../Middlewares/LVGL/GUI/lvgl/src/draw/sw/lv_draw_sw_mask.c ****         lv_draw_sw_mask_res_t res2 = LV_DRAW_SW_MASK_RES_FULL_COVER;
 2590              		.loc 1 732 9 is_stmt 1 view .LVU888
 733:../../Middlewares/LVGL/GUI/lvgl/src/draw/sw/lv_draw_sw_mask.c **** 
 2591              		.loc 1 733 9 view .LVU889
 735:../../Middlewares/LVGL/GUI/lvgl/src/draw/sw/lv_draw_sw_mask.c ****         if(tmp > len) tmp = len;
 2592              		.loc 1 735 9 view .LVU890
 735:../../Middlewares/LVGL/GUI/lvgl/src/draw/sw/lv_draw_sw_mask.c ****         if(tmp > len) tmp = len;
 2593              		.loc 1 735 40 is_stmt 0 view .LVU891
 2594 009e 06EB6306 		add	r6, r6, r3, asr #1
 2595              	.LVL302:
 735:../../Middlewares/LVGL/GUI/lvgl/src/draw/sw/lv_draw_sw_mask.c ****         if(tmp > len) tmp = len;
 2596              		.loc 1 735 17 view .LVU892
 2597 00a2 731A     		subs	r3, r6, r1
 2598              	.LVL303:
 735:../../Middlewares/LVGL/GUI/lvgl/src/draw/sw/lv_draw_sw_mask.c ****         if(tmp > len) tmp = len;
 2599              		.loc 1 735 17 view .LVU893
 2600 00a4 9A46     		mov	r10, r3
 2601              	.LVL304:
 736:../../Middlewares/LVGL/GUI/lvgl/src/draw/sw/lv_draw_sw_mask.c ****         if(tmp > 0) {
 2602              		.loc 1 736 9 is_stmt 1 view .LVU894
 736:../../Middlewares/LVGL/GUI/lvgl/src/draw/sw/lv_draw_sw_mask.c ****         if(tmp > 0) {
 2603              		.loc 1 736 11 is_stmt 0 view .LVU895
 2604 00a6 BB42     		cmp	r3, r7
 2605 00a8 00DD     		ble	.L170
 736:../../Middlewares/LVGL/GUI/lvgl/src/draw/sw/lv_draw_sw_mask.c ****         if(tmp > 0) {
 2606              		.loc 1 736 27 discriminator 1 view .LVU896
 2607 00aa BA46     		mov	r10, r7
 2608              	.L170:
 2609              	.LVL305:
 737:../../Middlewares/LVGL/GUI/lvgl/src/draw/sw/lv_draw_sw_mask.c ****             res1 = lv_draw_mask_line(&mask_buf[0], abs_x, abs_y, tmp, &p->start_line);
 2610              		.loc 1 737 9 is_stmt 1 view .LVU897
 737:../../Middlewares/LVGL/GUI/lvgl/src/draw/sw/lv_draw_sw_mask.c ****             res1 = lv_draw_mask_line(&mask_buf[0], abs_x, abs_y, tmp, &p->start_line);
 2611              		.loc 1 737 11 is_stmt 0 view .LVU898
 2612 00ac 5246     		mov	r2, r10
 2613 00ae 002A     		cmp	r2, #0
ARM GAS  C:\Users\28576\AppData\Local\Temp\ccagJBpt.s 			page 83


 2614 00b0 1DDC     		bgt	.L233
 732:../../Middlewares/LVGL/GUI/lvgl/src/draw/sw/lv_draw_sw_mask.c ****         lv_draw_sw_mask_res_t res2 = LV_DRAW_SW_MASK_RES_FULL_COVER;
 2615              		.loc 1 732 31 view .LVU899
 2616 00b2 0126     		movs	r6, #1
 2617              	.LVL306:
 2618              	.L171:
 744:../../Middlewares/LVGL/GUI/lvgl/src/draw/sw/lv_draw_sw_mask.c ****         if(tmp < 0) tmp = 0;
 2619              		.loc 1 744 9 is_stmt 1 view .LVU900
 744:../../Middlewares/LVGL/GUI/lvgl/src/draw/sw/lv_draw_sw_mask.c ****         if(tmp < 0) tmp = 0;
 2620              		.loc 1 744 11 is_stmt 0 view .LVU901
 2621 00b4 BA45     		cmp	r10, r7
 2622 00b6 00DD     		ble	.L172
 744:../../Middlewares/LVGL/GUI/lvgl/src/draw/sw/lv_draw_sw_mask.c ****         if(tmp < 0) tmp = 0;
 2623              		.loc 1 744 27 discriminator 1 view .LVU902
 2624 00b8 BA46     		mov	r10, r7
 2625              	.LVL307:
 2626              	.L172:
 745:../../Middlewares/LVGL/GUI/lvgl/src/draw/sw/lv_draw_sw_mask.c ****         res2 = lv_draw_mask_line(&mask_buf[tmp], abs_x + tmp, abs_y, len - tmp, &p->end_line);
 2627              		.loc 1 745 9 is_stmt 1 view .LVU903
 745:../../Middlewares/LVGL/GUI/lvgl/src/draw/sw/lv_draw_sw_mask.c ****         res2 = lv_draw_mask_line(&mask_buf[tmp], abs_x + tmp, abs_y, len - tmp, &p->end_line);
 2628              		.loc 1 745 11 is_stmt 0 view .LVU904
 2629 00ba 5346     		mov	r3, r10
 2630 00bc 002B     		cmp	r3, #0
 2631 00be 28DB     		blt	.L234
 2632              	.LVL308:
 2633              	.L173:
 746:../../Middlewares/LVGL/GUI/lvgl/src/draw/sw/lv_draw_sw_mask.c ****         if(res2 == LV_DRAW_SW_MASK_RES_TRANSP) {
 2634              		.loc 1 746 9 is_stmt 1 view .LVU905
 746:../../Middlewares/LVGL/GUI/lvgl/src/draw/sw/lv_draw_sw_mask.c ****         if(res2 == LV_DRAW_SW_MASK_RES_TRANSP) {
 2635              		.loc 1 746 16 is_stmt 0 view .LVU906
 2636 00c0 4046     		mov	r0, r8
 2637 00c2 5146     		mov	r1, r10
 2638 00c4 5044     		add	r0, r0, r10
 2639 00c6 8046     		mov	r8, r0
 2640              	.LVL309:
 746:../../Middlewares/LVGL/GUI/lvgl/src/draw/sw/lv_draw_sw_mask.c ****         if(res2 == LV_DRAW_SW_MASK_RES_TRANSP) {
 2641              		.loc 1 746 16 view .LVU907
 2642 00c8 7B1A     		subs	r3, r7, r1
 2643 00ca 1F46     		mov	r7, r3
 2644              	.LVL310:
 746:../../Middlewares/LVGL/GUI/lvgl/src/draw/sw/lv_draw_sw_mask.c ****         if(res2 == LV_DRAW_SW_MASK_RES_TRANSP) {
 2645              		.loc 1 746 16 view .LVU908
 2646 00cc 5034     		adds	r4, r4, #80
 2647 00ce 0094     		str	r4, [sp]
 2648 00d0 2A46     		mov	r2, r5
 2649 00d2 4C46     		mov	r4, r9
 2650 00d4 5444     		add	r4, r4, r10
 2651 00d6 2146     		mov	r1, r4
 2652 00d8 FFF7FEFF 		bl	lv_draw_mask_line
 2653              	.LVL311:
 747:../../Middlewares/LVGL/GUI/lvgl/src/draw/sw/lv_draw_sw_mask.c ****             lv_memzero(&mask_buf[tmp], len - tmp);
 2654              		.loc 1 747 9 is_stmt 1 view .LVU909
 747:../../Middlewares/LVGL/GUI/lvgl/src/draw/sw/lv_draw_sw_mask.c ****             lv_memzero(&mask_buf[tmp], len - tmp);
 2655              		.loc 1 747 11 is_stmt 0 view .LVU910
 2656 00dc 0446     		mov	r4, r0
 2657 00de D8B1     		cbz	r0, .L235
 2658              	.LVL312:
ARM GAS  C:\Users\28576\AppData\Local\Temp\ccagJBpt.s 			page 84


 2659              	.L174:
 750:../../Middlewares/LVGL/GUI/lvgl/src/draw/sw/lv_draw_sw_mask.c ****         else return LV_DRAW_SW_MASK_RES_CHANGED;
 2660              		.loc 1 750 9 is_stmt 1 view .LVU911
 750:../../Middlewares/LVGL/GUI/lvgl/src/draw/sw/lv_draw_sw_mask.c ****         else return LV_DRAW_SW_MASK_RES_CHANGED;
 2661              		.loc 1 750 11 is_stmt 0 view .LVU912
 2662 00e0 A642     		cmp	r6, r4
 2663 00e2 00F00381 		beq	.L163
 751:../../Middlewares/LVGL/GUI/lvgl/src/draw/sw/lv_draw_sw_mask.c ****     }
 2664              		.loc 1 751 21 view .LVU913
 2665 00e6 0226     		movs	r6, #2
 2666              	.LVL313:
 751:../../Middlewares/LVGL/GUI/lvgl/src/draw/sw/lv_draw_sw_mask.c ****     }
 2667              		.loc 1 751 21 view .LVU914
 2668 00e8 00E1     		b	.L163
 2669              	.LVL314:
 2670              	.L202:
 727:../../Middlewares/LVGL/GUI/lvgl/src/draw/sw/lv_draw_sw_mask.c ****         else if(p->cfg.end_angle > 90 &&  p->cfg.end_angle < 270 && start_angle_last > 0) start_ang
 2671              		.loc 1 727 108 discriminator 2 view .LVU915
 2672 00ea 0026     		movs	r6, #0
 2673              	.LVL315:
 727:../../Middlewares/LVGL/GUI/lvgl/src/draw/sw/lv_draw_sw_mask.c ****         else if(p->cfg.end_angle > 90 &&  p->cfg.end_angle < 270 && start_angle_last > 0) start_ang
 2674              		.loc 1 727 108 discriminator 2 view .LVU916
 2675 00ec D5E7     		b	.L168
 2676              	.LVL316:
 2677              	.L233:
 738:../../Middlewares/LVGL/GUI/lvgl/src/draw/sw/lv_draw_sw_mask.c ****             if(res1 == LV_DRAW_SW_MASK_RES_TRANSP) {
 2678              		.loc 1 738 13 is_stmt 1 view .LVU917
 738:../../Middlewares/LVGL/GUI/lvgl/src/draw/sw/lv_draw_sw_mask.c ****             if(res1 == LV_DRAW_SW_MASK_RES_TRANSP) {
 2679              		.loc 1 738 20 is_stmt 0 view .LVU918
 2680 00ee 04F11803 		add	r3, r4, #24
 2681 00f2 0093     		str	r3, [sp]
 2682              	.LVL317:
 738:../../Middlewares/LVGL/GUI/lvgl/src/draw/sw/lv_draw_sw_mask.c ****             if(res1 == LV_DRAW_SW_MASK_RES_TRANSP) {
 2683              		.loc 1 738 20 view .LVU919
 2684 00f4 5346     		mov	r3, r10
 2685 00f6 2A46     		mov	r2, r5
 2686              	.LVL318:
 738:../../Middlewares/LVGL/GUI/lvgl/src/draw/sw/lv_draw_sw_mask.c ****             if(res1 == LV_DRAW_SW_MASK_RES_TRANSP) {
 2687              		.loc 1 738 20 view .LVU920
 2688 00f8 4946     		mov	r1, r9
 2689              	.LVL319:
 738:../../Middlewares/LVGL/GUI/lvgl/src/draw/sw/lv_draw_sw_mask.c ****             if(res1 == LV_DRAW_SW_MASK_RES_TRANSP) {
 2690              		.loc 1 738 20 view .LVU921
 2691 00fa 4046     		mov	r0, r8
 2692 00fc FFF7FEFF 		bl	lv_draw_mask_line
 2693              	.LVL320:
 739:../../Middlewares/LVGL/GUI/lvgl/src/draw/sw/lv_draw_sw_mask.c ****                 lv_memzero(&mask_buf[0], tmp);
 2694              		.loc 1 739 13 is_stmt 1 view .LVU922
 739:../../Middlewares/LVGL/GUI/lvgl/src/draw/sw/lv_draw_sw_mask.c ****                 lv_memzero(&mask_buf[0], tmp);
 2695              		.loc 1 739 15 is_stmt 0 view .LVU923
 2696 0100 0646     		mov	r6, r0
 2697 0102 0028     		cmp	r0, #0
 2698 0104 D6D1     		bne	.L171
 740:../../Middlewares/LVGL/GUI/lvgl/src/draw/sw/lv_draw_sw_mask.c ****             }
 2699              		.loc 1 740 17 is_stmt 1 view .LVU924
 2700              	.LVL321:
 2701              	.LBB233:
ARM GAS  C:\Users\28576\AppData\Local\Temp\ccagJBpt.s 			page 85


 2702              	.LBI233:
  73:H:/STM32H7/RGB_LVGL/Middlewares/LVGL/GUI/lvgl/src/stdlib\lv_string.h **** {
 2703              		.loc 2 73 20 view .LVU925
 2704              	.LBB234:
  75:H:/STM32H7/RGB_LVGL/Middlewares/LVGL/GUI/lvgl/src/stdlib\lv_string.h **** }
 2705              		.loc 2 75 5 view .LVU926
 2706 0106 5246     		mov	r2, r10
 2707 0108 0146     		mov	r1, r0
 2708 010a 4046     		mov	r0, r8
 2709              	.LVL322:
  75:H:/STM32H7/RGB_LVGL/Middlewares/LVGL/GUI/lvgl/src/stdlib\lv_string.h **** }
 2710              		.loc 2 75 5 is_stmt 0 view .LVU927
 2711 010c FFF7FEFF 		bl	lv_memset
 2712              	.LVL323:
 2713              		.loc 2 76 1 view .LVU928
 2714 0110 D0E7     		b	.L171
 2715              	.LVL324:
 2716              	.L234:
 2717              		.loc 2 76 1 view .LVU929
 2718              	.LBE234:
 2719              	.LBE233:
 745:../../Middlewares/LVGL/GUI/lvgl/src/draw/sw/lv_draw_sw_mask.c ****         res2 = lv_draw_mask_line(&mask_buf[tmp], abs_x + tmp, abs_y, len - tmp, &p->end_line);
 2720              		.loc 1 745 25 discriminator 1 view .LVU930
 2721 0112 0023     		movs	r3, #0
 2722              	.LVL325:
 745:../../Middlewares/LVGL/GUI/lvgl/src/draw/sw/lv_draw_sw_mask.c ****         res2 = lv_draw_mask_line(&mask_buf[tmp], abs_x + tmp, abs_y, len - tmp, &p->end_line);
 2723              		.loc 1 745 25 discriminator 1 view .LVU931
 2724 0114 9A46     		mov	r10, r3
 2725              	.LVL326:
 745:../../Middlewares/LVGL/GUI/lvgl/src/draw/sw/lv_draw_sw_mask.c ****         res2 = lv_draw_mask_line(&mask_buf[tmp], abs_x + tmp, abs_y, len - tmp, &p->end_line);
 2726              		.loc 1 745 25 discriminator 1 view .LVU932
 2727 0116 D3E7     		b	.L173
 2728              	.LVL327:
 2729              	.L235:
 748:../../Middlewares/LVGL/GUI/lvgl/src/draw/sw/lv_draw_sw_mask.c ****         }
 2730              		.loc 1 748 13 is_stmt 1 view .LVU933
 2731              	.LBB235:
 2732              	.LBI235:
  73:H:/STM32H7/RGB_LVGL/Middlewares/LVGL/GUI/lvgl/src/stdlib\lv_string.h **** {
 2733              		.loc 2 73 20 view .LVU934
 2734              	.LBB236:
  75:H:/STM32H7/RGB_LVGL/Middlewares/LVGL/GUI/lvgl/src/stdlib\lv_string.h **** }
 2735              		.loc 2 75 5 view .LVU935
 2736 0118 3A46     		mov	r2, r7
 2737 011a 0146     		mov	r1, r0
 2738 011c 4046     		mov	r0, r8
 2739              	.LVL328:
  75:H:/STM32H7/RGB_LVGL/Middlewares/LVGL/GUI/lvgl/src/stdlib\lv_string.h **** }
 2740              		.loc 2 75 5 is_stmt 0 view .LVU936
 2741 011e FFF7FEFF 		bl	lv_memset
 2742              	.LVL329:
 2743              		.loc 2 76 1 view .LVU937
 2744 0122 DDE7     		b	.L174
 2745              	.LVL330:
 2746              	.L162:
 2747              		.loc 2 76 1 view .LVU938
 2748              	.LBE236:
ARM GAS  C:\Users\28576\AppData\Local\Temp\ccagJBpt.s 			page 86


 2749              	.LBE235:
 2750              	.LBE232:
 753:../../Middlewares/LVGL/GUI/lvgl/src/draw/sw/lv_draw_sw_mask.c **** 
 2751              		.loc 1 753 10 is_stmt 1 view .LVU939
 753:../../Middlewares/LVGL/GUI/lvgl/src/draw/sw/lv_draw_sw_mask.c **** 
 2752              		.loc 1 753 12 is_stmt 0 view .LVU940
 2753 0124 B42A     		cmp	r2, #180
 2754 0126 40F38180 		ble	.L175
 753:../../Middlewares/LVGL/GUI/lvgl/src/draw/sw/lv_draw_sw_mask.c **** 
 2755              		.loc 1 753 47 discriminator 1 view .LVU941
 2756 012a D4F814C0 		ldr	ip, [r4, #20]
 753:../../Middlewares/LVGL/GUI/lvgl/src/draw/sw/lv_draw_sw_mask.c **** 
 2757              		.loc 1 753 38 discriminator 1 view .LVU942
 2758 012e BCF1B40F 		cmp	ip, #180
 2759 0132 7BDD     		ble	.L175
 753:../../Middlewares/LVGL/GUI/lvgl/src/draw/sw/lv_draw_sw_mask.c **** 
 2760              		.loc 1 753 64 discriminator 2 view .LVU943
 2761 0134 6245     		cmp	r2, ip
 2762 0136 79DD     		ble	.L175
 2763              	.LBB237:
 755:../../Middlewares/LVGL/GUI/lvgl/src/draw/sw/lv_draw_sw_mask.c ****             return LV_DRAW_SW_MASK_RES_FULL_COVER;
 2764              		.loc 1 755 9 is_stmt 1 view .LVU944
 755:../../Middlewares/LVGL/GUI/lvgl/src/draw/sw/lv_draw_sw_mask.c ****             return LV_DRAW_SW_MASK_RES_FULL_COVER;
 2765              		.loc 1 755 11 is_stmt 0 view .LVU945
 2766 0138 AB42     		cmp	r3, r5
 2767 013a C0F2D480 		blt	.L209
 760:../../Middlewares/LVGL/GUI/lvgl/src/draw/sw/lv_draw_sw_mask.c ****         int32_t start_angle_last = ((rel_y + 1) * p->start_line.xy_steep) >> 10;
 2768              		.loc 1 760 9 is_stmt 1 view .LVU946
 760:../../Middlewares/LVGL/GUI/lvgl/src/draw/sw/lv_draw_sw_mask.c ****         int32_t start_angle_last = ((rel_y + 1) * p->start_line.xy_steep) >> 10;
 2769              		.loc 1 760 55 is_stmt 0 view .LVU947
 2770 013e 606F     		ldr	r0, [r4, #116]
 760:../../Middlewares/LVGL/GUI/lvgl/src/draw/sw/lv_draw_sw_mask.c ****         int32_t start_angle_last = ((rel_y + 1) * p->start_line.xy_steep) >> 10;
 2771              		.loc 1 760 42 view .LVU948
 2772 0140 06FB00F3 		mul	r3, r6, r0
 760:../../Middlewares/LVGL/GUI/lvgl/src/draw/sw/lv_draw_sw_mask.c ****         int32_t start_angle_last = ((rel_y + 1) * p->start_line.xy_steep) >> 10;
 2773              		.loc 1 760 17 view .LVU949
 2774 0144 4FEAA32E 		asr	lr, r3, #10
 2775              	.LVL331:
 761:../../Middlewares/LVGL/GUI/lvgl/src/draw/sw/lv_draw_sw_mask.c **** 
 2776              		.loc 1 761 9 is_stmt 1 view .LVU950
 761:../../Middlewares/LVGL/GUI/lvgl/src/draw/sw/lv_draw_sw_mask.c **** 
 2777              		.loc 1 761 64 is_stmt 0 view .LVU951
 2778 0148 E06B     		ldr	r0, [r4, #60]
 761:../../Middlewares/LVGL/GUI/lvgl/src/draw/sw/lv_draw_sw_mask.c **** 
 2779              		.loc 1 761 49 view .LVU952
 2780 014a 06FB0000 		mla	r0, r6, r0, r0
 761:../../Middlewares/LVGL/GUI/lvgl/src/draw/sw/lv_draw_sw_mask.c **** 
 2781              		.loc 1 761 17 view .LVU953
 2782 014e 8012     		asrs	r0, r0, #10
 2783              	.LVL332:
 764:../../Middlewares/LVGL/GUI/lvgl/src/draw/sw/lv_draw_sw_mask.c ****         else if(p->cfg.start_angle > 0 && p->cfg.start_angle <= 90 && start_angle_last < 0) start_a
 2784              		.loc 1 764 9 is_stmt 1 view .LVU954
 764:../../Middlewares/LVGL/GUI/lvgl/src/draw/sw/lv_draw_sw_mask.c ****         else if(p->cfg.start_angle > 0 && p->cfg.start_angle <= 90 && start_angle_last < 0) start_a
 2785              		.loc 1 764 37 is_stmt 0 view .LVU955
 2786 0150 A2F20F13 		subw	r3, r2, #271
 764:../../Middlewares/LVGL/GUI/lvgl/src/draw/sw/lv_draw_sw_mask.c ****         else if(p->cfg.start_angle > 0 && p->cfg.start_angle <= 90 && start_angle_last < 0) start_a
 2787              		.loc 1 764 11 view .LVU956
ARM GAS  C:\Users\28576\AppData\Local\Temp\ccagJBpt.s 			page 87


 2788 0154 582B     		cmp	r3, #88
 2789 0156 01D8     		bhi	.L176
 764:../../Middlewares/LVGL/GUI/lvgl/src/draw/sw/lv_draw_sw_mask.c ****         else if(p->cfg.start_angle > 0 && p->cfg.start_angle <= 90 && start_angle_last < 0) start_a
 2790              		.loc 1 764 66 discriminator 1 view .LVU957
 2791 0158 0028     		cmp	r0, #0
 2792 015a 0BDB     		blt	.L210
 2793              	.L176:
 765:../../Middlewares/LVGL/GUI/lvgl/src/draw/sw/lv_draw_sw_mask.c ****         else if(p->cfg.start_angle > 90 && p->cfg.start_angle < 270 && start_angle_last > 0) start_
 2794              		.loc 1 765 14 is_stmt 1 view .LVU958
 765:../../Middlewares/LVGL/GUI/lvgl/src/draw/sw/lv_draw_sw_mask.c ****         else if(p->cfg.start_angle > 90 && p->cfg.start_angle < 270 && start_angle_last > 0) start_
 2795              		.loc 1 765 40 is_stmt 0 view .LVU959
 2796 015c 531E     		subs	r3, r2, #1
 765:../../Middlewares/LVGL/GUI/lvgl/src/draw/sw/lv_draw_sw_mask.c ****         else if(p->cfg.start_angle > 90 && p->cfg.start_angle < 270 && start_angle_last > 0) start_
 2797              		.loc 1 765 16 view .LVU960
 2798 015e 592B     		cmp	r3, #89
 2799 0160 01D8     		bhi	.L178
 765:../../Middlewares/LVGL/GUI/lvgl/src/draw/sw/lv_draw_sw_mask.c ****         else if(p->cfg.start_angle > 90 && p->cfg.start_angle < 270 && start_angle_last > 0) start_
 2800              		.loc 1 765 68 discriminator 1 view .LVU961
 2801 0162 0028     		cmp	r0, #0
 2802 0164 1BDB     		blt	.L211
 2803              	.L178:
 766:../../Middlewares/LVGL/GUI/lvgl/src/draw/sw/lv_draw_sw_mask.c **** 
 2804              		.loc 1 766 14 is_stmt 1 view .LVU962
 766:../../Middlewares/LVGL/GUI/lvgl/src/draw/sw/lv_draw_sw_mask.c **** 
 2805              		.loc 1 766 41 is_stmt 0 view .LVU963
 2806 0166 5B3A     		subs	r2, r2, #91
 766:../../Middlewares/LVGL/GUI/lvgl/src/draw/sw/lv_draw_sw_mask.c **** 
 2807              		.loc 1 766 16 view .LVU964
 2808 0168 B22A     		cmp	r2, #178
 2809 016a 04D8     		bhi	.L177
 766:../../Middlewares/LVGL/GUI/lvgl/src/draw/sw/lv_draw_sw_mask.c **** 
 2810              		.loc 1 766 69 discriminator 1 view .LVU965
 2811 016c 0028     		cmp	r0, #0
 2812 016e 02DD     		ble	.L177
 766:../../Middlewares/LVGL/GUI/lvgl/src/draw/sw/lv_draw_sw_mask.c **** 
 2813              		.loc 1 766 111 discriminator 2 view .LVU966
 2814 0170 0020     		movs	r0, #0
 2815              	.LVL333:
 766:../../Middlewares/LVGL/GUI/lvgl/src/draw/sw/lv_draw_sw_mask.c **** 
 2816              		.loc 1 766 111 discriminator 2 view .LVU967
 2817 0172 00E0     		b	.L177
 2818              	.LVL334:
 2819              	.L210:
 764:../../Middlewares/LVGL/GUI/lvgl/src/draw/sw/lv_draw_sw_mask.c ****         else if(p->cfg.start_angle > 0 && p->cfg.start_angle <= 90 && start_angle_last < 0) start_a
 2820              		.loc 1 764 108 discriminator 2 view .LVU968
 2821 0174 0020     		movs	r0, #0
 2822              	.LVL335:
 2823              	.L177:
 768:../../Middlewares/LVGL/GUI/lvgl/src/draw/sw/lv_draw_sw_mask.c ****         else if(p->cfg.end_angle > 0 &&   p->cfg.end_angle <= 90 && start_angle_last < 0) start_ang
 2824              		.loc 1 768 9 is_stmt 1 view .LVU969
 768:../../Middlewares/LVGL/GUI/lvgl/src/draw/sw/lv_draw_sw_mask.c ****         else if(p->cfg.end_angle > 0 &&   p->cfg.end_angle <= 90 && start_angle_last < 0) start_ang
 2825              		.loc 1 768 35 is_stmt 0 view .LVU970
 2826 0176 ACF20F13 		subw	r3, ip, #271
 768:../../Middlewares/LVGL/GUI/lvgl/src/draw/sw/lv_draw_sw_mask.c ****         else if(p->cfg.end_angle > 0 &&   p->cfg.end_angle <= 90 && start_angle_last < 0) start_ang
 2827              		.loc 1 768 11 view .LVU971
 2828 017a 582B     		cmp	r3, #88
 2829 017c 01D8     		bhi	.L179
ARM GAS  C:\Users\28576\AppData\Local\Temp\ccagJBpt.s 			page 88


 768:../../Middlewares/LVGL/GUI/lvgl/src/draw/sw/lv_draw_sw_mask.c ****         else if(p->cfg.end_angle > 0 &&   p->cfg.end_angle <= 90 && start_angle_last < 0) start_ang
 2830              		.loc 1 768 62 discriminator 1 view .LVU972
 2831 017e 0028     		cmp	r0, #0
 2832 0180 0FDB     		blt	.L213
 2833              	.L179:
 769:../../Middlewares/LVGL/GUI/lvgl/src/draw/sw/lv_draw_sw_mask.c ****         else if(p->cfg.end_angle > 90 &&  p->cfg.end_angle < 270 && start_angle_last > 0) start_ang
 2834              		.loc 1 769 14 is_stmt 1 view .LVU973
 769:../../Middlewares/LVGL/GUI/lvgl/src/draw/sw/lv_draw_sw_mask.c ****         else if(p->cfg.end_angle > 90 &&  p->cfg.end_angle < 270 && start_angle_last > 0) start_ang
 2835              		.loc 1 769 38 is_stmt 0 view .LVU974
 2836 0182 0CF1FF33 		add	r3, ip, #-1
 769:../../Middlewares/LVGL/GUI/lvgl/src/draw/sw/lv_draw_sw_mask.c ****         else if(p->cfg.end_angle > 90 &&  p->cfg.end_angle < 270 && start_angle_last > 0) start_ang
 2837              		.loc 1 769 16 view .LVU975
 2838 0186 592B     		cmp	r3, #89
 2839 0188 01D8     		bhi	.L181
 769:../../Middlewares/LVGL/GUI/lvgl/src/draw/sw/lv_draw_sw_mask.c ****         else if(p->cfg.end_angle > 90 &&  p->cfg.end_angle < 270 && start_angle_last > 0) start_ang
 2840              		.loc 1 769 66 discriminator 1 view .LVU976
 2841 018a 0028     		cmp	r0, #0
 2842 018c 31DB     		blt	.L214
 2843              	.L181:
 770:../../Middlewares/LVGL/GUI/lvgl/src/draw/sw/lv_draw_sw_mask.c **** 
 2844              		.loc 1 770 14 is_stmt 1 view .LVU977
 770:../../Middlewares/LVGL/GUI/lvgl/src/draw/sw/lv_draw_sw_mask.c **** 
 2845              		.loc 1 770 39 is_stmt 0 view .LVU978
 2846 018e ACF15B03 		sub	r3, ip, #91
 770:../../Middlewares/LVGL/GUI/lvgl/src/draw/sw/lv_draw_sw_mask.c **** 
 2847              		.loc 1 770 16 view .LVU979
 2848 0192 B22B     		cmp	r3, #178
 2849 0194 06D8     		bhi	.L180
 770:../../Middlewares/LVGL/GUI/lvgl/src/draw/sw/lv_draw_sw_mask.c **** 
 2850              		.loc 1 770 66 discriminator 1 view .LVU980
 2851 0196 0028     		cmp	r0, #0
 2852 0198 04DD     		ble	.L180
 770:../../Middlewares/LVGL/GUI/lvgl/src/draw/sw/lv_draw_sw_mask.c **** 
 2853              		.loc 1 770 108 discriminator 2 view .LVU981
 2854 019a 0020     		movs	r0, #0
 2855              	.LVL336:
 770:../../Middlewares/LVGL/GUI/lvgl/src/draw/sw/lv_draw_sw_mask.c **** 
 2856              		.loc 1 770 108 discriminator 2 view .LVU982
 2857 019c 02E0     		b	.L180
 2858              	.LVL337:
 2859              	.L211:
 765:../../Middlewares/LVGL/GUI/lvgl/src/draw/sw/lv_draw_sw_mask.c ****         else if(p->cfg.start_angle > 90 && p->cfg.start_angle < 270 && start_angle_last > 0) start_
 2860              		.loc 1 765 110 discriminator 2 view .LVU983
 2861 019e 0020     		movs	r0, #0
 2862              	.LVL338:
 765:../../Middlewares/LVGL/GUI/lvgl/src/draw/sw/lv_draw_sw_mask.c ****         else if(p->cfg.start_angle > 90 && p->cfg.start_angle < 270 && start_angle_last > 0) start_
 2863              		.loc 1 765 110 discriminator 2 view .LVU984
 2864 01a0 E9E7     		b	.L177
 2865              	.LVL339:
 2866              	.L213:
 768:../../Middlewares/LVGL/GUI/lvgl/src/draw/sw/lv_draw_sw_mask.c ****         else if(p->cfg.end_angle > 0 &&   p->cfg.end_angle <= 90 && start_angle_last < 0) start_ang
 2867              		.loc 1 768 104 discriminator 2 view .LVU985
 2868 01a2 0020     		movs	r0, #0
 2869              	.LVL340:
 2870              	.L180:
 772:../../Middlewares/LVGL/GUI/lvgl/src/draw/sw/lv_draw_sw_mask.c **** 
 2871              		.loc 1 772 9 is_stmt 1 view .LVU986
ARM GAS  C:\Users\28576\AppData\Local\Temp\ccagJBpt.s 			page 89


 772:../../Middlewares/LVGL/GUI/lvgl/src/draw/sw/lv_draw_sw_mask.c **** 
 2872              		.loc 1 772 41 is_stmt 0 view .LVU987
 2873 01a4 AEEB0003 		sub	r3, lr, r0
 2874              	.LVL341:
 774:../../Middlewares/LVGL/GUI/lvgl/src/draw/sw/lv_draw_sw_mask.c ****         lv_draw_sw_mask_res_t res2 = LV_DRAW_SW_MASK_RES_FULL_COVER;
 2875              		.loc 1 774 9 is_stmt 1 view .LVU988
 775:../../Middlewares/LVGL/GUI/lvgl/src/draw/sw/lv_draw_sw_mask.c **** 
 2876              		.loc 1 775 9 view .LVU989
 777:../../Middlewares/LVGL/GUI/lvgl/src/draw/sw/lv_draw_sw_mask.c ****         if(tmp > len) tmp = len;
 2877              		.loc 1 777 9 view .LVU990
 777:../../Middlewares/LVGL/GUI/lvgl/src/draw/sw/lv_draw_sw_mask.c ****         if(tmp > len) tmp = len;
 2878              		.loc 1 777 40 is_stmt 0 view .LVU991
 2879 01a8 00EB6300 		add	r0, r0, r3, asr #1
 2880              	.LVL342:
 777:../../Middlewares/LVGL/GUI/lvgl/src/draw/sw/lv_draw_sw_mask.c ****         if(tmp > len) tmp = len;
 2881              		.loc 1 777 17 view .LVU992
 2882 01ac 431A     		subs	r3, r0, r1
 2883              	.LVL343:
 777:../../Middlewares/LVGL/GUI/lvgl/src/draw/sw/lv_draw_sw_mask.c ****         if(tmp > len) tmp = len;
 2884              		.loc 1 777 17 view .LVU993
 2885 01ae 9A46     		mov	r10, r3
 2886              	.LVL344:
 778:../../Middlewares/LVGL/GUI/lvgl/src/draw/sw/lv_draw_sw_mask.c ****         if(tmp > 0) {
 2887              		.loc 1 778 9 is_stmt 1 view .LVU994
 778:../../Middlewares/LVGL/GUI/lvgl/src/draw/sw/lv_draw_sw_mask.c ****         if(tmp > 0) {
 2888              		.loc 1 778 11 is_stmt 0 view .LVU995
 2889 01b0 9F42     		cmp	r7, r3
 2890 01b2 00DA     		bge	.L182
 778:../../Middlewares/LVGL/GUI/lvgl/src/draw/sw/lv_draw_sw_mask.c ****         if(tmp > 0) {
 2891              		.loc 1 778 27 discriminator 1 view .LVU996
 2892 01b4 BA46     		mov	r10, r7
 2893              	.L182:
 2894              	.LVL345:
 779:../../Middlewares/LVGL/GUI/lvgl/src/draw/sw/lv_draw_sw_mask.c ****             res1 = lv_draw_mask_line(&mask_buf[0], abs_x, abs_y, tmp, (lv_draw_sw_mask_line_param_t
 2895              		.loc 1 779 9 is_stmt 1 view .LVU997
 779:../../Middlewares/LVGL/GUI/lvgl/src/draw/sw/lv_draw_sw_mask.c ****             res1 = lv_draw_mask_line(&mask_buf[0], abs_x, abs_y, tmp, (lv_draw_sw_mask_line_param_t
 2896              		.loc 1 779 11 is_stmt 0 view .LVU998
 2897 01b6 5246     		mov	r2, r10
 2898 01b8 002A     		cmp	r2, #0
 2899 01ba 1CDC     		bgt	.L236
 774:../../Middlewares/LVGL/GUI/lvgl/src/draw/sw/lv_draw_sw_mask.c ****         lv_draw_sw_mask_res_t res2 = LV_DRAW_SW_MASK_RES_FULL_COVER;
 2900              		.loc 1 774 31 view .LVU999
 2901 01bc 0126     		movs	r6, #1
 2902              	.LVL346:
 2903              	.L183:
 786:../../Middlewares/LVGL/GUI/lvgl/src/draw/sw/lv_draw_sw_mask.c ****         if(tmp < 0) tmp = 0;
 2904              		.loc 1 786 9 is_stmt 1 view .LVU1000
 786:../../Middlewares/LVGL/GUI/lvgl/src/draw/sw/lv_draw_sw_mask.c ****         if(tmp < 0) tmp = 0;
 2905              		.loc 1 786 11 is_stmt 0 view .LVU1001
 2906 01be BA45     		cmp	r10, r7
 2907 01c0 00DD     		ble	.L184
 786:../../Middlewares/LVGL/GUI/lvgl/src/draw/sw/lv_draw_sw_mask.c ****         if(tmp < 0) tmp = 0;
 2908              		.loc 1 786 27 discriminator 1 view .LVU1002
 2909 01c2 BA46     		mov	r10, r7
 2910              	.LVL347:
 2911              	.L184:
 787:../../Middlewares/LVGL/GUI/lvgl/src/draw/sw/lv_draw_sw_mask.c ****         res2 = lv_draw_mask_line(&mask_buf[tmp], abs_x + tmp, abs_y, len - tmp, (lv_draw_sw_mask_li
ARM GAS  C:\Users\28576\AppData\Local\Temp\ccagJBpt.s 			page 90


 2912              		.loc 1 787 9 is_stmt 1 view .LVU1003
 787:../../Middlewares/LVGL/GUI/lvgl/src/draw/sw/lv_draw_sw_mask.c ****         res2 = lv_draw_mask_line(&mask_buf[tmp], abs_x + tmp, abs_y, len - tmp, (lv_draw_sw_mask_li
 2913              		.loc 1 787 11 is_stmt 0 view .LVU1004
 2914 01c4 5346     		mov	r3, r10
 2915 01c6 002B     		cmp	r3, #0
 2916 01c8 27DB     		blt	.L237
 2917              	.LVL348:
 2918              	.L185:
 788:../../Middlewares/LVGL/GUI/lvgl/src/draw/sw/lv_draw_sw_mask.c ****         if(res2 == LV_DRAW_SW_MASK_RES_TRANSP) {
 2919              		.loc 1 788 9 is_stmt 1 view .LVU1005
 788:../../Middlewares/LVGL/GUI/lvgl/src/draw/sw/lv_draw_sw_mask.c ****         if(res2 == LV_DRAW_SW_MASK_RES_TRANSP) {
 2920              		.loc 1 788 16 is_stmt 0 view .LVU1006
 2921 01ca 4046     		mov	r0, r8
 2922 01cc 5146     		mov	r1, r10
 2923 01ce 5044     		add	r0, r0, r10
 2924 01d0 8046     		mov	r8, r0
 2925              	.LVL349:
 788:../../Middlewares/LVGL/GUI/lvgl/src/draw/sw/lv_draw_sw_mask.c ****         if(res2 == LV_DRAW_SW_MASK_RES_TRANSP) {
 2926              		.loc 1 788 16 view .LVU1007
 2927 01d2 7B1A     		subs	r3, r7, r1
 2928 01d4 1F46     		mov	r7, r3
 2929              	.LVL350:
 788:../../Middlewares/LVGL/GUI/lvgl/src/draw/sw/lv_draw_sw_mask.c ****         if(res2 == LV_DRAW_SW_MASK_RES_TRANSP) {
 2930              		.loc 1 788 16 view .LVU1008
 2931 01d6 1834     		adds	r4, r4, #24
 2932 01d8 0094     		str	r4, [sp]
 2933 01da 2A46     		mov	r2, r5
 2934 01dc 4C46     		mov	r4, r9
 2935 01de 5444     		add	r4, r4, r10
 2936 01e0 2146     		mov	r1, r4
 2937 01e2 FFF7FEFF 		bl	lv_draw_mask_line
 2938              	.LVL351:
 789:../../Middlewares/LVGL/GUI/lvgl/src/draw/sw/lv_draw_sw_mask.c ****             lv_memzero(&mask_buf[tmp], len - tmp);
 2939              		.loc 1 789 9 is_stmt 1 view .LVU1009
 789:../../Middlewares/LVGL/GUI/lvgl/src/draw/sw/lv_draw_sw_mask.c ****             lv_memzero(&mask_buf[tmp], len - tmp);
 2940              		.loc 1 789 11 is_stmt 0 view .LVU1010
 2941 01e6 0446     		mov	r4, r0
 2942 01e8 D0B1     		cbz	r0, .L238
 2943              	.LVL352:
 2944              	.L186:
 792:../../Middlewares/LVGL/GUI/lvgl/src/draw/sw/lv_draw_sw_mask.c ****         else return LV_DRAW_SW_MASK_RES_CHANGED;
 2945              		.loc 1 792 9 is_stmt 1 view .LVU1011
 792:../../Middlewares/LVGL/GUI/lvgl/src/draw/sw/lv_draw_sw_mask.c ****         else return LV_DRAW_SW_MASK_RES_CHANGED;
 2946              		.loc 1 792 11 is_stmt 0 view .LVU1012
 2947 01ea A642     		cmp	r6, r4
 2948 01ec 7ED0     		beq	.L163
 793:../../Middlewares/LVGL/GUI/lvgl/src/draw/sw/lv_draw_sw_mask.c ****     }
 2949              		.loc 1 793 21 view .LVU1013
 2950 01ee 0226     		movs	r6, #2
 2951              	.LVL353:
 793:../../Middlewares/LVGL/GUI/lvgl/src/draw/sw/lv_draw_sw_mask.c ****     }
 2952              		.loc 1 793 21 view .LVU1014
 2953 01f0 7CE0     		b	.L163
 2954              	.LVL354:
 2955              	.L214:
 769:../../Middlewares/LVGL/GUI/lvgl/src/draw/sw/lv_draw_sw_mask.c ****         else if(p->cfg.end_angle > 90 &&  p->cfg.end_angle < 270 && start_angle_last > 0) start_ang
 2956              		.loc 1 769 108 discriminator 2 view .LVU1015
ARM GAS  C:\Users\28576\AppData\Local\Temp\ccagJBpt.s 			page 91


 2957 01f2 0020     		movs	r0, #0
 2958              	.LVL355:
 769:../../Middlewares/LVGL/GUI/lvgl/src/draw/sw/lv_draw_sw_mask.c ****         else if(p->cfg.end_angle > 90 &&  p->cfg.end_angle < 270 && start_angle_last > 0) start_ang
 2959              		.loc 1 769 108 discriminator 2 view .LVU1016
 2960 01f4 D6E7     		b	.L180
 2961              	.LVL356:
 2962              	.L236:
 780:../../Middlewares/LVGL/GUI/lvgl/src/draw/sw/lv_draw_sw_mask.c ****             if(res1 == LV_DRAW_SW_MASK_RES_TRANSP) {
 2963              		.loc 1 780 13 is_stmt 1 view .LVU1017
 780:../../Middlewares/LVGL/GUI/lvgl/src/draw/sw/lv_draw_sw_mask.c ****             if(res1 == LV_DRAW_SW_MASK_RES_TRANSP) {
 2964              		.loc 1 780 20 is_stmt 0 view .LVU1018
 2965 01f6 04F15003 		add	r3, r4, #80
 2966 01fa 0093     		str	r3, [sp]
 2967 01fc 5346     		mov	r3, r10
 2968 01fe 2A46     		mov	r2, r5
 2969              	.LVL357:
 780:../../Middlewares/LVGL/GUI/lvgl/src/draw/sw/lv_draw_sw_mask.c ****             if(res1 == LV_DRAW_SW_MASK_RES_TRANSP) {
 2970              		.loc 1 780 20 view .LVU1019
 2971 0200 4946     		mov	r1, r9
 2972              	.LVL358:
 780:../../Middlewares/LVGL/GUI/lvgl/src/draw/sw/lv_draw_sw_mask.c ****             if(res1 == LV_DRAW_SW_MASK_RES_TRANSP) {
 2973              		.loc 1 780 20 view .LVU1020
 2974 0202 4046     		mov	r0, r8
 2975 0204 FFF7FEFF 		bl	lv_draw_mask_line
 2976              	.LVL359:
 781:../../Middlewares/LVGL/GUI/lvgl/src/draw/sw/lv_draw_sw_mask.c ****                 lv_memzero(&mask_buf[0], tmp);
 2977              		.loc 1 781 13 is_stmt 1 view .LVU1021
 781:../../Middlewares/LVGL/GUI/lvgl/src/draw/sw/lv_draw_sw_mask.c ****                 lv_memzero(&mask_buf[0], tmp);
 2978              		.loc 1 781 15 is_stmt 0 view .LVU1022
 2979 0208 0646     		mov	r6, r0
 2980              	.LVL360:
 781:../../Middlewares/LVGL/GUI/lvgl/src/draw/sw/lv_draw_sw_mask.c ****                 lv_memzero(&mask_buf[0], tmp);
 2981              		.loc 1 781 15 view .LVU1023
 2982 020a 0028     		cmp	r0, #0
 2983 020c D7D1     		bne	.L183
 782:../../Middlewares/LVGL/GUI/lvgl/src/draw/sw/lv_draw_sw_mask.c ****             }
 2984              		.loc 1 782 17 is_stmt 1 view .LVU1024
 2985              	.LVL361:
 2986              	.LBB238:
 2987              	.LBI238:
  73:H:/STM32H7/RGB_LVGL/Middlewares/LVGL/GUI/lvgl/src/stdlib\lv_string.h **** {
 2988              		.loc 2 73 20 view .LVU1025
 2989              	.LBB239:
  75:H:/STM32H7/RGB_LVGL/Middlewares/LVGL/GUI/lvgl/src/stdlib\lv_string.h **** }
 2990              		.loc 2 75 5 view .LVU1026
 2991 020e 5246     		mov	r2, r10
 2992 0210 0146     		mov	r1, r0
 2993 0212 4046     		mov	r0, r8
 2994              	.LVL362:
  75:H:/STM32H7/RGB_LVGL/Middlewares/LVGL/GUI/lvgl/src/stdlib\lv_string.h **** }
 2995              		.loc 2 75 5 is_stmt 0 view .LVU1027
 2996 0214 FFF7FEFF 		bl	lv_memset
 2997              	.LVL363:
 2998              		.loc 2 76 1 view .LVU1028
 2999 0218 D1E7     		b	.L183
 3000              	.LVL364:
 3001              	.L237:
ARM GAS  C:\Users\28576\AppData\Local\Temp\ccagJBpt.s 			page 92


 3002              		.loc 2 76 1 view .LVU1029
 3003              	.LBE239:
 3004              	.LBE238:
 787:../../Middlewares/LVGL/GUI/lvgl/src/draw/sw/lv_draw_sw_mask.c ****         res2 = lv_draw_mask_line(&mask_buf[tmp], abs_x + tmp, abs_y, len - tmp, (lv_draw_sw_mask_li
 3005              		.loc 1 787 25 discriminator 1 view .LVU1030
 3006 021a 0023     		movs	r3, #0
 3007              	.LVL365:
 787:../../Middlewares/LVGL/GUI/lvgl/src/draw/sw/lv_draw_sw_mask.c ****         res2 = lv_draw_mask_line(&mask_buf[tmp], abs_x + tmp, abs_y, len - tmp, (lv_draw_sw_mask_li
 3008              		.loc 1 787 25 discriminator 1 view .LVU1031
 3009 021c 9A46     		mov	r10, r3
 3010              	.LVL366:
 787:../../Middlewares/LVGL/GUI/lvgl/src/draw/sw/lv_draw_sw_mask.c ****         res2 = lv_draw_mask_line(&mask_buf[tmp], abs_x + tmp, abs_y, len - tmp, (lv_draw_sw_mask_li
 3011              		.loc 1 787 25 discriminator 1 view .LVU1032
 3012 021e D4E7     		b	.L185
 3013              	.LVL367:
 3014              	.L238:
 790:../../Middlewares/LVGL/GUI/lvgl/src/draw/sw/lv_draw_sw_mask.c ****         }
 3015              		.loc 1 790 13 is_stmt 1 view .LVU1033
 3016              	.LBB240:
 3017              	.LBI240:
  73:H:/STM32H7/RGB_LVGL/Middlewares/LVGL/GUI/lvgl/src/stdlib\lv_string.h **** {
 3018              		.loc 2 73 20 view .LVU1034
 3019              	.LBB241:
  75:H:/STM32H7/RGB_LVGL/Middlewares/LVGL/GUI/lvgl/src/stdlib\lv_string.h **** }
 3020              		.loc 2 75 5 view .LVU1035
 3021 0220 3A46     		mov	r2, r7
 3022 0222 0146     		mov	r1, r0
 3023 0224 4046     		mov	r0, r8
 3024              	.LVL368:
  75:H:/STM32H7/RGB_LVGL/Middlewares/LVGL/GUI/lvgl/src/stdlib\lv_string.h **** }
 3025              		.loc 2 75 5 is_stmt 0 view .LVU1036
 3026 0226 FFF7FEFF 		bl	lv_memset
 3027              	.LVL369:
 3028              		.loc 2 76 1 view .LVU1037
 3029 022a DEE7     		b	.L186
 3030              	.LVL370:
 3031              	.L175:
 3032              		.loc 2 76 1 view .LVU1038
 3033              	.LBE241:
 3034              	.LBE240:
 3035              	.LBE237:
 3036              	.LBB242:
 797:../../Middlewares/LVGL/GUI/lvgl/src/draw/sw/lv_draw_sw_mask.c ****         lv_draw_sw_mask_res_t res2 = LV_DRAW_SW_MASK_RES_FULL_COVER;
 3037              		.loc 1 797 9 is_stmt 1 view .LVU1039
 798:../../Middlewares/LVGL/GUI/lvgl/src/draw/sw/lv_draw_sw_mask.c **** 
 3038              		.loc 1 798 9 view .LVU1040
 800:../../Middlewares/LVGL/GUI/lvgl/src/draw/sw/lv_draw_sw_mask.c ****             if(abs_y < p->cfg.vertex_p.y) res1 = LV_DRAW_SW_MASK_RES_FULL_COVER;
 3039              		.loc 1 800 9 view .LVU1041
 800:../../Middlewares/LVGL/GUI/lvgl/src/draw/sw/lv_draw_sw_mask.c ****             if(abs_y < p->cfg.vertex_p.y) res1 = LV_DRAW_SW_MASK_RES_FULL_COVER;
 3040              		.loc 1 800 11 is_stmt 0 view .LVU1042
 3041 022c B42A     		cmp	r2, #180
 3042 022e 04D0     		beq	.L239
 804:../../Middlewares/LVGL/GUI/lvgl/src/draw/sw/lv_draw_sw_mask.c ****             if(abs_y < p->cfg.vertex_p.y) res1 = LV_DRAW_SW_MASK_RES_UNKNOWN;
 3043              		.loc 1 804 14 is_stmt 1 view .LVU1043
 804:../../Middlewares/LVGL/GUI/lvgl/src/draw/sw/lv_draw_sw_mask.c ****             if(abs_y < p->cfg.vertex_p.y) res1 = LV_DRAW_SW_MASK_RES_UNKNOWN;
 3044              		.loc 1 804 16 is_stmt 0 view .LVU1044
 3045 0230 7AB9     		cbnz	r2, .L189
ARM GAS  C:\Users\28576\AppData\Local\Temp\ccagJBpt.s 			page 93


 805:../../Middlewares/LVGL/GUI/lvgl/src/draw/sw/lv_draw_sw_mask.c ****             else res1 = LV_DRAW_SW_MASK_RES_FULL_COVER;
 3046              		.loc 1 805 13 is_stmt 1 view .LVU1045
 805:../../Middlewares/LVGL/GUI/lvgl/src/draw/sw/lv_draw_sw_mask.c ****             else res1 = LV_DRAW_SW_MASK_RES_FULL_COVER;
 3047              		.loc 1 805 15 is_stmt 0 view .LVU1046
 3048 0232 AB42     		cmp	r3, r5
 3049 0234 22DD     		ble	.L222
 805:../../Middlewares/LVGL/GUI/lvgl/src/draw/sw/lv_draw_sw_mask.c ****             else res1 = LV_DRAW_SW_MASK_RES_FULL_COVER;
 3050              		.loc 1 805 48 discriminator 1 view .LVU1047
 3051 0236 0326     		movs	r6, #3
 3052              	.LVL371:
 805:../../Middlewares/LVGL/GUI/lvgl/src/draw/sw/lv_draw_sw_mask.c ****             else res1 = LV_DRAW_SW_MASK_RES_FULL_COVER;
 3053              		.loc 1 805 48 discriminator 1 view .LVU1048
 3054 0238 02E0     		b	.L188
 3055              	.LVL372:
 3056              	.L239:
 801:../../Middlewares/LVGL/GUI/lvgl/src/draw/sw/lv_draw_sw_mask.c ****             else res1 = LV_DRAW_SW_MASK_RES_UNKNOWN;
 3057              		.loc 1 801 13 is_stmt 1 view .LVU1049
 801:../../Middlewares/LVGL/GUI/lvgl/src/draw/sw/lv_draw_sw_mask.c ****             else res1 = LV_DRAW_SW_MASK_RES_UNKNOWN;
 3058              		.loc 1 801 15 is_stmt 0 view .LVU1050
 3059 023a AB42     		cmp	r3, r5
 3060 023c 1CDD     		ble	.L221
 801:../../Middlewares/LVGL/GUI/lvgl/src/draw/sw/lv_draw_sw_mask.c ****             else res1 = LV_DRAW_SW_MASK_RES_UNKNOWN;
 3061              		.loc 1 801 48 discriminator 1 view .LVU1051
 3062 023e 0126     		movs	r6, #1
 3063              	.LVL373:
 3064              	.L188:
 816:../../Middlewares/LVGL/GUI/lvgl/src/draw/sw/lv_draw_sw_mask.c ****             if(abs_y < p->cfg.vertex_p.y) res2 = LV_DRAW_SW_MASK_RES_UNKNOWN;
 3065              		.loc 1 816 9 is_stmt 1 view .LVU1052
 816:../../Middlewares/LVGL/GUI/lvgl/src/draw/sw/lv_draw_sw_mask.c ****             if(abs_y < p->cfg.vertex_p.y) res2 = LV_DRAW_SW_MASK_RES_UNKNOWN;
 3066              		.loc 1 816 18 is_stmt 0 view .LVU1053
 3067 0240 6369     		ldr	r3, [r4, #20]
 816:../../Middlewares/LVGL/GUI/lvgl/src/draw/sw/lv_draw_sw_mask.c ****             if(abs_y < p->cfg.vertex_p.y) res2 = LV_DRAW_SW_MASK_RES_UNKNOWN;
 3068              		.loc 1 816 11 view .LVU1054
 3069 0242 B42B     		cmp	r3, #180
 3070 0244 20D0     		beq	.L240
 820:../../Middlewares/LVGL/GUI/lvgl/src/draw/sw/lv_draw_sw_mask.c ****             if(abs_y < p->cfg.vertex_p.y) res2 = LV_DRAW_SW_MASK_RES_FULL_COVER;
 3071              		.loc 1 820 14 is_stmt 1 view .LVU1055
 820:../../Middlewares/LVGL/GUI/lvgl/src/draw/sw/lv_draw_sw_mask.c ****             if(abs_y < p->cfg.vertex_p.y) res2 = LV_DRAW_SW_MASK_RES_FULL_COVER;
 3072              		.loc 1 820 16 is_stmt 0 view .LVU1056
 3073 0246 8BBB     		cbnz	r3, .L194
 821:../../Middlewares/LVGL/GUI/lvgl/src/draw/sw/lv_draw_sw_mask.c ****             else res2 = LV_DRAW_SW_MASK_RES_UNKNOWN;
 3074              		.loc 1 821 13 is_stmt 1 view .LVU1057
 821:../../Middlewares/LVGL/GUI/lvgl/src/draw/sw/lv_draw_sw_mask.c ****             else res2 = LV_DRAW_SW_MASK_RES_UNKNOWN;
 3075              		.loc 1 821 39 is_stmt 0 view .LVU1058
 3076 0248 E368     		ldr	r3, [r4, #12]
 821:../../Middlewares/LVGL/GUI/lvgl/src/draw/sw/lv_draw_sw_mask.c ****             else res2 = LV_DRAW_SW_MASK_RES_UNKNOWN;
 3077              		.loc 1 821 15 view .LVU1059
 3078 024a AB42     		cmp	r3, r5
 3079 024c 43DD     		ble	.L226
 821:../../Middlewares/LVGL/GUI/lvgl/src/draw/sw/lv_draw_sw_mask.c ****             else res2 = LV_DRAW_SW_MASK_RES_UNKNOWN;
 3080              		.loc 1 821 48 discriminator 1 view .LVU1060
 3081 024e 0120     		movs	r0, #1
 3082 0250 1EE0     		b	.L193
 3083              	.LVL374:
 3084              	.L189:
 808:../../Middlewares/LVGL/GUI/lvgl/src/draw/sw/lv_draw_sw_mask.c ****                 (p->cfg.start_angle > 180 && abs_y >= p->cfg.vertex_p.y)) {
 3085              		.loc 1 808 14 is_stmt 1 view .LVU1061
ARM GAS  C:\Users\28576\AppData\Local\Temp\ccagJBpt.s 			page 94


 808:../../Middlewares/LVGL/GUI/lvgl/src/draw/sw/lv_draw_sw_mask.c ****                 (p->cfg.start_angle > 180 && abs_y >= p->cfg.vertex_p.y)) {
 3086              		.loc 1 808 16 is_stmt 0 view .LVU1062
 3087 0252 B32A     		cmp	r2, #179
 3088 0254 01DC     		bgt	.L190
 808:../../Middlewares/LVGL/GUI/lvgl/src/draw/sw/lv_draw_sw_mask.c ****                 (p->cfg.start_angle > 180 && abs_y >= p->cfg.vertex_p.y)) {
 3089              		.loc 1 808 43 discriminator 1 view .LVU1063
 3090 0256 AB42     		cmp	r3, r5
 3091 0258 12DC     		bgt	.L223
 3092              	.L190:
 808:../../Middlewares/LVGL/GUI/lvgl/src/draw/sw/lv_draw_sw_mask.c ****                 (p->cfg.start_angle > 180 && abs_y >= p->cfg.vertex_p.y)) {
 3093              		.loc 1 808 73 discriminator 3 view .LVU1064
 3094 025a B42A     		cmp	r2, #180
 3095 025c 01DD     		ble	.L191
 809:../../Middlewares/LVGL/GUI/lvgl/src/draw/sw/lv_draw_sw_mask.c ****             res1 = LV_DRAW_SW_MASK_RES_UNKNOWN;
 3096              		.loc 1 809 43 view .LVU1065
 3097 025e AB42     		cmp	r3, r5
 3098 0260 10DD     		ble	.L224
 3099              	.L191:
 813:../../Middlewares/LVGL/GUI/lvgl/src/draw/sw/lv_draw_sw_mask.c ****         }
 3100              		.loc 1 813 13 is_stmt 1 view .LVU1066
 813:../../Middlewares/LVGL/GUI/lvgl/src/draw/sw/lv_draw_sw_mask.c ****         }
 3101              		.loc 1 813 20 is_stmt 0 view .LVU1067
 3102 0262 04F11803 		add	r3, r4, #24
 3103 0266 0093     		str	r3, [sp]
 3104 0268 3B46     		mov	r3, r7
 3105 026a 2A46     		mov	r2, r5
 3106 026c 4946     		mov	r1, r9
 3107              	.LVL375:
 813:../../Middlewares/LVGL/GUI/lvgl/src/draw/sw/lv_draw_sw_mask.c ****         }
 3108              		.loc 1 813 20 view .LVU1068
 3109 026e 4046     		mov	r0, r8
 3110 0270 FFF7FEFF 		bl	lv_draw_mask_line
 3111              	.LVL376:
 3112 0274 0646     		mov	r6, r0
 3113              	.LVL377:
 813:../../Middlewares/LVGL/GUI/lvgl/src/draw/sw/lv_draw_sw_mask.c ****         }
 3114              		.loc 1 813 20 view .LVU1069
 3115 0276 E3E7     		b	.L188
 3116              	.LVL378:
 3117              	.L221:
 802:../../Middlewares/LVGL/GUI/lvgl/src/draw/sw/lv_draw_sw_mask.c ****         }
 3118              		.loc 1 802 23 view .LVU1070
 3119 0278 0326     		movs	r6, #3
 3120              	.LVL379:
 802:../../Middlewares/LVGL/GUI/lvgl/src/draw/sw/lv_draw_sw_mask.c ****         }
 3121              		.loc 1 802 23 view .LVU1071
 3122 027a E1E7     		b	.L188
 3123              	.LVL380:
 3124              	.L222:
 806:../../Middlewares/LVGL/GUI/lvgl/src/draw/sw/lv_draw_sw_mask.c ****         }
 3125              		.loc 1 806 23 view .LVU1072
 3126 027c 0126     		movs	r6, #1
 3127              	.LVL381:
 806:../../Middlewares/LVGL/GUI/lvgl/src/draw/sw/lv_draw_sw_mask.c ****         }
 3128              		.loc 1 806 23 view .LVU1073
 3129 027e DFE7     		b	.L188
 3130              	.LVL382:
ARM GAS  C:\Users\28576\AppData\Local\Temp\ccagJBpt.s 			page 95


 3131              	.L223:
 810:../../Middlewares/LVGL/GUI/lvgl/src/draw/sw/lv_draw_sw_mask.c ****         }
 3132              		.loc 1 810 18 view .LVU1074
 3133 0280 0326     		movs	r6, #3
 3134              	.LVL383:
 810:../../Middlewares/LVGL/GUI/lvgl/src/draw/sw/lv_draw_sw_mask.c ****         }
 3135              		.loc 1 810 18 view .LVU1075
 3136 0282 DDE7     		b	.L188
 3137              	.LVL384:
 3138              	.L224:
 810:../../Middlewares/LVGL/GUI/lvgl/src/draw/sw/lv_draw_sw_mask.c ****         }
 3139              		.loc 1 810 18 view .LVU1076
 3140 0284 0326     		movs	r6, #3
 3141              	.LVL385:
 810:../../Middlewares/LVGL/GUI/lvgl/src/draw/sw/lv_draw_sw_mask.c ****         }
 3142              		.loc 1 810 18 view .LVU1077
 3143 0286 DBE7     		b	.L188
 3144              	.LVL386:
 3145              	.L240:
 817:../../Middlewares/LVGL/GUI/lvgl/src/draw/sw/lv_draw_sw_mask.c ****             else res2 = LV_DRAW_SW_MASK_RES_FULL_COVER;
 3146              		.loc 1 817 13 is_stmt 1 view .LVU1078
 817:../../Middlewares/LVGL/GUI/lvgl/src/draw/sw/lv_draw_sw_mask.c ****             else res2 = LV_DRAW_SW_MASK_RES_FULL_COVER;
 3147              		.loc 1 817 39 is_stmt 0 view .LVU1079
 3148 0288 E368     		ldr	r3, [r4, #12]
 817:../../Middlewares/LVGL/GUI/lvgl/src/draw/sw/lv_draw_sw_mask.c ****             else res2 = LV_DRAW_SW_MASK_RES_FULL_COVER;
 3149              		.loc 1 817 15 view .LVU1080
 3150 028a AB42     		cmp	r3, r5
 3151 028c 21DD     		ble	.L225
 817:../../Middlewares/LVGL/GUI/lvgl/src/draw/sw/lv_draw_sw_mask.c ****             else res2 = LV_DRAW_SW_MASK_RES_FULL_COVER;
 3152              		.loc 1 817 48 discriminator 1 view .LVU1081
 3153 028e 0320     		movs	r0, #3
 3154              	.LVL387:
 3155              	.L193:
 832:../../Middlewares/LVGL/GUI/lvgl/src/draw/sw/lv_draw_sw_mask.c ****         else if(res1 == LV_DRAW_SW_MASK_RES_UNKNOWN && res2 == LV_DRAW_SW_MASK_RES_UNKNOWN) return 
 3156              		.loc 1 832 9 is_stmt 1 view .LVU1082
 832:../../Middlewares/LVGL/GUI/lvgl/src/draw/sw/lv_draw_sw_mask.c ****         else if(res1 == LV_DRAW_SW_MASK_RES_UNKNOWN && res2 == LV_DRAW_SW_MASK_RES_UNKNOWN) return 
 3157              		.loc 1 832 11 is_stmt 0 view .LVU1083
 3158 0290 0028     		cmp	r0, #0
 3159 0292 18BF     		it	ne
 3160 0294 002E     		cmpne	r6, #0
 3161 0296 28D0     		beq	.L229
 833:../../Middlewares/LVGL/GUI/lvgl/src/draw/sw/lv_draw_sw_mask.c ****         else if(res1 == LV_DRAW_SW_MASK_RES_FULL_COVER &&
 3162              		.loc 1 833 14 is_stmt 1 view .LVU1084
 833:../../Middlewares/LVGL/GUI/lvgl/src/draw/sw/lv_draw_sw_mask.c ****         else if(res1 == LV_DRAW_SW_MASK_RES_FULL_COVER &&
 3163              		.loc 1 833 16 is_stmt 0 view .LVU1085
 3164 0298 032E     		cmp	r6, #3
 3165 029a 08BF     		it	eq
 3166 029c 0328     		cmpeq	r0, #3
 3167 029e 29D0     		beq	.L230
 834:../../Middlewares/LVGL/GUI/lvgl/src/draw/sw/lv_draw_sw_mask.c ****                 res2 == LV_DRAW_SW_MASK_RES_FULL_COVER) return LV_DRAW_SW_MASK_RES_FULL_COVER;
 3168              		.loc 1 834 14 is_stmt 1 view .LVU1086
 834:../../Middlewares/LVGL/GUI/lvgl/src/draw/sw/lv_draw_sw_mask.c ****                 res2 == LV_DRAW_SW_MASK_RES_FULL_COVER) return LV_DRAW_SW_MASK_RES_FULL_COVER;
 3169              		.loc 1 834 16 is_stmt 0 view .LVU1087
 3170 02a0 012E     		cmp	r6, #1
 3171 02a2 08BF     		it	eq
 3172 02a4 0128     		cmpeq	r0, #1
 3173 02a6 27D1     		bne	.L231
ARM GAS  C:\Users\28576\AppData\Local\Temp\ccagJBpt.s 			page 96


 835:../../Middlewares/LVGL/GUI/lvgl/src/draw/sw/lv_draw_sw_mask.c ****         else return LV_DRAW_SW_MASK_RES_CHANGED;
 3174              		.loc 1 835 64 view .LVU1088
 3175 02a8 0126     		movs	r6, #1
 3176              	.LVL388:
 835:../../Middlewares/LVGL/GUI/lvgl/src/draw/sw/lv_draw_sw_mask.c ****         else return LV_DRAW_SW_MASK_RES_CHANGED;
 3177              		.loc 1 835 64 view .LVU1089
 3178 02aa 1FE0     		b	.L163
 3179              	.LVL389:
 3180              	.L194:
 824:../../Middlewares/LVGL/GUI/lvgl/src/draw/sw/lv_draw_sw_mask.c ****                 (p->cfg.end_angle > 180 && abs_y >= p->cfg.vertex_p.y)) {
 3181              		.loc 1 824 14 is_stmt 1 view .LVU1090
 824:../../Middlewares/LVGL/GUI/lvgl/src/draw/sw/lv_draw_sw_mask.c ****                 (p->cfg.end_angle > 180 && abs_y >= p->cfg.vertex_p.y)) {
 3182              		.loc 1 824 16 is_stmt 0 view .LVU1091
 3183 02ac B32B     		cmp	r3, #179
 3184 02ae 02DC     		bgt	.L195
 824:../../Middlewares/LVGL/GUI/lvgl/src/draw/sw/lv_draw_sw_mask.c ****                 (p->cfg.end_angle > 180 && abs_y >= p->cfg.vertex_p.y)) {
 3185              		.loc 1 824 67 discriminator 1 view .LVU1092
 3186 02b0 E268     		ldr	r2, [r4, #12]
 824:../../Middlewares/LVGL/GUI/lvgl/src/draw/sw/lv_draw_sw_mask.c ****                 (p->cfg.end_angle > 180 && abs_y >= p->cfg.vertex_p.y)) {
 3187              		.loc 1 824 41 discriminator 1 view .LVU1093
 3188 02b2 AA42     		cmp	r2, r5
 3189 02b4 11DC     		bgt	.L227
 3190              	.L195:
 824:../../Middlewares/LVGL/GUI/lvgl/src/draw/sw/lv_draw_sw_mask.c ****                 (p->cfg.end_angle > 180 && abs_y >= p->cfg.vertex_p.y)) {
 3191              		.loc 1 824 71 discriminator 3 view .LVU1094
 3192 02b6 B42B     		cmp	r3, #180
 3193 02b8 02DD     		ble	.L196
 825:../../Middlewares/LVGL/GUI/lvgl/src/draw/sw/lv_draw_sw_mask.c ****             res2 = LV_DRAW_SW_MASK_RES_UNKNOWN;
 3194              		.loc 1 825 68 view .LVU1095
 3195 02ba E368     		ldr	r3, [r4, #12]
 825:../../Middlewares/LVGL/GUI/lvgl/src/draw/sw/lv_draw_sw_mask.c ****             res2 = LV_DRAW_SW_MASK_RES_UNKNOWN;
 3196              		.loc 1 825 41 view .LVU1096
 3197 02bc AB42     		cmp	r3, r5
 3198 02be 0EDD     		ble	.L228
 3199              	.L196:
 829:../../Middlewares/LVGL/GUI/lvgl/src/draw/sw/lv_draw_sw_mask.c ****         }
 3200              		.loc 1 829 13 is_stmt 1 view .LVU1097
 829:../../Middlewares/LVGL/GUI/lvgl/src/draw/sw/lv_draw_sw_mask.c ****         }
 3201              		.loc 1 829 20 is_stmt 0 view .LVU1098
 3202 02c0 5034     		adds	r4, r4, #80
 3203 02c2 0094     		str	r4, [sp]
 3204 02c4 3B46     		mov	r3, r7
 3205 02c6 2A46     		mov	r2, r5
 3206 02c8 4946     		mov	r1, r9
 3207 02ca 4046     		mov	r0, r8
 3208 02cc FFF7FEFF 		bl	lv_draw_mask_line
 3209              	.LVL390:
 829:../../Middlewares/LVGL/GUI/lvgl/src/draw/sw/lv_draw_sw_mask.c ****         }
 3210              		.loc 1 829 20 view .LVU1099
 3211 02d0 DEE7     		b	.L193
 3212              	.LVL391:
 3213              	.L225:
 818:../../Middlewares/LVGL/GUI/lvgl/src/draw/sw/lv_draw_sw_mask.c ****         }
 3214              		.loc 1 818 23 view .LVU1100
 3215 02d2 0120     		movs	r0, #1
 3216 02d4 DCE7     		b	.L193
 3217              	.L226:
ARM GAS  C:\Users\28576\AppData\Local\Temp\ccagJBpt.s 			page 97


 822:../../Middlewares/LVGL/GUI/lvgl/src/draw/sw/lv_draw_sw_mask.c ****         }
 3218              		.loc 1 822 23 view .LVU1101
 3219 02d6 0320     		movs	r0, #3
 3220 02d8 DAE7     		b	.L193
 3221              	.L227:
 826:../../Middlewares/LVGL/GUI/lvgl/src/draw/sw/lv_draw_sw_mask.c ****         }
 3222              		.loc 1 826 18 view .LVU1102
 3223 02da 0320     		movs	r0, #3
 3224 02dc D8E7     		b	.L193
 3225              	.L228:
 826:../../Middlewares/LVGL/GUI/lvgl/src/draw/sw/lv_draw_sw_mask.c ****         }
 3226              		.loc 1 826 18 view .LVU1103
 3227 02de 0320     		movs	r0, #3
 3228 02e0 D6E7     		b	.L193
 3229              	.LVL392:
 3230              	.L197:
 826:../../Middlewares/LVGL/GUI/lvgl/src/draw/sw/lv_draw_sw_mask.c ****         }
 3231              		.loc 1 826 18 view .LVU1104
 3232              	.LBE242:
 3233              	.LBB243:
 714:../../Middlewares/LVGL/GUI/lvgl/src/draw/sw/lv_draw_sw_mask.c ****         }
 3234              		.loc 1 714 20 view .LVU1105
 3235 02e2 0126     		movs	r6, #1
 3236              	.LVL393:
 714:../../Middlewares/LVGL/GUI/lvgl/src/draw/sw/lv_draw_sw_mask.c ****         }
 3237              		.loc 1 714 20 view .LVU1106
 3238 02e4 02E0     		b	.L163
 3239              	.LVL394:
 3240              	.L209:
 714:../../Middlewares/LVGL/GUI/lvgl/src/draw/sw/lv_draw_sw_mask.c ****         }
 3241              		.loc 1 714 20 view .LVU1107
 3242              	.LBE243:
 3243              	.LBB244:
 756:../../Middlewares/LVGL/GUI/lvgl/src/draw/sw/lv_draw_sw_mask.c ****         }
 3244              		.loc 1 756 20 view .LVU1108
 3245 02e6 0126     		movs	r6, #1
 3246              	.LVL395:
 756:../../Middlewares/LVGL/GUI/lvgl/src/draw/sw/lv_draw_sw_mask.c ****         }
 3247              		.loc 1 756 20 view .LVU1109
 3248 02e8 00E0     		b	.L163
 3249              	.LVL396:
 3250              	.L229:
 756:../../Middlewares/LVGL/GUI/lvgl/src/draw/sw/lv_draw_sw_mask.c ****         }
 3251              		.loc 1 756 20 view .LVU1110
 3252              	.LBE244:
 3253              	.LBB245:
 832:../../Middlewares/LVGL/GUI/lvgl/src/draw/sw/lv_draw_sw_mask.c ****         else if(res1 == LV_DRAW_SW_MASK_RES_UNKNOWN && res2 == LV_DRAW_SW_MASK_RES_UNKNOWN) return 
 3254              		.loc 1 832 93 discriminator 1 view .LVU1111
 3255 02ea 0026     		movs	r6, #0
 3256              	.LVL397:
 3257              	.L163:
 832:../../Middlewares/LVGL/GUI/lvgl/src/draw/sw/lv_draw_sw_mask.c ****         else if(res1 == LV_DRAW_SW_MASK_RES_UNKNOWN && res2 == LV_DRAW_SW_MASK_RES_UNKNOWN) return 
 3258              		.loc 1 832 93 discriminator 1 view .LVU1112
 3259              	.LBE245:
 838:../../Middlewares/LVGL/GUI/lvgl/src/draw/sw/lv_draw_sw_mask.c **** 
 3260              		.loc 1 838 1 view .LVU1113
 3261 02ec 3046     		mov	r0, r6
ARM GAS  C:\Users\28576\AppData\Local\Temp\ccagJBpt.s 			page 98


 3262 02ee 02B0     		add	sp, sp, #8
 3263              	.LCFI12:
 3264              		.cfi_remember_state
 3265              		.cfi_def_cfa_offset 32
 3266              		@ sp needed
 3267 02f0 BDE8F087 		pop	{r4, r5, r6, r7, r8, r9, r10, pc}
 3268              	.LVL398:
 3269              	.L230:
 3270              	.LCFI13:
 3271              		.cfi_restore_state
 3272              	.LBB246:
 833:../../Middlewares/LVGL/GUI/lvgl/src/draw/sw/lv_draw_sw_mask.c ****         else if(res1 == LV_DRAW_SW_MASK_RES_FULL_COVER &&
 3273              		.loc 1 833 100 discriminator 1 view .LVU1114
 3274 02f4 0026     		movs	r6, #0
 3275              	.LVL399:
 833:../../Middlewares/LVGL/GUI/lvgl/src/draw/sw/lv_draw_sw_mask.c ****         else if(res1 == LV_DRAW_SW_MASK_RES_FULL_COVER &&
 3276              		.loc 1 833 100 discriminator 1 view .LVU1115
 3277 02f6 F9E7     		b	.L163
 3278              	.LVL400:
 3279              	.L231:
 836:../../Middlewares/LVGL/GUI/lvgl/src/draw/sw/lv_draw_sw_mask.c ****     }
 3280              		.loc 1 836 21 view .LVU1116
 3281 02f8 0226     		movs	r6, #2
 3282              	.LVL401:
 836:../../Middlewares/LVGL/GUI/lvgl/src/draw/sw/lv_draw_sw_mask.c ****     }
 3283              		.loc 1 836 21 view .LVU1117
 3284 02fa F7E7     		b	.L163
 3285              	.LBE246:
 3286              		.cfi_endproc
 3287              	.LFE201:
 3289              		.section	.text.lv_draw_mask_map,"ax",%progbits
 3290              		.align	1
 3291              		.syntax unified
 3292              		.thumb
 3293              		.thumb_func
 3295              	lv_draw_mask_map:
 3296              	.LVL402:
 3297              	.LFB204:
 999:../../Middlewares/LVGL/GUI/lvgl/src/draw/sw/lv_draw_sw_mask.c ****     /*Handle out of the mask cases*/
 3298              		.loc 1 999 1 is_stmt 1 view -0
 3299              		.cfi_startproc
 3300              		@ args = 4, pretend = 0, frame = 8
 3301              		@ frame_needed = 0, uses_anonymous_args = 0
 999:../../Middlewares/LVGL/GUI/lvgl/src/draw/sw/lv_draw_sw_mask.c ****     /*Handle out of the mask cases*/
 3302              		.loc 1 999 1 is_stmt 0 view .LVU1119
 3303 0000 2DE9F041 		push	{r4, r5, r6, r7, r8, lr}
 3304              	.LCFI14:
 3305              		.cfi_def_cfa_offset 24
 3306              		.cfi_offset 4, -24
 3307              		.cfi_offset 5, -20
 3308              		.cfi_offset 6, -16
 3309              		.cfi_offset 7, -12
 3310              		.cfi_offset 8, -8
 3311              		.cfi_offset 14, -4
 3312 0004 82B0     		sub	sp, sp, #8
 3313              	.LCFI15:
 3314              		.cfi_def_cfa_offset 32
ARM GAS  C:\Users\28576\AppData\Local\Temp\ccagJBpt.s 			page 99


 3315 0006 1D46     		mov	r5, r3
 3316 0008 089E     		ldr	r6, [sp, #32]
1001:../../Middlewares/LVGL/GUI/lvgl/src/draw/sw/lv_draw_sw_mask.c ****     if(abs_y > p->cfg.coords.y2) return LV_DRAW_SW_MASK_RES_FULL_COVER;
 3317              		.loc 1 1001 5 is_stmt 1 view .LVU1120
1001:../../Middlewares/LVGL/GUI/lvgl/src/draw/sw/lv_draw_sw_mask.c ****     if(abs_y > p->cfg.coords.y2) return LV_DRAW_SW_MASK_RES_FULL_COVER;
 3318              		.loc 1 1001 29 is_stmt 0 view .LVU1121
 3319 000a F368     		ldr	r3, [r6, #12]
 3320              	.LVL403:
1001:../../Middlewares/LVGL/GUI/lvgl/src/draw/sw/lv_draw_sw_mask.c ****     if(abs_y > p->cfg.coords.y2) return LV_DRAW_SW_MASK_RES_FULL_COVER;
 3321              		.loc 1 1001 7 view .LVU1122
 3322 000c 9342     		cmp	r3, r2
 3323 000e 44DC     		bgt	.L249
 3324 0010 0446     		mov	r4, r0
 3325 0012 0846     		mov	r0, r1
 3326              	.LVL404:
1001:../../Middlewares/LVGL/GUI/lvgl/src/draw/sw/lv_draw_sw_mask.c ****     if(abs_y > p->cfg.coords.y2) return LV_DRAW_SW_MASK_RES_FULL_COVER;
 3327              		.loc 1 1001 7 view .LVU1123
 3328 0014 8846     		mov	r8, r1
1002:../../Middlewares/LVGL/GUI/lvgl/src/draw/sw/lv_draw_sw_mask.c ****     if(abs_x + len < p->cfg.coords.x1) return LV_DRAW_SW_MASK_RES_FULL_COVER;
 3329              		.loc 1 1002 5 is_stmt 1 view .LVU1124
1002:../../Middlewares/LVGL/GUI/lvgl/src/draw/sw/lv_draw_sw_mask.c ****     if(abs_x + len < p->cfg.coords.x1) return LV_DRAW_SW_MASK_RES_FULL_COVER;
 3330              		.loc 1 1002 29 is_stmt 0 view .LVU1125
 3331 0016 7169     		ldr	r1, [r6, #20]
 3332              	.LVL405:
1002:../../Middlewares/LVGL/GUI/lvgl/src/draw/sw/lv_draw_sw_mask.c ****     if(abs_x + len < p->cfg.coords.x1) return LV_DRAW_SW_MASK_RES_FULL_COVER;
 3333              		.loc 1 1002 7 view .LVU1126
 3334 0018 9142     		cmp	r1, r2
 3335 001a 42DB     		blt	.L250
1003:../../Middlewares/LVGL/GUI/lvgl/src/draw/sw/lv_draw_sw_mask.c ****     if(abs_x > p->cfg.coords.x2) return LV_DRAW_SW_MASK_RES_FULL_COVER;
 3336              		.loc 1 1003 5 is_stmt 1 view .LVU1127
1003:../../Middlewares/LVGL/GUI/lvgl/src/draw/sw/lv_draw_sw_mask.c ****     if(abs_x > p->cfg.coords.x2) return LV_DRAW_SW_MASK_RES_FULL_COVER;
 3337              		.loc 1 1003 14 is_stmt 0 view .LVU1128
 3338 001c 4719     		adds	r7, r0, r5
1003:../../Middlewares/LVGL/GUI/lvgl/src/draw/sw/lv_draw_sw_mask.c ****     if(abs_x > p->cfg.coords.x2) return LV_DRAW_SW_MASK_RES_FULL_COVER;
 3339              		.loc 1 1003 35 view .LVU1129
 3340 001e B168     		ldr	r1, [r6, #8]
1003:../../Middlewares/LVGL/GUI/lvgl/src/draw/sw/lv_draw_sw_mask.c ****     if(abs_x > p->cfg.coords.x2) return LV_DRAW_SW_MASK_RES_FULL_COVER;
 3341              		.loc 1 1003 7 view .LVU1130
 3342 0020 8F42     		cmp	r7, r1
 3343 0022 40DB     		blt	.L251
1004:../../Middlewares/LVGL/GUI/lvgl/src/draw/sw/lv_draw_sw_mask.c **** 
 3344              		.loc 1 1004 5 is_stmt 1 view .LVU1131
1004:../../Middlewares/LVGL/GUI/lvgl/src/draw/sw/lv_draw_sw_mask.c **** 
 3345              		.loc 1 1004 29 is_stmt 0 view .LVU1132
 3346 0024 3169     		ldr	r1, [r6, #16]
1004:../../Middlewares/LVGL/GUI/lvgl/src/draw/sw/lv_draw_sw_mask.c **** 
 3347              		.loc 1 1004 7 view .LVU1133
 3348 0026 8142     		cmp	r1, r0
 3349 0028 01DA     		bge	.L255
1004:../../Middlewares/LVGL/GUI/lvgl/src/draw/sw/lv_draw_sw_mask.c **** 
 3350              		.loc 1 1004 41 discriminator 1 view .LVU1134
 3351 002a 0120     		movs	r0, #1
 3352              	.LVL406:
1004:../../Middlewares/LVGL/GUI/lvgl/src/draw/sw/lv_draw_sw_mask.c **** 
 3353              		.loc 1 1004 41 discriminator 1 view .LVU1135
 3354 002c 36E0     		b	.L242
 3355              	.LVL407:
ARM GAS  C:\Users\28576\AppData\Local\Temp\ccagJBpt.s 			page 100


 3356              	.L255:
1007:../../Middlewares/LVGL/GUI/lvgl/src/draw/sw/lv_draw_sw_mask.c ****     map_tmp += (abs_y - p->cfg.coords.y1) * lv_area_get_width(&p->cfg.coords);
 3357              		.loc 1 1007 5 is_stmt 1 view .LVU1136
1007:../../Middlewares/LVGL/GUI/lvgl/src/draw/sw/lv_draw_sw_mask.c ****     map_tmp += (abs_y - p->cfg.coords.y1) * lv_area_get_width(&p->cfg.coords);
 3358              		.loc 1 1007 22 is_stmt 0 view .LVU1137
 3359 002e B169     		ldr	r1, [r6, #24]
 3360 0030 0191     		str	r1, [sp, #4]
 3361              	.LVL408:
1008:../../Middlewares/LVGL/GUI/lvgl/src/draw/sw/lv_draw_sw_mask.c **** 
 3362              		.loc 1 1008 5 is_stmt 1 view .LVU1138
1008:../../Middlewares/LVGL/GUI/lvgl/src/draw/sw/lv_draw_sw_mask.c **** 
 3363              		.loc 1 1008 23 is_stmt 0 view .LVU1139
 3364 0032 D21A     		subs	r2, r2, r3
 3365              	.LVL409:
1008:../../Middlewares/LVGL/GUI/lvgl/src/draw/sw/lv_draw_sw_mask.c **** 
 3366              		.loc 1 1008 23 view .LVU1140
 3367 0034 0092     		str	r2, [sp]
1008:../../Middlewares/LVGL/GUI/lvgl/src/draw/sw/lv_draw_sw_mask.c **** 
 3368              		.loc 1 1008 45 view .LVU1141
 3369 0036 06F10800 		add	r0, r6, #8
 3370              	.LVL410:
1008:../../Middlewares/LVGL/GUI/lvgl/src/draw/sw/lv_draw_sw_mask.c **** 
 3371              		.loc 1 1008 45 view .LVU1142
 3372 003a FFF7FEFF 		bl	lv_area_get_width
 3373              	.LVL411:
1008:../../Middlewares/LVGL/GUI/lvgl/src/draw/sw/lv_draw_sw_mask.c **** 
 3374              		.loc 1 1008 13 discriminator 1 view .LVU1143
 3375 003e 019B     		ldr	r3, [sp, #4]
 3376 0040 009A     		ldr	r2, [sp]
 3377 0042 00FB023C 		mla	ip, r0, r2, r3
 3378              	.LVL412:
1010:../../Middlewares/LVGL/GUI/lvgl/src/draw/sw/lv_draw_sw_mask.c **** 
 3379              		.loc 1 1010 5 is_stmt 1 view .LVU1144
1010:../../Middlewares/LVGL/GUI/lvgl/src/draw/sw/lv_draw_sw_mask.c **** 
 3380              		.loc 1 1010 35 is_stmt 0 view .LVU1145
 3381 0046 3369     		ldr	r3, [r6, #16]
1010:../../Middlewares/LVGL/GUI/lvgl/src/draw/sw/lv_draw_sw_mask.c **** 
 3382              		.loc 1 1010 7 view .LVU1146
 3383 0048 9F42     		cmp	r7, r3
 3384 004a 02DD     		ble	.L243
1010:../../Middlewares/LVGL/GUI/lvgl/src/draw/sw/lv_draw_sw_mask.c **** 
 3385              		.loc 1 1010 40 is_stmt 1 discriminator 1 view .LVU1147
1010:../../Middlewares/LVGL/GUI/lvgl/src/draw/sw/lv_draw_sw_mask.c **** 
 3386              		.loc 1 1010 59 is_stmt 0 discriminator 1 view .LVU1148
 3387 004c FB1A     		subs	r3, r7, r3
1010:../../Middlewares/LVGL/GUI/lvgl/src/draw/sw/lv_draw_sw_mask.c **** 
 3388              		.loc 1 1010 78 discriminator 1 view .LVU1149
 3389 004e 013B     		subs	r3, r3, #1
1010:../../Middlewares/LVGL/GUI/lvgl/src/draw/sw/lv_draw_sw_mask.c **** 
 3390              		.loc 1 1010 44 discriminator 1 view .LVU1150
 3391 0050 ED1A     		subs	r5, r5, r3
 3392              	.LVL413:
 3393              	.L243:
1012:../../Middlewares/LVGL/GUI/lvgl/src/draw/sw/lv_draw_sw_mask.c ****         int32_t x_ofs = 0;
 3394              		.loc 1 1012 5 is_stmt 1 view .LVU1151
1012:../../Middlewares/LVGL/GUI/lvgl/src/draw/sw/lv_draw_sw_mask.c ****         int32_t x_ofs = 0;
 3395              		.loc 1 1012 29 is_stmt 0 view .LVU1152
ARM GAS  C:\Users\28576\AppData\Local\Temp\ccagJBpt.s 			page 101


 3396 0052 B368     		ldr	r3, [r6, #8]
1012:../../Middlewares/LVGL/GUI/lvgl/src/draw/sw/lv_draw_sw_mask.c ****         int32_t x_ofs = 0;
 3397              		.loc 1 1012 7 view .LVU1153
 3398 0054 4246     		mov	r2, r8
 3399 0056 4345     		cmp	r3, r8
 3400 0058 04DD     		ble	.L244
 3401              	.LVL414:
 3402              	.LBB247:
1013:../../Middlewares/LVGL/GUI/lvgl/src/draw/sw/lv_draw_sw_mask.c ****         x_ofs = p->cfg.coords.x1 - abs_x;
 3403              		.loc 1 1013 9 is_stmt 1 view .LVU1154
1014:../../Middlewares/LVGL/GUI/lvgl/src/draw/sw/lv_draw_sw_mask.c ****         len -= x_ofs;
 3404              		.loc 1 1014 9 view .LVU1155
1014:../../Middlewares/LVGL/GUI/lvgl/src/draw/sw/lv_draw_sw_mask.c ****         len -= x_ofs;
 3405              		.loc 1 1014 15 is_stmt 0 view .LVU1156
 3406 005a 9B1A     		subs	r3, r3, r2
 3407              	.LVL415:
1015:../../Middlewares/LVGL/GUI/lvgl/src/draw/sw/lv_draw_sw_mask.c ****         mask_buf += x_ofs;
 3408              		.loc 1 1015 9 is_stmt 1 view .LVU1157
1015:../../Middlewares/LVGL/GUI/lvgl/src/draw/sw/lv_draw_sw_mask.c ****         mask_buf += x_ofs;
 3409              		.loc 1 1015 13 is_stmt 0 view .LVU1158
 3410 005c ED1A     		subs	r5, r5, r3
 3411              	.LVL416:
1016:../../Middlewares/LVGL/GUI/lvgl/src/draw/sw/lv_draw_sw_mask.c ****     }
 3412              		.loc 1 1016 9 is_stmt 1 view .LVU1159
1016:../../Middlewares/LVGL/GUI/lvgl/src/draw/sw/lv_draw_sw_mask.c ****     }
 3413              		.loc 1 1016 18 is_stmt 0 view .LVU1160
 3414 005e 1C44     		add	r4, r4, r3
 3415              	.LVL417:
 3416              	.L245:
1016:../../Middlewares/LVGL/GUI/lvgl/src/draw/sw/lv_draw_sw_mask.c ****     }
 3417              		.loc 1 1016 18 view .LVU1161
 3418              	.LBE247:
1022:../../Middlewares/LVGL/GUI/lvgl/src/draw/sw/lv_draw_sw_mask.c ****     for(i = 0; i < len; i++) {
 3419              		.loc 1 1022 5 is_stmt 1 view .LVU1162
1023:../../Middlewares/LVGL/GUI/lvgl/src/draw/sw/lv_draw_sw_mask.c ****         mask_buf[i] = mask_mix(mask_buf[i], map_tmp[i]);
 3420              		.loc 1 1023 5 view .LVU1163
1023:../../Middlewares/LVGL/GUI/lvgl/src/draw/sw/lv_draw_sw_mask.c ****         mask_buf[i] = mask_mix(mask_buf[i], map_tmp[i]);
 3421              		.loc 1 1023 11 is_stmt 0 view .LVU1164
 3422 0060 0022     		movs	r2, #0
 3423              	.LVL418:
1023:../../Middlewares/LVGL/GUI/lvgl/src/draw/sw/lv_draw_sw_mask.c ****         mask_buf[i] = mask_mix(mask_buf[i], map_tmp[i]);
 3424              		.loc 1 1023 5 view .LVU1165
 3425 0062 05E0     		b	.L246
 3426              	.LVL419:
 3427              	.L244:
1019:../../Middlewares/LVGL/GUI/lvgl/src/draw/sw/lv_draw_sw_mask.c ****     }
 3428              		.loc 1 1019 9 is_stmt 1 view .LVU1166
1019:../../Middlewares/LVGL/GUI/lvgl/src/draw/sw/lv_draw_sw_mask.c ****     }
 3429              		.loc 1 1019 27 is_stmt 0 view .LVU1167
 3430 0064 D31A     		subs	r3, r2, r3
1019:../../Middlewares/LVGL/GUI/lvgl/src/draw/sw/lv_draw_sw_mask.c ****     }
 3431              		.loc 1 1019 17 view .LVU1168
 3432 0066 9C44     		add	ip, ip, r3
 3433              	.LVL420:
1019:../../Middlewares/LVGL/GUI/lvgl/src/draw/sw/lv_draw_sw_mask.c ****     }
 3434              		.loc 1 1019 17 view .LVU1169
 3435 0068 FAE7     		b	.L245
ARM GAS  C:\Users\28576\AppData\Local\Temp\ccagJBpt.s 			page 102


 3436              	.LVL421:
 3437              	.L253:
 3438              	.LBB248:
 3439              	.LBB249:
1232:../../Middlewares/LVGL/GUI/lvgl/src/draw/sw/lv_draw_sw_mask.c **** 
 3440              		.loc 1 1232 39 discriminator 1 view .LVU1170
 3441 006a 0021     		movs	r1, #0
 3442              	.LVL422:
 3443              	.L247:
1232:../../Middlewares/LVGL/GUI/lvgl/src/draw/sw/lv_draw_sw_mask.c **** 
 3444              		.loc 1 1232 39 discriminator 1 view .LVU1171
 3445              	.LBE249:
 3446              	.LBE248:
1024:../../Middlewares/LVGL/GUI/lvgl/src/draw/sw/lv_draw_sw_mask.c ****     }
 3447              		.loc 1 1024 21 discriminator 1 view .LVU1172
 3448 006c 0170     		strb	r1, [r0]
1023:../../Middlewares/LVGL/GUI/lvgl/src/draw/sw/lv_draw_sw_mask.c ****         mask_buf[i] = mask_mix(mask_buf[i], map_tmp[i]);
 3449              		.loc 1 1023 26 is_stmt 1 discriminator 3 view .LVU1173
 3450 006e 0132     		adds	r2, r2, #1
 3451              	.LVL423:
 3452              	.L246:
1023:../../Middlewares/LVGL/GUI/lvgl/src/draw/sw/lv_draw_sw_mask.c ****         mask_buf[i] = mask_mix(mask_buf[i], map_tmp[i]);
 3453              		.loc 1 1023 18 discriminator 1 view .LVU1174
 3454 0070 9542     		cmp	r5, r2
 3455 0072 10DD     		ble	.L256
1024:../../Middlewares/LVGL/GUI/lvgl/src/draw/sw/lv_draw_sw_mask.c ****     }
 3456              		.loc 1 1024 9 view .LVU1175
1024:../../Middlewares/LVGL/GUI/lvgl/src/draw/sw/lv_draw_sw_mask.c ****     }
 3457              		.loc 1 1024 40 is_stmt 0 view .LVU1176
 3458 0074 A018     		adds	r0, r4, r2
1024:../../Middlewares/LVGL/GUI/lvgl/src/draw/sw/lv_draw_sw_mask.c ****     }
 3459              		.loc 1 1024 23 view .LVU1177
 3460 0076 A15C     		ldrb	r1, [r4, r2]	@ zero_extendqisi2
 3461 0078 1CF80230 		ldrb	r3, [ip, r2]	@ zero_extendqisi2
 3462              	.LVL424:
 3463              	.LBB251:
 3464              	.LBI248:
1229:../../Middlewares/LVGL/GUI/lvgl/src/draw/sw/lv_draw_sw_mask.c **** {
 3465              		.loc 1 1229 46 is_stmt 1 view .LVU1178
 3466              	.LBB250:
1231:../../Middlewares/LVGL/GUI/lvgl/src/draw/sw/lv_draw_sw_mask.c ****     if(mask_new <= LV_OPA_MIN) return 0;
 3467              		.loc 1 1231 5 view .LVU1179
1231:../../Middlewares/LVGL/GUI/lvgl/src/draw/sw/lv_draw_sw_mask.c ****     if(mask_new <= LV_OPA_MIN) return 0;
 3468              		.loc 1 1231 7 is_stmt 0 view .LVU1180
 3469 007c FC2B     		cmp	r3, #252
 3470 007e F5D8     		bhi	.L247
1232:../../Middlewares/LVGL/GUI/lvgl/src/draw/sw/lv_draw_sw_mask.c **** 
 3471              		.loc 1 1232 5 is_stmt 1 view .LVU1181
1232:../../Middlewares/LVGL/GUI/lvgl/src/draw/sw/lv_draw_sw_mask.c **** 
 3472              		.loc 1 1232 7 is_stmt 0 view .LVU1182
 3473 0080 022B     		cmp	r3, #2
 3474 0082 F2D9     		bls	.L253
 3475              		.loc 1 1234 5 is_stmt 1 view .LVU1183
 3476              		.loc 1 1234 12 is_stmt 0 view .LVU1184
 3477 0084 03FB01F1 		mul	r1, r3, r1
 3478              	.LVL425:
 3479              		.loc 1 1234 12 view .LVU1185
ARM GAS  C:\Users\28576\AppData\Local\Temp\ccagJBpt.s 			page 103


 3480 0088 01EB0123 		add	r3, r1, r1, lsl #8
 3481              	.LVL426:
 3482              		.loc 1 1234 12 view .LVU1186
 3483 008c 01EBC311 		add	r1, r1, r3, lsl #7
 3484 0090 C1F3C751 		ubfx	r1, r1, #23, #8
 3485 0094 EAE7     		b	.L247
 3486              	.LVL427:
 3487              	.L256:
 3488              		.loc 1 1234 12 view .LVU1187
 3489              	.LBE250:
 3490              	.LBE251:
1027:../../Middlewares/LVGL/GUI/lvgl/src/draw/sw/lv_draw_sw_mask.c **** }
 3491              		.loc 1 1027 12 view .LVU1188
 3492 0096 0220     		movs	r0, #2
 3493 0098 00E0     		b	.L242
 3494              	.LVL428:
 3495              	.L249:
1001:../../Middlewares/LVGL/GUI/lvgl/src/draw/sw/lv_draw_sw_mask.c ****     if(abs_y > p->cfg.coords.y2) return LV_DRAW_SW_MASK_RES_FULL_COVER;
 3496              		.loc 1 1001 41 discriminator 1 view .LVU1189
 3497 009a 0120     		movs	r0, #1
 3498              	.LVL429:
 3499              	.L242:
1028:../../Middlewares/LVGL/GUI/lvgl/src/draw/sw/lv_draw_sw_mask.c **** 
 3500              		.loc 1 1028 1 view .LVU1190
 3501 009c 02B0     		add	sp, sp, #8
 3502              	.LCFI16:
 3503              		.cfi_remember_state
 3504              		.cfi_def_cfa_offset 24
 3505              		@ sp needed
 3506 009e BDE8F081 		pop	{r4, r5, r6, r7, r8, pc}
 3507              	.LVL430:
 3508              	.L250:
 3509              	.LCFI17:
 3510              		.cfi_restore_state
1002:../../Middlewares/LVGL/GUI/lvgl/src/draw/sw/lv_draw_sw_mask.c ****     if(abs_x + len < p->cfg.coords.x1) return LV_DRAW_SW_MASK_RES_FULL_COVER;
 3511              		.loc 1 1002 41 discriminator 1 view .LVU1191
 3512 00a2 0120     		movs	r0, #1
 3513              	.LVL431:
1002:../../Middlewares/LVGL/GUI/lvgl/src/draw/sw/lv_draw_sw_mask.c ****     if(abs_x + len < p->cfg.coords.x1) return LV_DRAW_SW_MASK_RES_FULL_COVER;
 3514              		.loc 1 1002 41 discriminator 1 view .LVU1192
 3515 00a4 FAE7     		b	.L242
 3516              	.LVL432:
 3517              	.L251:
1003:../../Middlewares/LVGL/GUI/lvgl/src/draw/sw/lv_draw_sw_mask.c ****     if(abs_x > p->cfg.coords.x2) return LV_DRAW_SW_MASK_RES_FULL_COVER;
 3518              		.loc 1 1003 47 discriminator 1 view .LVU1193
 3519 00a6 0120     		movs	r0, #1
 3520              	.LVL433:
1003:../../Middlewares/LVGL/GUI/lvgl/src/draw/sw/lv_draw_sw_mask.c ****     if(abs_x > p->cfg.coords.x2) return LV_DRAW_SW_MASK_RES_FULL_COVER;
 3521              		.loc 1 1003 47 discriminator 1 view .LVU1194
 3522 00a8 F8E7     		b	.L242
 3523              		.cfi_endproc
 3524              	.LFE204:
 3526              		.section	.text.lv_draw_mask_radius,"ax",%progbits
 3527              		.align	1
 3528              		.syntax unified
 3529              		.thumb
 3530              		.thumb_func
ARM GAS  C:\Users\28576\AppData\Local\Temp\ccagJBpt.s 			page 104


 3532              	lv_draw_mask_radius:
 3533              	.LVL434:
 3534              	.LFB202:
 843:../../Middlewares/LVGL/GUI/lvgl/src/draw/sw/lv_draw_sw_mask.c ****     bool outer = p->cfg.outer;
 3535              		.loc 1 843 1 is_stmt 1 view -0
 3536              		.cfi_startproc
 3537              		@ args = 4, pretend = 0, frame = 24
 3538              		@ frame_needed = 0, uses_anonymous_args = 0
 843:../../Middlewares/LVGL/GUI/lvgl/src/draw/sw/lv_draw_sw_mask.c ****     bool outer = p->cfg.outer;
 3539              		.loc 1 843 1 is_stmt 0 view .LVU1196
 3540 0000 2DE9F04F 		push	{r4, r5, r6, r7, r8, r9, r10, fp, lr}
 3541              	.LCFI18:
 3542              		.cfi_def_cfa_offset 36
 3543              		.cfi_offset 4, -36
 3544              		.cfi_offset 5, -32
 3545              		.cfi_offset 6, -28
 3546              		.cfi_offset 7, -24
 3547              		.cfi_offset 8, -20
 3548              		.cfi_offset 9, -16
 3549              		.cfi_offset 10, -12
 3550              		.cfi_offset 11, -8
 3551              		.cfi_offset 14, -4
 3552 0004 87B0     		sub	sp, sp, #28
 3553              	.LCFI19:
 3554              		.cfi_def_cfa_offset 64
 3555 0006 0746     		mov	r7, r0
 3556 0008 8A46     		mov	r10, r1
 3557 000a 1546     		mov	r5, r2
 3558 000c 1E46     		mov	r6, r3
 3559 000e 109C     		ldr	r4, [sp, #64]
 844:../../Middlewares/LVGL/GUI/lvgl/src/draw/sw/lv_draw_sw_mask.c ****     int32_t radius = p->cfg.radius;
 3560              		.loc 1 844 5 is_stmt 1 view .LVU1197
 844:../../Middlewares/LVGL/GUI/lvgl/src/draw/sw/lv_draw_sw_mask.c ****     int32_t radius = p->cfg.radius;
 3561              		.loc 1 844 10 is_stmt 0 view .LVU1198
 3562 0010 207F     		ldrb	r0, [r4, #28]	@ zero_extendqisi2
 3563              	.LVL435:
 845:../../Middlewares/LVGL/GUI/lvgl/src/draw/sw/lv_draw_sw_mask.c ****     lv_area_t rect;
 3564              		.loc 1 845 5 is_stmt 1 view .LVU1199
 845:../../Middlewares/LVGL/GUI/lvgl/src/draw/sw/lv_draw_sw_mask.c ****     lv_area_t rect;
 3565              		.loc 1 845 13 is_stmt 0 view .LVU1200
 3566 0012 D4F81880 		ldr	r8, [r4, #24]
 3567              	.LVL436:
 846:../../Middlewares/LVGL/GUI/lvgl/src/draw/sw/lv_draw_sw_mask.c ****     lv_area_copy(&rect, &p->cfg.rect);
 3568              		.loc 1 846 5 is_stmt 1 view .LVU1201
 847:../../Middlewares/LVGL/GUI/lvgl/src/draw/sw/lv_draw_sw_mask.c **** 
 3569              		.loc 1 847 5 view .LVU1202
 3570              	.LBB252:
 3571              	.LBI252:
 3572              		.file 3 "../../Middlewares/LVGL/GUI/lvgl/src/draw/sw/../../misc/lv_area.h"
   1:../../Middlewares/LVGL/GUI/lvgl/src/draw/sw/../../misc/lv_area.h **** /**
   2:../../Middlewares/LVGL/GUI/lvgl/src/draw/sw/../../misc/lv_area.h ****  * @file lv_area.h
   3:../../Middlewares/LVGL/GUI/lvgl/src/draw/sw/../../misc/lv_area.h ****  *
   4:../../Middlewares/LVGL/GUI/lvgl/src/draw/sw/../../misc/lv_area.h ****  */
   5:../../Middlewares/LVGL/GUI/lvgl/src/draw/sw/../../misc/lv_area.h **** 
   6:../../Middlewares/LVGL/GUI/lvgl/src/draw/sw/../../misc/lv_area.h **** #ifndef LV_AREA_H
   7:../../Middlewares/LVGL/GUI/lvgl/src/draw/sw/../../misc/lv_area.h **** #define LV_AREA_H
   8:../../Middlewares/LVGL/GUI/lvgl/src/draw/sw/../../misc/lv_area.h **** 
ARM GAS  C:\Users\28576\AppData\Local\Temp\ccagJBpt.s 			page 105


   9:../../Middlewares/LVGL/GUI/lvgl/src/draw/sw/../../misc/lv_area.h **** #ifdef __cplusplus
  10:../../Middlewares/LVGL/GUI/lvgl/src/draw/sw/../../misc/lv_area.h **** extern "C" {
  11:../../Middlewares/LVGL/GUI/lvgl/src/draw/sw/../../misc/lv_area.h **** #endif
  12:../../Middlewares/LVGL/GUI/lvgl/src/draw/sw/../../misc/lv_area.h **** 
  13:../../Middlewares/LVGL/GUI/lvgl/src/draw/sw/../../misc/lv_area.h **** /*********************
  14:../../Middlewares/LVGL/GUI/lvgl/src/draw/sw/../../misc/lv_area.h ****  *      INCLUDES
  15:../../Middlewares/LVGL/GUI/lvgl/src/draw/sw/../../misc/lv_area.h ****  *********************/
  16:../../Middlewares/LVGL/GUI/lvgl/src/draw/sw/../../misc/lv_area.h **** #include "../lv_conf_internal.h"
  17:../../Middlewares/LVGL/GUI/lvgl/src/draw/sw/../../misc/lv_area.h **** #include "lv_types.h"
  18:../../Middlewares/LVGL/GUI/lvgl/src/draw/sw/../../misc/lv_area.h **** #include "lv_math.h"
  19:../../Middlewares/LVGL/GUI/lvgl/src/draw/sw/../../misc/lv_area.h **** 
  20:../../Middlewares/LVGL/GUI/lvgl/src/draw/sw/../../misc/lv_area.h **** /*********************
  21:../../Middlewares/LVGL/GUI/lvgl/src/draw/sw/../../misc/lv_area.h ****  *      DEFINES
  22:../../Middlewares/LVGL/GUI/lvgl/src/draw/sw/../../misc/lv_area.h ****  *********************/
  23:../../Middlewares/LVGL/GUI/lvgl/src/draw/sw/../../misc/lv_area.h **** 
  24:../../Middlewares/LVGL/GUI/lvgl/src/draw/sw/../../misc/lv_area.h **** /**********************
  25:../../Middlewares/LVGL/GUI/lvgl/src/draw/sw/../../misc/lv_area.h ****  *      TYPEDEFS
  26:../../Middlewares/LVGL/GUI/lvgl/src/draw/sw/../../misc/lv_area.h ****  **********************/
  27:../../Middlewares/LVGL/GUI/lvgl/src/draw/sw/../../misc/lv_area.h **** 
  28:../../Middlewares/LVGL/GUI/lvgl/src/draw/sw/../../misc/lv_area.h **** /**
  29:../../Middlewares/LVGL/GUI/lvgl/src/draw/sw/../../misc/lv_area.h ****  * Represents a point on the screen.
  30:../../Middlewares/LVGL/GUI/lvgl/src/draw/sw/../../misc/lv_area.h ****  */
  31:../../Middlewares/LVGL/GUI/lvgl/src/draw/sw/../../misc/lv_area.h **** typedef struct {
  32:../../Middlewares/LVGL/GUI/lvgl/src/draw/sw/../../misc/lv_area.h ****     int32_t x;
  33:../../Middlewares/LVGL/GUI/lvgl/src/draw/sw/../../misc/lv_area.h ****     int32_t y;
  34:../../Middlewares/LVGL/GUI/lvgl/src/draw/sw/../../misc/lv_area.h **** } lv_point_t;
  35:../../Middlewares/LVGL/GUI/lvgl/src/draw/sw/../../misc/lv_area.h **** 
  36:../../Middlewares/LVGL/GUI/lvgl/src/draw/sw/../../misc/lv_area.h **** typedef struct {
  37:../../Middlewares/LVGL/GUI/lvgl/src/draw/sw/../../misc/lv_area.h ****     lv_value_precise_t x;
  38:../../Middlewares/LVGL/GUI/lvgl/src/draw/sw/../../misc/lv_area.h ****     lv_value_precise_t y;
  39:../../Middlewares/LVGL/GUI/lvgl/src/draw/sw/../../misc/lv_area.h **** } lv_point_precise_t;
  40:../../Middlewares/LVGL/GUI/lvgl/src/draw/sw/../../misc/lv_area.h **** 
  41:../../Middlewares/LVGL/GUI/lvgl/src/draw/sw/../../misc/lv_area.h **** /** Represents an area of the screen.*/
  42:../../Middlewares/LVGL/GUI/lvgl/src/draw/sw/../../misc/lv_area.h **** typedef struct {
  43:../../Middlewares/LVGL/GUI/lvgl/src/draw/sw/../../misc/lv_area.h ****     int32_t x1;
  44:../../Middlewares/LVGL/GUI/lvgl/src/draw/sw/../../misc/lv_area.h ****     int32_t y1;
  45:../../Middlewares/LVGL/GUI/lvgl/src/draw/sw/../../misc/lv_area.h ****     int32_t x2;
  46:../../Middlewares/LVGL/GUI/lvgl/src/draw/sw/../../misc/lv_area.h ****     int32_t y2;
  47:../../Middlewares/LVGL/GUI/lvgl/src/draw/sw/../../misc/lv_area.h **** } lv_area_t;
  48:../../Middlewares/LVGL/GUI/lvgl/src/draw/sw/../../misc/lv_area.h **** 
  49:../../Middlewares/LVGL/GUI/lvgl/src/draw/sw/../../misc/lv_area.h **** /** Alignments*/
  50:../../Middlewares/LVGL/GUI/lvgl/src/draw/sw/../../misc/lv_area.h **** 
  51:../../Middlewares/LVGL/GUI/lvgl/src/draw/sw/../../misc/lv_area.h **** typedef enum {
  52:../../Middlewares/LVGL/GUI/lvgl/src/draw/sw/../../misc/lv_area.h ****     LV_ALIGN_DEFAULT = 0,
  53:../../Middlewares/LVGL/GUI/lvgl/src/draw/sw/../../misc/lv_area.h ****     LV_ALIGN_TOP_LEFT,
  54:../../Middlewares/LVGL/GUI/lvgl/src/draw/sw/../../misc/lv_area.h ****     LV_ALIGN_TOP_MID,
  55:../../Middlewares/LVGL/GUI/lvgl/src/draw/sw/../../misc/lv_area.h ****     LV_ALIGN_TOP_RIGHT,
  56:../../Middlewares/LVGL/GUI/lvgl/src/draw/sw/../../misc/lv_area.h ****     LV_ALIGN_BOTTOM_LEFT,
  57:../../Middlewares/LVGL/GUI/lvgl/src/draw/sw/../../misc/lv_area.h ****     LV_ALIGN_BOTTOM_MID,
  58:../../Middlewares/LVGL/GUI/lvgl/src/draw/sw/../../misc/lv_area.h ****     LV_ALIGN_BOTTOM_RIGHT,
  59:../../Middlewares/LVGL/GUI/lvgl/src/draw/sw/../../misc/lv_area.h ****     LV_ALIGN_LEFT_MID,
  60:../../Middlewares/LVGL/GUI/lvgl/src/draw/sw/../../misc/lv_area.h ****     LV_ALIGN_RIGHT_MID,
  61:../../Middlewares/LVGL/GUI/lvgl/src/draw/sw/../../misc/lv_area.h ****     LV_ALIGN_CENTER,
  62:../../Middlewares/LVGL/GUI/lvgl/src/draw/sw/../../misc/lv_area.h **** 
  63:../../Middlewares/LVGL/GUI/lvgl/src/draw/sw/../../misc/lv_area.h ****     LV_ALIGN_OUT_TOP_LEFT,
  64:../../Middlewares/LVGL/GUI/lvgl/src/draw/sw/../../misc/lv_area.h ****     LV_ALIGN_OUT_TOP_MID,
  65:../../Middlewares/LVGL/GUI/lvgl/src/draw/sw/../../misc/lv_area.h ****     LV_ALIGN_OUT_TOP_RIGHT,
ARM GAS  C:\Users\28576\AppData\Local\Temp\ccagJBpt.s 			page 106


  66:../../Middlewares/LVGL/GUI/lvgl/src/draw/sw/../../misc/lv_area.h ****     LV_ALIGN_OUT_BOTTOM_LEFT,
  67:../../Middlewares/LVGL/GUI/lvgl/src/draw/sw/../../misc/lv_area.h ****     LV_ALIGN_OUT_BOTTOM_MID,
  68:../../Middlewares/LVGL/GUI/lvgl/src/draw/sw/../../misc/lv_area.h ****     LV_ALIGN_OUT_BOTTOM_RIGHT,
  69:../../Middlewares/LVGL/GUI/lvgl/src/draw/sw/../../misc/lv_area.h ****     LV_ALIGN_OUT_LEFT_TOP,
  70:../../Middlewares/LVGL/GUI/lvgl/src/draw/sw/../../misc/lv_area.h ****     LV_ALIGN_OUT_LEFT_MID,
  71:../../Middlewares/LVGL/GUI/lvgl/src/draw/sw/../../misc/lv_area.h ****     LV_ALIGN_OUT_LEFT_BOTTOM,
  72:../../Middlewares/LVGL/GUI/lvgl/src/draw/sw/../../misc/lv_area.h ****     LV_ALIGN_OUT_RIGHT_TOP,
  73:../../Middlewares/LVGL/GUI/lvgl/src/draw/sw/../../misc/lv_area.h ****     LV_ALIGN_OUT_RIGHT_MID,
  74:../../Middlewares/LVGL/GUI/lvgl/src/draw/sw/../../misc/lv_area.h ****     LV_ALIGN_OUT_RIGHT_BOTTOM,
  75:../../Middlewares/LVGL/GUI/lvgl/src/draw/sw/../../misc/lv_area.h **** } lv_align_t;
  76:../../Middlewares/LVGL/GUI/lvgl/src/draw/sw/../../misc/lv_area.h **** 
  77:../../Middlewares/LVGL/GUI/lvgl/src/draw/sw/../../misc/lv_area.h **** typedef enum {
  78:../../Middlewares/LVGL/GUI/lvgl/src/draw/sw/../../misc/lv_area.h ****     LV_DIR_NONE     = 0x00,
  79:../../Middlewares/LVGL/GUI/lvgl/src/draw/sw/../../misc/lv_area.h ****     LV_DIR_LEFT     = (1 << 0),
  80:../../Middlewares/LVGL/GUI/lvgl/src/draw/sw/../../misc/lv_area.h ****     LV_DIR_RIGHT    = (1 << 1),
  81:../../Middlewares/LVGL/GUI/lvgl/src/draw/sw/../../misc/lv_area.h ****     LV_DIR_TOP      = (1 << 2),
  82:../../Middlewares/LVGL/GUI/lvgl/src/draw/sw/../../misc/lv_area.h ****     LV_DIR_BOTTOM   = (1 << 3),
  83:../../Middlewares/LVGL/GUI/lvgl/src/draw/sw/../../misc/lv_area.h ****     LV_DIR_HOR      = LV_DIR_LEFT | LV_DIR_RIGHT,
  84:../../Middlewares/LVGL/GUI/lvgl/src/draw/sw/../../misc/lv_area.h ****     LV_DIR_VER      = LV_DIR_TOP | LV_DIR_BOTTOM,
  85:../../Middlewares/LVGL/GUI/lvgl/src/draw/sw/../../misc/lv_area.h ****     LV_DIR_ALL      = LV_DIR_HOR | LV_DIR_VER,
  86:../../Middlewares/LVGL/GUI/lvgl/src/draw/sw/../../misc/lv_area.h **** } lv_dir_t;
  87:../../Middlewares/LVGL/GUI/lvgl/src/draw/sw/../../misc/lv_area.h **** 
  88:../../Middlewares/LVGL/GUI/lvgl/src/draw/sw/../../misc/lv_area.h **** /**********************
  89:../../Middlewares/LVGL/GUI/lvgl/src/draw/sw/../../misc/lv_area.h ****  * GLOBAL PROTOTYPES
  90:../../Middlewares/LVGL/GUI/lvgl/src/draw/sw/../../misc/lv_area.h ****  **********************/
  91:../../Middlewares/LVGL/GUI/lvgl/src/draw/sw/../../misc/lv_area.h **** 
  92:../../Middlewares/LVGL/GUI/lvgl/src/draw/sw/../../misc/lv_area.h **** /**
  93:../../Middlewares/LVGL/GUI/lvgl/src/draw/sw/../../misc/lv_area.h ****  * Initialize an area
  94:../../Middlewares/LVGL/GUI/lvgl/src/draw/sw/../../misc/lv_area.h ****  * @param area_p pointer to an area
  95:../../Middlewares/LVGL/GUI/lvgl/src/draw/sw/../../misc/lv_area.h ****  * @param x1 left coordinate of the area
  96:../../Middlewares/LVGL/GUI/lvgl/src/draw/sw/../../misc/lv_area.h ****  * @param y1 top coordinate of the area
  97:../../Middlewares/LVGL/GUI/lvgl/src/draw/sw/../../misc/lv_area.h ****  * @param x2 right coordinate of the area
  98:../../Middlewares/LVGL/GUI/lvgl/src/draw/sw/../../misc/lv_area.h ****  * @param y2 bottom coordinate of the area
  99:../../Middlewares/LVGL/GUI/lvgl/src/draw/sw/../../misc/lv_area.h ****  */
 100:../../Middlewares/LVGL/GUI/lvgl/src/draw/sw/../../misc/lv_area.h **** void lv_area_set(lv_area_t * area_p, int32_t x1, int32_t y1, int32_t x2, int32_t y2);
 101:../../Middlewares/LVGL/GUI/lvgl/src/draw/sw/../../misc/lv_area.h **** 
 102:../../Middlewares/LVGL/GUI/lvgl/src/draw/sw/../../misc/lv_area.h **** /**
 103:../../Middlewares/LVGL/GUI/lvgl/src/draw/sw/../../misc/lv_area.h ****  * Copy an area
 104:../../Middlewares/LVGL/GUI/lvgl/src/draw/sw/../../misc/lv_area.h ****  * @param dest pointer to the destination area
 105:../../Middlewares/LVGL/GUI/lvgl/src/draw/sw/../../misc/lv_area.h ****  * @param src pointer to the source area
 106:../../Middlewares/LVGL/GUI/lvgl/src/draw/sw/../../misc/lv_area.h ****  */
 107:../../Middlewares/LVGL/GUI/lvgl/src/draw/sw/../../misc/lv_area.h **** inline static void lv_area_copy(lv_area_t * dest, const lv_area_t * src)
 3573              		.loc 3 107 20 view .LVU1203
 3574              	.LBB253:
 108:../../Middlewares/LVGL/GUI/lvgl/src/draw/sw/../../misc/lv_area.h **** {
 109:../../Middlewares/LVGL/GUI/lvgl/src/draw/sw/../../misc/lv_area.h ****     dest->x1 = src->x1;
 3575              		.loc 3 109 5 view .LVU1204
 3576              		.loc 3 109 19 is_stmt 0 view .LVU1205
 3577 0016 D4F80890 		ldr	r9, [r4, #8]
 3578              		.loc 3 109 14 view .LVU1206
 3579 001a CDF80890 		str	r9, [sp, #8]
 110:../../Middlewares/LVGL/GUI/lvgl/src/draw/sw/../../misc/lv_area.h ****     dest->y1 = src->y1;
 3580              		.loc 3 110 5 is_stmt 1 view .LVU1207
 3581              		.loc 3 110 19 is_stmt 0 view .LVU1208
 3582 001e E368     		ldr	r3, [r4, #12]
 3583              	.LVL437:
 3584              		.loc 3 110 14 view .LVU1209
ARM GAS  C:\Users\28576\AppData\Local\Temp\ccagJBpt.s 			page 107


 3585 0020 0393     		str	r3, [sp, #12]
 111:../../Middlewares/LVGL/GUI/lvgl/src/draw/sw/../../misc/lv_area.h ****     dest->x2 = src->x2;
 3586              		.loc 3 111 5 is_stmt 1 view .LVU1210
 3587              		.loc 3 111 19 is_stmt 0 view .LVU1211
 3588 0022 D4F810C0 		ldr	ip, [r4, #16]
 3589              		.loc 3 111 14 view .LVU1212
 3590 0026 CDF810C0 		str	ip, [sp, #16]
 112:../../Middlewares/LVGL/GUI/lvgl/src/draw/sw/../../misc/lv_area.h ****     dest->y2 = src->y2;
 3591              		.loc 3 112 5 is_stmt 1 view .LVU1213
 3592              		.loc 3 112 19 is_stmt 0 view .LVU1214
 3593 002a 6169     		ldr	r1, [r4, #20]
 3594              	.LVL438:
 3595              		.loc 3 112 14 view .LVU1215
 3596 002c 0591     		str	r1, [sp, #20]
 3597              	.LVL439:
 3598              		.loc 3 112 14 view .LVU1216
 3599              	.LBE253:
 3600              	.LBE252:
 849:../../Middlewares/LVGL/GUI/lvgl/src/draw/sw/lv_draw_sw_mask.c ****         if((abs_y < rect.y1 || abs_y > rect.y2)) {
 3601              		.loc 1 849 5 is_stmt 1 view .LVU1217
 849:../../Middlewares/LVGL/GUI/lvgl/src/draw/sw/lv_draw_sw_mask.c ****         if((abs_y < rect.y1 || abs_y > rect.y2)) {
 3602              		.loc 1 849 7 is_stmt 0 view .LVU1218
 3603 002e 10F00100 		ands	r0, r0, #1
 3604              	.LVL440:
 849:../../Middlewares/LVGL/GUI/lvgl/src/draw/sw/lv_draw_sw_mask.c ****         if((abs_y < rect.y1 || abs_y > rect.y2)) {
 3605              		.loc 1 849 7 view .LVU1219
 3606 0032 8346     		mov	fp, r0
 3607 0034 2FD1     		bne	.L258
 850:../../Middlewares/LVGL/GUI/lvgl/src/draw/sw/lv_draw_sw_mask.c ****             return LV_DRAW_SW_MASK_RES_TRANSP;
 3608              		.loc 1 850 9 is_stmt 1 view .LVU1220
 850:../../Middlewares/LVGL/GUI/lvgl/src/draw/sw/lv_draw_sw_mask.c ****             return LV_DRAW_SW_MASK_RES_TRANSP;
 3609              		.loc 1 850 11 is_stmt 0 view .LVU1221
 3610 0036 9A42     		cmp	r2, r3
 3611 0038 C0F21E81 		blt	.L288
 850:../../Middlewares/LVGL/GUI/lvgl/src/draw/sw/lv_draw_sw_mask.c ****             return LV_DRAW_SW_MASK_RES_TRANSP;
 3612              		.loc 1 850 29 discriminator 1 view .LVU1222
 3613 003c 8A42     		cmp	r2, r1
 3614 003e 00F31F81 		bgt	.L305
 3615              	.L260:
 860:../../Middlewares/LVGL/GUI/lvgl/src/draw/sw/lv_draw_sw_mask.c ****        (abs_y >= rect.y1 + radius && abs_y <= rect.y2 - radius)) {
 3616              		.loc 1 860 5 is_stmt 1 view .LVU1223
 860:../../Middlewares/LVGL/GUI/lvgl/src/draw/sw/lv_draw_sw_mask.c ****        (abs_y >= rect.y1 + radius && abs_y <= rect.y2 - radius)) {
 3617              		.loc 1 860 26 is_stmt 0 view .LVU1224
 3618 0042 08EB0900 		add	r0, r8, r9
 860:../../Middlewares/LVGL/GUI/lvgl/src/draw/sw/lv_draw_sw_mask.c ****        (abs_y >= rect.y1 + radius && abs_y <= rect.y2 - radius)) {
 3619              		.loc 1 860 7 view .LVU1225
 3620 0046 5246     		mov	r2, r10
 3621              	.LVL441:
 860:../../Middlewares/LVGL/GUI/lvgl/src/draw/sw/lv_draw_sw_mask.c ****        (abs_y >= rect.y1 + radius && abs_y <= rect.y2 - radius)) {
 3622              		.loc 1 860 7 view .LVU1226
 3623 0048 5045     		cmp	r0, r10
 3624 004a 04DC     		bgt	.L261
 3625              	.LVL442:
 860:../../Middlewares/LVGL/GUI/lvgl/src/draw/sw/lv_draw_sw_mask.c ****        (abs_y >= rect.y1 + radius && abs_y <= rect.y2 - radius)) {
 3626              		.loc 1 860 44 discriminator 1 view .LVU1227
 3627 004c 9019     		adds	r0, r2, r6
 860:../../Middlewares/LVGL/GUI/lvgl/src/draw/sw/lv_draw_sw_mask.c ****        (abs_y >= rect.y1 + radius && abs_y <= rect.y2 - radius)) {
ARM GAS  C:\Users\28576\AppData\Local\Temp\ccagJBpt.s 			page 108


 3628              		.loc 1 860 61 discriminator 1 view .LVU1228
 3629 004e ACEB080E 		sub	lr, ip, r8
 860:../../Middlewares/LVGL/GUI/lvgl/src/draw/sw/lv_draw_sw_mask.c ****        (abs_y >= rect.y1 + radius && abs_y <= rect.y2 - radius)) {
 3630              		.loc 1 860 35 discriminator 1 view .LVU1229
 3631 0052 7045     		cmp	r0, lr
 3632 0054 06DD     		ble	.L262
 3633              	.L261:
 861:../../Middlewares/LVGL/GUI/lvgl/src/draw/sw/lv_draw_sw_mask.c ****         if(outer == false) {
 3634              		.loc 1 861 26 view .LVU1230
 3635 0056 4344     		add	r3, r3, r8
 860:../../Middlewares/LVGL/GUI/lvgl/src/draw/sw/lv_draw_sw_mask.c ****        (abs_y >= rect.y1 + radius && abs_y <= rect.y2 - radius)) {
 3636              		.loc 1 860 71 discriminator 3 view .LVU1231
 3637 0058 AB42     		cmp	r3, r5
 3638 005a 47DC     		bgt	.L263
 861:../../Middlewares/LVGL/GUI/lvgl/src/draw/sw/lv_draw_sw_mask.c ****         if(outer == false) {
 3639              		.loc 1 861 55 view .LVU1232
 3640 005c A1EB0801 		sub	r1, r1, r8
 861:../../Middlewares/LVGL/GUI/lvgl/src/draw/sw/lv_draw_sw_mask.c ****         if(outer == false) {
 3641              		.loc 1 861 35 view .LVU1233
 3642 0060 A942     		cmp	r1, r5
 3643 0062 43DB     		blt	.L263
 3644              	.L262:
 862:../../Middlewares/LVGL/GUI/lvgl/src/draw/sw/lv_draw_sw_mask.c ****             /*Remove the edges*/
 3645              		.loc 1 862 9 is_stmt 1 view .LVU1234
 862:../../Middlewares/LVGL/GUI/lvgl/src/draw/sw/lv_draw_sw_mask.c ****             /*Remove the edges*/
 3646              		.loc 1 862 11 is_stmt 0 view .LVU1235
 3647 0064 5B46     		mov	r3, fp
 3648 0066 4BBB     		cbnz	r3, .L264
 3649              	.LBB254:
 864:../../Middlewares/LVGL/GUI/lvgl/src/draw/sw/lv_draw_sw_mask.c ****             if(last > len) return LV_DRAW_SW_MASK_RES_TRANSP;
 3650              		.loc 1 864 13 is_stmt 1 view .LVU1236
 864:../../Middlewares/LVGL/GUI/lvgl/src/draw/sw/lv_draw_sw_mask.c ****             if(last > len) return LV_DRAW_SW_MASK_RES_TRANSP;
 3651              		.loc 1 864 21 is_stmt 0 view .LVU1237
 3652 0068 A9EB0A05 		sub	r5, r9, r10
 3653              	.LVL443:
 865:../../Middlewares/LVGL/GUI/lvgl/src/draw/sw/lv_draw_sw_mask.c ****             if(last >= 0) {
 3654              		.loc 1 865 13 is_stmt 1 view .LVU1238
 865:../../Middlewares/LVGL/GUI/lvgl/src/draw/sw/lv_draw_sw_mask.c ****             if(last >= 0) {
 3655              		.loc 1 865 15 is_stmt 0 view .LVU1239
 3656 006c AE42     		cmp	r6, r5
 3657 006e C0F20B81 		blt	.L292
 866:../../Middlewares/LVGL/GUI/lvgl/src/draw/sw/lv_draw_sw_mask.c ****                 lv_memzero(&mask_buf[0], last);
 3658              		.loc 1 866 13 is_stmt 1 view .LVU1240
 866:../../Middlewares/LVGL/GUI/lvgl/src/draw/sw/lv_draw_sw_mask.c ****                 lv_memzero(&mask_buf[0], last);
 3659              		.loc 1 866 15 is_stmt 0 view .LVU1241
 3660 0072 002D     		cmp	r5, #0
 3661 0074 16DA     		bge	.L306
 3662              	.LVL444:
 3663              	.L265:
 870:../../Middlewares/LVGL/GUI/lvgl/src/draw/sw/lv_draw_sw_mask.c ****             if(first <= 0) return LV_DRAW_SW_MASK_RES_TRANSP;
 3664              		.loc 1 870 13 is_stmt 1 view .LVU1242
 870:../../Middlewares/LVGL/GUI/lvgl/src/draw/sw/lv_draw_sw_mask.c ****             if(first <= 0) return LV_DRAW_SW_MASK_RES_TRANSP;
 3665              		.loc 1 870 33 is_stmt 0 view .LVU1243
 3666 0076 049C     		ldr	r4, [sp, #16]
 870:../../Middlewares/LVGL/GUI/lvgl/src/draw/sw/lv_draw_sw_mask.c ****             if(first <= 0) return LV_DRAW_SW_MASK_RES_TRANSP;
 3667              		.loc 1 870 37 view .LVU1244
 3668 0078 5346     		mov	r3, r10
ARM GAS  C:\Users\28576\AppData\Local\Temp\ccagJBpt.s 			page 109


 3669 007a E41A     		subs	r4, r4, r3
 870:../../Middlewares/LVGL/GUI/lvgl/src/draw/sw/lv_draw_sw_mask.c ****             if(first <= 0) return LV_DRAW_SW_MASK_RES_TRANSP;
 3670              		.loc 1 870 21 view .LVU1245
 3671 007c 0134     		adds	r4, r4, #1
 3672              	.LVL445:
 871:../../Middlewares/LVGL/GUI/lvgl/src/draw/sw/lv_draw_sw_mask.c ****             else if(first < len) {
 3673              		.loc 1 871 13 is_stmt 1 view .LVU1246
 871:../../Middlewares/LVGL/GUI/lvgl/src/draw/sw/lv_draw_sw_mask.c ****             else if(first < len) {
 3674              		.loc 1 871 15 is_stmt 0 view .LVU1247
 3675 007e 002C     		cmp	r4, #0
 3676 0080 40F30481 		ble	.L293
 3677              	.LVL446:
 872:../../Middlewares/LVGL/GUI/lvgl/src/draw/sw/lv_draw_sw_mask.c ****                 lv_memzero(&mask_buf[first], len - first);
 3678              		.loc 1 872 18 is_stmt 1 view .LVU1248
 872:../../Middlewares/LVGL/GUI/lvgl/src/draw/sw/lv_draw_sw_mask.c ****                 lv_memzero(&mask_buf[first], len - first);
 3679              		.loc 1 872 20 is_stmt 0 view .LVU1249
 3680 0084 A642     		cmp	r6, r4
 3681 0086 13DC     		bgt	.L307
 3682              	.LVL447:
 3683              	.L266:
 875:../../Middlewares/LVGL/GUI/lvgl/src/draw/sw/lv_draw_sw_mask.c ****             else return LV_DRAW_SW_MASK_RES_CHANGED;
 3684              		.loc 1 875 13 is_stmt 1 view .LVU1250
 875:../../Middlewares/LVGL/GUI/lvgl/src/draw/sw/lv_draw_sw_mask.c ****             else return LV_DRAW_SW_MASK_RES_CHANGED;
 3685              		.loc 1 875 15 is_stmt 0 view .LVU1251
 3686 0088 002D     		cmp	r5, #0
 3687 008a 08BF     		it	eq
 3688 008c A642     		cmpeq	r6, r4
 3689 008e 40F0FF80 		bne	.L294
 875:../../Middlewares/LVGL/GUI/lvgl/src/draw/sw/lv_draw_sw_mask.c ****             else return LV_DRAW_SW_MASK_RES_CHANGED;
 3690              		.loc 1 875 50 discriminator 1 view .LVU1252
 3691 0092 0120     		movs	r0, #1
 3692 0094 F1E0     		b	.L259
 3693              	.LVL448:
 3694              	.L258:
 875:../../Middlewares/LVGL/GUI/lvgl/src/draw/sw/lv_draw_sw_mask.c ****             else return LV_DRAW_SW_MASK_RES_CHANGED;
 3695              		.loc 1 875 50 discriminator 1 view .LVU1253
 3696              	.LBE254:
 855:../../Middlewares/LVGL/GUI/lvgl/src/draw/sw/lv_draw_sw_mask.c ****             return LV_DRAW_SW_MASK_RES_FULL_COVER;
 3697              		.loc 1 855 9 is_stmt 1 view .LVU1254
 855:../../Middlewares/LVGL/GUI/lvgl/src/draw/sw/lv_draw_sw_mask.c ****             return LV_DRAW_SW_MASK_RES_FULL_COVER;
 3698              		.loc 1 855 11 is_stmt 0 view .LVU1255
 3699 0096 9A42     		cmp	r2, r3
 3700 0098 C0F2F480 		blt	.L290
 855:../../Middlewares/LVGL/GUI/lvgl/src/draw/sw/lv_draw_sw_mask.c ****             return LV_DRAW_SW_MASK_RES_FULL_COVER;
 3701              		.loc 1 855 28 discriminator 1 view .LVU1256
 3702 009c 8A42     		cmp	r2, r1
 3703 009e D0DD     		ble	.L260
 856:../../Middlewares/LVGL/GUI/lvgl/src/draw/sw/lv_draw_sw_mask.c ****         }
 3704              		.loc 1 856 20 view .LVU1257
 3705 00a0 0120     		movs	r0, #1
 3706 00a2 EAE0     		b	.L259
 3707              	.LVL449:
 3708              	.L306:
 3709              	.LBB259:
 867:../../Middlewares/LVGL/GUI/lvgl/src/draw/sw/lv_draw_sw_mask.c ****             }
 3710              		.loc 1 867 17 is_stmt 1 view .LVU1258
 3711              	.LBB255:
ARM GAS  C:\Users\28576\AppData\Local\Temp\ccagJBpt.s 			page 110


 3712              	.LBI255:
  73:H:/STM32H7/RGB_LVGL/Middlewares/LVGL/GUI/lvgl/src/stdlib\lv_string.h **** {
 3713              		.loc 2 73 20 view .LVU1259
 3714              	.LBB256:
  75:H:/STM32H7/RGB_LVGL/Middlewares/LVGL/GUI/lvgl/src/stdlib\lv_string.h **** }
 3715              		.loc 2 75 5 view .LVU1260
 3716 00a4 2A46     		mov	r2, r5
 3717              	.LVL450:
  75:H:/STM32H7/RGB_LVGL/Middlewares/LVGL/GUI/lvgl/src/stdlib\lv_string.h **** }
 3718              		.loc 2 75 5 is_stmt 0 view .LVU1261
 3719 00a6 0021     		movs	r1, #0
 3720 00a8 3846     		mov	r0, r7
 3721 00aa FFF7FEFF 		bl	lv_memset
 3722              	.LVL451:
 3723              		.loc 2 76 1 view .LVU1262
 3724 00ae E2E7     		b	.L265
 3725              	.LVL452:
 3726              	.L307:
 3727              		.loc 2 76 1 view .LVU1263
 3728              	.LBE256:
 3729              	.LBE255:
 873:../../Middlewares/LVGL/GUI/lvgl/src/draw/sw/lv_draw_sw_mask.c ****             }
 3730              		.loc 1 873 17 is_stmt 1 view .LVU1264
 3731              	.LBB257:
 3732              	.LBI257:
  73:H:/STM32H7/RGB_LVGL/Middlewares/LVGL/GUI/lvgl/src/stdlib\lv_string.h **** {
 3733              		.loc 2 73 20 view .LVU1265
 3734              	.LBB258:
  75:H:/STM32H7/RGB_LVGL/Middlewares/LVGL/GUI/lvgl/src/stdlib\lv_string.h **** }
 3735              		.loc 2 75 5 view .LVU1266
 3736 00b0 321B     		subs	r2, r6, r4
 3737              	.LVL453:
  75:H:/STM32H7/RGB_LVGL/Middlewares/LVGL/GUI/lvgl/src/stdlib\lv_string.h **** }
 3738              		.loc 2 75 5 is_stmt 0 view .LVU1267
 3739 00b2 0021     		movs	r1, #0
 3740 00b4 3819     		adds	r0, r7, r4
 3741              	.LVL454:
  75:H:/STM32H7/RGB_LVGL/Middlewares/LVGL/GUI/lvgl/src/stdlib\lv_string.h **** }
 3742              		.loc 2 75 5 view .LVU1268
 3743 00b6 FFF7FEFF 		bl	lv_memset
 3744              	.LVL455:
 3745              		.loc 2 76 1 view .LVU1269
 3746 00ba E5E7     		b	.L266
 3747              	.LVL456:
 3748              	.L264:
 3749              		.loc 2 76 1 view .LVU1270
 3750              	.LBE258:
 3751              	.LBE257:
 3752              	.LBE259:
 3753              	.LBB260:
 879:../../Middlewares/LVGL/GUI/lvgl/src/draw/sw/lv_draw_sw_mask.c ****             if(first < 0) first = 0;
 3754              		.loc 1 879 13 is_stmt 1 view .LVU1271
 880:../../Middlewares/LVGL/GUI/lvgl/src/draw/sw/lv_draw_sw_mask.c ****             if(first <= len) {
 3755              		.loc 1 880 13 view .LVU1272
 880:../../Middlewares/LVGL/GUI/lvgl/src/draw/sw/lv_draw_sw_mask.c ****             if(first <= len) {
 3756              		.loc 1 880 15 is_stmt 0 view .LVU1273
 3757 00bc B9EB0A00 		subs	r0, r9, r10
ARM GAS  C:\Users\28576\AppData\Local\Temp\ccagJBpt.s 			page 111


 3758              	.LVL457:
 880:../../Middlewares/LVGL/GUI/lvgl/src/draw/sw/lv_draw_sw_mask.c ****             if(first <= len) {
 3759              		.loc 1 880 15 view .LVU1274
 3760 00c0 0DD4     		bmi	.L308
 3761              	.LVL458:
 3762              	.L267:
 881:../../Middlewares/LVGL/GUI/lvgl/src/draw/sw/lv_draw_sw_mask.c ****                 int32_t last = rect.x2 - abs_x - first + 1;
 3763              		.loc 1 881 13 is_stmt 1 view .LVU1275
 881:../../Middlewares/LVGL/GUI/lvgl/src/draw/sw/lv_draw_sw_mask.c ****                 int32_t last = rect.x2 - abs_x - first + 1;
 3764              		.loc 1 881 15 is_stmt 0 view .LVU1276
 3765 00c2 B042     		cmp	r0, r6
 3766 00c4 09DC     		bgt	.L268
 3767              	.LBB261:
 882:../../Middlewares/LVGL/GUI/lvgl/src/draw/sw/lv_draw_sw_mask.c ****                 if(first + last > len) last = len - first;
 3768              		.loc 1 882 17 is_stmt 1 view .LVU1277
 882:../../Middlewares/LVGL/GUI/lvgl/src/draw/sw/lv_draw_sw_mask.c ****                 if(first + last > len) last = len - first;
 3769              		.loc 1 882 40 is_stmt 0 view .LVU1278
 3770 00c6 ACEB0A02 		sub	r2, ip, r10
 3771              	.LVL459:
 882:../../Middlewares/LVGL/GUI/lvgl/src/draw/sw/lv_draw_sw_mask.c ****                 if(first + last > len) last = len - first;
 3772              		.loc 1 882 48 view .LVU1279
 3773 00ca 121A     		subs	r2, r2, r0
 882:../../Middlewares/LVGL/GUI/lvgl/src/draw/sw/lv_draw_sw_mask.c ****                 if(first + last > len) last = len - first;
 3774              		.loc 1 882 25 view .LVU1280
 3775 00cc 0132     		adds	r2, r2, #1
 3776              	.LVL460:
 883:../../Middlewares/LVGL/GUI/lvgl/src/draw/sw/lv_draw_sw_mask.c ****                 if(last >= 0) {
 3777              		.loc 1 883 17 is_stmt 1 view .LVU1281
 883:../../Middlewares/LVGL/GUI/lvgl/src/draw/sw/lv_draw_sw_mask.c ****                 if(last >= 0) {
 3778              		.loc 1 883 26 is_stmt 0 view .LVU1282
 3779 00ce 8318     		adds	r3, r0, r2
 883:../../Middlewares/LVGL/GUI/lvgl/src/draw/sw/lv_draw_sw_mask.c ****                 if(last >= 0) {
 3780              		.loc 1 883 19 view .LVU1283
 3781 00d0 B342     		cmp	r3, r6
 3782 00d2 00DD     		ble	.L269
 883:../../Middlewares/LVGL/GUI/lvgl/src/draw/sw/lv_draw_sw_mask.c ****                 if(last >= 0) {
 3783              		.loc 1 883 40 is_stmt 1 discriminator 1 view .LVU1284
 883:../../Middlewares/LVGL/GUI/lvgl/src/draw/sw/lv_draw_sw_mask.c ****                 if(last >= 0) {
 3784              		.loc 1 883 45 is_stmt 0 discriminator 1 view .LVU1285
 3785 00d4 321A     		subs	r2, r6, r0
 3786              	.LVL461:
 3787              	.L269:
 884:../../Middlewares/LVGL/GUI/lvgl/src/draw/sw/lv_draw_sw_mask.c ****                     lv_memzero(&mask_buf[first], last);
 3788              		.loc 1 884 17 is_stmt 1 view .LVU1286
 884:../../Middlewares/LVGL/GUI/lvgl/src/draw/sw/lv_draw_sw_mask.c ****                     lv_memzero(&mask_buf[first], last);
 3789              		.loc 1 884 19 is_stmt 0 view .LVU1287
 3790 00d6 002A     		cmp	r2, #0
 3791 00d8 03DA     		bge	.L309
 3792              	.LVL462:
 3793              	.L268:
 884:../../Middlewares/LVGL/GUI/lvgl/src/draw/sw/lv_draw_sw_mask.c ****                     lv_memzero(&mask_buf[first], last);
 3794              		.loc 1 884 19 view .LVU1288
 3795              	.LBE261:
 3796              	.LBE260:
 889:../../Middlewares/LVGL/GUI/lvgl/src/draw/sw/lv_draw_sw_mask.c ****     }
 3797              		.loc 1 889 9 is_stmt 1 view .LVU1289
 889:../../Middlewares/LVGL/GUI/lvgl/src/draw/sw/lv_draw_sw_mask.c ****     }
ARM GAS  C:\Users\28576\AppData\Local\Temp\ccagJBpt.s 			page 112


 3798              		.loc 1 889 16 is_stmt 0 view .LVU1290
 3799 00da 0220     		movs	r0, #2
 3800 00dc CDE0     		b	.L259
 3801              	.LVL463:
 3802              	.L308:
 3803              	.LBB265:
 880:../../Middlewares/LVGL/GUI/lvgl/src/draw/sw/lv_draw_sw_mask.c ****             if(first <= len) {
 3804              		.loc 1 880 33 discriminator 1 view .LVU1291
 3805 00de 0020     		movs	r0, #0
 3806              	.LVL464:
 880:../../Middlewares/LVGL/GUI/lvgl/src/draw/sw/lv_draw_sw_mask.c ****             if(first <= len) {
 3807              		.loc 1 880 33 discriminator 1 view .LVU1292
 3808 00e0 EFE7     		b	.L267
 3809              	.LVL465:
 3810              	.L309:
 3811              	.LBB264:
 885:../../Middlewares/LVGL/GUI/lvgl/src/draw/sw/lv_draw_sw_mask.c ****                 }
 3812              		.loc 1 885 21 is_stmt 1 view .LVU1293
 3813              	.LBB262:
 3814              	.LBI262:
  73:H:/STM32H7/RGB_LVGL/Middlewares/LVGL/GUI/lvgl/src/stdlib\lv_string.h **** {
 3815              		.loc 2 73 20 view .LVU1294
 3816              	.LBB263:
  75:H:/STM32H7/RGB_LVGL/Middlewares/LVGL/GUI/lvgl/src/stdlib\lv_string.h **** }
 3817              		.loc 2 75 5 view .LVU1295
 3818 00e2 0021     		movs	r1, #0
 3819 00e4 3844     		add	r0, r0, r7
 3820              	.LVL466:
  75:H:/STM32H7/RGB_LVGL/Middlewares/LVGL/GUI/lvgl/src/stdlib\lv_string.h **** }
 3821              		.loc 2 75 5 is_stmt 0 view .LVU1296
 3822 00e6 FFF7FEFF 		bl	lv_memset
 3823              	.LVL467:
 3824              		.loc 2 76 1 view .LVU1297
 3825 00ea F6E7     		b	.L268
 3826              	.LVL468:
 3827              	.L263:
 3828              		.loc 2 76 1 view .LVU1298
 3829              	.LBE263:
 3830              	.LBE262:
 3831              	.LBE264:
 3832              	.LBE265:
 892:../../Middlewares/LVGL/GUI/lvgl/src/draw/sw/lv_draw_sw_mask.c ****     int32_t w = lv_area_get_width(&rect);
 3833              		.loc 1 892 5 is_stmt 1 view .LVU1299
 892:../../Middlewares/LVGL/GUI/lvgl/src/draw/sw/lv_draw_sw_mask.c ****     int32_t w = lv_area_get_width(&rect);
 3834              		.loc 1 892 13 is_stmt 0 view .LVU1300
 3835 00ec A9EB0A03 		sub	r3, r9, r10
 3836 00f0 9946     		mov	r9, r3
 3837              	.LVL469:
 893:../../Middlewares/LVGL/GUI/lvgl/src/draw/sw/lv_draw_sw_mask.c ****     int32_t h = lv_area_get_height(&rect);
 3838              		.loc 1 893 5 is_stmt 1 view .LVU1301
 893:../../Middlewares/LVGL/GUI/lvgl/src/draw/sw/lv_draw_sw_mask.c ****     int32_t h = lv_area_get_height(&rect);
 3839              		.loc 1 893 17 is_stmt 0 view .LVU1302
 3840 00f2 02A8     		add	r0, sp, #8
 3841 00f4 FFF7FEFF 		bl	lv_area_get_width
 3842              	.LVL470:
 893:../../Middlewares/LVGL/GUI/lvgl/src/draw/sw/lv_draw_sw_mask.c ****     int32_t h = lv_area_get_height(&rect);
 3843              		.loc 1 893 17 view .LVU1303
ARM GAS  C:\Users\28576\AppData\Local\Temp\ccagJBpt.s 			page 113


 3844 00f8 8246     		mov	r10, r0
 3845              	.LVL471:
 894:../../Middlewares/LVGL/GUI/lvgl/src/draw/sw/lv_draw_sw_mask.c ****     abs_x -= rect.x1;
 3846              		.loc 1 894 5 is_stmt 1 view .LVU1304
 894:../../Middlewares/LVGL/GUI/lvgl/src/draw/sw/lv_draw_sw_mask.c ****     abs_x -= rect.x1;
 3847              		.loc 1 894 17 is_stmt 0 view .LVU1305
 3848 00fa 02A8     		add	r0, sp, #8
 3849              	.LVL472:
 894:../../Middlewares/LVGL/GUI/lvgl/src/draw/sw/lv_draw_sw_mask.c ****     abs_x -= rect.x1;
 3850              		.loc 1 894 17 view .LVU1306
 3851 00fc FFF7FEFF 		bl	lv_area_get_height
 3852              	.LVL473:
 895:../../Middlewares/LVGL/GUI/lvgl/src/draw/sw/lv_draw_sw_mask.c ****     abs_y -= rect.y1;
 3853              		.loc 1 895 5 is_stmt 1 view .LVU1307
 896:../../Middlewares/LVGL/GUI/lvgl/src/draw/sw/lv_draw_sw_mask.c **** 
 3854              		.loc 1 896 5 view .LVU1308
 896:../../Middlewares/LVGL/GUI/lvgl/src/draw/sw/lv_draw_sw_mask.c **** 
 3855              		.loc 1 896 18 is_stmt 0 view .LVU1309
 3856 0100 039B     		ldr	r3, [sp, #12]
 896:../../Middlewares/LVGL/GUI/lvgl/src/draw/sw/lv_draw_sw_mask.c **** 
 3857              		.loc 1 896 11 view .LVU1310
 3858 0102 ED1A     		subs	r5, r5, r3
 3859              	.LVL474:
 898:../../Middlewares/LVGL/GUI/lvgl/src/draw/sw/lv_draw_sw_mask.c ****     int32_t x_start;
 3860              		.loc 1 898 5 is_stmt 1 view .LVU1311
 899:../../Middlewares/LVGL/GUI/lvgl/src/draw/sw/lv_draw_sw_mask.c ****     int32_t cir_y;
 3861              		.loc 1 899 5 view .LVU1312
 900:../../Middlewares/LVGL/GUI/lvgl/src/draw/sw/lv_draw_sw_mask.c ****     if(abs_y < radius) {
 3862              		.loc 1 900 5 view .LVU1313
 901:../../Middlewares/LVGL/GUI/lvgl/src/draw/sw/lv_draw_sw_mask.c ****         cir_y = radius - abs_y - 1;
 3863              		.loc 1 901 5 view .LVU1314
 901:../../Middlewares/LVGL/GUI/lvgl/src/draw/sw/lv_draw_sw_mask.c ****         cir_y = radius - abs_y - 1;
 3864              		.loc 1 901 7 is_stmt 0 view .LVU1315
 3865 0104 A845     		cmp	r8, r5
 3866 0106 16DD     		ble	.L270
 902:../../Middlewares/LVGL/GUI/lvgl/src/draw/sw/lv_draw_sw_mask.c ****     }
 3867              		.loc 1 902 9 is_stmt 1 view .LVU1316
 902:../../Middlewares/LVGL/GUI/lvgl/src/draw/sw/lv_draw_sw_mask.c ****     }
 3868              		.loc 1 902 24 is_stmt 0 view .LVU1317
 3869 0108 A8EB0505 		sub	r5, r8, r5
 3870              	.LVL475:
 902:../../Middlewares/LVGL/GUI/lvgl/src/draw/sw/lv_draw_sw_mask.c ****     }
 3871              		.loc 1 902 15 view .LVU1318
 3872 010c 691E     		subs	r1, r5, #1
 3873              	.LVL476:
 3874              	.L271:
 907:../../Middlewares/LVGL/GUI/lvgl/src/draw/sw/lv_draw_sw_mask.c ****     int32_t cir_x_right = k + w - radius + x_start;
 3875              		.loc 1 907 5 is_stmt 1 view .LVU1319
 907:../../Middlewares/LVGL/GUI/lvgl/src/draw/sw/lv_draw_sw_mask.c ****     int32_t cir_x_right = k + w - radius + x_start;
 3876              		.loc 1 907 25 is_stmt 0 view .LVU1320
 3877 010e 6B46     		mov	r3, sp
 3878              	.LVL477:
 907:../../Middlewares/LVGL/GUI/lvgl/src/draw/sw/lv_draw_sw_mask.c ****     int32_t cir_x_right = k + w - radius + x_start;
 3879              		.loc 1 907 25 view .LVU1321
 3880 0110 01AA     		add	r2, sp, #4
 3881 0112 206A     		ldr	r0, [r4, #32]
 3882 0114 FFF7FEFF 		bl	get_next_line
ARM GAS  C:\Users\28576\AppData\Local\Temp\ccagJBpt.s 			page 114


 3883              	.LVL478:
 908:../../Middlewares/LVGL/GUI/lvgl/src/draw/sw/lv_draw_sw_mask.c ****     int32_t cir_x_left = k + radius - x_start - 1;
 3884              		.loc 1 908 5 is_stmt 1 view .LVU1322
 908:../../Middlewares/LVGL/GUI/lvgl/src/draw/sw/lv_draw_sw_mask.c ****     int32_t cir_x_left = k + radius - x_start - 1;
 3885              		.loc 1 908 29 is_stmt 0 view .LVU1323
 3886 0118 5246     		mov	r2, r10
 3887 011a 4A44     		add	r2, r2, r9
 908:../../Middlewares/LVGL/GUI/lvgl/src/draw/sw/lv_draw_sw_mask.c ****     int32_t cir_x_left = k + radius - x_start - 1;
 3888              		.loc 1 908 33 view .LVU1324
 3889 011c A2EB0802 		sub	r2, r2, r8
 908:../../Middlewares/LVGL/GUI/lvgl/src/draw/sw/lv_draw_sw_mask.c ****     int32_t cir_x_left = k + radius - x_start - 1;
 3890              		.loc 1 908 42 view .LVU1325
 3891 0120 009B     		ldr	r3, [sp]
 908:../../Middlewares/LVGL/GUI/lvgl/src/draw/sw/lv_draw_sw_mask.c ****     int32_t cir_x_left = k + radius - x_start - 1;
 3892              		.loc 1 908 13 view .LVU1326
 3893 0122 1A44     		add	r2, r2, r3
 3894              	.LVL479:
 909:../../Middlewares/LVGL/GUI/lvgl/src/draw/sw/lv_draw_sw_mask.c ****     int32_t i;
 3895              		.loc 1 909 5 is_stmt 1 view .LVU1327
 909:../../Middlewares/LVGL/GUI/lvgl/src/draw/sw/lv_draw_sw_mask.c ****     int32_t i;
 3896              		.loc 1 909 28 is_stmt 0 view .LVU1328
 3897 0124 C844     		add	r8, r8, r9
 3898              	.LVL480:
 909:../../Middlewares/LVGL/GUI/lvgl/src/draw/sw/lv_draw_sw_mask.c ****     int32_t i;
 3899              		.loc 1 909 37 view .LVU1329
 3900 0126 A8EB0308 		sub	r8, r8, r3
 909:../../Middlewares/LVGL/GUI/lvgl/src/draw/sw/lv_draw_sw_mask.c ****     int32_t i;
 3901              		.loc 1 909 13 view .LVU1330
 3902 012a 08F1FF34 		add	r4, r8, #-1
 3903              	.LVL481:
 910:../../Middlewares/LVGL/GUI/lvgl/src/draw/sw/lv_draw_sw_mask.c **** 
 3904              		.loc 1 910 5 is_stmt 1 view .LVU1331
 912:../../Middlewares/LVGL/GUI/lvgl/src/draw/sw/lv_draw_sw_mask.c ****         for(i = 0; i < aa_len; i++) {
 3905              		.loc 1 912 5 view .LVU1332
 912:../../Middlewares/LVGL/GUI/lvgl/src/draw/sw/lv_draw_sw_mask.c ****         for(i = 0; i < aa_len; i++) {
 3906              		.loc 1 912 7 is_stmt 0 view .LVU1333
 3907 012e 5B46     		mov	r3, fp
 3908 0130 73B1     		cbz	r3, .L273
 3909              	.LBB266:
 932:../../Middlewares/LVGL/GUI/lvgl/src/draw/sw/lv_draw_sw_mask.c ****             lv_opa_t opa = 255 - (aa_opa[aa_len - 1 - i]);
 3910              		.loc 1 932 15 view .LVU1334
 3911 0132 0023     		movs	r3, #0
 3912 0134 5AE0     		b	.L272
 3913              	.LVL482:
 3914              	.L270:
 932:../../Middlewares/LVGL/GUI/lvgl/src/draw/sw/lv_draw_sw_mask.c ****             lv_opa_t opa = 255 - (aa_opa[aa_len - 1 - i]);
 3915              		.loc 1 932 15 view .LVU1335
 3916              	.LBE266:
 905:../../Middlewares/LVGL/GUI/lvgl/src/draw/sw/lv_draw_sw_mask.c ****     }
 3917              		.loc 1 905 9 is_stmt 1 view .LVU1336
 905:../../Middlewares/LVGL/GUI/lvgl/src/draw/sw/lv_draw_sw_mask.c ****     }
 3918              		.loc 1 905 28 is_stmt 0 view .LVU1337
 3919 0136 A0EB0800 		sub	r0, r0, r8
 3920              	.LVL483:
 905:../../Middlewares/LVGL/GUI/lvgl/src/draw/sw/lv_draw_sw_mask.c ****     }
 3921              		.loc 1 905 15 view .LVU1338
 3922 013a 291A     		subs	r1, r5, r0
ARM GAS  C:\Users\28576\AppData\Local\Temp\ccagJBpt.s 			page 115


 3923 013c E7E7     		b	.L271
 3924              	.LVL484:
 3925              	.L297:
 3926              	.LBB281:
 3927              	.LBB282:
 3928              	.LBB283:
1231:../../Middlewares/LVGL/GUI/lvgl/src/draw/sw/lv_draw_sw_mask.c ****     if(mask_new <= LV_OPA_MIN) return 0;
 3929              		.loc 1 1231 39 discriminator 1 view .LVU1339
 3930 013e 6146     		mov	r1, ip
 3931              	.LVL485:
1231:../../Middlewares/LVGL/GUI/lvgl/src/draw/sw/lv_draw_sw_mask.c ****     if(mask_new <= LV_OPA_MIN) return 0;
 3932              		.loc 1 1231 39 discriminator 1 view .LVU1340
 3933 0140 1EE0     		b	.L275
 3934              	.LVL486:
 3935              	.L298:
1232:../../Middlewares/LVGL/GUI/lvgl/src/draw/sw/lv_draw_sw_mask.c **** 
 3936              		.loc 1 1232 39 discriminator 1 view .LVU1341
 3937 0142 0021     		movs	r1, #0
 3938              	.LVL487:
1232:../../Middlewares/LVGL/GUI/lvgl/src/draw/sw/lv_draw_sw_mask.c **** 
 3939              		.loc 1 1232 39 discriminator 1 view .LVU1342
 3940 0144 1CE0     		b	.L275
 3941              	.LVL488:
 3942              	.L299:
1232:../../Middlewares/LVGL/GUI/lvgl/src/draw/sw/lv_draw_sw_mask.c **** 
 3943              		.loc 1 1232 39 discriminator 1 view .LVU1343
 3944              	.LBE283:
 3945              	.LBE282:
 3946              	.LBB285:
 3947              	.LBB286:
 3948 0146 4FF0000C 		mov	ip, #0
 3949              	.LVL489:
 3950              	.L277:
1232:../../Middlewares/LVGL/GUI/lvgl/src/draw/sw/lv_draw_sw_mask.c **** 
 3951              		.loc 1 1232 39 discriminator 1 view .LVU1344
 3952              	.LBE286:
 3953              	.LBE285:
 919:../../Middlewares/LVGL/GUI/lvgl/src/draw/sw/lv_draw_sw_mask.c ****             }
 3954              		.loc 1 919 42 discriminator 1 view .LVU1345
 3955 014a 07F801C0 		strb	ip, [r7, r1]
 3956              	.L276:
 919:../../Middlewares/LVGL/GUI/lvgl/src/draw/sw/lv_draw_sw_mask.c ****             }
 3957              		.loc 1 919 42 discriminator 1 view .LVU1346
 3958              	.LBE281:
 913:../../Middlewares/LVGL/GUI/lvgl/src/draw/sw/lv_draw_sw_mask.c ****             lv_opa_t opa = aa_opa[aa_len - i - 1];
 3959              		.loc 1 913 33 is_stmt 1 discriminator 2 view .LVU1347
 3960 014e 0133     		adds	r3, r3, #1
 3961              	.LVL490:
 3962              	.L273:
 913:../../Middlewares/LVGL/GUI/lvgl/src/draw/sw/lv_draw_sw_mask.c ****             lv_opa_t opa = aa_opa[aa_len - i - 1];
 3963              		.loc 1 913 22 discriminator 1 view .LVU1348
 3964 0150 0199     		ldr	r1, [sp, #4]
 3965 0152 9942     		cmp	r1, r3
 3966 0154 27DD     		ble	.L310
 3967              	.LBB290:
 914:../../Middlewares/LVGL/GUI/lvgl/src/draw/sw/lv_draw_sw_mask.c ****             if(cir_x_right + i >= 0 && cir_x_right + i < len) {
 3968              		.loc 1 914 13 view .LVU1349
ARM GAS  C:\Users\28576\AppData\Local\Temp\ccagJBpt.s 			page 116


 914:../../Middlewares/LVGL/GUI/lvgl/src/draw/sw/lv_draw_sw_mask.c ****             if(cir_x_right + i >= 0 && cir_x_right + i < len) {
 3969              		.loc 1 914 42 is_stmt 0 view .LVU1350
 3970 0156 C91A     		subs	r1, r1, r3
 914:../../Middlewares/LVGL/GUI/lvgl/src/draw/sw/lv_draw_sw_mask.c ****             if(cir_x_right + i >= 0 && cir_x_right + i < len) {
 3971              		.loc 1 914 46 view .LVU1351
 3972 0158 0139     		subs	r1, r1, #1
 914:../../Middlewares/LVGL/GUI/lvgl/src/draw/sw/lv_draw_sw_mask.c ****             if(cir_x_right + i >= 0 && cir_x_right + i < len) {
 3973              		.loc 1 914 22 view .LVU1352
 3974 015a 10F801C0 		ldrb	ip, [r0, r1]	@ zero_extendqisi2
 3975              	.LVL491:
 915:../../Middlewares/LVGL/GUI/lvgl/src/draw/sw/lv_draw_sw_mask.c ****                 mask_buf[cir_x_right + i] = mask_mix(opa, mask_buf[cir_x_right + i]);
 3976              		.loc 1 915 13 is_stmt 1 view .LVU1353
 915:../../Middlewares/LVGL/GUI/lvgl/src/draw/sw/lv_draw_sw_mask.c ****                 mask_buf[cir_x_right + i] = mask_mix(opa, mask_buf[cir_x_right + i]);
 3977              		.loc 1 915 15 is_stmt 0 view .LVU1354
 3978 015e 9D18     		adds	r5, r3, r2
 3979 0160 0FD4     		bmi	.L274
 915:../../Middlewares/LVGL/GUI/lvgl/src/draw/sw/lv_draw_sw_mask.c ****                 mask_buf[cir_x_right + i] = mask_mix(opa, mask_buf[cir_x_right + i]);
 3980              		.loc 1 915 37 discriminator 1 view .LVU1355
 3981 0162 B542     		cmp	r5, r6
 3982 0164 0DDA     		bge	.L274
 916:../../Middlewares/LVGL/GUI/lvgl/src/draw/sw/lv_draw_sw_mask.c ****             }
 3983              		.loc 1 916 17 is_stmt 1 view .LVU1356
 916:../../Middlewares/LVGL/GUI/lvgl/src/draw/sw/lv_draw_sw_mask.c ****             }
 3984              		.loc 1 916 45 is_stmt 0 view .LVU1357
 3985 0166 795D     		ldrb	r1, [r7, r5]	@ zero_extendqisi2
 3986              	.LVL492:
 3987              	.LBB288:
 3988              	.LBI282:
1229:../../Middlewares/LVGL/GUI/lvgl/src/draw/sw/lv_draw_sw_mask.c **** {
 3989              		.loc 1 1229 46 is_stmt 1 view .LVU1358
 3990              	.LBB284:
1231:../../Middlewares/LVGL/GUI/lvgl/src/draw/sw/lv_draw_sw_mask.c ****     if(mask_new <= LV_OPA_MIN) return 0;
 3991              		.loc 1 1231 5 view .LVU1359
1231:../../Middlewares/LVGL/GUI/lvgl/src/draw/sw/lv_draw_sw_mask.c ****     if(mask_new <= LV_OPA_MIN) return 0;
 3992              		.loc 1 1231 7 is_stmt 0 view .LVU1360
 3993 0168 FC29     		cmp	r1, #252
 3994 016a E8D8     		bhi	.L297
1232:../../Middlewares/LVGL/GUI/lvgl/src/draw/sw/lv_draw_sw_mask.c **** 
 3995              		.loc 1 1232 5 is_stmt 1 view .LVU1361
1232:../../Middlewares/LVGL/GUI/lvgl/src/draw/sw/lv_draw_sw_mask.c **** 
 3996              		.loc 1 1232 7 is_stmt 0 view .LVU1362
 3997 016c 0229     		cmp	r1, #2
 3998 016e E8D9     		bls	.L298
 3999              		.loc 1 1234 5 is_stmt 1 view .LVU1363
 4000              		.loc 1 1234 12 is_stmt 0 view .LVU1364
 4001 0170 01FB0CF1 		mul	r1, r1, ip
 4002              	.LVL493:
 4003              		.loc 1 1234 12 view .LVU1365
 4004 0174 01EB012E 		add	lr, r1, r1, lsl #8
 4005 0178 01EBCE11 		add	r1, r1, lr, lsl #7
 4006 017c C1F3C751 		ubfx	r1, r1, #23, #8
 4007              	.L275:
 4008              	.LVL494:
 4009              		.loc 1 1234 12 view .LVU1366
 4010              	.LBE284:
 4011              	.LBE288:
 916:../../Middlewares/LVGL/GUI/lvgl/src/draw/sw/lv_draw_sw_mask.c ****             }
ARM GAS  C:\Users\28576\AppData\Local\Temp\ccagJBpt.s 			page 117


 4012              		.loc 1 916 43 discriminator 1 view .LVU1367
 4013 0180 7955     		strb	r1, [r7, r5]
 4014              	.L274:
 918:../../Middlewares/LVGL/GUI/lvgl/src/draw/sw/lv_draw_sw_mask.c ****                 mask_buf[cir_x_left - i] = mask_mix(opa, mask_buf[cir_x_left - i]);
 4015              		.loc 1 918 13 is_stmt 1 view .LVU1368
 918:../../Middlewares/LVGL/GUI/lvgl/src/draw/sw/lv_draw_sw_mask.c ****                 mask_buf[cir_x_left - i] = mask_mix(opa, mask_buf[cir_x_left - i]);
 4016              		.loc 1 918 15 is_stmt 0 view .LVU1369
 4017 0182 E11A     		subs	r1, r4, r3
 4018 0184 E3D4     		bmi	.L276
 918:../../Middlewares/LVGL/GUI/lvgl/src/draw/sw/lv_draw_sw_mask.c ****                 mask_buf[cir_x_left - i] = mask_mix(opa, mask_buf[cir_x_left - i]);
 4019              		.loc 1 918 36 discriminator 1 view .LVU1370
 4020 0186 B142     		cmp	r1, r6
 4021 0188 E1DA     		bge	.L276
 919:../../Middlewares/LVGL/GUI/lvgl/src/draw/sw/lv_draw_sw_mask.c ****             }
 4022              		.loc 1 919 17 is_stmt 1 view .LVU1371
 919:../../Middlewares/LVGL/GUI/lvgl/src/draw/sw/lv_draw_sw_mask.c ****             }
 4023              		.loc 1 919 44 is_stmt 0 view .LVU1372
 4024 018a 7D5C     		ldrb	r5, [r7, r1]	@ zero_extendqisi2
 4025              	.LVL495:
 4026              	.LBB289:
 4027              	.LBI285:
1229:../../Middlewares/LVGL/GUI/lvgl/src/draw/sw/lv_draw_sw_mask.c **** {
 4028              		.loc 1 1229 46 is_stmt 1 view .LVU1373
 4029              	.LBB287:
1231:../../Middlewares/LVGL/GUI/lvgl/src/draw/sw/lv_draw_sw_mask.c ****     if(mask_new <= LV_OPA_MIN) return 0;
 4030              		.loc 1 1231 5 view .LVU1374
1231:../../Middlewares/LVGL/GUI/lvgl/src/draw/sw/lv_draw_sw_mask.c ****     if(mask_new <= LV_OPA_MIN) return 0;
 4031              		.loc 1 1231 7 is_stmt 0 view .LVU1375
 4032 018c FC2D     		cmp	r5, #252
 4033 018e DCD8     		bhi	.L277
1232:../../Middlewares/LVGL/GUI/lvgl/src/draw/sw/lv_draw_sw_mask.c **** 
 4034              		.loc 1 1232 5 is_stmt 1 view .LVU1376
1232:../../Middlewares/LVGL/GUI/lvgl/src/draw/sw/lv_draw_sw_mask.c **** 
 4035              		.loc 1 1232 7 is_stmt 0 view .LVU1377
 4036 0190 022D     		cmp	r5, #2
 4037 0192 D8D9     		bls	.L299
 4038              		.loc 1 1234 5 is_stmt 1 view .LVU1378
 4039              		.loc 1 1234 12 is_stmt 0 view .LVU1379
 4040 0194 05FB0CF5 		mul	r5, r5, ip
 4041              	.LVL496:
 4042              		.loc 1 1234 12 view .LVU1380
 4043 0198 05EB052C 		add	ip, r5, r5, lsl #8
 4044              	.LVL497:
 4045              		.loc 1 1234 12 view .LVU1381
 4046 019c 05EBCC15 		add	r5, r5, ip, lsl #7
 4047 01a0 C5F3C75C 		ubfx	ip, r5, #23, #8
 4048 01a4 D1E7     		b	.L277
 4049              	.LVL498:
 4050              	.L310:
 4051              		.loc 1 1234 12 view .LVU1382
 4052              	.LBE287:
 4053              	.LBE289:
 4054              	.LBE290:
 924:../../Middlewares/LVGL/GUI/lvgl/src/draw/sw/lv_draw_sw_mask.c ****         lv_memzero(&mask_buf[cir_x_right], len - cir_x_right);
 4055              		.loc 1 924 9 is_stmt 1 view .LVU1383
 924:../../Middlewares/LVGL/GUI/lvgl/src/draw/sw/lv_draw_sw_mask.c ****         lv_memzero(&mask_buf[cir_x_right], len - cir_x_right);
 4056              		.loc 1 924 23 is_stmt 0 view .LVU1384
ARM GAS  C:\Users\28576\AppData\Local\Temp\ccagJBpt.s 			page 118


 4057 01a6 9818     		adds	r0, r3, r2
 4058              	.LVL499:
 924:../../Middlewares/LVGL/GUI/lvgl/src/draw/sw/lv_draw_sw_mask.c ****         lv_memzero(&mask_buf[cir_x_right], len - cir_x_right);
 4059              		.loc 1 924 23 view .LVU1385
 4060 01a8 0346     		mov	r3, r0
 4061              	.LVL500:
 924:../../Middlewares/LVGL/GUI/lvgl/src/draw/sw/lv_draw_sw_mask.c ****         lv_memzero(&mask_buf[cir_x_right], len - cir_x_right);
 4062              		.loc 1 924 23 view .LVU1386
 4063 01aa B042     		cmp	r0, r6
 4064 01ac A8BF     		it	ge
 4065 01ae 3346     		movge	r3, r6
 924:../../Middlewares/LVGL/GUI/lvgl/src/draw/sw/lv_draw_sw_mask.c ****         lv_memzero(&mask_buf[cir_x_right], len - cir_x_right);
 4066              		.loc 1 924 21 view .LVU1387
 4067 01b0 23EAE370 		bic	r0, r3, r3, asr #31
 4068              	.LVL501:
 925:../../Middlewares/LVGL/GUI/lvgl/src/draw/sw/lv_draw_sw_mask.c **** 
 4069              		.loc 1 925 9 is_stmt 1 view .LVU1388
 4070              	.LBB291:
 4071              	.LBI291:
  73:H:/STM32H7/RGB_LVGL/Middlewares/LVGL/GUI/lvgl/src/stdlib\lv_string.h **** {
 4072              		.loc 2 73 20 view .LVU1389
 4073              	.LBB292:
  75:H:/STM32H7/RGB_LVGL/Middlewares/LVGL/GUI/lvgl/src/stdlib\lv_string.h **** }
 4074              		.loc 2 75 5 view .LVU1390
 4075 01b4 321A     		subs	r2, r6, r0
 4076              	.LVL502:
  75:H:/STM32H7/RGB_LVGL/Middlewares/LVGL/GUI/lvgl/src/stdlib\lv_string.h **** }
 4077              		.loc 2 75 5 is_stmt 0 view .LVU1391
 4078 01b6 0021     		movs	r1, #0
 4079 01b8 3844     		add	r0, r0, r7
 4080              	.LVL503:
  75:H:/STM32H7/RGB_LVGL/Middlewares/LVGL/GUI/lvgl/src/stdlib\lv_string.h **** }
 4081              		.loc 2 75 5 view .LVU1392
 4082 01ba FFF7FEFF 		bl	lv_memset
 4083              	.LVL504:
  75:H:/STM32H7/RGB_LVGL/Middlewares/LVGL/GUI/lvgl/src/stdlib\lv_string.h **** }
 4084              		.loc 2 75 5 view .LVU1393
 4085              	.LBE292:
 4086              	.LBE291:
 928:../../Middlewares/LVGL/GUI/lvgl/src/draw/sw/lv_draw_sw_mask.c ****         lv_memzero(&mask_buf[0], cir_x_left);
 4087              		.loc 1 928 9 is_stmt 1 view .LVU1394
 928:../../Middlewares/LVGL/GUI/lvgl/src/draw/sw/lv_draw_sw_mask.c ****         lv_memzero(&mask_buf[0], cir_x_left);
 4088              		.loc 1 928 22 is_stmt 0 view .LVU1395
 4089 01be 019B     		ldr	r3, [sp, #4]
 4090 01c0 E21A     		subs	r2, r4, r3
 4091 01c2 0132     		adds	r2, r2, #1
 4092 01c4 B242     		cmp	r2, r6
 4093 01c6 A8BF     		it	ge
 4094 01c8 3246     		movge	r2, r6
 4095              	.LVL505:
 929:../../Middlewares/LVGL/GUI/lvgl/src/draw/sw/lv_draw_sw_mask.c ****     }
 4096              		.loc 1 929 9 is_stmt 1 view .LVU1396
 4097              	.LBB293:
 4098              	.LBI293:
  73:H:/STM32H7/RGB_LVGL/Middlewares/LVGL/GUI/lvgl/src/stdlib\lv_string.h **** {
 4099              		.loc 2 73 20 view .LVU1397
 4100              	.LBB294:
ARM GAS  C:\Users\28576\AppData\Local\Temp\ccagJBpt.s 			page 119


  75:H:/STM32H7/RGB_LVGL/Middlewares/LVGL/GUI/lvgl/src/stdlib\lv_string.h **** }
 4101              		.loc 2 75 5 view .LVU1398
 4102 01ca 22EAE272 		bic	r2, r2, r2, asr #31
 4103              	.LVL506:
  75:H:/STM32H7/RGB_LVGL/Middlewares/LVGL/GUI/lvgl/src/stdlib\lv_string.h **** }
 4104              		.loc 2 75 5 is_stmt 0 view .LVU1399
 4105 01ce 0021     		movs	r1, #0
 4106 01d0 3846     		mov	r0, r7
 4107 01d2 FFF7FEFF 		bl	lv_memset
 4108              	.LVL507:
  75:H:/STM32H7/RGB_LVGL/Middlewares/LVGL/GUI/lvgl/src/stdlib\lv_string.h **** }
 4109              		.loc 2 75 5 view .LVU1400
 4110              	.LBE294:
 4111              	.LBE293:
 947:../../Middlewares/LVGL/GUI/lvgl/src/draw/sw/lv_draw_sw_mask.c **** }
 4112              		.loc 1 947 12 view .LVU1401
 4113 01d6 0220     		movs	r0, #2
 4114              	.LBB296:
 4115              	.LBB295:
 4116              		.loc 2 76 1 view .LVU1402
 4117 01d8 4FE0     		b	.L259
 4118              	.LVL508:
 4119              	.L300:
 4120              		.loc 2 76 1 view .LVU1403
 4121              	.LBE295:
 4122              	.LBE296:
 4123              	.LBB297:
 4124              	.LBB267:
 4125              	.LBB268:
 4126              	.LBB269:
1231:../../Middlewares/LVGL/GUI/lvgl/src/draw/sw/lv_draw_sw_mask.c ****     if(mask_new <= LV_OPA_MIN) return 0;
 4127              		.loc 1 1231 39 discriminator 1 view .LVU1404
 4128 01da 6146     		mov	r1, ip
 4129              	.LVL509:
1231:../../Middlewares/LVGL/GUI/lvgl/src/draw/sw/lv_draw_sw_mask.c ****     if(mask_new <= LV_OPA_MIN) return 0;
 4130              		.loc 1 1231 39 discriminator 1 view .LVU1405
 4131 01dc 1FE0     		b	.L280
 4132              	.LVL510:
 4133              	.L301:
1232:../../Middlewares/LVGL/GUI/lvgl/src/draw/sw/lv_draw_sw_mask.c **** 
 4134              		.loc 1 1232 39 discriminator 1 view .LVU1406
 4135 01de 0021     		movs	r1, #0
 4136              	.LVL511:
1232:../../Middlewares/LVGL/GUI/lvgl/src/draw/sw/lv_draw_sw_mask.c **** 
 4137              		.loc 1 1232 39 discriminator 1 view .LVU1407
 4138 01e0 1DE0     		b	.L280
 4139              	.LVL512:
 4140              	.L302:
1232:../../Middlewares/LVGL/GUI/lvgl/src/draw/sw/lv_draw_sw_mask.c **** 
 4141              		.loc 1 1232 39 discriminator 1 view .LVU1408
 4142              	.LBE269:
 4143              	.LBE268:
 4144              	.LBB271:
 4145              	.LBB272:
 4146 01e2 4FF0000C 		mov	ip, #0
 4147              	.LVL513:
 4148              	.L282:
ARM GAS  C:\Users\28576\AppData\Local\Temp\ccagJBpt.s 			page 120


1232:../../Middlewares/LVGL/GUI/lvgl/src/draw/sw/lv_draw_sw_mask.c **** 
 4149              		.loc 1 1232 39 discriminator 1 view .LVU1409
 4150              	.LBE272:
 4151              	.LBE271:
 938:../../Middlewares/LVGL/GUI/lvgl/src/draw/sw/lv_draw_sw_mask.c ****             }
 4152              		.loc 1 938 42 discriminator 1 view .LVU1410
 4153 01e6 07F801C0 		strb	ip, [r7, r1]
 4154              	.L281:
 938:../../Middlewares/LVGL/GUI/lvgl/src/draw/sw/lv_draw_sw_mask.c ****             }
 4155              		.loc 1 938 42 discriminator 1 view .LVU1411
 4156              	.LBE267:
 932:../../Middlewares/LVGL/GUI/lvgl/src/draw/sw/lv_draw_sw_mask.c ****             lv_opa_t opa = 255 - (aa_opa[aa_len - 1 - i]);
 4157              		.loc 1 932 33 is_stmt 1 discriminator 2 view .LVU1412
 4158 01ea 0133     		adds	r3, r3, #1
 4159              	.LVL514:
 4160              	.L272:
 932:../../Middlewares/LVGL/GUI/lvgl/src/draw/sw/lv_draw_sw_mask.c ****             lv_opa_t opa = 255 - (aa_opa[aa_len - 1 - i]);
 4161              		.loc 1 932 22 discriminator 1 view .LVU1413
 4162 01ec 0199     		ldr	r1, [sp, #4]
 4163 01ee 9942     		cmp	r1, r3
 4164 01f0 28DD     		ble	.L311
 4165              	.LBB276:
 933:../../Middlewares/LVGL/GUI/lvgl/src/draw/sw/lv_draw_sw_mask.c ****             if(cir_x_right + i >= 0 && cir_x_right + i < len) {
 4166              		.loc 1 933 13 view .LVU1414
 933:../../Middlewares/LVGL/GUI/lvgl/src/draw/sw/lv_draw_sw_mask.c ****             if(cir_x_right + i >= 0 && cir_x_right + i < len) {
 4167              		.loc 1 933 49 is_stmt 0 view .LVU1415
 4168 01f2 0139     		subs	r1, r1, #1
 933:../../Middlewares/LVGL/GUI/lvgl/src/draw/sw/lv_draw_sw_mask.c ****             if(cir_x_right + i >= 0 && cir_x_right + i < len) {
 4169              		.loc 1 933 53 view .LVU1416
 4170 01f4 C91A     		subs	r1, r1, r3
 933:../../Middlewares/LVGL/GUI/lvgl/src/draw/sw/lv_draw_sw_mask.c ****             if(cir_x_right + i >= 0 && cir_x_right + i < len) {
 4171              		.loc 1 933 41 view .LVU1417
 4172 01f6 415C     		ldrb	r1, [r0, r1]	@ zero_extendqisi2
 933:../../Middlewares/LVGL/GUI/lvgl/src/draw/sw/lv_draw_sw_mask.c ****             if(cir_x_right + i >= 0 && cir_x_right + i < len) {
 4173              		.loc 1 933 22 view .LVU1418
 4174 01f8 81F0FF0C 		eor	ip, r1, #255
 4175              	.LVL515:
 934:../../Middlewares/LVGL/GUI/lvgl/src/draw/sw/lv_draw_sw_mask.c ****                 mask_buf[cir_x_right + i] = mask_mix(opa, mask_buf[cir_x_right + i]);
 4176              		.loc 1 934 13 is_stmt 1 view .LVU1419
 934:../../Middlewares/LVGL/GUI/lvgl/src/draw/sw/lv_draw_sw_mask.c ****                 mask_buf[cir_x_right + i] = mask_mix(opa, mask_buf[cir_x_right + i]);
 4177              		.loc 1 934 15 is_stmt 0 view .LVU1420
 4178 01fc 9D18     		adds	r5, r3, r2
 4179 01fe 0FD4     		bmi	.L279
 934:../../Middlewares/LVGL/GUI/lvgl/src/draw/sw/lv_draw_sw_mask.c ****                 mask_buf[cir_x_right + i] = mask_mix(opa, mask_buf[cir_x_right + i]);
 4180              		.loc 1 934 37 discriminator 1 view .LVU1421
 4181 0200 B542     		cmp	r5, r6
 4182 0202 0DDA     		bge	.L279
 935:../../Middlewares/LVGL/GUI/lvgl/src/draw/sw/lv_draw_sw_mask.c ****             }
 4183              		.loc 1 935 17 is_stmt 1 view .LVU1422
 935:../../Middlewares/LVGL/GUI/lvgl/src/draw/sw/lv_draw_sw_mask.c ****             }
 4184              		.loc 1 935 45 is_stmt 0 view .LVU1423
 4185 0204 795D     		ldrb	r1, [r7, r5]	@ zero_extendqisi2
 4186              	.LVL516:
 4187              	.LBB274:
 4188              	.LBI268:
1229:../../Middlewares/LVGL/GUI/lvgl/src/draw/sw/lv_draw_sw_mask.c **** {
 4189              		.loc 1 1229 46 is_stmt 1 view .LVU1424
ARM GAS  C:\Users\28576\AppData\Local\Temp\ccagJBpt.s 			page 121


 4190              	.LBB270:
1231:../../Middlewares/LVGL/GUI/lvgl/src/draw/sw/lv_draw_sw_mask.c ****     if(mask_new <= LV_OPA_MIN) return 0;
 4191              		.loc 1 1231 5 view .LVU1425
1231:../../Middlewares/LVGL/GUI/lvgl/src/draw/sw/lv_draw_sw_mask.c ****     if(mask_new <= LV_OPA_MIN) return 0;
 4192              		.loc 1 1231 7 is_stmt 0 view .LVU1426
 4193 0206 FC29     		cmp	r1, #252
 4194 0208 E7D8     		bhi	.L300
1232:../../Middlewares/LVGL/GUI/lvgl/src/draw/sw/lv_draw_sw_mask.c **** 
 4195              		.loc 1 1232 5 is_stmt 1 view .LVU1427
1232:../../Middlewares/LVGL/GUI/lvgl/src/draw/sw/lv_draw_sw_mask.c **** 
 4196              		.loc 1 1232 7 is_stmt 0 view .LVU1428
 4197 020a 0229     		cmp	r1, #2
 4198 020c E7D9     		bls	.L301
 4199              		.loc 1 1234 5 is_stmt 1 view .LVU1429
 4200              		.loc 1 1234 12 is_stmt 0 view .LVU1430
 4201 020e 01FB0CF1 		mul	r1, r1, ip
 4202              	.LVL517:
 4203              		.loc 1 1234 12 view .LVU1431
 4204 0212 01EB012E 		add	lr, r1, r1, lsl #8
 4205 0216 01EBCE11 		add	r1, r1, lr, lsl #7
 4206 021a C1F3C751 		ubfx	r1, r1, #23, #8
 4207              	.L280:
 4208              	.LVL518:
 4209              		.loc 1 1234 12 view .LVU1432
 4210              	.LBE270:
 4211              	.LBE274:
 935:../../Middlewares/LVGL/GUI/lvgl/src/draw/sw/lv_draw_sw_mask.c ****             }
 4212              		.loc 1 935 43 discriminator 1 view .LVU1433
 4213 021e 7955     		strb	r1, [r7, r5]
 4214              	.L279:
 937:../../Middlewares/LVGL/GUI/lvgl/src/draw/sw/lv_draw_sw_mask.c ****                 mask_buf[cir_x_left - i] = mask_mix(opa, mask_buf[cir_x_left - i]);
 4215              		.loc 1 937 13 is_stmt 1 view .LVU1434
 937:../../Middlewares/LVGL/GUI/lvgl/src/draw/sw/lv_draw_sw_mask.c ****                 mask_buf[cir_x_left - i] = mask_mix(opa, mask_buf[cir_x_left - i]);
 4216              		.loc 1 937 15 is_stmt 0 view .LVU1435
 4217 0220 E11A     		subs	r1, r4, r3
 4218 0222 E2D4     		bmi	.L281
 937:../../Middlewares/LVGL/GUI/lvgl/src/draw/sw/lv_draw_sw_mask.c ****                 mask_buf[cir_x_left - i] = mask_mix(opa, mask_buf[cir_x_left - i]);
 4219              		.loc 1 937 36 discriminator 1 view .LVU1436
 4220 0224 B142     		cmp	r1, r6
 4221 0226 E0DA     		bge	.L281
 938:../../Middlewares/LVGL/GUI/lvgl/src/draw/sw/lv_draw_sw_mask.c ****             }
 4222              		.loc 1 938 17 is_stmt 1 view .LVU1437
 938:../../Middlewares/LVGL/GUI/lvgl/src/draw/sw/lv_draw_sw_mask.c ****             }
 4223              		.loc 1 938 44 is_stmt 0 view .LVU1438
 4224 0228 7D5C     		ldrb	r5, [r7, r1]	@ zero_extendqisi2
 4225              	.LVL519:
 4226              	.LBB275:
 4227              	.LBI271:
1229:../../Middlewares/LVGL/GUI/lvgl/src/draw/sw/lv_draw_sw_mask.c **** {
 4228              		.loc 1 1229 46 is_stmt 1 view .LVU1439
 4229              	.LBB273:
1231:../../Middlewares/LVGL/GUI/lvgl/src/draw/sw/lv_draw_sw_mask.c ****     if(mask_new <= LV_OPA_MIN) return 0;
 4230              		.loc 1 1231 5 view .LVU1440
1231:../../Middlewares/LVGL/GUI/lvgl/src/draw/sw/lv_draw_sw_mask.c ****     if(mask_new <= LV_OPA_MIN) return 0;
 4231              		.loc 1 1231 7 is_stmt 0 view .LVU1441
 4232 022a FC2D     		cmp	r5, #252
 4233 022c DBD8     		bhi	.L282
ARM GAS  C:\Users\28576\AppData\Local\Temp\ccagJBpt.s 			page 122


1232:../../Middlewares/LVGL/GUI/lvgl/src/draw/sw/lv_draw_sw_mask.c **** 
 4234              		.loc 1 1232 5 is_stmt 1 view .LVU1442
1232:../../Middlewares/LVGL/GUI/lvgl/src/draw/sw/lv_draw_sw_mask.c **** 
 4235              		.loc 1 1232 7 is_stmt 0 view .LVU1443
 4236 022e 022D     		cmp	r5, #2
 4237 0230 D7D9     		bls	.L302
 4238              		.loc 1 1234 5 is_stmt 1 view .LVU1444
 4239              		.loc 1 1234 12 is_stmt 0 view .LVU1445
 4240 0232 05FB0CF5 		mul	r5, r5, ip
 4241              	.LVL520:
 4242              		.loc 1 1234 12 view .LVU1446
 4243 0236 05EB052C 		add	ip, r5, r5, lsl #8
 4244              	.LVL521:
 4245              		.loc 1 1234 12 view .LVU1447
 4246 023a 05EBCC15 		add	r5, r5, ip, lsl #7
 4247 023e C5F3C75C 		ubfx	ip, r5, #23, #8
 4248 0242 D0E7     		b	.L282
 4249              	.LVL522:
 4250              	.L311:
 4251              		.loc 1 1234 12 view .LVU1448
 4252              	.LBE273:
 4253              	.LBE275:
 4254              	.LBE276:
 942:../../Middlewares/LVGL/GUI/lvgl/src/draw/sw/lv_draw_sw_mask.c ****         int32_t clr_len = LV_CLAMP(0, cir_x_right - clr_start, len - clr_start);
 4255              		.loc 1 942 9 is_stmt 1 view .LVU1449
 942:../../Middlewares/LVGL/GUI/lvgl/src/draw/sw/lv_draw_sw_mask.c ****         int32_t clr_len = LV_CLAMP(0, cir_x_right - clr_start, len - clr_start);
 4256              		.loc 1 942 29 is_stmt 0 view .LVU1450
 4257 0244 B045     		cmp	r8, r6
 4258 0246 A8BF     		it	ge
 4259 0248 B046     		movge	r8, r6
 942:../../Middlewares/LVGL/GUI/lvgl/src/draw/sw/lv_draw_sw_mask.c ****         int32_t clr_len = LV_CLAMP(0, cir_x_right - clr_start, len - clr_start);
 4260              		.loc 1 942 17 view .LVU1451
 4261 024a 28EAE870 		bic	r0, r8, r8, asr #31
 4262              	.LVL523:
 943:../../Middlewares/LVGL/GUI/lvgl/src/draw/sw/lv_draw_sw_mask.c ****         lv_memzero(&mask_buf[clr_start], clr_len);
 4263              		.loc 1 943 9 is_stmt 1 view .LVU1452
 943:../../Middlewares/LVGL/GUI/lvgl/src/draw/sw/lv_draw_sw_mask.c ****         lv_memzero(&mask_buf[clr_start], clr_len);
 4264              		.loc 1 943 27 is_stmt 0 view .LVU1453
 4265 024e 9642     		cmp	r6, r2
 4266 0250 06DD     		ble	.L284
 943:../../Middlewares/LVGL/GUI/lvgl/src/draw/sw/lv_draw_sw_mask.c ****         lv_memzero(&mask_buf[clr_start], clr_len);
 4267              		.loc 1 943 27 discriminator 1 view .LVU1454
 4268 0252 131A     		subs	r3, r2, r0
 4269              	.LVL524:
 943:../../Middlewares/LVGL/GUI/lvgl/src/draw/sw/lv_draw_sw_mask.c ****         lv_memzero(&mask_buf[clr_start], clr_len);
 4270              		.loc 1 943 27 discriminator 1 view .LVU1455
 4271 0254 DB0F     		lsrs	r3, r3, #31
 4272              	.L285:
 943:../../Middlewares/LVGL/GUI/lvgl/src/draw/sw/lv_draw_sw_mask.c ****         lv_memzero(&mask_buf[clr_start], clr_len);
 4273              		.loc 1 943 27 discriminator 4 view .LVU1456
 4274 0256 43B9     		cbnz	r3, .L303
 943:../../Middlewares/LVGL/GUI/lvgl/src/draw/sw/lv_draw_sw_mask.c ****         lv_memzero(&mask_buf[clr_start], clr_len);
 4275              		.loc 1 943 27 discriminator 6 view .LVU1457
 4276 0258 9642     		cmp	r6, r2
 4277 025a 04DD     		ble	.L287
 943:../../Middlewares/LVGL/GUI/lvgl/src/draw/sw/lv_draw_sw_mask.c ****         lv_memzero(&mask_buf[clr_start], clr_len);
 4278              		.loc 1 943 17 discriminator 7 view .LVU1458
ARM GAS  C:\Users\28576\AppData\Local\Temp\ccagJBpt.s 			page 123


 4279 025c 121A     		subs	r2, r2, r0
 4280              	.LVL525:
 943:../../Middlewares/LVGL/GUI/lvgl/src/draw/sw/lv_draw_sw_mask.c ****         lv_memzero(&mask_buf[clr_start], clr_len);
 4281              		.loc 1 943 17 discriminator 7 view .LVU1459
 4282 025e 05E0     		b	.L286
 4283              	.LVL526:
 4284              	.L284:
 943:../../Middlewares/LVGL/GUI/lvgl/src/draw/sw/lv_draw_sw_mask.c ****         lv_memzero(&mask_buf[clr_start], clr_len);
 4285              		.loc 1 943 27 discriminator 2 view .LVU1460
 4286 0260 331A     		subs	r3, r6, r0
 4287              	.LVL527:
 943:../../Middlewares/LVGL/GUI/lvgl/src/draw/sw/lv_draw_sw_mask.c ****         lv_memzero(&mask_buf[clr_start], clr_len);
 4288              		.loc 1 943 27 discriminator 2 view .LVU1461
 4289 0262 DB0F     		lsrs	r3, r3, #31
 4290 0264 F7E7     		b	.L285
 4291              	.L287:
 943:../../Middlewares/LVGL/GUI/lvgl/src/draw/sw/lv_draw_sw_mask.c ****         lv_memzero(&mask_buf[clr_start], clr_len);
 4292              		.loc 1 943 17 discriminator 8 view .LVU1462
 4293 0266 321A     		subs	r2, r6, r0
 4294              	.LVL528:
 943:../../Middlewares/LVGL/GUI/lvgl/src/draw/sw/lv_draw_sw_mask.c ****         lv_memzero(&mask_buf[clr_start], clr_len);
 4295              		.loc 1 943 17 discriminator 8 view .LVU1463
 4296 0268 00E0     		b	.L286
 4297              	.LVL529:
 4298              	.L303:
 943:../../Middlewares/LVGL/GUI/lvgl/src/draw/sw/lv_draw_sw_mask.c ****         lv_memzero(&mask_buf[clr_start], clr_len);
 4299              		.loc 1 943 17 discriminator 5 view .LVU1464
 4300 026a 0022     		movs	r2, #0
 4301              	.LVL530:
 4302              	.L286:
 944:../../Middlewares/LVGL/GUI/lvgl/src/draw/sw/lv_draw_sw_mask.c ****     }
 4303              		.loc 1 944 9 is_stmt 1 view .LVU1465
 4304              	.LBB277:
 4305              	.LBI277:
  73:H:/STM32H7/RGB_LVGL/Middlewares/LVGL/GUI/lvgl/src/stdlib\lv_string.h **** {
 4306              		.loc 2 73 20 view .LVU1466
 4307              	.LBB278:
  75:H:/STM32H7/RGB_LVGL/Middlewares/LVGL/GUI/lvgl/src/stdlib\lv_string.h **** }
 4308              		.loc 2 75 5 view .LVU1467
 4309 026c 0021     		movs	r1, #0
 4310 026e 3844     		add	r0, r0, r7
 4311              	.LVL531:
  75:H:/STM32H7/RGB_LVGL/Middlewares/LVGL/GUI/lvgl/src/stdlib\lv_string.h **** }
 4312              		.loc 2 75 5 is_stmt 0 view .LVU1468
 4313 0270 FFF7FEFF 		bl	lv_memset
 4314              	.LVL532:
  75:H:/STM32H7/RGB_LVGL/Middlewares/LVGL/GUI/lvgl/src/stdlib\lv_string.h **** }
 4315              		.loc 2 75 5 view .LVU1469
 4316              	.LBE278:
 4317              	.LBE277:
 4318              	.LBE297:
 947:../../Middlewares/LVGL/GUI/lvgl/src/draw/sw/lv_draw_sw_mask.c **** }
 4319              		.loc 1 947 12 view .LVU1470
 4320 0274 0220     		movs	r0, #2
 4321              	.LBB298:
 4322              	.LBB280:
 4323              	.LBB279:
ARM GAS  C:\Users\28576\AppData\Local\Temp\ccagJBpt.s 			page 124


 4324              		.loc 2 76 1 view .LVU1471
 4325 0276 00E0     		b	.L259
 4326              	.LVL533:
 4327              	.L288:
 4328              		.loc 2 76 1 view .LVU1472
 4329              	.LBE279:
 4330              	.LBE280:
 4331              	.LBE298:
 851:../../Middlewares/LVGL/GUI/lvgl/src/draw/sw/lv_draw_sw_mask.c ****         }
 4332              		.loc 1 851 20 view .LVU1473
 4333 0278 0020     		movs	r0, #0
 4334              	.LVL534:
 4335              	.L259:
 948:../../Middlewares/LVGL/GUI/lvgl/src/draw/sw/lv_draw_sw_mask.c **** 
 4336              		.loc 1 948 1 view .LVU1474
 4337 027a 07B0     		add	sp, sp, #28
 4338              	.LCFI20:
 4339              		.cfi_remember_state
 4340              		.cfi_def_cfa_offset 36
 4341              		@ sp needed
 4342 027c BDE8F08F 		pop	{r4, r5, r6, r7, r8, r9, r10, fp, pc}
 4343              	.LVL535:
 4344              	.L305:
 4345              	.LCFI21:
 4346              		.cfi_restore_state
 851:../../Middlewares/LVGL/GUI/lvgl/src/draw/sw/lv_draw_sw_mask.c ****         }
 4347              		.loc 1 851 20 view .LVU1475
 4348 0280 0020     		movs	r0, #0
 4349 0282 FAE7     		b	.L259
 4350              	.L290:
 856:../../Middlewares/LVGL/GUI/lvgl/src/draw/sw/lv_draw_sw_mask.c ****         }
 4351              		.loc 1 856 20 view .LVU1476
 4352 0284 0120     		movs	r0, #1
 4353 0286 F8E7     		b	.L259
 4354              	.LVL536:
 4355              	.L292:
 4356              	.LBB299:
 865:../../Middlewares/LVGL/GUI/lvgl/src/draw/sw/lv_draw_sw_mask.c ****             if(last >= 0) {
 4357              		.loc 1 865 35 discriminator 1 view .LVU1477
 4358 0288 0020     		movs	r0, #0
 4359 028a F6E7     		b	.L259
 4360              	.LVL537:
 4361              	.L293:
 871:../../Middlewares/LVGL/GUI/lvgl/src/draw/sw/lv_draw_sw_mask.c ****             else if(first < len) {
 4362              		.loc 1 871 35 discriminator 1 view .LVU1478
 4363 028c 0020     		movs	r0, #0
 4364 028e F4E7     		b	.L259
 4365              	.LVL538:
 4366              	.L294:
 876:../../Middlewares/LVGL/GUI/lvgl/src/draw/sw/lv_draw_sw_mask.c ****         }
 4367              		.loc 1 876 25 view .LVU1479
 4368 0290 0220     		movs	r0, #2
 4369 0292 F2E7     		b	.L259
 4370              	.LBE299:
 4371              		.cfi_endproc
 4372              	.LFE202:
 4374              		.section	.text.circ_calc_aa4,"ax",%progbits
ARM GAS  C:\Users\28576\AppData\Local\Temp\ccagJBpt.s 			page 125


 4375              		.align	1
 4376              		.syntax unified
 4377              		.thumb
 4378              		.thumb_func
 4380              	circ_calc_aa4:
 4381              	.LVL539:
 4382              	.LFB208:
1072:../../Middlewares/LVGL/GUI/lvgl/src/draw/sw/lv_draw_sw_mask.c ****     if(radius == 0) return;
 4383              		.loc 1 1072 1 is_stmt 1 view -0
 4384              		.cfi_startproc
 4385              		@ args = 0, pretend = 0, frame = 48
 4386              		@ frame_needed = 0, uses_anonymous_args = 0
1073:../../Middlewares/LVGL/GUI/lvgl/src/draw/sw/lv_draw_sw_mask.c ****     c->radius = radius;
 4387              		.loc 1 1073 5 view .LVU1481
1073:../../Middlewares/LVGL/GUI/lvgl/src/draw/sw/lv_draw_sw_mask.c ****     c->radius = radius;
 4388              		.loc 1 1073 7 is_stmt 0 view .LVU1482
 4389 0000 0029     		cmp	r1, #0
 4390 0002 00F05581 		beq	.L343
1072:../../Middlewares/LVGL/GUI/lvgl/src/draw/sw/lv_draw_sw_mask.c ****     if(radius == 0) return;
 4391              		.loc 1 1072 1 view .LVU1483
 4392 0006 2DE9F04F 		push	{r4, r5, r6, r7, r8, r9, r10, fp, lr}
 4393              	.LCFI22:
 4394              		.cfi_def_cfa_offset 36
 4395              		.cfi_offset 4, -36
 4396              		.cfi_offset 5, -32
 4397              		.cfi_offset 6, -28
 4398              		.cfi_offset 7, -24
 4399              		.cfi_offset 8, -20
 4400              		.cfi_offset 9, -16
 4401              		.cfi_offset 10, -12
 4402              		.cfi_offset 11, -8
 4403              		.cfi_offset 14, -4
 4404 000a 8DB0     		sub	sp, sp, #52
 4405              	.LCFI23:
 4406              		.cfi_def_cfa_offset 88
 4407 000c 0546     		mov	r5, r0
 4408 000e 8946     		mov	r9, r1
1074:../../Middlewares/LVGL/GUI/lvgl/src/draw/sw/lv_draw_sw_mask.c **** 
 4409              		.loc 1 1074 5 is_stmt 1 view .LVU1484
1074:../../Middlewares/LVGL/GUI/lvgl/src/draw/sw/lv_draw_sw_mask.c **** 
 4410              		.loc 1 1074 15 is_stmt 0 view .LVU1485
 4411 0010 8161     		str	r1, [r0, #24]
1077:../../Middlewares/LVGL/GUI/lvgl/src/draw/sw/lv_draw_sw_mask.c **** 
 4412              		.loc 1 1077 5 is_stmt 1 view .LVU1486
1077:../../Middlewares/LVGL/GUI/lvgl/src/draw/sw/lv_draw_sw_mask.c **** 
 4413              		.loc 1 1077 9 is_stmt 0 view .LVU1487
 4414 0012 0068     		ldr	r0, [r0]
 4415              	.LVL540:
1077:../../Middlewares/LVGL/GUI/lvgl/src/draw/sw/lv_draw_sw_mask.c **** 
 4416              		.loc 1 1077 7 view .LVU1488
 4417 0014 08B1     		cbz	r0, .L314
1077:../../Middlewares/LVGL/GUI/lvgl/src/draw/sw/lv_draw_sw_mask.c **** 
 4418              		.loc 1 1077 16 is_stmt 1 discriminator 1 view .LVU1489
 4419 0016 FFF7FEFF 		bl	lv_free
 4420              	.LVL541:
 4421              	.L314:
1079:../../Middlewares/LVGL/GUI/lvgl/src/draw/sw/lv_draw_sw_mask.c ****     LV_ASSERT_MALLOC(c->buf);
ARM GAS  C:\Users\28576\AppData\Local\Temp\ccagJBpt.s 			page 126


 4422              		.loc 1 1079 5 view .LVU1490
1079:../../Middlewares/LVGL/GUI/lvgl/src/draw/sw/lv_draw_sw_mask.c ****     LV_ASSERT_MALLOC(c->buf);
 4423              		.loc 1 1079 35 is_stmt 0 view .LVU1491
 4424 001a 09F10106 		add	r6, r9, #1
 4425 001e 06EB4600 		add	r0, r6, r6, lsl #1
1079:../../Middlewares/LVGL/GUI/lvgl/src/draw/sw/lv_draw_sw_mask.c ****     LV_ASSERT_MALLOC(c->buf);
 4426              		.loc 1 1079 14 view .LVU1492
 4427 0022 4000     		lsls	r0, r0, #1
 4428 0024 FFF7FEFF 		bl	lv_malloc
 4429              	.LVL542:
1079:../../Middlewares/LVGL/GUI/lvgl/src/draw/sw/lv_draw_sw_mask.c ****     LV_ASSERT_MALLOC(c->buf);
 4430              		.loc 1 1079 12 discriminator 1 view .LVU1493
 4431 0028 2860     		str	r0, [r5]
1080:../../Middlewares/LVGL/GUI/lvgl/src/draw/sw/lv_draw_sw_mask.c ****     c->cir_opa = c->buf;
 4432              		.loc 1 1080 5 is_stmt 1 view .LVU1494
1080:../../Middlewares/LVGL/GUI/lvgl/src/draw/sw/lv_draw_sw_mask.c ****     c->cir_opa = c->buf;
 4433              		.loc 1 1080 5 view .LVU1495
 4434 002a 08B3     		cbz	r0, .L316
1080:../../Middlewares/LVGL/GUI/lvgl/src/draw/sw/lv_draw_sw_mask.c ****     c->cir_opa = c->buf;
 4435              		.loc 1 1080 5 view .LVU1496
1080:../../Middlewares/LVGL/GUI/lvgl/src/draw/sw/lv_draw_sw_mask.c ****     c->cir_opa = c->buf;
 4436              		.loc 1 1080 29 view .LVU1497
1081:../../Middlewares/LVGL/GUI/lvgl/src/draw/sw/lv_draw_sw_mask.c ****     c->opa_start_on_y = (uint16_t *)(c->buf + 2 * radius + 2);
 4437              		.loc 1 1081 5 view .LVU1498
1081:../../Middlewares/LVGL/GUI/lvgl/src/draw/sw/lv_draw_sw_mask.c ****     c->opa_start_on_y = (uint16_t *)(c->buf + 2 * radius + 2);
 4438              		.loc 1 1081 16 is_stmt 0 view .LVU1499
 4439 002c 6860     		str	r0, [r5, #4]
1082:../../Middlewares/LVGL/GUI/lvgl/src/draw/sw/lv_draw_sw_mask.c ****     c->x_start_on_y = (uint16_t *)(c->buf + 4 * radius + 4);
 4440              		.loc 1 1082 5 is_stmt 1 view .LVU1500
1082:../../Middlewares/LVGL/GUI/lvgl/src/draw/sw/lv_draw_sw_mask.c ****     c->x_start_on_y = (uint16_t *)(c->buf + 4 * radius + 4);
 4441              		.loc 1 1082 49 is_stmt 0 view .LVU1501
 4442 002e 4FEA4903 		lsl	r3, r9, #1
1082:../../Middlewares/LVGL/GUI/lvgl/src/draw/sw/lv_draw_sw_mask.c ****     c->x_start_on_y = (uint16_t *)(c->buf + 4 * radius + 4);
 4443              		.loc 1 1082 58 view .LVU1502
 4444 0032 0233     		adds	r3, r3, #2
 4445 0034 0344     		add	r3, r3, r0
1082:../../Middlewares/LVGL/GUI/lvgl/src/draw/sw/lv_draw_sw_mask.c ****     c->x_start_on_y = (uint16_t *)(c->buf + 4 * radius + 4);
 4446              		.loc 1 1082 23 view .LVU1503
 4447 0036 EB60     		str	r3, [r5, #12]
1083:../../Middlewares/LVGL/GUI/lvgl/src/draw/sw/lv_draw_sw_mask.c **** 
 4448              		.loc 1 1083 5 is_stmt 1 view .LVU1504
1083:../../Middlewares/LVGL/GUI/lvgl/src/draw/sw/lv_draw_sw_mask.c **** 
 4449              		.loc 1 1083 47 is_stmt 0 view .LVU1505
 4450 0038 4FEA8904 		lsl	r4, r9, #2
1083:../../Middlewares/LVGL/GUI/lvgl/src/draw/sw/lv_draw_sw_mask.c **** 
 4451              		.loc 1 1083 56 view .LVU1506
 4452 003c 231D     		adds	r3, r4, #4
 4453 003e 0344     		add	r3, r3, r0
1083:../../Middlewares/LVGL/GUI/lvgl/src/draw/sw/lv_draw_sw_mask.c **** 
 4454              		.loc 1 1083 21 view .LVU1507
 4455 0040 AB60     		str	r3, [r5, #8]
1086:../../Middlewares/LVGL/GUI/lvgl/src/draw/sw/lv_draw_sw_mask.c ****         c->cir_opa[0] = 180;
 4456              		.loc 1 1086 5 is_stmt 1 view .LVU1508
1086:../../Middlewares/LVGL/GUI/lvgl/src/draw/sw/lv_draw_sw_mask.c ****         c->cir_opa[0] = 180;
 4457              		.loc 1 1086 7 is_stmt 0 view .LVU1509
 4458 0042 B9F1010F 		cmp	r9, #1
 4459 0046 14D0     		beq	.L346
ARM GAS  C:\Users\28576\AppData\Local\Temp\ccagJBpt.s 			page 127


1094:../../Middlewares/LVGL/GUI/lvgl/src/draw/sw/lv_draw_sw_mask.c ****     int32_t * cir_x = lv_malloc_zeroed(cir_xy_size);
 4460              		.loc 1 1094 5 is_stmt 1 view .LVU1510
 4461              	.LVL543:
1095:../../Middlewares/LVGL/GUI/lvgl/src/draw/sw/lv_draw_sw_mask.c ****     LV_ASSERT_MALLOC(cir_x);
 4462              		.loc 1 1095 5 view .LVU1511
1095:../../Middlewares/LVGL/GUI/lvgl/src/draw/sw/lv_draw_sw_mask.c ****     LV_ASSERT_MALLOC(cir_x);
 4463              		.loc 1 1095 23 is_stmt 0 view .LVU1512
 4464 0048 3001     		lsls	r0, r6, #4
 4465              	.LVL544:
1095:../../Middlewares/LVGL/GUI/lvgl/src/draw/sw/lv_draw_sw_mask.c ****     LV_ASSERT_MALLOC(cir_x);
 4466              		.loc 1 1095 23 view .LVU1513
 4467 004a FFF7FEFF 		bl	lv_malloc_zeroed
 4468              	.LVL545:
1096:../../Middlewares/LVGL/GUI/lvgl/src/draw/sw/lv_draw_sw_mask.c ****     int32_t * cir_y = &cir_x[(radius + 1) * 2];
 4469              		.loc 1 1096 5 is_stmt 1 view .LVU1514
1096:../../Middlewares/LVGL/GUI/lvgl/src/draw/sw/lv_draw_sw_mask.c ****     int32_t * cir_y = &cir_x[(radius + 1) * 2];
 4470              		.loc 1 1096 5 view .LVU1515
 4471 004e 0746     		mov	r7, r0
 4472 0050 E0B1     		cbz	r0, .L319
1096:../../Middlewares/LVGL/GUI/lvgl/src/draw/sw/lv_draw_sw_mask.c ****     int32_t * cir_y = &cir_x[(radius + 1) * 2];
 4473              		.loc 1 1096 5 view .LVU1516
1096:../../Middlewares/LVGL/GUI/lvgl/src/draw/sw/lv_draw_sw_mask.c ****     int32_t * cir_y = &cir_x[(radius + 1) * 2];
 4474              		.loc 1 1096 28 view .LVU1517
1097:../../Middlewares/LVGL/GUI/lvgl/src/draw/sw/lv_draw_sw_mask.c **** 
 4475              		.loc 1 1097 5 view .LVU1518
1097:../../Middlewares/LVGL/GUI/lvgl/src/draw/sw/lv_draw_sw_mask.c **** 
 4476              		.loc 1 1097 15 is_stmt 0 view .LVU1519
 4477 0052 00EBC606 		add	r6, r0, r6, lsl #3
 4478              	.LVL546:
1099:../../Middlewares/LVGL/GUI/lvgl/src/draw/sw/lv_draw_sw_mask.c ****     lv_point_t cp;
 4479              		.loc 1 1099 5 is_stmt 1 view .LVU1520
1100:../../Middlewares/LVGL/GUI/lvgl/src/draw/sw/lv_draw_sw_mask.c ****     int32_t tmp;
 4480              		.loc 1 1100 5 view .LVU1521
1101:../../Middlewares/LVGL/GUI/lvgl/src/draw/sw/lv_draw_sw_mask.c ****     circ_init(&cp, &tmp, radius * 4);    /*Upscale by 4*/
 4481              		.loc 1 1101 5 view .LVU1522
1102:../../Middlewares/LVGL/GUI/lvgl/src/draw/sw/lv_draw_sw_mask.c ****     int32_t i;
 4482              		.loc 1 1102 5 view .LVU1523
 4483 0056 2246     		mov	r2, r4
 4484 0058 09A9     		add	r1, sp, #36
 4485 005a 0AA8     		add	r0, sp, #40
 4486              	.LVL547:
1102:../../Middlewares/LVGL/GUI/lvgl/src/draw/sw/lv_draw_sw_mask.c ****     int32_t i;
 4487              		.loc 1 1102 5 is_stmt 0 view .LVU1524
 4488 005c FFF7FEFF 		bl	circ_init
 4489              	.LVL548:
1103:../../Middlewares/LVGL/GUI/lvgl/src/draw/sw/lv_draw_sw_mask.c **** 
 4490              		.loc 1 1103 5 is_stmt 1 view .LVU1525
1105:../../Middlewares/LVGL/GUI/lvgl/src/draw/sw/lv_draw_sw_mask.c ****     uint32_t x_fract[4];
 4491              		.loc 1 1105 5 view .LVU1526
1106:../../Middlewares/LVGL/GUI/lvgl/src/draw/sw/lv_draw_sw_mask.c ****     int32_t cir_size = 0;
 4492              		.loc 1 1106 5 view .LVU1527
1107:../../Middlewares/LVGL/GUI/lvgl/src/draw/sw/lv_draw_sw_mask.c ****     x_int[0] = cp.x >> 2;
 4493              		.loc 1 1107 5 view .LVU1528
1108:../../Middlewares/LVGL/GUI/lvgl/src/draw/sw/lv_draw_sw_mask.c ****     x_fract[0] = 0;
 4494              		.loc 1 1108 5 view .LVU1529
1108:../../Middlewares/LVGL/GUI/lvgl/src/draw/sw/lv_draw_sw_mask.c ****     x_fract[0] = 0;
 4495              		.loc 1 1108 18 is_stmt 0 view .LVU1530
ARM GAS  C:\Users\28576\AppData\Local\Temp\ccagJBpt.s 			page 128


 4496 0060 0A9B     		ldr	r3, [sp, #40]
1108:../../Middlewares/LVGL/GUI/lvgl/src/draw/sw/lv_draw_sw_mask.c ****     x_fract[0] = 0;
 4497              		.loc 1 1108 21 view .LVU1531
 4498 0062 9B10     		asrs	r3, r3, #2
1108:../../Middlewares/LVGL/GUI/lvgl/src/draw/sw/lv_draw_sw_mask.c ****     x_fract[0] = 0;
 4499              		.loc 1 1108 14 view .LVU1532
 4500 0064 0593     		str	r3, [sp, #20]
1109:../../Middlewares/LVGL/GUI/lvgl/src/draw/sw/lv_draw_sw_mask.c **** 
 4501              		.loc 1 1109 5 is_stmt 1 view .LVU1533
1109:../../Middlewares/LVGL/GUI/lvgl/src/draw/sw/lv_draw_sw_mask.c **** 
 4502              		.loc 1 1109 16 is_stmt 0 view .LVU1534
 4503 0066 0023     		movs	r3, #0
 4504 0068 0193     		str	r3, [sp, #4]
1112:../../Middlewares/LVGL/GUI/lvgl/src/draw/sw/lv_draw_sw_mask.c ****         /*Calculate 4 point of the circle */
 4505              		.loc 1 1112 5 is_stmt 1 view .LVU1535
1107:../../Middlewares/LVGL/GUI/lvgl/src/draw/sw/lv_draw_sw_mask.c ****     x_int[0] = cp.x >> 2;
 4506              		.loc 1 1107 13 is_stmt 0 view .LVU1536
 4507 006a 1C46     		mov	r4, r3
1099:../../Middlewares/LVGL/GUI/lvgl/src/draw/sw/lv_draw_sw_mask.c ****     lv_point_t cp;
 4508              		.loc 1 1099 14 view .LVU1537
 4509 006c 9A46     		mov	r10, r3
1112:../../Middlewares/LVGL/GUI/lvgl/src/draw/sw/lv_draw_sw_mask.c ****         /*Calculate 4 point of the circle */
 4510              		.loc 1 1112 10 view .LVU1538
 4511 006e 3AE0     		b	.L320
 4512              	.LVL549:
 4513              	.L316:
1080:../../Middlewares/LVGL/GUI/lvgl/src/draw/sw/lv_draw_sw_mask.c ****     c->cir_opa = c->buf;
 4514              		.loc 1 1080 5 is_stmt 1 view .LVU1539
1080:../../Middlewares/LVGL/GUI/lvgl/src/draw/sw/lv_draw_sw_mask.c ****     c->cir_opa = c->buf;
 4515              		.loc 1 1080 5 view .LVU1540
1080:../../Middlewares/LVGL/GUI/lvgl/src/draw/sw/lv_draw_sw_mask.c ****     c->cir_opa = c->buf;
 4516              		.loc 1 1080 5 view .LVU1541
1080:../../Middlewares/LVGL/GUI/lvgl/src/draw/sw/lv_draw_sw_mask.c ****     c->cir_opa = c->buf;
 4517              		.loc 1 1080 5 view .LVU1542
1080:../../Middlewares/LVGL/GUI/lvgl/src/draw/sw/lv_draw_sw_mask.c ****     c->cir_opa = c->buf;
 4518              		.loc 1 1080 5 view .LVU1543
 4519 0070 FEE7     		b	.L316
 4520              	.L346:
1087:../../Middlewares/LVGL/GUI/lvgl/src/draw/sw/lv_draw_sw_mask.c ****         c->opa_start_on_y[0] = 0;
 4521              		.loc 1 1087 9 view .LVU1544
1087:../../Middlewares/LVGL/GUI/lvgl/src/draw/sw/lv_draw_sw_mask.c ****         c->opa_start_on_y[0] = 0;
 4522              		.loc 1 1087 23 is_stmt 0 view .LVU1545
 4523 0072 B423     		movs	r3, #180
 4524 0074 0370     		strb	r3, [r0]
1088:../../Middlewares/LVGL/GUI/lvgl/src/draw/sw/lv_draw_sw_mask.c ****         c->opa_start_on_y[1] = 1;
 4525              		.loc 1 1088 9 is_stmt 1 view .LVU1546
1088:../../Middlewares/LVGL/GUI/lvgl/src/draw/sw/lv_draw_sw_mask.c ****         c->opa_start_on_y[1] = 1;
 4526              		.loc 1 1088 10 is_stmt 0 view .LVU1547
 4527 0076 EA68     		ldr	r2, [r5, #12]
1088:../../Middlewares/LVGL/GUI/lvgl/src/draw/sw/lv_draw_sw_mask.c ****         c->opa_start_on_y[1] = 1;
 4528              		.loc 1 1088 30 view .LVU1548
 4529 0078 0023     		movs	r3, #0
 4530 007a 1380     		strh	r3, [r2]	@ movhi
1089:../../Middlewares/LVGL/GUI/lvgl/src/draw/sw/lv_draw_sw_mask.c ****         c->x_start_on_y[0] = 0;
 4531              		.loc 1 1089 9 is_stmt 1 view .LVU1549
1089:../../Middlewares/LVGL/GUI/lvgl/src/draw/sw/lv_draw_sw_mask.c ****         c->x_start_on_y[0] = 0;
 4532              		.loc 1 1089 10 is_stmt 0 view .LVU1550
ARM GAS  C:\Users\28576\AppData\Local\Temp\ccagJBpt.s 			page 129


 4533 007c EA68     		ldr	r2, [r5, #12]
1089:../../Middlewares/LVGL/GUI/lvgl/src/draw/sw/lv_draw_sw_mask.c ****         c->x_start_on_y[0] = 0;
 4534              		.loc 1 1089 30 view .LVU1551
 4535 007e 0121     		movs	r1, #1
 4536 0080 5180     		strh	r1, [r2, #2]	@ movhi
1090:../../Middlewares/LVGL/GUI/lvgl/src/draw/sw/lv_draw_sw_mask.c ****         return;
 4537              		.loc 1 1090 9 is_stmt 1 view .LVU1552
1090:../../Middlewares/LVGL/GUI/lvgl/src/draw/sw/lv_draw_sw_mask.c ****         return;
 4538              		.loc 1 1090 10 is_stmt 0 view .LVU1553
 4539 0082 AA68     		ldr	r2, [r5, #8]
1090:../../Middlewares/LVGL/GUI/lvgl/src/draw/sw/lv_draw_sw_mask.c ****         return;
 4540              		.loc 1 1090 28 view .LVU1554
 4541 0084 1380     		strh	r3, [r2]	@ movhi
1091:../../Middlewares/LVGL/GUI/lvgl/src/draw/sw/lv_draw_sw_mask.c ****     }
 4542              		.loc 1 1091 9 is_stmt 1 view .LVU1555
 4543              	.LVL550:
 4544              	.L312:
1219:../../Middlewares/LVGL/GUI/lvgl/src/draw/sw/lv_draw_sw_mask.c **** 
 4545              		.loc 1 1219 1 is_stmt 0 view .LVU1556
 4546 0086 0DB0     		add	sp, sp, #52
 4547              	.LCFI24:
 4548              		.cfi_remember_state
 4549              		.cfi_def_cfa_offset 36
 4550              		@ sp needed
 4551 0088 BDE8F08F 		pop	{r4, r5, r6, r7, r8, r9, r10, fp, pc}
 4552              	.LVL551:
 4553              	.L319:
 4554              	.LCFI25:
 4555              		.cfi_restore_state
1096:../../Middlewares/LVGL/GUI/lvgl/src/draw/sw/lv_draw_sw_mask.c ****     int32_t * cir_y = &cir_x[(radius + 1) * 2];
 4556              		.loc 1 1096 5 is_stmt 1 view .LVU1557
1096:../../Middlewares/LVGL/GUI/lvgl/src/draw/sw/lv_draw_sw_mask.c ****     int32_t * cir_y = &cir_x[(radius + 1) * 2];
 4557              		.loc 1 1096 5 view .LVU1558
1096:../../Middlewares/LVGL/GUI/lvgl/src/draw/sw/lv_draw_sw_mask.c ****     int32_t * cir_y = &cir_x[(radius + 1) * 2];
 4558              		.loc 1 1096 5 view .LVU1559
1096:../../Middlewares/LVGL/GUI/lvgl/src/draw/sw/lv_draw_sw_mask.c ****     int32_t * cir_y = &cir_x[(radius + 1) * 2];
 4559              		.loc 1 1096 5 view .LVU1560
1096:../../Middlewares/LVGL/GUI/lvgl/src/draw/sw/lv_draw_sw_mask.c ****     int32_t * cir_y = &cir_x[(radius + 1) * 2];
 4560              		.loc 1 1096 5 view .LVU1561
 4561 008c FEE7     		b	.L319
 4562              	.LVL552:
 4563              	.L321:
1120:../../Middlewares/LVGL/GUI/lvgl/src/draw/sw/lv_draw_sw_mask.c **** 
 4564              		.loc 1 1120 9 view .LVU1562
1120:../../Middlewares/LVGL/GUI/lvgl/src/draw/sw/lv_draw_sw_mask.c **** 
 4565              		.loc 1 1120 11 is_stmt 0 view .LVU1563
 4566 008e B8F1040F 		cmp	r8, #4
 4567 0092 40F0A280 		bne	.L323
1123:../../Middlewares/LVGL/GUI/lvgl/src/draw/sw/lv_draw_sw_mask.c ****             cir_x[cir_size] = x_int[0];
 4568              		.loc 1 1123 9 is_stmt 1 view .LVU1564
1123:../../Middlewares/LVGL/GUI/lvgl/src/draw/sw/lv_draw_sw_mask.c ****             cir_x[cir_size] = x_int[0];
 4569              		.loc 1 1123 17 is_stmt 0 view .LVU1565
 4570 0096 059B     		ldr	r3, [sp, #20]
1123:../../Middlewares/LVGL/GUI/lvgl/src/draw/sw/lv_draw_sw_mask.c ****             cir_x[cir_size] = x_int[0];
 4571              		.loc 1 1123 29 view .LVU1566
 4572 0098 089A     		ldr	r2, [sp, #32]
1123:../../Middlewares/LVGL/GUI/lvgl/src/draw/sw/lv_draw_sw_mask.c ****             cir_x[cir_size] = x_int[0];
ARM GAS  C:\Users\28576\AppData\Local\Temp\ccagJBpt.s 			page 130


 4573              		.loc 1 1123 11 view .LVU1567
 4574 009a 9342     		cmp	r3, r2
 4575 009c 46D0     		beq	.L347
1131:../../Middlewares/LVGL/GUI/lvgl/src/draw/sw/lv_draw_sw_mask.c ****             cir_x[cir_size] = x_int[0];
 4576              		.loc 1 1131 14 is_stmt 1 view .LVU1568
1131:../../Middlewares/LVGL/GUI/lvgl/src/draw/sw/lv_draw_sw_mask.c ****             cir_x[cir_size] = x_int[0];
 4577              		.loc 1 1131 34 is_stmt 0 view .LVU1569
 4578 009e 069A     		ldr	r2, [sp, #24]
1131:../../Middlewares/LVGL/GUI/lvgl/src/draw/sw/lv_draw_sw_mask.c ****             cir_x[cir_size] = x_int[0];
 4579              		.loc 1 1131 16 view .LVU1570
 4580 00a0 9342     		cmp	r3, r2
 4581 00a2 58D0     		beq	.L326
1132:../../Middlewares/LVGL/GUI/lvgl/src/draw/sw/lv_draw_sw_mask.c ****             cir_y[cir_size] = y_8th_cnt;
 4582              		.loc 1 1132 13 is_stmt 1 view .LVU1571
1132:../../Middlewares/LVGL/GUI/lvgl/src/draw/sw/lv_draw_sw_mask.c ****             cir_y[cir_size] = y_8th_cnt;
 4583              		.loc 1 1132 29 is_stmt 0 view .LVU1572
 4584 00a4 47F82430 		str	r3, [r7, r4, lsl #2]
1133:../../Middlewares/LVGL/GUI/lvgl/src/draw/sw/lv_draw_sw_mask.c ****             c->cir_opa[cir_size] = x_fract[0];
 4585              		.loc 1 1133 13 is_stmt 1 view .LVU1573
1133:../../Middlewares/LVGL/GUI/lvgl/src/draw/sw/lv_draw_sw_mask.c ****             c->cir_opa[cir_size] = x_fract[0];
 4586              		.loc 1 1133 29 is_stmt 0 view .LVU1574
 4587 00a8 46F824A0 		str	r10, [r6, r4, lsl #2]
1134:../../Middlewares/LVGL/GUI/lvgl/src/draw/sw/lv_draw_sw_mask.c ****             c->cir_opa[cir_size] *= 16;
 4588              		.loc 1 1134 13 is_stmt 1 view .LVU1575
1134:../../Middlewares/LVGL/GUI/lvgl/src/draw/sw/lv_draw_sw_mask.c ****             c->cir_opa[cir_size] *= 16;
 4589              		.loc 1 1134 14 is_stmt 0 view .LVU1576
 4590 00ac 6A68     		ldr	r2, [r5, #4]
1134:../../Middlewares/LVGL/GUI/lvgl/src/draw/sw/lv_draw_sw_mask.c ****             c->cir_opa[cir_size] *= 16;
 4591              		.loc 1 1134 34 view .LVU1577
 4592 00ae 0199     		ldr	r1, [sp, #4]
 4593 00b0 1155     		strb	r1, [r2, r4]
1135:../../Middlewares/LVGL/GUI/lvgl/src/draw/sw/lv_draw_sw_mask.c ****             cir_size++;
 4594              		.loc 1 1135 13 is_stmt 1 view .LVU1578
1135:../../Middlewares/LVGL/GUI/lvgl/src/draw/sw/lv_draw_sw_mask.c ****             cir_size++;
 4595              		.loc 1 1135 14 is_stmt 0 view .LVU1579
 4596 00b2 6968     		ldr	r1, [r5, #4]
1135:../../Middlewares/LVGL/GUI/lvgl/src/draw/sw/lv_draw_sw_mask.c ****             cir_size++;
 4597              		.loc 1 1135 23 view .LVU1580
 4598 00b4 0A5D     		ldrb	r2, [r1, r4]	@ zero_extendqisi2
1135:../../Middlewares/LVGL/GUI/lvgl/src/draw/sw/lv_draw_sw_mask.c ****             cir_size++;
 4599              		.loc 1 1135 34 view .LVU1581
 4600 00b6 1201     		lsls	r2, r2, #4
 4601 00b8 0A55     		strb	r2, [r1, r4]
1136:../../Middlewares/LVGL/GUI/lvgl/src/draw/sw/lv_draw_sw_mask.c **** 
 4602              		.loc 1 1136 13 is_stmt 1 view .LVU1582
1136:../../Middlewares/LVGL/GUI/lvgl/src/draw/sw/lv_draw_sw_mask.c **** 
 4603              		.loc 1 1136 21 is_stmt 0 view .LVU1583
 4604 00ba 611C     		adds	r1, r4, #1
 4605              	.LVL553:
1138:../../Middlewares/LVGL/GUI/lvgl/src/draw/sw/lv_draw_sw_mask.c ****             cir_y[cir_size] = y_8th_cnt;
 4606              		.loc 1 1138 13 is_stmt 1 view .LVU1584
1138:../../Middlewares/LVGL/GUI/lvgl/src/draw/sw/lv_draw_sw_mask.c ****             cir_y[cir_size] = y_8th_cnt;
 4607              		.loc 1 1138 40 is_stmt 0 view .LVU1585
 4608 00bc 013B     		subs	r3, r3, #1
1138:../../Middlewares/LVGL/GUI/lvgl/src/draw/sw/lv_draw_sw_mask.c ****             cir_y[cir_size] = y_8th_cnt;
 4609              		.loc 1 1138 29 view .LVU1586
 4610 00be 47F82130 		str	r3, [r7, r1, lsl #2]
ARM GAS  C:\Users\28576\AppData\Local\Temp\ccagJBpt.s 			page 131


1139:../../Middlewares/LVGL/GUI/lvgl/src/draw/sw/lv_draw_sw_mask.c ****             c->cir_opa[cir_size] = 1 * 4 + x_fract[1] + x_fract[2] + x_fract[3];;
 4611              		.loc 1 1139 13 is_stmt 1 view .LVU1587
1139:../../Middlewares/LVGL/GUI/lvgl/src/draw/sw/lv_draw_sw_mask.c ****             c->cir_opa[cir_size] = 1 * 4 + x_fract[1] + x_fract[2] + x_fract[3];;
 4612              		.loc 1 1139 29 is_stmt 0 view .LVU1588
 4613 00c2 46F821A0 		str	r10, [r6, r1, lsl #2]
1140:../../Middlewares/LVGL/GUI/lvgl/src/draw/sw/lv_draw_sw_mask.c ****             c->cir_opa[cir_size] *= 16;
 4614              		.loc 1 1140 13 is_stmt 1 view .LVU1589
1140:../../Middlewares/LVGL/GUI/lvgl/src/draw/sw/lv_draw_sw_mask.c ****             c->cir_opa[cir_size] *= 16;
 4615              		.loc 1 1140 55 is_stmt 0 view .LVU1590
 4616 00c6 029B     		ldr	r3, [sp, #8]
 4617 00c8 039A     		ldr	r2, [sp, #12]
 4618 00ca 1344     		add	r3, r3, r2
1140:../../Middlewares/LVGL/GUI/lvgl/src/draw/sw/lv_draw_sw_mask.c ****             c->cir_opa[cir_size] *= 16;
 4619              		.loc 1 1140 14 view .LVU1591
 4620 00cc 6A68     		ldr	r2, [r5, #4]
1140:../../Middlewares/LVGL/GUI/lvgl/src/draw/sw/lv_draw_sw_mask.c ****             c->cir_opa[cir_size] *= 16;
 4621              		.loc 1 1140 68 view .LVU1592
 4622 00ce 0498     		ldr	r0, [sp, #16]
 4623 00d0 50FA83F3 		uxtab	r3, r0, r3
 4624 00d4 0433     		adds	r3, r3, #4
1140:../../Middlewares/LVGL/GUI/lvgl/src/draw/sw/lv_draw_sw_mask.c ****             c->cir_opa[cir_size] *= 16;
 4625              		.loc 1 1140 34 view .LVU1593
 4626 00d6 5354     		strb	r3, [r2, r1]
1140:../../Middlewares/LVGL/GUI/lvgl/src/draw/sw/lv_draw_sw_mask.c ****             c->cir_opa[cir_size] *= 16;
 4627              		.loc 1 1140 81 is_stmt 1 view .LVU1594
1141:../../Middlewares/LVGL/GUI/lvgl/src/draw/sw/lv_draw_sw_mask.c ****             cir_size++;
 4628              		.loc 1 1141 13 view .LVU1595
1141:../../Middlewares/LVGL/GUI/lvgl/src/draw/sw/lv_draw_sw_mask.c ****             cir_size++;
 4629              		.loc 1 1141 14 is_stmt 0 view .LVU1596
 4630 00d8 6A68     		ldr	r2, [r5, #4]
1141:../../Middlewares/LVGL/GUI/lvgl/src/draw/sw/lv_draw_sw_mask.c ****             cir_size++;
 4631              		.loc 1 1141 23 view .LVU1597
 4632 00da 535C     		ldrb	r3, [r2, r1]	@ zero_extendqisi2
1141:../../Middlewares/LVGL/GUI/lvgl/src/draw/sw/lv_draw_sw_mask.c ****             cir_size++;
 4633              		.loc 1 1141 34 view .LVU1598
 4634 00dc 1B01     		lsls	r3, r3, #4
 4635 00de 5354     		strb	r3, [r2, r1]
1142:../../Middlewares/LVGL/GUI/lvgl/src/draw/sw/lv_draw_sw_mask.c ****         }
 4636              		.loc 1 1142 13 is_stmt 1 view .LVU1599
1142:../../Middlewares/LVGL/GUI/lvgl/src/draw/sw/lv_draw_sw_mask.c ****         }
 4637              		.loc 1 1142 21 is_stmt 0 view .LVU1600
 4638 00e0 0234     		adds	r4, r4, #2
 4639              	.LVL554:
 4640              	.L325:
1173:../../Middlewares/LVGL/GUI/lvgl/src/draw/sw/lv_draw_sw_mask.c ****     }
 4641              		.loc 1 1173 9 is_stmt 1 view .LVU1601
1173:../../Middlewares/LVGL/GUI/lvgl/src/draw/sw/lv_draw_sw_mask.c ****     }
 4642              		.loc 1 1173 18 is_stmt 0 view .LVU1602
 4643 00e2 0AF1010A 		add	r10, r10, #1
 4644              	.LVL555:
 4645              	.L320:
1112:../../Middlewares/LVGL/GUI/lvgl/src/draw/sw/lv_draw_sw_mask.c ****         /*Calculate 4 point of the circle */
 4646              		.loc 1 1112 11 is_stmt 1 view .LVU1603
 4647 00e6 0AA8     		add	r0, sp, #40
 4648 00e8 FFF7FEFF 		bl	circ_cont
 4649              	.LVL556:
1112:../../Middlewares/LVGL/GUI/lvgl/src/draw/sw/lv_draw_sw_mask.c ****         /*Calculate 4 point of the circle */
ARM GAS  C:\Users\28576\AppData\Local\Temp\ccagJBpt.s 			page 132


 4650              		.loc 1 1112 11 is_stmt 0 discriminator 1 view .LVU1604
 4651 00ec 0028     		cmp	r0, #0
 4652 00ee 74D0     		beq	.L323
1114:../../Middlewares/LVGL/GUI/lvgl/src/draw/sw/lv_draw_sw_mask.c ****             circ_next(&cp, &tmp);
 4653              		.loc 1 1114 15 view .LVU1605
 4654 00f0 4FF00008 		mov	r8, #0
 4655              	.L328:
 4656              	.LVL557:
1114:../../Middlewares/LVGL/GUI/lvgl/src/draw/sw/lv_draw_sw_mask.c ****             circ_next(&cp, &tmp);
 4657              		.loc 1 1114 22 is_stmt 1 discriminator 1 view .LVU1606
 4658 00f4 B8F1030F 		cmp	r8, #3
 4659 00f8 C9DC     		bgt	.L321
1115:../../Middlewares/LVGL/GUI/lvgl/src/draw/sw/lv_draw_sw_mask.c ****             if(circ_cont(&cp) == false) break;
 4660              		.loc 1 1115 13 view .LVU1607
 4661 00fa 0DF1280B 		add	fp, sp, #40
 4662 00fe 09A9     		add	r1, sp, #36
 4663 0100 5846     		mov	r0, fp
 4664 0102 FFF7FEFF 		bl	circ_next
 4665              	.LVL558:
1116:../../Middlewares/LVGL/GUI/lvgl/src/draw/sw/lv_draw_sw_mask.c ****             x_int[i] = cp.x >> 2;
 4666              		.loc 1 1116 13 view .LVU1608
1116:../../Middlewares/LVGL/GUI/lvgl/src/draw/sw/lv_draw_sw_mask.c ****             x_int[i] = cp.x >> 2;
 4667              		.loc 1 1116 16 is_stmt 0 view .LVU1609
 4668 0106 5846     		mov	r0, fp
 4669 0108 FFF7FEFF 		bl	circ_cont
 4670              	.LVL559:
1116:../../Middlewares/LVGL/GUI/lvgl/src/draw/sw/lv_draw_sw_mask.c ****             x_int[i] = cp.x >> 2;
 4671              		.loc 1 1116 15 discriminator 1 view .LVU1610
 4672 010c 0028     		cmp	r0, #0
 4673 010e BED0     		beq	.L321
1117:../../Middlewares/LVGL/GUI/lvgl/src/draw/sw/lv_draw_sw_mask.c ****             x_fract[i] = cp.x & 0x3;
 4674              		.loc 1 1117 13 is_stmt 1 view .LVU1611
1117:../../Middlewares/LVGL/GUI/lvgl/src/draw/sw/lv_draw_sw_mask.c ****             x_fract[i] = cp.x & 0x3;
 4675              		.loc 1 1117 26 is_stmt 0 view .LVU1612
 4676 0110 0A9B     		ldr	r3, [sp, #40]
1117:../../Middlewares/LVGL/GUI/lvgl/src/draw/sw/lv_draw_sw_mask.c ****             x_fract[i] = cp.x & 0x3;
 4677              		.loc 1 1117 29 view .LVU1613
 4678 0112 9910     		asrs	r1, r3, #2
1117:../../Middlewares/LVGL/GUI/lvgl/src/draw/sw/lv_draw_sw_mask.c ****             x_fract[i] = cp.x & 0x3;
 4679              		.loc 1 1117 22 view .LVU1614
 4680 0114 0CAA     		add	r2, sp, #48
 4681 0116 02EB8802 		add	r2, r2, r8, lsl #2
 4682 011a 42F81C1C 		str	r1, [r2, #-28]
1118:../../Middlewares/LVGL/GUI/lvgl/src/draw/sw/lv_draw_sw_mask.c ****         }
 4683              		.loc 1 1118 13 is_stmt 1 view .LVU1615
1118:../../Middlewares/LVGL/GUI/lvgl/src/draw/sw/lv_draw_sw_mask.c ****         }
 4684              		.loc 1 1118 31 is_stmt 0 view .LVU1616
 4685 011e 03F00303 		and	r3, r3, #3
1118:../../Middlewares/LVGL/GUI/lvgl/src/draw/sw/lv_draw_sw_mask.c ****         }
 4686              		.loc 1 1118 24 view .LVU1617
 4687 0122 42F82C3C 		str	r3, [r2, #-44]
1114:../../Middlewares/LVGL/GUI/lvgl/src/draw/sw/lv_draw_sw_mask.c ****             circ_next(&cp, &tmp);
 4688              		.loc 1 1114 28 is_stmt 1 discriminator 2 view .LVU1618
 4689 0126 08F10108 		add	r8, r8, #1
 4690              	.LVL560:
1114:../../Middlewares/LVGL/GUI/lvgl/src/draw/sw/lv_draw_sw_mask.c ****             circ_next(&cp, &tmp);
 4691              		.loc 1 1114 28 is_stmt 0 discriminator 2 view .LVU1619
ARM GAS  C:\Users\28576\AppData\Local\Temp\ccagJBpt.s 			page 133


 4692 012a E3E7     		b	.L328
 4693              	.L347:
1124:../../Middlewares/LVGL/GUI/lvgl/src/draw/sw/lv_draw_sw_mask.c ****             cir_y[cir_size] = y_8th_cnt;
 4694              		.loc 1 1124 13 is_stmt 1 view .LVU1620
1124:../../Middlewares/LVGL/GUI/lvgl/src/draw/sw/lv_draw_sw_mask.c ****             cir_y[cir_size] = y_8th_cnt;
 4695              		.loc 1 1124 29 is_stmt 0 view .LVU1621
 4696 012c 47F82430 		str	r3, [r7, r4, lsl #2]
1125:../../Middlewares/LVGL/GUI/lvgl/src/draw/sw/lv_draw_sw_mask.c ****             c->cir_opa[cir_size] = x_fract[0] + x_fract[1] + x_fract[2] + x_fract[3];
 4697              		.loc 1 1125 13 is_stmt 1 view .LVU1622
1125:../../Middlewares/LVGL/GUI/lvgl/src/draw/sw/lv_draw_sw_mask.c ****             c->cir_opa[cir_size] = x_fract[0] + x_fract[1] + x_fract[2] + x_fract[3];
 4698              		.loc 1 1125 29 is_stmt 0 view .LVU1623
 4699 0130 46F824A0 		str	r10, [r6, r4, lsl #2]
1126:../../Middlewares/LVGL/GUI/lvgl/src/draw/sw/lv_draw_sw_mask.c ****             c->cir_opa[cir_size] *= 16;
 4700              		.loc 1 1126 13 is_stmt 1 view .LVU1624
1126:../../Middlewares/LVGL/GUI/lvgl/src/draw/sw/lv_draw_sw_mask.c ****             c->cir_opa[cir_size] *= 16;
 4701              		.loc 1 1126 47 is_stmt 0 view .LVU1625
 4702 0134 019B     		ldr	r3, [sp, #4]
 4703 0136 029A     		ldr	r2, [sp, #8]
 4704 0138 1344     		add	r3, r3, r2
1126:../../Middlewares/LVGL/GUI/lvgl/src/draw/sw/lv_draw_sw_mask.c ****             c->cir_opa[cir_size] *= 16;
 4705              		.loc 1 1126 69 view .LVU1626
 4706 013a 039A     		ldr	r2, [sp, #12]
1126:../../Middlewares/LVGL/GUI/lvgl/src/draw/sw/lv_draw_sw_mask.c ****             c->cir_opa[cir_size] *= 16;
 4707              		.loc 1 1126 60 view .LVU1627
 4708 013c 52FA83F3 		uxtab	r3, r2, r3
1126:../../Middlewares/LVGL/GUI/lvgl/src/draw/sw/lv_draw_sw_mask.c ****             c->cir_opa[cir_size] *= 16;
 4709              		.loc 1 1126 14 view .LVU1628
 4710 0140 6A68     		ldr	r2, [r5, #4]
1126:../../Middlewares/LVGL/GUI/lvgl/src/draw/sw/lv_draw_sw_mask.c ****             c->cir_opa[cir_size] *= 16;
 4711              		.loc 1 1126 73 view .LVU1629
 4712 0142 0499     		ldr	r1, [sp, #16]
 4713 0144 51FA83F3 		uxtab	r3, r1, r3
1126:../../Middlewares/LVGL/GUI/lvgl/src/draw/sw/lv_draw_sw_mask.c ****             c->cir_opa[cir_size] *= 16;
 4714              		.loc 1 1126 34 view .LVU1630
 4715 0148 1355     		strb	r3, [r2, r4]
1127:../../Middlewares/LVGL/GUI/lvgl/src/draw/sw/lv_draw_sw_mask.c ****             cir_size++;
 4716              		.loc 1 1127 13 is_stmt 1 view .LVU1631
1127:../../Middlewares/LVGL/GUI/lvgl/src/draw/sw/lv_draw_sw_mask.c ****             cir_size++;
 4717              		.loc 1 1127 14 is_stmt 0 view .LVU1632
 4718 014a 6A68     		ldr	r2, [r5, #4]
1127:../../Middlewares/LVGL/GUI/lvgl/src/draw/sw/lv_draw_sw_mask.c ****             cir_size++;
 4719              		.loc 1 1127 23 view .LVU1633
 4720 014c 135D     		ldrb	r3, [r2, r4]	@ zero_extendqisi2
1127:../../Middlewares/LVGL/GUI/lvgl/src/draw/sw/lv_draw_sw_mask.c ****             cir_size++;
 4721              		.loc 1 1127 34 view .LVU1634
 4722 014e 1B01     		lsls	r3, r3, #4
 4723 0150 1355     		strb	r3, [r2, r4]
1128:../../Middlewares/LVGL/GUI/lvgl/src/draw/sw/lv_draw_sw_mask.c ****         }
 4724              		.loc 1 1128 13 is_stmt 1 view .LVU1635
1128:../../Middlewares/LVGL/GUI/lvgl/src/draw/sw/lv_draw_sw_mask.c ****         }
 4725              		.loc 1 1128 21 is_stmt 0 view .LVU1636
 4726 0152 0134     		adds	r4, r4, #1
 4727              	.LVL561:
1128:../../Middlewares/LVGL/GUI/lvgl/src/draw/sw/lv_draw_sw_mask.c ****         }
 4728              		.loc 1 1128 21 view .LVU1637
 4729 0154 C5E7     		b	.L325
 4730              	.L326:
ARM GAS  C:\Users\28576\AppData\Local\Temp\ccagJBpt.s 			page 134


1145:../../Middlewares/LVGL/GUI/lvgl/src/draw/sw/lv_draw_sw_mask.c ****             cir_x[cir_size] = x_int[0];
 4731              		.loc 1 1145 14 is_stmt 1 view .LVU1638
1145:../../Middlewares/LVGL/GUI/lvgl/src/draw/sw/lv_draw_sw_mask.c ****             cir_x[cir_size] = x_int[0];
 4732              		.loc 1 1145 34 is_stmt 0 view .LVU1639
 4733 0156 079A     		ldr	r2, [sp, #28]
1145:../../Middlewares/LVGL/GUI/lvgl/src/draw/sw/lv_draw_sw_mask.c ****             cir_x[cir_size] = x_int[0];
 4734              		.loc 1 1145 16 view .LVU1640
 4735 0158 9342     		cmp	r3, r2
 4736 015a 1ED0     		beq	.L327
1146:../../Middlewares/LVGL/GUI/lvgl/src/draw/sw/lv_draw_sw_mask.c ****             cir_y[cir_size] = y_8th_cnt;
 4737              		.loc 1 1146 13 is_stmt 1 view .LVU1641
1146:../../Middlewares/LVGL/GUI/lvgl/src/draw/sw/lv_draw_sw_mask.c ****             cir_y[cir_size] = y_8th_cnt;
 4738              		.loc 1 1146 29 is_stmt 0 view .LVU1642
 4739 015c 47F82430 		str	r3, [r7, r4, lsl #2]
1147:../../Middlewares/LVGL/GUI/lvgl/src/draw/sw/lv_draw_sw_mask.c ****             c->cir_opa[cir_size] = x_fract[0] + x_fract[1];
 4740              		.loc 1 1147 13 is_stmt 1 view .LVU1643
1147:../../Middlewares/LVGL/GUI/lvgl/src/draw/sw/lv_draw_sw_mask.c ****             c->cir_opa[cir_size] = x_fract[0] + x_fract[1];
 4741              		.loc 1 1147 29 is_stmt 0 view .LVU1644
 4742 0160 46F824A0 		str	r10, [r6, r4, lsl #2]
1148:../../Middlewares/LVGL/GUI/lvgl/src/draw/sw/lv_draw_sw_mask.c ****             c->cir_opa[cir_size] *= 16;
 4743              		.loc 1 1148 13 is_stmt 1 view .LVU1645
1148:../../Middlewares/LVGL/GUI/lvgl/src/draw/sw/lv_draw_sw_mask.c ****             c->cir_opa[cir_size] *= 16;
 4744              		.loc 1 1148 14 is_stmt 0 view .LVU1646
 4745 0164 6968     		ldr	r1, [r5, #4]
1148:../../Middlewares/LVGL/GUI/lvgl/src/draw/sw/lv_draw_sw_mask.c ****             c->cir_opa[cir_size] *= 16;
 4746              		.loc 1 1148 47 view .LVU1647
 4747 0166 019A     		ldr	r2, [sp, #4]
 4748 0168 0298     		ldr	r0, [sp, #8]
 4749 016a 0244     		add	r2, r2, r0
1148:../../Middlewares/LVGL/GUI/lvgl/src/draw/sw/lv_draw_sw_mask.c ****             c->cir_opa[cir_size] *= 16;
 4750              		.loc 1 1148 34 view .LVU1648
 4751 016c 0A55     		strb	r2, [r1, r4]
1149:../../Middlewares/LVGL/GUI/lvgl/src/draw/sw/lv_draw_sw_mask.c ****             cir_size++;
 4752              		.loc 1 1149 13 is_stmt 1 view .LVU1649
1149:../../Middlewares/LVGL/GUI/lvgl/src/draw/sw/lv_draw_sw_mask.c ****             cir_size++;
 4753              		.loc 1 1149 14 is_stmt 0 view .LVU1650
 4754 016e 6968     		ldr	r1, [r5, #4]
1149:../../Middlewares/LVGL/GUI/lvgl/src/draw/sw/lv_draw_sw_mask.c ****             cir_size++;
 4755              		.loc 1 1149 23 view .LVU1651
 4756 0170 0A5D     		ldrb	r2, [r1, r4]	@ zero_extendqisi2
1149:../../Middlewares/LVGL/GUI/lvgl/src/draw/sw/lv_draw_sw_mask.c ****             cir_size++;
 4757              		.loc 1 1149 34 view .LVU1652
 4758 0172 1201     		lsls	r2, r2, #4
 4759 0174 0A55     		strb	r2, [r1, r4]
1150:../../Middlewares/LVGL/GUI/lvgl/src/draw/sw/lv_draw_sw_mask.c **** 
 4760              		.loc 1 1150 13 is_stmt 1 view .LVU1653
1150:../../Middlewares/LVGL/GUI/lvgl/src/draw/sw/lv_draw_sw_mask.c **** 
 4761              		.loc 1 1150 21 is_stmt 0 view .LVU1654
 4762 0176 621C     		adds	r2, r4, #1
 4763              	.LVL562:
1152:../../Middlewares/LVGL/GUI/lvgl/src/draw/sw/lv_draw_sw_mask.c ****             cir_y[cir_size] = y_8th_cnt;
 4764              		.loc 1 1152 13 is_stmt 1 view .LVU1655
1152:../../Middlewares/LVGL/GUI/lvgl/src/draw/sw/lv_draw_sw_mask.c ****             cir_y[cir_size] = y_8th_cnt;
 4765              		.loc 1 1152 40 is_stmt 0 view .LVU1656
 4766 0178 013B     		subs	r3, r3, #1
1152:../../Middlewares/LVGL/GUI/lvgl/src/draw/sw/lv_draw_sw_mask.c ****             cir_y[cir_size] = y_8th_cnt;
 4767              		.loc 1 1152 29 view .LVU1657
ARM GAS  C:\Users\28576\AppData\Local\Temp\ccagJBpt.s 			page 135


 4768 017a 47F82230 		str	r3, [r7, r2, lsl #2]
1153:../../Middlewares/LVGL/GUI/lvgl/src/draw/sw/lv_draw_sw_mask.c ****             c->cir_opa[cir_size] = 2 * 4 + x_fract[2] + x_fract[3];;
 4769              		.loc 1 1153 13 is_stmt 1 view .LVU1658
1153:../../Middlewares/LVGL/GUI/lvgl/src/draw/sw/lv_draw_sw_mask.c ****             c->cir_opa[cir_size] = 2 * 4 + x_fract[2] + x_fract[3];;
 4770              		.loc 1 1153 29 is_stmt 0 view .LVU1659
 4771 017e 46F822A0 		str	r10, [r6, r2, lsl #2]
1154:../../Middlewares/LVGL/GUI/lvgl/src/draw/sw/lv_draw_sw_mask.c ****             c->cir_opa[cir_size] *= 16;
 4772              		.loc 1 1154 13 is_stmt 1 view .LVU1660
1154:../../Middlewares/LVGL/GUI/lvgl/src/draw/sw/lv_draw_sw_mask.c ****             c->cir_opa[cir_size] *= 16;
 4773              		.loc 1 1154 14 is_stmt 0 view .LVU1661
 4774 0182 6968     		ldr	r1, [r5, #4]
1154:../../Middlewares/LVGL/GUI/lvgl/src/draw/sw/lv_draw_sw_mask.c ****             c->cir_opa[cir_size] *= 16;
 4775              		.loc 1 1154 55 view .LVU1662
 4776 0184 039B     		ldr	r3, [sp, #12]
 4777 0186 0498     		ldr	r0, [sp, #16]
 4778 0188 0344     		add	r3, r3, r0
 4779 018a 0833     		adds	r3, r3, #8
1154:../../Middlewares/LVGL/GUI/lvgl/src/draw/sw/lv_draw_sw_mask.c ****             c->cir_opa[cir_size] *= 16;
 4780              		.loc 1 1154 34 view .LVU1663
 4781 018c 8B54     		strb	r3, [r1, r2]
1154:../../Middlewares/LVGL/GUI/lvgl/src/draw/sw/lv_draw_sw_mask.c ****             c->cir_opa[cir_size] *= 16;
 4782              		.loc 1 1154 68 is_stmt 1 view .LVU1664
1155:../../Middlewares/LVGL/GUI/lvgl/src/draw/sw/lv_draw_sw_mask.c ****             cir_size++;
 4783              		.loc 1 1155 13 view .LVU1665
1155:../../Middlewares/LVGL/GUI/lvgl/src/draw/sw/lv_draw_sw_mask.c ****             cir_size++;
 4784              		.loc 1 1155 14 is_stmt 0 view .LVU1666
 4785 018e 6968     		ldr	r1, [r5, #4]
1155:../../Middlewares/LVGL/GUI/lvgl/src/draw/sw/lv_draw_sw_mask.c ****             cir_size++;
 4786              		.loc 1 1155 23 view .LVU1667
 4787 0190 8B5C     		ldrb	r3, [r1, r2]	@ zero_extendqisi2
1155:../../Middlewares/LVGL/GUI/lvgl/src/draw/sw/lv_draw_sw_mask.c ****             cir_size++;
 4788              		.loc 1 1155 34 view .LVU1668
 4789 0192 1B01     		lsls	r3, r3, #4
 4790 0194 8B54     		strb	r3, [r1, r2]
1156:../../Middlewares/LVGL/GUI/lvgl/src/draw/sw/lv_draw_sw_mask.c ****         }
 4791              		.loc 1 1156 13 is_stmt 1 view .LVU1669
1156:../../Middlewares/LVGL/GUI/lvgl/src/draw/sw/lv_draw_sw_mask.c ****         }
 4792              		.loc 1 1156 21 is_stmt 0 view .LVU1670
 4793 0196 0234     		adds	r4, r4, #2
 4794              	.LVL563:
1156:../../Middlewares/LVGL/GUI/lvgl/src/draw/sw/lv_draw_sw_mask.c ****         }
 4795              		.loc 1 1156 21 view .LVU1671
 4796 0198 A3E7     		b	.L325
 4797              	.L327:
1160:../../Middlewares/LVGL/GUI/lvgl/src/draw/sw/lv_draw_sw_mask.c ****             cir_y[cir_size] = y_8th_cnt;
 4798              		.loc 1 1160 13 is_stmt 1 view .LVU1672
1160:../../Middlewares/LVGL/GUI/lvgl/src/draw/sw/lv_draw_sw_mask.c ****             cir_y[cir_size] = y_8th_cnt;
 4799              		.loc 1 1160 29 is_stmt 0 view .LVU1673
 4800 019a 47F82430 		str	r3, [r7, r4, lsl #2]
1161:../../Middlewares/LVGL/GUI/lvgl/src/draw/sw/lv_draw_sw_mask.c ****             c->cir_opa[cir_size] = x_fract[0] + x_fract[1] + x_fract[2];
 4801              		.loc 1 1161 13 is_stmt 1 view .LVU1674
1161:../../Middlewares/LVGL/GUI/lvgl/src/draw/sw/lv_draw_sw_mask.c ****             c->cir_opa[cir_size] = x_fract[0] + x_fract[1] + x_fract[2];
 4802              		.loc 1 1161 29 is_stmt 0 view .LVU1675
 4803 019e 46F824A0 		str	r10, [r6, r4, lsl #2]
1162:../../Middlewares/LVGL/GUI/lvgl/src/draw/sw/lv_draw_sw_mask.c ****             c->cir_opa[cir_size] *= 16;
 4804              		.loc 1 1162 13 is_stmt 1 view .LVU1676
1162:../../Middlewares/LVGL/GUI/lvgl/src/draw/sw/lv_draw_sw_mask.c ****             c->cir_opa[cir_size] *= 16;
ARM GAS  C:\Users\28576\AppData\Local\Temp\ccagJBpt.s 			page 136


 4805              		.loc 1 1162 47 is_stmt 0 view .LVU1677
 4806 01a2 019A     		ldr	r2, [sp, #4]
 4807 01a4 0299     		ldr	r1, [sp, #8]
 4808 01a6 0A44     		add	r2, r2, r1
1162:../../Middlewares/LVGL/GUI/lvgl/src/draw/sw/lv_draw_sw_mask.c ****             c->cir_opa[cir_size] *= 16;
 4809              		.loc 1 1162 14 view .LVU1678
 4810 01a8 6968     		ldr	r1, [r5, #4]
1162:../../Middlewares/LVGL/GUI/lvgl/src/draw/sw/lv_draw_sw_mask.c ****             c->cir_opa[cir_size] *= 16;
 4811              		.loc 1 1162 60 view .LVU1679
 4812 01aa 0398     		ldr	r0, [sp, #12]
 4813 01ac 50FA82F2 		uxtab	r2, r0, r2
1162:../../Middlewares/LVGL/GUI/lvgl/src/draw/sw/lv_draw_sw_mask.c ****             c->cir_opa[cir_size] *= 16;
 4814              		.loc 1 1162 34 view .LVU1680
 4815 01b0 0A55     		strb	r2, [r1, r4]
1163:../../Middlewares/LVGL/GUI/lvgl/src/draw/sw/lv_draw_sw_mask.c ****             cir_size++;
 4816              		.loc 1 1163 13 is_stmt 1 view .LVU1681
1163:../../Middlewares/LVGL/GUI/lvgl/src/draw/sw/lv_draw_sw_mask.c ****             cir_size++;
 4817              		.loc 1 1163 14 is_stmt 0 view .LVU1682
 4818 01b2 6968     		ldr	r1, [r5, #4]
1163:../../Middlewares/LVGL/GUI/lvgl/src/draw/sw/lv_draw_sw_mask.c ****             cir_size++;
 4819              		.loc 1 1163 23 view .LVU1683
 4820 01b4 0A5D     		ldrb	r2, [r1, r4]	@ zero_extendqisi2
1163:../../Middlewares/LVGL/GUI/lvgl/src/draw/sw/lv_draw_sw_mask.c ****             cir_size++;
 4821              		.loc 1 1163 34 view .LVU1684
 4822 01b6 1201     		lsls	r2, r2, #4
 4823 01b8 0A55     		strb	r2, [r1, r4]
1164:../../Middlewares/LVGL/GUI/lvgl/src/draw/sw/lv_draw_sw_mask.c **** 
 4824              		.loc 1 1164 13 is_stmt 1 view .LVU1685
1164:../../Middlewares/LVGL/GUI/lvgl/src/draw/sw/lv_draw_sw_mask.c **** 
 4825              		.loc 1 1164 21 is_stmt 0 view .LVU1686
 4826 01ba 621C     		adds	r2, r4, #1
 4827              	.LVL564:
1166:../../Middlewares/LVGL/GUI/lvgl/src/draw/sw/lv_draw_sw_mask.c ****             cir_y[cir_size] = y_8th_cnt;
 4828              		.loc 1 1166 13 is_stmt 1 view .LVU1687
1166:../../Middlewares/LVGL/GUI/lvgl/src/draw/sw/lv_draw_sw_mask.c ****             cir_y[cir_size] = y_8th_cnt;
 4829              		.loc 1 1166 40 is_stmt 0 view .LVU1688
 4830 01bc 013B     		subs	r3, r3, #1
1166:../../Middlewares/LVGL/GUI/lvgl/src/draw/sw/lv_draw_sw_mask.c ****             cir_y[cir_size] = y_8th_cnt;
 4831              		.loc 1 1166 29 view .LVU1689
 4832 01be 47F82230 		str	r3, [r7, r2, lsl #2]
1167:../../Middlewares/LVGL/GUI/lvgl/src/draw/sw/lv_draw_sw_mask.c ****             c->cir_opa[cir_size] = 3 * 4 + x_fract[3];;
 4833              		.loc 1 1167 13 is_stmt 1 view .LVU1690
1167:../../Middlewares/LVGL/GUI/lvgl/src/draw/sw/lv_draw_sw_mask.c ****             c->cir_opa[cir_size] = 3 * 4 + x_fract[3];;
 4834              		.loc 1 1167 29 is_stmt 0 view .LVU1691
 4835 01c2 46F822A0 		str	r10, [r6, r2, lsl #2]
1168:../../Middlewares/LVGL/GUI/lvgl/src/draw/sw/lv_draw_sw_mask.c ****             c->cir_opa[cir_size] *= 16;
 4836              		.loc 1 1168 13 is_stmt 1 view .LVU1692
1168:../../Middlewares/LVGL/GUI/lvgl/src/draw/sw/lv_draw_sw_mask.c ****             c->cir_opa[cir_size] *= 16;
 4837              		.loc 1 1168 14 is_stmt 0 view .LVU1693
 4838 01c6 6968     		ldr	r1, [r5, #4]
1168:../../Middlewares/LVGL/GUI/lvgl/src/draw/sw/lv_draw_sw_mask.c ****             c->cir_opa[cir_size] *= 16;
 4839              		.loc 1 1168 42 view .LVU1694
 4840 01c8 049B     		ldr	r3, [sp, #16]
 4841 01ca 0C33     		adds	r3, r3, #12
1168:../../Middlewares/LVGL/GUI/lvgl/src/draw/sw/lv_draw_sw_mask.c ****             c->cir_opa[cir_size] *= 16;
 4842              		.loc 1 1168 34 view .LVU1695
 4843 01cc 8B54     		strb	r3, [r1, r2]
ARM GAS  C:\Users\28576\AppData\Local\Temp\ccagJBpt.s 			page 137


1168:../../Middlewares/LVGL/GUI/lvgl/src/draw/sw/lv_draw_sw_mask.c ****             c->cir_opa[cir_size] *= 16;
 4844              		.loc 1 1168 55 is_stmt 1 view .LVU1696
1169:../../Middlewares/LVGL/GUI/lvgl/src/draw/sw/lv_draw_sw_mask.c ****             cir_size++;
 4845              		.loc 1 1169 13 view .LVU1697
1169:../../Middlewares/LVGL/GUI/lvgl/src/draw/sw/lv_draw_sw_mask.c ****             cir_size++;
 4846              		.loc 1 1169 14 is_stmt 0 view .LVU1698
 4847 01ce 6968     		ldr	r1, [r5, #4]
1169:../../Middlewares/LVGL/GUI/lvgl/src/draw/sw/lv_draw_sw_mask.c ****             cir_size++;
 4848              		.loc 1 1169 23 view .LVU1699
 4849 01d0 8B5C     		ldrb	r3, [r1, r2]	@ zero_extendqisi2
1169:../../Middlewares/LVGL/GUI/lvgl/src/draw/sw/lv_draw_sw_mask.c ****             cir_size++;
 4850              		.loc 1 1169 34 view .LVU1700
 4851 01d2 1B01     		lsls	r3, r3, #4
 4852 01d4 8B54     		strb	r3, [r1, r2]
1170:../../Middlewares/LVGL/GUI/lvgl/src/draw/sw/lv_draw_sw_mask.c ****         }
 4853              		.loc 1 1170 13 is_stmt 1 view .LVU1701
1170:../../Middlewares/LVGL/GUI/lvgl/src/draw/sw/lv_draw_sw_mask.c ****         }
 4854              		.loc 1 1170 21 is_stmt 0 view .LVU1702
 4855 01d6 0234     		adds	r4, r4, #2
 4856 01d8 83E7     		b	.L325
 4857              	.LVL565:
 4858              	.L323:
1177:../../Middlewares/LVGL/GUI/lvgl/src/draw/sw/lv_draw_sw_mask.c ****     int32_t mid_int = mid >> 10;
 4859              		.loc 1 1177 5 is_stmt 1 view .LVU1703
1177:../../Middlewares/LVGL/GUI/lvgl/src/draw/sw/lv_draw_sw_mask.c ****     int32_t mid_int = mid >> 10;
 4860              		.loc 1 1177 13 is_stmt 0 view .LVU1704
 4861 01da 40F2D323 		movw	r3, #723
 4862 01de 03FB09F9 		mul	r9, r3, r9
 4863              	.LVL566:
1178:../../Middlewares/LVGL/GUI/lvgl/src/draw/sw/lv_draw_sw_mask.c ****     if(cir_x[cir_size - 1] != mid_int || cir_y[cir_size - 1] != mid_int) {
 4864              		.loc 1 1178 5 is_stmt 1 view .LVU1705
1178:../../Middlewares/LVGL/GUI/lvgl/src/draw/sw/lv_draw_sw_mask.c ****     if(cir_x[cir_size - 1] != mid_int || cir_y[cir_size - 1] != mid_int) {
 4865              		.loc 1 1178 13 is_stmt 0 view .LVU1706
 4866 01e2 4FEAA921 		asr	r1, r9, #10
 4867              	.LVL567:
1179:../../Middlewares/LVGL/GUI/lvgl/src/draw/sw/lv_draw_sw_mask.c ****         int32_t tmp_val = mid - (mid_int << 10);
 4868              		.loc 1 1179 5 is_stmt 1 view .LVU1707
1179:../../Middlewares/LVGL/GUI/lvgl/src/draw/sw/lv_draw_sw_mask.c ****         int32_t tmp_val = mid - (mid_int << 10);
 4869              		.loc 1 1179 23 is_stmt 0 view .LVU1708
 4870 01e6 2246     		mov	r2, r4
 4871 01e8 6FF04040 		mvn	r0, #-1073741824
 4872 01ec 2044     		add	r0, r0, r4
1179:../../Middlewares/LVGL/GUI/lvgl/src/draw/sw/lv_draw_sw_mask.c ****         int32_t tmp_val = mid - (mid_int << 10);
 4873              		.loc 1 1179 13 view .LVU1709
 4874 01ee 57F82030 		ldr	r3, [r7, r0, lsl #2]
1179:../../Middlewares/LVGL/GUI/lvgl/src/draw/sw/lv_draw_sw_mask.c ****         int32_t tmp_val = mid - (mid_int << 10);
 4875              		.loc 1 1179 7 view .LVU1710
 4876 01f2 B3EBA92F 		cmp	r3, r9, asr #10
 4877 01f6 15D0     		beq	.L348
 4878              	.LVL568:
 4879              	.L329:
 4880              	.LBB300:
1180:../../Middlewares/LVGL/GUI/lvgl/src/draw/sw/lv_draw_sw_mask.c ****         if(tmp_val <= 512) {
 4881              		.loc 1 1180 9 is_stmt 1 view .LVU1711
 4882 01f8 C9F30909 		ubfx	r9, r9, #0, #10
 4883              	.LVL569:
1181:../../Middlewares/LVGL/GUI/lvgl/src/draw/sw/lv_draw_sw_mask.c ****             tmp_val = tmp_val * tmp_val * 2;
ARM GAS  C:\Users\28576\AppData\Local\Temp\ccagJBpt.s 			page 138


 4884              		.loc 1 1181 9 view .LVU1712
1181:../../Middlewares/LVGL/GUI/lvgl/src/draw/sw/lv_draw_sw_mask.c ****             tmp_val = tmp_val * tmp_val * 2;
 4885              		.loc 1 1181 11 is_stmt 0 view .LVU1713
 4886 01fc B9F5007F 		cmp	r9, #512
 4887 0200 15DC     		bgt	.L331
1182:../../Middlewares/LVGL/GUI/lvgl/src/draw/sw/lv_draw_sw_mask.c ****             tmp_val = tmp_val >> (10 + 6);
 4888              		.loc 1 1182 13 is_stmt 1 view .LVU1714
1182:../../Middlewares/LVGL/GUI/lvgl/src/draw/sw/lv_draw_sw_mask.c ****             tmp_val = tmp_val >> (10 + 6);
 4889              		.loc 1 1182 31 is_stmt 0 view .LVU1715
 4890 0202 09FB09F9 		mul	r9, r9, r9
 4891              	.LVL570:
1183:../../Middlewares/LVGL/GUI/lvgl/src/draw/sw/lv_draw_sw_mask.c ****         }
 4892              		.loc 1 1183 13 is_stmt 1 view .LVU1716
1183:../../Middlewares/LVGL/GUI/lvgl/src/draw/sw/lv_draw_sw_mask.c ****         }
 4893              		.loc 1 1183 21 is_stmt 0 view .LVU1717
 4894 0206 4FEAE933 		asr	r3, r9, #15
 4895              	.LVL571:
 4896              	.L332:
1192:../../Middlewares/LVGL/GUI/lvgl/src/draw/sw/lv_draw_sw_mask.c ****         cir_y[cir_size] = mid_int;
 4897              		.loc 1 1192 9 is_stmt 1 view .LVU1718
1192:../../Middlewares/LVGL/GUI/lvgl/src/draw/sw/lv_draw_sw_mask.c ****         cir_y[cir_size] = mid_int;
 4898              		.loc 1 1192 25 is_stmt 0 view .LVU1719
 4899 020a 47F82210 		str	r1, [r7, r2, lsl #2]
1193:../../Middlewares/LVGL/GUI/lvgl/src/draw/sw/lv_draw_sw_mask.c ****         c->cir_opa[cir_size] = tmp_val;
 4900              		.loc 1 1193 9 is_stmt 1 view .LVU1720
1193:../../Middlewares/LVGL/GUI/lvgl/src/draw/sw/lv_draw_sw_mask.c ****         c->cir_opa[cir_size] = tmp_val;
 4901              		.loc 1 1193 25 is_stmt 0 view .LVU1721
 4902 020e 46F82210 		str	r1, [r6, r2, lsl #2]
1194:../../Middlewares/LVGL/GUI/lvgl/src/draw/sw/lv_draw_sw_mask.c ****         c->cir_opa[cir_size] *= 16;
 4903              		.loc 1 1194 9 is_stmt 1 view .LVU1722
1194:../../Middlewares/LVGL/GUI/lvgl/src/draw/sw/lv_draw_sw_mask.c ****         c->cir_opa[cir_size] *= 16;
 4904              		.loc 1 1194 10 is_stmt 0 view .LVU1723
 4905 0212 6968     		ldr	r1, [r5, #4]
 4906              	.LVL572:
1194:../../Middlewares/LVGL/GUI/lvgl/src/draw/sw/lv_draw_sw_mask.c ****         c->cir_opa[cir_size] *= 16;
 4907              		.loc 1 1194 30 view .LVU1724
 4908 0214 8B54     		strb	r3, [r1, r2]
 4909              	.LVL573:
1195:../../Middlewares/LVGL/GUI/lvgl/src/draw/sw/lv_draw_sw_mask.c ****         cir_size++;
 4910              		.loc 1 1195 9 is_stmt 1 view .LVU1725
1195:../../Middlewares/LVGL/GUI/lvgl/src/draw/sw/lv_draw_sw_mask.c ****         cir_size++;
 4911              		.loc 1 1195 10 is_stmt 0 view .LVU1726
 4912 0216 6968     		ldr	r1, [r5, #4]
1195:../../Middlewares/LVGL/GUI/lvgl/src/draw/sw/lv_draw_sw_mask.c ****         cir_size++;
 4913              		.loc 1 1195 19 view .LVU1727
 4914 0218 8B5C     		ldrb	r3, [r1, r2]	@ zero_extendqisi2
 4915              	.LVL574:
1195:../../Middlewares/LVGL/GUI/lvgl/src/draw/sw/lv_draw_sw_mask.c ****         cir_size++;
 4916              		.loc 1 1195 30 view .LVU1728
 4917 021a 1B01     		lsls	r3, r3, #4
 4918 021c 8B54     		strb	r3, [r1, r2]
1196:../../Middlewares/LVGL/GUI/lvgl/src/draw/sw/lv_draw_sw_mask.c ****     }
 4919              		.loc 1 1196 9 is_stmt 1 view .LVU1729
1196:../../Middlewares/LVGL/GUI/lvgl/src/draw/sw/lv_draw_sw_mask.c ****     }
 4920              		.loc 1 1196 17 is_stmt 0 view .LVU1730
 4921 021e 0134     		adds	r4, r4, #1
 4922              	.LVL575:
ARM GAS  C:\Users\28576\AppData\Local\Temp\ccagJBpt.s 			page 139


 4923              	.L330:
1196:../../Middlewares/LVGL/GUI/lvgl/src/draw/sw/lv_draw_sw_mask.c ****     }
 4924              		.loc 1 1196 17 view .LVU1731
 4925              	.LBE300:
1200:../../Middlewares/LVGL/GUI/lvgl/src/draw/sw/lv_draw_sw_mask.c ****         cir_x[cir_size] = cir_y[i];
 4926              		.loc 1 1200 5 is_stmt 1 view .LVU1732
1200:../../Middlewares/LVGL/GUI/lvgl/src/draw/sw/lv_draw_sw_mask.c ****         cir_x[cir_size] = cir_y[i];
 4927              		.loc 1 1200 11 is_stmt 0 view .LVU1733
 4928 0220 A31E     		subs	r3, r4, #2
 4929              	.LVL576:
1200:../../Middlewares/LVGL/GUI/lvgl/src/draw/sw/lv_draw_sw_mask.c ****         cir_x[cir_size] = cir_y[i];
 4930              		.loc 1 1200 5 view .LVU1734
 4931 0222 1AE0     		b	.L333
 4932              	.LVL577:
 4933              	.L348:
1179:../../Middlewares/LVGL/GUI/lvgl/src/draw/sw/lv_draw_sw_mask.c ****         int32_t tmp_val = mid - (mid_int << 10);
 4934              		.loc 1 1179 47 discriminator 1 view .LVU1735
 4935 0224 56F82030 		ldr	r3, [r6, r0, lsl #2]
1179:../../Middlewares/LVGL/GUI/lvgl/src/draw/sw/lv_draw_sw_mask.c ****         int32_t tmp_val = mid - (mid_int << 10);
 4936              		.loc 1 1179 39 discriminator 1 view .LVU1736
 4937 0228 8B42     		cmp	r3, r1
 4938 022a E5D1     		bne	.L329
 4939 022c F8E7     		b	.L330
 4940              	.LVL578:
 4941              	.L331:
 4942              	.LBB301:
1186:../../Middlewares/LVGL/GUI/lvgl/src/draw/sw/lv_draw_sw_mask.c ****             tmp_val = tmp_val * tmp_val * 2;
 4943              		.loc 1 1186 13 is_stmt 1 view .LVU1737
1186:../../Middlewares/LVGL/GUI/lvgl/src/draw/sw/lv_draw_sw_mask.c ****             tmp_val = tmp_val * tmp_val * 2;
 4944              		.loc 1 1186 21 is_stmt 0 view .LVU1738
 4945 022e C9F58069 		rsb	r9, r9, #1024
 4946              	.LVL579:
1187:../../Middlewares/LVGL/GUI/lvgl/src/draw/sw/lv_draw_sw_mask.c ****             tmp_val = tmp_val >> (10 + 6);
 4947              		.loc 1 1187 13 is_stmt 1 view .LVU1739
1187:../../Middlewares/LVGL/GUI/lvgl/src/draw/sw/lv_draw_sw_mask.c ****             tmp_val = tmp_val >> (10 + 6);
 4948              		.loc 1 1187 31 is_stmt 0 view .LVU1740
 4949 0232 09FB09F9 		mul	r9, r9, r9
 4950              	.LVL580:
1188:../../Middlewares/LVGL/GUI/lvgl/src/draw/sw/lv_draw_sw_mask.c ****             tmp_val = 15 - tmp_val;
 4951              		.loc 1 1188 13 is_stmt 1 view .LVU1741
1188:../../Middlewares/LVGL/GUI/lvgl/src/draw/sw/lv_draw_sw_mask.c ****             tmp_val = 15 - tmp_val;
 4952              		.loc 1 1188 21 is_stmt 0 view .LVU1742
 4953 0236 4FEAE933 		asr	r3, r9, #15
 4954              	.LVL581:
1189:../../Middlewares/LVGL/GUI/lvgl/src/draw/sw/lv_draw_sw_mask.c ****         }
 4955              		.loc 1 1189 13 is_stmt 1 view .LVU1743
1189:../../Middlewares/LVGL/GUI/lvgl/src/draw/sw/lv_draw_sw_mask.c ****         }
 4956              		.loc 1 1189 21 is_stmt 0 view .LVU1744
 4957 023a C3F10F03 		rsb	r3, r3, #15
 4958              	.LVL582:
1189:../../Middlewares/LVGL/GUI/lvgl/src/draw/sw/lv_draw_sw_mask.c ****         }
 4959              		.loc 1 1189 21 view .LVU1745
 4960 023e E4E7     		b	.L332
 4961              	.LVL583:
 4962              	.L334:
1189:../../Middlewares/LVGL/GUI/lvgl/src/draw/sw/lv_draw_sw_mask.c ****         }
 4963              		.loc 1 1189 21 view .LVU1746
ARM GAS  C:\Users\28576\AppData\Local\Temp\ccagJBpt.s 			page 140


 4964              	.LBE301:
1201:../../Middlewares/LVGL/GUI/lvgl/src/draw/sw/lv_draw_sw_mask.c ****         cir_y[cir_size] = cir_x[i];
 4965              		.loc 1 1201 9 is_stmt 1 view .LVU1747
1201:../../Middlewares/LVGL/GUI/lvgl/src/draw/sw/lv_draw_sw_mask.c ****         cir_y[cir_size] = cir_x[i];
 4966              		.loc 1 1201 32 is_stmt 0 view .LVU1748
 4967 0240 56F82320 		ldr	r2, [r6, r3, lsl #2]
1201:../../Middlewares/LVGL/GUI/lvgl/src/draw/sw/lv_draw_sw_mask.c ****         cir_y[cir_size] = cir_x[i];
 4968              		.loc 1 1201 25 view .LVU1749
 4969 0244 47F82420 		str	r2, [r7, r4, lsl #2]
1202:../../Middlewares/LVGL/GUI/lvgl/src/draw/sw/lv_draw_sw_mask.c ****         c->cir_opa[cir_size] = c->cir_opa[i];
 4970              		.loc 1 1202 9 is_stmt 1 view .LVU1750
1202:../../Middlewares/LVGL/GUI/lvgl/src/draw/sw/lv_draw_sw_mask.c ****         c->cir_opa[cir_size] = c->cir_opa[i];
 4971              		.loc 1 1202 32 is_stmt 0 view .LVU1751
 4972 0248 57F82320 		ldr	r2, [r7, r3, lsl #2]
1202:../../Middlewares/LVGL/GUI/lvgl/src/draw/sw/lv_draw_sw_mask.c ****         c->cir_opa[cir_size] = c->cir_opa[i];
 4973              		.loc 1 1202 25 view .LVU1752
 4974 024c 46F82420 		str	r2, [r6, r4, lsl #2]
1203:../../Middlewares/LVGL/GUI/lvgl/src/draw/sw/lv_draw_sw_mask.c ****     }
 4975              		.loc 1 1203 9 is_stmt 1 view .LVU1753
1203:../../Middlewares/LVGL/GUI/lvgl/src/draw/sw/lv_draw_sw_mask.c ****     }
 4976              		.loc 1 1203 33 is_stmt 0 view .LVU1754
 4977 0250 6A68     		ldr	r2, [r5, #4]
1203:../../Middlewares/LVGL/GUI/lvgl/src/draw/sw/lv_draw_sw_mask.c ****     }
 4978              		.loc 1 1203 42 view .LVU1755
 4979 0252 D15C     		ldrb	r1, [r2, r3]	@ zero_extendqisi2
1203:../../Middlewares/LVGL/GUI/lvgl/src/draw/sw/lv_draw_sw_mask.c ****     }
 4980              		.loc 1 1203 30 view .LVU1756
 4981 0254 1155     		strb	r1, [r2, r4]
1200:../../Middlewares/LVGL/GUI/lvgl/src/draw/sw/lv_draw_sw_mask.c ****         cir_x[cir_size] = cir_y[i];
 4982              		.loc 1 1200 38 is_stmt 1 discriminator 3 view .LVU1757
1200:../../Middlewares/LVGL/GUI/lvgl/src/draw/sw/lv_draw_sw_mask.c ****         cir_x[cir_size] = cir_y[i];
 4983              		.loc 1 1200 36 is_stmt 0 discriminator 3 view .LVU1758
 4984 0256 013B     		subs	r3, r3, #1
 4985              	.LVL584:
1200:../../Middlewares/LVGL/GUI/lvgl/src/draw/sw/lv_draw_sw_mask.c ****         cir_x[cir_size] = cir_y[i];
 4986              		.loc 1 1200 48 discriminator 3 view .LVU1759
 4987 0258 0134     		adds	r4, r4, #1
 4988              	.LVL585:
 4989              	.L333:
1200:../../Middlewares/LVGL/GUI/lvgl/src/draw/sw/lv_draw_sw_mask.c ****         cir_x[cir_size] = cir_y[i];
 4990              		.loc 1 1200 29 is_stmt 1 discriminator 1 view .LVU1760
 4991 025a 002B     		cmp	r3, #0
 4992 025c F0DA     		bge	.L334
1206:../../Middlewares/LVGL/GUI/lvgl/src/draw/sw/lv_draw_sw_mask.c ****     i = 0;
 4993              		.loc 1 1206 5 view .LVU1761
 4994              	.LVL586:
1207:../../Middlewares/LVGL/GUI/lvgl/src/draw/sw/lv_draw_sw_mask.c ****     c->opa_start_on_y[0] = 0;
 4995              		.loc 1 1207 5 view .LVU1762
1208:../../Middlewares/LVGL/GUI/lvgl/src/draw/sw/lv_draw_sw_mask.c ****     while(i < cir_size) {
 4996              		.loc 1 1208 5 view .LVU1763
1208:../../Middlewares/LVGL/GUI/lvgl/src/draw/sw/lv_draw_sw_mask.c ****     while(i < cir_size) {
 4997              		.loc 1 1208 6 is_stmt 0 view .LVU1764
 4998 025e EA68     		ldr	r2, [r5, #12]
1208:../../Middlewares/LVGL/GUI/lvgl/src/draw/sw/lv_draw_sw_mask.c ****     while(i < cir_size) {
 4999              		.loc 1 1208 26 view .LVU1765
 5000 0260 0023     		movs	r3, #0
 5001 0262 1380     		strh	r3, [r2]	@ movhi
ARM GAS  C:\Users\28576\AppData\Local\Temp\ccagJBpt.s 			page 141


1209:../../Middlewares/LVGL/GUI/lvgl/src/draw/sw/lv_draw_sw_mask.c ****         c->opa_start_on_y[y] = i;
 5002              		.loc 1 1209 5 is_stmt 1 view .LVU1766
1206:../../Middlewares/LVGL/GUI/lvgl/src/draw/sw/lv_draw_sw_mask.c ****     i = 0;
 5003              		.loc 1 1206 13 is_stmt 0 view .LVU1767
 5004 0264 9E46     		mov	lr, r3
1209:../../Middlewares/LVGL/GUI/lvgl/src/draw/sw/lv_draw_sw_mask.c ****         c->opa_start_on_y[y] = i;
 5005              		.loc 1 1209 10 view .LVU1768
 5006 0266 12E0     		b	.L335
 5007              	.LVL587:
 5008              	.L338:
1213:../../Middlewares/LVGL/GUI/lvgl/src/draw/sw/lv_draw_sw_mask.c ****         }
 5009              		.loc 1 1213 13 is_stmt 1 view .LVU1769
1213:../../Middlewares/LVGL/GUI/lvgl/src/draw/sw/lv_draw_sw_mask.c ****         }
 5010              		.loc 1 1213 34 is_stmt 0 view .LVU1770
 5011 0268 57F82300 		ldr	r0, [r7, r3, lsl #2]
 5012 026c A968     		ldr	r1, [r5, #8]
 5013 026e 31F80C20 		ldrh	r2, [r1, ip]
 5014 0272 8242     		cmp	r2, r0
 5015 0274 A8BF     		it	ge
 5016 0276 0246     		movge	r2, r0
1213:../../Middlewares/LVGL/GUI/lvgl/src/draw/sw/lv_draw_sw_mask.c ****         }
 5017              		.loc 1 1213 32 view .LVU1771
 5018 0278 21F80C20 		strh	r2, [r1, ip]	@ movhi
1212:../../Middlewares/LVGL/GUI/lvgl/src/draw/sw/lv_draw_sw_mask.c ****             c->x_start_on_y[y] = LV_MIN(c->x_start_on_y[y], cir_x[i]);
 5019              		.loc 1 1212 56 is_stmt 1 discriminator 3 view .LVU1772
 5020 027c 0133     		adds	r3, r3, #1
 5021              	.LVL588:
 5022              	.L336:
1212:../../Middlewares/LVGL/GUI/lvgl/src/draw/sw/lv_draw_sw_mask.c ****             c->x_start_on_y[y] = LV_MIN(c->x_start_on_y[y], cir_x[i]);
 5023              		.loc 1 1212 29 discriminator 1 view .LVU1773
1212:../../Middlewares/LVGL/GUI/lvgl/src/draw/sw/lv_draw_sw_mask.c ****             c->x_start_on_y[y] = LV_MIN(c->x_start_on_y[y], cir_x[i]);
 5024              		.loc 1 1212 20 is_stmt 0 discriminator 1 view .LVU1774
 5025 027e 56F82320 		ldr	r2, [r6, r3, lsl #2]
1212:../../Middlewares/LVGL/GUI/lvgl/src/draw/sw/lv_draw_sw_mask.c ****             c->x_start_on_y[y] = LV_MIN(c->x_start_on_y[y], cir_x[i]);
 5026              		.loc 1 1212 29 discriminator 1 view .LVU1775
 5027 0282 7245     		cmp	r2, lr
 5028 0284 01D1     		bne	.L337
1212:../../Middlewares/LVGL/GUI/lvgl/src/draw/sw/lv_draw_sw_mask.c ****             c->x_start_on_y[y] = LV_MIN(c->x_start_on_y[y], cir_x[i]);
 5029              		.loc 1 1212 29 discriminator 2 view .LVU1776
 5030 0286 A342     		cmp	r3, r4
 5031 0288 EEDB     		blt	.L338
 5032              	.L337:
1215:../../Middlewares/LVGL/GUI/lvgl/src/draw/sw/lv_draw_sw_mask.c ****     }
 5033              		.loc 1 1215 9 is_stmt 1 view .LVU1777
1215:../../Middlewares/LVGL/GUI/lvgl/src/draw/sw/lv_draw_sw_mask.c ****     }
 5034              		.loc 1 1215 10 is_stmt 0 view .LVU1778
 5035 028a 0EF1010E 		add	lr, lr, #1
 5036              	.LVL589:
 5037              	.L335:
1209:../../Middlewares/LVGL/GUI/lvgl/src/draw/sw/lv_draw_sw_mask.c ****         c->opa_start_on_y[y] = i;
 5038              		.loc 1 1209 13 is_stmt 1 view .LVU1779
 5039 028e A342     		cmp	r3, r4
 5040 0290 0ADA     		bge	.L349
1210:../../Middlewares/LVGL/GUI/lvgl/src/draw/sw/lv_draw_sw_mask.c ****         c->x_start_on_y[y] = cir_x[i];
 5041              		.loc 1 1210 9 view .LVU1780
1210:../../Middlewares/LVGL/GUI/lvgl/src/draw/sw/lv_draw_sw_mask.c ****         c->x_start_on_y[y] = cir_x[i];
 5042              		.loc 1 1210 10 is_stmt 0 view .LVU1781
ARM GAS  C:\Users\28576\AppData\Local\Temp\ccagJBpt.s 			page 142


 5043 0292 EA68     		ldr	r2, [r5, #12]
1210:../../Middlewares/LVGL/GUI/lvgl/src/draw/sw/lv_draw_sw_mask.c ****         c->x_start_on_y[y] = cir_x[i];
 5044              		.loc 1 1210 26 view .LVU1782
 5045 0294 4FEA4E0C 		lsl	ip, lr, #1
1210:../../Middlewares/LVGL/GUI/lvgl/src/draw/sw/lv_draw_sw_mask.c ****         c->x_start_on_y[y] = cir_x[i];
 5046              		.loc 1 1210 30 view .LVU1783
 5047 0298 22F81E30 		strh	r3, [r2, lr, lsl #1]	@ movhi
1211:../../Middlewares/LVGL/GUI/lvgl/src/draw/sw/lv_draw_sw_mask.c ****         for(; cir_y[i] == y && i < (int32_t)cir_size; i++) {
 5048              		.loc 1 1211 9 is_stmt 1 view .LVU1784
1211:../../Middlewares/LVGL/GUI/lvgl/src/draw/sw/lv_draw_sw_mask.c ****         for(; cir_y[i] == y && i < (int32_t)cir_size; i++) {
 5049              		.loc 1 1211 35 is_stmt 0 view .LVU1785
 5050 029c 57F82310 		ldr	r1, [r7, r3, lsl #2]
1211:../../Middlewares/LVGL/GUI/lvgl/src/draw/sw/lv_draw_sw_mask.c ****         for(; cir_y[i] == y && i < (int32_t)cir_size; i++) {
 5051              		.loc 1 1211 10 view .LVU1786
 5052 02a0 AA68     		ldr	r2, [r5, #8]
1211:../../Middlewares/LVGL/GUI/lvgl/src/draw/sw/lv_draw_sw_mask.c ****         for(; cir_y[i] == y && i < (int32_t)cir_size; i++) {
 5053              		.loc 1 1211 28 view .LVU1787
 5054 02a2 22F81E10 		strh	r1, [r2, lr, lsl #1]	@ movhi
1212:../../Middlewares/LVGL/GUI/lvgl/src/draw/sw/lv_draw_sw_mask.c ****             c->x_start_on_y[y] = LV_MIN(c->x_start_on_y[y], cir_x[i]);
 5055              		.loc 1 1212 9 is_stmt 1 view .LVU1788
 5056 02a6 EAE7     		b	.L336
 5057              	.L349:
1218:../../Middlewares/LVGL/GUI/lvgl/src/draw/sw/lv_draw_sw_mask.c **** }
 5058              		.loc 1 1218 5 view .LVU1789
 5059 02a8 3846     		mov	r0, r7
 5060 02aa FFF7FEFF 		bl	lv_free
 5061              	.LVL590:
1218:../../Middlewares/LVGL/GUI/lvgl/src/draw/sw/lv_draw_sw_mask.c **** }
 5062              		.loc 1 1218 5 is_stmt 0 view .LVU1790
 5063 02ae EAE6     		b	.L312
 5064              	.LVL591:
 5065              	.L343:
 5066              	.LCFI26:
 5067              		.cfi_def_cfa_offset 0
 5068              		.cfi_restore 4
 5069              		.cfi_restore 5
 5070              		.cfi_restore 6
 5071              		.cfi_restore 7
 5072              		.cfi_restore 8
 5073              		.cfi_restore 9
 5074              		.cfi_restore 10
 5075              		.cfi_restore 11
 5076              		.cfi_restore 14
1218:../../Middlewares/LVGL/GUI/lvgl/src/draw/sw/lv_draw_sw_mask.c **** }
 5077              		.loc 1 1218 5 view .LVU1791
 5078 02b0 7047     		bx	lr
 5079              		.cfi_endproc
 5080              	.LFE208:
 5082              		.section	.text.lv_draw_sw_mask_init,"ax",%progbits
 5083              		.align	1
 5084              		.global	lv_draw_sw_mask_init
 5085              		.syntax unified
 5086              		.thumb
 5087              		.thumb_func
 5089              	lv_draw_sw_mask_init:
 5090              	.LFB187:
  82:../../Middlewares/LVGL/GUI/lvgl/src/draw/sw/lv_draw_sw_mask.c ****     lv_mutex_init(&circle_cache_mutex);
ARM GAS  C:\Users\28576\AppData\Local\Temp\ccagJBpt.s 			page 143


 5091              		.loc 1 82 1 is_stmt 1 view -0
 5092              		.cfi_startproc
 5093              		@ args = 0, pretend = 0, frame = 0
 5094              		@ frame_needed = 0, uses_anonymous_args = 0
 5095              		@ link register save eliminated.
  83:../../Middlewares/LVGL/GUI/lvgl/src/draw/sw/lv_draw_sw_mask.c **** }
 5096              		.loc 1 83 5 view .LVU1793
  84:../../Middlewares/LVGL/GUI/lvgl/src/draw/sw/lv_draw_sw_mask.c **** 
 5097              		.loc 1 84 1 is_stmt 0 view .LVU1794
 5098 0000 7047     		bx	lr
 5099              		.cfi_endproc
 5100              	.LFE187:
 5102              		.section	.text.lv_draw_sw_mask_deinit,"ax",%progbits
 5103              		.align	1
 5104              		.global	lv_draw_sw_mask_deinit
 5105              		.syntax unified
 5106              		.thumb
 5107              		.thumb_func
 5109              	lv_draw_sw_mask_deinit:
 5110              	.LFB188:
  87:../../Middlewares/LVGL/GUI/lvgl/src/draw/sw/lv_draw_sw_mask.c ****     lv_mutex_delete(&circle_cache_mutex);
 5111              		.loc 1 87 1 is_stmt 1 view -0
 5112              		.cfi_startproc
 5113              		@ args = 0, pretend = 0, frame = 0
 5114              		@ frame_needed = 0, uses_anonymous_args = 0
 5115              		@ link register save eliminated.
  88:../../Middlewares/LVGL/GUI/lvgl/src/draw/sw/lv_draw_sw_mask.c **** }
 5116              		.loc 1 88 5 view .LVU1796
  89:../../Middlewares/LVGL/GUI/lvgl/src/draw/sw/lv_draw_sw_mask.c **** 
 5117              		.loc 1 89 1 is_stmt 0 view .LVU1797
 5118 0000 7047     		bx	lr
 5119              		.cfi_endproc
 5120              	.LFE188:
 5122              		.section	.text.lv_draw_sw_mask_apply,"ax",%progbits
 5123              		.align	1
 5124              		.global	lv_draw_sw_mask_apply
 5125              		.syntax unified
 5126              		.thumb
 5127              		.thumb_func
 5129              	lv_draw_sw_mask_apply:
 5130              	.LVL592:
 5131              	.LFB189:
  94:../../Middlewares/LVGL/GUI/lvgl/src/draw/sw/lv_draw_sw_mask.c ****     bool changed = false;
 5132              		.loc 1 94 1 is_stmt 1 view -0
 5133              		.cfi_startproc
 5134              		@ args = 4, pretend = 0, frame = 0
 5135              		@ frame_needed = 0, uses_anonymous_args = 0
  94:../../Middlewares/LVGL/GUI/lvgl/src/draw/sw/lv_draw_sw_mask.c ****     bool changed = false;
 5136              		.loc 1 94 1 is_stmt 0 view .LVU1799
 5137 0000 2DE9F04F 		push	{r4, r5, r6, r7, r8, r9, r10, fp, lr}
 5138              	.LCFI27:
 5139              		.cfi_def_cfa_offset 36
 5140              		.cfi_offset 4, -36
 5141              		.cfi_offset 5, -32
 5142              		.cfi_offset 6, -28
 5143              		.cfi_offset 7, -24
 5144              		.cfi_offset 8, -20
ARM GAS  C:\Users\28576\AppData\Local\Temp\ccagJBpt.s 			page 144


 5145              		.cfi_offset 9, -16
 5146              		.cfi_offset 10, -12
 5147              		.cfi_offset 11, -8
 5148              		.cfi_offset 14, -4
 5149 0004 83B0     		sub	sp, sp, #12
 5150              	.LCFI28:
 5151              		.cfi_def_cfa_offset 48
 5152 0006 0646     		mov	r6, r0
 5153 0008 8946     		mov	r9, r1
 5154 000a 9046     		mov	r8, r2
 5155 000c 1F46     		mov	r7, r3
 5156 000e DDF830A0 		ldr	r10, [sp, #48]
  95:../../Middlewares/LVGL/GUI/lvgl/src/draw/sw/lv_draw_sw_mask.c ****     lv_draw_sw_mask_common_dsc_t * dsc;
 5157              		.loc 1 95 5 is_stmt 1 view .LVU1800
 5158              	.LVL593:
  96:../../Middlewares/LVGL/GUI/lvgl/src/draw/sw/lv_draw_sw_mask.c **** 
 5159              		.loc 1 96 5 view .LVU1801
  98:../../Middlewares/LVGL/GUI/lvgl/src/draw/sw/lv_draw_sw_mask.c ****     for(i = 0; masks[i]; i++) {
 5160              		.loc 1 98 5 view .LVU1802
  99:../../Middlewares/LVGL/GUI/lvgl/src/draw/sw/lv_draw_sw_mask.c ****         dsc = masks[i];
 5161              		.loc 1 99 5 view .LVU1803
  99:../../Middlewares/LVGL/GUI/lvgl/src/draw/sw/lv_draw_sw_mask.c ****         dsc = masks[i];
 5162              		.loc 1 99 11 is_stmt 0 view .LVU1804
 5163 0012 0024     		movs	r4, #0
  95:../../Middlewares/LVGL/GUI/lvgl/src/draw/sw/lv_draw_sw_mask.c ****     lv_draw_sw_mask_common_dsc_t * dsc;
 5164              		.loc 1 95 10 view .LVU1805
 5165 0014 A346     		mov	fp, r4
  99:../../Middlewares/LVGL/GUI/lvgl/src/draw/sw/lv_draw_sw_mask.c ****         dsc = masks[i];
 5166              		.loc 1 99 5 view .LVU1806
 5167 0016 00E0     		b	.L353
 5168              	.LVL594:
 5169              	.L355:
  99:../../Middlewares/LVGL/GUI/lvgl/src/draw/sw/lv_draw_sw_mask.c ****         dsc = masks[i];
 5170              		.loc 1 99 27 is_stmt 1 discriminator 2 view .LVU1807
 5171 0018 0134     		adds	r4, r4, #1
 5172              	.LVL595:
 5173              	.L353:
  99:../../Middlewares/LVGL/GUI/lvgl/src/draw/sw/lv_draw_sw_mask.c ****         dsc = masks[i];
 5174              		.loc 1 99 16 discriminator 1 view .LVU1808
  99:../../Middlewares/LVGL/GUI/lvgl/src/draw/sw/lv_draw_sw_mask.c ****         dsc = masks[i];
 5175              		.loc 1 99 21 is_stmt 0 discriminator 1 view .LVU1809
 5176 001a 56F82430 		ldr	r3, [r6, r4, lsl #2]
  99:../../Middlewares/LVGL/GUI/lvgl/src/draw/sw/lv_draw_sw_mask.c ****         dsc = masks[i];
 5177              		.loc 1 99 16 discriminator 1 view .LVU1810
 5178 001e 6BB1     		cbz	r3, .L360
 5179              	.LBB302:
 100:../../Middlewares/LVGL/GUI/lvgl/src/draw/sw/lv_draw_sw_mask.c ****         lv_draw_sw_mask_res_t res = LV_DRAW_SW_MASK_RES_FULL_COVER;
 5180              		.loc 1 100 9 is_stmt 1 view .LVU1811
 5181              	.LVL596:
 101:../../Middlewares/LVGL/GUI/lvgl/src/draw/sw/lv_draw_sw_mask.c ****         res = dsc->cb(mask_buf, abs_x, abs_y, len, masks[i]);
 5182              		.loc 1 101 9 view .LVU1812
 102:../../Middlewares/LVGL/GUI/lvgl/src/draw/sw/lv_draw_sw_mask.c ****         if(res == LV_DRAW_SW_MASK_RES_TRANSP) return LV_DRAW_SW_MASK_RES_TRANSP;
 5183              		.loc 1 102 9 view .LVU1813
 102:../../Middlewares/LVGL/GUI/lvgl/src/draw/sw/lv_draw_sw_mask.c ****         if(res == LV_DRAW_SW_MASK_RES_TRANSP) return LV_DRAW_SW_MASK_RES_TRANSP;
 5184              		.loc 1 102 18 is_stmt 0 view .LVU1814
 5185 0020 1D68     		ldr	r5, [r3]
 102:../../Middlewares/LVGL/GUI/lvgl/src/draw/sw/lv_draw_sw_mask.c ****         if(res == LV_DRAW_SW_MASK_RES_TRANSP) return LV_DRAW_SW_MASK_RES_TRANSP;
ARM GAS  C:\Users\28576\AppData\Local\Temp\ccagJBpt.s 			page 145


 5186              		.loc 1 102 15 view .LVU1815
 5187 0022 0093     		str	r3, [sp]
 5188 0024 5346     		mov	r3, r10
 5189              	.LVL597:
 102:../../Middlewares/LVGL/GUI/lvgl/src/draw/sw/lv_draw_sw_mask.c ****         if(res == LV_DRAW_SW_MASK_RES_TRANSP) return LV_DRAW_SW_MASK_RES_TRANSP;
 5190              		.loc 1 102 15 view .LVU1816
 5191 0026 3A46     		mov	r2, r7
 5192 0028 4146     		mov	r1, r8
 5193 002a 4846     		mov	r0, r9
 5194 002c A847     		blx	r5
 5195              	.LVL598:
 103:../../Middlewares/LVGL/GUI/lvgl/src/draw/sw/lv_draw_sw_mask.c ****         else if(res == LV_DRAW_SW_MASK_RES_CHANGED) changed = true;
 5196              		.loc 1 103 9 is_stmt 1 view .LVU1817
 103:../../Middlewares/LVGL/GUI/lvgl/src/draw/sw/lv_draw_sw_mask.c ****         else if(res == LV_DRAW_SW_MASK_RES_CHANGED) changed = true;
 5197              		.loc 1 103 11 is_stmt 0 view .LVU1818
 5198 002e 0346     		mov	r3, r0
 5199 0030 40B1     		cbz	r0, .L354
 104:../../Middlewares/LVGL/GUI/lvgl/src/draw/sw/lv_draw_sw_mask.c ****     }
 5200              		.loc 1 104 14 is_stmt 1 view .LVU1819
 104:../../Middlewares/LVGL/GUI/lvgl/src/draw/sw/lv_draw_sw_mask.c ****     }
 5201              		.loc 1 104 16 is_stmt 0 view .LVU1820
 5202 0032 0228     		cmp	r0, #2
 5203 0034 F0D1     		bne	.L355
 104:../../Middlewares/LVGL/GUI/lvgl/src/draw/sw/lv_draw_sw_mask.c ****     }
 5204              		.loc 1 104 61 discriminator 1 view .LVU1821
 5205 0036 4FF0010B 		mov	fp, #1
 5206              	.LVL599:
 104:../../Middlewares/LVGL/GUI/lvgl/src/draw/sw/lv_draw_sw_mask.c ****     }
 5207              		.loc 1 104 61 discriminator 1 view .LVU1822
 5208 003a EDE7     		b	.L355
 5209              	.LVL600:
 5210              	.L360:
 104:../../Middlewares/LVGL/GUI/lvgl/src/draw/sw/lv_draw_sw_mask.c ****     }
 5211              		.loc 1 104 61 discriminator 1 view .LVU1823
 5212              	.LBE302:
 107:../../Middlewares/LVGL/GUI/lvgl/src/draw/sw/lv_draw_sw_mask.c **** }
 5213              		.loc 1 107 5 is_stmt 1 view .LVU1824
 107:../../Middlewares/LVGL/GUI/lvgl/src/draw/sw/lv_draw_sw_mask.c **** }
 5214              		.loc 1 107 50 is_stmt 0 view .LVU1825
 5215 003c BBF1000F 		cmp	fp, #0
 5216 0040 04D1     		bne	.L361
 107:../../Middlewares/LVGL/GUI/lvgl/src/draw/sw/lv_draw_sw_mask.c **** }
 5217              		.loc 1 107 50 discriminator 2 view .LVU1826
 5218 0042 0123     		movs	r3, #1
 5219              	.L354:
 108:../../Middlewares/LVGL/GUI/lvgl/src/draw/sw/lv_draw_sw_mask.c **** 
 5220              		.loc 1 108 1 view .LVU1827
 5221 0044 1846     		mov	r0, r3
 5222 0046 03B0     		add	sp, sp, #12
 5223              	.LCFI29:
 5224              		.cfi_remember_state
 5225              		.cfi_def_cfa_offset 36
 5226              		@ sp needed
 5227 0048 BDE8F08F 		pop	{r4, r5, r6, r7, r8, r9, r10, fp, pc}
 5228              	.LVL601:
 5229              	.L361:
 5230              	.LCFI30:
ARM GAS  C:\Users\28576\AppData\Local\Temp\ccagJBpt.s 			page 146


 5231              		.cfi_restore_state
 107:../../Middlewares/LVGL/GUI/lvgl/src/draw/sw/lv_draw_sw_mask.c **** }
 5232              		.loc 1 107 50 discriminator 1 view .LVU1828
 5233 004c 0223     		movs	r3, #2
 5234 004e F9E7     		b	.L354
 5235              		.cfi_endproc
 5236              	.LFE189:
 5238              		.section	.text.lv_draw_sw_mask_free_param,"ax",%progbits
 5239              		.align	1
 5240              		.global	lv_draw_sw_mask_free_param
 5241              		.syntax unified
 5242              		.thumb
 5243              		.thumb_func
 5245              	lv_draw_sw_mask_free_param:
 5246              	.LVL602:
 5247              	.LFB190:
 111:../../Middlewares/LVGL/GUI/lvgl/src/draw/sw/lv_draw_sw_mask.c ****     lv_mutex_lock(&circle_cache_mutex);
 5248              		.loc 1 111 1 is_stmt 1 view -0
 5249              		.cfi_startproc
 5250              		@ args = 0, pretend = 0, frame = 0
 5251              		@ frame_needed = 0, uses_anonymous_args = 0
 112:../../Middlewares/LVGL/GUI/lvgl/src/draw/sw/lv_draw_sw_mask.c ****     lv_draw_sw_mask_common_dsc_t * pdsc = p;
 5252              		.loc 1 112 5 view .LVU1830
 113:../../Middlewares/LVGL/GUI/lvgl/src/draw/sw/lv_draw_sw_mask.c ****     if(pdsc->type == LV_DRAW_SW_MASK_TYPE_RADIUS) {
 5253              		.loc 1 113 5 view .LVU1831
 114:../../Middlewares/LVGL/GUI/lvgl/src/draw/sw/lv_draw_sw_mask.c ****         lv_draw_sw_mask_radius_param_t * radius_p = (lv_draw_sw_mask_radius_param_t *) p;
 5254              		.loc 1 114 5 view .LVU1832
 114:../../Middlewares/LVGL/GUI/lvgl/src/draw/sw/lv_draw_sw_mask.c ****         lv_draw_sw_mask_radius_param_t * radius_p = (lv_draw_sw_mask_radius_param_t *) p;
 5255              		.loc 1 114 12 is_stmt 0 view .LVU1833
 5256 0000 0379     		ldrb	r3, [r0, #4]	@ zero_extendqisi2
 114:../../Middlewares/LVGL/GUI/lvgl/src/draw/sw/lv_draw_sw_mask.c ****         lv_draw_sw_mask_radius_param_t * radius_p = (lv_draw_sw_mask_radius_param_t *) p;
 5257              		.loc 1 114 7 view .LVU1834
 5258 0002 022B     		cmp	r3, #2
 5259 0004 00D0     		beq	.L369
 5260 0006 7047     		bx	lr
 5261              	.L369:
 111:../../Middlewares/LVGL/GUI/lvgl/src/draw/sw/lv_draw_sw_mask.c ****     lv_mutex_lock(&circle_cache_mutex);
 5262              		.loc 1 111 1 view .LVU1835
 5263 0008 10B5     		push	{r4, lr}
 5264              	.LCFI31:
 5265              		.cfi_def_cfa_offset 8
 5266              		.cfi_offset 4, -8
 5267              		.cfi_offset 14, -4
 5268 000a 0446     		mov	r4, r0
 5269              	.LBB303:
 115:../../Middlewares/LVGL/GUI/lvgl/src/draw/sw/lv_draw_sw_mask.c ****         if(radius_p->circle) {
 5270              		.loc 1 115 9 is_stmt 1 view .LVU1836
 5271              	.LVL603:
 116:../../Middlewares/LVGL/GUI/lvgl/src/draw/sw/lv_draw_sw_mask.c ****             if(radius_p->circle->life < 0) {
 5272              		.loc 1 116 9 view .LVU1837
 116:../../Middlewares/LVGL/GUI/lvgl/src/draw/sw/lv_draw_sw_mask.c ****             if(radius_p->circle->life < 0) {
 5273              		.loc 1 116 20 is_stmt 0 view .LVU1838
 5274 000c 036A     		ldr	r3, [r0, #32]
 116:../../Middlewares/LVGL/GUI/lvgl/src/draw/sw/lv_draw_sw_mask.c ****             if(radius_p->circle->life < 0) {
 5275              		.loc 1 116 11 view .LVU1839
 5276 000e 2BB1     		cbz	r3, .L362
 5277              	.LVL604:
ARM GAS  C:\Users\28576\AppData\Local\Temp\ccagJBpt.s 			page 147


 117:../../Middlewares/LVGL/GUI/lvgl/src/draw/sw/lv_draw_sw_mask.c ****                 lv_free(radius_p->circle->cir_opa);
 5278              		.loc 1 117 13 is_stmt 1 view .LVU1840
 117:../../Middlewares/LVGL/GUI/lvgl/src/draw/sw/lv_draw_sw_mask.c ****                 lv_free(radius_p->circle->cir_opa);
 5279              		.loc 1 117 32 is_stmt 0 view .LVU1841
 5280 0010 1A69     		ldr	r2, [r3, #16]
 117:../../Middlewares/LVGL/GUI/lvgl/src/draw/sw/lv_draw_sw_mask.c ****                 lv_free(radius_p->circle->cir_opa);
 5281              		.loc 1 117 15 view .LVU1842
 5282 0012 002A     		cmp	r2, #0
 5283 0014 03DB     		blt	.L370
 122:../../Middlewares/LVGL/GUI/lvgl/src/draw/sw/lv_draw_sw_mask.c ****             }
 5284              		.loc 1 122 17 is_stmt 1 view .LVU1843
 122:../../Middlewares/LVGL/GUI/lvgl/src/draw/sw/lv_draw_sw_mask.c ****             }
 5285              		.loc 1 122 33 is_stmt 0 view .LVU1844
 5286 0016 5A69     		ldr	r2, [r3, #20]
 122:../../Middlewares/LVGL/GUI/lvgl/src/draw/sw/lv_draw_sw_mask.c ****             }
 5287              		.loc 1 122 43 view .LVU1845
 5288 0018 013A     		subs	r2, r2, #1
 5289 001a 5A61     		str	r2, [r3, #20]
 5290              	.LBE303:
 127:../../Middlewares/LVGL/GUI/lvgl/src/draw/sw/lv_draw_sw_mask.c **** }
 5291              		.loc 1 127 5 is_stmt 1 view .LVU1846
 5292              	.LVL605:
 5293              	.L362:
 128:../../Middlewares/LVGL/GUI/lvgl/src/draw/sw/lv_draw_sw_mask.c **** 
 5294              		.loc 1 128 1 is_stmt 0 view .LVU1847
 5295 001c 10BD     		pop	{r4, pc}
 5296              	.LVL606:
 5297              	.L370:
 5298              	.LBB304:
 118:../../Middlewares/LVGL/GUI/lvgl/src/draw/sw/lv_draw_sw_mask.c ****                 lv_free(radius_p->circle);
 5299              		.loc 1 118 17 is_stmt 1 view .LVU1848
 5300 001e 5868     		ldr	r0, [r3, #4]
 5301              	.LVL607:
 118:../../Middlewares/LVGL/GUI/lvgl/src/draw/sw/lv_draw_sw_mask.c ****                 lv_free(radius_p->circle);
 5302              		.loc 1 118 17 is_stmt 0 view .LVU1849
 5303 0020 FFF7FEFF 		bl	lv_free
 5304              	.LVL608:
 119:../../Middlewares/LVGL/GUI/lvgl/src/draw/sw/lv_draw_sw_mask.c ****             }
 5305              		.loc 1 119 17 is_stmt 1 view .LVU1850
 5306 0024 206A     		ldr	r0, [r4, #32]
 5307 0026 FFF7FEFF 		bl	lv_free
 5308              	.LVL609:
 5309 002a F7E7     		b	.L362
 5310              	.LBE304:
 5311              		.cfi_endproc
 5312              	.LFE190:
 5314              		.section	.text.lv_draw_sw_mask_cleanup,"ax",%progbits
 5315              		.align	1
 5316              		.global	lv_draw_sw_mask_cleanup
 5317              		.syntax unified
 5318              		.thumb
 5319              		.thumb_func
 5321              	lv_draw_sw_mask_cleanup:
 5322              	.LFB191:
 131:../../Middlewares/LVGL/GUI/lvgl/src/draw/sw/lv_draw_sw_mask.c ****     uint8_t i;
 5323              		.loc 1 131 1 view -0
 5324              		.cfi_startproc
ARM GAS  C:\Users\28576\AppData\Local\Temp\ccagJBpt.s 			page 148


 5325              		@ args = 0, pretend = 0, frame = 0
 5326              		@ frame_needed = 0, uses_anonymous_args = 0
 5327 0000 38B5     		push	{r3, r4, r5, lr}
 5328              	.LCFI32:
 5329              		.cfi_def_cfa_offset 16
 5330              		.cfi_offset 3, -16
 5331              		.cfi_offset 4, -12
 5332              		.cfi_offset 5, -8
 5333              		.cfi_offset 14, -4
 132:../../Middlewares/LVGL/GUI/lvgl/src/draw/sw/lv_draw_sw_mask.c ****     for(i = 0; i < LV_DRAW_SW_CIRCLE_CACHE_SIZE; i++) {
 5334              		.loc 1 132 5 view .LVU1852
 133:../../Middlewares/LVGL/GUI/lvgl/src/draw/sw/lv_draw_sw_mask.c ****         if(_circle_cache[i].buf) {
 5335              		.loc 1 133 5 view .LVU1853
 5336              	.LVL610:
 133:../../Middlewares/LVGL/GUI/lvgl/src/draw/sw/lv_draw_sw_mask.c ****         if(_circle_cache[i].buf) {
 5337              		.loc 1 133 11 is_stmt 0 view .LVU1854
 5338 0002 0025     		movs	r5, #0
 133:../../Middlewares/LVGL/GUI/lvgl/src/draw/sw/lv_draw_sw_mask.c ****         if(_circle_cache[i].buf) {
 5339              		.loc 1 133 5 view .LVU1855
 5340 0004 0CE0     		b	.L372
 5341              	.LVL611:
 5342              	.L373:
 137:../../Middlewares/LVGL/GUI/lvgl/src/draw/sw/lv_draw_sw_mask.c ****     }
 5343              		.loc 1 137 9 is_stmt 1 view .LVU1856
 137:../../Middlewares/LVGL/GUI/lvgl/src/draw/sw/lv_draw_sw_mask.c ****     }
 5344              		.loc 1 137 20 is_stmt 0 view .LVU1857
 5345 0006 C4EBC404 		rsb	r4, r4, r4, lsl #3
 5346 000a A400     		lsls	r4, r4, #2
 5347 000c 04F5A474 		add	r4, r4, #328
 5348              	.LVL612:
 5349              	.LBB305:
 5350              	.LBI305:
  73:H:/STM32H7/RGB_LVGL/Middlewares/LVGL/GUI/lvgl/src/stdlib\lv_string.h **** {
 5351              		.loc 2 73 20 is_stmt 1 view .LVU1858
 5352              	.LBB306:
  75:H:/STM32H7/RGB_LVGL/Middlewares/LVGL/GUI/lvgl/src/stdlib\lv_string.h **** }
 5353              		.loc 2 75 5 view .LVU1859
 5354 0010 1C22     		movs	r2, #28
 5355 0012 0021     		movs	r1, #0
 5356 0014 0A48     		ldr	r0, .L377
 5357 0016 2044     		add	r0, r0, r4
 5358              	.LVL613:
  75:H:/STM32H7/RGB_LVGL/Middlewares/LVGL/GUI/lvgl/src/stdlib\lv_string.h **** }
 5359              		.loc 2 75 5 is_stmt 0 view .LVU1860
 5360 0018 FFF7FEFF 		bl	lv_memset
 5361              	.LVL614:
  75:H:/STM32H7/RGB_LVGL/Middlewares/LVGL/GUI/lvgl/src/stdlib\lv_string.h **** }
 5362              		.loc 2 75 5 view .LVU1861
 5363              	.LBE306:
 5364              	.LBE305:
 133:../../Middlewares/LVGL/GUI/lvgl/src/draw/sw/lv_draw_sw_mask.c ****         if(_circle_cache[i].buf) {
 5365              		.loc 1 133 51 is_stmt 1 discriminator 2 view .LVU1862
 5366 001c 0135     		adds	r5, r5, #1
 5367              	.LVL615:
 133:../../Middlewares/LVGL/GUI/lvgl/src/draw/sw/lv_draw_sw_mask.c ****         if(_circle_cache[i].buf) {
 5368              		.loc 1 133 51 is_stmt 0 discriminator 2 view .LVU1863
 5369 001e EDB2     		uxtb	r5, r5
ARM GAS  C:\Users\28576\AppData\Local\Temp\ccagJBpt.s 			page 149


 5370              	.LVL616:
 5371              	.L372:
 133:../../Middlewares/LVGL/GUI/lvgl/src/draw/sw/lv_draw_sw_mask.c ****         if(_circle_cache[i].buf) {
 5372              		.loc 1 133 18 is_stmt 1 discriminator 1 view .LVU1864
 5373 0020 032D     		cmp	r5, #3
 5374 0022 0CD8     		bhi	.L376
 134:../../Middlewares/LVGL/GUI/lvgl/src/draw/sw/lv_draw_sw_mask.c ****             lv_free(_circle_cache[i].buf);
 5375              		.loc 1 134 9 view .LVU1865
 134:../../Middlewares/LVGL/GUI/lvgl/src/draw/sw/lv_draw_sw_mask.c ****             lv_free(_circle_cache[i].buf);
 5376              		.loc 1 134 28 is_stmt 0 view .LVU1866
 5377 0024 2C46     		mov	r4, r5
 5378 0026 C5EBC502 		rsb	r2, r5, r5, lsl #3
 5379 002a 054B     		ldr	r3, .L377
 5380 002c 03EB8203 		add	r3, r3, r2, lsl #2
 5381 0030 D3F84801 		ldr	r0, [r3, #328]
 134:../../Middlewares/LVGL/GUI/lvgl/src/draw/sw/lv_draw_sw_mask.c ****             lv_free(_circle_cache[i].buf);
 5382              		.loc 1 134 11 view .LVU1867
 5383 0034 0028     		cmp	r0, #0
 5384 0036 E6D0     		beq	.L373
 135:../../Middlewares/LVGL/GUI/lvgl/src/draw/sw/lv_draw_sw_mask.c ****         }
 5385              		.loc 1 135 13 is_stmt 1 view .LVU1868
 5386 0038 FFF7FEFF 		bl	lv_free
 5387              	.LVL617:
 5388 003c E3E7     		b	.L373
 5389              	.L376:
 139:../../Middlewares/LVGL/GUI/lvgl/src/draw/sw/lv_draw_sw_mask.c **** 
 5390              		.loc 1 139 1 is_stmt 0 view .LVU1869
 5391 003e 38BD     		pop	{r3, r4, r5, pc}
 5392              	.LVL618:
 5393              	.L378:
 139:../../Middlewares/LVGL/GUI/lvgl/src/draw/sw/lv_draw_sw_mask.c **** 
 5394              		.loc 1 139 1 view .LVU1870
 5395              		.align	2
 5396              	.L377:
 5397 0040 00000000 		.word	lv_global
 5398              		.cfi_endproc
 5399              	.LFE191:
 5401              		.section	.text.lv_draw_sw_mask_line_points_init,"ax",%progbits
 5402              		.align	1
 5403              		.global	lv_draw_sw_mask_line_points_init
 5404              		.syntax unified
 5405              		.thumb
 5406              		.thumb_func
 5408              	lv_draw_sw_mask_line_points_init:
 5409              	.LVL619:
 5410              	.LFB192:
 144:../../Middlewares/LVGL/GUI/lvgl/src/draw/sw/lv_draw_sw_mask.c ****     lv_memzero(param, sizeof(lv_draw_sw_mask_line_param_t));
 5411              		.loc 1 144 1 is_stmt 1 view -0
 5412              		.cfi_startproc
 5413              		@ args = 8, pretend = 0, frame = 0
 5414              		@ frame_needed = 0, uses_anonymous_args = 0
 144:../../Middlewares/LVGL/GUI/lvgl/src/draw/sw/lv_draw_sw_mask.c ****     lv_memzero(param, sizeof(lv_draw_sw_mask_line_param_t));
 5415              		.loc 1 144 1 is_stmt 0 view .LVU1872
 5416 0000 2DE9F843 		push	{r3, r4, r5, r6, r7, r8, r9, lr}
 5417              	.LCFI33:
 5418              		.cfi_def_cfa_offset 32
 5419              		.cfi_offset 3, -32
ARM GAS  C:\Users\28576\AppData\Local\Temp\ccagJBpt.s 			page 150


 5420              		.cfi_offset 4, -28
 5421              		.cfi_offset 5, -24
 5422              		.cfi_offset 6, -20
 5423              		.cfi_offset 7, -16
 5424              		.cfi_offset 8, -12
 5425              		.cfi_offset 9, -8
 5426              		.cfi_offset 14, -4
 5427 0004 0446     		mov	r4, r0
 5428 0006 8846     		mov	r8, r1
 5429 0008 1546     		mov	r5, r2
 5430 000a 1F46     		mov	r7, r3
 5431 000c 089E     		ldr	r6, [sp, #32]
 5432 000e 9DF82490 		ldrb	r9, [sp, #36]	@ zero_extendqisi2
 145:../../Middlewares/LVGL/GUI/lvgl/src/draw/sw/lv_draw_sw_mask.c **** 
 5433              		.loc 1 145 5 is_stmt 1 view .LVU1873
 5434              	.LVL620:
 5435              	.LBB307:
 5436              	.LBI307:
  73:H:/STM32H7/RGB_LVGL/Middlewares/LVGL/GUI/lvgl/src/stdlib\lv_string.h **** {
 5437              		.loc 2 73 20 view .LVU1874
 5438              	.LBB308:
  75:H:/STM32H7/RGB_LVGL/Middlewares/LVGL/GUI/lvgl/src/stdlib\lv_string.h **** }
 5439              		.loc 2 75 5 view .LVU1875
 5440 0012 3822     		movs	r2, #56
 5441              	.LVL621:
  75:H:/STM32H7/RGB_LVGL/Middlewares/LVGL/GUI/lvgl/src/stdlib\lv_string.h **** }
 5442              		.loc 2 75 5 is_stmt 0 view .LVU1876
 5443 0014 0021     		movs	r1, #0
 5444              	.LVL622:
  75:H:/STM32H7/RGB_LVGL/Middlewares/LVGL/GUI/lvgl/src/stdlib\lv_string.h **** }
 5445              		.loc 2 75 5 view .LVU1877
 5446 0016 FFF7FEFF 		bl	lv_memset
 5447              	.LVL623:
  75:H:/STM32H7/RGB_LVGL/Middlewares/LVGL/GUI/lvgl/src/stdlib\lv_string.h **** }
 5448              		.loc 2 75 5 view .LVU1878
 5449              	.LBE308:
 5450              	.LBE307:
 147:../../Middlewares/LVGL/GUI/lvgl/src/draw/sw/lv_draw_sw_mask.c ****         p1y--;
 5451              		.loc 1 147 5 is_stmt 1 view .LVU1879
 147:../../Middlewares/LVGL/GUI/lvgl/src/draw/sw/lv_draw_sw_mask.c ****         p1y--;
 5452              		.loc 1 147 7 is_stmt 0 view .LVU1880
 5453 001a B542     		cmp	r5, r6
 5454 001c 08BF     		it	eq
 5455 001e B9F1030F 		cmpeq	r9, #3
 5456 0022 01D1     		bne	.L380
 148:../../Middlewares/LVGL/GUI/lvgl/src/draw/sw/lv_draw_sw_mask.c ****         p2y--;
 5457              		.loc 1 148 9 is_stmt 1 view .LVU1881
 148:../../Middlewares/LVGL/GUI/lvgl/src/draw/sw/lv_draw_sw_mask.c ****         p2y--;
 5458              		.loc 1 148 12 is_stmt 0 view .LVU1882
 5459 0024 013D     		subs	r5, r5, #1
 5460              	.LVL624:
 149:../../Middlewares/LVGL/GUI/lvgl/src/draw/sw/lv_draw_sw_mask.c ****     }
 5461              		.loc 1 149 9 is_stmt 1 view .LVU1883
 149:../../Middlewares/LVGL/GUI/lvgl/src/draw/sw/lv_draw_sw_mask.c ****     }
 5462              		.loc 1 149 12 is_stmt 0 view .LVU1884
 5463 0026 013E     		subs	r6, r6, #1
 5464              	.L380:
ARM GAS  C:\Users\28576\AppData\Local\Temp\ccagJBpt.s 			page 151


 5465              	.LVL625:
 152:../../Middlewares/LVGL/GUI/lvgl/src/draw/sw/lv_draw_sw_mask.c ****         int32_t t;
 5466              		.loc 1 152 5 is_stmt 1 view .LVU1885
 152:../../Middlewares/LVGL/GUI/lvgl/src/draw/sw/lv_draw_sw_mask.c ****         int32_t t;
 5467              		.loc 1 152 7 is_stmt 0 view .LVU1886
 5468 0028 B542     		cmp	r5, r6
 5469 002a 05DC     		bgt	.L381
 152:../../Middlewares/LVGL/GUI/lvgl/src/draw/sw/lv_draw_sw_mask.c ****         int32_t t;
 5470              		.loc 1 152 7 view .LVU1887
 5471 002c 3346     		mov	r3, r6
 5472 002e 2E46     		mov	r6, r5
 5473              	.LVL626:
 152:../../Middlewares/LVGL/GUI/lvgl/src/draw/sw/lv_draw_sw_mask.c ****         int32_t t;
 5474              		.loc 1 152 7 view .LVU1888
 5475 0030 1D46     		mov	r5, r3
 5476              	.LVL627:
 152:../../Middlewares/LVGL/GUI/lvgl/src/draw/sw/lv_draw_sw_mask.c ****         int32_t t;
 5477              		.loc 1 152 7 view .LVU1889
 5478 0032 3B46     		mov	r3, r7
 5479              	.LVL628:
 152:../../Middlewares/LVGL/GUI/lvgl/src/draw/sw/lv_draw_sw_mask.c ****         int32_t t;
 5480              		.loc 1 152 7 view .LVU1890
 5481 0034 4746     		mov	r7, r8
 5482              	.LVL629:
 152:../../Middlewares/LVGL/GUI/lvgl/src/draw/sw/lv_draw_sw_mask.c ****         int32_t t;
 5483              		.loc 1 152 7 view .LVU1891
 5484 0036 9846     		mov	r8, r3
 5485              	.LVL630:
 5486              	.L381:
 163:../../Middlewares/LVGL/GUI/lvgl/src/draw/sw/lv_draw_sw_mask.c ****     lv_point_set(&param->cfg.p2, p2x, p2y);
 5487              		.loc 1 163 5 is_stmt 1 view .LVU1892
 5488 0038 3246     		mov	r2, r6
 5489 003a 3946     		mov	r1, r7
 5490 003c 04F10800 		add	r0, r4, #8
 5491 0040 FFF7FEFF 		bl	lv_point_set
 5492              	.LVL631:
 164:../../Middlewares/LVGL/GUI/lvgl/src/draw/sw/lv_draw_sw_mask.c ****     param->cfg.side = side;
 5493              		.loc 1 164 5 view .LVU1893
 5494 0044 2A46     		mov	r2, r5
 5495 0046 4146     		mov	r1, r8
 5496 0048 04F11000 		add	r0, r4, #16
 5497 004c FFF7FEFF 		bl	lv_point_set
 5498              	.LVL632:
 165:../../Middlewares/LVGL/GUI/lvgl/src/draw/sw/lv_draw_sw_mask.c **** 
 5499              		.loc 1 165 5 view .LVU1894
 165:../../Middlewares/LVGL/GUI/lvgl/src/draw/sw/lv_draw_sw_mask.c **** 
 5500              		.loc 1 165 21 is_stmt 0 view .LVU1895
 5501 0050 237E     		ldrb	r3, [r4, #24]	@ zero_extendqisi2
 5502 0052 69F30203 		bfi	r3, r9, #0, #3
 5503 0056 2376     		strb	r3, [r4, #24]
 167:../../Middlewares/LVGL/GUI/lvgl/src/draw/sw/lv_draw_sw_mask.c ****     param->flat = (LV_ABS(p2x - p1x) > LV_ABS(p2y - p1y)) ? 1 : 0;
 5504              		.loc 1 167 5 is_stmt 1 view .LVU1896
 5505 0058 3246     		mov	r2, r6
 5506 005a 3946     		mov	r1, r7
 5507 005c 04F11C00 		add	r0, r4, #28
 5508 0060 FFF7FEFF 		bl	lv_point_set
 5509              	.LVL633:
ARM GAS  C:\Users\28576\AppData\Local\Temp\ccagJBpt.s 			page 152


 168:../../Middlewares/LVGL/GUI/lvgl/src/draw/sw/lv_draw_sw_mask.c ****     param->yx_steep = 0;
 5510              		.loc 1 168 5 view .LVU1897
 168:../../Middlewares/LVGL/GUI/lvgl/src/draw/sw/lv_draw_sw_mask.c ****     param->yx_steep = 0;
 5511              		.loc 1 168 20 is_stmt 0 view .LVU1898
 5512 0064 A8EB0707 		sub	r7, r8, r7
 5513              	.LVL634:
 168:../../Middlewares/LVGL/GUI/lvgl/src/draw/sw/lv_draw_sw_mask.c ****     param->yx_steep = 0;
 5514              		.loc 1 168 20 view .LVU1899
 5515 0068 87EAE773 		eor	r3, r7, r7, asr #31
 5516 006c A3EBE773 		sub	r3, r3, r7, asr #31
 168:../../Middlewares/LVGL/GUI/lvgl/src/draw/sw/lv_draw_sw_mask.c ****     param->yx_steep = 0;
 5517              		.loc 1 168 40 view .LVU1900
 5518 0070 AD1B     		subs	r5, r5, r6
 5519              	.LVL635:
 168:../../Middlewares/LVGL/GUI/lvgl/src/draw/sw/lv_draw_sw_mask.c ****     param->yx_steep = 0;
 5520              		.loc 1 168 40 view .LVU1901
 5521 0072 85EAE572 		eor	r2, r5, r5, asr #31
 5522 0076 A2EBE572 		sub	r2, r2, r5, asr #31
 168:../../Middlewares/LVGL/GUI/lvgl/src/draw/sw/lv_draw_sw_mask.c ****     param->yx_steep = 0;
 5523              		.loc 1 168 63 view .LVU1902
 5524 007a 9342     		cmp	r3, r2
 5525 007c D4BF     		ite	le
 5526 007e 0023     		movle	r3, #0
 5527 0080 0123     		movgt	r3, #1
 168:../../Middlewares/LVGL/GUI/lvgl/src/draw/sw/lv_draw_sw_mask.c ****     param->yx_steep = 0;
 5528              		.loc 1 168 17 view .LVU1903
 5529 0082 94F83420 		ldrb	r2, [r4, #52]	@ zero_extendqisi2
 5530 0086 63F30002 		bfi	r2, r3, #0, #1
 5531 008a 84F83420 		strb	r2, [r4, #52]
 169:../../Middlewares/LVGL/GUI/lvgl/src/draw/sw/lv_draw_sw_mask.c ****     param->xy_steep = 0;
 5532              		.loc 1 169 5 is_stmt 1 view .LVU1904
 169:../../Middlewares/LVGL/GUI/lvgl/src/draw/sw/lv_draw_sw_mask.c ****     param->xy_steep = 0;
 5533              		.loc 1 169 21 is_stmt 0 view .LVU1905
 5534 008e 0023     		movs	r3, #0
 5535 0090 A362     		str	r3, [r4, #40]
 170:../../Middlewares/LVGL/GUI/lvgl/src/draw/sw/lv_draw_sw_mask.c ****     param->dsc.cb = (lv_draw_sw_mask_xcb_t)lv_draw_mask_line;
 5536              		.loc 1 170 5 is_stmt 1 view .LVU1906
 170:../../Middlewares/LVGL/GUI/lvgl/src/draw/sw/lv_draw_sw_mask.c ****     param->dsc.cb = (lv_draw_sw_mask_xcb_t)lv_draw_mask_line;
 5537              		.loc 1 170 21 is_stmt 0 view .LVU1907
 5538 0092 6362     		str	r3, [r4, #36]
 171:../../Middlewares/LVGL/GUI/lvgl/src/draw/sw/lv_draw_sw_mask.c ****     param->dsc.type = LV_DRAW_SW_MASK_TYPE_LINE;
 5539              		.loc 1 171 5 is_stmt 1 view .LVU1908
 171:../../Middlewares/LVGL/GUI/lvgl/src/draw/sw/lv_draw_sw_mask.c ****     param->dsc.type = LV_DRAW_SW_MASK_TYPE_LINE;
 5540              		.loc 1 171 19 is_stmt 0 view .LVU1909
 5541 0094 394A     		ldr	r2, .L399
 5542 0096 2260     		str	r2, [r4]
 172:../../Middlewares/LVGL/GUI/lvgl/src/draw/sw/lv_draw_sw_mask.c **** 
 5543              		.loc 1 172 5 is_stmt 1 view .LVU1910
 172:../../Middlewares/LVGL/GUI/lvgl/src/draw/sw/lv_draw_sw_mask.c **** 
 5544              		.loc 1 172 21 is_stmt 0 view .LVU1911
 5545 0098 2371     		strb	r3, [r4, #4]
 174:../../Middlewares/LVGL/GUI/lvgl/src/draw/sw/lv_draw_sw_mask.c ****     int32_t dy = p2y - p1y;
 5546              		.loc 1 174 5 is_stmt 1 view .LVU1912
 5547              	.LVL636:
 175:../../Middlewares/LVGL/GUI/lvgl/src/draw/sw/lv_draw_sw_mask.c **** 
 5548              		.loc 1 175 5 view .LVU1913
 177:../../Middlewares/LVGL/GUI/lvgl/src/draw/sw/lv_draw_sw_mask.c ****         /*Normalize the steep. Delta x should be relative to delta x = 1024*/
ARM GAS  C:\Users\28576\AppData\Local\Temp\ccagJBpt.s 			page 153


 5549              		.loc 1 177 5 view .LVU1914
 177:../../Middlewares/LVGL/GUI/lvgl/src/draw/sw/lv_draw_sw_mask.c ****         /*Normalize the steep. Delta x should be relative to delta x = 1024*/
 5550              		.loc 1 177 8 is_stmt 0 view .LVU1915
 5551 009a 94F83430 		ldrb	r3, [r4, #52]	@ zero_extendqisi2
 177:../../Middlewares/LVGL/GUI/lvgl/src/draw/sw/lv_draw_sw_mask.c ****         /*Normalize the steep. Delta x should be relative to delta x = 1024*/
 5552              		.loc 1 177 7 view .LVU1916
 5553 009e 13F0010F 		tst	r3, #1
 5554 00a2 24D0     		beq	.L382
 5555              	.LBB309:
 179:../../Middlewares/LVGL/GUI/lvgl/src/draw/sw/lv_draw_sw_mask.c **** 
 5556              		.loc 1 179 9 is_stmt 1 view .LVU1917
 181:../../Middlewares/LVGL/GUI/lvgl/src/draw/sw/lv_draw_sw_mask.c ****             m = (1L << 20) / dx;  /*m is multiplier to normalize y (upscaled by 1024)*/
 5557              		.loc 1 181 9 view .LVU1918
 181:../../Middlewares/LVGL/GUI/lvgl/src/draw/sw/lv_draw_sw_mask.c ****             m = (1L << 20) / dx;  /*m is multiplier to normalize y (upscaled by 1024)*/
 5558              		.loc 1 181 11 is_stmt 0 view .LVU1919
 5559 00a4 3FB1     		cbz	r7, .L383
 182:../../Middlewares/LVGL/GUI/lvgl/src/draw/sw/lv_draw_sw_mask.c ****             param->yx_steep = (m * dy) >> 10;
 5560              		.loc 1 182 13 is_stmt 1 view .LVU1920
 182:../../Middlewares/LVGL/GUI/lvgl/src/draw/sw/lv_draw_sw_mask.c ****             param->yx_steep = (m * dy) >> 10;
 5561              		.loc 1 182 15 is_stmt 0 view .LVU1921
 5562 00a6 4FF48013 		mov	r3, #1048576
 5563 00aa 93FBF7F3 		sdiv	r3, r3, r7
 5564              	.LVL637:
 183:../../Middlewares/LVGL/GUI/lvgl/src/draw/sw/lv_draw_sw_mask.c ****         }
 5565              		.loc 1 183 13 is_stmt 1 view .LVU1922
 183:../../Middlewares/LVGL/GUI/lvgl/src/draw/sw/lv_draw_sw_mask.c ****         }
 5566              		.loc 1 183 34 is_stmt 0 view .LVU1923
 5567 00ae 05FB03F3 		mul	r3, r5, r3
 5568              	.LVL638:
 183:../../Middlewares/LVGL/GUI/lvgl/src/draw/sw/lv_draw_sw_mask.c ****         }
 5569              		.loc 1 183 40 view .LVU1924
 5570 00b2 9B12     		asrs	r3, r3, #10
 183:../../Middlewares/LVGL/GUI/lvgl/src/draw/sw/lv_draw_sw_mask.c ****         }
 5571              		.loc 1 183 29 view .LVU1925
 5572 00b4 A362     		str	r3, [r4, #40]
 5573              	.LVL639:
 5574              	.L383:
 186:../../Middlewares/LVGL/GUI/lvgl/src/draw/sw/lv_draw_sw_mask.c ****             m = (1L << 20) / dy;  /*m is multiplier to normalize x (upscaled by 1024)*/
 5575              		.loc 1 186 9 is_stmt 1 view .LVU1926
 186:../../Middlewares/LVGL/GUI/lvgl/src/draw/sw/lv_draw_sw_mask.c ****             m = (1L << 20) / dy;  /*m is multiplier to normalize x (upscaled by 1024)*/
 5576              		.loc 1 186 11 is_stmt 0 view .LVU1927
 5577 00b6 3DB1     		cbz	r5, .L384
 187:../../Middlewares/LVGL/GUI/lvgl/src/draw/sw/lv_draw_sw_mask.c ****             param->xy_steep = (m * dx) >> 10;
 5578              		.loc 1 187 13 is_stmt 1 view .LVU1928
 187:../../Middlewares/LVGL/GUI/lvgl/src/draw/sw/lv_draw_sw_mask.c ****             param->xy_steep = (m * dx) >> 10;
 5579              		.loc 1 187 15 is_stmt 0 view .LVU1929
 5580 00b8 4FF48013 		mov	r3, #1048576
 5581 00bc 93FBF5F3 		sdiv	r3, r3, r5
 5582              	.LVL640:
 188:../../Middlewares/LVGL/GUI/lvgl/src/draw/sw/lv_draw_sw_mask.c ****         }
 5583              		.loc 1 188 13 is_stmt 1 view .LVU1930
 188:../../Middlewares/LVGL/GUI/lvgl/src/draw/sw/lv_draw_sw_mask.c ****         }
 5584              		.loc 1 188 34 is_stmt 0 view .LVU1931
 5585 00c0 07FB03F3 		mul	r3, r7, r3
 5586              	.LVL641:
 188:../../Middlewares/LVGL/GUI/lvgl/src/draw/sw/lv_draw_sw_mask.c ****         }
 5587              		.loc 1 188 40 view .LVU1932
ARM GAS  C:\Users\28576\AppData\Local\Temp\ccagJBpt.s 			page 154


 5588 00c4 9B12     		asrs	r3, r3, #10
 188:../../Middlewares/LVGL/GUI/lvgl/src/draw/sw/lv_draw_sw_mask.c ****         }
 5589              		.loc 1 188 29 view .LVU1933
 5590 00c6 6362     		str	r3, [r4, #36]
 5591              	.LVL642:
 5592              	.L384:
 190:../../Middlewares/LVGL/GUI/lvgl/src/draw/sw/lv_draw_sw_mask.c ****     }
 5593              		.loc 1 190 9 is_stmt 1 view .LVU1934
 190:../../Middlewares/LVGL/GUI/lvgl/src/draw/sw/lv_draw_sw_mask.c ****     }
 5594              		.loc 1 190 29 is_stmt 0 view .LVU1935
 5595 00c8 A36A     		ldr	r3, [r4, #40]
 190:../../Middlewares/LVGL/GUI/lvgl/src/draw/sw/lv_draw_sw_mask.c ****     }
 5596              		.loc 1 190 22 view .LVU1936
 5597 00ca E362     		str	r3, [r4, #44]
 5598              	.LVL643:
 5599              	.L385:
 190:../../Middlewares/LVGL/GUI/lvgl/src/draw/sw/lv_draw_sw_mask.c ****     }
 5600              		.loc 1 190 22 view .LVU1937
 5601              	.LBE309:
 208:../../Middlewares/LVGL/GUI/lvgl/src/draw/sw/lv_draw_sw_mask.c ****     else if(param->cfg.side == LV_DRAW_SW_MASK_LINE_SIDE_RIGHT) param->inv = 1;
 5602              		.loc 1 208 5 is_stmt 1 view .LVU1938
 208:../../Middlewares/LVGL/GUI/lvgl/src/draw/sw/lv_draw_sw_mask.c ****     else if(param->cfg.side == LV_DRAW_SW_MASK_LINE_SIDE_RIGHT) param->inv = 1;
 5603              		.loc 1 208 24 is_stmt 0 view .LVU1939
 5604 00cc 237E     		ldrb	r3, [r4, #24]	@ zero_extendqisi2
 208:../../Middlewares/LVGL/GUI/lvgl/src/draw/sw/lv_draw_sw_mask.c ****     else if(param->cfg.side == LV_DRAW_SW_MASK_LINE_SIDE_RIGHT) param->inv = 1;
 5605              		.loc 1 208 7 view .LVU1940
 5606 00ce 13F00703 		ands	r3, r3, #7
 5607 00d2 21D1     		bne	.L388
 208:../../Middlewares/LVGL/GUI/lvgl/src/draw/sw/lv_draw_sw_mask.c ****     else if(param->cfg.side == LV_DRAW_SW_MASK_LINE_SIDE_RIGHT) param->inv = 1;
 5608              		.loc 1 208 59 is_stmt 1 discriminator 1 view .LVU1941
 208:../../Middlewares/LVGL/GUI/lvgl/src/draw/sw/lv_draw_sw_mask.c ****     else if(param->cfg.side == LV_DRAW_SW_MASK_LINE_SIDE_RIGHT) param->inv = 1;
 5609              		.loc 1 208 70 is_stmt 0 discriminator 1 view .LVU1942
 5610 00d4 94F83430 		ldrb	r3, [r4, #52]	@ zero_extendqisi2
 5611 00d8 23F00203 		bic	r3, r3, #2
 5612 00dc 84F83430 		strb	r3, [r4, #52]
 5613              	.L389:
 219:../../Middlewares/LVGL/GUI/lvgl/src/draw/sw/lv_draw_sw_mask.c ****     if(param->steep < 0) param->spx = -param->spx;
 5614              		.loc 1 219 5 is_stmt 1 view .LVU1943
 219:../../Middlewares/LVGL/GUI/lvgl/src/draw/sw/lv_draw_sw_mask.c ****     if(param->steep < 0) param->spx = -param->spx;
 5615              		.loc 1 219 23 is_stmt 0 view .LVU1944
 5616 00e0 E26A     		ldr	r2, [r4, #44]
 219:../../Middlewares/LVGL/GUI/lvgl/src/draw/sw/lv_draw_sw_mask.c ****     if(param->steep < 0) param->spx = -param->spx;
 5617              		.loc 1 219 31 view .LVU1945
 5618 00e2 9310     		asrs	r3, r2, #2
 219:../../Middlewares/LVGL/GUI/lvgl/src/draw/sw/lv_draw_sw_mask.c ****     if(param->steep < 0) param->spx = -param->spx;
 5619              		.loc 1 219 16 view .LVU1946
 5620 00e4 2363     		str	r3, [r4, #48]
 220:../../Middlewares/LVGL/GUI/lvgl/src/draw/sw/lv_draw_sw_mask.c **** }
 5621              		.loc 1 220 5 is_stmt 1 view .LVU1947
 220:../../Middlewares/LVGL/GUI/lvgl/src/draw/sw/lv_draw_sw_mask.c **** }
 5622              		.loc 1 220 7 is_stmt 0 view .LVU1948
 5623 00e6 002A     		cmp	r2, #0
 5624 00e8 45DB     		blt	.L396
 5625              	.L379:
 221:../../Middlewares/LVGL/GUI/lvgl/src/draw/sw/lv_draw_sw_mask.c **** 
 5626              		.loc 1 221 1 view .LVU1949
 5627 00ea BDE8F883 		pop	{r3, r4, r5, r6, r7, r8, r9, pc}
ARM GAS  C:\Users\28576\AppData\Local\Temp\ccagJBpt.s 			page 155


 5628              	.LVL644:
 5629              	.L382:
 5630              	.LBB310:
 194:../../Middlewares/LVGL/GUI/lvgl/src/draw/sw/lv_draw_sw_mask.c **** 
 5631              		.loc 1 194 9 is_stmt 1 view .LVU1950
 196:../../Middlewares/LVGL/GUI/lvgl/src/draw/sw/lv_draw_sw_mask.c ****             m = (1L << 20) / dy;  /*m is multiplier to normalize x (upscaled by 1024)*/
 5632              		.loc 1 196 9 view .LVU1951
 196:../../Middlewares/LVGL/GUI/lvgl/src/draw/sw/lv_draw_sw_mask.c ****             m = (1L << 20) / dy;  /*m is multiplier to normalize x (upscaled by 1024)*/
 5633              		.loc 1 196 11 is_stmt 0 view .LVU1952
 5634 00ee 3DB1     		cbz	r5, .L386
 197:../../Middlewares/LVGL/GUI/lvgl/src/draw/sw/lv_draw_sw_mask.c ****             param->xy_steep = (m * dx) >> 10;
 5635              		.loc 1 197 13 is_stmt 1 view .LVU1953
 197:../../Middlewares/LVGL/GUI/lvgl/src/draw/sw/lv_draw_sw_mask.c ****             param->xy_steep = (m * dx) >> 10;
 5636              		.loc 1 197 15 is_stmt 0 view .LVU1954
 5637 00f0 4FF48013 		mov	r3, #1048576
 5638 00f4 93FBF5F3 		sdiv	r3, r3, r5
 5639              	.LVL645:
 198:../../Middlewares/LVGL/GUI/lvgl/src/draw/sw/lv_draw_sw_mask.c ****         }
 5640              		.loc 1 198 13 is_stmt 1 view .LVU1955
 198:../../Middlewares/LVGL/GUI/lvgl/src/draw/sw/lv_draw_sw_mask.c ****         }
 5641              		.loc 1 198 34 is_stmt 0 view .LVU1956
 5642 00f8 07FB03F3 		mul	r3, r7, r3
 5643              	.LVL646:
 198:../../Middlewares/LVGL/GUI/lvgl/src/draw/sw/lv_draw_sw_mask.c ****         }
 5644              		.loc 1 198 40 view .LVU1957
 5645 00fc 9B12     		asrs	r3, r3, #10
 198:../../Middlewares/LVGL/GUI/lvgl/src/draw/sw/lv_draw_sw_mask.c ****         }
 5646              		.loc 1 198 29 view .LVU1958
 5647 00fe 6362     		str	r3, [r4, #36]
 5648              	.LVL647:
 5649              	.L386:
 201:../../Middlewares/LVGL/GUI/lvgl/src/draw/sw/lv_draw_sw_mask.c ****             m = (1L << 20) / dx;  /*m is multiplier to normalize x (upscaled by 1024)*/
 5650              		.loc 1 201 9 is_stmt 1 view .LVU1959
 201:../../Middlewares/LVGL/GUI/lvgl/src/draw/sw/lv_draw_sw_mask.c ****             m = (1L << 20) / dx;  /*m is multiplier to normalize x (upscaled by 1024)*/
 5651              		.loc 1 201 11 is_stmt 0 view .LVU1960
 5652 0100 3FB1     		cbz	r7, .L387
 202:../../Middlewares/LVGL/GUI/lvgl/src/draw/sw/lv_draw_sw_mask.c ****             param->yx_steep = (m * dy) >> 10;
 5653              		.loc 1 202 13 is_stmt 1 view .LVU1961
 202:../../Middlewares/LVGL/GUI/lvgl/src/draw/sw/lv_draw_sw_mask.c ****             param->yx_steep = (m * dy) >> 10;
 5654              		.loc 1 202 15 is_stmt 0 view .LVU1962
 5655 0102 4FF48013 		mov	r3, #1048576
 5656 0106 93FBF7F3 		sdiv	r3, r3, r7
 5657              	.LVL648:
 203:../../Middlewares/LVGL/GUI/lvgl/src/draw/sw/lv_draw_sw_mask.c ****         }
 5658              		.loc 1 203 13 is_stmt 1 view .LVU1963
 203:../../Middlewares/LVGL/GUI/lvgl/src/draw/sw/lv_draw_sw_mask.c ****         }
 5659              		.loc 1 203 34 is_stmt 0 view .LVU1964
 5660 010a 03FB05F5 		mul	r5, r3, r5
 5661              	.LVL649:
 203:../../Middlewares/LVGL/GUI/lvgl/src/draw/sw/lv_draw_sw_mask.c ****         }
 5662              		.loc 1 203 40 view .LVU1965
 5663 010e AD12     		asrs	r5, r5, #10
 203:../../Middlewares/LVGL/GUI/lvgl/src/draw/sw/lv_draw_sw_mask.c ****         }
 5664              		.loc 1 203 29 view .LVU1966
 5665 0110 A562     		str	r5, [r4, #40]
 5666              	.LVL650:
 5667              	.L387:
ARM GAS  C:\Users\28576\AppData\Local\Temp\ccagJBpt.s 			page 156


 205:../../Middlewares/LVGL/GUI/lvgl/src/draw/sw/lv_draw_sw_mask.c ****     }
 5668              		.loc 1 205 9 is_stmt 1 view .LVU1967
 205:../../Middlewares/LVGL/GUI/lvgl/src/draw/sw/lv_draw_sw_mask.c ****     }
 5669              		.loc 1 205 29 is_stmt 0 view .LVU1968
 5670 0112 636A     		ldr	r3, [r4, #36]
 205:../../Middlewares/LVGL/GUI/lvgl/src/draw/sw/lv_draw_sw_mask.c ****     }
 5671              		.loc 1 205 22 view .LVU1969
 5672 0114 E362     		str	r3, [r4, #44]
 5673 0116 D9E7     		b	.L385
 5674              	.L388:
 205:../../Middlewares/LVGL/GUI/lvgl/src/draw/sw/lv_draw_sw_mask.c ****     }
 5675              		.loc 1 205 22 view .LVU1970
 5676              	.LBE310:
 209:../../Middlewares/LVGL/GUI/lvgl/src/draw/sw/lv_draw_sw_mask.c ****     else if(param->cfg.side == LV_DRAW_SW_MASK_LINE_SIDE_TOP) {
 5677              		.loc 1 209 10 is_stmt 1 view .LVU1971
 209:../../Middlewares/LVGL/GUI/lvgl/src/draw/sw/lv_draw_sw_mask.c ****     else if(param->cfg.side == LV_DRAW_SW_MASK_LINE_SIDE_TOP) {
 5678              		.loc 1 209 12 is_stmt 0 view .LVU1972
 5679 0118 012B     		cmp	r3, #1
 5680 011a 0DD0     		beq	.L397
 210:../../Middlewares/LVGL/GUI/lvgl/src/draw/sw/lv_draw_sw_mask.c ****         if(param->steep > 0) param->inv = 1;
 5681              		.loc 1 210 10 is_stmt 1 view .LVU1973
 210:../../Middlewares/LVGL/GUI/lvgl/src/draw/sw/lv_draw_sw_mask.c ****         if(param->steep > 0) param->inv = 1;
 5682              		.loc 1 210 12 is_stmt 0 view .LVU1974
 5683 011c 022B     		cmp	r3, #2
 5684 011e 12D0     		beq	.L398
 214:../../Middlewares/LVGL/GUI/lvgl/src/draw/sw/lv_draw_sw_mask.c ****         if(param->steep > 0) param->inv = 0;
 5685              		.loc 1 214 10 is_stmt 1 view .LVU1975
 214:../../Middlewares/LVGL/GUI/lvgl/src/draw/sw/lv_draw_sw_mask.c ****         if(param->steep > 0) param->inv = 0;
 5686              		.loc 1 214 12 is_stmt 0 view .LVU1976
 5687 0120 032B     		cmp	r3, #3
 5688 0122 DDD1     		bne	.L389
 215:../../Middlewares/LVGL/GUI/lvgl/src/draw/sw/lv_draw_sw_mask.c ****         else param->inv = 1;
 5689              		.loc 1 215 9 is_stmt 1 view .LVU1977
 215:../../Middlewares/LVGL/GUI/lvgl/src/draw/sw/lv_draw_sw_mask.c ****         else param->inv = 1;
 5690              		.loc 1 215 17 is_stmt 0 view .LVU1978
 5691 0124 E36A     		ldr	r3, [r4, #44]
 215:../../Middlewares/LVGL/GUI/lvgl/src/draw/sw/lv_draw_sw_mask.c ****         else param->inv = 1;
 5692              		.loc 1 215 11 view .LVU1979
 5693 0126 002B     		cmp	r3, #0
 5694 0128 1EDD     		ble	.L393
 215:../../Middlewares/LVGL/GUI/lvgl/src/draw/sw/lv_draw_sw_mask.c ****         else param->inv = 1;
 5695              		.loc 1 215 30 is_stmt 1 discriminator 1 view .LVU1980
 215:../../Middlewares/LVGL/GUI/lvgl/src/draw/sw/lv_draw_sw_mask.c ****         else param->inv = 1;
 5696              		.loc 1 215 41 is_stmt 0 discriminator 1 view .LVU1981
 5697 012a 94F83430 		ldrb	r3, [r4, #52]	@ zero_extendqisi2
 5698 012e 23F00203 		bic	r3, r3, #2
 5699 0132 84F83430 		strb	r3, [r4, #52]
 5700 0136 D3E7     		b	.L389
 5701              	.L397:
 209:../../Middlewares/LVGL/GUI/lvgl/src/draw/sw/lv_draw_sw_mask.c ****     else if(param->cfg.side == LV_DRAW_SW_MASK_LINE_SIDE_TOP) {
 5702              		.loc 1 209 65 is_stmt 1 discriminator 1 view .LVU1982
 209:../../Middlewares/LVGL/GUI/lvgl/src/draw/sw/lv_draw_sw_mask.c ****     else if(param->cfg.side == LV_DRAW_SW_MASK_LINE_SIDE_TOP) {
 5703              		.loc 1 209 76 is_stmt 0 discriminator 1 view .LVU1983
 5704 0138 94F83430 		ldrb	r3, [r4, #52]	@ zero_extendqisi2
 5705 013c 43F00203 		orr	r3, r3, #2
 5706 0140 84F83430 		strb	r3, [r4, #52]
 5707 0144 CCE7     		b	.L389
ARM GAS  C:\Users\28576\AppData\Local\Temp\ccagJBpt.s 			page 157


 5708              	.L398:
 211:../../Middlewares/LVGL/GUI/lvgl/src/draw/sw/lv_draw_sw_mask.c ****         else param->inv = 0;
 5709              		.loc 1 211 9 is_stmt 1 view .LVU1984
 211:../../Middlewares/LVGL/GUI/lvgl/src/draw/sw/lv_draw_sw_mask.c ****         else param->inv = 0;
 5710              		.loc 1 211 17 is_stmt 0 view .LVU1985
 5711 0146 E36A     		ldr	r3, [r4, #44]
 211:../../Middlewares/LVGL/GUI/lvgl/src/draw/sw/lv_draw_sw_mask.c ****         else param->inv = 0;
 5712              		.loc 1 211 11 view .LVU1986
 5713 0148 002B     		cmp	r3, #0
 5714 014a 06DD     		ble	.L392
 211:../../Middlewares/LVGL/GUI/lvgl/src/draw/sw/lv_draw_sw_mask.c ****         else param->inv = 0;
 5715              		.loc 1 211 30 is_stmt 1 discriminator 1 view .LVU1987
 211:../../Middlewares/LVGL/GUI/lvgl/src/draw/sw/lv_draw_sw_mask.c ****         else param->inv = 0;
 5716              		.loc 1 211 41 is_stmt 0 discriminator 1 view .LVU1988
 5717 014c 94F83430 		ldrb	r3, [r4, #52]	@ zero_extendqisi2
 5718 0150 43F00203 		orr	r3, r3, #2
 5719 0154 84F83430 		strb	r3, [r4, #52]
 5720 0158 C2E7     		b	.L389
 5721              	.L392:
 212:../../Middlewares/LVGL/GUI/lvgl/src/draw/sw/lv_draw_sw_mask.c ****     }
 5722              		.loc 1 212 14 is_stmt 1 view .LVU1989
 212:../../Middlewares/LVGL/GUI/lvgl/src/draw/sw/lv_draw_sw_mask.c ****     }
 5723              		.loc 1 212 25 is_stmt 0 view .LVU1990
 5724 015a 94F83430 		ldrb	r3, [r4, #52]	@ zero_extendqisi2
 5725 015e 23F00203 		bic	r3, r3, #2
 5726 0162 84F83430 		strb	r3, [r4, #52]
 5727 0166 BBE7     		b	.L389
 5728              	.L393:
 216:../../Middlewares/LVGL/GUI/lvgl/src/draw/sw/lv_draw_sw_mask.c ****     }
 5729              		.loc 1 216 14 is_stmt 1 view .LVU1991
 216:../../Middlewares/LVGL/GUI/lvgl/src/draw/sw/lv_draw_sw_mask.c ****     }
 5730              		.loc 1 216 25 is_stmt 0 view .LVU1992
 5731 0168 94F83430 		ldrb	r3, [r4, #52]	@ zero_extendqisi2
 5732 016c 43F00203 		orr	r3, r3, #2
 5733 0170 84F83430 		strb	r3, [r4, #52]
 5734 0174 B4E7     		b	.L389
 5735              	.L396:
 220:../../Middlewares/LVGL/GUI/lvgl/src/draw/sw/lv_draw_sw_mask.c **** }
 5736              		.loc 1 220 26 is_stmt 1 discriminator 1 view .LVU1993
 220:../../Middlewares/LVGL/GUI/lvgl/src/draw/sw/lv_draw_sw_mask.c **** }
 5737              		.loc 1 220 39 is_stmt 0 discriminator 1 view .LVU1994
 5738 0176 5B42     		rsbs	r3, r3, #0
 220:../../Middlewares/LVGL/GUI/lvgl/src/draw/sw/lv_draw_sw_mask.c **** }
 5739              		.loc 1 220 37 discriminator 1 view .LVU1995
 5740 0178 2363     		str	r3, [r4, #48]
 221:../../Middlewares/LVGL/GUI/lvgl/src/draw/sw/lv_draw_sw_mask.c **** 
 5741              		.loc 1 221 1 view .LVU1996
 5742 017a B6E7     		b	.L379
 5743              	.L400:
 5744              		.align	2
 5745              	.L399:
 5746 017c 00000000 		.word	lv_draw_mask_line
 5747              		.cfi_endproc
 5748              	.LFE192:
 5750              		.section	.text.lv_draw_sw_mask_line_angle_init,"ax",%progbits
 5751              		.align	1
 5752              		.global	lv_draw_sw_mask_line_angle_init
ARM GAS  C:\Users\28576\AppData\Local\Temp\ccagJBpt.s 			page 158


 5753              		.syntax unified
 5754              		.thumb
 5755              		.thumb_func
 5757              	lv_draw_sw_mask_line_angle_init:
 5758              	.LVL651:
 5759              	.LFB193:
 225:../../Middlewares/LVGL/GUI/lvgl/src/draw/sw/lv_draw_sw_mask.c ****     /*Find an optimal degree.
 5760              		.loc 1 225 1 is_stmt 1 view -0
 5761              		.cfi_startproc
 5762              		@ args = 4, pretend = 0, frame = 0
 5763              		@ frame_needed = 0, uses_anonymous_args = 0
 225:../../Middlewares/LVGL/GUI/lvgl/src/draw/sw/lv_draw_sw_mask.c ****     /*Find an optimal degree.
 5764              		.loc 1 225 1 is_stmt 0 view .LVU1998
 5765 0000 2DE9F041 		push	{r4, r5, r6, r7, r8, lr}
 5766              	.LCFI34:
 5767              		.cfi_def_cfa_offset 24
 5768              		.cfi_offset 4, -24
 5769              		.cfi_offset 5, -20
 5770              		.cfi_offset 6, -16
 5771              		.cfi_offset 7, -12
 5772              		.cfi_offset 8, -8
 5773              		.cfi_offset 14, -4
 5774 0004 82B0     		sub	sp, sp, #8
 5775              	.LCFI35:
 5776              		.cfi_def_cfa_offset 32
 5777 0006 8046     		mov	r8, r0
 5778 0008 0D46     		mov	r5, r1
 5779 000a 1646     		mov	r6, r2
 5780 000c 1C46     		mov	r4, r3
 230:../../Middlewares/LVGL/GUI/lvgl/src/draw/sw/lv_draw_sw_mask.c **** 
 5781              		.loc 1 230 5 is_stmt 1 view .LVU1999
 230:../../Middlewares/LVGL/GUI/lvgl/src/draw/sw/lv_draw_sw_mask.c **** 
 5782              		.loc 1 230 7 is_stmt 0 view .LVU2000
 5783 000e B42B     		cmp	r3, #180
 5784 0010 02DD     		ble	.L402
 230:../../Middlewares/LVGL/GUI/lvgl/src/draw/sw/lv_draw_sw_mask.c **** 
 5785              		.loc 1 230 21 is_stmt 1 discriminator 1 view .LVU2001
 230:../../Middlewares/LVGL/GUI/lvgl/src/draw/sw/lv_draw_sw_mask.c **** 
 5786              		.loc 1 230 27 is_stmt 0 discriminator 1 view .LVU2002
 5787 0012 A3F1B404 		sub	r4, r3, #180
 5788 0016 24B2     		sxth	r4, r4
 5789              	.L402:
 5790              	.LVL652:
 232:../../Middlewares/LVGL/GUI/lvgl/src/draw/sw/lv_draw_sw_mask.c ****     int32_t p2y;
 5791              		.loc 1 232 5 is_stmt 1 view .LVU2003
 233:../../Middlewares/LVGL/GUI/lvgl/src/draw/sw/lv_draw_sw_mask.c **** 
 5792              		.loc 1 233 5 view .LVU2004
 235:../../Middlewares/LVGL/GUI/lvgl/src/draw/sw/lv_draw_sw_mask.c ****     p2y = (lv_trigo_sin(angle) >> 5) + py;
 5793              		.loc 1 235 5 view .LVU2005
 235:../../Middlewares/LVGL/GUI/lvgl/src/draw/sw/lv_draw_sw_mask.c ****     p2y = (lv_trigo_sin(angle) >> 5) + py;
 5794              		.loc 1 235 31 is_stmt 0 view .LVU2006
 5795 0018 04F15A00 		add	r0, r4, #90
 5796              	.LVL653:
 235:../../Middlewares/LVGL/GUI/lvgl/src/draw/sw/lv_draw_sw_mask.c ****     p2y = (lv_trigo_sin(angle) >> 5) + py;
 5797              		.loc 1 235 12 view .LVU2007
 5798 001c 00B2     		sxth	r0, r0
 5799 001e FFF7FEFF 		bl	lv_trigo_sin
ARM GAS  C:\Users\28576\AppData\Local\Temp\ccagJBpt.s 			page 159


 5800              	.LVL654:
 235:../../Middlewares/LVGL/GUI/lvgl/src/draw/sw/lv_draw_sw_mask.c ****     p2y = (lv_trigo_sin(angle) >> 5) + py;
 5801              		.loc 1 235 9 discriminator 1 view .LVU2008
 5802 0022 05EB6017 		add	r7, r5, r0, asr #5
 5803              	.LVL655:
 236:../../Middlewares/LVGL/GUI/lvgl/src/draw/sw/lv_draw_sw_mask.c **** 
 5804              		.loc 1 236 5 is_stmt 1 view .LVU2009
 236:../../Middlewares/LVGL/GUI/lvgl/src/draw/sw/lv_draw_sw_mask.c **** 
 5805              		.loc 1 236 12 is_stmt 0 view .LVU2010
 5806 0026 2046     		mov	r0, r4
 5807 0028 FFF7FEFF 		bl	lv_trigo_sin
 5808              	.LVL656:
 236:../../Middlewares/LVGL/GUI/lvgl/src/draw/sw/lv_draw_sw_mask.c **** 
 5809              		.loc 1 236 9 discriminator 1 view .LVU2011
 5810 002c 06EB6010 		add	r0, r6, r0, asr #5
 5811              	.LVL657:
 238:../../Middlewares/LVGL/GUI/lvgl/src/draw/sw/lv_draw_sw_mask.c **** }
 5812              		.loc 1 238 5 is_stmt 1 view .LVU2012
 5813 0030 9DF82030 		ldrb	r3, [sp, #32]	@ zero_extendqisi2
 5814 0034 0193     		str	r3, [sp, #4]
 5815 0036 0090     		str	r0, [sp]
 5816 0038 3B46     		mov	r3, r7
 5817 003a 3246     		mov	r2, r6
 5818 003c 2946     		mov	r1, r5
 5819 003e 4046     		mov	r0, r8
 5820              	.LVL658:
 238:../../Middlewares/LVGL/GUI/lvgl/src/draw/sw/lv_draw_sw_mask.c **** }
 5821              		.loc 1 238 5 is_stmt 0 view .LVU2013
 5822 0040 FFF7FEFF 		bl	lv_draw_sw_mask_line_points_init
 5823              	.LVL659:
 239:../../Middlewares/LVGL/GUI/lvgl/src/draw/sw/lv_draw_sw_mask.c **** 
 5824              		.loc 1 239 1 view .LVU2014
 5825 0044 02B0     		add	sp, sp, #8
 5826              	.LCFI36:
 5827              		.cfi_def_cfa_offset 24
 5828              		@ sp needed
 5829 0046 BDE8F081 		pop	{r4, r5, r6, r7, r8, pc}
 239:../../Middlewares/LVGL/GUI/lvgl/src/draw/sw/lv_draw_sw_mask.c **** 
 5830              		.loc 1 239 1 view .LVU2015
 5831              		.cfi_endproc
 5832              	.LFE193:
 5834              		.section	.text.lv_draw_sw_mask_angle_init,"ax",%progbits
 5835              		.align	1
 5836              		.global	lv_draw_sw_mask_angle_init
 5837              		.syntax unified
 5838              		.thumb
 5839              		.thumb_func
 5841              	lv_draw_sw_mask_angle_init:
 5842              	.LVL660:
 5843              	.LFB194:
 243:../../Middlewares/LVGL/GUI/lvgl/src/draw/sw/lv_draw_sw_mask.c ****     lv_draw_sw_mask_line_side_t start_side;
 5844              		.loc 1 243 1 is_stmt 1 view -0
 5845              		.cfi_startproc
 5846              		@ args = 4, pretend = 0, frame = 0
 5847              		@ frame_needed = 0, uses_anonymous_args = 0
 243:../../Middlewares/LVGL/GUI/lvgl/src/draw/sw/lv_draw_sw_mask.c ****     lv_draw_sw_mask_line_side_t start_side;
 5848              		.loc 1 243 1 is_stmt 0 view .LVU2017
ARM GAS  C:\Users\28576\AppData\Local\Temp\ccagJBpt.s 			page 160


 5849 0000 2DE9F043 		push	{r4, r5, r6, r7, r8, r9, lr}
 5850              	.LCFI37:
 5851              		.cfi_def_cfa_offset 28
 5852              		.cfi_offset 4, -28
 5853              		.cfi_offset 5, -24
 5854              		.cfi_offset 6, -20
 5855              		.cfi_offset 7, -16
 5856              		.cfi_offset 8, -12
 5857              		.cfi_offset 9, -8
 5858              		.cfi_offset 14, -4
 5859 0004 83B0     		sub	sp, sp, #12
 5860              	.LCFI38:
 5861              		.cfi_def_cfa_offset 40
 5862 0006 0546     		mov	r5, r0
 5863 0008 0F46     		mov	r7, r1
 5864 000a 9046     		mov	r8, r2
 5865 000c 0A9E     		ldr	r6, [sp, #40]
 244:../../Middlewares/LVGL/GUI/lvgl/src/draw/sw/lv_draw_sw_mask.c ****     lv_draw_sw_mask_line_side_t end_side;
 5866              		.loc 1 244 5 is_stmt 1 view .LVU2018
 245:../../Middlewares/LVGL/GUI/lvgl/src/draw/sw/lv_draw_sw_mask.c **** 
 5867              		.loc 1 245 5 view .LVU2019
 248:../../Middlewares/LVGL/GUI/lvgl/src/draw/sw/lv_draw_sw_mask.c ****         start_angle = 0;
 5868              		.loc 1 248 5 view .LVU2020
 248:../../Middlewares/LVGL/GUI/lvgl/src/draw/sw/lv_draw_sw_mask.c ****         start_angle = 0;
 5869              		.loc 1 248 7 is_stmt 0 view .LVU2021
 5870 000e 1C1E     		subs	r4, r3, #0
 5871 0010 05DB     		blt	.L415
 250:../../Middlewares/LVGL/GUI/lvgl/src/draw/sw/lv_draw_sw_mask.c ****         start_angle = 359;
 5872              		.loc 1 250 10 is_stmt 1 view .LVU2022
 250:../../Middlewares/LVGL/GUI/lvgl/src/draw/sw/lv_draw_sw_mask.c ****         start_angle = 359;
 5873              		.loc 1 250 12 is_stmt 0 view .LVU2023
 5874 0012 B4F5B47F 		cmp	r4, #360
 5875 0016 03DB     		blt	.L405
 251:../../Middlewares/LVGL/GUI/lvgl/src/draw/sw/lv_draw_sw_mask.c **** 
 5876              		.loc 1 251 21 view .LVU2024
 5877 0018 40F26714 		movw	r4, #359
 5878 001c 00E0     		b	.L405
 5879              	.L415:
 249:../../Middlewares/LVGL/GUI/lvgl/src/draw/sw/lv_draw_sw_mask.c ****     else if(start_angle > 359)
 5880              		.loc 1 249 21 view .LVU2025
 5881 001e 0024     		movs	r4, #0
 5882              	.L405:
 5883              	.LVL661:
 253:../../Middlewares/LVGL/GUI/lvgl/src/draw/sw/lv_draw_sw_mask.c ****         end_angle = 0;
 5884              		.loc 1 253 5 is_stmt 1 view .LVU2026
 253:../../Middlewares/LVGL/GUI/lvgl/src/draw/sw/lv_draw_sw_mask.c ****         end_angle = 0;
 5885              		.loc 1 253 7 is_stmt 0 view .LVU2027
 5886 0020 002E     		cmp	r6, #0
 5887 0022 05DB     		blt	.L417
 255:../../Middlewares/LVGL/GUI/lvgl/src/draw/sw/lv_draw_sw_mask.c ****         end_angle = 359;
 5888              		.loc 1 255 10 is_stmt 1 view .LVU2028
 255:../../Middlewares/LVGL/GUI/lvgl/src/draw/sw/lv_draw_sw_mask.c ****         end_angle = 359;
 5889              		.loc 1 255 12 is_stmt 0 view .LVU2029
 5890 0024 B6F5B47F 		cmp	r6, #360
 5891 0028 03DB     		blt	.L406
 256:../../Middlewares/LVGL/GUI/lvgl/src/draw/sw/lv_draw_sw_mask.c **** 
 5892              		.loc 1 256 19 view .LVU2030
ARM GAS  C:\Users\28576\AppData\Local\Temp\ccagJBpt.s 			page 161


 5893 002a 40F26716 		movw	r6, #359
 5894 002e 00E0     		b	.L406
 5895              	.L417:
 254:../../Middlewares/LVGL/GUI/lvgl/src/draw/sw/lv_draw_sw_mask.c ****     else if(end_angle > 359)
 5896              		.loc 1 254 19 view .LVU2031
 5897 0030 0026     		movs	r6, #0
 5898              	.L406:
 5899              	.LVL662:
 258:../../Middlewares/LVGL/GUI/lvgl/src/draw/sw/lv_draw_sw_mask.c ****         param->delta_deg = 360 - start_angle + end_angle;
 5900              		.loc 1 258 5 is_stmt 1 view .LVU2032
 258:../../Middlewares/LVGL/GUI/lvgl/src/draw/sw/lv_draw_sw_mask.c ****         param->delta_deg = 360 - start_angle + end_angle;
 5901              		.loc 1 258 7 is_stmt 0 view .LVU2033
 5902 0032 B442     		cmp	r4, r6
 5903 0034 14DD     		ble	.L407
 259:../../Middlewares/LVGL/GUI/lvgl/src/draw/sw/lv_draw_sw_mask.c ****     }
 5904              		.loc 1 259 9 is_stmt 1 view .LVU2034
 259:../../Middlewares/LVGL/GUI/lvgl/src/draw/sw/lv_draw_sw_mask.c ****     }
 5905              		.loc 1 259 46 is_stmt 0 view .LVU2035
 5906 0036 331B     		subs	r3, r6, r4
 5907 0038 03F5B473 		add	r3, r3, #360
 259:../../Middlewares/LVGL/GUI/lvgl/src/draw/sw/lv_draw_sw_mask.c ****     }
 5908              		.loc 1 259 26 view .LVU2036
 5909 003c A5F88830 		strh	r3, [r5, #136]	@ movhi
 5910              	.L408:
 265:../../Middlewares/LVGL/GUI/lvgl/src/draw/sw/lv_draw_sw_mask.c ****     param->cfg.end_angle = end_angle;
 5911              		.loc 1 265 5 is_stmt 1 view .LVU2037
 265:../../Middlewares/LVGL/GUI/lvgl/src/draw/sw/lv_draw_sw_mask.c ****     param->cfg.end_angle = end_angle;
 5912              		.loc 1 265 28 is_stmt 0 view .LVU2038
 5913 0040 2C61     		str	r4, [r5, #16]
 266:../../Middlewares/LVGL/GUI/lvgl/src/draw/sw/lv_draw_sw_mask.c ****     lv_point_set(&param->cfg.vertex_p, vertex_x, vertex_y);
 5914              		.loc 1 266 5 is_stmt 1 view .LVU2039
 266:../../Middlewares/LVGL/GUI/lvgl/src/draw/sw/lv_draw_sw_mask.c ****     lv_point_set(&param->cfg.vertex_p, vertex_x, vertex_y);
 5915              		.loc 1 266 26 is_stmt 0 view .LVU2040
 5916 0042 6E61     		str	r6, [r5, #20]
 267:../../Middlewares/LVGL/GUI/lvgl/src/draw/sw/lv_draw_sw_mask.c ****     param->dsc.cb = (lv_draw_sw_mask_xcb_t)lv_draw_mask_angle;
 5917              		.loc 1 267 5 is_stmt 1 view .LVU2041
 5918 0044 4246     		mov	r2, r8
 5919              	.LVL663:
 267:../../Middlewares/LVGL/GUI/lvgl/src/draw/sw/lv_draw_sw_mask.c ****     param->dsc.cb = (lv_draw_sw_mask_xcb_t)lv_draw_mask_angle;
 5920              		.loc 1 267 5 is_stmt 0 view .LVU2042
 5921 0046 3946     		mov	r1, r7
 5922              	.LVL664:
 267:../../Middlewares/LVGL/GUI/lvgl/src/draw/sw/lv_draw_sw_mask.c ****     param->dsc.cb = (lv_draw_sw_mask_xcb_t)lv_draw_mask_angle;
 5923              		.loc 1 267 5 view .LVU2043
 5924 0048 05F10800 		add	r0, r5, #8
 5925              	.LVL665:
 267:../../Middlewares/LVGL/GUI/lvgl/src/draw/sw/lv_draw_sw_mask.c ****     param->dsc.cb = (lv_draw_sw_mask_xcb_t)lv_draw_mask_angle;
 5926              		.loc 1 267 5 view .LVU2044
 5927 004c FFF7FEFF 		bl	lv_point_set
 5928              	.LVL666:
 268:../../Middlewares/LVGL/GUI/lvgl/src/draw/sw/lv_draw_sw_mask.c ****     param->dsc.type = LV_DRAW_SW_MASK_TYPE_ANGLE;
 5929              		.loc 1 268 5 is_stmt 1 view .LVU2045
 268:../../Middlewares/LVGL/GUI/lvgl/src/draw/sw/lv_draw_sw_mask.c ****     param->dsc.type = LV_DRAW_SW_MASK_TYPE_ANGLE;
 5930              		.loc 1 268 19 is_stmt 0 view .LVU2046
 5931 0050 1F4B     		ldr	r3, .L423
 5932 0052 2B60     		str	r3, [r5]
 269:../../Middlewares/LVGL/GUI/lvgl/src/draw/sw/lv_draw_sw_mask.c **** 
ARM GAS  C:\Users\28576\AppData\Local\Temp\ccagJBpt.s 			page 162


 5933              		.loc 1 269 5 is_stmt 1 view .LVU2047
 269:../../Middlewares/LVGL/GUI/lvgl/src/draw/sw/lv_draw_sw_mask.c **** 
 5934              		.loc 1 269 21 is_stmt 0 view .LVU2048
 5935 0054 0123     		movs	r3, #1
 5936 0056 2B71     		strb	r3, [r5, #4]
 271:../../Middlewares/LVGL/GUI/lvgl/src/draw/sw/lv_draw_sw_mask.c **** 
 5937              		.loc 1 271 5 is_stmt 1 view .LVU2049
 271:../../Middlewares/LVGL/GUI/lvgl/src/draw/sw/lv_draw_sw_mask.c **** 
 5938              		.loc 1 271 5 view .LVU2050
 5939 0058 B4F5B47F 		cmp	r4, #360
 5940 005c 07D9     		bls	.L409
 5941              	.L410:
 271:../../Middlewares/LVGL/GUI/lvgl/src/draw/sw/lv_draw_sw_mask.c **** 
 5942              		.loc 1 271 5 view .LVU2051
 271:../../Middlewares/LVGL/GUI/lvgl/src/draw/sw/lv_draw_sw_mask.c **** 
 5943              		.loc 1 271 5 view .LVU2052
 271:../../Middlewares/LVGL/GUI/lvgl/src/draw/sw/lv_draw_sw_mask.c **** 
 5944              		.loc 1 271 5 view .LVU2053
 271:../../Middlewares/LVGL/GUI/lvgl/src/draw/sw/lv_draw_sw_mask.c **** 
 5945              		.loc 1 271 5 view .LVU2054
 271:../../Middlewares/LVGL/GUI/lvgl/src/draw/sw/lv_draw_sw_mask.c **** 
 5946              		.loc 1 271 5 view .LVU2055
 5947 005e FEE7     		b	.L410
 5948              	.LVL667:
 5949              	.L407:
 262:../../Middlewares/LVGL/GUI/lvgl/src/draw/sw/lv_draw_sw_mask.c ****     }
 5950              		.loc 1 262 9 view .LVU2056
 262:../../Middlewares/LVGL/GUI/lvgl/src/draw/sw/lv_draw_sw_mask.c ****     }
 5951              		.loc 1 262 28 is_stmt 0 view .LVU2057
 5952 0060 331B     		subs	r3, r6, r4
 5953 0062 002B     		cmp	r3, #0
 5954 0064 B8BF     		it	lt
 5955 0066 5B42     		rsblt	r3, r3, #0
 262:../../Middlewares/LVGL/GUI/lvgl/src/draw/sw/lv_draw_sw_mask.c ****     }
 5956              		.loc 1 262 26 view .LVU2058
 5957 0068 A5F88830 		strh	r3, [r5, #136]	@ movhi
 5958 006c E8E7     		b	.L408
 5959              	.LVL668:
 5960              	.L409:
 271:../../Middlewares/LVGL/GUI/lvgl/src/draw/sw/lv_draw_sw_mask.c **** 
 5961              		.loc 1 271 5 is_stmt 1 view .LVU2059
 273:../../Middlewares/LVGL/GUI/lvgl/src/draw/sw/lv_draw_sw_mask.c ****         start_side = LV_DRAW_SW_MASK_LINE_SIDE_LEFT;
 5962              		.loc 1 273 5 view .LVU2060
 273:../../Middlewares/LVGL/GUI/lvgl/src/draw/sw/lv_draw_sw_mask.c ****         start_side = LV_DRAW_SW_MASK_LINE_SIDE_LEFT;
 5963              		.loc 1 273 7 is_stmt 0 view .LVU2061
 5964 006e B32C     		cmp	r4, #179
 5965 0070 09D8     		bhi	.L419
 274:../../Middlewares/LVGL/GUI/lvgl/src/draw/sw/lv_draw_sw_mask.c ****     }
 5966              		.loc 1 274 20 view .LVU2062
 5967 0072 0022     		movs	r2, #0
 5968              	.L411:
 5969              	.LVL669:
 279:../../Middlewares/LVGL/GUI/lvgl/src/draw/sw/lv_draw_sw_mask.c **** 
 5970              		.loc 1 279 5 is_stmt 1 view .LVU2063
 279:../../Middlewares/LVGL/GUI/lvgl/src/draw/sw/lv_draw_sw_mask.c **** 
 5971              		.loc 1 279 5 view .LVU2064
 5972 0074 B4F5B47F 		cmp	r4, #360
ARM GAS  C:\Users\28576\AppData\Local\Temp\ccagJBpt.s 			page 163


 5973 0078 D4BF     		ite	le
 5974 007a 0023     		movle	r3, #0
 5975 007c 0123     		movgt	r3, #1
 5976 007e 53EAD673 		orrs	r3, r3, r6, lsr #31
 5977 0082 02D0     		beq	.L412
 5978              	.L413:
 279:../../Middlewares/LVGL/GUI/lvgl/src/draw/sw/lv_draw_sw_mask.c **** 
 5979              		.loc 1 279 5 view .LVU2065
 279:../../Middlewares/LVGL/GUI/lvgl/src/draw/sw/lv_draw_sw_mask.c **** 
 5980              		.loc 1 279 5 view .LVU2066
 279:../../Middlewares/LVGL/GUI/lvgl/src/draw/sw/lv_draw_sw_mask.c **** 
 5981              		.loc 1 279 5 view .LVU2067
 279:../../Middlewares/LVGL/GUI/lvgl/src/draw/sw/lv_draw_sw_mask.c **** 
 5982              		.loc 1 279 5 view .LVU2068
 279:../../Middlewares/LVGL/GUI/lvgl/src/draw/sw/lv_draw_sw_mask.c **** 
 5983              		.loc 1 279 5 view .LVU2069
 5984 0084 FEE7     		b	.L413
 5985              	.LVL670:
 5986              	.L419:
 277:../../Middlewares/LVGL/GUI/lvgl/src/draw/sw/lv_draw_sw_mask.c **** 
 5987              		.loc 1 277 20 is_stmt 0 view .LVU2070
 5988 0086 0122     		movs	r2, #1
 5989 0088 F4E7     		b	.L411
 5990              	.LVL671:
 5991              	.L412:
 279:../../Middlewares/LVGL/GUI/lvgl/src/draw/sw/lv_draw_sw_mask.c **** 
 5992              		.loc 1 279 5 is_stmt 1 view .LVU2071
 281:../../Middlewares/LVGL/GUI/lvgl/src/draw/sw/lv_draw_sw_mask.c ****         end_side = LV_DRAW_SW_MASK_LINE_SIDE_RIGHT;
 5993              		.loc 1 281 5 view .LVU2072
 281:../../Middlewares/LVGL/GUI/lvgl/src/draw/sw/lv_draw_sw_mask.c ****         end_side = LV_DRAW_SW_MASK_LINE_SIDE_RIGHT;
 5994              		.loc 1 281 7 is_stmt 0 view .LVU2073
 5995 008a B32E     		cmp	r6, #179
 5996 008c 06D9     		bls	.L420
 284:../../Middlewares/LVGL/GUI/lvgl/src/draw/sw/lv_draw_sw_mask.c ****         end_side = LV_DRAW_SW_MASK_LINE_SIDE_LEFT;
 5997              		.loc 1 284 10 is_stmt 1 view .LVU2074
 284:../../Middlewares/LVGL/GUI/lvgl/src/draw/sw/lv_draw_sw_mask.c ****         end_side = LV_DRAW_SW_MASK_LINE_SIDE_LEFT;
 5998              		.loc 1 284 30 is_stmt 0 view .LVU2075
 5999 008e A6F1B403 		sub	r3, r6, #180
 284:../../Middlewares/LVGL/GUI/lvgl/src/draw/sw/lv_draw_sw_mask.c ****         end_side = LV_DRAW_SW_MASK_LINE_SIDE_LEFT;
 6000              		.loc 1 284 12 view .LVU2076
 6001 0092 B32B     		cmp	r3, #179
 6002 0094 18D8     		bhi	.L421
 285:../../Middlewares/LVGL/GUI/lvgl/src/draw/sw/lv_draw_sw_mask.c ****     }
 6003              		.loc 1 285 18 view .LVU2077
 6004 0096 0023     		movs	r3, #0
 6005 0098 9946     		mov	r9, r3
 6006 009a 01E0     		b	.L414
 6007              	.L420:
 282:../../Middlewares/LVGL/GUI/lvgl/src/draw/sw/lv_draw_sw_mask.c ****     }
 6008              		.loc 1 282 18 view .LVU2078
 6009 009c 0123     		movs	r3, #1
 6010 009e 9946     		mov	r9, r3
 6011              	.L414:
 6012              	.LVL672:
 290:../../Middlewares/LVGL/GUI/lvgl/src/draw/sw/lv_draw_sw_mask.c ****     lv_draw_sw_mask_line_angle_init(&param->end_line, vertex_x, vertex_y, end_angle, end_side);
 6013              		.loc 1 290 5 is_stmt 1 view .LVU2079
 6014 00a0 0092     		str	r2, [sp]
ARM GAS  C:\Users\28576\AppData\Local\Temp\ccagJBpt.s 			page 164


 6015 00a2 23B2     		sxth	r3, r4
 6016 00a4 4246     		mov	r2, r8
 6017              	.LVL673:
 290:../../Middlewares/LVGL/GUI/lvgl/src/draw/sw/lv_draw_sw_mask.c ****     lv_draw_sw_mask_line_angle_init(&param->end_line, vertex_x, vertex_y, end_angle, end_side);
 6018              		.loc 1 290 5 is_stmt 0 view .LVU2080
 6019 00a6 3946     		mov	r1, r7
 6020 00a8 05F11800 		add	r0, r5, #24
 6021 00ac FFF7FEFF 		bl	lv_draw_sw_mask_line_angle_init
 6022              	.LVL674:
 291:../../Middlewares/LVGL/GUI/lvgl/src/draw/sw/lv_draw_sw_mask.c **** }
 6023              		.loc 1 291 5 is_stmt 1 view .LVU2081
 6024 00b0 CDF80090 		str	r9, [sp]
 6025 00b4 33B2     		sxth	r3, r6
 6026 00b6 4246     		mov	r2, r8
 6027 00b8 3946     		mov	r1, r7
 6028 00ba 05F15000 		add	r0, r5, #80
 6029 00be FFF7FEFF 		bl	lv_draw_sw_mask_line_angle_init
 6030              	.LVL675:
 292:../../Middlewares/LVGL/GUI/lvgl/src/draw/sw/lv_draw_sw_mask.c **** 
 6031              		.loc 1 292 1 is_stmt 0 view .LVU2082
 6032 00c2 03B0     		add	sp, sp, #12
 6033              	.LCFI39:
 6034              		.cfi_remember_state
 6035              		.cfi_def_cfa_offset 28
 6036              		@ sp needed
 6037 00c4 BDE8F083 		pop	{r4, r5, r6, r7, r8, r9, pc}
 6038              	.LVL676:
 6039              	.L421:
 6040              	.LCFI40:
 6041              		.cfi_restore_state
 288:../../Middlewares/LVGL/GUI/lvgl/src/draw/sw/lv_draw_sw_mask.c **** 
 6042              		.loc 1 288 18 view .LVU2083
 6043 00c8 0123     		movs	r3, #1
 6044 00ca 9946     		mov	r9, r3
 6045 00cc E8E7     		b	.L414
 6046              	.L424:
 6047 00ce 00BF     		.align	2
 6048              	.L423:
 6049 00d0 00000000 		.word	lv_draw_mask_angle
 6050              		.cfi_endproc
 6051              	.LFE194:
 6053              		.section	.text.lv_draw_sw_mask_radius_init,"ax",%progbits
 6054              		.align	1
 6055              		.global	lv_draw_sw_mask_radius_init
 6056              		.syntax unified
 6057              		.thumb
 6058              		.thumb_func
 6060              	lv_draw_sw_mask_radius_init:
 6061              	.LVL677:
 6062              	.LFB195:
 296:../../Middlewares/LVGL/GUI/lvgl/src/draw/sw/lv_draw_sw_mask.c ****     int32_t w = lv_area_get_width(rect);
 6063              		.loc 1 296 1 is_stmt 1 view -0
 6064              		.cfi_startproc
 6065              		@ args = 0, pretend = 0, frame = 0
 6066              		@ frame_needed = 0, uses_anonymous_args = 0
 296:../../Middlewares/LVGL/GUI/lvgl/src/draw/sw/lv_draw_sw_mask.c ****     int32_t w = lv_area_get_width(rect);
 6067              		.loc 1 296 1 is_stmt 0 view .LVU2085
ARM GAS  C:\Users\28576\AppData\Local\Temp\ccagJBpt.s 			page 165


 6068 0000 2DE9F041 		push	{r4, r5, r6, r7, r8, lr}
 6069              	.LCFI41:
 6070              		.cfi_def_cfa_offset 24
 6071              		.cfi_offset 4, -24
 6072              		.cfi_offset 5, -20
 6073              		.cfi_offset 6, -16
 6074              		.cfi_offset 7, -12
 6075              		.cfi_offset 8, -8
 6076              		.cfi_offset 14, -4
 6077 0004 0446     		mov	r4, r0
 6078 0006 0E46     		mov	r6, r1
 6079 0008 1746     		mov	r7, r2
 6080 000a 9846     		mov	r8, r3
 297:../../Middlewares/LVGL/GUI/lvgl/src/draw/sw/lv_draw_sw_mask.c ****     int32_t h = lv_area_get_height(rect);
 6081              		.loc 1 297 5 is_stmt 1 view .LVU2086
 297:../../Middlewares/LVGL/GUI/lvgl/src/draw/sw/lv_draw_sw_mask.c ****     int32_t h = lv_area_get_height(rect);
 6082              		.loc 1 297 17 is_stmt 0 view .LVU2087
 6083 000c 0846     		mov	r0, r1
 6084              	.LVL678:
 297:../../Middlewares/LVGL/GUI/lvgl/src/draw/sw/lv_draw_sw_mask.c ****     int32_t h = lv_area_get_height(rect);
 6085              		.loc 1 297 17 view .LVU2088
 6086 000e FFF7FEFF 		bl	lv_area_get_width
 6087              	.LVL679:
 297:../../Middlewares/LVGL/GUI/lvgl/src/draw/sw/lv_draw_sw_mask.c ****     int32_t h = lv_area_get_height(rect);
 6088              		.loc 1 297 17 view .LVU2089
 6089 0012 0546     		mov	r5, r0
 6090              	.LVL680:
 298:../../Middlewares/LVGL/GUI/lvgl/src/draw/sw/lv_draw_sw_mask.c ****     int32_t short_side = LV_MIN(w, h);
 6091              		.loc 1 298 5 is_stmt 1 view .LVU2090
 298:../../Middlewares/LVGL/GUI/lvgl/src/draw/sw/lv_draw_sw_mask.c ****     int32_t short_side = LV_MIN(w, h);
 6092              		.loc 1 298 17 is_stmt 0 view .LVU2091
 6093 0014 3046     		mov	r0, r6
 6094              	.LVL681:
 298:../../Middlewares/LVGL/GUI/lvgl/src/draw/sw/lv_draw_sw_mask.c ****     int32_t short_side = LV_MIN(w, h);
 6095              		.loc 1 298 17 view .LVU2092
 6096 0016 FFF7FEFF 		bl	lv_area_get_height
 6097              	.LVL682:
 299:../../Middlewares/LVGL/GUI/lvgl/src/draw/sw/lv_draw_sw_mask.c ****     if(radius > short_side >> 1) radius = short_side >> 1;
 6098              		.loc 1 299 5 is_stmt 1 view .LVU2093
 299:../../Middlewares/LVGL/GUI/lvgl/src/draw/sw/lv_draw_sw_mask.c ****     if(radius > short_side >> 1) radius = short_side >> 1;
 6099              		.loc 1 299 13 is_stmt 0 view .LVU2094
 6100 001a A842     		cmp	r0, r5
 6101 001c A8BF     		it	ge
 6102 001e 2846     		movge	r0, r5
 6103              	.LVL683:
 300:../../Middlewares/LVGL/GUI/lvgl/src/draw/sw/lv_draw_sw_mask.c ****     if(radius < 0) radius = 0;
 6104              		.loc 1 300 5 is_stmt 1 view .LVU2095
 300:../../Middlewares/LVGL/GUI/lvgl/src/draw/sw/lv_draw_sw_mask.c ****     if(radius < 0) radius = 0;
 6105              		.loc 1 300 28 is_stmt 0 view .LVU2096
 6106 0020 4510     		asrs	r5, r0, #1
 6107              	.LVL684:
 300:../../Middlewares/LVGL/GUI/lvgl/src/draw/sw/lv_draw_sw_mask.c ****     if(radius < 0) radius = 0;
 6108              		.loc 1 300 7 view .LVU2097
 6109 0022 B7EB600F 		cmp	r7, r0, asr #1
 6110 0026 00DC     		bgt	.L426
 6111 0028 3D46     		mov	r5, r7
 6112              	.L426:
ARM GAS  C:\Users\28576\AppData\Local\Temp\ccagJBpt.s 			page 166


 6113              	.LVL685:
 301:../../Middlewares/LVGL/GUI/lvgl/src/draw/sw/lv_draw_sw_mask.c **** 
 6114              		.loc 1 301 5 is_stmt 1 view .LVU2098
 301:../../Middlewares/LVGL/GUI/lvgl/src/draw/sw/lv_draw_sw_mask.c **** 
 6115              		.loc 1 301 7 is_stmt 0 view .LVU2099
 6116 002a 002D     		cmp	r5, #0
 6117 002c 1FDB     		blt	.L447
 6118              	.LVL686:
 6119              	.L427:
 303:../../Middlewares/LVGL/GUI/lvgl/src/draw/sw/lv_draw_sw_mask.c ****     param->cfg.radius = radius;
 6120              		.loc 1 303 5 is_stmt 1 view .LVU2100
 6121              	.LBB311:
 6122              	.LBI311:
 107:../../Middlewares/LVGL/GUI/lvgl/src/draw/sw/../../misc/lv_area.h **** {
 6123              		.loc 3 107 20 view .LVU2101
 6124              	.LBB312:
 109:../../Middlewares/LVGL/GUI/lvgl/src/draw/sw/../../misc/lv_area.h ****     dest->y1 = src->y1;
 6125              		.loc 3 109 5 view .LVU2102
 109:../../Middlewares/LVGL/GUI/lvgl/src/draw/sw/../../misc/lv_area.h ****     dest->y1 = src->y1;
 6126              		.loc 3 109 19 is_stmt 0 view .LVU2103
 6127 002e 3368     		ldr	r3, [r6]
 109:../../Middlewares/LVGL/GUI/lvgl/src/draw/sw/../../misc/lv_area.h ****     dest->y1 = src->y1;
 6128              		.loc 3 109 14 view .LVU2104
 6129 0030 A360     		str	r3, [r4, #8]
 110:../../Middlewares/LVGL/GUI/lvgl/src/draw/sw/../../misc/lv_area.h ****     dest->x2 = src->x2;
 6130              		.loc 3 110 5 is_stmt 1 view .LVU2105
 110:../../Middlewares/LVGL/GUI/lvgl/src/draw/sw/../../misc/lv_area.h ****     dest->x2 = src->x2;
 6131              		.loc 3 110 19 is_stmt 0 view .LVU2106
 6132 0032 7368     		ldr	r3, [r6, #4]
 110:../../Middlewares/LVGL/GUI/lvgl/src/draw/sw/../../misc/lv_area.h ****     dest->x2 = src->x2;
 6133              		.loc 3 110 14 view .LVU2107
 6134 0034 E360     		str	r3, [r4, #12]
 111:../../Middlewares/LVGL/GUI/lvgl/src/draw/sw/../../misc/lv_area.h ****     dest->y2 = src->y2;
 6135              		.loc 3 111 5 is_stmt 1 view .LVU2108
 111:../../Middlewares/LVGL/GUI/lvgl/src/draw/sw/../../misc/lv_area.h ****     dest->y2 = src->y2;
 6136              		.loc 3 111 19 is_stmt 0 view .LVU2109
 6137 0036 B368     		ldr	r3, [r6, #8]
 111:../../Middlewares/LVGL/GUI/lvgl/src/draw/sw/../../misc/lv_area.h ****     dest->y2 = src->y2;
 6138              		.loc 3 111 14 view .LVU2110
 6139 0038 2361     		str	r3, [r4, #16]
 6140              		.loc 3 112 5 is_stmt 1 view .LVU2111
 6141              		.loc 3 112 19 is_stmt 0 view .LVU2112
 6142 003a F368     		ldr	r3, [r6, #12]
 6143              		.loc 3 112 14 view .LVU2113
 6144 003c 6361     		str	r3, [r4, #20]
 6145              	.LVL687:
 6146              		.loc 3 112 14 view .LVU2114
 6147              	.LBE312:
 6148              	.LBE311:
 304:../../Middlewares/LVGL/GUI/lvgl/src/draw/sw/lv_draw_sw_mask.c ****     param->cfg.outer = inv ? 1 : 0;
 6149              		.loc 1 304 5 is_stmt 1 view .LVU2115
 304:../../Middlewares/LVGL/GUI/lvgl/src/draw/sw/lv_draw_sw_mask.c ****     param->cfg.outer = inv ? 1 : 0;
 6150              		.loc 1 304 23 is_stmt 0 view .LVU2116
 6151 003e A561     		str	r5, [r4, #24]
 305:../../Middlewares/LVGL/GUI/lvgl/src/draw/sw/lv_draw_sw_mask.c ****     param->dsc.cb = (lv_draw_sw_mask_xcb_t)lv_draw_mask_radius;
 6152              		.loc 1 305 5 is_stmt 1 view .LVU2117
 305:../../Middlewares/LVGL/GUI/lvgl/src/draw/sw/lv_draw_sw_mask.c ****     param->dsc.cb = (lv_draw_sw_mask_xcb_t)lv_draw_mask_radius;
ARM GAS  C:\Users\28576\AppData\Local\Temp\ccagJBpt.s 			page 167


 6153              		.loc 1 305 22 is_stmt 0 view .LVU2118
 6154 0040 227F     		ldrb	r2, [r4, #28]	@ zero_extendqisi2
 6155 0042 68F30002 		bfi	r2, r8, #0, #1
 6156 0046 2277     		strb	r2, [r4, #28]
 306:../../Middlewares/LVGL/GUI/lvgl/src/draw/sw/lv_draw_sw_mask.c ****     param->dsc.type = LV_DRAW_SW_MASK_TYPE_RADIUS;
 6157              		.loc 1 306 5 is_stmt 1 view .LVU2119
 306:../../Middlewares/LVGL/GUI/lvgl/src/draw/sw/lv_draw_sw_mask.c ****     param->dsc.type = LV_DRAW_SW_MASK_TYPE_RADIUS;
 6158              		.loc 1 306 19 is_stmt 0 view .LVU2120
 6159 0048 414B     		ldr	r3, .L454
 6160 004a 2360     		str	r3, [r4]
 307:../../Middlewares/LVGL/GUI/lvgl/src/draw/sw/lv_draw_sw_mask.c **** 
 6161              		.loc 1 307 5 is_stmt 1 view .LVU2121
 307:../../Middlewares/LVGL/GUI/lvgl/src/draw/sw/lv_draw_sw_mask.c **** 
 6162              		.loc 1 307 21 is_stmt 0 view .LVU2122
 6163 004c 0223     		movs	r3, #2
 6164 004e 2371     		strb	r3, [r4, #4]
 309:../../Middlewares/LVGL/GUI/lvgl/src/draw/sw/lv_draw_sw_mask.c ****         param->circle = NULL;
 6165              		.loc 1 309 5 is_stmt 1 view .LVU2123
 309:../../Middlewares/LVGL/GUI/lvgl/src/draw/sw/lv_draw_sw_mask.c ****         param->circle = NULL;
 6166              		.loc 1 309 7 is_stmt 0 view .LVU2124
 6167 0050 7DB1     		cbz	r5, .L448
 319:../../Middlewares/LVGL/GUI/lvgl/src/draw/sw/lv_draw_sw_mask.c ****         if(_circle_cache[i].radius == radius) {
 6168              		.loc 1 319 11 view .LVU2125
 6169 0052 0023     		movs	r3, #0
 6170              	.L428:
 6171              	.LVL688:
 319:../../Middlewares/LVGL/GUI/lvgl/src/draw/sw/lv_draw_sw_mask.c ****         if(_circle_cache[i].radius == radius) {
 6172              		.loc 1 319 18 is_stmt 1 discriminator 1 view .LVU2126
 6173 0054 032B     		cmp	r3, #3
 6174 0056 32D8     		bhi	.L449
 320:../../Middlewares/LVGL/GUI/lvgl/src/draw/sw/lv_draw_sw_mask.c ****             _circle_cache[i].used_cnt++;
 6175              		.loc 1 320 9 view .LVU2127
 320:../../Middlewares/LVGL/GUI/lvgl/src/draw/sw/lv_draw_sw_mask.c ****             _circle_cache[i].used_cnt++;
 6176              		.loc 1 320 28 is_stmt 0 view .LVU2128
 6177 0058 C3EBC301 		rsb	r1, r3, r3, lsl #3
 6178 005c 3D4A     		ldr	r2, .L454+4
 6179 005e 02EB8102 		add	r2, r2, r1, lsl #2
 6180 0062 D2F86021 		ldr	r2, [r2, #352]
 320:../../Middlewares/LVGL/GUI/lvgl/src/draw/sw/lv_draw_sw_mask.c ****             _circle_cache[i].used_cnt++;
 6181              		.loc 1 320 11 view .LVU2129
 6182 0066 AA42     		cmp	r2, r5
 6183 0068 05D0     		beq	.L450
 319:../../Middlewares/LVGL/GUI/lvgl/src/draw/sw/lv_draw_sw_mask.c ****         if(_circle_cache[i].radius == radius) {
 6184              		.loc 1 319 51 is_stmt 1 discriminator 2 view .LVU2130
 6185 006a 0133     		adds	r3, r3, #1
 6186              	.LVL689:
 319:../../Middlewares/LVGL/GUI/lvgl/src/draw/sw/lv_draw_sw_mask.c ****         if(_circle_cache[i].radius == radius) {
 6187              		.loc 1 319 51 is_stmt 0 discriminator 2 view .LVU2131
 6188 006c F2E7     		b	.L428
 6189              	.LVL690:
 6190              	.L447:
 301:../../Middlewares/LVGL/GUI/lvgl/src/draw/sw/lv_draw_sw_mask.c **** 
 6191              		.loc 1 301 27 discriminator 1 view .LVU2132
 6192 006e 0025     		movs	r5, #0
 6193              	.LVL691:
 301:../../Middlewares/LVGL/GUI/lvgl/src/draw/sw/lv_draw_sw_mask.c **** 
 6194              		.loc 1 301 27 discriminator 1 view .LVU2133
ARM GAS  C:\Users\28576\AppData\Local\Temp\ccagJBpt.s 			page 168


 6195 0070 DDE7     		b	.L427
 6196              	.LVL692:
 6197              	.L448:
 310:../../Middlewares/LVGL/GUI/lvgl/src/draw/sw/lv_draw_sw_mask.c ****         return;
 6198              		.loc 1 310 9 is_stmt 1 view .LVU2134
 310:../../Middlewares/LVGL/GUI/lvgl/src/draw/sw/lv_draw_sw_mask.c ****         return;
 6199              		.loc 1 310 23 is_stmt 0 view .LVU2135
 6200 0072 2562     		str	r5, [r4, #32]
 311:../../Middlewares/LVGL/GUI/lvgl/src/draw/sw/lv_draw_sw_mask.c ****     }
 6201              		.loc 1 311 9 is_stmt 1 view .LVU2136
 6202 0074 5EE0     		b	.L425
 6203              	.LVL693:
 6204              	.L450:
 321:../../Middlewares/LVGL/GUI/lvgl/src/draw/sw/lv_draw_sw_mask.c ****             CIRCLE_CACHE_AGING(_circle_cache[i].life, radius);
 6205              		.loc 1 321 13 view .LVU2137
 321:../../Middlewares/LVGL/GUI/lvgl/src/draw/sw/lv_draw_sw_mask.c ****             CIRCLE_CACHE_AGING(_circle_cache[i].life, radius);
 6206              		.loc 1 321 29 is_stmt 0 view .LVU2138
 6207 0076 374A     		ldr	r2, .L454+4
 6208 0078 02EB8102 		add	r2, r2, r1, lsl #2
 6209 007c D2F85C11 		ldr	r1, [r2, #348]
 321:../../Middlewares/LVGL/GUI/lvgl/src/draw/sw/lv_draw_sw_mask.c ****             CIRCLE_CACHE_AGING(_circle_cache[i].life, radius);
 6210              		.loc 1 321 38 view .LVU2139
 6211 0080 0131     		adds	r1, r1, #1
 6212 0082 C2F85C11 		str	r1, [r2, #348]
 322:../../Middlewares/LVGL/GUI/lvgl/src/draw/sw/lv_draw_sw_mask.c ****             param->circle = &(_circle_cache[i]);
 6213              		.loc 1 322 13 is_stmt 1 view .LVU2140
 6214 0086 D2F85821 		ldr	r2, [r2, #344]
 6215 008a 0F2D     		cmp	r5, #15
 6216 008c 15DD     		ble	.L444
 322:../../Middlewares/LVGL/GUI/lvgl/src/draw/sw/lv_draw_sw_mask.c ****             param->circle = &(_circle_cache[i]);
 6217              		.loc 1 322 13 is_stmt 0 discriminator 1 view .LVU2141
 6218 008e 2D11     		asrs	r5, r5, #4
 6219              	.LVL694:
 6220              	.L431:
 322:../../Middlewares/LVGL/GUI/lvgl/src/draw/sw/lv_draw_sw_mask.c ****             param->circle = &(_circle_cache[i]);
 6221              		.loc 1 322 13 discriminator 4 view .LVU2142
 6222 0090 2A44     		add	r2, r2, r5
 6223 0092 B2F57A7F 		cmp	r2, #1000
 6224 0096 A8BF     		it	ge
 6225 0098 4FF47A72 		movge	r2, #1000
 6226 009c 2D48     		ldr	r0, .L454+4
 6227              	.LVL695:
 322:../../Middlewares/LVGL/GUI/lvgl/src/draw/sw/lv_draw_sw_mask.c ****             param->circle = &(_circle_cache[i]);
 6228              		.loc 1 322 13 discriminator 4 view .LVU2143
 6229 009e C3EBC301 		rsb	r1, r3, r3, lsl #3
 6230 00a2 00EB8101 		add	r1, r0, r1, lsl #2
 6231 00a6 C1F85821 		str	r2, [r1, #344]
 323:../../Middlewares/LVGL/GUI/lvgl/src/draw/sw/lv_draw_sw_mask.c ****             lv_mutex_unlock(&circle_cache_mutex);
 6232              		.loc 1 323 13 is_stmt 1 view .LVU2144
 323:../../Middlewares/LVGL/GUI/lvgl/src/draw/sw/lv_draw_sw_mask.c ****             lv_mutex_unlock(&circle_cache_mutex);
 6233              		.loc 1 323 29 is_stmt 0 view .LVU2145
 6234 00aa C3EBC303 		rsb	r3, r3, r3, lsl #3
 6235              	.LVL696:
 323:../../Middlewares/LVGL/GUI/lvgl/src/draw/sw/lv_draw_sw_mask.c ****             lv_mutex_unlock(&circle_cache_mutex);
 6236              		.loc 1 323 29 view .LVU2146
 6237 00ae 9B00     		lsls	r3, r3, #2
 6238 00b0 03F5A473 		add	r3, r3, #328
ARM GAS  C:\Users\28576\AppData\Local\Temp\ccagJBpt.s 			page 169


 6239 00b4 0344     		add	r3, r3, r0
 323:../../Middlewares/LVGL/GUI/lvgl/src/draw/sw/lv_draw_sw_mask.c ****             lv_mutex_unlock(&circle_cache_mutex);
 6240              		.loc 1 323 27 view .LVU2147
 6241 00b6 2362     		str	r3, [r4, #32]
 324:../../Middlewares/LVGL/GUI/lvgl/src/draw/sw/lv_draw_sw_mask.c ****             return;
 6242              		.loc 1 324 13 is_stmt 1 view .LVU2148
 325:../../Middlewares/LVGL/GUI/lvgl/src/draw/sw/lv_draw_sw_mask.c ****         }
 6243              		.loc 1 325 13 view .LVU2149
 6244 00b8 3CE0     		b	.L425
 6245              	.LVL697:
 6246              	.L444:
 322:../../Middlewares/LVGL/GUI/lvgl/src/draw/sw/lv_draw_sw_mask.c ****             param->circle = &(_circle_cache[i]);
 6247              		.loc 1 322 13 is_stmt 0 discriminator 2 view .LVU2150
 6248 00ba 0125     		movs	r5, #1
 6249              	.LVL698:
 322:../../Middlewares/LVGL/GUI/lvgl/src/draw/sw/lv_draw_sw_mask.c ****             param->circle = &(_circle_cache[i]);
 6250              		.loc 1 322 13 discriminator 2 view .LVU2151
 6251 00bc E8E7     		b	.L431
 6252              	.LVL699:
 6253              	.L449:
 330:../../Middlewares/LVGL/GUI/lvgl/src/draw/sw/lv_draw_sw_mask.c ****     for(i = 0; i < LV_DRAW_SW_CIRCLE_CACHE_SIZE; i++) {
 6254              		.loc 1 330 43 view .LVU2152
 6255 00be 0020     		movs	r0, #0
 6256              	.LVL700:
 331:../../Middlewares/LVGL/GUI/lvgl/src/draw/sw/lv_draw_sw_mask.c ****         if(_circle_cache[i].used_cnt == 0) {
 6257              		.loc 1 331 11 view .LVU2153
 6258 00c0 0346     		mov	r3, r0
 6259              	.LVL701:
 331:../../Middlewares/LVGL/GUI/lvgl/src/draw/sw/lv_draw_sw_mask.c ****         if(_circle_cache[i].used_cnt == 0) {
 6260              		.loc 1 331 11 view .LVU2154
 6261 00c2 05E0     		b	.L433
 6262              	.LVL702:
 6263              	.L452:
 333:../../Middlewares/LVGL/GUI/lvgl/src/draw/sw/lv_draw_sw_mask.c ****             else if(_circle_cache[i].life < entry->life) entry = &(_circle_cache[i]);
 6264              		.loc 1 333 24 is_stmt 1 discriminator 1 view .LVU2155
 333:../../Middlewares/LVGL/GUI/lvgl/src/draw/sw/lv_draw_sw_mask.c ****             else if(_circle_cache[i].life < entry->life) entry = &(_circle_cache[i]);
 6265              		.loc 1 333 30 is_stmt 0 discriminator 1 view .LVU2156
 6266 00c4 8800     		lsls	r0, r1, #2
 6267              	.LVL703:
 333:../../Middlewares/LVGL/GUI/lvgl/src/draw/sw/lv_draw_sw_mask.c ****             else if(_circle_cache[i].life < entry->life) entry = &(_circle_cache[i]);
 6268              		.loc 1 333 30 discriminator 1 view .LVU2157
 6269 00c6 00F5A470 		add	r0, r0, #328
 6270 00ca 224A     		ldr	r2, .L454+4
 6271 00cc 1044     		add	r0, r0, r2
 6272              	.LVL704:
 6273              	.L434:
 331:../../Middlewares/LVGL/GUI/lvgl/src/draw/sw/lv_draw_sw_mask.c ****         if(_circle_cache[i].used_cnt == 0) {
 6274              		.loc 1 331 51 is_stmt 1 discriminator 2 view .LVU2158
 6275 00ce 0133     		adds	r3, r3, #1
 6276              	.LVL705:
 6277              	.L433:
 331:../../Middlewares/LVGL/GUI/lvgl/src/draw/sw/lv_draw_sw_mask.c ****         if(_circle_cache[i].used_cnt == 0) {
 6278              		.loc 1 331 18 discriminator 1 view .LVU2159
 6279 00d0 032B     		cmp	r3, #3
 6280 00d2 1CD8     		bhi	.L451
 332:../../Middlewares/LVGL/GUI/lvgl/src/draw/sw/lv_draw_sw_mask.c ****             if(!entry) entry = &(_circle_cache[i]);
 6281              		.loc 1 332 9 view .LVU2160
ARM GAS  C:\Users\28576\AppData\Local\Temp\ccagJBpt.s 			page 170


 332:../../Middlewares/LVGL/GUI/lvgl/src/draw/sw/lv_draw_sw_mask.c ****             if(!entry) entry = &(_circle_cache[i]);
 6282              		.loc 1 332 28 is_stmt 0 view .LVU2161
 6283 00d4 C3EBC301 		rsb	r1, r3, r3, lsl #3
 6284 00d8 1E4A     		ldr	r2, .L454+4
 6285 00da 02EB8102 		add	r2, r2, r1, lsl #2
 6286 00de D2F85C21 		ldr	r2, [r2, #348]
 332:../../Middlewares/LVGL/GUI/lvgl/src/draw/sw/lv_draw_sw_mask.c ****             if(!entry) entry = &(_circle_cache[i]);
 6287              		.loc 1 332 11 view .LVU2162
 6288 00e2 002A     		cmp	r2, #0
 6289 00e4 F3D1     		bne	.L434
 333:../../Middlewares/LVGL/GUI/lvgl/src/draw/sw/lv_draw_sw_mask.c ****             else if(_circle_cache[i].life < entry->life) entry = &(_circle_cache[i]);
 6290              		.loc 1 333 13 is_stmt 1 view .LVU2163
 333:../../Middlewares/LVGL/GUI/lvgl/src/draw/sw/lv_draw_sw_mask.c ****             else if(_circle_cache[i].life < entry->life) entry = &(_circle_cache[i]);
 6291              		.loc 1 333 15 is_stmt 0 view .LVU2164
 6292 00e6 0028     		cmp	r0, #0
 6293 00e8 ECD0     		beq	.L452
 334:../../Middlewares/LVGL/GUI/lvgl/src/draw/sw/lv_draw_sw_mask.c ****         }
 6294              		.loc 1 334 18 is_stmt 1 view .LVU2165
 334:../../Middlewares/LVGL/GUI/lvgl/src/draw/sw/lv_draw_sw_mask.c ****         }
 6295              		.loc 1 334 37 is_stmt 0 view .LVU2166
 6296 00ea C3EBC301 		rsb	r1, r3, r3, lsl #3
 6297 00ee 194A     		ldr	r2, .L454+4
 6298 00f0 02EB8102 		add	r2, r2, r1, lsl #2
 6299 00f4 D2F85811 		ldr	r1, [r2, #344]
 334:../../Middlewares/LVGL/GUI/lvgl/src/draw/sw/lv_draw_sw_mask.c ****         }
 6300              		.loc 1 334 50 view .LVU2167
 6301 00f8 0269     		ldr	r2, [r0, #16]
 334:../../Middlewares/LVGL/GUI/lvgl/src/draw/sw/lv_draw_sw_mask.c ****         }
 6302              		.loc 1 334 20 view .LVU2168
 6303 00fa 9142     		cmp	r1, r2
 6304 00fc E7DA     		bge	.L434
 334:../../Middlewares/LVGL/GUI/lvgl/src/draw/sw/lv_draw_sw_mask.c ****         }
 6305              		.loc 1 334 58 is_stmt 1 discriminator 1 view .LVU2169
 334:../../Middlewares/LVGL/GUI/lvgl/src/draw/sw/lv_draw_sw_mask.c ****         }
 6306              		.loc 1 334 64 is_stmt 0 discriminator 1 view .LVU2170
 6307 00fe C3EBC300 		rsb	r0, r3, r3, lsl #3
 6308              	.LVL706:
 334:../../Middlewares/LVGL/GUI/lvgl/src/draw/sw/lv_draw_sw_mask.c ****         }
 6309              		.loc 1 334 64 discriminator 1 view .LVU2171
 6310 0102 8000     		lsls	r0, r0, #2
 6311 0104 00F5A470 		add	r0, r0, #328
 6312 0108 124A     		ldr	r2, .L454+4
 6313 010a 1044     		add	r0, r0, r2
 6314 010c DFE7     		b	.L434
 6315              	.LVL707:
 6316              	.L451:
 339:../../Middlewares/LVGL/GUI/lvgl/src/draw/sw/lv_draw_sw_mask.c ****         entry = lv_malloc_zeroed(sizeof(lv_draw_sw_mask_radius_circle_dsc_t));
 6317              		.loc 1 339 5 is_stmt 1 view .LVU2172
 339:../../Middlewares/LVGL/GUI/lvgl/src/draw/sw/lv_draw_sw_mask.c ****         entry = lv_malloc_zeroed(sizeof(lv_draw_sw_mask_radius_circle_dsc_t));
 6318              		.loc 1 339 7 is_stmt 0 view .LVU2173
 6319 010e 98B1     		cbz	r0, .L453
 345:../../Middlewares/LVGL/GUI/lvgl/src/draw/sw/lv_draw_sw_mask.c ****         entry->life = 0;
 6320              		.loc 1 345 9 is_stmt 1 view .LVU2174
 345:../../Middlewares/LVGL/GUI/lvgl/src/draw/sw/lv_draw_sw_mask.c ****         entry->life = 0;
 6321              		.loc 1 345 14 is_stmt 0 view .LVU2175
 6322 0110 4369     		ldr	r3, [r0, #20]
 6323              	.LVL708:
ARM GAS  C:\Users\28576\AppData\Local\Temp\ccagJBpt.s 			page 171


 345:../../Middlewares/LVGL/GUI/lvgl/src/draw/sw/lv_draw_sw_mask.c ****         entry->life = 0;
 6324              		.loc 1 345 24 view .LVU2176
 6325 0112 0133     		adds	r3, r3, #1
 6326 0114 4361     		str	r3, [r0, #20]
 346:../../Middlewares/LVGL/GUI/lvgl/src/draw/sw/lv_draw_sw_mask.c ****         CIRCLE_CACHE_AGING(entry->life, radius);
 6327              		.loc 1 346 9 is_stmt 1 view .LVU2177
 346:../../Middlewares/LVGL/GUI/lvgl/src/draw/sw/lv_draw_sw_mask.c ****         CIRCLE_CACHE_AGING(entry->life, radius);
 6328              		.loc 1 346 21 is_stmt 0 view .LVU2178
 6329 0116 0023     		movs	r3, #0
 6330 0118 0361     		str	r3, [r0, #16]
 347:../../Middlewares/LVGL/GUI/lvgl/src/draw/sw/lv_draw_sw_mask.c ****     }
 6331              		.loc 1 347 9 is_stmt 1 view .LVU2179
 6332 011a 0F2D     		cmp	r5, #15
 6333 011c 15DD     		ble	.L445
 347:../../Middlewares/LVGL/GUI/lvgl/src/draw/sw/lv_draw_sw_mask.c ****     }
 6334              		.loc 1 347 9 is_stmt 0 discriminator 1 view .LVU2180
 6335 011e 2B11     		asrs	r3, r5, #4
 6336              	.L441:
 347:../../Middlewares/LVGL/GUI/lvgl/src/draw/sw/lv_draw_sw_mask.c ****     }
 6337              		.loc 1 347 9 discriminator 4 view .LVU2181
 6338 0120 B3F57A7F 		cmp	r3, #1000
 6339 0124 A8BF     		it	ge
 6340 0126 4FF47A73 		movge	r3, #1000
 6341 012a 0361     		str	r3, [r0, #16]
 6342              	.L440:
 350:../../Middlewares/LVGL/GUI/lvgl/src/draw/sw/lv_draw_sw_mask.c **** 
 6343              		.loc 1 350 5 is_stmt 1 view .LVU2182
 350:../../Middlewares/LVGL/GUI/lvgl/src/draw/sw/lv_draw_sw_mask.c **** 
 6344              		.loc 1 350 19 is_stmt 0 view .LVU2183
 6345 012c 2062     		str	r0, [r4, #32]
 352:../../Middlewares/LVGL/GUI/lvgl/src/draw/sw/lv_draw_sw_mask.c ****     lv_mutex_unlock(&circle_cache_mutex);
 6346              		.loc 1 352 5 is_stmt 1 view .LVU2184
 6347 012e 2946     		mov	r1, r5
 6348 0130 FFF7FEFF 		bl	circ_calc_aa4
 6349              	.LVL709:
 353:../../Middlewares/LVGL/GUI/lvgl/src/draw/sw/lv_draw_sw_mask.c **** 
 6350              		.loc 1 353 5 view .LVU2185
 6351              	.LBB313:
 6352              	.LBI313:
 6353              		.file 4 "H:/STM32H7/RGB_LVGL/Middlewares/LVGL/GUI/lvgl/src/osal/lv_os.h"
   1:H:/STM32H7/RGB_LVGL/Middlewares/LVGL/GUI/lvgl/src/osal\lv_os.h **** /**
   2:H:/STM32H7/RGB_LVGL/Middlewares/LVGL/GUI/lvgl/src/osal\lv_os.h ****  * @file lv_os.h
   3:H:/STM32H7/RGB_LVGL/Middlewares/LVGL/GUI/lvgl/src/osal\lv_os.h ****  *
   4:H:/STM32H7/RGB_LVGL/Middlewares/LVGL/GUI/lvgl/src/osal\lv_os.h ****  */
   5:H:/STM32H7/RGB_LVGL/Middlewares/LVGL/GUI/lvgl/src/osal\lv_os.h **** 
   6:H:/STM32H7/RGB_LVGL/Middlewares/LVGL/GUI/lvgl/src/osal\lv_os.h **** #ifndef LV_OS_H
   7:H:/STM32H7/RGB_LVGL/Middlewares/LVGL/GUI/lvgl/src/osal\lv_os.h **** #define LV_OS_H
   8:H:/STM32H7/RGB_LVGL/Middlewares/LVGL/GUI/lvgl/src/osal\lv_os.h **** 
   9:H:/STM32H7/RGB_LVGL/Middlewares/LVGL/GUI/lvgl/src/osal\lv_os.h **** #ifdef __cplusplus
  10:H:/STM32H7/RGB_LVGL/Middlewares/LVGL/GUI/lvgl/src/osal\lv_os.h **** extern "C" {
  11:H:/STM32H7/RGB_LVGL/Middlewares/LVGL/GUI/lvgl/src/osal\lv_os.h **** #endif
  12:H:/STM32H7/RGB_LVGL/Middlewares/LVGL/GUI/lvgl/src/osal\lv_os.h **** 
  13:H:/STM32H7/RGB_LVGL/Middlewares/LVGL/GUI/lvgl/src/osal\lv_os.h **** /*********************
  14:H:/STM32H7/RGB_LVGL/Middlewares/LVGL/GUI/lvgl/src/osal\lv_os.h ****  *    OS OPTIONS
  15:H:/STM32H7/RGB_LVGL/Middlewares/LVGL/GUI/lvgl/src/osal\lv_os.h ****  *********************/
  16:H:/STM32H7/RGB_LVGL/Middlewares/LVGL/GUI/lvgl/src/osal\lv_os.h **** 
  17:H:/STM32H7/RGB_LVGL/Middlewares/LVGL/GUI/lvgl/src/osal\lv_os.h **** /*********************
ARM GAS  C:\Users\28576\AppData\Local\Temp\ccagJBpt.s 			page 172


  18:H:/STM32H7/RGB_LVGL/Middlewares/LVGL/GUI/lvgl/src/osal\lv_os.h ****  *      INCLUDES
  19:H:/STM32H7/RGB_LVGL/Middlewares/LVGL/GUI/lvgl/src/osal\lv_os.h ****  *********************/
  20:H:/STM32H7/RGB_LVGL/Middlewares/LVGL/GUI/lvgl/src/osal\lv_os.h **** #include "../lv_conf_internal.h"
  21:H:/STM32H7/RGB_LVGL/Middlewares/LVGL/GUI/lvgl/src/osal\lv_os.h **** 
  22:H:/STM32H7/RGB_LVGL/Middlewares/LVGL/GUI/lvgl/src/osal\lv_os.h **** #include "../misc/lv_types.h"
  23:H:/STM32H7/RGB_LVGL/Middlewares/LVGL/GUI/lvgl/src/osal\lv_os.h **** 
  24:H:/STM32H7/RGB_LVGL/Middlewares/LVGL/GUI/lvgl/src/osal\lv_os.h **** #if LV_USE_OS == LV_OS_NONE
  25:H:/STM32H7/RGB_LVGL/Middlewares/LVGL/GUI/lvgl/src/osal\lv_os.h **** #include "lv_os_none.h"
  26:H:/STM32H7/RGB_LVGL/Middlewares/LVGL/GUI/lvgl/src/osal\lv_os.h **** #elif LV_USE_OS == LV_OS_PTHREAD
  27:H:/STM32H7/RGB_LVGL/Middlewares/LVGL/GUI/lvgl/src/osal\lv_os.h **** #include "lv_pthread.h"
  28:H:/STM32H7/RGB_LVGL/Middlewares/LVGL/GUI/lvgl/src/osal\lv_os.h **** #elif LV_USE_OS == LV_OS_FREERTOS
  29:H:/STM32H7/RGB_LVGL/Middlewares/LVGL/GUI/lvgl/src/osal\lv_os.h **** #include "lv_freertos.h"
  30:H:/STM32H7/RGB_LVGL/Middlewares/LVGL/GUI/lvgl/src/osal\lv_os.h **** #elif LV_USE_OS == LV_OS_CMSIS_RTOS2
  31:H:/STM32H7/RGB_LVGL/Middlewares/LVGL/GUI/lvgl/src/osal\lv_os.h **** #include "lv_cmsis_rtos2.h"
  32:H:/STM32H7/RGB_LVGL/Middlewares/LVGL/GUI/lvgl/src/osal\lv_os.h **** #elif LV_USE_OS == LV_OS_RTTHREAD
  33:H:/STM32H7/RGB_LVGL/Middlewares/LVGL/GUI/lvgl/src/osal\lv_os.h **** #include "lv_rtthread.h"
  34:H:/STM32H7/RGB_LVGL/Middlewares/LVGL/GUI/lvgl/src/osal\lv_os.h **** #elif LV_USE_OS == LV_OS_WINDOWS
  35:H:/STM32H7/RGB_LVGL/Middlewares/LVGL/GUI/lvgl/src/osal\lv_os.h **** #include "lv_windows.h"
  36:H:/STM32H7/RGB_LVGL/Middlewares/LVGL/GUI/lvgl/src/osal\lv_os.h **** #elif LV_USE_OS == LV_OS_MQX
  37:H:/STM32H7/RGB_LVGL/Middlewares/LVGL/GUI/lvgl/src/osal\lv_os.h **** #include "lv_mqx.h"
  38:H:/STM32H7/RGB_LVGL/Middlewares/LVGL/GUI/lvgl/src/osal\lv_os.h **** #elif LV_USE_OS == LV_OS_SDL2
  39:H:/STM32H7/RGB_LVGL/Middlewares/LVGL/GUI/lvgl/src/osal\lv_os.h **** #include "lv_sdl2.h"
  40:H:/STM32H7/RGB_LVGL/Middlewares/LVGL/GUI/lvgl/src/osal\lv_os.h **** #elif LV_USE_OS == LV_OS_CUSTOM
  41:H:/STM32H7/RGB_LVGL/Middlewares/LVGL/GUI/lvgl/src/osal\lv_os.h **** #include LV_OS_CUSTOM_INCLUDE
  42:H:/STM32H7/RGB_LVGL/Middlewares/LVGL/GUI/lvgl/src/osal\lv_os.h **** #endif
  43:H:/STM32H7/RGB_LVGL/Middlewares/LVGL/GUI/lvgl/src/osal\lv_os.h **** 
  44:H:/STM32H7/RGB_LVGL/Middlewares/LVGL/GUI/lvgl/src/osal\lv_os.h **** /*********************
  45:H:/STM32H7/RGB_LVGL/Middlewares/LVGL/GUI/lvgl/src/osal\lv_os.h ****  *      DEFINES
  46:H:/STM32H7/RGB_LVGL/Middlewares/LVGL/GUI/lvgl/src/osal\lv_os.h ****  *********************/
  47:H:/STM32H7/RGB_LVGL/Middlewares/LVGL/GUI/lvgl/src/osal\lv_os.h **** 
  48:H:/STM32H7/RGB_LVGL/Middlewares/LVGL/GUI/lvgl/src/osal\lv_os.h **** /**********************
  49:H:/STM32H7/RGB_LVGL/Middlewares/LVGL/GUI/lvgl/src/osal\lv_os.h ****  *      TYPEDEFS
  50:H:/STM32H7/RGB_LVGL/Middlewares/LVGL/GUI/lvgl/src/osal\lv_os.h ****  **********************/
  51:H:/STM32H7/RGB_LVGL/Middlewares/LVGL/GUI/lvgl/src/osal\lv_os.h **** typedef enum {
  52:H:/STM32H7/RGB_LVGL/Middlewares/LVGL/GUI/lvgl/src/osal\lv_os.h ****     LV_THREAD_PRIO_LOWEST,
  53:H:/STM32H7/RGB_LVGL/Middlewares/LVGL/GUI/lvgl/src/osal\lv_os.h ****     LV_THREAD_PRIO_LOW,
  54:H:/STM32H7/RGB_LVGL/Middlewares/LVGL/GUI/lvgl/src/osal\lv_os.h ****     LV_THREAD_PRIO_MID,
  55:H:/STM32H7/RGB_LVGL/Middlewares/LVGL/GUI/lvgl/src/osal\lv_os.h ****     LV_THREAD_PRIO_HIGH,
  56:H:/STM32H7/RGB_LVGL/Middlewares/LVGL/GUI/lvgl/src/osal\lv_os.h ****     LV_THREAD_PRIO_HIGHEST,
  57:H:/STM32H7/RGB_LVGL/Middlewares/LVGL/GUI/lvgl/src/osal\lv_os.h **** } lv_thread_prio_t;
  58:H:/STM32H7/RGB_LVGL/Middlewares/LVGL/GUI/lvgl/src/osal\lv_os.h **** 
  59:H:/STM32H7/RGB_LVGL/Middlewares/LVGL/GUI/lvgl/src/osal\lv_os.h **** /**********************
  60:H:/STM32H7/RGB_LVGL/Middlewares/LVGL/GUI/lvgl/src/osal\lv_os.h ****  * GLOBAL PROTOTYPES
  61:H:/STM32H7/RGB_LVGL/Middlewares/LVGL/GUI/lvgl/src/osal\lv_os.h ****  **********************/
  62:H:/STM32H7/RGB_LVGL/Middlewares/LVGL/GUI/lvgl/src/osal\lv_os.h **** 
  63:H:/STM32H7/RGB_LVGL/Middlewares/LVGL/GUI/lvgl/src/osal\lv_os.h **** /**
  64:H:/STM32H7/RGB_LVGL/Middlewares/LVGL/GUI/lvgl/src/osal\lv_os.h ****  * Set it for `LV_SYSMON_GET_IDLE` to show the CPU usage
  65:H:/STM32H7/RGB_LVGL/Middlewares/LVGL/GUI/lvgl/src/osal\lv_os.h ****  * @return the idle percentage since the last call
  66:H:/STM32H7/RGB_LVGL/Middlewares/LVGL/GUI/lvgl/src/osal\lv_os.h ****  */
  67:H:/STM32H7/RGB_LVGL/Middlewares/LVGL/GUI/lvgl/src/osal\lv_os.h **** uint32_t lv_os_get_idle_percent(void);
  68:H:/STM32H7/RGB_LVGL/Middlewares/LVGL/GUI/lvgl/src/osal\lv_os.h **** 
  69:H:/STM32H7/RGB_LVGL/Middlewares/LVGL/GUI/lvgl/src/osal\lv_os.h **** #if LV_USE_OS != LV_OS_NONE
  70:H:/STM32H7/RGB_LVGL/Middlewares/LVGL/GUI/lvgl/src/osal\lv_os.h **** 
  71:H:/STM32H7/RGB_LVGL/Middlewares/LVGL/GUI/lvgl/src/osal\lv_os.h **** /*----------------------------------------
  72:H:/STM32H7/RGB_LVGL/Middlewares/LVGL/GUI/lvgl/src/osal\lv_os.h ****  * These functions needs to be implemented
  73:H:/STM32H7/RGB_LVGL/Middlewares/LVGL/GUI/lvgl/src/osal\lv_os.h ****  * for specific operating systems
  74:H:/STM32H7/RGB_LVGL/Middlewares/LVGL/GUI/lvgl/src/osal\lv_os.h ****  *---------------------------------------*/
ARM GAS  C:\Users\28576\AppData\Local\Temp\ccagJBpt.s 			page 173


  75:H:/STM32H7/RGB_LVGL/Middlewares/LVGL/GUI/lvgl/src/osal\lv_os.h **** 
  76:H:/STM32H7/RGB_LVGL/Middlewares/LVGL/GUI/lvgl/src/osal\lv_os.h **** /**
  77:H:/STM32H7/RGB_LVGL/Middlewares/LVGL/GUI/lvgl/src/osal\lv_os.h ****  * Create a new thread
  78:H:/STM32H7/RGB_LVGL/Middlewares/LVGL/GUI/lvgl/src/osal\lv_os.h ****  * @param thread        a variable in which the thread will be stored
  79:H:/STM32H7/RGB_LVGL/Middlewares/LVGL/GUI/lvgl/src/osal\lv_os.h ****  * @param name          the name of the thread
  80:H:/STM32H7/RGB_LVGL/Middlewares/LVGL/GUI/lvgl/src/osal\lv_os.h ****  * @param prio          priority of the thread
  81:H:/STM32H7/RGB_LVGL/Middlewares/LVGL/GUI/lvgl/src/osal\lv_os.h ****  * @param callback      function of the thread
  82:H:/STM32H7/RGB_LVGL/Middlewares/LVGL/GUI/lvgl/src/osal\lv_os.h ****  * @param stack_size    stack size in bytes
  83:H:/STM32H7/RGB_LVGL/Middlewares/LVGL/GUI/lvgl/src/osal\lv_os.h ****  * @param user_data     arbitrary data, will be available in the callback
  84:H:/STM32H7/RGB_LVGL/Middlewares/LVGL/GUI/lvgl/src/osal\lv_os.h ****  * @return              LV_RESULT_OK: success; LV_RESULT_INVALID: failure
  85:H:/STM32H7/RGB_LVGL/Middlewares/LVGL/GUI/lvgl/src/osal\lv_os.h ****  */
  86:H:/STM32H7/RGB_LVGL/Middlewares/LVGL/GUI/lvgl/src/osal\lv_os.h **** lv_result_t lv_thread_init(lv_thread_t * thread, const char * const name,
  87:H:/STM32H7/RGB_LVGL/Middlewares/LVGL/GUI/lvgl/src/osal\lv_os.h ****                            lv_thread_prio_t prio, void (*callback)(void *), size_t stack_size,
  88:H:/STM32H7/RGB_LVGL/Middlewares/LVGL/GUI/lvgl/src/osal\lv_os.h ****                            void * user_data);
  89:H:/STM32H7/RGB_LVGL/Middlewares/LVGL/GUI/lvgl/src/osal\lv_os.h **** 
  90:H:/STM32H7/RGB_LVGL/Middlewares/LVGL/GUI/lvgl/src/osal\lv_os.h **** /**
  91:H:/STM32H7/RGB_LVGL/Middlewares/LVGL/GUI/lvgl/src/osal\lv_os.h ****  * Delete a thread
  92:H:/STM32H7/RGB_LVGL/Middlewares/LVGL/GUI/lvgl/src/osal\lv_os.h ****  * @param thread        the thread to delete
  93:H:/STM32H7/RGB_LVGL/Middlewares/LVGL/GUI/lvgl/src/osal\lv_os.h ****  * @return              LV_RESULT_OK: success; LV_RESULT_INVALID: failure
  94:H:/STM32H7/RGB_LVGL/Middlewares/LVGL/GUI/lvgl/src/osal\lv_os.h ****  */
  95:H:/STM32H7/RGB_LVGL/Middlewares/LVGL/GUI/lvgl/src/osal\lv_os.h **** lv_result_t lv_thread_delete(lv_thread_t * thread);
  96:H:/STM32H7/RGB_LVGL/Middlewares/LVGL/GUI/lvgl/src/osal\lv_os.h **** 
  97:H:/STM32H7/RGB_LVGL/Middlewares/LVGL/GUI/lvgl/src/osal\lv_os.h **** /**
  98:H:/STM32H7/RGB_LVGL/Middlewares/LVGL/GUI/lvgl/src/osal\lv_os.h ****  * Create a mutex
  99:H:/STM32H7/RGB_LVGL/Middlewares/LVGL/GUI/lvgl/src/osal\lv_os.h ****  * @param mutex         a variable in which the thread will be stored
 100:H:/STM32H7/RGB_LVGL/Middlewares/LVGL/GUI/lvgl/src/osal\lv_os.h ****  * @return              LV_RESULT_OK: success; LV_RESULT_INVALID: failure
 101:H:/STM32H7/RGB_LVGL/Middlewares/LVGL/GUI/lvgl/src/osal\lv_os.h ****  */
 102:H:/STM32H7/RGB_LVGL/Middlewares/LVGL/GUI/lvgl/src/osal\lv_os.h **** lv_result_t lv_mutex_init(lv_mutex_t * mutex);
 103:H:/STM32H7/RGB_LVGL/Middlewares/LVGL/GUI/lvgl/src/osal\lv_os.h **** 
 104:H:/STM32H7/RGB_LVGL/Middlewares/LVGL/GUI/lvgl/src/osal\lv_os.h **** /**
 105:H:/STM32H7/RGB_LVGL/Middlewares/LVGL/GUI/lvgl/src/osal\lv_os.h ****  * Lock a mutex
 106:H:/STM32H7/RGB_LVGL/Middlewares/LVGL/GUI/lvgl/src/osal\lv_os.h ****  * @param mutex         the mutex to lock
 107:H:/STM32H7/RGB_LVGL/Middlewares/LVGL/GUI/lvgl/src/osal\lv_os.h ****  * @return              LV_RESULT_OK: success; LV_RESULT_INVALID: failure
 108:H:/STM32H7/RGB_LVGL/Middlewares/LVGL/GUI/lvgl/src/osal\lv_os.h ****  */
 109:H:/STM32H7/RGB_LVGL/Middlewares/LVGL/GUI/lvgl/src/osal\lv_os.h **** lv_result_t lv_mutex_lock(lv_mutex_t * mutex);
 110:H:/STM32H7/RGB_LVGL/Middlewares/LVGL/GUI/lvgl/src/osal\lv_os.h **** 
 111:H:/STM32H7/RGB_LVGL/Middlewares/LVGL/GUI/lvgl/src/osal\lv_os.h **** /**
 112:H:/STM32H7/RGB_LVGL/Middlewares/LVGL/GUI/lvgl/src/osal\lv_os.h ****  * Lock a mutex from interrupt
 113:H:/STM32H7/RGB_LVGL/Middlewares/LVGL/GUI/lvgl/src/osal\lv_os.h ****  * @param mutex         the mutex to lock
 114:H:/STM32H7/RGB_LVGL/Middlewares/LVGL/GUI/lvgl/src/osal\lv_os.h ****  * @return              LV_RESULT_OK: success; LV_RESULT_INVALID: failure
 115:H:/STM32H7/RGB_LVGL/Middlewares/LVGL/GUI/lvgl/src/osal\lv_os.h ****  */
 116:H:/STM32H7/RGB_LVGL/Middlewares/LVGL/GUI/lvgl/src/osal\lv_os.h **** lv_result_t lv_mutex_lock_isr(lv_mutex_t * mutex);
 117:H:/STM32H7/RGB_LVGL/Middlewares/LVGL/GUI/lvgl/src/osal\lv_os.h **** 
 118:H:/STM32H7/RGB_LVGL/Middlewares/LVGL/GUI/lvgl/src/osal\lv_os.h **** /**
 119:H:/STM32H7/RGB_LVGL/Middlewares/LVGL/GUI/lvgl/src/osal\lv_os.h ****  * Unlock a mutex
 120:H:/STM32H7/RGB_LVGL/Middlewares/LVGL/GUI/lvgl/src/osal\lv_os.h ****  * @param mutex         the mutex to unlock
 121:H:/STM32H7/RGB_LVGL/Middlewares/LVGL/GUI/lvgl/src/osal\lv_os.h ****  * @return              LV_RESULT_OK: success; LV_RESULT_INVALID: failure
 122:H:/STM32H7/RGB_LVGL/Middlewares/LVGL/GUI/lvgl/src/osal\lv_os.h ****  */
 123:H:/STM32H7/RGB_LVGL/Middlewares/LVGL/GUI/lvgl/src/osal\lv_os.h **** lv_result_t lv_mutex_unlock(lv_mutex_t * mutex);
 124:H:/STM32H7/RGB_LVGL/Middlewares/LVGL/GUI/lvgl/src/osal\lv_os.h **** 
 125:H:/STM32H7/RGB_LVGL/Middlewares/LVGL/GUI/lvgl/src/osal\lv_os.h **** /**
 126:H:/STM32H7/RGB_LVGL/Middlewares/LVGL/GUI/lvgl/src/osal\lv_os.h ****  * Delete a mutex
 127:H:/STM32H7/RGB_LVGL/Middlewares/LVGL/GUI/lvgl/src/osal\lv_os.h ****  * @param mutex         the mutex to delete
 128:H:/STM32H7/RGB_LVGL/Middlewares/LVGL/GUI/lvgl/src/osal\lv_os.h ****  * @return              LV_RESULT_OK: success; LV_RESULT_INVALID: failure
 129:H:/STM32H7/RGB_LVGL/Middlewares/LVGL/GUI/lvgl/src/osal\lv_os.h ****  */
 130:H:/STM32H7/RGB_LVGL/Middlewares/LVGL/GUI/lvgl/src/osal\lv_os.h **** lv_result_t lv_mutex_delete(lv_mutex_t * mutex);
 131:H:/STM32H7/RGB_LVGL/Middlewares/LVGL/GUI/lvgl/src/osal\lv_os.h **** 
ARM GAS  C:\Users\28576\AppData\Local\Temp\ccagJBpt.s 			page 174


 132:H:/STM32H7/RGB_LVGL/Middlewares/LVGL/GUI/lvgl/src/osal\lv_os.h **** /**
 133:H:/STM32H7/RGB_LVGL/Middlewares/LVGL/GUI/lvgl/src/osal\lv_os.h ****  * Create a thread synchronization object
 134:H:/STM32H7/RGB_LVGL/Middlewares/LVGL/GUI/lvgl/src/osal\lv_os.h ****  * @param sync          a variable in which the sync will be stored
 135:H:/STM32H7/RGB_LVGL/Middlewares/LVGL/GUI/lvgl/src/osal\lv_os.h ****  * @return              LV_RESULT_OK: success; LV_RESULT_INVALID: failure
 136:H:/STM32H7/RGB_LVGL/Middlewares/LVGL/GUI/lvgl/src/osal\lv_os.h ****  */
 137:H:/STM32H7/RGB_LVGL/Middlewares/LVGL/GUI/lvgl/src/osal\lv_os.h **** lv_result_t lv_thread_sync_init(lv_thread_sync_t * sync);
 138:H:/STM32H7/RGB_LVGL/Middlewares/LVGL/GUI/lvgl/src/osal\lv_os.h **** 
 139:H:/STM32H7/RGB_LVGL/Middlewares/LVGL/GUI/lvgl/src/osal\lv_os.h **** /**
 140:H:/STM32H7/RGB_LVGL/Middlewares/LVGL/GUI/lvgl/src/osal\lv_os.h ****  * Wait for a "signal" on a sync object
 141:H:/STM32H7/RGB_LVGL/Middlewares/LVGL/GUI/lvgl/src/osal\lv_os.h ****  * @param sync      a sync object
 142:H:/STM32H7/RGB_LVGL/Middlewares/LVGL/GUI/lvgl/src/osal\lv_os.h ****  * @return          LV_RESULT_OK: success; LV_RESULT_INVALID: failure
 143:H:/STM32H7/RGB_LVGL/Middlewares/LVGL/GUI/lvgl/src/osal\lv_os.h ****  */
 144:H:/STM32H7/RGB_LVGL/Middlewares/LVGL/GUI/lvgl/src/osal\lv_os.h **** lv_result_t lv_thread_sync_wait(lv_thread_sync_t * sync);
 145:H:/STM32H7/RGB_LVGL/Middlewares/LVGL/GUI/lvgl/src/osal\lv_os.h **** 
 146:H:/STM32H7/RGB_LVGL/Middlewares/LVGL/GUI/lvgl/src/osal\lv_os.h **** /**
 147:H:/STM32H7/RGB_LVGL/Middlewares/LVGL/GUI/lvgl/src/osal\lv_os.h ****  * Send a wake-up signal to a sync object
 148:H:/STM32H7/RGB_LVGL/Middlewares/LVGL/GUI/lvgl/src/osal\lv_os.h ****  * @param sync      a sync object
 149:H:/STM32H7/RGB_LVGL/Middlewares/LVGL/GUI/lvgl/src/osal\lv_os.h ****  * @return          LV_RESULT_OK: success; LV_RESULT_INVALID: failure
 150:H:/STM32H7/RGB_LVGL/Middlewares/LVGL/GUI/lvgl/src/osal\lv_os.h ****  */
 151:H:/STM32H7/RGB_LVGL/Middlewares/LVGL/GUI/lvgl/src/osal\lv_os.h **** lv_result_t lv_thread_sync_signal(lv_thread_sync_t * sync);
 152:H:/STM32H7/RGB_LVGL/Middlewares/LVGL/GUI/lvgl/src/osal\lv_os.h **** 
 153:H:/STM32H7/RGB_LVGL/Middlewares/LVGL/GUI/lvgl/src/osal\lv_os.h **** /**
 154:H:/STM32H7/RGB_LVGL/Middlewares/LVGL/GUI/lvgl/src/osal\lv_os.h ****  * Send a wake-up signal to a sync object from interrupt
 155:H:/STM32H7/RGB_LVGL/Middlewares/LVGL/GUI/lvgl/src/osal\lv_os.h ****  * @param sync      a sync object
 156:H:/STM32H7/RGB_LVGL/Middlewares/LVGL/GUI/lvgl/src/osal\lv_os.h ****  * @return          LV_RESULT_OK: success; LV_RESULT_INVALID: failure
 157:H:/STM32H7/RGB_LVGL/Middlewares/LVGL/GUI/lvgl/src/osal\lv_os.h ****  */
 158:H:/STM32H7/RGB_LVGL/Middlewares/LVGL/GUI/lvgl/src/osal\lv_os.h **** lv_result_t lv_thread_sync_signal_isr(lv_thread_sync_t * sync);
 159:H:/STM32H7/RGB_LVGL/Middlewares/LVGL/GUI/lvgl/src/osal\lv_os.h **** 
 160:H:/STM32H7/RGB_LVGL/Middlewares/LVGL/GUI/lvgl/src/osal\lv_os.h **** /**
 161:H:/STM32H7/RGB_LVGL/Middlewares/LVGL/GUI/lvgl/src/osal\lv_os.h ****  * Delete a sync object
 162:H:/STM32H7/RGB_LVGL/Middlewares/LVGL/GUI/lvgl/src/osal\lv_os.h ****  * @param sync      a sync object to delete
 163:H:/STM32H7/RGB_LVGL/Middlewares/LVGL/GUI/lvgl/src/osal\lv_os.h ****  * @return          LV_RESULT_OK: success; LV_RESULT_INVALID: failure
 164:H:/STM32H7/RGB_LVGL/Middlewares/LVGL/GUI/lvgl/src/osal\lv_os.h ****  */
 165:H:/STM32H7/RGB_LVGL/Middlewares/LVGL/GUI/lvgl/src/osal\lv_os.h **** lv_result_t lv_thread_sync_delete(lv_thread_sync_t * sync);
 166:H:/STM32H7/RGB_LVGL/Middlewares/LVGL/GUI/lvgl/src/osal\lv_os.h **** 
 167:H:/STM32H7/RGB_LVGL/Middlewares/LVGL/GUI/lvgl/src/osal\lv_os.h **** /**
 168:H:/STM32H7/RGB_LVGL/Middlewares/LVGL/GUI/lvgl/src/osal\lv_os.h ****  * Lock LVGL's general mutex.
 169:H:/STM32H7/RGB_LVGL/Middlewares/LVGL/GUI/lvgl/src/osal\lv_os.h ****  * LVGL is not thread safe, so a mutex is used to avoid executing multiple LVGL functions at the sa
 170:H:/STM32H7/RGB_LVGL/Middlewares/LVGL/GUI/lvgl/src/osal\lv_os.h ****  * from different threads. It shall be called when calling LVGL functions from threads
 171:H:/STM32H7/RGB_LVGL/Middlewares/LVGL/GUI/lvgl/src/osal\lv_os.h ****  * different than lv_timer_handler's thread. It doesn't need to be called in LVGL events because
 172:H:/STM32H7/RGB_LVGL/Middlewares/LVGL/GUI/lvgl/src/osal\lv_os.h ****  * they are called from lv_timer_handler().
 173:H:/STM32H7/RGB_LVGL/Middlewares/LVGL/GUI/lvgl/src/osal\lv_os.h ****  * It is called internally in lv_timer_handler().
 174:H:/STM32H7/RGB_LVGL/Middlewares/LVGL/GUI/lvgl/src/osal\lv_os.h ****  */
 175:H:/STM32H7/RGB_LVGL/Middlewares/LVGL/GUI/lvgl/src/osal\lv_os.h **** void lv_lock(void);
 176:H:/STM32H7/RGB_LVGL/Middlewares/LVGL/GUI/lvgl/src/osal\lv_os.h **** 
 177:H:/STM32H7/RGB_LVGL/Middlewares/LVGL/GUI/lvgl/src/osal\lv_os.h **** /**
 178:H:/STM32H7/RGB_LVGL/Middlewares/LVGL/GUI/lvgl/src/osal\lv_os.h ****  * Same as `lv_lock()` but can be called from an interrupt.
 179:H:/STM32H7/RGB_LVGL/Middlewares/LVGL/GUI/lvgl/src/osal\lv_os.h ****  * @return              LV_RESULT_OK: success; LV_RESULT_INVALID: failure
 180:H:/STM32H7/RGB_LVGL/Middlewares/LVGL/GUI/lvgl/src/osal\lv_os.h ****  */
 181:H:/STM32H7/RGB_LVGL/Middlewares/LVGL/GUI/lvgl/src/osal\lv_os.h **** lv_result_t lv_lock_isr(void);
 182:H:/STM32H7/RGB_LVGL/Middlewares/LVGL/GUI/lvgl/src/osal\lv_os.h **** 
 183:H:/STM32H7/RGB_LVGL/Middlewares/LVGL/GUI/lvgl/src/osal\lv_os.h **** /**
 184:H:/STM32H7/RGB_LVGL/Middlewares/LVGL/GUI/lvgl/src/osal\lv_os.h ****  * The pair of `lv_lock()` and `lv_lock_isr()`.
 185:H:/STM32H7/RGB_LVGL/Middlewares/LVGL/GUI/lvgl/src/osal\lv_os.h ****  * It unlocks LVGL general mutex.
 186:H:/STM32H7/RGB_LVGL/Middlewares/LVGL/GUI/lvgl/src/osal\lv_os.h ****  * It is called internally in lv_timer_handler().
 187:H:/STM32H7/RGB_LVGL/Middlewares/LVGL/GUI/lvgl/src/osal\lv_os.h ****  */
 188:H:/STM32H7/RGB_LVGL/Middlewares/LVGL/GUI/lvgl/src/osal\lv_os.h **** void lv_unlock(void);
ARM GAS  C:\Users\28576\AppData\Local\Temp\ccagJBpt.s 			page 175


 189:H:/STM32H7/RGB_LVGL/Middlewares/LVGL/GUI/lvgl/src/osal\lv_os.h **** 
 190:H:/STM32H7/RGB_LVGL/Middlewares/LVGL/GUI/lvgl/src/osal\lv_os.h **** #else
 191:H:/STM32H7/RGB_LVGL/Middlewares/LVGL/GUI/lvgl/src/osal\lv_os.h **** 
 192:H:/STM32H7/RGB_LVGL/Middlewares/LVGL/GUI/lvgl/src/osal\lv_os.h **** /* Since compilation does not necessarily optimize cross-file empty functions well
 193:H:/STM32H7/RGB_LVGL/Middlewares/LVGL/GUI/lvgl/src/osal\lv_os.h ****  * (-O3 optimization alone is not enough unless LTO optimization is enabled),
 194:H:/STM32H7/RGB_LVGL/Middlewares/LVGL/GUI/lvgl/src/osal\lv_os.h ****  * In the absence of an operating system, use inline functions to help compile
 195:H:/STM32H7/RGB_LVGL/Middlewares/LVGL/GUI/lvgl/src/osal\lv_os.h ****  * optimizations and avoid the call overhead of the OS API to ensure no performance penalty.
 196:H:/STM32H7/RGB_LVGL/Middlewares/LVGL/GUI/lvgl/src/osal\lv_os.h ****  */
 197:H:/STM32H7/RGB_LVGL/Middlewares/LVGL/GUI/lvgl/src/osal\lv_os.h **** 
 198:H:/STM32H7/RGB_LVGL/Middlewares/LVGL/GUI/lvgl/src/osal\lv_os.h **** static inline lv_result_t lv_thread_init(lv_thread_t * thread, const char * const name, lv_thread_p
 199:H:/STM32H7/RGB_LVGL/Middlewares/LVGL/GUI/lvgl/src/osal\lv_os.h ****                                          void (*callback)(void *), size_t stack_size, void * user_d
 200:H:/STM32H7/RGB_LVGL/Middlewares/LVGL/GUI/lvgl/src/osal\lv_os.h **** {
 201:H:/STM32H7/RGB_LVGL/Middlewares/LVGL/GUI/lvgl/src/osal\lv_os.h ****     LV_UNUSED(thread);
 202:H:/STM32H7/RGB_LVGL/Middlewares/LVGL/GUI/lvgl/src/osal\lv_os.h ****     LV_UNUSED(name);
 203:H:/STM32H7/RGB_LVGL/Middlewares/LVGL/GUI/lvgl/src/osal\lv_os.h ****     LV_UNUSED(callback);
 204:H:/STM32H7/RGB_LVGL/Middlewares/LVGL/GUI/lvgl/src/osal\lv_os.h ****     LV_UNUSED(prio);
 205:H:/STM32H7/RGB_LVGL/Middlewares/LVGL/GUI/lvgl/src/osal\lv_os.h ****     LV_UNUSED(stack_size);
 206:H:/STM32H7/RGB_LVGL/Middlewares/LVGL/GUI/lvgl/src/osal\lv_os.h ****     LV_UNUSED(user_data);
 207:H:/STM32H7/RGB_LVGL/Middlewares/LVGL/GUI/lvgl/src/osal\lv_os.h ****     return LV_RESULT_INVALID;
 208:H:/STM32H7/RGB_LVGL/Middlewares/LVGL/GUI/lvgl/src/osal\lv_os.h **** }
 209:H:/STM32H7/RGB_LVGL/Middlewares/LVGL/GUI/lvgl/src/osal\lv_os.h **** 
 210:H:/STM32H7/RGB_LVGL/Middlewares/LVGL/GUI/lvgl/src/osal\lv_os.h **** static inline lv_result_t lv_thread_delete(lv_thread_t * thread)
 211:H:/STM32H7/RGB_LVGL/Middlewares/LVGL/GUI/lvgl/src/osal\lv_os.h **** {
 212:H:/STM32H7/RGB_LVGL/Middlewares/LVGL/GUI/lvgl/src/osal\lv_os.h ****     LV_UNUSED(thread);
 213:H:/STM32H7/RGB_LVGL/Middlewares/LVGL/GUI/lvgl/src/osal\lv_os.h ****     return LV_RESULT_INVALID;
 214:H:/STM32H7/RGB_LVGL/Middlewares/LVGL/GUI/lvgl/src/osal\lv_os.h **** }
 215:H:/STM32H7/RGB_LVGL/Middlewares/LVGL/GUI/lvgl/src/osal\lv_os.h **** 
 216:H:/STM32H7/RGB_LVGL/Middlewares/LVGL/GUI/lvgl/src/osal\lv_os.h **** static inline lv_result_t lv_mutex_init(lv_mutex_t * mutex)
 217:H:/STM32H7/RGB_LVGL/Middlewares/LVGL/GUI/lvgl/src/osal\lv_os.h **** {
 218:H:/STM32H7/RGB_LVGL/Middlewares/LVGL/GUI/lvgl/src/osal\lv_os.h ****     LV_UNUSED(mutex);
 219:H:/STM32H7/RGB_LVGL/Middlewares/LVGL/GUI/lvgl/src/osal\lv_os.h ****     return LV_RESULT_OK;
 220:H:/STM32H7/RGB_LVGL/Middlewares/LVGL/GUI/lvgl/src/osal\lv_os.h **** }
 221:H:/STM32H7/RGB_LVGL/Middlewares/LVGL/GUI/lvgl/src/osal\lv_os.h **** 
 222:H:/STM32H7/RGB_LVGL/Middlewares/LVGL/GUI/lvgl/src/osal\lv_os.h **** static inline lv_result_t lv_mutex_lock(lv_mutex_t * mutex)
 223:H:/STM32H7/RGB_LVGL/Middlewares/LVGL/GUI/lvgl/src/osal\lv_os.h **** {
 224:H:/STM32H7/RGB_LVGL/Middlewares/LVGL/GUI/lvgl/src/osal\lv_os.h ****     LV_UNUSED(mutex);
 225:H:/STM32H7/RGB_LVGL/Middlewares/LVGL/GUI/lvgl/src/osal\lv_os.h ****     return LV_RESULT_OK;
 226:H:/STM32H7/RGB_LVGL/Middlewares/LVGL/GUI/lvgl/src/osal\lv_os.h **** }
 227:H:/STM32H7/RGB_LVGL/Middlewares/LVGL/GUI/lvgl/src/osal\lv_os.h **** 
 228:H:/STM32H7/RGB_LVGL/Middlewares/LVGL/GUI/lvgl/src/osal\lv_os.h **** static inline lv_result_t lv_mutex_lock_isr(lv_mutex_t * mutex)
 229:H:/STM32H7/RGB_LVGL/Middlewares/LVGL/GUI/lvgl/src/osal\lv_os.h **** {
 230:H:/STM32H7/RGB_LVGL/Middlewares/LVGL/GUI/lvgl/src/osal\lv_os.h ****     LV_UNUSED(mutex);
 231:H:/STM32H7/RGB_LVGL/Middlewares/LVGL/GUI/lvgl/src/osal\lv_os.h ****     return LV_RESULT_OK;
 232:H:/STM32H7/RGB_LVGL/Middlewares/LVGL/GUI/lvgl/src/osal\lv_os.h **** }
 233:H:/STM32H7/RGB_LVGL/Middlewares/LVGL/GUI/lvgl/src/osal\lv_os.h **** 
 234:H:/STM32H7/RGB_LVGL/Middlewares/LVGL/GUI/lvgl/src/osal\lv_os.h **** static inline lv_result_t lv_mutex_unlock(lv_mutex_t * mutex)
 6354              		.loc 4 234 27 view .LVU2186
 6355              	.LBB314:
 235:H:/STM32H7/RGB_LVGL/Middlewares/LVGL/GUI/lvgl/src/osal\lv_os.h **** {
 236:H:/STM32H7/RGB_LVGL/Middlewares/LVGL/GUI/lvgl/src/osal\lv_os.h ****     LV_UNUSED(mutex);
 6356              		.loc 4 236 5 view .LVU2187
 237:H:/STM32H7/RGB_LVGL/Middlewares/LVGL/GUI/lvgl/src/osal\lv_os.h ****     return LV_RESULT_OK;
 6357              		.loc 4 237 5 view .LVU2188
 6358              	.L425:
 6359              		.loc 4 237 5 is_stmt 0 view .LVU2189
 6360              	.LBE314:
 6361              	.LBE313:
ARM GAS  C:\Users\28576\AppData\Local\Temp\ccagJBpt.s 			page 176


 355:../../Middlewares/LVGL/GUI/lvgl/src/draw/sw/lv_draw_sw_mask.c **** 
 6362              		.loc 1 355 1 view .LVU2190
 6363 0134 BDE8F081 		pop	{r4, r5, r6, r7, r8, pc}
 6364              	.LVL710:
 6365              	.L453:
 340:../../Middlewares/LVGL/GUI/lvgl/src/draw/sw/lv_draw_sw_mask.c ****         LV_ASSERT_MALLOC(entry);
 6366              		.loc 1 340 9 is_stmt 1 view .LVU2191
 340:../../Middlewares/LVGL/GUI/lvgl/src/draw/sw/lv_draw_sw_mask.c ****         LV_ASSERT_MALLOC(entry);
 6367              		.loc 1 340 17 is_stmt 0 view .LVU2192
 6368 0138 1C20     		movs	r0, #28
 6369              	.LVL711:
 340:../../Middlewares/LVGL/GUI/lvgl/src/draw/sw/lv_draw_sw_mask.c ****         LV_ASSERT_MALLOC(entry);
 6370              		.loc 1 340 17 view .LVU2193
 6371 013a FFF7FEFF 		bl	lv_malloc_zeroed
 6372              	.LVL712:
 341:../../Middlewares/LVGL/GUI/lvgl/src/draw/sw/lv_draw_sw_mask.c ****         entry->life = -1;
 6373              		.loc 1 341 9 is_stmt 1 view .LVU2194
 341:../../Middlewares/LVGL/GUI/lvgl/src/draw/sw/lv_draw_sw_mask.c ****         entry->life = -1;
 6374              		.loc 1 341 9 view .LVU2195
 6375 013e 18B1     		cbz	r0, .L439
 341:../../Middlewares/LVGL/GUI/lvgl/src/draw/sw/lv_draw_sw_mask.c ****         entry->life = -1;
 6376              		.loc 1 341 9 view .LVU2196
 341:../../Middlewares/LVGL/GUI/lvgl/src/draw/sw/lv_draw_sw_mask.c ****         entry->life = -1;
 6377              		.loc 1 341 32 view .LVU2197
 342:../../Middlewares/LVGL/GUI/lvgl/src/draw/sw/lv_draw_sw_mask.c ****     }
 6378              		.loc 1 342 9 view .LVU2198
 342:../../Middlewares/LVGL/GUI/lvgl/src/draw/sw/lv_draw_sw_mask.c ****     }
 6379              		.loc 1 342 21 is_stmt 0 view .LVU2199
 6380 0140 4FF0FF33 		mov	r3, #-1
 6381 0144 0361     		str	r3, [r0, #16]
 6382 0146 F1E7     		b	.L440
 6383              	.L439:
 341:../../Middlewares/LVGL/GUI/lvgl/src/draw/sw/lv_draw_sw_mask.c ****         entry->life = -1;
 6384              		.loc 1 341 9 is_stmt 1 view .LVU2200
 341:../../Middlewares/LVGL/GUI/lvgl/src/draw/sw/lv_draw_sw_mask.c ****         entry->life = -1;
 6385              		.loc 1 341 9 view .LVU2201
 341:../../Middlewares/LVGL/GUI/lvgl/src/draw/sw/lv_draw_sw_mask.c ****         entry->life = -1;
 6386              		.loc 1 341 9 view .LVU2202
 341:../../Middlewares/LVGL/GUI/lvgl/src/draw/sw/lv_draw_sw_mask.c ****         entry->life = -1;
 6387              		.loc 1 341 9 view .LVU2203
 341:../../Middlewares/LVGL/GUI/lvgl/src/draw/sw/lv_draw_sw_mask.c ****         entry->life = -1;
 6388              		.loc 1 341 9 view .LVU2204
 6389 0148 FEE7     		b	.L439
 6390              	.L445:
 347:../../Middlewares/LVGL/GUI/lvgl/src/draw/sw/lv_draw_sw_mask.c ****     }
 6391              		.loc 1 347 9 is_stmt 0 discriminator 2 view .LVU2205
 6392 014a 0123     		movs	r3, #1
 6393 014c E8E7     		b	.L441
 6394              	.L455:
 6395 014e 00BF     		.align	2
 6396              	.L454:
 6397 0150 00000000 		.word	lv_draw_mask_radius
 6398 0154 00000000 		.word	lv_global
 6399              		.cfi_endproc
 6400              	.LFE195:
 6402              		.section	.text.lv_draw_sw_mask_fade_init,"ax",%progbits
 6403              		.align	1
ARM GAS  C:\Users\28576\AppData\Local\Temp\ccagJBpt.s 			page 177


 6404              		.global	lv_draw_sw_mask_fade_init
 6405              		.syntax unified
 6406              		.thumb
 6407              		.thumb_func
 6409              	lv_draw_sw_mask_fade_init:
 6410              	.LVL713:
 6411              	.LFB196:
 360:../../Middlewares/LVGL/GUI/lvgl/src/draw/sw/lv_draw_sw_mask.c ****     lv_area_copy(&param->cfg.coords, coords);
 6412              		.loc 1 360 1 is_stmt 1 view -0
 6413              		.cfi_startproc
 6414              		@ args = 8, pretend = 0, frame = 0
 6415              		@ frame_needed = 0, uses_anonymous_args = 0
 6416              		@ link register save eliminated.
 360:../../Middlewares/LVGL/GUI/lvgl/src/draw/sw/lv_draw_sw_mask.c ****     lv_area_copy(&param->cfg.coords, coords);
 6417              		.loc 1 360 1 is_stmt 0 view .LVU2207
 6418 0000 10B4     		push	{r4}
 6419              	.LCFI42:
 6420              		.cfi_def_cfa_offset 4
 6421              		.cfi_offset 4, -4
 361:../../Middlewares/LVGL/GUI/lvgl/src/draw/sw/lv_draw_sw_mask.c ****     param->cfg.opa_top = opa_top;
 6422              		.loc 1 361 5 is_stmt 1 view .LVU2208
 6423              	.LVL714:
 6424              	.LBB315:
 6425              	.LBI315:
 107:../../Middlewares/LVGL/GUI/lvgl/src/draw/sw/../../misc/lv_area.h **** {
 6426              		.loc 3 107 20 view .LVU2209
 6427              	.LBB316:
 109:../../Middlewares/LVGL/GUI/lvgl/src/draw/sw/../../misc/lv_area.h ****     dest->y1 = src->y1;
 6428              		.loc 3 109 5 view .LVU2210
 109:../../Middlewares/LVGL/GUI/lvgl/src/draw/sw/../../misc/lv_area.h ****     dest->y1 = src->y1;
 6429              		.loc 3 109 14 is_stmt 0 view .LVU2211
 6430 0002 0C68     		ldr	r4, [r1]
 6431 0004 8460     		str	r4, [r0, #8]
 110:../../Middlewares/LVGL/GUI/lvgl/src/draw/sw/../../misc/lv_area.h ****     dest->x2 = src->x2;
 6432              		.loc 3 110 5 is_stmt 1 view .LVU2212
 110:../../Middlewares/LVGL/GUI/lvgl/src/draw/sw/../../misc/lv_area.h ****     dest->x2 = src->x2;
 6433              		.loc 3 110 14 is_stmt 0 view .LVU2213
 6434 0006 4C68     		ldr	r4, [r1, #4]
 6435 0008 C460     		str	r4, [r0, #12]
 111:../../Middlewares/LVGL/GUI/lvgl/src/draw/sw/../../misc/lv_area.h ****     dest->y2 = src->y2;
 6436              		.loc 3 111 5 is_stmt 1 view .LVU2214
 111:../../Middlewares/LVGL/GUI/lvgl/src/draw/sw/../../misc/lv_area.h ****     dest->y2 = src->y2;
 6437              		.loc 3 111 14 is_stmt 0 view .LVU2215
 6438 000a 8C68     		ldr	r4, [r1, #8]
 6439 000c 0461     		str	r4, [r0, #16]
 6440              		.loc 3 112 5 is_stmt 1 view .LVU2216
 6441              		.loc 3 112 19 is_stmt 0 view .LVU2217
 6442 000e C968     		ldr	r1, [r1, #12]
 6443              	.LVL715:
 6444              		.loc 3 112 14 view .LVU2218
 6445 0010 4161     		str	r1, [r0, #20]
 6446              	.LVL716:
 6447              		.loc 3 112 14 view .LVU2219
 6448              	.LBE316:
 6449              	.LBE315:
 362:../../Middlewares/LVGL/GUI/lvgl/src/draw/sw/lv_draw_sw_mask.c ****     param->cfg.opa_bottom = opa_bottom;
 6450              		.loc 1 362 5 is_stmt 1 view .LVU2220
ARM GAS  C:\Users\28576\AppData\Local\Temp\ccagJBpt.s 			page 178


 362:../../Middlewares/LVGL/GUI/lvgl/src/draw/sw/lv_draw_sw_mask.c ****     param->cfg.opa_bottom = opa_bottom;
 6451              		.loc 1 362 24 is_stmt 0 view .LVU2221
 6452 0012 80F82020 		strb	r2, [r0, #32]
 363:../../Middlewares/LVGL/GUI/lvgl/src/draw/sw/lv_draw_sw_mask.c ****     param->cfg.y_top = y_top;
 6453              		.loc 1 363 5 is_stmt 1 view .LVU2222
 363:../../Middlewares/LVGL/GUI/lvgl/src/draw/sw/lv_draw_sw_mask.c ****     param->cfg.y_top = y_top;
 6454              		.loc 1 363 27 is_stmt 0 view .LVU2223
 6455 0016 9DF80420 		ldrb	r2, [sp, #4]	@ zero_extendqisi2
 6456              	.LVL717:
 363:../../Middlewares/LVGL/GUI/lvgl/src/draw/sw/lv_draw_sw_mask.c ****     param->cfg.y_top = y_top;
 6457              		.loc 1 363 27 view .LVU2224
 6458 001a 80F82120 		strb	r2, [r0, #33]
 364:../../Middlewares/LVGL/GUI/lvgl/src/draw/sw/lv_draw_sw_mask.c ****     param->cfg.y_bottom = y_bottom;
 6459              		.loc 1 364 5 is_stmt 1 view .LVU2225
 364:../../Middlewares/LVGL/GUI/lvgl/src/draw/sw/lv_draw_sw_mask.c ****     param->cfg.y_bottom = y_bottom;
 6460              		.loc 1 364 22 is_stmt 0 view .LVU2226
 6461 001e 8361     		str	r3, [r0, #24]
 365:../../Middlewares/LVGL/GUI/lvgl/src/draw/sw/lv_draw_sw_mask.c ****     param->dsc.cb = (lv_draw_sw_mask_xcb_t)lv_draw_mask_fade;
 6462              		.loc 1 365 5 is_stmt 1 view .LVU2227
 365:../../Middlewares/LVGL/GUI/lvgl/src/draw/sw/lv_draw_sw_mask.c ****     param->dsc.cb = (lv_draw_sw_mask_xcb_t)lv_draw_mask_fade;
 6463              		.loc 1 365 25 is_stmt 0 view .LVU2228
 6464 0020 029B     		ldr	r3, [sp, #8]
 6465              	.LVL718:
 365:../../Middlewares/LVGL/GUI/lvgl/src/draw/sw/lv_draw_sw_mask.c ****     param->dsc.cb = (lv_draw_sw_mask_xcb_t)lv_draw_mask_fade;
 6466              		.loc 1 365 25 view .LVU2229
 6467 0022 C361     		str	r3, [r0, #28]
 366:../../Middlewares/LVGL/GUI/lvgl/src/draw/sw/lv_draw_sw_mask.c ****     param->dsc.type = LV_DRAW_SW_MASK_TYPE_FADE;
 6468              		.loc 1 366 5 is_stmt 1 view .LVU2230
 366:../../Middlewares/LVGL/GUI/lvgl/src/draw/sw/lv_draw_sw_mask.c ****     param->dsc.type = LV_DRAW_SW_MASK_TYPE_FADE;
 6469              		.loc 1 366 19 is_stmt 0 view .LVU2231
 6470 0024 024B     		ldr	r3, .L458
 6471 0026 0360     		str	r3, [r0]
 367:../../Middlewares/LVGL/GUI/lvgl/src/draw/sw/lv_draw_sw_mask.c **** }
 6472              		.loc 1 367 5 is_stmt 1 view .LVU2232
 367:../../Middlewares/LVGL/GUI/lvgl/src/draw/sw/lv_draw_sw_mask.c **** }
 6473              		.loc 1 367 21 is_stmt 0 view .LVU2233
 6474 0028 0323     		movs	r3, #3
 6475 002a 0371     		strb	r3, [r0, #4]
 368:../../Middlewares/LVGL/GUI/lvgl/src/draw/sw/lv_draw_sw_mask.c **** 
 6476              		.loc 1 368 1 view .LVU2234
 6477 002c 10BC     		pop	{r4}
 6478              	.LCFI43:
 6479              		.cfi_restore 4
 6480              		.cfi_def_cfa_offset 0
 6481              	.LVL719:
 368:../../Middlewares/LVGL/GUI/lvgl/src/draw/sw/lv_draw_sw_mask.c **** 
 6482              		.loc 1 368 1 view .LVU2235
 6483 002e 7047     		bx	lr
 6484              	.L459:
 6485              		.align	2
 6486              	.L458:
 6487 0030 00000000 		.word	lv_draw_mask_fade
 6488              		.cfi_endproc
 6489              	.LFE196:
 6491              		.section	.text.lv_draw_sw_mask_map_init,"ax",%progbits
 6492              		.align	1
 6493              		.global	lv_draw_sw_mask_map_init
ARM GAS  C:\Users\28576\AppData\Local\Temp\ccagJBpt.s 			page 179


 6494              		.syntax unified
 6495              		.thumb
 6496              		.thumb_func
 6498              	lv_draw_sw_mask_map_init:
 6499              	.LVL720:
 6500              	.LFB197:
 371:../../Middlewares/LVGL/GUI/lvgl/src/draw/sw/lv_draw_sw_mask.c ****     lv_area_copy(&param->cfg.coords, coords);
 6501              		.loc 1 371 1 is_stmt 1 view -0
 6502              		.cfi_startproc
 6503              		@ args = 0, pretend = 0, frame = 0
 6504              		@ frame_needed = 0, uses_anonymous_args = 0
 6505              		@ link register save eliminated.
 372:../../Middlewares/LVGL/GUI/lvgl/src/draw/sw/lv_draw_sw_mask.c ****     param->cfg.map = map;
 6506              		.loc 1 372 5 view .LVU2237
 6507              	.LBB317:
 6508              	.LBI317:
 107:../../Middlewares/LVGL/GUI/lvgl/src/draw/sw/../../misc/lv_area.h **** {
 6509              		.loc 3 107 20 view .LVU2238
 6510              	.LBB318:
 109:../../Middlewares/LVGL/GUI/lvgl/src/draw/sw/../../misc/lv_area.h ****     dest->y1 = src->y1;
 6511              		.loc 3 109 5 view .LVU2239
 109:../../Middlewares/LVGL/GUI/lvgl/src/draw/sw/../../misc/lv_area.h ****     dest->y1 = src->y1;
 6512              		.loc 3 109 19 is_stmt 0 view .LVU2240
 6513 0000 0B68     		ldr	r3, [r1]
 109:../../Middlewares/LVGL/GUI/lvgl/src/draw/sw/../../misc/lv_area.h ****     dest->y1 = src->y1;
 6514              		.loc 3 109 14 view .LVU2241
 6515 0002 8360     		str	r3, [r0, #8]
 110:../../Middlewares/LVGL/GUI/lvgl/src/draw/sw/../../misc/lv_area.h ****     dest->x2 = src->x2;
 6516              		.loc 3 110 5 is_stmt 1 view .LVU2242
 110:../../Middlewares/LVGL/GUI/lvgl/src/draw/sw/../../misc/lv_area.h ****     dest->x2 = src->x2;
 6517              		.loc 3 110 19 is_stmt 0 view .LVU2243
 6518 0004 4B68     		ldr	r3, [r1, #4]
 110:../../Middlewares/LVGL/GUI/lvgl/src/draw/sw/../../misc/lv_area.h ****     dest->x2 = src->x2;
 6519              		.loc 3 110 14 view .LVU2244
 6520 0006 C360     		str	r3, [r0, #12]
 111:../../Middlewares/LVGL/GUI/lvgl/src/draw/sw/../../misc/lv_area.h ****     dest->y2 = src->y2;
 6521              		.loc 3 111 5 is_stmt 1 view .LVU2245
 111:../../Middlewares/LVGL/GUI/lvgl/src/draw/sw/../../misc/lv_area.h ****     dest->y2 = src->y2;
 6522              		.loc 3 111 19 is_stmt 0 view .LVU2246
 6523 0008 8B68     		ldr	r3, [r1, #8]
 111:../../Middlewares/LVGL/GUI/lvgl/src/draw/sw/../../misc/lv_area.h ****     dest->y2 = src->y2;
 6524              		.loc 3 111 14 view .LVU2247
 6525 000a 0361     		str	r3, [r0, #16]
 6526              		.loc 3 112 5 is_stmt 1 view .LVU2248
 6527              		.loc 3 112 19 is_stmt 0 view .LVU2249
 6528 000c CB68     		ldr	r3, [r1, #12]
 6529              		.loc 3 112 14 view .LVU2250
 6530 000e 4361     		str	r3, [r0, #20]
 6531              	.LVL721:
 6532              		.loc 3 112 14 view .LVU2251
 6533              	.LBE318:
 6534              	.LBE317:
 373:../../Middlewares/LVGL/GUI/lvgl/src/draw/sw/lv_draw_sw_mask.c ****     param->dsc.cb = (lv_draw_sw_mask_xcb_t)lv_draw_mask_map;
 6535              		.loc 1 373 5 is_stmt 1 view .LVU2252
 373:../../Middlewares/LVGL/GUI/lvgl/src/draw/sw/lv_draw_sw_mask.c ****     param->dsc.cb = (lv_draw_sw_mask_xcb_t)lv_draw_mask_map;
 6536              		.loc 1 373 20 is_stmt 0 view .LVU2253
 6537 0010 8261     		str	r2, [r0, #24]
ARM GAS  C:\Users\28576\AppData\Local\Temp\ccagJBpt.s 			page 180


 374:../../Middlewares/LVGL/GUI/lvgl/src/draw/sw/lv_draw_sw_mask.c ****     param->dsc.type = LV_DRAW_SW_MASK_TYPE_MAP;
 6538              		.loc 1 374 5 is_stmt 1 view .LVU2254
 374:../../Middlewares/LVGL/GUI/lvgl/src/draw/sw/lv_draw_sw_mask.c ****     param->dsc.type = LV_DRAW_SW_MASK_TYPE_MAP;
 6539              		.loc 1 374 19 is_stmt 0 view .LVU2255
 6540 0012 024B     		ldr	r3, .L461
 6541 0014 0360     		str	r3, [r0]
 375:../../Middlewares/LVGL/GUI/lvgl/src/draw/sw/lv_draw_sw_mask.c **** }
 6542              		.loc 1 375 5 is_stmt 1 view .LVU2256
 375:../../Middlewares/LVGL/GUI/lvgl/src/draw/sw/lv_draw_sw_mask.c **** }
 6543              		.loc 1 375 21 is_stmt 0 view .LVU2257
 6544 0016 0423     		movs	r3, #4
 6545 0018 0371     		strb	r3, [r0, #4]
 376:../../Middlewares/LVGL/GUI/lvgl/src/draw/sw/lv_draw_sw_mask.c **** 
 6546              		.loc 1 376 1 view .LVU2258
 6547 001a 7047     		bx	lr
 6548              	.L462:
 6549              		.align	2
 6550              	.L461:
 6551 001c 00000000 		.word	lv_draw_mask_map
 6552              		.cfi_endproc
 6553              	.LFE197:
 6555              		.text
 6556              	.Letext0:
 6557              		.file 5 "C:/Users/28576/AppData/Roaming/xPacks/@xpack-dev-tools/arm-none-eabi-gcc/15.2.1-1.1.1/.co
 6558              		.file 6 "C:/Users/28576/AppData/Roaming/xPacks/@xpack-dev-tools/arm-none-eabi-gcc/15.2.1-1.1.1/.co
 6559              		.file 7 "C:/Users/28576/AppData/Roaming/xPacks/@xpack-dev-tools/arm-none-eabi-gcc/15.2.1-1.1.1/.co
 6560              		.file 8 "../../Middlewares/LVGL/GUI/lvgl/src/draw/sw/../../misc/lv_types.h"
 6561              		.file 9 "../../Middlewares/LVGL/GUI/lvgl/src/draw/sw/../lv_draw.h"
 6562              		.file 10 "H:/STM32H7/RGB_LVGL/Middlewares/LVGL/GUI/lvgl/src/draw/lv_draw_private.h"
 6563              		.file 11 "H:/STM32H7/RGB_LVGL/Middlewares/LVGL/GUI/lvgl/src/misc/lv_timer_private.h"
 6564              		.file 12 "H:/STM32H7/RGB_LVGL/Middlewares/LVGL/GUI/lvgl/src/misc/cache/lv_cache_private.h"
 6565              		.file 13 "../../Middlewares/LVGL/GUI/lvgl/src/draw/sw/lv_draw_sw_mask_private.h"
 6566              		.file 14 "H:/STM32H7/RGB_LVGL/Middlewares/LVGL/GUI/lvgl/src/draw/lv_draw_buf_private.h"
 6567              		.file 15 "H:/STM32H7/RGB_LVGL/Middlewares/LVGL/GUI/lvgl/src/draw/lv_draw_buf.h"
 6568              		.file 16 "../../Middlewares/LVGL/GUI/lvgl/src/draw/sw/../../misc/lv_color.h"
 6569              		.file 17 "../../Middlewares/LVGL/GUI/lvgl/src/draw/sw/lv_draw_sw_mask.h"
 6570              		.file 18 "H:/STM32H7/RGB_LVGL/Middlewares/LVGL/GUI/lvgl/src/draw/lv_image_dsc.h"
 6571              		.file 19 "H:/STM32H7/RGB_LVGL/Middlewares/LVGL/GUI/lvgl/src/tick/lv_tick.h"
 6572              		.file 20 "../../Middlewares/LVGL/GUI/lvgl/src/draw/sw/../../misc/lv_ll.h"
 6573              		.file 21 "../../Middlewares/LVGL/GUI/lvgl/src/draw/sw/../../misc/lv_timer.h"
 6574              		.file 22 "H:/STM32H7/RGB_LVGL/Middlewares/LVGL/GUI/lvgl/src/layouts/lv_layout.h"
 6575              		.file 23 "H:/STM32H7/RGB_LVGL/Middlewares/LVGL/GUI/lvgl/src/osal/lv_os_none.h"
 6576              		.file 24 "H:/STM32H7/RGB_LVGL/Middlewares/LVGL/GUI/lvgl/src/stdlib/builtin/lv_tlsf.h"
 6577              		.file 25 "H:/STM32H7/RGB_LVGL/Middlewares/LVGL/GUI/lvgl/src/misc/lv_anim_private.h"
 6578              		.file 26 "H:/STM32H7/RGB_LVGL/Middlewares/LVGL/GUI/lvgl/src/tick/lv_tick_private.h"
 6579              		.file 27 "H:/STM32H7/RGB_LVGL/Middlewares/LVGL/GUI/lvgl/src/stdlib/builtin/lv_tlsf_private.h"
 6580              		.file 28 "H:/STM32H7/RGB_LVGL/Middlewares/LVGL/GUI/lvgl/src/layouts/lv_layout_private.h"
 6581              		.file 29 "../../Middlewares/LVGL/GUI/lvgl/src/draw/sw/../../core/lv_global.h"
 6582              		.file 30 "H:/STM32H7/RGB_LVGL/Middlewares/LVGL/GUI/lvgl/src/stdlib/lv_mem.h"
 6583              		.file 31 "../../Middlewares/LVGL/GUI/lvgl/src/draw/sw/../../misc/lv_math.h"
ARM GAS  C:\Users\28576\AppData\Local\Temp\ccagJBpt.s 			page 181


DEFINED SYMBOLS
                            *ABS*:00000000 lv_draw_sw_mask.c
C:\Users\28576\AppData\Local\Temp\ccagJBpt.s:20     .text.lv_draw_mask_fade:00000000 $t
C:\Users\28576\AppData\Local\Temp\ccagJBpt.s:25     .text.lv_draw_mask_fade:00000000 lv_draw_mask_fade
C:\Users\28576\AppData\Local\Temp\ccagJBpt.s:384    .text.circ_init:00000000 $t
C:\Users\28576\AppData\Local\Temp\ccagJBpt.s:389    .text.circ_init:00000000 circ_init
C:\Users\28576\AppData\Local\Temp\ccagJBpt.s:417    .text.circ_cont:00000000 $t
C:\Users\28576\AppData\Local\Temp\ccagJBpt.s:422    .text.circ_cont:00000000 circ_cont
C:\Users\28576\AppData\Local\Temp\ccagJBpt.s:446    .text.circ_next:00000000 $t
C:\Users\28576\AppData\Local\Temp\ccagJBpt.s:451    .text.circ_next:00000000 circ_next
C:\Users\28576\AppData\Local\Temp\ccagJBpt.s:523    .text.get_next_line:00000000 $t
C:\Users\28576\AppData\Local\Temp\ccagJBpt.s:528    .text.get_next_line:00000000 get_next_line
C:\Users\28576\AppData\Local\Temp\ccagJBpt.s:577    .text.line_mask_flat:00000000 $t
C:\Users\28576\AppData\Local\Temp\ccagJBpt.s:582    .text.line_mask_flat:00000000 line_mask_flat
C:\Users\28576\AppData\Local\Temp\ccagJBpt.s:1157   .text.line_mask_steep:00000000 $t
C:\Users\28576\AppData\Local\Temp\ccagJBpt.s:1162   .text.line_mask_steep:00000000 line_mask_steep
C:\Users\28576\AppData\Local\Temp\ccagJBpt.s:2136   .text.lv_draw_mask_line:00000000 $t
C:\Users\28576\AppData\Local\Temp\ccagJBpt.s:2141   .text.lv_draw_mask_line:00000000 lv_draw_mask_line
C:\Users\28576\AppData\Local\Temp\ccagJBpt.s:2411   .text.lv_draw_mask_angle:00000000 $t
C:\Users\28576\AppData\Local\Temp\ccagJBpt.s:2416   .text.lv_draw_mask_angle:00000000 lv_draw_mask_angle
C:\Users\28576\AppData\Local\Temp\ccagJBpt.s:3290   .text.lv_draw_mask_map:00000000 $t
C:\Users\28576\AppData\Local\Temp\ccagJBpt.s:3295   .text.lv_draw_mask_map:00000000 lv_draw_mask_map
C:\Users\28576\AppData\Local\Temp\ccagJBpt.s:3527   .text.lv_draw_mask_radius:00000000 $t
C:\Users\28576\AppData\Local\Temp\ccagJBpt.s:3532   .text.lv_draw_mask_radius:00000000 lv_draw_mask_radius
C:\Users\28576\AppData\Local\Temp\ccagJBpt.s:4375   .text.circ_calc_aa4:00000000 $t
C:\Users\28576\AppData\Local\Temp\ccagJBpt.s:4380   .text.circ_calc_aa4:00000000 circ_calc_aa4
C:\Users\28576\AppData\Local\Temp\ccagJBpt.s:5083   .text.lv_draw_sw_mask_init:00000000 $t
C:\Users\28576\AppData\Local\Temp\ccagJBpt.s:5089   .text.lv_draw_sw_mask_init:00000000 lv_draw_sw_mask_init
C:\Users\28576\AppData\Local\Temp\ccagJBpt.s:5103   .text.lv_draw_sw_mask_deinit:00000000 $t
C:\Users\28576\AppData\Local\Temp\ccagJBpt.s:5109   .text.lv_draw_sw_mask_deinit:00000000 lv_draw_sw_mask_deinit
C:\Users\28576\AppData\Local\Temp\ccagJBpt.s:5123   .text.lv_draw_sw_mask_apply:00000000 $t
C:\Users\28576\AppData\Local\Temp\ccagJBpt.s:5129   .text.lv_draw_sw_mask_apply:00000000 lv_draw_sw_mask_apply
C:\Users\28576\AppData\Local\Temp\ccagJBpt.s:5239   .text.lv_draw_sw_mask_free_param:00000000 $t
C:\Users\28576\AppData\Local\Temp\ccagJBpt.s:5245   .text.lv_draw_sw_mask_free_param:00000000 lv_draw_sw_mask_free_param
C:\Users\28576\AppData\Local\Temp\ccagJBpt.s:5315   .text.lv_draw_sw_mask_cleanup:00000000 $t
C:\Users\28576\AppData\Local\Temp\ccagJBpt.s:5321   .text.lv_draw_sw_mask_cleanup:00000000 lv_draw_sw_mask_cleanup
C:\Users\28576\AppData\Local\Temp\ccagJBpt.s:5397   .text.lv_draw_sw_mask_cleanup:00000040 $d
C:\Users\28576\AppData\Local\Temp\ccagJBpt.s:5402   .text.lv_draw_sw_mask_line_points_init:00000000 $t
C:\Users\28576\AppData\Local\Temp\ccagJBpt.s:5408   .text.lv_draw_sw_mask_line_points_init:00000000 lv_draw_sw_mask_line_points_init
C:\Users\28576\AppData\Local\Temp\ccagJBpt.s:5746   .text.lv_draw_sw_mask_line_points_init:0000017c $d
C:\Users\28576\AppData\Local\Temp\ccagJBpt.s:5751   .text.lv_draw_sw_mask_line_angle_init:00000000 $t
C:\Users\28576\AppData\Local\Temp\ccagJBpt.s:5757   .text.lv_draw_sw_mask_line_angle_init:00000000 lv_draw_sw_mask_line_angle_init
C:\Users\28576\AppData\Local\Temp\ccagJBpt.s:5835   .text.lv_draw_sw_mask_angle_init:00000000 $t
C:\Users\28576\AppData\Local\Temp\ccagJBpt.s:5841   .text.lv_draw_sw_mask_angle_init:00000000 lv_draw_sw_mask_angle_init
C:\Users\28576\AppData\Local\Temp\ccagJBpt.s:6049   .text.lv_draw_sw_mask_angle_init:000000d0 $d
C:\Users\28576\AppData\Local\Temp\ccagJBpt.s:6054   .text.lv_draw_sw_mask_radius_init:00000000 $t
C:\Users\28576\AppData\Local\Temp\ccagJBpt.s:6060   .text.lv_draw_sw_mask_radius_init:00000000 lv_draw_sw_mask_radius_init
C:\Users\28576\AppData\Local\Temp\ccagJBpt.s:6397   .text.lv_draw_sw_mask_radius_init:00000150 $d
C:\Users\28576\AppData\Local\Temp\ccagJBpt.s:6403   .text.lv_draw_sw_mask_fade_init:00000000 $t
C:\Users\28576\AppData\Local\Temp\ccagJBpt.s:6409   .text.lv_draw_sw_mask_fade_init:00000000 lv_draw_sw_mask_fade_init
C:\Users\28576\AppData\Local\Temp\ccagJBpt.s:6487   .text.lv_draw_sw_mask_fade_init:00000030 $d
C:\Users\28576\AppData\Local\Temp\ccagJBpt.s:6492   .text.lv_draw_sw_mask_map_init:00000000 $t
C:\Users\28576\AppData\Local\Temp\ccagJBpt.s:6498   .text.lv_draw_sw_mask_map_init:00000000 lv_draw_sw_mask_map_init
C:\Users\28576\AppData\Local\Temp\ccagJBpt.s:6551   .text.lv_draw_sw_mask_map_init:0000001c $d

UNDEFINED SYMBOLS
lv_memset
ARM GAS  C:\Users\28576\AppData\Local\Temp\ccagJBpt.s 			page 182


lv_area_get_width
lv_area_get_height
lv_free
lv_malloc
lv_malloc_zeroed
lv_global
lv_point_set
lv_trigo_sin
