ARM GAS  C:\Users\28576\AppData\Local\Temp\ccmStJbf.s 			page 1


   1              		.cpu cortex-m7
   2              		.arch armv7e-m
   3              		.fpu fpv5-d16
   4              		.eabi_attribute 28, 1
   5              		.eabi_attribute 20, 1
   6              		.eabi_attribute 21, 1
   7              		.eabi_attribute 23, 3
   8              		.eabi_attribute 24, 1
   9              		.eabi_attribute 25, 1
  10              		.eabi_attribute 26, 1
  11              		.eabi_attribute 30, 1
  12              		.eabi_attribute 34, 1
  13              		.eabi_attribute 18, 4
  14              		.file	"lv_draw_sw_fill.c"
  15              		.text
  16              	.Ltext0:
  17              		.cfi_sections	.debug_frame
  18              		.file 1 "../../Middlewares/LVGL/GUI/lvgl/src/draw/sw/lv_draw_sw_fill.c"
  19              		.section	.text.lv_draw_sw_fill,"ax",%progbits
  20              		.align	1
  21              		.global	lv_draw_sw_fill
  22              		.syntax unified
  23              		.thumb
  24              		.thumb_func
  26              	lv_draw_sw_fill:
  27              	.LVL0:
  28              	.LFB187:
   1:../../Middlewares/LVGL/GUI/lvgl/src/draw/sw/lv_draw_sw_fill.c **** /**
   2:../../Middlewares/LVGL/GUI/lvgl/src/draw/sw/lv_draw_sw_fill.c ****  * @file lv_draw_sw_fill.c
   3:../../Middlewares/LVGL/GUI/lvgl/src/draw/sw/lv_draw_sw_fill.c ****  *
   4:../../Middlewares/LVGL/GUI/lvgl/src/draw/sw/lv_draw_sw_fill.c ****  */
   5:../../Middlewares/LVGL/GUI/lvgl/src/draw/sw/lv_draw_sw_fill.c **** 
   6:../../Middlewares/LVGL/GUI/lvgl/src/draw/sw/lv_draw_sw_fill.c **** /*********************
   7:../../Middlewares/LVGL/GUI/lvgl/src/draw/sw/lv_draw_sw_fill.c ****  *      INCLUDES
   8:../../Middlewares/LVGL/GUI/lvgl/src/draw/sw/lv_draw_sw_fill.c ****  *********************/
   9:../../Middlewares/LVGL/GUI/lvgl/src/draw/sw/lv_draw_sw_fill.c **** #include "../../misc/lv_area_private.h"
  10:../../Middlewares/LVGL/GUI/lvgl/src/draw/sw/lv_draw_sw_fill.c **** #include "lv_draw_sw_mask_private.h"
  11:../../Middlewares/LVGL/GUI/lvgl/src/draw/sw/lv_draw_sw_fill.c **** #include "../lv_draw_private.h"
  12:../../Middlewares/LVGL/GUI/lvgl/src/draw/sw/lv_draw_sw_fill.c **** #include "lv_draw_sw.h"
  13:../../Middlewares/LVGL/GUI/lvgl/src/draw/sw/lv_draw_sw_fill.c **** #if LV_USE_DRAW_SW
  14:../../Middlewares/LVGL/GUI/lvgl/src/draw/sw/lv_draw_sw_fill.c **** 
  15:../../Middlewares/LVGL/GUI/lvgl/src/draw/sw/lv_draw_sw_fill.c **** #include "blend/lv_draw_sw_blend_private.h"
  16:../../Middlewares/LVGL/GUI/lvgl/src/draw/sw/lv_draw_sw_fill.c **** #include "lv_draw_sw_grad.h"
  17:../../Middlewares/LVGL/GUI/lvgl/src/draw/sw/lv_draw_sw_fill.c **** #include "../../misc/lv_math.h"
  18:../../Middlewares/LVGL/GUI/lvgl/src/draw/sw/lv_draw_sw_fill.c **** #include "../../misc/lv_text_ap.h"
  19:../../Middlewares/LVGL/GUI/lvgl/src/draw/sw/lv_draw_sw_fill.c **** #include "../../core/lv_refr.h"
  20:../../Middlewares/LVGL/GUI/lvgl/src/draw/sw/lv_draw_sw_fill.c **** #include "../../misc/lv_assert.h"
  21:../../Middlewares/LVGL/GUI/lvgl/src/draw/sw/lv_draw_sw_fill.c **** #include "../../stdlib/lv_string.h"
  22:../../Middlewares/LVGL/GUI/lvgl/src/draw/sw/lv_draw_sw_fill.c **** #include "../lv_draw_mask.h"
  23:../../Middlewares/LVGL/GUI/lvgl/src/draw/sw/lv_draw_sw_fill.c **** 
  24:../../Middlewares/LVGL/GUI/lvgl/src/draw/sw/lv_draw_sw_fill.c **** /*********************
  25:../../Middlewares/LVGL/GUI/lvgl/src/draw/sw/lv_draw_sw_fill.c ****  *      DEFINES
  26:../../Middlewares/LVGL/GUI/lvgl/src/draw/sw/lv_draw_sw_fill.c ****  *********************/
  27:../../Middlewares/LVGL/GUI/lvgl/src/draw/sw/lv_draw_sw_fill.c **** 
  28:../../Middlewares/LVGL/GUI/lvgl/src/draw/sw/lv_draw_sw_fill.c **** /**********************
  29:../../Middlewares/LVGL/GUI/lvgl/src/draw/sw/lv_draw_sw_fill.c ****  *      TYPEDEFS
  30:../../Middlewares/LVGL/GUI/lvgl/src/draw/sw/lv_draw_sw_fill.c ****  **********************/
ARM GAS  C:\Users\28576\AppData\Local\Temp\ccmStJbf.s 			page 2


  31:../../Middlewares/LVGL/GUI/lvgl/src/draw/sw/lv_draw_sw_fill.c **** 
  32:../../Middlewares/LVGL/GUI/lvgl/src/draw/sw/lv_draw_sw_fill.c **** /**********************
  33:../../Middlewares/LVGL/GUI/lvgl/src/draw/sw/lv_draw_sw_fill.c ****  *  STATIC PROTOTYPES
  34:../../Middlewares/LVGL/GUI/lvgl/src/draw/sw/lv_draw_sw_fill.c ****  **********************/
  35:../../Middlewares/LVGL/GUI/lvgl/src/draw/sw/lv_draw_sw_fill.c **** 
  36:../../Middlewares/LVGL/GUI/lvgl/src/draw/sw/lv_draw_sw_fill.c **** /**********************
  37:../../Middlewares/LVGL/GUI/lvgl/src/draw/sw/lv_draw_sw_fill.c ****  *  STATIC VARIABLES
  38:../../Middlewares/LVGL/GUI/lvgl/src/draw/sw/lv_draw_sw_fill.c ****  **********************/
  39:../../Middlewares/LVGL/GUI/lvgl/src/draw/sw/lv_draw_sw_fill.c **** 
  40:../../Middlewares/LVGL/GUI/lvgl/src/draw/sw/lv_draw_sw_fill.c **** /**********************
  41:../../Middlewares/LVGL/GUI/lvgl/src/draw/sw/lv_draw_sw_fill.c ****  *      MACROS
  42:../../Middlewares/LVGL/GUI/lvgl/src/draw/sw/lv_draw_sw_fill.c ****  **********************/
  43:../../Middlewares/LVGL/GUI/lvgl/src/draw/sw/lv_draw_sw_fill.c **** 
  44:../../Middlewares/LVGL/GUI/lvgl/src/draw/sw/lv_draw_sw_fill.c **** /**********************
  45:../../Middlewares/LVGL/GUI/lvgl/src/draw/sw/lv_draw_sw_fill.c ****  *   GLOBAL FUNCTIONS
  46:../../Middlewares/LVGL/GUI/lvgl/src/draw/sw/lv_draw_sw_fill.c ****  **********************/
  47:../../Middlewares/LVGL/GUI/lvgl/src/draw/sw/lv_draw_sw_fill.c **** 
  48:../../Middlewares/LVGL/GUI/lvgl/src/draw/sw/lv_draw_sw_fill.c **** void lv_draw_sw_fill(lv_draw_task_t * t, lv_draw_fill_dsc_t * dsc, const lv_area_t * coords)
  49:../../Middlewares/LVGL/GUI/lvgl/src/draw/sw/lv_draw_sw_fill.c **** {
  29              		.loc 1 49 1 view -0
  30              		.cfi_startproc
  31              		@ args = 0, pretend = 0, frame = 176
  32              		@ frame_needed = 0, uses_anonymous_args = 0
  33              		.loc 1 49 1 is_stmt 0 view .LVU1
  34 0000 2DE9F04F 		push	{r4, r5, r6, r7, r8, r9, r10, fp, lr}
  35              	.LCFI0:
  36              		.cfi_def_cfa_offset 36
  37              		.cfi_offset 4, -36
  38              		.cfi_offset 5, -32
  39              		.cfi_offset 6, -28
  40              		.cfi_offset 7, -24
  41              		.cfi_offset 8, -20
  42              		.cfi_offset 9, -16
  43              		.cfi_offset 10, -12
  44              		.cfi_offset 11, -8
  45              		.cfi_offset 14, -4
  46 0004 AFB0     		sub	sp, sp, #188
  47              	.LCFI1:
  48              		.cfi_def_cfa_offset 224
  49 0006 0590     		str	r0, [sp, #20]
  50:../../Middlewares/LVGL/GUI/lvgl/src/draw/sw/lv_draw_sw_fill.c ****     if(dsc->opa <= LV_OPA_MIN) return;
  50              		.loc 1 50 5 is_stmt 1 view .LVU2
  51              		.loc 1 50 11 is_stmt 0 view .LVU3
  52 0008 91F82030 		ldrb	r3, [r1, #32]	@ zero_extendqisi2
  53              		.loc 1 50 7 view .LVU4
  54 000c 022B     		cmp	r3, #2
  55 000e 02D8     		bhi	.L64
  56              	.LVL1:
  57              	.L1:
  51:../../Middlewares/LVGL/GUI/lvgl/src/draw/sw/lv_draw_sw_fill.c **** 
  52:../../Middlewares/LVGL/GUI/lvgl/src/draw/sw/lv_draw_sw_fill.c ****     lv_area_t bg_coords;
  53:../../Middlewares/LVGL/GUI/lvgl/src/draw/sw/lv_draw_sw_fill.c ****     lv_area_copy(&bg_coords, coords);
  54:../../Middlewares/LVGL/GUI/lvgl/src/draw/sw/lv_draw_sw_fill.c **** 
  55:../../Middlewares/LVGL/GUI/lvgl/src/draw/sw/lv_draw_sw_fill.c ****     lv_area_t clipped_coords;
  56:../../Middlewares/LVGL/GUI/lvgl/src/draw/sw/lv_draw_sw_fill.c ****     if(!lv_area_intersect(&clipped_coords, &bg_coords, &t->clip_area)) return;
  57:../../Middlewares/LVGL/GUI/lvgl/src/draw/sw/lv_draw_sw_fill.c **** 
  58:../../Middlewares/LVGL/GUI/lvgl/src/draw/sw/lv_draw_sw_fill.c ****     lv_grad_dir_t grad_dir = dsc->grad.dir;
ARM GAS  C:\Users\28576\AppData\Local\Temp\ccmStJbf.s 			page 3


  59:../../Middlewares/LVGL/GUI/lvgl/src/draw/sw/lv_draw_sw_fill.c ****     lv_color_t bg_color    = grad_dir == LV_GRAD_DIR_NONE ? dsc->color : dsc->grad.stops[0].color;
  60:../../Middlewares/LVGL/GUI/lvgl/src/draw/sw/lv_draw_sw_fill.c **** 
  61:../../Middlewares/LVGL/GUI/lvgl/src/draw/sw/lv_draw_sw_fill.c ****     lv_draw_sw_blend_dsc_t blend_dsc = {0};
  62:../../Middlewares/LVGL/GUI/lvgl/src/draw/sw/lv_draw_sw_fill.c ****     blend_dsc.color = bg_color;
  63:../../Middlewares/LVGL/GUI/lvgl/src/draw/sw/lv_draw_sw_fill.c **** 
  64:../../Middlewares/LVGL/GUI/lvgl/src/draw/sw/lv_draw_sw_fill.c ****     /*Most simple case: just a plain rectangle*/
  65:../../Middlewares/LVGL/GUI/lvgl/src/draw/sw/lv_draw_sw_fill.c ****     if(dsc->radius == 0 && (grad_dir == LV_GRAD_DIR_NONE)) {
  66:../../Middlewares/LVGL/GUI/lvgl/src/draw/sw/lv_draw_sw_fill.c ****         blend_dsc.blend_area = &bg_coords;
  67:../../Middlewares/LVGL/GUI/lvgl/src/draw/sw/lv_draw_sw_fill.c ****         blend_dsc.opa = dsc->opa;
  68:../../Middlewares/LVGL/GUI/lvgl/src/draw/sw/lv_draw_sw_fill.c ****         lv_draw_sw_blend(t, &blend_dsc);
  69:../../Middlewares/LVGL/GUI/lvgl/src/draw/sw/lv_draw_sw_fill.c ****         return;
  70:../../Middlewares/LVGL/GUI/lvgl/src/draw/sw/lv_draw_sw_fill.c ****     }
  71:../../Middlewares/LVGL/GUI/lvgl/src/draw/sw/lv_draw_sw_fill.c **** 
  72:../../Middlewares/LVGL/GUI/lvgl/src/draw/sw/lv_draw_sw_fill.c ****     /*Complex case: there is gradient, mask, or radius*/
  73:../../Middlewares/LVGL/GUI/lvgl/src/draw/sw/lv_draw_sw_fill.c **** #if LV_DRAW_SW_COMPLEX == 0
  74:../../Middlewares/LVGL/GUI/lvgl/src/draw/sw/lv_draw_sw_fill.c ****     LV_LOG_WARN("Can't draw complex rectangle because LV_DRAW_SW_COMPLEX = 0");
  75:../../Middlewares/LVGL/GUI/lvgl/src/draw/sw/lv_draw_sw_fill.c **** #else
  76:../../Middlewares/LVGL/GUI/lvgl/src/draw/sw/lv_draw_sw_fill.c ****     lv_opa_t opa = dsc->opa >= LV_OPA_MAX ? LV_OPA_COVER : dsc->opa;
  77:../../Middlewares/LVGL/GUI/lvgl/src/draw/sw/lv_draw_sw_fill.c **** 
  78:../../Middlewares/LVGL/GUI/lvgl/src/draw/sw/lv_draw_sw_fill.c ****     /*Get the real radius. Can't be larger than the half of the shortest side */
  79:../../Middlewares/LVGL/GUI/lvgl/src/draw/sw/lv_draw_sw_fill.c ****     int32_t coords_bg_w = lv_area_get_width(&bg_coords);
  80:../../Middlewares/LVGL/GUI/lvgl/src/draw/sw/lv_draw_sw_fill.c ****     int32_t coords_bg_h = lv_area_get_height(&bg_coords);
  81:../../Middlewares/LVGL/GUI/lvgl/src/draw/sw/lv_draw_sw_fill.c ****     int32_t short_side = LV_MIN(coords_bg_w, coords_bg_h);
  82:../../Middlewares/LVGL/GUI/lvgl/src/draw/sw/lv_draw_sw_fill.c ****     int32_t rout = LV_MIN(dsc->radius, short_side >> 1);
  83:../../Middlewares/LVGL/GUI/lvgl/src/draw/sw/lv_draw_sw_fill.c **** 
  84:../../Middlewares/LVGL/GUI/lvgl/src/draw/sw/lv_draw_sw_fill.c ****     /*Add a radius mask if there is a radius*/
  85:../../Middlewares/LVGL/GUI/lvgl/src/draw/sw/lv_draw_sw_fill.c ****     int32_t clipped_w = lv_area_get_width(&clipped_coords);
  86:../../Middlewares/LVGL/GUI/lvgl/src/draw/sw/lv_draw_sw_fill.c ****     lv_opa_t * mask_buf = NULL;
  87:../../Middlewares/LVGL/GUI/lvgl/src/draw/sw/lv_draw_sw_fill.c ****     lv_draw_sw_mask_radius_param_t mask_rout_param;
  88:../../Middlewares/LVGL/GUI/lvgl/src/draw/sw/lv_draw_sw_fill.c ****     void * mask_list[2] = {NULL, NULL};
  89:../../Middlewares/LVGL/GUI/lvgl/src/draw/sw/lv_draw_sw_fill.c ****     if(rout > 0) {
  90:../../Middlewares/LVGL/GUI/lvgl/src/draw/sw/lv_draw_sw_fill.c ****         mask_buf = lv_malloc(clipped_w);
  91:../../Middlewares/LVGL/GUI/lvgl/src/draw/sw/lv_draw_sw_fill.c ****         lv_draw_sw_mask_radius_init(&mask_rout_param, &bg_coords, rout, false);
  92:../../Middlewares/LVGL/GUI/lvgl/src/draw/sw/lv_draw_sw_fill.c ****         mask_list[0] = &mask_rout_param;
  93:../../Middlewares/LVGL/GUI/lvgl/src/draw/sw/lv_draw_sw_fill.c ****     }
  94:../../Middlewares/LVGL/GUI/lvgl/src/draw/sw/lv_draw_sw_fill.c **** 
  95:../../Middlewares/LVGL/GUI/lvgl/src/draw/sw/lv_draw_sw_fill.c ****     int32_t h;
  96:../../Middlewares/LVGL/GUI/lvgl/src/draw/sw/lv_draw_sw_fill.c **** 
  97:../../Middlewares/LVGL/GUI/lvgl/src/draw/sw/lv_draw_sw_fill.c ****     lv_area_t blend_area;
  98:../../Middlewares/LVGL/GUI/lvgl/src/draw/sw/lv_draw_sw_fill.c ****     blend_area.x1 = clipped_coords.x1;
  99:../../Middlewares/LVGL/GUI/lvgl/src/draw/sw/lv_draw_sw_fill.c ****     blend_area.x2 = clipped_coords.x2;
 100:../../Middlewares/LVGL/GUI/lvgl/src/draw/sw/lv_draw_sw_fill.c **** 
 101:../../Middlewares/LVGL/GUI/lvgl/src/draw/sw/lv_draw_sw_fill.c ****     blend_dsc.mask_buf = mask_buf;
 102:../../Middlewares/LVGL/GUI/lvgl/src/draw/sw/lv_draw_sw_fill.c ****     blend_dsc.blend_area = &blend_area;
 103:../../Middlewares/LVGL/GUI/lvgl/src/draw/sw/lv_draw_sw_fill.c ****     blend_dsc.mask_area = &blend_area;
 104:../../Middlewares/LVGL/GUI/lvgl/src/draw/sw/lv_draw_sw_fill.c ****     blend_dsc.opa = LV_OPA_COVER;
 105:../../Middlewares/LVGL/GUI/lvgl/src/draw/sw/lv_draw_sw_fill.c **** 
 106:../../Middlewares/LVGL/GUI/lvgl/src/draw/sw/lv_draw_sw_fill.c ****     /*Get gradient if appropriate*/
 107:../../Middlewares/LVGL/GUI/lvgl/src/draw/sw/lv_draw_sw_fill.c ****     lv_draw_sw_grad_calc_t * grad = lv_draw_sw_grad_get(&dsc->grad, coords_bg_w, coords_bg_h);
 108:../../Middlewares/LVGL/GUI/lvgl/src/draw/sw/lv_draw_sw_fill.c ****     lv_opa_t * grad_opa_map = NULL;
 109:../../Middlewares/LVGL/GUI/lvgl/src/draw/sw/lv_draw_sw_fill.c ****     bool transp = false;
 110:../../Middlewares/LVGL/GUI/lvgl/src/draw/sw/lv_draw_sw_fill.c ****     if(grad && grad_dir >= LV_GRAD_DIR_HOR) {
 111:../../Middlewares/LVGL/GUI/lvgl/src/draw/sw/lv_draw_sw_fill.c ****         blend_dsc.src_area = &blend_area;
 112:../../Middlewares/LVGL/GUI/lvgl/src/draw/sw/lv_draw_sw_fill.c ****         blend_dsc.src_buf = grad->color_map + clipped_coords.x1 - bg_coords.x1;
 113:../../Middlewares/LVGL/GUI/lvgl/src/draw/sw/lv_draw_sw_fill.c ****         uint32_t s;
 114:../../Middlewares/LVGL/GUI/lvgl/src/draw/sw/lv_draw_sw_fill.c ****         for(s = 0; s < dsc->grad.stops_count; s++) {
 115:../../Middlewares/LVGL/GUI/lvgl/src/draw/sw/lv_draw_sw_fill.c ****             if(dsc->grad.stops[s].opa != LV_OPA_COVER) {
ARM GAS  C:\Users\28576\AppData\Local\Temp\ccmStJbf.s 			page 4


 116:../../Middlewares/LVGL/GUI/lvgl/src/draw/sw/lv_draw_sw_fill.c ****                 transp = true;
 117:../../Middlewares/LVGL/GUI/lvgl/src/draw/sw/lv_draw_sw_fill.c ****                 break;
 118:../../Middlewares/LVGL/GUI/lvgl/src/draw/sw/lv_draw_sw_fill.c ****             }
 119:../../Middlewares/LVGL/GUI/lvgl/src/draw/sw/lv_draw_sw_fill.c ****         }
 120:../../Middlewares/LVGL/GUI/lvgl/src/draw/sw/lv_draw_sw_fill.c ****         if(grad_dir == LV_GRAD_DIR_HOR) {
 121:../../Middlewares/LVGL/GUI/lvgl/src/draw/sw/lv_draw_sw_fill.c ****             if(transp) grad_opa_map = grad->opa_map + clipped_coords.x1 - bg_coords.x1;
 122:../../Middlewares/LVGL/GUI/lvgl/src/draw/sw/lv_draw_sw_fill.c ****         }
 123:../../Middlewares/LVGL/GUI/lvgl/src/draw/sw/lv_draw_sw_fill.c ****         blend_dsc.src_color_format = LV_COLOR_FORMAT_RGB888;
 124:../../Middlewares/LVGL/GUI/lvgl/src/draw/sw/lv_draw_sw_fill.c ****     }
 125:../../Middlewares/LVGL/GUI/lvgl/src/draw/sw/lv_draw_sw_fill.c **** 
 126:../../Middlewares/LVGL/GUI/lvgl/src/draw/sw/lv_draw_sw_fill.c **** #if LV_USE_DRAW_SW_COMPLEX_GRADIENTS
 127:../../Middlewares/LVGL/GUI/lvgl/src/draw/sw/lv_draw_sw_fill.c **** 
 128:../../Middlewares/LVGL/GUI/lvgl/src/draw/sw/lv_draw_sw_fill.c ****     /*Prepare complex gradient*/
 129:../../Middlewares/LVGL/GUI/lvgl/src/draw/sw/lv_draw_sw_fill.c ****     if(grad_dir >= LV_GRAD_DIR_LINEAR) {
 130:../../Middlewares/LVGL/GUI/lvgl/src/draw/sw/lv_draw_sw_fill.c ****         LV_ASSERT_NULL(grad);
 131:../../Middlewares/LVGL/GUI/lvgl/src/draw/sw/lv_draw_sw_fill.c ****         switch(grad_dir) {
 132:../../Middlewares/LVGL/GUI/lvgl/src/draw/sw/lv_draw_sw_fill.c ****             case LV_GRAD_DIR_LINEAR:
 133:../../Middlewares/LVGL/GUI/lvgl/src/draw/sw/lv_draw_sw_fill.c ****                 lv_draw_sw_grad_linear_setup(&dsc->grad, coords);
 134:../../Middlewares/LVGL/GUI/lvgl/src/draw/sw/lv_draw_sw_fill.c ****                 break;
 135:../../Middlewares/LVGL/GUI/lvgl/src/draw/sw/lv_draw_sw_fill.c ****             case LV_GRAD_DIR_RADIAL:
 136:../../Middlewares/LVGL/GUI/lvgl/src/draw/sw/lv_draw_sw_fill.c ****                 lv_draw_sw_grad_radial_setup(&dsc->grad, coords);
 137:../../Middlewares/LVGL/GUI/lvgl/src/draw/sw/lv_draw_sw_fill.c ****                 break;
 138:../../Middlewares/LVGL/GUI/lvgl/src/draw/sw/lv_draw_sw_fill.c ****             case LV_GRAD_DIR_CONICAL:
 139:../../Middlewares/LVGL/GUI/lvgl/src/draw/sw/lv_draw_sw_fill.c ****                 lv_draw_sw_grad_conical_setup(&dsc->grad, coords);
 140:../../Middlewares/LVGL/GUI/lvgl/src/draw/sw/lv_draw_sw_fill.c ****                 break;
 141:../../Middlewares/LVGL/GUI/lvgl/src/draw/sw/lv_draw_sw_fill.c ****             default:
 142:../../Middlewares/LVGL/GUI/lvgl/src/draw/sw/lv_draw_sw_fill.c ****                 LV_LOG_WARN("Gradient type is not supported");
 143:../../Middlewares/LVGL/GUI/lvgl/src/draw/sw/lv_draw_sw_fill.c ****                 return;
 144:../../Middlewares/LVGL/GUI/lvgl/src/draw/sw/lv_draw_sw_fill.c ****         }
 145:../../Middlewares/LVGL/GUI/lvgl/src/draw/sw/lv_draw_sw_fill.c ****         blend_dsc.src_area = &blend_area;
 146:../../Middlewares/LVGL/GUI/lvgl/src/draw/sw/lv_draw_sw_fill.c ****         /* For complex gradients we reuse the color map buffer for the pixel data */
 147:../../Middlewares/LVGL/GUI/lvgl/src/draw/sw/lv_draw_sw_fill.c ****         blend_dsc.src_buf = grad->color_map;
 148:../../Middlewares/LVGL/GUI/lvgl/src/draw/sw/lv_draw_sw_fill.c ****         grad_opa_map = grad->opa_map;
 149:../../Middlewares/LVGL/GUI/lvgl/src/draw/sw/lv_draw_sw_fill.c ****     }
 150:../../Middlewares/LVGL/GUI/lvgl/src/draw/sw/lv_draw_sw_fill.c **** #endif
 151:../../Middlewares/LVGL/GUI/lvgl/src/draw/sw/lv_draw_sw_fill.c **** 
 152:../../Middlewares/LVGL/GUI/lvgl/src/draw/sw/lv_draw_sw_fill.c ****     /* Draw the top of the rectangle line by line and mirror it to the bottom. */
 153:../../Middlewares/LVGL/GUI/lvgl/src/draw/sw/lv_draw_sw_fill.c ****     for(h = 0; h < rout; h++) {
 154:../../Middlewares/LVGL/GUI/lvgl/src/draw/sw/lv_draw_sw_fill.c ****         int32_t top_y = bg_coords.y1 + h;
 155:../../Middlewares/LVGL/GUI/lvgl/src/draw/sw/lv_draw_sw_fill.c ****         int32_t bottom_y = bg_coords.y2 - h;
 156:../../Middlewares/LVGL/GUI/lvgl/src/draw/sw/lv_draw_sw_fill.c ****         if(top_y < clipped_coords.y1 && bottom_y > clipped_coords.y2) continue;   /*This line is cl
 157:../../Middlewares/LVGL/GUI/lvgl/src/draw/sw/lv_draw_sw_fill.c **** 
 158:../../Middlewares/LVGL/GUI/lvgl/src/draw/sw/lv_draw_sw_fill.c ****         bool preblend = false;
 159:../../Middlewares/LVGL/GUI/lvgl/src/draw/sw/lv_draw_sw_fill.c **** 
 160:../../Middlewares/LVGL/GUI/lvgl/src/draw/sw/lv_draw_sw_fill.c ****         /* Initialize the mask to opa instead of 0xFF and blend with LV_OPA_COVER.
 161:../../Middlewares/LVGL/GUI/lvgl/src/draw/sw/lv_draw_sw_fill.c ****          * It saves calculating the final opa in lv_draw_sw_blend*/
 162:../../Middlewares/LVGL/GUI/lvgl/src/draw/sw/lv_draw_sw_fill.c ****         lv_memset(mask_buf, opa, clipped_w);
 163:../../Middlewares/LVGL/GUI/lvgl/src/draw/sw/lv_draw_sw_fill.c ****         blend_dsc.mask_res = lv_draw_sw_mask_apply(mask_list, mask_buf, blend_area.x1, top_y, clipp
 164:../../Middlewares/LVGL/GUI/lvgl/src/draw/sw/lv_draw_sw_fill.c ****         if(blend_dsc.mask_res == LV_DRAW_SW_MASK_RES_FULL_COVER) blend_dsc.mask_res = LV_DRAW_SW_MA
 165:../../Middlewares/LVGL/GUI/lvgl/src/draw/sw/lv_draw_sw_fill.c **** 
 166:../../Middlewares/LVGL/GUI/lvgl/src/draw/sw/lv_draw_sw_fill.c ****         bool hor_grad_processed = false;
 167:../../Middlewares/LVGL/GUI/lvgl/src/draw/sw/lv_draw_sw_fill.c ****         if(top_y >= clipped_coords.y1) {
 168:../../Middlewares/LVGL/GUI/lvgl/src/draw/sw/lv_draw_sw_fill.c ****             blend_area.y1 = top_y;
 169:../../Middlewares/LVGL/GUI/lvgl/src/draw/sw/lv_draw_sw_fill.c ****             blend_area.y2 = top_y;
 170:../../Middlewares/LVGL/GUI/lvgl/src/draw/sw/lv_draw_sw_fill.c **** 
 171:../../Middlewares/LVGL/GUI/lvgl/src/draw/sw/lv_draw_sw_fill.c ****             switch(grad_dir) {
 172:../../Middlewares/LVGL/GUI/lvgl/src/draw/sw/lv_draw_sw_fill.c ****                 case LV_GRAD_DIR_VER:
ARM GAS  C:\Users\28576\AppData\Local\Temp\ccmStJbf.s 			page 5


 173:../../Middlewares/LVGL/GUI/lvgl/src/draw/sw/lv_draw_sw_fill.c ****                     LV_ASSERT_NULL(grad);
 174:../../Middlewares/LVGL/GUI/lvgl/src/draw/sw/lv_draw_sw_fill.c ****                     blend_dsc.color = grad->color_map[top_y - bg_coords.y1];
 175:../../Middlewares/LVGL/GUI/lvgl/src/draw/sw/lv_draw_sw_fill.c ****                     blend_dsc.opa = grad->opa_map[top_y - bg_coords.y1];
 176:../../Middlewares/LVGL/GUI/lvgl/src/draw/sw/lv_draw_sw_fill.c ****                     break;
 177:../../Middlewares/LVGL/GUI/lvgl/src/draw/sw/lv_draw_sw_fill.c ****                 case LV_GRAD_DIR_HOR:
 178:../../Middlewares/LVGL/GUI/lvgl/src/draw/sw/lv_draw_sw_fill.c ****                     hor_grad_processed = true;
 179:../../Middlewares/LVGL/GUI/lvgl/src/draw/sw/lv_draw_sw_fill.c ****                     preblend = grad_opa_map != NULL;
 180:../../Middlewares/LVGL/GUI/lvgl/src/draw/sw/lv_draw_sw_fill.c ****                     break;
 181:../../Middlewares/LVGL/GUI/lvgl/src/draw/sw/lv_draw_sw_fill.c **** #if LV_USE_DRAW_SW_COMPLEX_GRADIENTS
 182:../../Middlewares/LVGL/GUI/lvgl/src/draw/sw/lv_draw_sw_fill.c ****                 case LV_GRAD_DIR_LINEAR:
 183:../../Middlewares/LVGL/GUI/lvgl/src/draw/sw/lv_draw_sw_fill.c ****                     lv_draw_sw_grad_linear_get_line(&dsc->grad, clipped_coords.x1 - bg_coords.x1, t
 184:../../Middlewares/LVGL/GUI/lvgl/src/draw/sw/lv_draw_sw_fill.c ****                     preblend = true;
 185:../../Middlewares/LVGL/GUI/lvgl/src/draw/sw/lv_draw_sw_fill.c ****                     break;
 186:../../Middlewares/LVGL/GUI/lvgl/src/draw/sw/lv_draw_sw_fill.c ****                 case LV_GRAD_DIR_RADIAL:
 187:../../Middlewares/LVGL/GUI/lvgl/src/draw/sw/lv_draw_sw_fill.c ****                     lv_draw_sw_grad_radial_get_line(&dsc->grad, clipped_coords.x1 - bg_coords.x1, t
 188:../../Middlewares/LVGL/GUI/lvgl/src/draw/sw/lv_draw_sw_fill.c ****                     preblend = true;
 189:../../Middlewares/LVGL/GUI/lvgl/src/draw/sw/lv_draw_sw_fill.c ****                     break;
 190:../../Middlewares/LVGL/GUI/lvgl/src/draw/sw/lv_draw_sw_fill.c ****                 case LV_GRAD_DIR_CONICAL:
 191:../../Middlewares/LVGL/GUI/lvgl/src/draw/sw/lv_draw_sw_fill.c ****                     lv_draw_sw_grad_conical_get_line(&dsc->grad, clipped_coords.x1 - bg_coords.x1, 
 192:../../Middlewares/LVGL/GUI/lvgl/src/draw/sw/lv_draw_sw_fill.c ****                     preblend = true;
 193:../../Middlewares/LVGL/GUI/lvgl/src/draw/sw/lv_draw_sw_fill.c ****                     break;
 194:../../Middlewares/LVGL/GUI/lvgl/src/draw/sw/lv_draw_sw_fill.c **** #endif
 195:../../Middlewares/LVGL/GUI/lvgl/src/draw/sw/lv_draw_sw_fill.c ****                 default:
 196:../../Middlewares/LVGL/GUI/lvgl/src/draw/sw/lv_draw_sw_fill.c ****                     break;
 197:../../Middlewares/LVGL/GUI/lvgl/src/draw/sw/lv_draw_sw_fill.c ****             }
 198:../../Middlewares/LVGL/GUI/lvgl/src/draw/sw/lv_draw_sw_fill.c ****             /* pre-blend the mask */
 199:../../Middlewares/LVGL/GUI/lvgl/src/draw/sw/lv_draw_sw_fill.c ****             if(preblend) {
 200:../../Middlewares/LVGL/GUI/lvgl/src/draw/sw/lv_draw_sw_fill.c ****                 int32_t i;
 201:../../Middlewares/LVGL/GUI/lvgl/src/draw/sw/lv_draw_sw_fill.c ****                 for(i = 0; i < clipped_w; i++) {
 202:../../Middlewares/LVGL/GUI/lvgl/src/draw/sw/lv_draw_sw_fill.c ****                     if(grad_opa_map[i] < LV_OPA_MAX) mask_buf[i] = (mask_buf[i] * grad_opa_map[i]) 
 203:../../Middlewares/LVGL/GUI/lvgl/src/draw/sw/lv_draw_sw_fill.c ****                 }
 204:../../Middlewares/LVGL/GUI/lvgl/src/draw/sw/lv_draw_sw_fill.c ****                 blend_dsc.mask_res = LV_DRAW_SW_MASK_RES_CHANGED;
 205:../../Middlewares/LVGL/GUI/lvgl/src/draw/sw/lv_draw_sw_fill.c ****             }
 206:../../Middlewares/LVGL/GUI/lvgl/src/draw/sw/lv_draw_sw_fill.c ****             lv_draw_sw_blend(t, &blend_dsc);
 207:../../Middlewares/LVGL/GUI/lvgl/src/draw/sw/lv_draw_sw_fill.c ****         }
 208:../../Middlewares/LVGL/GUI/lvgl/src/draw/sw/lv_draw_sw_fill.c **** 
 209:../../Middlewares/LVGL/GUI/lvgl/src/draw/sw/lv_draw_sw_fill.c ****         if(bottom_y <= clipped_coords.y2) {
 210:../../Middlewares/LVGL/GUI/lvgl/src/draw/sw/lv_draw_sw_fill.c ****             blend_area.y1 = bottom_y;
 211:../../Middlewares/LVGL/GUI/lvgl/src/draw/sw/lv_draw_sw_fill.c ****             blend_area.y2 = bottom_y;
 212:../../Middlewares/LVGL/GUI/lvgl/src/draw/sw/lv_draw_sw_fill.c **** 
 213:../../Middlewares/LVGL/GUI/lvgl/src/draw/sw/lv_draw_sw_fill.c ****             switch(grad_dir) {
 214:../../Middlewares/LVGL/GUI/lvgl/src/draw/sw/lv_draw_sw_fill.c ****                 case LV_GRAD_DIR_VER:
 215:../../Middlewares/LVGL/GUI/lvgl/src/draw/sw/lv_draw_sw_fill.c ****                     LV_ASSERT_NULL(grad);
 216:../../Middlewares/LVGL/GUI/lvgl/src/draw/sw/lv_draw_sw_fill.c ****                     blend_dsc.color = grad->color_map[bottom_y - bg_coords.y1];
 217:../../Middlewares/LVGL/GUI/lvgl/src/draw/sw/lv_draw_sw_fill.c ****                     blend_dsc.opa = grad->opa_map[bottom_y - bg_coords.y1];
 218:../../Middlewares/LVGL/GUI/lvgl/src/draw/sw/lv_draw_sw_fill.c ****                     break;
 219:../../Middlewares/LVGL/GUI/lvgl/src/draw/sw/lv_draw_sw_fill.c ****                 case LV_GRAD_DIR_HOR:
 220:../../Middlewares/LVGL/GUI/lvgl/src/draw/sw/lv_draw_sw_fill.c ****                     preblend = !hor_grad_processed && (grad_opa_map != NULL);
 221:../../Middlewares/LVGL/GUI/lvgl/src/draw/sw/lv_draw_sw_fill.c ****                     break;
 222:../../Middlewares/LVGL/GUI/lvgl/src/draw/sw/lv_draw_sw_fill.c **** #if LV_USE_DRAW_SW_COMPLEX_GRADIENTS
 223:../../Middlewares/LVGL/GUI/lvgl/src/draw/sw/lv_draw_sw_fill.c ****                 case LV_GRAD_DIR_LINEAR:
 224:../../Middlewares/LVGL/GUI/lvgl/src/draw/sw/lv_draw_sw_fill.c ****                     lv_draw_sw_grad_linear_get_line(&dsc->grad, clipped_coords.x1 - bg_coords.x1, b
 225:../../Middlewares/LVGL/GUI/lvgl/src/draw/sw/lv_draw_sw_fill.c ****                                                     grad);
 226:../../Middlewares/LVGL/GUI/lvgl/src/draw/sw/lv_draw_sw_fill.c ****                     preblend = true;
 227:../../Middlewares/LVGL/GUI/lvgl/src/draw/sw/lv_draw_sw_fill.c ****                     break;
 228:../../Middlewares/LVGL/GUI/lvgl/src/draw/sw/lv_draw_sw_fill.c ****                 case LV_GRAD_DIR_RADIAL:
 229:../../Middlewares/LVGL/GUI/lvgl/src/draw/sw/lv_draw_sw_fill.c ****                     lv_draw_sw_grad_radial_get_line(&dsc->grad, clipped_coords.x1 - bg_coords.x1, b
ARM GAS  C:\Users\28576\AppData\Local\Temp\ccmStJbf.s 			page 6


 230:../../Middlewares/LVGL/GUI/lvgl/src/draw/sw/lv_draw_sw_fill.c ****                                                     grad);
 231:../../Middlewares/LVGL/GUI/lvgl/src/draw/sw/lv_draw_sw_fill.c ****                     preblend = true;
 232:../../Middlewares/LVGL/GUI/lvgl/src/draw/sw/lv_draw_sw_fill.c ****                     break;
 233:../../Middlewares/LVGL/GUI/lvgl/src/draw/sw/lv_draw_sw_fill.c ****                 case LV_GRAD_DIR_CONICAL:
 234:../../Middlewares/LVGL/GUI/lvgl/src/draw/sw/lv_draw_sw_fill.c ****                     lv_draw_sw_grad_conical_get_line(&dsc->grad, clipped_coords.x1 - bg_coords.x1, 
 235:../../Middlewares/LVGL/GUI/lvgl/src/draw/sw/lv_draw_sw_fill.c ****                                                      grad);
 236:../../Middlewares/LVGL/GUI/lvgl/src/draw/sw/lv_draw_sw_fill.c ****                     preblend = true;
 237:../../Middlewares/LVGL/GUI/lvgl/src/draw/sw/lv_draw_sw_fill.c ****                     break;
 238:../../Middlewares/LVGL/GUI/lvgl/src/draw/sw/lv_draw_sw_fill.c **** #endif
 239:../../Middlewares/LVGL/GUI/lvgl/src/draw/sw/lv_draw_sw_fill.c ****                 default:
 240:../../Middlewares/LVGL/GUI/lvgl/src/draw/sw/lv_draw_sw_fill.c ****                     break;
 241:../../Middlewares/LVGL/GUI/lvgl/src/draw/sw/lv_draw_sw_fill.c ****             }
 242:../../Middlewares/LVGL/GUI/lvgl/src/draw/sw/lv_draw_sw_fill.c ****             /* pre-blend the mask */
 243:../../Middlewares/LVGL/GUI/lvgl/src/draw/sw/lv_draw_sw_fill.c ****             if(preblend) {
 244:../../Middlewares/LVGL/GUI/lvgl/src/draw/sw/lv_draw_sw_fill.c ****                 int32_t i;
 245:../../Middlewares/LVGL/GUI/lvgl/src/draw/sw/lv_draw_sw_fill.c ****                 if(grad_dir >= LV_GRAD_DIR_LINEAR) {
 246:../../Middlewares/LVGL/GUI/lvgl/src/draw/sw/lv_draw_sw_fill.c ****                     /*Need to generate the mask again, because we have mixed in the upper part of t
 247:../../Middlewares/LVGL/GUI/lvgl/src/draw/sw/lv_draw_sw_fill.c ****                     lv_memset(mask_buf, opa, clipped_w);
 248:../../Middlewares/LVGL/GUI/lvgl/src/draw/sw/lv_draw_sw_fill.c ****                     blend_dsc.mask_res = lv_draw_sw_mask_apply(mask_list, mask_buf, blend_area.x1, 
 249:../../Middlewares/LVGL/GUI/lvgl/src/draw/sw/lv_draw_sw_fill.c ****                     if(blend_dsc.mask_res == LV_DRAW_SW_MASK_RES_FULL_COVER) blend_dsc.mask_res = L
 250:../../Middlewares/LVGL/GUI/lvgl/src/draw/sw/lv_draw_sw_fill.c ****                 }
 251:../../Middlewares/LVGL/GUI/lvgl/src/draw/sw/lv_draw_sw_fill.c ****                 for(i = 0; i < clipped_w; i++) {
 252:../../Middlewares/LVGL/GUI/lvgl/src/draw/sw/lv_draw_sw_fill.c ****                     if(grad_opa_map[i] < LV_OPA_MAX) mask_buf[i] = (mask_buf[i] * grad_opa_map[i]) 
 253:../../Middlewares/LVGL/GUI/lvgl/src/draw/sw/lv_draw_sw_fill.c ****                 }
 254:../../Middlewares/LVGL/GUI/lvgl/src/draw/sw/lv_draw_sw_fill.c ****                 blend_dsc.mask_res = LV_DRAW_SW_MASK_RES_CHANGED;
 255:../../Middlewares/LVGL/GUI/lvgl/src/draw/sw/lv_draw_sw_fill.c ****             }
 256:../../Middlewares/LVGL/GUI/lvgl/src/draw/sw/lv_draw_sw_fill.c ****             lv_draw_sw_blend(t, &blend_dsc);
 257:../../Middlewares/LVGL/GUI/lvgl/src/draw/sw/lv_draw_sw_fill.c ****         }
 258:../../Middlewares/LVGL/GUI/lvgl/src/draw/sw/lv_draw_sw_fill.c ****     }
 259:../../Middlewares/LVGL/GUI/lvgl/src/draw/sw/lv_draw_sw_fill.c **** 
 260:../../Middlewares/LVGL/GUI/lvgl/src/draw/sw/lv_draw_sw_fill.c ****     /* Draw the center of the rectangle.*/
 261:../../Middlewares/LVGL/GUI/lvgl/src/draw/sw/lv_draw_sw_fill.c **** 
 262:../../Middlewares/LVGL/GUI/lvgl/src/draw/sw/lv_draw_sw_fill.c ****     /*If no gradient, the center is a simple rectangle*/
 263:../../Middlewares/LVGL/GUI/lvgl/src/draw/sw/lv_draw_sw_fill.c ****     if(grad_dir == LV_GRAD_DIR_NONE) {
 264:../../Middlewares/LVGL/GUI/lvgl/src/draw/sw/lv_draw_sw_fill.c ****         blend_area.y1 = bg_coords.y1 + rout;
 265:../../Middlewares/LVGL/GUI/lvgl/src/draw/sw/lv_draw_sw_fill.c ****         blend_area.y2 = bg_coords.y2 - rout;
 266:../../Middlewares/LVGL/GUI/lvgl/src/draw/sw/lv_draw_sw_fill.c ****         blend_dsc.opa = opa;
 267:../../Middlewares/LVGL/GUI/lvgl/src/draw/sw/lv_draw_sw_fill.c ****         blend_dsc.mask_buf = NULL;
 268:../../Middlewares/LVGL/GUI/lvgl/src/draw/sw/lv_draw_sw_fill.c ****         lv_draw_sw_blend(t, &blend_dsc);
 269:../../Middlewares/LVGL/GUI/lvgl/src/draw/sw/lv_draw_sw_fill.c ****     }
 270:../../Middlewares/LVGL/GUI/lvgl/src/draw/sw/lv_draw_sw_fill.c ****     /*With gradient draw line by line*/
 271:../../Middlewares/LVGL/GUI/lvgl/src/draw/sw/lv_draw_sw_fill.c ****     else {
 272:../../Middlewares/LVGL/GUI/lvgl/src/draw/sw/lv_draw_sw_fill.c ****         blend_dsc.opa = opa;
 273:../../Middlewares/LVGL/GUI/lvgl/src/draw/sw/lv_draw_sw_fill.c ****         switch(grad_dir) {
 274:../../Middlewares/LVGL/GUI/lvgl/src/draw/sw/lv_draw_sw_fill.c ****             case LV_GRAD_DIR_VER:
 275:../../Middlewares/LVGL/GUI/lvgl/src/draw/sw/lv_draw_sw_fill.c ****                 blend_dsc.mask_res = LV_DRAW_SW_MASK_RES_FULL_COVER;
 276:../../Middlewares/LVGL/GUI/lvgl/src/draw/sw/lv_draw_sw_fill.c ****                 break;
 277:../../Middlewares/LVGL/GUI/lvgl/src/draw/sw/lv_draw_sw_fill.c ****             case LV_GRAD_DIR_HOR:
 278:../../Middlewares/LVGL/GUI/lvgl/src/draw/sw/lv_draw_sw_fill.c ****                 blend_dsc.mask_res = LV_DRAW_SW_MASK_RES_CHANGED;
 279:../../Middlewares/LVGL/GUI/lvgl/src/draw/sw/lv_draw_sw_fill.c ****                 blend_dsc.mask_buf = grad_opa_map;
 280:../../Middlewares/LVGL/GUI/lvgl/src/draw/sw/lv_draw_sw_fill.c ****                 break;
 281:../../Middlewares/LVGL/GUI/lvgl/src/draw/sw/lv_draw_sw_fill.c ****             case LV_GRAD_DIR_LINEAR:
 282:../../Middlewares/LVGL/GUI/lvgl/src/draw/sw/lv_draw_sw_fill.c ****             case LV_GRAD_DIR_RADIAL:
 283:../../Middlewares/LVGL/GUI/lvgl/src/draw/sw/lv_draw_sw_fill.c ****             case LV_GRAD_DIR_CONICAL:
 284:../../Middlewares/LVGL/GUI/lvgl/src/draw/sw/lv_draw_sw_fill.c ****                 blend_dsc.mask_res = transp ? LV_DRAW_SW_MASK_RES_CHANGED : LV_DRAW_SW_MASK_RES_FUL
 285:../../Middlewares/LVGL/GUI/lvgl/src/draw/sw/lv_draw_sw_fill.c ****                 blend_dsc.mask_buf = grad_opa_map;
 286:../../Middlewares/LVGL/GUI/lvgl/src/draw/sw/lv_draw_sw_fill.c ****                 break;
ARM GAS  C:\Users\28576\AppData\Local\Temp\ccmStJbf.s 			page 7


 287:../../Middlewares/LVGL/GUI/lvgl/src/draw/sw/lv_draw_sw_fill.c ****             default:
 288:../../Middlewares/LVGL/GUI/lvgl/src/draw/sw/lv_draw_sw_fill.c ****                 break;
 289:../../Middlewares/LVGL/GUI/lvgl/src/draw/sw/lv_draw_sw_fill.c ****         }
 290:../../Middlewares/LVGL/GUI/lvgl/src/draw/sw/lv_draw_sw_fill.c **** 
 291:../../Middlewares/LVGL/GUI/lvgl/src/draw/sw/lv_draw_sw_fill.c ****         int32_t h_start = LV_MAX(bg_coords.y1 + rout, clipped_coords.y1);
 292:../../Middlewares/LVGL/GUI/lvgl/src/draw/sw/lv_draw_sw_fill.c ****         int32_t h_end = LV_MIN(bg_coords.y2 - rout, clipped_coords.y2);
 293:../../Middlewares/LVGL/GUI/lvgl/src/draw/sw/lv_draw_sw_fill.c ****         for(h = h_start; h <= h_end; h++) {
 294:../../Middlewares/LVGL/GUI/lvgl/src/draw/sw/lv_draw_sw_fill.c ****             blend_area.y1 = h;
 295:../../Middlewares/LVGL/GUI/lvgl/src/draw/sw/lv_draw_sw_fill.c ****             blend_area.y2 = h;
 296:../../Middlewares/LVGL/GUI/lvgl/src/draw/sw/lv_draw_sw_fill.c **** 
 297:../../Middlewares/LVGL/GUI/lvgl/src/draw/sw/lv_draw_sw_fill.c ****             switch(grad_dir) {
 298:../../Middlewares/LVGL/GUI/lvgl/src/draw/sw/lv_draw_sw_fill.c ****                 case LV_GRAD_DIR_VER:
 299:../../Middlewares/LVGL/GUI/lvgl/src/draw/sw/lv_draw_sw_fill.c ****                     LV_ASSERT_NULL(grad);
 300:../../Middlewares/LVGL/GUI/lvgl/src/draw/sw/lv_draw_sw_fill.c ****                     blend_dsc.color = grad->color_map[h - bg_coords.y1];
 301:../../Middlewares/LVGL/GUI/lvgl/src/draw/sw/lv_draw_sw_fill.c ****                     if(opa >= LV_OPA_MAX) blend_dsc.opa = grad->opa_map[h - bg_coords.y1];
 302:../../Middlewares/LVGL/GUI/lvgl/src/draw/sw/lv_draw_sw_fill.c ****                     else blend_dsc.opa = LV_OPA_MIX2(grad->opa_map[h - bg_coords.y1], opa);
 303:../../Middlewares/LVGL/GUI/lvgl/src/draw/sw/lv_draw_sw_fill.c ****                     break;
 304:../../Middlewares/LVGL/GUI/lvgl/src/draw/sw/lv_draw_sw_fill.c **** #if LV_USE_DRAW_SW_COMPLEX_GRADIENTS
 305:../../Middlewares/LVGL/GUI/lvgl/src/draw/sw/lv_draw_sw_fill.c ****                 case LV_GRAD_DIR_LINEAR:
 306:../../Middlewares/LVGL/GUI/lvgl/src/draw/sw/lv_draw_sw_fill.c ****                     lv_draw_sw_grad_linear_get_line(&dsc->grad, clipped_coords.x1 - bg_coords.x1, h
 307:../../Middlewares/LVGL/GUI/lvgl/src/draw/sw/lv_draw_sw_fill.c ****                     break;
 308:../../Middlewares/LVGL/GUI/lvgl/src/draw/sw/lv_draw_sw_fill.c ****                 case LV_GRAD_DIR_RADIAL:
 309:../../Middlewares/LVGL/GUI/lvgl/src/draw/sw/lv_draw_sw_fill.c ****                     lv_draw_sw_grad_radial_get_line(&dsc->grad, clipped_coords.x1 - bg_coords.x1, h
 310:../../Middlewares/LVGL/GUI/lvgl/src/draw/sw/lv_draw_sw_fill.c ****                     break;
 311:../../Middlewares/LVGL/GUI/lvgl/src/draw/sw/lv_draw_sw_fill.c ****                 case LV_GRAD_DIR_CONICAL:
 312:../../Middlewares/LVGL/GUI/lvgl/src/draw/sw/lv_draw_sw_fill.c ****                     lv_draw_sw_grad_conical_get_line(&dsc->grad, clipped_coords.x1 - bg_coords.x1, 
 313:../../Middlewares/LVGL/GUI/lvgl/src/draw/sw/lv_draw_sw_fill.c ****                     break;
 314:../../Middlewares/LVGL/GUI/lvgl/src/draw/sw/lv_draw_sw_fill.c **** #endif
 315:../../Middlewares/LVGL/GUI/lvgl/src/draw/sw/lv_draw_sw_fill.c ****                 default:
 316:../../Middlewares/LVGL/GUI/lvgl/src/draw/sw/lv_draw_sw_fill.c ****                     break;
 317:../../Middlewares/LVGL/GUI/lvgl/src/draw/sw/lv_draw_sw_fill.c ****             }
 318:../../Middlewares/LVGL/GUI/lvgl/src/draw/sw/lv_draw_sw_fill.c ****             lv_draw_sw_blend(t, &blend_dsc);
 319:../../Middlewares/LVGL/GUI/lvgl/src/draw/sw/lv_draw_sw_fill.c ****         }
 320:../../Middlewares/LVGL/GUI/lvgl/src/draw/sw/lv_draw_sw_fill.c ****     }
 321:../../Middlewares/LVGL/GUI/lvgl/src/draw/sw/lv_draw_sw_fill.c **** 
 322:../../Middlewares/LVGL/GUI/lvgl/src/draw/sw/lv_draw_sw_fill.c ****     if(mask_buf) {
 323:../../Middlewares/LVGL/GUI/lvgl/src/draw/sw/lv_draw_sw_fill.c ****         lv_free(mask_buf);
 324:../../Middlewares/LVGL/GUI/lvgl/src/draw/sw/lv_draw_sw_fill.c ****         lv_draw_sw_mask_free_param(&mask_rout_param);
 325:../../Middlewares/LVGL/GUI/lvgl/src/draw/sw/lv_draw_sw_fill.c ****     }
 326:../../Middlewares/LVGL/GUI/lvgl/src/draw/sw/lv_draw_sw_fill.c ****     if(grad) {
 327:../../Middlewares/LVGL/GUI/lvgl/src/draw/sw/lv_draw_sw_fill.c ****         lv_draw_sw_grad_cleanup(grad);
 328:../../Middlewares/LVGL/GUI/lvgl/src/draw/sw/lv_draw_sw_fill.c ****     }
 329:../../Middlewares/LVGL/GUI/lvgl/src/draw/sw/lv_draw_sw_fill.c **** #if LV_USE_DRAW_SW_COMPLEX_GRADIENTS
 330:../../Middlewares/LVGL/GUI/lvgl/src/draw/sw/lv_draw_sw_fill.c ****     if(grad_dir >= LV_GRAD_DIR_LINEAR) {
 331:../../Middlewares/LVGL/GUI/lvgl/src/draw/sw/lv_draw_sw_fill.c ****         switch(grad_dir) {
 332:../../Middlewares/LVGL/GUI/lvgl/src/draw/sw/lv_draw_sw_fill.c ****             case LV_GRAD_DIR_LINEAR:
 333:../../Middlewares/LVGL/GUI/lvgl/src/draw/sw/lv_draw_sw_fill.c ****                 lv_draw_sw_grad_linear_cleanup(&dsc->grad);
 334:../../Middlewares/LVGL/GUI/lvgl/src/draw/sw/lv_draw_sw_fill.c ****                 break;
 335:../../Middlewares/LVGL/GUI/lvgl/src/draw/sw/lv_draw_sw_fill.c ****             case LV_GRAD_DIR_RADIAL:
 336:../../Middlewares/LVGL/GUI/lvgl/src/draw/sw/lv_draw_sw_fill.c ****                 lv_draw_sw_grad_radial_cleanup(&dsc->grad);
 337:../../Middlewares/LVGL/GUI/lvgl/src/draw/sw/lv_draw_sw_fill.c ****                 break;
 338:../../Middlewares/LVGL/GUI/lvgl/src/draw/sw/lv_draw_sw_fill.c ****             case LV_GRAD_DIR_CONICAL:
 339:../../Middlewares/LVGL/GUI/lvgl/src/draw/sw/lv_draw_sw_fill.c ****                 lv_draw_sw_grad_conical_cleanup(&dsc->grad);
 340:../../Middlewares/LVGL/GUI/lvgl/src/draw/sw/lv_draw_sw_fill.c ****                 break;
 341:../../Middlewares/LVGL/GUI/lvgl/src/draw/sw/lv_draw_sw_fill.c ****             default:
 342:../../Middlewares/LVGL/GUI/lvgl/src/draw/sw/lv_draw_sw_fill.c ****                 break;
 343:../../Middlewares/LVGL/GUI/lvgl/src/draw/sw/lv_draw_sw_fill.c ****         }
ARM GAS  C:\Users\28576\AppData\Local\Temp\ccmStJbf.s 			page 8


 344:../../Middlewares/LVGL/GUI/lvgl/src/draw/sw/lv_draw_sw_fill.c ****     }
 345:../../Middlewares/LVGL/GUI/lvgl/src/draw/sw/lv_draw_sw_fill.c **** #endif
 346:../../Middlewares/LVGL/GUI/lvgl/src/draw/sw/lv_draw_sw_fill.c **** 
 347:../../Middlewares/LVGL/GUI/lvgl/src/draw/sw/lv_draw_sw_fill.c **** #endif
 348:../../Middlewares/LVGL/GUI/lvgl/src/draw/sw/lv_draw_sw_fill.c **** }
  58              		.loc 1 348 1 view .LVU5
  59 0010 2FB0     		add	sp, sp, #188
  60              	.LCFI2:
  61              		.cfi_remember_state
  62              		.cfi_def_cfa_offset 36
  63              		@ sp needed
  64 0012 BDE8F08F 		pop	{r4, r5, r6, r7, r8, r9, r10, fp, pc}
  65              	.LVL2:
  66              	.L64:
  67              	.LCFI3:
  68              		.cfi_restore_state
  69              		.loc 1 348 1 view .LVU6
  70 0016 0C46     		mov	r4, r1
  52:../../Middlewares/LVGL/GUI/lvgl/src/draw/sw/lv_draw_sw_fill.c ****     lv_area_copy(&bg_coords, coords);
  71              		.loc 1 52 5 is_stmt 1 view .LVU7
  53:../../Middlewares/LVGL/GUI/lvgl/src/draw/sw/lv_draw_sw_fill.c **** 
  72              		.loc 1 53 5 view .LVU8
  73              	.LVL3:
  74              	.LBB9:
  75              	.LBI9:
  76              		.file 2 "../../Middlewares/LVGL/GUI/lvgl/src/draw/sw/../../misc/lv_area.h"
   1:../../Middlewares/LVGL/GUI/lvgl/src/draw/sw/../../misc/lv_area.h **** /**
   2:../../Middlewares/LVGL/GUI/lvgl/src/draw/sw/../../misc/lv_area.h ****  * @file lv_area.h
   3:../../Middlewares/LVGL/GUI/lvgl/src/draw/sw/../../misc/lv_area.h ****  *
   4:../../Middlewares/LVGL/GUI/lvgl/src/draw/sw/../../misc/lv_area.h ****  */
   5:../../Middlewares/LVGL/GUI/lvgl/src/draw/sw/../../misc/lv_area.h **** 
   6:../../Middlewares/LVGL/GUI/lvgl/src/draw/sw/../../misc/lv_area.h **** #ifndef LV_AREA_H
   7:../../Middlewares/LVGL/GUI/lvgl/src/draw/sw/../../misc/lv_area.h **** #define LV_AREA_H
   8:../../Middlewares/LVGL/GUI/lvgl/src/draw/sw/../../misc/lv_area.h **** 
   9:../../Middlewares/LVGL/GUI/lvgl/src/draw/sw/../../misc/lv_area.h **** #ifdef __cplusplus
  10:../../Middlewares/LVGL/GUI/lvgl/src/draw/sw/../../misc/lv_area.h **** extern "C" {
  11:../../Middlewares/LVGL/GUI/lvgl/src/draw/sw/../../misc/lv_area.h **** #endif
  12:../../Middlewares/LVGL/GUI/lvgl/src/draw/sw/../../misc/lv_area.h **** 
  13:../../Middlewares/LVGL/GUI/lvgl/src/draw/sw/../../misc/lv_area.h **** /*********************
  14:../../Middlewares/LVGL/GUI/lvgl/src/draw/sw/../../misc/lv_area.h ****  *      INCLUDES
  15:../../Middlewares/LVGL/GUI/lvgl/src/draw/sw/../../misc/lv_area.h ****  *********************/
  16:../../Middlewares/LVGL/GUI/lvgl/src/draw/sw/../../misc/lv_area.h **** #include "../lv_conf_internal.h"
  17:../../Middlewares/LVGL/GUI/lvgl/src/draw/sw/../../misc/lv_area.h **** #include "lv_types.h"
  18:../../Middlewares/LVGL/GUI/lvgl/src/draw/sw/../../misc/lv_area.h **** #include "lv_math.h"
  19:../../Middlewares/LVGL/GUI/lvgl/src/draw/sw/../../misc/lv_area.h **** 
  20:../../Middlewares/LVGL/GUI/lvgl/src/draw/sw/../../misc/lv_area.h **** /*********************
  21:../../Middlewares/LVGL/GUI/lvgl/src/draw/sw/../../misc/lv_area.h ****  *      DEFINES
  22:../../Middlewares/LVGL/GUI/lvgl/src/draw/sw/../../misc/lv_area.h ****  *********************/
  23:../../Middlewares/LVGL/GUI/lvgl/src/draw/sw/../../misc/lv_area.h **** 
  24:../../Middlewares/LVGL/GUI/lvgl/src/draw/sw/../../misc/lv_area.h **** /**********************
  25:../../Middlewares/LVGL/GUI/lvgl/src/draw/sw/../../misc/lv_area.h ****  *      TYPEDEFS
  26:../../Middlewares/LVGL/GUI/lvgl/src/draw/sw/../../misc/lv_area.h ****  **********************/
  27:../../Middlewares/LVGL/GUI/lvgl/src/draw/sw/../../misc/lv_area.h **** 
  28:../../Middlewares/LVGL/GUI/lvgl/src/draw/sw/../../misc/lv_area.h **** /**
  29:../../Middlewares/LVGL/GUI/lvgl/src/draw/sw/../../misc/lv_area.h ****  * Represents a point on the screen.
  30:../../Middlewares/LVGL/GUI/lvgl/src/draw/sw/../../misc/lv_area.h ****  */
  31:../../Middlewares/LVGL/GUI/lvgl/src/draw/sw/../../misc/lv_area.h **** typedef struct {
ARM GAS  C:\Users\28576\AppData\Local\Temp\ccmStJbf.s 			page 9


  32:../../Middlewares/LVGL/GUI/lvgl/src/draw/sw/../../misc/lv_area.h ****     int32_t x;
  33:../../Middlewares/LVGL/GUI/lvgl/src/draw/sw/../../misc/lv_area.h ****     int32_t y;
  34:../../Middlewares/LVGL/GUI/lvgl/src/draw/sw/../../misc/lv_area.h **** } lv_point_t;
  35:../../Middlewares/LVGL/GUI/lvgl/src/draw/sw/../../misc/lv_area.h **** 
  36:../../Middlewares/LVGL/GUI/lvgl/src/draw/sw/../../misc/lv_area.h **** typedef struct {
  37:../../Middlewares/LVGL/GUI/lvgl/src/draw/sw/../../misc/lv_area.h ****     lv_value_precise_t x;
  38:../../Middlewares/LVGL/GUI/lvgl/src/draw/sw/../../misc/lv_area.h ****     lv_value_precise_t y;
  39:../../Middlewares/LVGL/GUI/lvgl/src/draw/sw/../../misc/lv_area.h **** } lv_point_precise_t;
  40:../../Middlewares/LVGL/GUI/lvgl/src/draw/sw/../../misc/lv_area.h **** 
  41:../../Middlewares/LVGL/GUI/lvgl/src/draw/sw/../../misc/lv_area.h **** /** Represents an area of the screen.*/
  42:../../Middlewares/LVGL/GUI/lvgl/src/draw/sw/../../misc/lv_area.h **** typedef struct {
  43:../../Middlewares/LVGL/GUI/lvgl/src/draw/sw/../../misc/lv_area.h ****     int32_t x1;
  44:../../Middlewares/LVGL/GUI/lvgl/src/draw/sw/../../misc/lv_area.h ****     int32_t y1;
  45:../../Middlewares/LVGL/GUI/lvgl/src/draw/sw/../../misc/lv_area.h ****     int32_t x2;
  46:../../Middlewares/LVGL/GUI/lvgl/src/draw/sw/../../misc/lv_area.h ****     int32_t y2;
  47:../../Middlewares/LVGL/GUI/lvgl/src/draw/sw/../../misc/lv_area.h **** } lv_area_t;
  48:../../Middlewares/LVGL/GUI/lvgl/src/draw/sw/../../misc/lv_area.h **** 
  49:../../Middlewares/LVGL/GUI/lvgl/src/draw/sw/../../misc/lv_area.h **** /** Alignments*/
  50:../../Middlewares/LVGL/GUI/lvgl/src/draw/sw/../../misc/lv_area.h **** 
  51:../../Middlewares/LVGL/GUI/lvgl/src/draw/sw/../../misc/lv_area.h **** typedef enum {
  52:../../Middlewares/LVGL/GUI/lvgl/src/draw/sw/../../misc/lv_area.h ****     LV_ALIGN_DEFAULT = 0,
  53:../../Middlewares/LVGL/GUI/lvgl/src/draw/sw/../../misc/lv_area.h ****     LV_ALIGN_TOP_LEFT,
  54:../../Middlewares/LVGL/GUI/lvgl/src/draw/sw/../../misc/lv_area.h ****     LV_ALIGN_TOP_MID,
  55:../../Middlewares/LVGL/GUI/lvgl/src/draw/sw/../../misc/lv_area.h ****     LV_ALIGN_TOP_RIGHT,
  56:../../Middlewares/LVGL/GUI/lvgl/src/draw/sw/../../misc/lv_area.h ****     LV_ALIGN_BOTTOM_LEFT,
  57:../../Middlewares/LVGL/GUI/lvgl/src/draw/sw/../../misc/lv_area.h ****     LV_ALIGN_BOTTOM_MID,
  58:../../Middlewares/LVGL/GUI/lvgl/src/draw/sw/../../misc/lv_area.h ****     LV_ALIGN_BOTTOM_RIGHT,
  59:../../Middlewares/LVGL/GUI/lvgl/src/draw/sw/../../misc/lv_area.h ****     LV_ALIGN_LEFT_MID,
  60:../../Middlewares/LVGL/GUI/lvgl/src/draw/sw/../../misc/lv_area.h ****     LV_ALIGN_RIGHT_MID,
  61:../../Middlewares/LVGL/GUI/lvgl/src/draw/sw/../../misc/lv_area.h ****     LV_ALIGN_CENTER,
  62:../../Middlewares/LVGL/GUI/lvgl/src/draw/sw/../../misc/lv_area.h **** 
  63:../../Middlewares/LVGL/GUI/lvgl/src/draw/sw/../../misc/lv_area.h ****     LV_ALIGN_OUT_TOP_LEFT,
  64:../../Middlewares/LVGL/GUI/lvgl/src/draw/sw/../../misc/lv_area.h ****     LV_ALIGN_OUT_TOP_MID,
  65:../../Middlewares/LVGL/GUI/lvgl/src/draw/sw/../../misc/lv_area.h ****     LV_ALIGN_OUT_TOP_RIGHT,
  66:../../Middlewares/LVGL/GUI/lvgl/src/draw/sw/../../misc/lv_area.h ****     LV_ALIGN_OUT_BOTTOM_LEFT,
  67:../../Middlewares/LVGL/GUI/lvgl/src/draw/sw/../../misc/lv_area.h ****     LV_ALIGN_OUT_BOTTOM_MID,
  68:../../Middlewares/LVGL/GUI/lvgl/src/draw/sw/../../misc/lv_area.h ****     LV_ALIGN_OUT_BOTTOM_RIGHT,
  69:../../Middlewares/LVGL/GUI/lvgl/src/draw/sw/../../misc/lv_area.h ****     LV_ALIGN_OUT_LEFT_TOP,
  70:../../Middlewares/LVGL/GUI/lvgl/src/draw/sw/../../misc/lv_area.h ****     LV_ALIGN_OUT_LEFT_MID,
  71:../../Middlewares/LVGL/GUI/lvgl/src/draw/sw/../../misc/lv_area.h ****     LV_ALIGN_OUT_LEFT_BOTTOM,
  72:../../Middlewares/LVGL/GUI/lvgl/src/draw/sw/../../misc/lv_area.h ****     LV_ALIGN_OUT_RIGHT_TOP,
  73:../../Middlewares/LVGL/GUI/lvgl/src/draw/sw/../../misc/lv_area.h ****     LV_ALIGN_OUT_RIGHT_MID,
  74:../../Middlewares/LVGL/GUI/lvgl/src/draw/sw/../../misc/lv_area.h ****     LV_ALIGN_OUT_RIGHT_BOTTOM,
  75:../../Middlewares/LVGL/GUI/lvgl/src/draw/sw/../../misc/lv_area.h **** } lv_align_t;
  76:../../Middlewares/LVGL/GUI/lvgl/src/draw/sw/../../misc/lv_area.h **** 
  77:../../Middlewares/LVGL/GUI/lvgl/src/draw/sw/../../misc/lv_area.h **** typedef enum {
  78:../../Middlewares/LVGL/GUI/lvgl/src/draw/sw/../../misc/lv_area.h ****     LV_DIR_NONE     = 0x00,
  79:../../Middlewares/LVGL/GUI/lvgl/src/draw/sw/../../misc/lv_area.h ****     LV_DIR_LEFT     = (1 << 0),
  80:../../Middlewares/LVGL/GUI/lvgl/src/draw/sw/../../misc/lv_area.h ****     LV_DIR_RIGHT    = (1 << 1),
  81:../../Middlewares/LVGL/GUI/lvgl/src/draw/sw/../../misc/lv_area.h ****     LV_DIR_TOP      = (1 << 2),
  82:../../Middlewares/LVGL/GUI/lvgl/src/draw/sw/../../misc/lv_area.h ****     LV_DIR_BOTTOM   = (1 << 3),
  83:../../Middlewares/LVGL/GUI/lvgl/src/draw/sw/../../misc/lv_area.h ****     LV_DIR_HOR      = LV_DIR_LEFT | LV_DIR_RIGHT,
  84:../../Middlewares/LVGL/GUI/lvgl/src/draw/sw/../../misc/lv_area.h ****     LV_DIR_VER      = LV_DIR_TOP | LV_DIR_BOTTOM,
  85:../../Middlewares/LVGL/GUI/lvgl/src/draw/sw/../../misc/lv_area.h ****     LV_DIR_ALL      = LV_DIR_HOR | LV_DIR_VER,
  86:../../Middlewares/LVGL/GUI/lvgl/src/draw/sw/../../misc/lv_area.h **** } lv_dir_t;
  87:../../Middlewares/LVGL/GUI/lvgl/src/draw/sw/../../misc/lv_area.h **** 
  88:../../Middlewares/LVGL/GUI/lvgl/src/draw/sw/../../misc/lv_area.h **** /**********************
ARM GAS  C:\Users\28576\AppData\Local\Temp\ccmStJbf.s 			page 10


  89:../../Middlewares/LVGL/GUI/lvgl/src/draw/sw/../../misc/lv_area.h ****  * GLOBAL PROTOTYPES
  90:../../Middlewares/LVGL/GUI/lvgl/src/draw/sw/../../misc/lv_area.h ****  **********************/
  91:../../Middlewares/LVGL/GUI/lvgl/src/draw/sw/../../misc/lv_area.h **** 
  92:../../Middlewares/LVGL/GUI/lvgl/src/draw/sw/../../misc/lv_area.h **** /**
  93:../../Middlewares/LVGL/GUI/lvgl/src/draw/sw/../../misc/lv_area.h ****  * Initialize an area
  94:../../Middlewares/LVGL/GUI/lvgl/src/draw/sw/../../misc/lv_area.h ****  * @param area_p pointer to an area
  95:../../Middlewares/LVGL/GUI/lvgl/src/draw/sw/../../misc/lv_area.h ****  * @param x1 left coordinate of the area
  96:../../Middlewares/LVGL/GUI/lvgl/src/draw/sw/../../misc/lv_area.h ****  * @param y1 top coordinate of the area
  97:../../Middlewares/LVGL/GUI/lvgl/src/draw/sw/../../misc/lv_area.h ****  * @param x2 right coordinate of the area
  98:../../Middlewares/LVGL/GUI/lvgl/src/draw/sw/../../misc/lv_area.h ****  * @param y2 bottom coordinate of the area
  99:../../Middlewares/LVGL/GUI/lvgl/src/draw/sw/../../misc/lv_area.h ****  */
 100:../../Middlewares/LVGL/GUI/lvgl/src/draw/sw/../../misc/lv_area.h **** void lv_area_set(lv_area_t * area_p, int32_t x1, int32_t y1, int32_t x2, int32_t y2);
 101:../../Middlewares/LVGL/GUI/lvgl/src/draw/sw/../../misc/lv_area.h **** 
 102:../../Middlewares/LVGL/GUI/lvgl/src/draw/sw/../../misc/lv_area.h **** /**
 103:../../Middlewares/LVGL/GUI/lvgl/src/draw/sw/../../misc/lv_area.h ****  * Copy an area
 104:../../Middlewares/LVGL/GUI/lvgl/src/draw/sw/../../misc/lv_area.h ****  * @param dest pointer to the destination area
 105:../../Middlewares/LVGL/GUI/lvgl/src/draw/sw/../../misc/lv_area.h ****  * @param src pointer to the source area
 106:../../Middlewares/LVGL/GUI/lvgl/src/draw/sw/../../misc/lv_area.h ****  */
 107:../../Middlewares/LVGL/GUI/lvgl/src/draw/sw/../../misc/lv_area.h **** inline static void lv_area_copy(lv_area_t * dest, const lv_area_t * src)
  77              		.loc 2 107 20 view .LVU9
  78              	.LBB10:
 108:../../Middlewares/LVGL/GUI/lvgl/src/draw/sw/../../misc/lv_area.h **** {
 109:../../Middlewares/LVGL/GUI/lvgl/src/draw/sw/../../misc/lv_area.h ****     dest->x1 = src->x1;
  79              		.loc 2 109 5 view .LVU10
  80              		.loc 2 109 19 is_stmt 0 view .LVU11
  81 0018 1368     		ldr	r3, [r2]
  82              		.loc 2 109 14 view .LVU12
  83 001a 2A93     		str	r3, [sp, #168]
 110:../../Middlewares/LVGL/GUI/lvgl/src/draw/sw/../../misc/lv_area.h ****     dest->y1 = src->y1;
  84              		.loc 2 110 5 is_stmt 1 view .LVU13
  85              		.loc 2 110 19 is_stmt 0 view .LVU14
  86 001c 5368     		ldr	r3, [r2, #4]
  87              		.loc 2 110 14 view .LVU15
  88 001e 2B93     		str	r3, [sp, #172]
 111:../../Middlewares/LVGL/GUI/lvgl/src/draw/sw/../../misc/lv_area.h ****     dest->x2 = src->x2;
  89              		.loc 2 111 5 is_stmt 1 view .LVU16
  90              		.loc 2 111 19 is_stmt 0 view .LVU17
  91 0020 9368     		ldr	r3, [r2, #8]
  92              		.loc 2 111 14 view .LVU18
  93 0022 2C93     		str	r3, [sp, #176]
 112:../../Middlewares/LVGL/GUI/lvgl/src/draw/sw/../../misc/lv_area.h ****     dest->y2 = src->y2;
  94              		.loc 2 112 5 is_stmt 1 view .LVU19
  95              		.loc 2 112 19 is_stmt 0 view .LVU20
  96 0024 D368     		ldr	r3, [r2, #12]
  97              		.loc 2 112 14 view .LVU21
  98 0026 2D93     		str	r3, [sp, #180]
  99              	.LVL4:
 100              		.loc 2 112 14 view .LVU22
 101              	.LBE10:
 102              	.LBE9:
  55:../../Middlewares/LVGL/GUI/lvgl/src/draw/sw/lv_draw_sw_fill.c ****     if(!lv_area_intersect(&clipped_coords, &bg_coords, &t->clip_area)) return;
 103              		.loc 1 55 5 is_stmt 1 view .LVU23
  56:../../Middlewares/LVGL/GUI/lvgl/src/draw/sw/lv_draw_sw_fill.c **** 
 104              		.loc 1 56 5 view .LVU24
  56:../../Middlewares/LVGL/GUI/lvgl/src/draw/sw/lv_draw_sw_fill.c **** 
 105              		.loc 1 56 9 is_stmt 0 view .LVU25
 106 0028 00F13802 		add	r2, r0, #56
ARM GAS  C:\Users\28576\AppData\Local\Temp\ccmStJbf.s 			page 11


 107              	.LVL5:
  56:../../Middlewares/LVGL/GUI/lvgl/src/draw/sw/lv_draw_sw_fill.c **** 
 108              		.loc 1 56 9 view .LVU26
 109 002c 2AA9     		add	r1, sp, #168
 110              	.LVL6:
  56:../../Middlewares/LVGL/GUI/lvgl/src/draw/sw/lv_draw_sw_fill.c **** 
 111              		.loc 1 56 9 view .LVU27
 112 002e 26A8     		add	r0, sp, #152
 113              	.LVL7:
  56:../../Middlewares/LVGL/GUI/lvgl/src/draw/sw/lv_draw_sw_fill.c **** 
 114              		.loc 1 56 9 view .LVU28
 115 0030 FFF7FEFF 		bl	lv_area_intersect
 116              	.LVL8:
  56:../../Middlewares/LVGL/GUI/lvgl/src/draw/sw/lv_draw_sw_fill.c **** 
 117              		.loc 1 56 7 discriminator 1 view .LVU29
 118 0034 0890     		str	r0, [sp, #32]
 119 0036 0028     		cmp	r0, #0
 120 0038 EAD0     		beq	.L1
  58:../../Middlewares/LVGL/GUI/lvgl/src/draw/sw/lv_draw_sw_fill.c ****     lv_color_t bg_color    = grad_dir == LV_GRAD_DIR_NONE ? dsc->color : dsc->grad.stops[0].color;
 121              		.loc 1 58 5 is_stmt 1 view .LVU30
  58:../../Middlewares/LVGL/GUI/lvgl/src/draw/sw/lv_draw_sw_fill.c ****     lv_color_t bg_color    = grad_dir == LV_GRAD_DIR_NONE ? dsc->color : dsc->grad.stops[0].color;
 122              		.loc 1 58 39 is_stmt 0 view .LVU31
 123 003a 94F82F30 		ldrb	r3, [r4, #47]	@ zero_extendqisi2
 124              	.LVL9:
  59:../../Middlewares/LVGL/GUI/lvgl/src/draw/sw/lv_draw_sw_fill.c **** 
 125              		.loc 1 59 5 is_stmt 1 view .LVU32
  59:../../Middlewares/LVGL/GUI/lvgl/src/draw/sw/lv_draw_sw_fill.c **** 
 126              		.loc 1 59 72 is_stmt 0 view .LVU33
 127 003e 13F00F09 		ands	r9, r3, #15
 128 0042 72D1     		bne	.L3
  59:../../Middlewares/LVGL/GUI/lvgl/src/draw/sw/lv_draw_sw_fill.c **** 
 129              		.loc 1 59 16 discriminator 1 view .LVU34
 130 0044 B4F82120 		ldrh	r2, [r4, #33]	@ unaligned
 131 0048 94F82330 		ldrb	r3, [r4, #35]	@ zero_extendqisi2
 132              	.LVL10:
  59:../../Middlewares/LVGL/GUI/lvgl/src/draw/sw/lv_draw_sw_fill.c **** 
 133              		.loc 1 59 16 discriminator 1 view .LVU35
 134 004c ADF89420 		strh	r2, [sp, #148]	@ unaligned
 135 0050 8DF89630 		strb	r3, [sp, #150]
 136              	.L4:
  61:../../Middlewares/LVGL/GUI/lvgl/src/draw/sw/lv_draw_sw_fill.c ****     blend_dsc.color = bg_color;
 137              		.loc 1 61 5 is_stmt 1 view .LVU36
  61:../../Middlewares/LVGL/GUI/lvgl/src/draw/sw/lv_draw_sw_fill.c ****     blend_dsc.color = bg_color;
 138              		.loc 1 61 28 is_stmt 0 view .LVU37
 139 0054 2C22     		movs	r2, #44
 140 0056 0021     		movs	r1, #0
 141 0058 1AA8     		add	r0, sp, #104
 142 005a FFF7FEFF 		bl	memset
 143              	.LVL11:
  62:../../Middlewares/LVGL/GUI/lvgl/src/draw/sw/lv_draw_sw_fill.c **** 
 144              		.loc 1 62 5 is_stmt 1 view .LVU38
  62:../../Middlewares/LVGL/GUI/lvgl/src/draw/sw/lv_draw_sw_fill.c **** 
 145              		.loc 1 62 21 is_stmt 0 view .LVU39
 146 005e BDF89420 		ldrh	r2, [sp, #148]	@ unaligned
 147 0062 9DF89630 		ldrb	r3, [sp, #150]	@ zero_extendqisi2
 148 0066 ADF87D20 		strh	r2, [sp, #125]	@ unaligned
 149 006a 8DF87F30 		strb	r3, [sp, #127]
ARM GAS  C:\Users\28576\AppData\Local\Temp\ccmStJbf.s 			page 12


  65:../../Middlewares/LVGL/GUI/lvgl/src/draw/sw/lv_draw_sw_fill.c ****         blend_dsc.blend_area = &bg_coords;
 150              		.loc 1 65 5 is_stmt 1 view .LVU40
  65:../../Middlewares/LVGL/GUI/lvgl/src/draw/sw/lv_draw_sw_fill.c ****         blend_dsc.blend_area = &bg_coords;
 151              		.loc 1 65 11 is_stmt 0 view .LVU41
 152 006e E369     		ldr	r3, [r4, #28]
  65:../../Middlewares/LVGL/GUI/lvgl/src/draw/sw/lv_draw_sw_fill.c ****         blend_dsc.blend_area = &bg_coords;
 153              		.loc 1 65 7 view .LVU42
 154 0070 13B9     		cbnz	r3, .L5
  65:../../Middlewares/LVGL/GUI/lvgl/src/draw/sw/lv_draw_sw_fill.c ****         blend_dsc.blend_area = &bg_coords;
 155              		.loc 1 65 25 discriminator 1 view .LVU43
 156 0072 B9F1000F 		cmp	r9, #0
 157 0076 5FD0     		beq	.L65
 158              	.L5:
  76:../../Middlewares/LVGL/GUI/lvgl/src/draw/sw/lv_draw_sw_fill.c **** 
 159              		.loc 1 76 5 is_stmt 1 view .LVU44
  76:../../Middlewares/LVGL/GUI/lvgl/src/draw/sw/lv_draw_sw_fill.c **** 
 160              		.loc 1 76 23 is_stmt 0 view .LVU45
 161 0078 94F82030 		ldrb	r3, [r4, #32]	@ zero_extendqisi2
 162 007c 0693     		str	r3, [sp, #24]
  76:../../Middlewares/LVGL/GUI/lvgl/src/draw/sw/lv_draw_sw_fill.c **** 
 163              		.loc 1 76 14 view .LVU46
 164 007e FC2B     		cmp	r3, #252
 165 0080 01D9     		bls	.L6
  76:../../Middlewares/LVGL/GUI/lvgl/src/draw/sw/lv_draw_sw_fill.c **** 
 166              		.loc 1 76 14 discriminator 2 view .LVU47
 167 0082 FF23     		movs	r3, #255
 168 0084 0693     		str	r3, [sp, #24]
 169              	.L6:
 170              	.LVL12:
  79:../../Middlewares/LVGL/GUI/lvgl/src/draw/sw/lv_draw_sw_fill.c ****     int32_t coords_bg_h = lv_area_get_height(&bg_coords);
 171              		.loc 1 79 5 is_stmt 1 view .LVU48
  79:../../Middlewares/LVGL/GUI/lvgl/src/draw/sw/lv_draw_sw_fill.c ****     int32_t coords_bg_h = lv_area_get_height(&bg_coords);
 172              		.loc 1 79 27 is_stmt 0 view .LVU49
 173 0086 2AAE     		add	r6, sp, #168
 174 0088 3046     		mov	r0, r6
 175 008a FFF7FEFF 		bl	lv_area_get_width
 176              	.LVL13:
 177 008e 0546     		mov	r5, r0
 178              	.LVL14:
  80:../../Middlewares/LVGL/GUI/lvgl/src/draw/sw/lv_draw_sw_fill.c ****     int32_t short_side = LV_MIN(coords_bg_w, coords_bg_h);
 179              		.loc 1 80 5 is_stmt 1 view .LVU50
  80:../../Middlewares/LVGL/GUI/lvgl/src/draw/sw/lv_draw_sw_fill.c ****     int32_t short_side = LV_MIN(coords_bg_w, coords_bg_h);
 180              		.loc 1 80 27 is_stmt 0 view .LVU51
 181 0090 3046     		mov	r0, r6
 182              	.LVL15:
  80:../../Middlewares/LVGL/GUI/lvgl/src/draw/sw/lv_draw_sw_fill.c ****     int32_t short_side = LV_MIN(coords_bg_w, coords_bg_h);
 183              		.loc 1 80 27 view .LVU52
 184 0092 FFF7FEFF 		bl	lv_area_get_height
 185              	.LVL16:
 186 0096 0646     		mov	r6, r0
 187              	.LVL17:
  81:../../Middlewares/LVGL/GUI/lvgl/src/draw/sw/lv_draw_sw_fill.c ****     int32_t rout = LV_MIN(dsc->radius, short_side >> 1);
 188              		.loc 1 81 5 is_stmt 1 view .LVU53
  81:../../Middlewares/LVGL/GUI/lvgl/src/draw/sw/lv_draw_sw_fill.c ****     int32_t rout = LV_MIN(dsc->radius, short_side >> 1);
 189              		.loc 1 81 13 is_stmt 0 view .LVU54
 190 0098 2B46     		mov	r3, r5
 191 009a 8542     		cmp	r5, r0
ARM GAS  C:\Users\28576\AppData\Local\Temp\ccmStJbf.s 			page 13


 192 009c A8BF     		it	ge
 193 009e 0346     		movge	r3, r0
 194              	.LVL18:
  82:../../Middlewares/LVGL/GUI/lvgl/src/draw/sw/lv_draw_sw_fill.c **** 
 195              		.loc 1 82 5 is_stmt 1 view .LVU55
  82:../../Middlewares/LVGL/GUI/lvgl/src/draw/sw/lv_draw_sw_fill.c **** 
 196              		.loc 1 82 20 is_stmt 0 view .LVU56
 197 00a0 5B10     		asrs	r3, r3, #1
 198              	.LVL19:
  82:../../Middlewares/LVGL/GUI/lvgl/src/draw/sw/lv_draw_sw_fill.c **** 
 199              		.loc 1 82 20 view .LVU57
 200 00a2 E269     		ldr	r2, [r4, #28]
  82:../../Middlewares/LVGL/GUI/lvgl/src/draw/sw/lv_draw_sw_fill.c **** 
 201              		.loc 1 82 13 view .LVU58
 202 00a4 9342     		cmp	r3, r2
 203              	.LVL20:
  82:../../Middlewares/LVGL/GUI/lvgl/src/draw/sw/lv_draw_sw_fill.c **** 
 204              		.loc 1 82 13 view .LVU59
 205 00a6 A8BF     		it	ge
 206 00a8 1346     		movge	r3, r2
 207 00aa 0493     		str	r3, [sp, #16]
 208              	.LVL21:
  85:../../Middlewares/LVGL/GUI/lvgl/src/draw/sw/lv_draw_sw_fill.c ****     lv_opa_t * mask_buf = NULL;
 209              		.loc 1 85 5 is_stmt 1 view .LVU60
  85:../../Middlewares/LVGL/GUI/lvgl/src/draw/sw/lv_draw_sw_fill.c ****     lv_opa_t * mask_buf = NULL;
 210              		.loc 1 85 25 is_stmt 0 view .LVU61
 211 00ac 26A8     		add	r0, sp, #152
 212              	.LVL22:
  85:../../Middlewares/LVGL/GUI/lvgl/src/draw/sw/lv_draw_sw_fill.c ****     lv_opa_t * mask_buf = NULL;
 213              		.loc 1 85 25 view .LVU62
 214 00ae FFF7FEFF 		bl	lv_area_get_width
 215              	.LVL23:
  85:../../Middlewares/LVGL/GUI/lvgl/src/draw/sw/lv_draw_sw_fill.c ****     lv_opa_t * mask_buf = NULL;
 216              		.loc 1 85 25 view .LVU63
 217 00b2 0746     		mov	r7, r0
 218              	.LVL24:
  86:../../Middlewares/LVGL/GUI/lvgl/src/draw/sw/lv_draw_sw_fill.c ****     lv_draw_sw_mask_radius_param_t mask_rout_param;
 219              		.loc 1 86 5 is_stmt 1 view .LVU64
  87:../../Middlewares/LVGL/GUI/lvgl/src/draw/sw/lv_draw_sw_fill.c ****     void * mask_list[2] = {NULL, NULL};
 220              		.loc 1 87 5 view .LVU65
  88:../../Middlewares/LVGL/GUI/lvgl/src/draw/sw/lv_draw_sw_fill.c ****     if(rout > 0) {
 221              		.loc 1 88 5 view .LVU66
  88:../../Middlewares/LVGL/GUI/lvgl/src/draw/sw/lv_draw_sw_fill.c ****     if(rout > 0) {
 222              		.loc 1 88 12 is_stmt 0 view .LVU67
 223 00b4 0023     		movs	r3, #0
 224 00b6 0F93     		str	r3, [sp, #60]
 225 00b8 1093     		str	r3, [sp, #64]
  89:../../Middlewares/LVGL/GUI/lvgl/src/draw/sw/lv_draw_sw_fill.c ****         mask_buf = lv_malloc(clipped_w);
 226              		.loc 1 89 5 is_stmt 1 view .LVU68
  89:../../Middlewares/LVGL/GUI/lvgl/src/draw/sw/lv_draw_sw_fill.c ****         mask_buf = lv_malloc(clipped_w);
 227              		.loc 1 89 7 is_stmt 0 view .LVU69
 228 00ba 049B     		ldr	r3, [sp, #16]
 229 00bc 002B     		cmp	r3, #0
 230 00be 46DC     		bgt	.L66
  86:../../Middlewares/LVGL/GUI/lvgl/src/draw/sw/lv_draw_sw_fill.c ****     lv_draw_sw_mask_radius_param_t mask_rout_param;
 231              		.loc 1 86 16 view .LVU70
 232 00c0 4FF00008 		mov	r8, #0
ARM GAS  C:\Users\28576\AppData\Local\Temp\ccmStJbf.s 			page 14


 233              	.LVL25:
 234              	.L7:
  95:../../Middlewares/LVGL/GUI/lvgl/src/draw/sw/lv_draw_sw_fill.c **** 
 235              		.loc 1 95 5 is_stmt 1 view .LVU71
  97:../../Middlewares/LVGL/GUI/lvgl/src/draw/sw/lv_draw_sw_fill.c ****     blend_area.x1 = clipped_coords.x1;
 236              		.loc 1 97 5 view .LVU72
  98:../../Middlewares/LVGL/GUI/lvgl/src/draw/sw/lv_draw_sw_fill.c ****     blend_area.x2 = clipped_coords.x2;
 237              		.loc 1 98 5 view .LVU73
  98:../../Middlewares/LVGL/GUI/lvgl/src/draw/sw/lv_draw_sw_fill.c ****     blend_area.x2 = clipped_coords.x2;
 238              		.loc 1 98 35 is_stmt 0 view .LVU74
 239 00c4 269B     		ldr	r3, [sp, #152]
  98:../../Middlewares/LVGL/GUI/lvgl/src/draw/sw/lv_draw_sw_fill.c ****     blend_area.x2 = clipped_coords.x2;
 240              		.loc 1 98 19 view .LVU75
 241 00c6 0B93     		str	r3, [sp, #44]
  99:../../Middlewares/LVGL/GUI/lvgl/src/draw/sw/lv_draw_sw_fill.c **** 
 242              		.loc 1 99 5 is_stmt 1 view .LVU76
  99:../../Middlewares/LVGL/GUI/lvgl/src/draw/sw/lv_draw_sw_fill.c **** 
 243              		.loc 1 99 35 is_stmt 0 view .LVU77
 244 00c8 289B     		ldr	r3, [sp, #160]
  99:../../Middlewares/LVGL/GUI/lvgl/src/draw/sw/lv_draw_sw_fill.c **** 
 245              		.loc 1 99 19 view .LVU78
 246 00ca 0D93     		str	r3, [sp, #52]
 101:../../Middlewares/LVGL/GUI/lvgl/src/draw/sw/lv_draw_sw_fill.c ****     blend_dsc.blend_area = &blend_area;
 247              		.loc 1 101 5 is_stmt 1 view .LVU79
 101:../../Middlewares/LVGL/GUI/lvgl/src/draw/sw/lv_draw_sw_fill.c ****     blend_dsc.blend_area = &blend_area;
 248              		.loc 1 101 24 is_stmt 0 view .LVU80
 249 00cc CDF88080 		str	r8, [sp, #128]
 102:../../Middlewares/LVGL/GUI/lvgl/src/draw/sw/lv_draw_sw_fill.c ****     blend_dsc.mask_area = &blend_area;
 250              		.loc 1 102 5 is_stmt 1 view .LVU81
 102:../../Middlewares/LVGL/GUI/lvgl/src/draw/sw/lv_draw_sw_fill.c ****     blend_dsc.mask_area = &blend_area;
 251              		.loc 1 102 26 is_stmt 0 view .LVU82
 252 00d0 0BAB     		add	r3, sp, #44
 253 00d2 1A93     		str	r3, [sp, #104]
 103:../../Middlewares/LVGL/GUI/lvgl/src/draw/sw/lv_draw_sw_fill.c ****     blend_dsc.opa = LV_OPA_COVER;
 254              		.loc 1 103 5 is_stmt 1 view .LVU83
 103:../../Middlewares/LVGL/GUI/lvgl/src/draw/sw/lv_draw_sw_fill.c ****     blend_dsc.opa = LV_OPA_COVER;
 255              		.loc 1 103 25 is_stmt 0 view .LVU84
 256 00d4 2293     		str	r3, [sp, #136]
 104:../../Middlewares/LVGL/GUI/lvgl/src/draw/sw/lv_draw_sw_fill.c **** 
 257              		.loc 1 104 5 is_stmt 1 view .LVU85
 104:../../Middlewares/LVGL/GUI/lvgl/src/draw/sw/lv_draw_sw_fill.c **** 
 258              		.loc 1 104 19 is_stmt 0 view .LVU86
 259 00d6 FF23     		movs	r3, #255
 260 00d8 8DF87C30 		strb	r3, [sp, #124]
 107:../../Middlewares/LVGL/GUI/lvgl/src/draw/sw/lv_draw_sw_fill.c ****     lv_opa_t * grad_opa_map = NULL;
 261              		.loc 1 107 5 is_stmt 1 view .LVU87
 107:../../Middlewares/LVGL/GUI/lvgl/src/draw/sw/lv_draw_sw_fill.c ****     lv_opa_t * grad_opa_map = NULL;
 262              		.loc 1 107 37 is_stmt 0 view .LVU88
 263 00dc 3246     		mov	r2, r6
 264 00de 2946     		mov	r1, r5
 265 00e0 04F12400 		add	r0, r4, #36
 266 00e4 FFF7FEFF 		bl	lv_draw_sw_grad_get
 267              	.LVL26:
 108:../../Middlewares/LVGL/GUI/lvgl/src/draw/sw/lv_draw_sw_fill.c ****     bool transp = false;
 268              		.loc 1 108 5 is_stmt 1 view .LVU89
 109:../../Middlewares/LVGL/GUI/lvgl/src/draw/sw/lv_draw_sw_fill.c ****     if(grad && grad_dir >= LV_GRAD_DIR_HOR) {
 269              		.loc 1 109 5 view .LVU90
ARM GAS  C:\Users\28576\AppData\Local\Temp\ccmStJbf.s 			page 15


 110:../../Middlewares/LVGL/GUI/lvgl/src/draw/sw/lv_draw_sw_fill.c ****         blend_dsc.src_area = &blend_area;
 270              		.loc 1 110 5 view .LVU91
 110:../../Middlewares/LVGL/GUI/lvgl/src/draw/sw/lv_draw_sw_fill.c ****         blend_dsc.src_area = &blend_area;
 271              		.loc 1 110 8 is_stmt 0 view .LVU92
 272 00e8 8346     		mov	fp, r0
 110:../../Middlewares/LVGL/GUI/lvgl/src/draw/sw/lv_draw_sw_fill.c ****         blend_dsc.src_area = &blend_area;
 273              		.loc 1 110 7 view .LVU93
 274 00ea 0028     		cmp	r0, #0
 275 00ec 18BF     		it	ne
 276 00ee B9F1010F 		cmpne	r9, #1
 277 00f2 8CBF     		ite	hi
 278 00f4 0125     		movhi	r5, #1
 279              	.LVL27:
 110:../../Middlewares/LVGL/GUI/lvgl/src/draw/sw/lv_draw_sw_fill.c ****         blend_dsc.src_area = &blend_area;
 280              		.loc 1 110 7 view .LVU94
 281 00f6 0025     		movls	r5, #0
 282 00f8 4BD9     		bls	.L55
 283              	.LBB11:
 111:../../Middlewares/LVGL/GUI/lvgl/src/draw/sw/lv_draw_sw_fill.c ****         blend_dsc.src_buf = grad->color_map + clipped_coords.x1 - bg_coords.x1;
 284              		.loc 1 111 9 is_stmt 1 view .LVU95
 111:../../Middlewares/LVGL/GUI/lvgl/src/draw/sw/lv_draw_sw_fill.c ****         blend_dsc.src_buf = grad->color_map + clipped_coords.x1 - bg_coords.x1;
 285              		.loc 1 111 28 is_stmt 0 view .LVU96
 286 00fa 0BAB     		add	r3, sp, #44
 287 00fc 1E93     		str	r3, [sp, #120]
 112:../../Middlewares/LVGL/GUI/lvgl/src/draw/sw/lv_draw_sw_fill.c ****         uint32_t s;
 288              		.loc 1 112 9 is_stmt 1 view .LVU97
 112:../../Middlewares/LVGL/GUI/lvgl/src/draw/sw/lv_draw_sw_fill.c ****         uint32_t s;
 289              		.loc 1 112 33 is_stmt 0 view .LVU98
 290 00fe 0368     		ldr	r3, [r0]
 112:../../Middlewares/LVGL/GUI/lvgl/src/draw/sw/lv_draw_sw_fill.c ****         uint32_t s;
 291              		.loc 1 112 65 view .LVU99
 292 0100 2699     		ldr	r1, [sp, #152]
 293 0102 2A9A     		ldr	r2, [sp, #168]
 294 0104 891A     		subs	r1, r1, r2
 295 0106 01EB4102 		add	r2, r1, r1, lsl #1
 296 010a 1344     		add	r3, r3, r2
 112:../../Middlewares/LVGL/GUI/lvgl/src/draw/sw/lv_draw_sw_fill.c ****         uint32_t s;
 297              		.loc 1 112 27 view .LVU100
 298 010c 1B93     		str	r3, [sp, #108]
 113:../../Middlewares/LVGL/GUI/lvgl/src/draw/sw/lv_draw_sw_fill.c ****         for(s = 0; s < dsc->grad.stops_count; s++) {
 299              		.loc 1 113 9 is_stmt 1 view .LVU101
 114:../../Middlewares/LVGL/GUI/lvgl/src/draw/sw/lv_draw_sw_fill.c ****             if(dsc->grad.stops[s].opa != LV_OPA_COVER) {
 300              		.loc 1 114 9 view .LVU102
 301              	.LVL28:
 114:../../Middlewares/LVGL/GUI/lvgl/src/draw/sw/lv_draw_sw_fill.c ****             if(dsc->grad.stops[s].opa != LV_OPA_COVER) {
 302              		.loc 1 114 15 is_stmt 0 view .LVU103
 303 010e 0023     		movs	r3, #0
 304              	.LVL29:
 305              	.L9:
 114:../../Middlewares/LVGL/GUI/lvgl/src/draw/sw/lv_draw_sw_fill.c ****             if(dsc->grad.stops[s].opa != LV_OPA_COVER) {
 306              		.loc 1 114 22 is_stmt 1 discriminator 1 view .LVU104
 114:../../Middlewares/LVGL/GUI/lvgl/src/draw/sw/lv_draw_sw_fill.c ****             if(dsc->grad.stops[s].opa != LV_OPA_COVER) {
 307              		.loc 1 114 33 is_stmt 0 discriminator 1 view .LVU105
 308 0110 94F82E20 		ldrb	r2, [r4, #46]	@ zero_extendqisi2
 114:../../Middlewares/LVGL/GUI/lvgl/src/draw/sw/lv_draw_sw_fill.c ****             if(dsc->grad.stops[s].opa != LV_OPA_COVER) {
 309              		.loc 1 114 22 discriminator 1 view .LVU106
 310 0114 9A42     		cmp	r2, r3
ARM GAS  C:\Users\28576\AppData\Local\Temp\ccmStJbf.s 			page 16


 311 0116 28D9     		bls	.L67
 115:../../Middlewares/LVGL/GUI/lvgl/src/draw/sw/lv_draw_sw_fill.c ****                 transp = true;
 312              		.loc 1 115 13 is_stmt 1 view .LVU107
 115:../../Middlewares/LVGL/GUI/lvgl/src/draw/sw/lv_draw_sw_fill.c ****                 transp = true;
 313              		.loc 1 115 34 is_stmt 0 view .LVU108
 314 0118 03EB8302 		add	r2, r3, r3, lsl #2
 315 011c 2244     		add	r2, r2, r4
 316 011e 92F82720 		ldrb	r2, [r2, #39]	@ zero_extendqisi2
 115:../../Middlewares/LVGL/GUI/lvgl/src/draw/sw/lv_draw_sw_fill.c ****                 transp = true;
 317              		.loc 1 115 15 view .LVU109
 318 0122 FF2A     		cmp	r2, #255
 319 0124 22D1     		bne	.L10
 114:../../Middlewares/LVGL/GUI/lvgl/src/draw/sw/lv_draw_sw_fill.c ****             if(dsc->grad.stops[s].opa != LV_OPA_COVER) {
 320              		.loc 1 114 48 is_stmt 1 discriminator 2 view .LVU110
 321 0126 0133     		adds	r3, r3, #1
 322              	.LVL30:
 114:../../Middlewares/LVGL/GUI/lvgl/src/draw/sw/lv_draw_sw_fill.c ****             if(dsc->grad.stops[s].opa != LV_OPA_COVER) {
 323              		.loc 1 114 48 is_stmt 0 discriminator 2 view .LVU111
 324 0128 F2E7     		b	.L9
 325              	.LVL31:
 326              	.L3:
 114:../../Middlewares/LVGL/GUI/lvgl/src/draw/sw/lv_draw_sw_fill.c ****             if(dsc->grad.stops[s].opa != LV_OPA_COVER) {
 327              		.loc 1 114 48 discriminator 2 view .LVU112
 328              	.LBE11:
  59:../../Middlewares/LVGL/GUI/lvgl/src/draw/sw/lv_draw_sw_fill.c **** 
 329              		.loc 1 59 16 discriminator 2 view .LVU113
 330 012a 636A     		ldr	r3, [r4, #36]
 331              	.LVL32:
  59:../../Middlewares/LVGL/GUI/lvgl/src/draw/sw/lv_draw_sw_fill.c **** 
 332              		.loc 1 59 16 discriminator 2 view .LVU114
 333 012c ADF89430 		strh	r3, [sp, #148]	@ movhi
 334 0130 1B0C     		lsrs	r3, r3, #16
 335 0132 8DF89630 		strb	r3, [sp, #150]
 336 0136 8DE7     		b	.L4
 337              	.LVL33:
 338              	.L65:
  66:../../Middlewares/LVGL/GUI/lvgl/src/draw/sw/lv_draw_sw_fill.c ****         blend_dsc.opa = dsc->opa;
 339              		.loc 1 66 9 is_stmt 1 view .LVU115
  66:../../Middlewares/LVGL/GUI/lvgl/src/draw/sw/lv_draw_sw_fill.c ****         blend_dsc.opa = dsc->opa;
 340              		.loc 1 66 30 is_stmt 0 view .LVU116
 341 0138 2AAB     		add	r3, sp, #168
 342 013a 1A93     		str	r3, [sp, #104]
  67:../../Middlewares/LVGL/GUI/lvgl/src/draw/sw/lv_draw_sw_fill.c ****         lv_draw_sw_blend(t, &blend_dsc);
 343              		.loc 1 67 9 is_stmt 1 view .LVU117
  67:../../Middlewares/LVGL/GUI/lvgl/src/draw/sw/lv_draw_sw_fill.c ****         lv_draw_sw_blend(t, &blend_dsc);
 344              		.loc 1 67 28 is_stmt 0 view .LVU118
 345 013c 94F82030 		ldrb	r3, [r4, #32]	@ zero_extendqisi2
  67:../../Middlewares/LVGL/GUI/lvgl/src/draw/sw/lv_draw_sw_fill.c ****         lv_draw_sw_blend(t, &blend_dsc);
 346              		.loc 1 67 23 view .LVU119
 347 0140 8DF87C30 		strb	r3, [sp, #124]
  68:../../Middlewares/LVGL/GUI/lvgl/src/draw/sw/lv_draw_sw_fill.c ****         return;
 348              		.loc 1 68 9 is_stmt 1 view .LVU120
 349 0144 1AA9     		add	r1, sp, #104
 350 0146 0598     		ldr	r0, [sp, #20]
 351 0148 FFF7FEFF 		bl	lv_draw_sw_blend
 352              	.LVL34:
  69:../../Middlewares/LVGL/GUI/lvgl/src/draw/sw/lv_draw_sw_fill.c ****     }
ARM GAS  C:\Users\28576\AppData\Local\Temp\ccmStJbf.s 			page 17


 353              		.loc 1 69 9 view .LVU121
 354 014c 60E7     		b	.L1
 355              	.LVL35:
 356              	.L66:
  90:../../Middlewares/LVGL/GUI/lvgl/src/draw/sw/lv_draw_sw_fill.c ****         lv_draw_sw_mask_radius_init(&mask_rout_param, &bg_coords, rout, false);
 357              		.loc 1 90 9 view .LVU122
  90:../../Middlewares/LVGL/GUI/lvgl/src/draw/sw/lv_draw_sw_fill.c ****         lv_draw_sw_mask_radius_init(&mask_rout_param, &bg_coords, rout, false);
 358              		.loc 1 90 20 is_stmt 0 view .LVU123
 359 014e FFF7FEFF 		bl	lv_malloc
 360              	.LVL36:
  90:../../Middlewares/LVGL/GUI/lvgl/src/draw/sw/lv_draw_sw_fill.c ****         lv_draw_sw_mask_radius_init(&mask_rout_param, &bg_coords, rout, false);
 361              		.loc 1 90 20 view .LVU124
 362 0152 8046     		mov	r8, r0
 363              	.LVL37:
  91:../../Middlewares/LVGL/GUI/lvgl/src/draw/sw/lv_draw_sw_fill.c ****         mask_list[0] = &mask_rout_param;
 364              		.loc 1 91 9 is_stmt 1 view .LVU125
 365 0154 0DF1440A 		add	r10, sp, #68
 366 0158 0023     		movs	r3, #0
 367 015a 049A     		ldr	r2, [sp, #16]
 368 015c 2AA9     		add	r1, sp, #168
 369 015e 5046     		mov	r0, r10
 370              	.LVL38:
  91:../../Middlewares/LVGL/GUI/lvgl/src/draw/sw/lv_draw_sw_fill.c ****         mask_list[0] = &mask_rout_param;
 371              		.loc 1 91 9 is_stmt 0 view .LVU126
 372 0160 FFF7FEFF 		bl	lv_draw_sw_mask_radius_init
 373              	.LVL39:
  92:../../Middlewares/LVGL/GUI/lvgl/src/draw/sw/lv_draw_sw_fill.c ****     }
 374              		.loc 1 92 9 is_stmt 1 view .LVU127
  92:../../Middlewares/LVGL/GUI/lvgl/src/draw/sw/lv_draw_sw_fill.c ****     }
 375              		.loc 1 92 22 is_stmt 0 view .LVU128
 376 0164 CDF83CA0 		str	r10, [sp, #60]
 377 0168 ACE7     		b	.L7
 378              	.LVL40:
 379              	.L67:
 109:../../Middlewares/LVGL/GUI/lvgl/src/draw/sw/lv_draw_sw_fill.c ****     if(grad && grad_dir >= LV_GRAD_DIR_HOR) {
 380              		.loc 1 109 10 view .LVU129
 381 016a 0025     		movs	r5, #0
 382              	.L10:
 383              	.LVL41:
 384              	.LBB12:
 120:../../Middlewares/LVGL/GUI/lvgl/src/draw/sw/lv_draw_sw_fill.c ****             if(transp) grad_opa_map = grad->opa_map + clipped_coords.x1 - bg_coords.x1;
 385              		.loc 1 120 9 is_stmt 1 view .LVU130
 120:../../Middlewares/LVGL/GUI/lvgl/src/draw/sw/lv_draw_sw_fill.c ****             if(transp) grad_opa_map = grad->opa_map + clipped_coords.x1 - bg_coords.x1;
 386              		.loc 1 120 11 is_stmt 0 view .LVU131
 387 016c B9F1020F 		cmp	r9, #2
 388 0170 07D0     		beq	.L68
 389              	.LBE12:
 108:../../Middlewares/LVGL/GUI/lvgl/src/draw/sw/lv_draw_sw_fill.c ****     bool transp = false;
 390              		.loc 1 108 16 view .LVU132
 391 0172 4FF0000A 		mov	r10, #0
 392              	.LVL42:
 393              	.L12:
 394              	.LBB13:
 123:../../Middlewares/LVGL/GUI/lvgl/src/draw/sw/lv_draw_sw_fill.c ****     }
 395              		.loc 1 123 9 is_stmt 1 view .LVU133
 123:../../Middlewares/LVGL/GUI/lvgl/src/draw/sw/lv_draw_sw_fill.c ****     }
 396              		.loc 1 123 36 is_stmt 0 view .LVU134
ARM GAS  C:\Users\28576\AppData\Local\Temp\ccmStJbf.s 			page 18


 397 0176 0F23     		movs	r3, #15
 398 0178 8DF87430 		strb	r3, [sp, #116]
 399              	.LVL43:
 400              	.L8:
 123:../../Middlewares/LVGL/GUI/lvgl/src/draw/sw/lv_draw_sw_fill.c ****     }
 401              		.loc 1 123 36 view .LVU135
 402              	.LBE13:
 153:../../Middlewares/LVGL/GUI/lvgl/src/draw/sw/lv_draw_sw_fill.c ****         int32_t top_y = bg_coords.y1 + h;
 403              		.loc 1 153 5 is_stmt 1 view .LVU136
 153:../../Middlewares/LVGL/GUI/lvgl/src/draw/sw/lv_draw_sw_fill.c ****         int32_t top_y = bg_coords.y1 + h;
 404              		.loc 1 153 11 is_stmt 0 view .LVU137
 405 017c 0026     		movs	r6, #0
 406              	.LVL44:
 153:../../Middlewares/LVGL/GUI/lvgl/src/draw/sw/lv_draw_sw_fill.c ****         int32_t top_y = bg_coords.y1 + h;
 407              		.loc 1 153 11 view .LVU138
 408 017e 0995     		str	r5, [sp, #36]
 153:../../Middlewares/LVGL/GUI/lvgl/src/draw/sw/lv_draw_sw_fill.c ****         int32_t top_y = bg_coords.y1 + h;
 409              		.loc 1 153 5 view .LVU139
 410 0180 6AE0     		b	.L13
 411              	.LVL45:
 412              	.L68:
 413              	.LBB14:
 121:../../Middlewares/LVGL/GUI/lvgl/src/draw/sw/lv_draw_sw_fill.c ****         }
 414              		.loc 1 121 13 is_stmt 1 view .LVU140
 121:../../Middlewares/LVGL/GUI/lvgl/src/draw/sw/lv_draw_sw_fill.c ****         }
 415              		.loc 1 121 15 is_stmt 0 view .LVU141
 416 0182 25B1     		cbz	r5, .L57
 121:../../Middlewares/LVGL/GUI/lvgl/src/draw/sw/lv_draw_sw_fill.c ****         }
 417              		.loc 1 121 24 is_stmt 1 discriminator 1 view .LVU142
 121:../../Middlewares/LVGL/GUI/lvgl/src/draw/sw/lv_draw_sw_fill.c ****         }
 418              		.loc 1 121 43 is_stmt 0 discriminator 1 view .LVU143
 419 0184 DBF80430 		ldr	r3, [fp, #4]
 420              	.LVL46:
 121:../../Middlewares/LVGL/GUI/lvgl/src/draw/sw/lv_draw_sw_fill.c ****         }
 421              		.loc 1 121 37 discriminator 1 view .LVU144
 422 0188 03EB010A 		add	r10, r3, r1
 423              	.LVL47:
 121:../../Middlewares/LVGL/GUI/lvgl/src/draw/sw/lv_draw_sw_fill.c ****         }
 424              		.loc 1 121 37 discriminator 1 view .LVU145
 425 018c F3E7     		b	.L12
 426              	.LVL48:
 427              	.L57:
 121:../../Middlewares/LVGL/GUI/lvgl/src/draw/sw/lv_draw_sw_fill.c ****         }
 428              		.loc 1 121 37 discriminator 1 view .LVU146
 429              	.LBE14:
 108:../../Middlewares/LVGL/GUI/lvgl/src/draw/sw/lv_draw_sw_fill.c ****     bool transp = false;
 430              		.loc 1 108 16 view .LVU147
 431 018e AA46     		mov	r10, r5
 432 0190 F1E7     		b	.L12
 433              	.LVL49:
 434              	.L55:
 108:../../Middlewares/LVGL/GUI/lvgl/src/draw/sw/lv_draw_sw_fill.c ****     bool transp = false;
 435              		.loc 1 108 16 view .LVU148
 436 0192 4FF0000A 		mov	r10, #0
 437 0196 F1E7     		b	.L8
 438              	.LVL50:
 439              	.L72:
ARM GAS  C:\Users\28576\AppData\Local\Temp\ccmStJbf.s 			page 19


 440              	.LBB15:
 164:../../Middlewares/LVGL/GUI/lvgl/src/draw/sw/lv_draw_sw_fill.c **** 
 441              		.loc 1 164 66 is_stmt 1 discriminator 1 view .LVU149
 164:../../Middlewares/LVGL/GUI/lvgl/src/draw/sw/lv_draw_sw_fill.c **** 
 442              		.loc 1 164 85 is_stmt 0 discriminator 1 view .LVU150
 443 0198 0223     		movs	r3, #2
 444 019a 8DF88430 		strb	r3, [sp, #132]
 445 019e 78E0     		b	.L16
 446              	.LVL51:
 447              	.L18:
 173:../../Middlewares/LVGL/GUI/lvgl/src/draw/sw/lv_draw_sw_fill.c ****                     blend_dsc.color = grad->color_map[top_y - bg_coords.y1];
 448              		.loc 1 173 21 is_stmt 1 view .LVU151
 173:../../Middlewares/LVGL/GUI/lvgl/src/draw/sw/lv_draw_sw_fill.c ****                     blend_dsc.color = grad->color_map[top_y - bg_coords.y1];
 449              		.loc 1 173 21 view .LVU152
 450 01a0 BBF1000F 		cmp	fp, #0
 451 01a4 15D0     		beq	.L22
 173:../../Middlewares/LVGL/GUI/lvgl/src/draw/sw/lv_draw_sw_fill.c ****                     blend_dsc.color = grad->color_map[top_y - bg_coords.y1];
 452              		.loc 1 173 21 view .LVU153
 173:../../Middlewares/LVGL/GUI/lvgl/src/draw/sw/lv_draw_sw_fill.c ****                     blend_dsc.color = grad->color_map[top_y - bg_coords.y1];
 453              		.loc 1 173 41 view .LVU154
 174:../../Middlewares/LVGL/GUI/lvgl/src/draw/sw/lv_draw_sw_fill.c ****                     blend_dsc.opa = grad->opa_map[top_y - bg_coords.y1];
 454              		.loc 1 174 21 view .LVU155
 174:../../Middlewares/LVGL/GUI/lvgl/src/draw/sw/lv_draw_sw_fill.c ****                     blend_dsc.opa = grad->opa_map[top_y - bg_coords.y1];
 455              		.loc 1 174 43 is_stmt 0 view .LVU156
 456 01a6 DBF80010 		ldr	r1, [fp]
 174:../../Middlewares/LVGL/GUI/lvgl/src/draw/sw/lv_draw_sw_fill.c ****                     blend_dsc.opa = grad->opa_map[top_y - bg_coords.y1];
 457              		.loc 1 174 72 view .LVU157
 458 01aa 2B9B     		ldr	r3, [sp, #172]
 174:../../Middlewares/LVGL/GUI/lvgl/src/draw/sw/lv_draw_sw_fill.c ****                     blend_dsc.opa = grad->opa_map[top_y - bg_coords.y1];
 459              		.loc 1 174 61 view .LVU158
 460 01ac E31A     		subs	r3, r4, r3
 174:../../Middlewares/LVGL/GUI/lvgl/src/draw/sw/lv_draw_sw_fill.c ****                     blend_dsc.opa = grad->opa_map[top_y - bg_coords.y1];
 461              		.loc 1 174 54 view .LVU159
 462 01ae 03EB4302 		add	r2, r3, r3, lsl #1
 463 01b2 8818     		adds	r0, r1, r2
 174:../../Middlewares/LVGL/GUI/lvgl/src/draw/sw/lv_draw_sw_fill.c ****                     blend_dsc.opa = grad->opa_map[top_y - bg_coords.y1];
 464              		.loc 1 174 37 view .LVU160
 465 01b4 895A     		ldrh	r1, [r1, r2]	@ unaligned
 466 01b6 8278     		ldrb	r2, [r0, #2]	@ zero_extendqisi2
 467 01b8 ADF87D10 		strh	r1, [sp, #125]	@ unaligned
 468 01bc 8DF87F20 		strb	r2, [sp, #127]
 175:../../Middlewares/LVGL/GUI/lvgl/src/draw/sw/lv_draw_sw_fill.c ****                     break;
 469              		.loc 1 175 21 is_stmt 1 view .LVU161
 175:../../Middlewares/LVGL/GUI/lvgl/src/draw/sw/lv_draw_sw_fill.c ****                     break;
 470              		.loc 1 175 41 is_stmt 0 view .LVU162
 471 01c0 DBF80420 		ldr	r2, [fp, #4]
 175:../../Middlewares/LVGL/GUI/lvgl/src/draw/sw/lv_draw_sw_fill.c ****                     break;
 472              		.loc 1 175 50 view .LVU163
 473 01c4 D35C     		ldrb	r3, [r2, r3]	@ zero_extendqisi2
 175:../../Middlewares/LVGL/GUI/lvgl/src/draw/sw/lv_draw_sw_fill.c ****                     break;
 474              		.loc 1 175 35 view .LVU164
 475 01c6 8DF87C30 		strb	r3, [sp, #124]
 176:../../Middlewares/LVGL/GUI/lvgl/src/draw/sw/lv_draw_sw_fill.c ****                 case LV_GRAD_DIR_HOR:
 476              		.loc 1 176 21 is_stmt 1 view .LVU165
 199:../../Middlewares/LVGL/GUI/lvgl/src/draw/sw/lv_draw_sw_fill.c ****                 int32_t i;
 477              		.loc 1 199 13 view .LVU166
 166:../../Middlewares/LVGL/GUI/lvgl/src/draw/sw/lv_draw_sw_fill.c ****         if(top_y >= clipped_coords.y1) {
ARM GAS  C:\Users\28576\AppData\Local\Temp\ccmStJbf.s 			page 20


 478              		.loc 1 166 14 is_stmt 0 view .LVU167
 479 01ca 0023     		movs	r3, #0
 480 01cc 0793     		str	r3, [sp, #28]
 158:../../Middlewares/LVGL/GUI/lvgl/src/draw/sw/lv_draw_sw_fill.c **** 
 481              		.loc 1 158 14 view .LVU168
 482 01ce 0393     		str	r3, [sp, #12]
 483 01d0 6EE0     		b	.L20
 484              	.L22:
 173:../../Middlewares/LVGL/GUI/lvgl/src/draw/sw/lv_draw_sw_fill.c ****                     blend_dsc.color = grad->color_map[top_y - bg_coords.y1];
 485              		.loc 1 173 21 is_stmt 1 view .LVU169
 173:../../Middlewares/LVGL/GUI/lvgl/src/draw/sw/lv_draw_sw_fill.c ****                     blend_dsc.color = grad->color_map[top_y - bg_coords.y1];
 486              		.loc 1 173 21 view .LVU170
 173:../../Middlewares/LVGL/GUI/lvgl/src/draw/sw/lv_draw_sw_fill.c ****                     blend_dsc.color = grad->color_map[top_y - bg_coords.y1];
 487              		.loc 1 173 21 view .LVU171
 173:../../Middlewares/LVGL/GUI/lvgl/src/draw/sw/lv_draw_sw_fill.c ****                     blend_dsc.color = grad->color_map[top_y - bg_coords.y1];
 488              		.loc 1 173 21 view .LVU172
 173:../../Middlewares/LVGL/GUI/lvgl/src/draw/sw/lv_draw_sw_fill.c ****                     blend_dsc.color = grad->color_map[top_y - bg_coords.y1];
 489              		.loc 1 173 21 view .LVU173
 490 01d2 FEE7     		b	.L22
 491              	.L19:
 178:../../Middlewares/LVGL/GUI/lvgl/src/draw/sw/lv_draw_sw_fill.c ****                     preblend = grad_opa_map != NULL;
 492              		.loc 1 178 21 view .LVU174
 493              	.LVL52:
 179:../../Middlewares/LVGL/GUI/lvgl/src/draw/sw/lv_draw_sw_fill.c ****                     break;
 494              		.loc 1 179 21 view .LVU175
 179:../../Middlewares/LVGL/GUI/lvgl/src/draw/sw/lv_draw_sw_fill.c ****                     break;
 495              		.loc 1 179 30 is_stmt 0 view .LVU176
 496 01d4 BAF10003 		subs	r3, r10, #0
 497 01d8 18BF     		it	ne
 498 01da 0123     		movne	r3, #1
 499 01dc 0393     		str	r3, [sp, #12]
 180:../../Middlewares/LVGL/GUI/lvgl/src/draw/sw/lv_draw_sw_fill.c **** #if LV_USE_DRAW_SW_COMPLEX_GRADIENTS
 500              		.loc 1 180 21 is_stmt 1 view .LVU177
 501              	.LVL53:
 199:../../Middlewares/LVGL/GUI/lvgl/src/draw/sw/lv_draw_sw_fill.c ****                 int32_t i;
 502              		.loc 1 199 13 view .LVU178
 199:../../Middlewares/LVGL/GUI/lvgl/src/draw/sw/lv_draw_sw_fill.c ****                 int32_t i;
 503              		.loc 1 199 15 is_stmt 0 view .LVU179
 504 01de BAF1000F 		cmp	r10, #0
 505 01e2 11D1     		bne	.L59
 506 01e4 089B     		ldr	r3, [sp, #32]
 507 01e6 0793     		str	r3, [sp, #28]
 508 01e8 62E0     		b	.L20
 509              	.LVL54:
 510              	.L24:
 511              	.LBB16:
 201:../../Middlewares/LVGL/GUI/lvgl/src/draw/sw/lv_draw_sw_fill.c ****                     if(grad_opa_map[i] < LV_OPA_MAX) mask_buf[i] = (mask_buf[i] * grad_opa_map[i]) 
 512              		.loc 1 201 44 is_stmt 1 discriminator 2 view .LVU180
 513 01ea 0133     		adds	r3, r3, #1
 514              	.LVL55:
 515              	.L23:
 201:../../Middlewares/LVGL/GUI/lvgl/src/draw/sw/lv_draw_sw_fill.c ****                     if(grad_opa_map[i] < LV_OPA_MAX) mask_buf[i] = (mask_buf[i] * grad_opa_map[i]) 
 516              		.loc 1 201 30 discriminator 1 view .LVU181
 517 01ec BB42     		cmp	r3, r7
 518 01ee 0DDA     		bge	.L69
 202:../../Middlewares/LVGL/GUI/lvgl/src/draw/sw/lv_draw_sw_fill.c ****                 }
 519              		.loc 1 202 21 view .LVU182
ARM GAS  C:\Users\28576\AppData\Local\Temp\ccmStJbf.s 			page 21


 202:../../Middlewares/LVGL/GUI/lvgl/src/draw/sw/lv_draw_sw_fill.c ****                 }
 520              		.loc 1 202 36 is_stmt 0 view .LVU183
 521 01f0 1AF80310 		ldrb	r1, [r10, r3]	@ zero_extendqisi2
 202:../../Middlewares/LVGL/GUI/lvgl/src/draw/sw/lv_draw_sw_fill.c ****                 }
 522              		.loc 1 202 23 view .LVU184
 523 01f4 FC29     		cmp	r1, #252
 524 01f6 F8D8     		bhi	.L24
 202:../../Middlewares/LVGL/GUI/lvgl/src/draw/sw/lv_draw_sw_fill.c ****                 }
 525              		.loc 1 202 54 is_stmt 1 discriminator 1 view .LVU185
 202:../../Middlewares/LVGL/GUI/lvgl/src/draw/sw/lv_draw_sw_fill.c ****                 }
 526              		.loc 1 202 77 is_stmt 0 discriminator 1 view .LVU186
 527 01f8 18F80320 		ldrb	r2, [r8, r3]	@ zero_extendqisi2
 202:../../Middlewares/LVGL/GUI/lvgl/src/draw/sw/lv_draw_sw_fill.c ****                 }
 528              		.loc 1 202 81 discriminator 1 view .LVU187
 529 01fc 01FB02F2 		mul	r2, r1, r2
 202:../../Middlewares/LVGL/GUI/lvgl/src/draw/sw/lv_draw_sw_fill.c ****                 }
 530              		.loc 1 202 100 discriminator 1 view .LVU188
 531 0200 1212     		asrs	r2, r2, #8
 202:../../Middlewares/LVGL/GUI/lvgl/src/draw/sw/lv_draw_sw_fill.c ****                 }
 532              		.loc 1 202 66 discriminator 1 view .LVU189
 533 0202 08F80320 		strb	r2, [r8, r3]
 534 0206 F0E7     		b	.L24
 535              	.LVL56:
 536              	.L59:
 201:../../Middlewares/LVGL/GUI/lvgl/src/draw/sw/lv_draw_sw_fill.c ****                     if(grad_opa_map[i] < LV_OPA_MAX) mask_buf[i] = (mask_buf[i] * grad_opa_map[i]) 
 537              		.loc 1 201 23 view .LVU190
 538 0208 0023     		movs	r3, #0
 539 020a EFE7     		b	.L23
 540              	.LVL57:
 541              	.L69:
 204:../../Middlewares/LVGL/GUI/lvgl/src/draw/sw/lv_draw_sw_fill.c ****             }
 542              		.loc 1 204 17 is_stmt 1 view .LVU191
 204:../../Middlewares/LVGL/GUI/lvgl/src/draw/sw/lv_draw_sw_fill.c ****             }
 543              		.loc 1 204 36 is_stmt 0 view .LVU192
 544 020c 0223     		movs	r3, #2
 545              	.LVL58:
 204:../../Middlewares/LVGL/GUI/lvgl/src/draw/sw/lv_draw_sw_fill.c ****             }
 546              		.loc 1 204 36 view .LVU193
 547 020e 8DF88430 		strb	r3, [sp, #132]
 548 0212 039B     		ldr	r3, [sp, #12]
 549 0214 0793     		str	r3, [sp, #28]
 550 0216 4BE0     		b	.L20
 551              	.LVL59:
 552              	.L58:
 204:../../Middlewares/LVGL/GUI/lvgl/src/draw/sw/lv_draw_sw_fill.c ****             }
 553              		.loc 1 204 36 view .LVU194
 554              	.LBE16:
 166:../../Middlewares/LVGL/GUI/lvgl/src/draw/sw/lv_draw_sw_fill.c ****         if(top_y >= clipped_coords.y1) {
 555              		.loc 1 166 14 view .LVU195
 556 0218 0023     		movs	r3, #0
 557 021a 0793     		str	r3, [sp, #28]
 158:../../Middlewares/LVGL/GUI/lvgl/src/draw/sw/lv_draw_sw_fill.c **** 
 558              		.loc 1 158 14 view .LVU196
 559 021c 0393     		str	r3, [sp, #12]
 560              	.LVL60:
 561              	.L17:
 209:../../Middlewares/LVGL/GUI/lvgl/src/draw/sw/lv_draw_sw_fill.c ****             blend_area.y1 = bottom_y;
ARM GAS  C:\Users\28576\AppData\Local\Temp\ccmStJbf.s 			page 22


 562              		.loc 1 209 9 is_stmt 1 view .LVU197
 209:../../Middlewares/LVGL/GUI/lvgl/src/draw/sw/lv_draw_sw_fill.c ****             blend_area.y1 = bottom_y;
 563              		.loc 1 209 38 is_stmt 0 view .LVU198
 564 021e 299B     		ldr	r3, [sp, #164]
 209:../../Middlewares/LVGL/GUI/lvgl/src/draw/sw/lv_draw_sw_fill.c ****             blend_area.y1 = bottom_y;
 565              		.loc 1 209 11 view .LVU199
 566 0220 AB42     		cmp	r3, r5
 567 0222 18DB     		blt	.L15
 210:../../Middlewares/LVGL/GUI/lvgl/src/draw/sw/lv_draw_sw_fill.c ****             blend_area.y2 = bottom_y;
 568              		.loc 1 210 13 is_stmt 1 view .LVU200
 210:../../Middlewares/LVGL/GUI/lvgl/src/draw/sw/lv_draw_sw_fill.c ****             blend_area.y2 = bottom_y;
 569              		.loc 1 210 27 is_stmt 0 view .LVU201
 570 0224 0C95     		str	r5, [sp, #48]
 211:../../Middlewares/LVGL/GUI/lvgl/src/draw/sw/lv_draw_sw_fill.c **** 
 571              		.loc 1 211 13 is_stmt 1 view .LVU202
 211:../../Middlewares/LVGL/GUI/lvgl/src/draw/sw/lv_draw_sw_fill.c **** 
 572              		.loc 1 211 27 is_stmt 0 view .LVU203
 573 0226 0E95     		str	r5, [sp, #56]
 213:../../Middlewares/LVGL/GUI/lvgl/src/draw/sw/lv_draw_sw_fill.c ****                 case LV_GRAD_DIR_VER:
 574              		.loc 1 213 13 is_stmt 1 view .LVU204
 575 0228 B9F1010F 		cmp	r9, #1
 576 022c 45D0     		beq	.L26
 577 022e B9F1020F 		cmp	r9, #2
 578 0232 09D1     		bne	.L28
 220:../../Middlewares/LVGL/GUI/lvgl/src/draw/sw/lv_draw_sw_fill.c ****                     break;
 579              		.loc 1 220 21 view .LVU205
 220:../../Middlewares/LVGL/GUI/lvgl/src/draw/sw/lv_draw_sw_fill.c ****                     break;
 580              		.loc 1 220 32 is_stmt 0 view .LVU206
 581 0234 079B     		ldr	r3, [sp, #28]
 582 0236 83F00103 		eor	r3, r3, #1
 220:../../Middlewares/LVGL/GUI/lvgl/src/draw/sw/lv_draw_sw_fill.c ****                     break;
 583              		.loc 1 220 52 view .LVU207
 584 023a BAF1000F 		cmp	r10, #0
 585 023e 0CBF     		ite	eq
 586 0240 0023     		moveq	r3, #0
 587 0242 03F00103 		andne	r3, r3, #1
 588 0246 0393     		str	r3, [sp, #12]
 589              	.LVL61:
 221:../../Middlewares/LVGL/GUI/lvgl/src/draw/sw/lv_draw_sw_fill.c **** #if LV_USE_DRAW_SW_COMPLEX_GRADIENTS
 590              		.loc 1 221 21 is_stmt 1 view .LVU208
 591              	.L28:
 243:../../Middlewares/LVGL/GUI/lvgl/src/draw/sw/lv_draw_sw_fill.c ****                 int32_t i;
 592              		.loc 1 243 13 view .LVU209
 243:../../Middlewares/LVGL/GUI/lvgl/src/draw/sw/lv_draw_sw_fill.c ****                 int32_t i;
 593              		.loc 1 243 15 is_stmt 0 view .LVU210
 594 0248 039B     		ldr	r3, [sp, #12]
 595 024a 002B     		cmp	r3, #0
 596 024c 4CD1     		bne	.L70
 597              	.L31:
 256:../../Middlewares/LVGL/GUI/lvgl/src/draw/sw/lv_draw_sw_fill.c ****         }
 598              		.loc 1 256 13 is_stmt 1 view .LVU211
 599 024e 1AA9     		add	r1, sp, #104
 600 0250 0598     		ldr	r0, [sp, #20]
 601 0252 FFF7FEFF 		bl	lv_draw_sw_blend
 602              	.LVL62:
 603              	.L15:
 256:../../Middlewares/LVGL/GUI/lvgl/src/draw/sw/lv_draw_sw_fill.c ****         }
ARM GAS  C:\Users\28576\AppData\Local\Temp\ccmStJbf.s 			page 23


 604              		.loc 1 256 13 is_stmt 0 view .LVU212
 605              	.LBE15:
 153:../../Middlewares/LVGL/GUI/lvgl/src/draw/sw/lv_draw_sw_fill.c ****         int32_t top_y = bg_coords.y1 + h;
 606              		.loc 1 153 27 is_stmt 1 discriminator 2 view .LVU213
 607 0256 0136     		adds	r6, r6, #1
 608              	.LVL63:
 609              	.L13:
 153:../../Middlewares/LVGL/GUI/lvgl/src/draw/sw/lv_draw_sw_fill.c ****         int32_t top_y = bg_coords.y1 + h;
 610              		.loc 1 153 18 discriminator 1 view .LVU214
 611 0258 049B     		ldr	r3, [sp, #16]
 612 025a 9E42     		cmp	r6, r3
 613 025c 70DA     		bge	.L71
 614              	.LBB19:
 154:../../Middlewares/LVGL/GUI/lvgl/src/draw/sw/lv_draw_sw_fill.c ****         int32_t bottom_y = bg_coords.y2 - h;
 615              		.loc 1 154 9 view .LVU215
 154:../../Middlewares/LVGL/GUI/lvgl/src/draw/sw/lv_draw_sw_fill.c ****         int32_t bottom_y = bg_coords.y2 - h;
 616              		.loc 1 154 34 is_stmt 0 view .LVU216
 617 025e 2B9C     		ldr	r4, [sp, #172]
 154:../../Middlewares/LVGL/GUI/lvgl/src/draw/sw/lv_draw_sw_fill.c ****         int32_t bottom_y = bg_coords.y2 - h;
 618              		.loc 1 154 17 view .LVU217
 619 0260 3444     		add	r4, r4, r6
 620              	.LVL64:
 155:../../Middlewares/LVGL/GUI/lvgl/src/draw/sw/lv_draw_sw_fill.c ****         if(top_y < clipped_coords.y1 && bottom_y > clipped_coords.y2) continue;   /*This line is cl
 621              		.loc 1 155 9 is_stmt 1 view .LVU218
 155:../../Middlewares/LVGL/GUI/lvgl/src/draw/sw/lv_draw_sw_fill.c ****         if(top_y < clipped_coords.y1 && bottom_y > clipped_coords.y2) continue;   /*This line is cl
 622              		.loc 1 155 37 is_stmt 0 view .LVU219
 623 0262 2D9D     		ldr	r5, [sp, #180]
 155:../../Middlewares/LVGL/GUI/lvgl/src/draw/sw/lv_draw_sw_fill.c ****         if(top_y < clipped_coords.y1 && bottom_y > clipped_coords.y2) continue;   /*This line is cl
 624              		.loc 1 155 17 view .LVU220
 625 0264 AD1B     		subs	r5, r5, r6
 626              	.LVL65:
 156:../../Middlewares/LVGL/GUI/lvgl/src/draw/sw/lv_draw_sw_fill.c **** 
 627              		.loc 1 156 9 is_stmt 1 view .LVU221
 156:../../Middlewares/LVGL/GUI/lvgl/src/draw/sw/lv_draw_sw_fill.c **** 
 628              		.loc 1 156 34 is_stmt 0 view .LVU222
 629 0266 279B     		ldr	r3, [sp, #156]
 156:../../Middlewares/LVGL/GUI/lvgl/src/draw/sw/lv_draw_sw_fill.c **** 
 630              		.loc 1 156 11 view .LVU223
 631 0268 A342     		cmp	r3, r4
 632 026a 02DD     		ble	.L14
 156:../../Middlewares/LVGL/GUI/lvgl/src/draw/sw/lv_draw_sw_fill.c **** 
 633              		.loc 1 156 66 discriminator 1 view .LVU224
 634 026c 299B     		ldr	r3, [sp, #164]
 156:../../Middlewares/LVGL/GUI/lvgl/src/draw/sw/lv_draw_sw_fill.c **** 
 635              		.loc 1 156 38 discriminator 1 view .LVU225
 636 026e AB42     		cmp	r3, r5
 637 0270 F1DB     		blt	.L15
 638              	.L14:
 158:../../Middlewares/LVGL/GUI/lvgl/src/draw/sw/lv_draw_sw_fill.c **** 
 639              		.loc 1 158 9 is_stmt 1 view .LVU226
 640              	.LVL66:
 162:../../Middlewares/LVGL/GUI/lvgl/src/draw/sw/lv_draw_sw_fill.c ****         blend_dsc.mask_res = lv_draw_sw_mask_apply(mask_list, mask_buf, blend_area.x1, top_y, clipp
 641              		.loc 1 162 9 view .LVU227
 642 0272 3A46     		mov	r2, r7
 643 0274 0699     		ldr	r1, [sp, #24]
 644 0276 4046     		mov	r0, r8
 645 0278 FFF7FEFF 		bl	lv_memset
ARM GAS  C:\Users\28576\AppData\Local\Temp\ccmStJbf.s 			page 24


 646              	.LVL67:
 163:../../Middlewares/LVGL/GUI/lvgl/src/draw/sw/lv_draw_sw_fill.c ****         if(blend_dsc.mask_res == LV_DRAW_SW_MASK_RES_FULL_COVER) blend_dsc.mask_res = LV_DRAW_SW_MA
 647              		.loc 1 163 9 view .LVU228
 163:../../Middlewares/LVGL/GUI/lvgl/src/draw/sw/lv_draw_sw_fill.c ****         if(blend_dsc.mask_res == LV_DRAW_SW_MASK_RES_FULL_COVER) blend_dsc.mask_res = LV_DRAW_SW_MA
 648              		.loc 1 163 30 is_stmt 0 view .LVU229
 649 027c 0097     		str	r7, [sp]
 650 027e 2346     		mov	r3, r4
 651 0280 0B9A     		ldr	r2, [sp, #44]
 652 0282 4146     		mov	r1, r8
 653 0284 0FA8     		add	r0, sp, #60
 654 0286 FFF7FEFF 		bl	lv_draw_sw_mask_apply
 655              	.LVL68:
 163:../../Middlewares/LVGL/GUI/lvgl/src/draw/sw/lv_draw_sw_fill.c ****         if(blend_dsc.mask_res == LV_DRAW_SW_MASK_RES_FULL_COVER) blend_dsc.mask_res = LV_DRAW_SW_MA
 656              		.loc 1 163 28 discriminator 1 view .LVU230
 657 028a 8DF88400 		strb	r0, [sp, #132]
 164:../../Middlewares/LVGL/GUI/lvgl/src/draw/sw/lv_draw_sw_fill.c **** 
 658              		.loc 1 164 9 is_stmt 1 view .LVU231
 164:../../Middlewares/LVGL/GUI/lvgl/src/draw/sw/lv_draw_sw_fill.c **** 
 659              		.loc 1 164 11 is_stmt 0 view .LVU232
 660 028e 0128     		cmp	r0, #1
 661 0290 82D0     		beq	.L72
 662              	.L16:
 166:../../Middlewares/LVGL/GUI/lvgl/src/draw/sw/lv_draw_sw_fill.c ****         if(top_y >= clipped_coords.y1) {
 663              		.loc 1 166 9 is_stmt 1 view .LVU233
 664              	.LVL69:
 167:../../Middlewares/LVGL/GUI/lvgl/src/draw/sw/lv_draw_sw_fill.c ****             blend_area.y1 = top_y;
 665              		.loc 1 167 9 view .LVU234
 167:../../Middlewares/LVGL/GUI/lvgl/src/draw/sw/lv_draw_sw_fill.c ****             blend_area.y1 = top_y;
 666              		.loc 1 167 35 is_stmt 0 view .LVU235
 667 0292 279B     		ldr	r3, [sp, #156]
 167:../../Middlewares/LVGL/GUI/lvgl/src/draw/sw/lv_draw_sw_fill.c ****             blend_area.y1 = top_y;
 668              		.loc 1 167 11 view .LVU236
 669 0294 A342     		cmp	r3, r4
 670 0296 BFDC     		bgt	.L58
 168:../../Middlewares/LVGL/GUI/lvgl/src/draw/sw/lv_draw_sw_fill.c ****             blend_area.y2 = top_y;
 671              		.loc 1 168 13 is_stmt 1 view .LVU237
 168:../../Middlewares/LVGL/GUI/lvgl/src/draw/sw/lv_draw_sw_fill.c ****             blend_area.y2 = top_y;
 672              		.loc 1 168 27 is_stmt 0 view .LVU238
 673 0298 0C94     		str	r4, [sp, #48]
 169:../../Middlewares/LVGL/GUI/lvgl/src/draw/sw/lv_draw_sw_fill.c **** 
 674              		.loc 1 169 13 is_stmt 1 view .LVU239
 169:../../Middlewares/LVGL/GUI/lvgl/src/draw/sw/lv_draw_sw_fill.c **** 
 675              		.loc 1 169 27 is_stmt 0 view .LVU240
 676 029a 0E94     		str	r4, [sp, #56]
 171:../../Middlewares/LVGL/GUI/lvgl/src/draw/sw/lv_draw_sw_fill.c ****                 case LV_GRAD_DIR_VER:
 677              		.loc 1 171 13 is_stmt 1 view .LVU241
 678 029c B9F1010F 		cmp	r9, #1
 679 02a0 3FF47EAF 		beq	.L18
 171:../../Middlewares/LVGL/GUI/lvgl/src/draw/sw/lv_draw_sw_fill.c ****                 case LV_GRAD_DIR_VER:
 680              		.loc 1 171 13 is_stmt 0 view .LVU242
 681 02a4 B9F1020F 		cmp	r9, #2
 682 02a8 94D0     		beq	.L19
 683 02aa 0023     		movs	r3, #0
 684 02ac 0793     		str	r3, [sp, #28]
 685 02ae 0393     		str	r3, [sp, #12]
 686              	.LVL70:
 687              	.L20:
ARM GAS  C:\Users\28576\AppData\Local\Temp\ccmStJbf.s 			page 25


 206:../../Middlewares/LVGL/GUI/lvgl/src/draw/sw/lv_draw_sw_fill.c ****         }
 688              		.loc 1 206 13 is_stmt 1 view .LVU243
 689 02b0 1AA9     		add	r1, sp, #104
 690 02b2 0598     		ldr	r0, [sp, #20]
 691 02b4 FFF7FEFF 		bl	lv_draw_sw_blend
 692              	.LVL71:
 693 02b8 B1E7     		b	.L17
 694              	.LVL72:
 695              	.L26:
 215:../../Middlewares/LVGL/GUI/lvgl/src/draw/sw/lv_draw_sw_fill.c ****                     blend_dsc.color = grad->color_map[bottom_y - bg_coords.y1];
 696              		.loc 1 215 21 view .LVU244
 215:../../Middlewares/LVGL/GUI/lvgl/src/draw/sw/lv_draw_sw_fill.c ****                     blend_dsc.color = grad->color_map[bottom_y - bg_coords.y1];
 697              		.loc 1 215 21 view .LVU245
 698 02ba BBF1000F 		cmp	fp, #0
 699 02be 12D0     		beq	.L30
 215:../../Middlewares/LVGL/GUI/lvgl/src/draw/sw/lv_draw_sw_fill.c ****                     blend_dsc.color = grad->color_map[bottom_y - bg_coords.y1];
 700              		.loc 1 215 21 view .LVU246
 215:../../Middlewares/LVGL/GUI/lvgl/src/draw/sw/lv_draw_sw_fill.c ****                     blend_dsc.color = grad->color_map[bottom_y - bg_coords.y1];
 701              		.loc 1 215 41 view .LVU247
 216:../../Middlewares/LVGL/GUI/lvgl/src/draw/sw/lv_draw_sw_fill.c ****                     blend_dsc.opa = grad->opa_map[bottom_y - bg_coords.y1];
 702              		.loc 1 216 21 view .LVU248
 216:../../Middlewares/LVGL/GUI/lvgl/src/draw/sw/lv_draw_sw_fill.c ****                     blend_dsc.opa = grad->opa_map[bottom_y - bg_coords.y1];
 703              		.loc 1 216 43 is_stmt 0 view .LVU249
 704 02c0 DBF80010 		ldr	r1, [fp]
 216:../../Middlewares/LVGL/GUI/lvgl/src/draw/sw/lv_draw_sw_fill.c ****                     blend_dsc.opa = grad->opa_map[bottom_y - bg_coords.y1];
 705              		.loc 1 216 75 view .LVU250
 706 02c4 2B9B     		ldr	r3, [sp, #172]
 216:../../Middlewares/LVGL/GUI/lvgl/src/draw/sw/lv_draw_sw_fill.c ****                     blend_dsc.opa = grad->opa_map[bottom_y - bg_coords.y1];
 707              		.loc 1 216 64 view .LVU251
 708 02c6 EB1A     		subs	r3, r5, r3
 216:../../Middlewares/LVGL/GUI/lvgl/src/draw/sw/lv_draw_sw_fill.c ****                     blend_dsc.opa = grad->opa_map[bottom_y - bg_coords.y1];
 709              		.loc 1 216 54 view .LVU252
 710 02c8 03EB4302 		add	r2, r3, r3, lsl #1
 711 02cc 8818     		adds	r0, r1, r2
 216:../../Middlewares/LVGL/GUI/lvgl/src/draw/sw/lv_draw_sw_fill.c ****                     blend_dsc.opa = grad->opa_map[bottom_y - bg_coords.y1];
 712              		.loc 1 216 37 view .LVU253
 713 02ce 895A     		ldrh	r1, [r1, r2]	@ unaligned
 714 02d0 8278     		ldrb	r2, [r0, #2]	@ zero_extendqisi2
 715 02d2 ADF87D10 		strh	r1, [sp, #125]	@ unaligned
 716 02d6 8DF87F20 		strb	r2, [sp, #127]
 217:../../Middlewares/LVGL/GUI/lvgl/src/draw/sw/lv_draw_sw_fill.c ****                     break;
 717              		.loc 1 217 21 is_stmt 1 view .LVU254
 217:../../Middlewares/LVGL/GUI/lvgl/src/draw/sw/lv_draw_sw_fill.c ****                     break;
 718              		.loc 1 217 41 is_stmt 0 view .LVU255
 719 02da DBF80420 		ldr	r2, [fp, #4]
 217:../../Middlewares/LVGL/GUI/lvgl/src/draw/sw/lv_draw_sw_fill.c ****                     break;
 720              		.loc 1 217 50 view .LVU256
 721 02de D35C     		ldrb	r3, [r2, r3]	@ zero_extendqisi2
 217:../../Middlewares/LVGL/GUI/lvgl/src/draw/sw/lv_draw_sw_fill.c ****                     break;
 722              		.loc 1 217 35 view .LVU257
 723 02e0 8DF87C30 		strb	r3, [sp, #124]
 218:../../Middlewares/LVGL/GUI/lvgl/src/draw/sw/lv_draw_sw_fill.c ****                 case LV_GRAD_DIR_HOR:
 724              		.loc 1 218 21 is_stmt 1 view .LVU258
 725 02e4 B0E7     		b	.L28
 726              	.L30:
 215:../../Middlewares/LVGL/GUI/lvgl/src/draw/sw/lv_draw_sw_fill.c ****                     blend_dsc.color = grad->color_map[bottom_y - bg_coords.y1];
 727              		.loc 1 215 21 view .LVU259
ARM GAS  C:\Users\28576\AppData\Local\Temp\ccmStJbf.s 			page 26


 215:../../Middlewares/LVGL/GUI/lvgl/src/draw/sw/lv_draw_sw_fill.c ****                     blend_dsc.color = grad->color_map[bottom_y - bg_coords.y1];
 728              		.loc 1 215 21 view .LVU260
 215:../../Middlewares/LVGL/GUI/lvgl/src/draw/sw/lv_draw_sw_fill.c ****                     blend_dsc.color = grad->color_map[bottom_y - bg_coords.y1];
 729              		.loc 1 215 21 view .LVU261
 215:../../Middlewares/LVGL/GUI/lvgl/src/draw/sw/lv_draw_sw_fill.c ****                     blend_dsc.color = grad->color_map[bottom_y - bg_coords.y1];
 730              		.loc 1 215 21 view .LVU262
 215:../../Middlewares/LVGL/GUI/lvgl/src/draw/sw/lv_draw_sw_fill.c ****                     blend_dsc.color = grad->color_map[bottom_y - bg_coords.y1];
 731              		.loc 1 215 21 view .LVU263
 732 02e6 FEE7     		b	.L30
 733              	.L70:
 734              	.LBB17:
 244:../../Middlewares/LVGL/GUI/lvgl/src/draw/sw/lv_draw_sw_fill.c ****                 if(grad_dir >= LV_GRAD_DIR_LINEAR) {
 735              		.loc 1 244 17 view .LVU264
 245:../../Middlewares/LVGL/GUI/lvgl/src/draw/sw/lv_draw_sw_fill.c ****                     /*Need to generate the mask again, because we have mixed in the upper part of t
 736              		.loc 1 245 17 view .LVU265
 245:../../Middlewares/LVGL/GUI/lvgl/src/draw/sw/lv_draw_sw_fill.c ****                     /*Need to generate the mask again, because we have mixed in the upper part of t
 737              		.loc 1 245 19 is_stmt 0 view .LVU266
 738 02e8 B9F1020F 		cmp	r9, #2
 739 02ec 01D8     		bhi	.L73
 740              	.L32:
 245:../../Middlewares/LVGL/GUI/lvgl/src/draw/sw/lv_draw_sw_fill.c ****                     /*Need to generate the mask again, because we have mixed in the upper part of t
 741              		.loc 1 245 19 view .LVU267
 742              	.LBE17:
 158:../../Middlewares/LVGL/GUI/lvgl/src/draw/sw/lv_draw_sw_fill.c **** 
 743              		.loc 1 158 14 view .LVU268
 744 02ee 0023     		movs	r3, #0
 745 02f0 14E0     		b	.L34
 746              	.L73:
 747              	.LBB18:
 247:../../Middlewares/LVGL/GUI/lvgl/src/draw/sw/lv_draw_sw_fill.c ****                     blend_dsc.mask_res = lv_draw_sw_mask_apply(mask_list, mask_buf, blend_area.x1, 
 748              		.loc 1 247 21 is_stmt 1 view .LVU269
 749 02f2 3A46     		mov	r2, r7
 750 02f4 0699     		ldr	r1, [sp, #24]
 751 02f6 4046     		mov	r0, r8
 752 02f8 FFF7FEFF 		bl	lv_memset
 753              	.LVL73:
 248:../../Middlewares/LVGL/GUI/lvgl/src/draw/sw/lv_draw_sw_fill.c ****                     if(blend_dsc.mask_res == LV_DRAW_SW_MASK_RES_FULL_COVER) blend_dsc.mask_res = L
 754              		.loc 1 248 21 view .LVU270
 248:../../Middlewares/LVGL/GUI/lvgl/src/draw/sw/lv_draw_sw_fill.c ****                     if(blend_dsc.mask_res == LV_DRAW_SW_MASK_RES_FULL_COVER) blend_dsc.mask_res = L
 755              		.loc 1 248 42 is_stmt 0 view .LVU271
 756 02fc 0097     		str	r7, [sp]
 757 02fe 2346     		mov	r3, r4
 758 0300 0B9A     		ldr	r2, [sp, #44]
 759 0302 4146     		mov	r1, r8
 760 0304 0FA8     		add	r0, sp, #60
 761 0306 FFF7FEFF 		bl	lv_draw_sw_mask_apply
 762              	.LVL74:
 248:../../Middlewares/LVGL/GUI/lvgl/src/draw/sw/lv_draw_sw_fill.c ****                     if(blend_dsc.mask_res == LV_DRAW_SW_MASK_RES_FULL_COVER) blend_dsc.mask_res = L
 763              		.loc 1 248 40 discriminator 1 view .LVU272
 764 030a 8DF88400 		strb	r0, [sp, #132]
 249:../../Middlewares/LVGL/GUI/lvgl/src/draw/sw/lv_draw_sw_fill.c ****                 }
 765              		.loc 1 249 21 is_stmt 1 view .LVU273
 249:../../Middlewares/LVGL/GUI/lvgl/src/draw/sw/lv_draw_sw_fill.c ****                 }
 766              		.loc 1 249 23 is_stmt 0 view .LVU274
 767 030e 0128     		cmp	r0, #1
 768 0310 EDD1     		bne	.L32
 249:../../Middlewares/LVGL/GUI/lvgl/src/draw/sw/lv_draw_sw_fill.c ****                 }
ARM GAS  C:\Users\28576\AppData\Local\Temp\ccmStJbf.s 			page 27


 769              		.loc 1 249 78 is_stmt 1 discriminator 1 view .LVU275
 249:../../Middlewares/LVGL/GUI/lvgl/src/draw/sw/lv_draw_sw_fill.c ****                 }
 770              		.loc 1 249 97 is_stmt 0 discriminator 1 view .LVU276
 771 0312 0223     		movs	r3, #2
 772 0314 8DF88430 		strb	r3, [sp, #132]
 773 0318 E9E7     		b	.L32
 774              	.LVL75:
 775              	.L33:
 251:../../Middlewares/LVGL/GUI/lvgl/src/draw/sw/lv_draw_sw_fill.c ****                     if(grad_opa_map[i] < LV_OPA_MAX) mask_buf[i] = (mask_buf[i] * grad_opa_map[i]) 
 776              		.loc 1 251 44 is_stmt 1 discriminator 2 view .LVU277
 777 031a 0133     		adds	r3, r3, #1
 778              	.LVL76:
 779              	.L34:
 251:../../Middlewares/LVGL/GUI/lvgl/src/draw/sw/lv_draw_sw_fill.c ****                     if(grad_opa_map[i] < LV_OPA_MAX) mask_buf[i] = (mask_buf[i] * grad_opa_map[i]) 
 780              		.loc 1 251 30 discriminator 1 view .LVU278
 781 031c BB42     		cmp	r3, r7
 782 031e 0BDA     		bge	.L74
 252:../../Middlewares/LVGL/GUI/lvgl/src/draw/sw/lv_draw_sw_fill.c ****                 }
 783              		.loc 1 252 21 view .LVU279
 252:../../Middlewares/LVGL/GUI/lvgl/src/draw/sw/lv_draw_sw_fill.c ****                 }
 784              		.loc 1 252 36 is_stmt 0 view .LVU280
 785 0320 1AF80310 		ldrb	r1, [r10, r3]	@ zero_extendqisi2
 252:../../Middlewares/LVGL/GUI/lvgl/src/draw/sw/lv_draw_sw_fill.c ****                 }
 786              		.loc 1 252 23 view .LVU281
 787 0324 FC29     		cmp	r1, #252
 788 0326 F8D8     		bhi	.L33
 252:../../Middlewares/LVGL/GUI/lvgl/src/draw/sw/lv_draw_sw_fill.c ****                 }
 789              		.loc 1 252 54 is_stmt 1 discriminator 1 view .LVU282
 252:../../Middlewares/LVGL/GUI/lvgl/src/draw/sw/lv_draw_sw_fill.c ****                 }
 790              		.loc 1 252 77 is_stmt 0 discriminator 1 view .LVU283
 791 0328 18F80320 		ldrb	r2, [r8, r3]	@ zero_extendqisi2
 252:../../Middlewares/LVGL/GUI/lvgl/src/draw/sw/lv_draw_sw_fill.c ****                 }
 792              		.loc 1 252 81 discriminator 1 view .LVU284
 793 032c 01FB02F2 		mul	r2, r1, r2
 252:../../Middlewares/LVGL/GUI/lvgl/src/draw/sw/lv_draw_sw_fill.c ****                 }
 794              		.loc 1 252 100 discriminator 1 view .LVU285
 795 0330 1212     		asrs	r2, r2, #8
 252:../../Middlewares/LVGL/GUI/lvgl/src/draw/sw/lv_draw_sw_fill.c ****                 }
 796              		.loc 1 252 66 discriminator 1 view .LVU286
 797 0332 08F80320 		strb	r2, [r8, r3]
 798 0336 F0E7     		b	.L33
 799              	.L74:
 254:../../Middlewares/LVGL/GUI/lvgl/src/draw/sw/lv_draw_sw_fill.c ****             }
 800              		.loc 1 254 17 is_stmt 1 view .LVU287
 254:../../Middlewares/LVGL/GUI/lvgl/src/draw/sw/lv_draw_sw_fill.c ****             }
 801              		.loc 1 254 36 is_stmt 0 view .LVU288
 802 0338 0223     		movs	r3, #2
 803              	.LVL77:
 254:../../Middlewares/LVGL/GUI/lvgl/src/draw/sw/lv_draw_sw_fill.c ****             }
 804              		.loc 1 254 36 view .LVU289
 805 033a 8DF88430 		strb	r3, [sp, #132]
 806 033e 86E7     		b	.L31
 807              	.LVL78:
 808              	.L71:
 254:../../Middlewares/LVGL/GUI/lvgl/src/draw/sw/lv_draw_sw_fill.c ****             }
 809              		.loc 1 254 36 view .LVU290
 810              	.LBE18:
ARM GAS  C:\Users\28576\AppData\Local\Temp\ccmStJbf.s 			page 28


 811              	.LBE19:
 263:../../Middlewares/LVGL/GUI/lvgl/src/draw/sw/lv_draw_sw_fill.c ****         blend_area.y1 = bg_coords.y1 + rout;
 812              		.loc 1 263 7 view .LVU291
 813 0340 099D     		ldr	r5, [sp, #36]
 263:../../Middlewares/LVGL/GUI/lvgl/src/draw/sw/lv_draw_sw_fill.c ****         blend_area.y1 = bg_coords.y1 + rout;
 814              		.loc 1 263 5 is_stmt 1 view .LVU292
 263:../../Middlewares/LVGL/GUI/lvgl/src/draw/sw/lv_draw_sw_fill.c ****         blend_area.y1 = bg_coords.y1 + rout;
 815              		.loc 1 263 7 is_stmt 0 view .LVU293
 816 0342 B9F1000F 		cmp	r9, #0
 817 0346 1ED0     		beq	.L75
 818              	.LBB20:
 272:../../Middlewares/LVGL/GUI/lvgl/src/draw/sw/lv_draw_sw_fill.c ****         switch(grad_dir) {
 819              		.loc 1 272 9 is_stmt 1 view .LVU294
 272:../../Middlewares/LVGL/GUI/lvgl/src/draw/sw/lv_draw_sw_fill.c ****         switch(grad_dir) {
 820              		.loc 1 272 23 is_stmt 0 view .LVU295
 821 0348 069B     		ldr	r3, [sp, #24]
 822 034a 8DF87C30 		strb	r3, [sp, #124]
 273:../../Middlewares/LVGL/GUI/lvgl/src/draw/sw/lv_draw_sw_fill.c ****             case LV_GRAD_DIR_VER:
 823              		.loc 1 273 9 is_stmt 1 view .LVU296
 824 034e B9F1020F 		cmp	r9, #2
 825 0352 36D0     		beq	.L39
 826 0354 28D8     		bhi	.L40
 827 0356 B9F1010F 		cmp	r9, #1
 828 035a 02D1     		bne	.L42
 275:../../Middlewares/LVGL/GUI/lvgl/src/draw/sw/lv_draw_sw_fill.c ****                 break;
 829              		.loc 1 275 17 view .LVU297
 275:../../Middlewares/LVGL/GUI/lvgl/src/draw/sw/lv_draw_sw_fill.c ****                 break;
 830              		.loc 1 275 36 is_stmt 0 view .LVU298
 831 035c 0123     		movs	r3, #1
 832 035e 8DF88430 		strb	r3, [sp, #132]
 276:../../Middlewares/LVGL/GUI/lvgl/src/draw/sw/lv_draw_sw_fill.c ****             case LV_GRAD_DIR_HOR:
 833              		.loc 1 276 17 is_stmt 1 view .LVU299
 834              	.L42:
 291:../../Middlewares/LVGL/GUI/lvgl/src/draw/sw/lv_draw_sw_fill.c ****         int32_t h_end = LV_MIN(bg_coords.y2 - rout, clipped_coords.y2);
 835              		.loc 1 291 9 view .LVU300
 291:../../Middlewares/LVGL/GUI/lvgl/src/draw/sw/lv_draw_sw_fill.c ****         int32_t h_end = LV_MIN(bg_coords.y2 - rout, clipped_coords.y2);
 836              		.loc 1 291 27 is_stmt 0 view .LVU301
 837 0362 2B9C     		ldr	r4, [sp, #172]
 838 0364 049A     		ldr	r2, [sp, #16]
 839 0366 1444     		add	r4, r4, r2
 291:../../Middlewares/LVGL/GUI/lvgl/src/draw/sw/lv_draw_sw_fill.c ****         int32_t h_end = LV_MIN(bg_coords.y2 - rout, clipped_coords.y2);
 840              		.loc 1 291 17 view .LVU302
 841 0368 279B     		ldr	r3, [sp, #156]
 842 036a 9C42     		cmp	r4, r3
 843 036c B8BF     		it	lt
 844 036e 1C46     		movlt	r4, r3
 845              	.LVL79:
 292:../../Middlewares/LVGL/GUI/lvgl/src/draw/sw/lv_draw_sw_fill.c ****         for(h = h_start; h <= h_end; h++) {
 846              		.loc 1 292 9 is_stmt 1 view .LVU303
 292:../../Middlewares/LVGL/GUI/lvgl/src/draw/sw/lv_draw_sw_fill.c ****         for(h = h_start; h <= h_end; h++) {
 847              		.loc 1 292 25 is_stmt 0 view .LVU304
 848 0370 2D9D     		ldr	r5, [sp, #180]
 849 0372 AD1A     		subs	r5, r5, r2
 292:../../Middlewares/LVGL/GUI/lvgl/src/draw/sw/lv_draw_sw_fill.c ****         for(h = h_start; h <= h_end; h++) {
 850              		.loc 1 292 17 view .LVU305
 851 0374 299B     		ldr	r3, [sp, #164]
 852 0376 9D42     		cmp	r5, r3
ARM GAS  C:\Users\28576\AppData\Local\Temp\ccmStJbf.s 			page 29


 853 0378 A8BF     		it	ge
 854 037a 1D46     		movge	r5, r3
 855              	.LVL80:
 293:../../Middlewares/LVGL/GUI/lvgl/src/draw/sw/lv_draw_sw_fill.c ****             blend_area.y1 = h;
 856              		.loc 1 293 9 is_stmt 1 view .LVU306
 293:../../Middlewares/LVGL/GUI/lvgl/src/draw/sw/lv_draw_sw_fill.c ****             blend_area.y1 = h;
 857              		.loc 1 293 9 is_stmt 0 view .LVU307
 858 037c DDF818A0 		ldr	r10, [sp, #24]
 859              	.LVL81:
 293:../../Middlewares/LVGL/GUI/lvgl/src/draw/sw/lv_draw_sw_fill.c ****             blend_area.y1 = h;
 860              		.loc 1 293 9 view .LVU308
 861 0380 5E46     		mov	r6, fp
 862 0382 059F     		ldr	r7, [sp, #20]
 863              	.LVL82:
 293:../../Middlewares/LVGL/GUI/lvgl/src/draw/sw/lv_draw_sw_fill.c ****             blend_area.y1 = h;
 864              		.loc 1 293 9 view .LVU309
 865 0384 33E0     		b	.L45
 866              	.LVL83:
 867              	.L75:
 293:../../Middlewares/LVGL/GUI/lvgl/src/draw/sw/lv_draw_sw_fill.c ****             blend_area.y1 = h;
 868              		.loc 1 293 9 view .LVU310
 869              	.LBE20:
 264:../../Middlewares/LVGL/GUI/lvgl/src/draw/sw/lv_draw_sw_fill.c ****         blend_area.y2 = bg_coords.y2 - rout;
 870              		.loc 1 264 9 is_stmt 1 view .LVU311
 264:../../Middlewares/LVGL/GUI/lvgl/src/draw/sw/lv_draw_sw_fill.c ****         blend_area.y2 = bg_coords.y2 - rout;
 871              		.loc 1 264 34 is_stmt 0 view .LVU312
 872 0386 2B9B     		ldr	r3, [sp, #172]
 264:../../Middlewares/LVGL/GUI/lvgl/src/draw/sw/lv_draw_sw_fill.c ****         blend_area.y2 = bg_coords.y2 - rout;
 873              		.loc 1 264 38 view .LVU313
 874 0388 049A     		ldr	r2, [sp, #16]
 875 038a 1344     		add	r3, r3, r2
 264:../../Middlewares/LVGL/GUI/lvgl/src/draw/sw/lv_draw_sw_fill.c ****         blend_area.y2 = bg_coords.y2 - rout;
 876              		.loc 1 264 23 view .LVU314
 877 038c 0C93     		str	r3, [sp, #48]
 265:../../Middlewares/LVGL/GUI/lvgl/src/draw/sw/lv_draw_sw_fill.c ****         blend_dsc.opa = opa;
 878              		.loc 1 265 9 is_stmt 1 view .LVU315
 265:../../Middlewares/LVGL/GUI/lvgl/src/draw/sw/lv_draw_sw_fill.c ****         blend_dsc.opa = opa;
 879              		.loc 1 265 34 is_stmt 0 view .LVU316
 880 038e 2D9B     		ldr	r3, [sp, #180]
 265:../../Middlewares/LVGL/GUI/lvgl/src/draw/sw/lv_draw_sw_fill.c ****         blend_dsc.opa = opa;
 881              		.loc 1 265 38 view .LVU317
 882 0390 9B1A     		subs	r3, r3, r2
 265:../../Middlewares/LVGL/GUI/lvgl/src/draw/sw/lv_draw_sw_fill.c ****         blend_dsc.opa = opa;
 883              		.loc 1 265 23 view .LVU318
 884 0392 0E93     		str	r3, [sp, #56]
 266:../../Middlewares/LVGL/GUI/lvgl/src/draw/sw/lv_draw_sw_fill.c ****         blend_dsc.mask_buf = NULL;
 885              		.loc 1 266 9 is_stmt 1 view .LVU319
 266:../../Middlewares/LVGL/GUI/lvgl/src/draw/sw/lv_draw_sw_fill.c ****         blend_dsc.mask_buf = NULL;
 886              		.loc 1 266 23 is_stmt 0 view .LVU320
 887 0394 069B     		ldr	r3, [sp, #24]
 888 0396 8DF87C30 		strb	r3, [sp, #124]
 267:../../Middlewares/LVGL/GUI/lvgl/src/draw/sw/lv_draw_sw_fill.c ****         lv_draw_sw_blend(t, &blend_dsc);
 889              		.loc 1 267 9 is_stmt 1 view .LVU321
 267:../../Middlewares/LVGL/GUI/lvgl/src/draw/sw/lv_draw_sw_fill.c ****         lv_draw_sw_blend(t, &blend_dsc);
 890              		.loc 1 267 28 is_stmt 0 view .LVU322
 891 039a CDF88090 		str	r9, [sp, #128]
 268:../../Middlewares/LVGL/GUI/lvgl/src/draw/sw/lv_draw_sw_fill.c ****     }
ARM GAS  C:\Users\28576\AppData\Local\Temp\ccmStJbf.s 			page 30


 892              		.loc 1 268 9 is_stmt 1 view .LVU323
 893 039e 1AA9     		add	r1, sp, #104
 894 03a0 0598     		ldr	r0, [sp, #20]
 895 03a2 FFF7FEFF 		bl	lv_draw_sw_blend
 896              	.LVL84:
 897 03a6 40E0     		b	.L38
 898              	.L40:
 899              	.LBB21:
 273:../../Middlewares/LVGL/GUI/lvgl/src/draw/sw/lv_draw_sw_fill.c ****             case LV_GRAD_DIR_VER:
 900              		.loc 1 273 9 is_stmt 0 view .LVU324
 901 03a8 09F10D03 		add	r3, r9, #13
 902 03ac 03F00F03 		and	r3, r3, #15
 903 03b0 022B     		cmp	r3, #2
 904 03b2 D6D8     		bhi	.L42
 284:../../Middlewares/LVGL/GUI/lvgl/src/draw/sw/lv_draw_sw_fill.c ****                 blend_dsc.mask_buf = grad_opa_map;
 905              		.loc 1 284 17 is_stmt 1 view .LVU325
 284:../../Middlewares/LVGL/GUI/lvgl/src/draw/sw/lv_draw_sw_fill.c ****                 blend_dsc.mask_buf = grad_opa_map;
 906              		.loc 1 284 75 is_stmt 0 view .LVU326
 907 03b4 5DB1     		cbz	r5, .L60
 284:../../Middlewares/LVGL/GUI/lvgl/src/draw/sw/lv_draw_sw_fill.c ****                 blend_dsc.mask_buf = grad_opa_map;
 908              		.loc 1 284 75 discriminator 1 view .LVU327
 909 03b6 0223     		movs	r3, #2
 910              	.L44:
 284:../../Middlewares/LVGL/GUI/lvgl/src/draw/sw/lv_draw_sw_fill.c ****                 blend_dsc.mask_buf = grad_opa_map;
 911              		.loc 1 284 36 discriminator 4 view .LVU328
 912 03b8 8DF88430 		strb	r3, [sp, #132]
 285:../../Middlewares/LVGL/GUI/lvgl/src/draw/sw/lv_draw_sw_fill.c ****                 break;
 913              		.loc 1 285 17 is_stmt 1 view .LVU329
 285:../../Middlewares/LVGL/GUI/lvgl/src/draw/sw/lv_draw_sw_fill.c ****                 break;
 914              		.loc 1 285 36 is_stmt 0 view .LVU330
 915 03bc CDF880A0 		str	r10, [sp, #128]
 286:../../Middlewares/LVGL/GUI/lvgl/src/draw/sw/lv_draw_sw_fill.c ****             default:
 916              		.loc 1 286 17 is_stmt 1 view .LVU331
 917 03c0 CFE7     		b	.L42
 918              	.L39:
 278:../../Middlewares/LVGL/GUI/lvgl/src/draw/sw/lv_draw_sw_fill.c ****                 blend_dsc.mask_buf = grad_opa_map;
 919              		.loc 1 278 17 view .LVU332
 278:../../Middlewares/LVGL/GUI/lvgl/src/draw/sw/lv_draw_sw_fill.c ****                 blend_dsc.mask_buf = grad_opa_map;
 920              		.loc 1 278 36 is_stmt 0 view .LVU333
 921 03c2 0223     		movs	r3, #2
 922 03c4 8DF88430 		strb	r3, [sp, #132]
 279:../../Middlewares/LVGL/GUI/lvgl/src/draw/sw/lv_draw_sw_fill.c ****                 break;
 923              		.loc 1 279 17 is_stmt 1 view .LVU334
 279:../../Middlewares/LVGL/GUI/lvgl/src/draw/sw/lv_draw_sw_fill.c ****                 break;
 924              		.loc 1 279 36 is_stmt 0 view .LVU335
 925 03c8 CDF880A0 		str	r10, [sp, #128]
 280:../../Middlewares/LVGL/GUI/lvgl/src/draw/sw/lv_draw_sw_fill.c ****             case LV_GRAD_DIR_LINEAR:
 926              		.loc 1 280 17 is_stmt 1 view .LVU336
 927 03cc C9E7     		b	.L42
 928              	.L60:
 284:../../Middlewares/LVGL/GUI/lvgl/src/draw/sw/lv_draw_sw_fill.c ****                 blend_dsc.mask_buf = grad_opa_map;
 929              		.loc 1 284 75 is_stmt 0 discriminator 2 view .LVU337
 930 03ce 0123     		movs	r3, #1
 931 03d0 F2E7     		b	.L44
 932              	.LVL85:
 933              	.L48:
 299:../../Middlewares/LVGL/GUI/lvgl/src/draw/sw/lv_draw_sw_fill.c ****                     blend_dsc.color = grad->color_map[h - bg_coords.y1];
ARM GAS  C:\Users\28576\AppData\Local\Temp\ccmStJbf.s 			page 31


 934              		.loc 1 299 21 is_stmt 1 view .LVU338
 299:../../Middlewares/LVGL/GUI/lvgl/src/draw/sw/lv_draw_sw_fill.c ****                     blend_dsc.color = grad->color_map[h - bg_coords.y1];
 935              		.loc 1 299 21 view .LVU339
 299:../../Middlewares/LVGL/GUI/lvgl/src/draw/sw/lv_draw_sw_fill.c ****                     blend_dsc.color = grad->color_map[h - bg_coords.y1];
 936              		.loc 1 299 21 view .LVU340
 299:../../Middlewares/LVGL/GUI/lvgl/src/draw/sw/lv_draw_sw_fill.c ****                     blend_dsc.color = grad->color_map[h - bg_coords.y1];
 937              		.loc 1 299 21 view .LVU341
 299:../../Middlewares/LVGL/GUI/lvgl/src/draw/sw/lv_draw_sw_fill.c ****                     blend_dsc.color = grad->color_map[h - bg_coords.y1];
 938              		.loc 1 299 21 view .LVU342
 939 03d2 FEE7     		b	.L48
 940              	.L49:
 302:../../Middlewares/LVGL/GUI/lvgl/src/draw/sw/lv_draw_sw_fill.c ****                     break;
 941              		.loc 1 302 26 view .LVU343
 302:../../Middlewares/LVGL/GUI/lvgl/src/draw/sw/lv_draw_sw_fill.c ****                     break;
 942              		.loc 1 302 42 is_stmt 0 view .LVU344
 943 03d4 7268     		ldr	r2, [r6, #4]
 944 03d6 D35C     		ldrb	r3, [r2, r3]	@ zero_extendqisi2
 945 03d8 03FB0AF3 		mul	r3, r3, r10
 946 03dc C3F30723 		ubfx	r3, r3, #8, #8
 302:../../Middlewares/LVGL/GUI/lvgl/src/draw/sw/lv_draw_sw_fill.c ****                     break;
 947              		.loc 1 302 40 view .LVU345
 948 03e0 8DF87C30 		strb	r3, [sp, #124]
 949              	.L46:
 318:../../Middlewares/LVGL/GUI/lvgl/src/draw/sw/lv_draw_sw_fill.c ****         }
 950              		.loc 1 318 13 is_stmt 1 view .LVU346
 951 03e4 1AA9     		add	r1, sp, #104
 952 03e6 3846     		mov	r0, r7
 953 03e8 FFF7FEFF 		bl	lv_draw_sw_blend
 954              	.LVL86:
 293:../../Middlewares/LVGL/GUI/lvgl/src/draw/sw/lv_draw_sw_fill.c ****             blend_area.y1 = h;
 955              		.loc 1 293 39 discriminator 2 view .LVU347
 956 03ec 0134     		adds	r4, r4, #1
 957              	.LVL87:
 958              	.L45:
 293:../../Middlewares/LVGL/GUI/lvgl/src/draw/sw/lv_draw_sw_fill.c ****             blend_area.y1 = h;
 959              		.loc 1 293 28 discriminator 1 view .LVU348
 960 03ee AC42     		cmp	r4, r5
 961 03f0 1ADC     		bgt	.L76
 294:../../Middlewares/LVGL/GUI/lvgl/src/draw/sw/lv_draw_sw_fill.c ****             blend_area.y2 = h;
 962              		.loc 1 294 13 view .LVU349
 294:../../Middlewares/LVGL/GUI/lvgl/src/draw/sw/lv_draw_sw_fill.c ****             blend_area.y2 = h;
 963              		.loc 1 294 27 is_stmt 0 view .LVU350
 964 03f2 0C94     		str	r4, [sp, #48]
 295:../../Middlewares/LVGL/GUI/lvgl/src/draw/sw/lv_draw_sw_fill.c **** 
 965              		.loc 1 295 13 is_stmt 1 view .LVU351
 295:../../Middlewares/LVGL/GUI/lvgl/src/draw/sw/lv_draw_sw_fill.c **** 
 966              		.loc 1 295 27 is_stmt 0 view .LVU352
 967 03f4 0E94     		str	r4, [sp, #56]
 297:../../Middlewares/LVGL/GUI/lvgl/src/draw/sw/lv_draw_sw_fill.c ****                 case LV_GRAD_DIR_VER:
 968              		.loc 1 297 13 is_stmt 1 view .LVU353
 969 03f6 B9F1010F 		cmp	r9, #1
 970 03fa F3D1     		bne	.L46
 299:../../Middlewares/LVGL/GUI/lvgl/src/draw/sw/lv_draw_sw_fill.c ****                     blend_dsc.color = grad->color_map[h - bg_coords.y1];
 971              		.loc 1 299 21 view .LVU354
 299:../../Middlewares/LVGL/GUI/lvgl/src/draw/sw/lv_draw_sw_fill.c ****                     blend_dsc.color = grad->color_map[h - bg_coords.y1];
 972              		.loc 1 299 21 view .LVU355
 973 03fc 002E     		cmp	r6, #0
ARM GAS  C:\Users\28576\AppData\Local\Temp\ccmStJbf.s 			page 32


 974 03fe E8D0     		beq	.L48
 299:../../Middlewares/LVGL/GUI/lvgl/src/draw/sw/lv_draw_sw_fill.c ****                     blend_dsc.color = grad->color_map[h - bg_coords.y1];
 975              		.loc 1 299 21 view .LVU356
 299:../../Middlewares/LVGL/GUI/lvgl/src/draw/sw/lv_draw_sw_fill.c ****                     blend_dsc.color = grad->color_map[h - bg_coords.y1];
 976              		.loc 1 299 41 view .LVU357
 300:../../Middlewares/LVGL/GUI/lvgl/src/draw/sw/lv_draw_sw_fill.c ****                     if(opa >= LV_OPA_MAX) blend_dsc.opa = grad->opa_map[h - bg_coords.y1];
 977              		.loc 1 300 21 view .LVU358
 300:../../Middlewares/LVGL/GUI/lvgl/src/draw/sw/lv_draw_sw_fill.c ****                     if(opa >= LV_OPA_MAX) blend_dsc.opa = grad->opa_map[h - bg_coords.y1];
 978              		.loc 1 300 43 is_stmt 0 view .LVU359
 979 0400 3168     		ldr	r1, [r6]
 300:../../Middlewares/LVGL/GUI/lvgl/src/draw/sw/lv_draw_sw_fill.c ****                     if(opa >= LV_OPA_MAX) blend_dsc.opa = grad->opa_map[h - bg_coords.y1];
 980              		.loc 1 300 68 view .LVU360
 981 0402 2B9B     		ldr	r3, [sp, #172]
 300:../../Middlewares/LVGL/GUI/lvgl/src/draw/sw/lv_draw_sw_fill.c ****                     if(opa >= LV_OPA_MAX) blend_dsc.opa = grad->opa_map[h - bg_coords.y1];
 982              		.loc 1 300 57 view .LVU361
 983 0404 E31A     		subs	r3, r4, r3
 300:../../Middlewares/LVGL/GUI/lvgl/src/draw/sw/lv_draw_sw_fill.c ****                     if(opa >= LV_OPA_MAX) blend_dsc.opa = grad->opa_map[h - bg_coords.y1];
 984              		.loc 1 300 54 view .LVU362
 985 0406 03EB4302 		add	r2, r3, r3, lsl #1
 986 040a 8818     		adds	r0, r1, r2
 300:../../Middlewares/LVGL/GUI/lvgl/src/draw/sw/lv_draw_sw_fill.c ****                     if(opa >= LV_OPA_MAX) blend_dsc.opa = grad->opa_map[h - bg_coords.y1];
 987              		.loc 1 300 37 view .LVU363
 988 040c 895A     		ldrh	r1, [r1, r2]	@ unaligned
 989 040e 8278     		ldrb	r2, [r0, #2]	@ zero_extendqisi2
 990 0410 ADF87D10 		strh	r1, [sp, #125]	@ unaligned
 991 0414 8DF87F20 		strb	r2, [sp, #127]
 301:../../Middlewares/LVGL/GUI/lvgl/src/draw/sw/lv_draw_sw_fill.c ****                     else blend_dsc.opa = LV_OPA_MIX2(grad->opa_map[h - bg_coords.y1], opa);
 992              		.loc 1 301 21 is_stmt 1 view .LVU364
 301:../../Middlewares/LVGL/GUI/lvgl/src/draw/sw/lv_draw_sw_fill.c ****                     else blend_dsc.opa = LV_OPA_MIX2(grad->opa_map[h - bg_coords.y1], opa);
 993              		.loc 1 301 23 is_stmt 0 view .LVU365
 994 0418 BAF1FC0F 		cmp	r10, #252
 995 041c DAD9     		bls	.L49
 301:../../Middlewares/LVGL/GUI/lvgl/src/draw/sw/lv_draw_sw_fill.c ****                     else blend_dsc.opa = LV_OPA_MIX2(grad->opa_map[h - bg_coords.y1], opa);
 996              		.loc 1 301 43 is_stmt 1 discriminator 1 view .LVU366
 301:../../Middlewares/LVGL/GUI/lvgl/src/draw/sw/lv_draw_sw_fill.c ****                     else blend_dsc.opa = LV_OPA_MIX2(grad->opa_map[h - bg_coords.y1], opa);
 997              		.loc 1 301 63 is_stmt 0 discriminator 1 view .LVU367
 998 041e 7268     		ldr	r2, [r6, #4]
 301:../../Middlewares/LVGL/GUI/lvgl/src/draw/sw/lv_draw_sw_fill.c ****                     else blend_dsc.opa = LV_OPA_MIX2(grad->opa_map[h - bg_coords.y1], opa);
 999              		.loc 1 301 72 discriminator 1 view .LVU368
 1000 0420 D35C     		ldrb	r3, [r2, r3]	@ zero_extendqisi2
 301:../../Middlewares/LVGL/GUI/lvgl/src/draw/sw/lv_draw_sw_fill.c ****                     else blend_dsc.opa = LV_OPA_MIX2(grad->opa_map[h - bg_coords.y1], opa);
 1001              		.loc 1 301 57 discriminator 1 view .LVU369
 1002 0422 8DF87C30 		strb	r3, [sp, #124]
 1003 0426 DDE7     		b	.L46
 1004              	.L76:
 301:../../Middlewares/LVGL/GUI/lvgl/src/draw/sw/lv_draw_sw_fill.c ****                     else blend_dsc.opa = LV_OPA_MIX2(grad->opa_map[h - bg_coords.y1], opa);
 1005              		.loc 1 301 57 discriminator 1 view .LVU370
 1006 0428 B346     		mov	fp, r6
 1007              	.LVL88:
 1008              	.L38:
 301:../../Middlewares/LVGL/GUI/lvgl/src/draw/sw/lv_draw_sw_fill.c ****                     else blend_dsc.opa = LV_OPA_MIX2(grad->opa_map[h - bg_coords.y1], opa);
 1009              		.loc 1 301 57 discriminator 1 view .LVU371
 1010              	.LBE21:
 322:../../Middlewares/LVGL/GUI/lvgl/src/draw/sw/lv_draw_sw_fill.c ****         lv_free(mask_buf);
 1011              		.loc 1 322 5 is_stmt 1 view .LVU372
 322:../../Middlewares/LVGL/GUI/lvgl/src/draw/sw/lv_draw_sw_fill.c ****         lv_free(mask_buf);
 1012              		.loc 1 322 7 is_stmt 0 view .LVU373
ARM GAS  C:\Users\28576\AppData\Local\Temp\ccmStJbf.s 			page 33


 1013 042a B8F1000F 		cmp	r8, #0
 1014 042e 05D0     		beq	.L51
 323:../../Middlewares/LVGL/GUI/lvgl/src/draw/sw/lv_draw_sw_fill.c ****         lv_draw_sw_mask_free_param(&mask_rout_param);
 1015              		.loc 1 323 9 is_stmt 1 view .LVU374
 1016 0430 4046     		mov	r0, r8
 1017 0432 FFF7FEFF 		bl	lv_free
 1018              	.LVL89:
 324:../../Middlewares/LVGL/GUI/lvgl/src/draw/sw/lv_draw_sw_fill.c ****     }
 1019              		.loc 1 324 9 view .LVU375
 1020 0436 11A8     		add	r0, sp, #68
 1021 0438 FFF7FEFF 		bl	lv_draw_sw_mask_free_param
 1022              	.LVL90:
 1023              	.L51:
 326:../../Middlewares/LVGL/GUI/lvgl/src/draw/sw/lv_draw_sw_fill.c ****         lv_draw_sw_grad_cleanup(grad);
 1024              		.loc 1 326 5 view .LVU376
 326:../../Middlewares/LVGL/GUI/lvgl/src/draw/sw/lv_draw_sw_fill.c ****         lv_draw_sw_grad_cleanup(grad);
 1025              		.loc 1 326 7 is_stmt 0 view .LVU377
 1026 043c BBF1000F 		cmp	fp, #0
 1027 0440 3FF4E6AD 		beq	.L1
 327:../../Middlewares/LVGL/GUI/lvgl/src/draw/sw/lv_draw_sw_fill.c ****     }
 1028              		.loc 1 327 9 is_stmt 1 view .LVU378
 1029 0444 5846     		mov	r0, fp
 1030 0446 FFF7FEFF 		bl	lv_draw_sw_grad_cleanup
 1031              	.LVL91:
 1032 044a E1E5     		b	.L1
 1033              		.cfi_endproc
 1034              	.LFE187:
 1036              		.text
 1037              	.Letext0:
 1038              		.file 3 "C:/Users/28576/AppData/Roaming/xPacks/@xpack-dev-tools/arm-none-eabi-gcc/15.2.1-1.1.1/.co
 1039              		.file 4 "C:/Users/28576/AppData/Roaming/xPacks/@xpack-dev-tools/arm-none-eabi-gcc/15.2.1-1.1.1/.co
 1040              		.file 5 "C:/Users/28576/AppData/Roaming/xPacks/@xpack-dev-tools/arm-none-eabi-gcc/15.2.1-1.1.1/.co
 1041              		.file 6 "../../Middlewares/LVGL/GUI/lvgl/src/draw/sw/../../misc/lv_types.h"
 1042              		.file 7 "../../Middlewares/LVGL/GUI/lvgl/src/draw/sw/../lv_draw.h"
 1043              		.file 8 "../../Middlewares/LVGL/GUI/lvgl/src/draw/sw/../lv_draw_private.h"
 1044              		.file 9 "../../Middlewares/LVGL/GUI/lvgl/src/draw/sw/lv_draw_sw_mask_private.h"
 1045              		.file 10 "../../Middlewares/LVGL/GUI/lvgl/src/draw/sw/blend/lv_draw_sw_blend_private.h"
 1046              		.file 11 "H:/STM32H7/RGB_LVGL/Middlewares/LVGL/GUI/lvgl/src/draw/lv_draw_buf.h"
 1047              		.file 12 "../../Middlewares/LVGL/GUI/lvgl/src/draw/sw/../../misc/lv_color.h"
 1048              		.file 13 "../../Middlewares/LVGL/GUI/lvgl/src/draw/sw/lv_draw_sw_mask.h"
 1049              		.file 14 "H:/STM32H7/RGB_LVGL/Middlewares/LVGL/GUI/lvgl/src/draw/lv_image_dsc.h"
 1050              		.file 15 "../../Middlewares/LVGL/GUI/lvgl/src/draw/sw/../../misc/lv_grad.h"
 1051              		.file 16 "../../Middlewares/LVGL/GUI/lvgl/src/draw/sw/../../misc/lv_style.h"
 1052              		.file 17 "../../Middlewares/LVGL/GUI/lvgl/src/draw/sw/../lv_draw_rect.h"
 1053              		.file 18 "../../Middlewares/LVGL/GUI/lvgl/src/draw/sw/lv_draw_sw_grad.h"
 1054              		.file 19 "H:/STM32H7/RGB_LVGL/Middlewares/LVGL/GUI/lvgl/src/stdlib/lv_mem.h"
 1055              		.file 20 "H:/STM32H7/RGB_LVGL/Middlewares/LVGL/GUI/lvgl/src/stdlib/lv_string.h"
 1056              		.file 21 "../../Middlewares/LVGL/GUI/lvgl/src/draw/sw/blend/lv_draw_sw_blend.h"
 1057              		.file 22 "../../Middlewares/LVGL/GUI/lvgl/src/draw/sw/../../misc/lv_area_private.h"
 1058              		.file 23 "<built-in>"
ARM GAS  C:\Users\28576\AppData\Local\Temp\ccmStJbf.s 			page 34

