ARM GAS  C:\Users\28576\AppData\Local\Temp\ccjLWieG.s 			page 1


   1              		.cpu cortex-m7
   2              		.arch armv7e-m
   3              		.fpu fpv5-d16
   4              		.eabi_attribute 28, 1
   5              		.eabi_attribute 20, 1
   6              		.eabi_attribute 21, 1
   7              		.eabi_attribute 23, 3
   8              		.eabi_attribute 24, 1
   9              		.eabi_attribute 25, 1
  10              		.eabi_attribute 26, 1
  11              		.eabi_attribute 30, 1
  12              		.eabi_attribute 34, 1
  13              		.eabi_attribute 18, 4
  14              		.file	"lv_draw_buf.c"
  15              		.text
  16              	.Ltext0:
  17              		.cfi_sections	.debug_frame
  18              		.file 1 "../../Middlewares/LVGL/GUI/lvgl/src/draw/lv_draw_buf.c"
  19              		.section	.text.buf_align,"ax",%progbits
  20              		.align	1
  21              		.syntax unified
  22              		.thumb
  23              		.thumb_func
  25              	buf_align:
  26              	.LVL0:
  27              	.LFB221:
   1:../../Middlewares/LVGL/GUI/lvgl/src/draw/lv_draw_buf.c **** /**
   2:../../Middlewares/LVGL/GUI/lvgl/src/draw/lv_draw_buf.c ****  * @file lv_draw_buf.c
   3:../../Middlewares/LVGL/GUI/lvgl/src/draw/lv_draw_buf.c ****  *
   4:../../Middlewares/LVGL/GUI/lvgl/src/draw/lv_draw_buf.c ****  */
   5:../../Middlewares/LVGL/GUI/lvgl/src/draw/lv_draw_buf.c **** 
   6:../../Middlewares/LVGL/GUI/lvgl/src/draw/lv_draw_buf.c **** /*********************
   7:../../Middlewares/LVGL/GUI/lvgl/src/draw/lv_draw_buf.c ****  *      INCLUDES
   8:../../Middlewares/LVGL/GUI/lvgl/src/draw/lv_draw_buf.c ****  *********************/
   9:../../Middlewares/LVGL/GUI/lvgl/src/draw/lv_draw_buf.c **** #include "lv_draw_buf_private.h"
  10:../../Middlewares/LVGL/GUI/lvgl/src/draw/lv_draw_buf.c **** #include "../misc/lv_types.h"
  11:../../Middlewares/LVGL/GUI/lvgl/src/draw/lv_draw_buf.c **** #include "../stdlib/lv_string.h"
  12:../../Middlewares/LVGL/GUI/lvgl/src/draw/lv_draw_buf.c **** #include "../core/lv_global.h"
  13:../../Middlewares/LVGL/GUI/lvgl/src/draw/lv_draw_buf.c **** #include "../misc/lv_math.h"
  14:../../Middlewares/LVGL/GUI/lvgl/src/draw/lv_draw_buf.c **** #include "../misc/lv_area_private.h"
  15:../../Middlewares/LVGL/GUI/lvgl/src/draw/lv_draw_buf.c **** 
  16:../../Middlewares/LVGL/GUI/lvgl/src/draw/lv_draw_buf.c **** /*********************
  17:../../Middlewares/LVGL/GUI/lvgl/src/draw/lv_draw_buf.c ****  *      DEFINES
  18:../../Middlewares/LVGL/GUI/lvgl/src/draw/lv_draw_buf.c ****  *********************/
  19:../../Middlewares/LVGL/GUI/lvgl/src/draw/lv_draw_buf.c **** #define default_handlers LV_GLOBAL_DEFAULT()->draw_buf_handlers
  20:../../Middlewares/LVGL/GUI/lvgl/src/draw/lv_draw_buf.c **** #define font_draw_buf_handlers LV_GLOBAL_DEFAULT()->font_draw_buf_handlers
  21:../../Middlewares/LVGL/GUI/lvgl/src/draw/lv_draw_buf.c **** #define image_cache_draw_buf_handlers LV_GLOBAL_DEFAULT()->image_cache_draw_buf_handlers
  22:../../Middlewares/LVGL/GUI/lvgl/src/draw/lv_draw_buf.c **** 
  23:../../Middlewares/LVGL/GUI/lvgl/src/draw/lv_draw_buf.c **** /**********************
  24:../../Middlewares/LVGL/GUI/lvgl/src/draw/lv_draw_buf.c ****  *      TYPEDEFS
  25:../../Middlewares/LVGL/GUI/lvgl/src/draw/lv_draw_buf.c ****  **********************/
  26:../../Middlewares/LVGL/GUI/lvgl/src/draw/lv_draw_buf.c **** 
  27:../../Middlewares/LVGL/GUI/lvgl/src/draw/lv_draw_buf.c **** /**********************
  28:../../Middlewares/LVGL/GUI/lvgl/src/draw/lv_draw_buf.c ****  *  STATIC PROTOTYPES
  29:../../Middlewares/LVGL/GUI/lvgl/src/draw/lv_draw_buf.c ****  **********************/
  30:../../Middlewares/LVGL/GUI/lvgl/src/draw/lv_draw_buf.c **** static void * buf_malloc(size_t size, lv_color_format_t color_format);
  31:../../Middlewares/LVGL/GUI/lvgl/src/draw/lv_draw_buf.c **** static void buf_free(void * buf);
ARM GAS  C:\Users\28576\AppData\Local\Temp\ccjLWieG.s 			page 2


  32:../../Middlewares/LVGL/GUI/lvgl/src/draw/lv_draw_buf.c **** static void * buf_align(void * buf, lv_color_format_t color_format);
  33:../../Middlewares/LVGL/GUI/lvgl/src/draw/lv_draw_buf.c **** static void * draw_buf_malloc(const lv_draw_buf_handlers_t * handler, size_t size_bytes,
  34:../../Middlewares/LVGL/GUI/lvgl/src/draw/lv_draw_buf.c ****                               lv_color_format_t color_format);
  35:../../Middlewares/LVGL/GUI/lvgl/src/draw/lv_draw_buf.c **** static void draw_buf_free(const lv_draw_buf_handlers_t * handler, void * buf);
  36:../../Middlewares/LVGL/GUI/lvgl/src/draw/lv_draw_buf.c **** static uint32_t width_to_stride(uint32_t w, lv_color_format_t color_format);
  37:../../Middlewares/LVGL/GUI/lvgl/src/draw/lv_draw_buf.c **** static uint32_t _calculate_draw_buf_size(uint32_t w, uint32_t h, lv_color_format_t cf, uint32_t str
  38:../../Middlewares/LVGL/GUI/lvgl/src/draw/lv_draw_buf.c **** static void draw_buf_get_full_area(const lv_draw_buf_t * draw_buf, lv_area_t * full_area);
  39:../../Middlewares/LVGL/GUI/lvgl/src/draw/lv_draw_buf.c **** 
  40:../../Middlewares/LVGL/GUI/lvgl/src/draw/lv_draw_buf.c **** /**********************
  41:../../Middlewares/LVGL/GUI/lvgl/src/draw/lv_draw_buf.c ****  *  STATIC VARIABLES
  42:../../Middlewares/LVGL/GUI/lvgl/src/draw/lv_draw_buf.c ****  **********************/
  43:../../Middlewares/LVGL/GUI/lvgl/src/draw/lv_draw_buf.c **** 
  44:../../Middlewares/LVGL/GUI/lvgl/src/draw/lv_draw_buf.c **** /**********************
  45:../../Middlewares/LVGL/GUI/lvgl/src/draw/lv_draw_buf.c ****  *      MACROS
  46:../../Middlewares/LVGL/GUI/lvgl/src/draw/lv_draw_buf.c ****  **********************/
  47:../../Middlewares/LVGL/GUI/lvgl/src/draw/lv_draw_buf.c **** 
  48:../../Middlewares/LVGL/GUI/lvgl/src/draw/lv_draw_buf.c **** /**********************
  49:../../Middlewares/LVGL/GUI/lvgl/src/draw/lv_draw_buf.c ****  *   GLOBAL FUNCTIONS
  50:../../Middlewares/LVGL/GUI/lvgl/src/draw/lv_draw_buf.c ****  **********************/
  51:../../Middlewares/LVGL/GUI/lvgl/src/draw/lv_draw_buf.c **** 
  52:../../Middlewares/LVGL/GUI/lvgl/src/draw/lv_draw_buf.c **** void lv_draw_buf_init_handlers(void)
  53:../../Middlewares/LVGL/GUI/lvgl/src/draw/lv_draw_buf.c **** {
  54:../../Middlewares/LVGL/GUI/lvgl/src/draw/lv_draw_buf.c ****     lv_draw_buf_init_with_default_handlers(&default_handlers);
  55:../../Middlewares/LVGL/GUI/lvgl/src/draw/lv_draw_buf.c ****     lv_draw_buf_init_with_default_handlers(&font_draw_buf_handlers);
  56:../../Middlewares/LVGL/GUI/lvgl/src/draw/lv_draw_buf.c ****     lv_draw_buf_init_with_default_handlers(&image_cache_draw_buf_handlers);
  57:../../Middlewares/LVGL/GUI/lvgl/src/draw/lv_draw_buf.c **** }
  58:../../Middlewares/LVGL/GUI/lvgl/src/draw/lv_draw_buf.c **** 
  59:../../Middlewares/LVGL/GUI/lvgl/src/draw/lv_draw_buf.c **** void lv_draw_buf_init_with_default_handlers(lv_draw_buf_handlers_t * handlers)
  60:../../Middlewares/LVGL/GUI/lvgl/src/draw/lv_draw_buf.c **** {
  61:../../Middlewares/LVGL/GUI/lvgl/src/draw/lv_draw_buf.c ****     lv_draw_buf_handlers_init(handlers, buf_malloc, buf_free, buf_align, NULL, NULL, width_to_strid
  62:../../Middlewares/LVGL/GUI/lvgl/src/draw/lv_draw_buf.c **** }
  63:../../Middlewares/LVGL/GUI/lvgl/src/draw/lv_draw_buf.c **** 
  64:../../Middlewares/LVGL/GUI/lvgl/src/draw/lv_draw_buf.c **** void lv_draw_buf_handlers_init(lv_draw_buf_handlers_t * handlers,
  65:../../Middlewares/LVGL/GUI/lvgl/src/draw/lv_draw_buf.c ****                                lv_draw_buf_malloc_cb buf_malloc_cb,
  66:../../Middlewares/LVGL/GUI/lvgl/src/draw/lv_draw_buf.c ****                                lv_draw_buf_free_cb buf_free_cb,
  67:../../Middlewares/LVGL/GUI/lvgl/src/draw/lv_draw_buf.c ****                                lv_draw_buf_align_cb align_pointer_cb,
  68:../../Middlewares/LVGL/GUI/lvgl/src/draw/lv_draw_buf.c ****                                lv_draw_buf_cache_operation_cb invalidate_cache_cb,
  69:../../Middlewares/LVGL/GUI/lvgl/src/draw/lv_draw_buf.c ****                                lv_draw_buf_cache_operation_cb flush_cache_cb,
  70:../../Middlewares/LVGL/GUI/lvgl/src/draw/lv_draw_buf.c ****                                lv_draw_buf_width_to_stride_cb width_to_stride_cb)
  71:../../Middlewares/LVGL/GUI/lvgl/src/draw/lv_draw_buf.c **** {
  72:../../Middlewares/LVGL/GUI/lvgl/src/draw/lv_draw_buf.c ****     lv_memzero(handlers, sizeof(lv_draw_buf_handlers_t));
  73:../../Middlewares/LVGL/GUI/lvgl/src/draw/lv_draw_buf.c ****     handlers->buf_malloc_cb = buf_malloc_cb;
  74:../../Middlewares/LVGL/GUI/lvgl/src/draw/lv_draw_buf.c ****     handlers->buf_free_cb = buf_free_cb;
  75:../../Middlewares/LVGL/GUI/lvgl/src/draw/lv_draw_buf.c ****     handlers->align_pointer_cb = align_pointer_cb;
  76:../../Middlewares/LVGL/GUI/lvgl/src/draw/lv_draw_buf.c ****     handlers->invalidate_cache_cb = invalidate_cache_cb;
  77:../../Middlewares/LVGL/GUI/lvgl/src/draw/lv_draw_buf.c ****     handlers->flush_cache_cb = flush_cache_cb;
  78:../../Middlewares/LVGL/GUI/lvgl/src/draw/lv_draw_buf.c ****     handlers->width_to_stride_cb = width_to_stride_cb;
  79:../../Middlewares/LVGL/GUI/lvgl/src/draw/lv_draw_buf.c **** }
  80:../../Middlewares/LVGL/GUI/lvgl/src/draw/lv_draw_buf.c **** 
  81:../../Middlewares/LVGL/GUI/lvgl/src/draw/lv_draw_buf.c **** lv_draw_buf_handlers_t * lv_draw_buf_get_handlers(void)
  82:../../Middlewares/LVGL/GUI/lvgl/src/draw/lv_draw_buf.c **** {
  83:../../Middlewares/LVGL/GUI/lvgl/src/draw/lv_draw_buf.c ****     return &default_handlers;
  84:../../Middlewares/LVGL/GUI/lvgl/src/draw/lv_draw_buf.c **** }
  85:../../Middlewares/LVGL/GUI/lvgl/src/draw/lv_draw_buf.c **** 
  86:../../Middlewares/LVGL/GUI/lvgl/src/draw/lv_draw_buf.c **** lv_draw_buf_handlers_t * lv_draw_buf_get_font_handlers(void)
  87:../../Middlewares/LVGL/GUI/lvgl/src/draw/lv_draw_buf.c **** {
  88:../../Middlewares/LVGL/GUI/lvgl/src/draw/lv_draw_buf.c ****     return &font_draw_buf_handlers;
ARM GAS  C:\Users\28576\AppData\Local\Temp\ccjLWieG.s 			page 3


  89:../../Middlewares/LVGL/GUI/lvgl/src/draw/lv_draw_buf.c **** }
  90:../../Middlewares/LVGL/GUI/lvgl/src/draw/lv_draw_buf.c **** 
  91:../../Middlewares/LVGL/GUI/lvgl/src/draw/lv_draw_buf.c **** lv_draw_buf_handlers_t * lv_draw_buf_get_image_handlers(void)
  92:../../Middlewares/LVGL/GUI/lvgl/src/draw/lv_draw_buf.c **** {
  93:../../Middlewares/LVGL/GUI/lvgl/src/draw/lv_draw_buf.c ****     return &image_cache_draw_buf_handlers;
  94:../../Middlewares/LVGL/GUI/lvgl/src/draw/lv_draw_buf.c **** }
  95:../../Middlewares/LVGL/GUI/lvgl/src/draw/lv_draw_buf.c **** 
  96:../../Middlewares/LVGL/GUI/lvgl/src/draw/lv_draw_buf.c **** uint32_t lv_draw_buf_width_to_stride(uint32_t w, lv_color_format_t color_format)
  97:../../Middlewares/LVGL/GUI/lvgl/src/draw/lv_draw_buf.c **** {
  98:../../Middlewares/LVGL/GUI/lvgl/src/draw/lv_draw_buf.c ****     return lv_draw_buf_width_to_stride_ex(&default_handlers, w, color_format);
  99:../../Middlewares/LVGL/GUI/lvgl/src/draw/lv_draw_buf.c **** }
 100:../../Middlewares/LVGL/GUI/lvgl/src/draw/lv_draw_buf.c **** 
 101:../../Middlewares/LVGL/GUI/lvgl/src/draw/lv_draw_buf.c **** uint32_t lv_draw_buf_width_to_stride_ex(const lv_draw_buf_handlers_t * handlers, uint32_t w,
 102:../../Middlewares/LVGL/GUI/lvgl/src/draw/lv_draw_buf.c ****                                         lv_color_format_t color_format)
 103:../../Middlewares/LVGL/GUI/lvgl/src/draw/lv_draw_buf.c **** {
 104:../../Middlewares/LVGL/GUI/lvgl/src/draw/lv_draw_buf.c ****     if(handlers->width_to_stride_cb) return handlers->width_to_stride_cb(w, color_format);
 105:../../Middlewares/LVGL/GUI/lvgl/src/draw/lv_draw_buf.c ****     else return 0;
 106:../../Middlewares/LVGL/GUI/lvgl/src/draw/lv_draw_buf.c **** }
 107:../../Middlewares/LVGL/GUI/lvgl/src/draw/lv_draw_buf.c **** 
 108:../../Middlewares/LVGL/GUI/lvgl/src/draw/lv_draw_buf.c **** void * lv_draw_buf_align(void * data, lv_color_format_t color_format)
 109:../../Middlewares/LVGL/GUI/lvgl/src/draw/lv_draw_buf.c **** {
 110:../../Middlewares/LVGL/GUI/lvgl/src/draw/lv_draw_buf.c ****     return lv_draw_buf_align_ex(&default_handlers, data, color_format);
 111:../../Middlewares/LVGL/GUI/lvgl/src/draw/lv_draw_buf.c **** }
 112:../../Middlewares/LVGL/GUI/lvgl/src/draw/lv_draw_buf.c **** 
 113:../../Middlewares/LVGL/GUI/lvgl/src/draw/lv_draw_buf.c **** void * lv_draw_buf_align_ex(const lv_draw_buf_handlers_t * handlers, void * data, lv_color_format_t
 114:../../Middlewares/LVGL/GUI/lvgl/src/draw/lv_draw_buf.c **** {
 115:../../Middlewares/LVGL/GUI/lvgl/src/draw/lv_draw_buf.c ****     if(handlers->align_pointer_cb) return handlers->align_pointer_cb(data, color_format);
 116:../../Middlewares/LVGL/GUI/lvgl/src/draw/lv_draw_buf.c ****     else return NULL;
 117:../../Middlewares/LVGL/GUI/lvgl/src/draw/lv_draw_buf.c **** }
 118:../../Middlewares/LVGL/GUI/lvgl/src/draw/lv_draw_buf.c **** 
 119:../../Middlewares/LVGL/GUI/lvgl/src/draw/lv_draw_buf.c **** void lv_draw_buf_invalidate_cache(const lv_draw_buf_t * draw_buf, const lv_area_t * area)
 120:../../Middlewares/LVGL/GUI/lvgl/src/draw/lv_draw_buf.c **** {
 121:../../Middlewares/LVGL/GUI/lvgl/src/draw/lv_draw_buf.c ****     LV_ASSERT_NULL(draw_buf);
 122:../../Middlewares/LVGL/GUI/lvgl/src/draw/lv_draw_buf.c ****     LV_ASSERT_NULL(draw_buf->handlers);
 123:../../Middlewares/LVGL/GUI/lvgl/src/draw/lv_draw_buf.c **** 
 124:../../Middlewares/LVGL/GUI/lvgl/src/draw/lv_draw_buf.c ****     const lv_draw_buf_handlers_t * handlers = draw_buf->handlers;
 125:../../Middlewares/LVGL/GUI/lvgl/src/draw/lv_draw_buf.c ****     if(!handlers->invalidate_cache_cb) {
 126:../../Middlewares/LVGL/GUI/lvgl/src/draw/lv_draw_buf.c ****         return;
 127:../../Middlewares/LVGL/GUI/lvgl/src/draw/lv_draw_buf.c ****     }
 128:../../Middlewares/LVGL/GUI/lvgl/src/draw/lv_draw_buf.c **** 
 129:../../Middlewares/LVGL/GUI/lvgl/src/draw/lv_draw_buf.c ****     LV_PROFILER_DRAW_BEGIN;
 130:../../Middlewares/LVGL/GUI/lvgl/src/draw/lv_draw_buf.c **** 
 131:../../Middlewares/LVGL/GUI/lvgl/src/draw/lv_draw_buf.c ****     lv_area_t full;
 132:../../Middlewares/LVGL/GUI/lvgl/src/draw/lv_draw_buf.c ****     if(area == NULL) {
 133:../../Middlewares/LVGL/GUI/lvgl/src/draw/lv_draw_buf.c ****         draw_buf_get_full_area(draw_buf, &full);
 134:../../Middlewares/LVGL/GUI/lvgl/src/draw/lv_draw_buf.c ****         area = &full;
 135:../../Middlewares/LVGL/GUI/lvgl/src/draw/lv_draw_buf.c ****     }
 136:../../Middlewares/LVGL/GUI/lvgl/src/draw/lv_draw_buf.c **** 
 137:../../Middlewares/LVGL/GUI/lvgl/src/draw/lv_draw_buf.c ****     handlers->invalidate_cache_cb(draw_buf, area);
 138:../../Middlewares/LVGL/GUI/lvgl/src/draw/lv_draw_buf.c ****     LV_PROFILER_DRAW_END;
 139:../../Middlewares/LVGL/GUI/lvgl/src/draw/lv_draw_buf.c **** }
 140:../../Middlewares/LVGL/GUI/lvgl/src/draw/lv_draw_buf.c **** 
 141:../../Middlewares/LVGL/GUI/lvgl/src/draw/lv_draw_buf.c **** void lv_draw_buf_flush_cache(const lv_draw_buf_t * draw_buf, const lv_area_t * area)
 142:../../Middlewares/LVGL/GUI/lvgl/src/draw/lv_draw_buf.c **** {
 143:../../Middlewares/LVGL/GUI/lvgl/src/draw/lv_draw_buf.c ****     LV_ASSERT_NULL(draw_buf);
 144:../../Middlewares/LVGL/GUI/lvgl/src/draw/lv_draw_buf.c ****     LV_ASSERT_NULL(draw_buf->handlers);
 145:../../Middlewares/LVGL/GUI/lvgl/src/draw/lv_draw_buf.c **** 
ARM GAS  C:\Users\28576\AppData\Local\Temp\ccjLWieG.s 			page 4


 146:../../Middlewares/LVGL/GUI/lvgl/src/draw/lv_draw_buf.c ****     const lv_draw_buf_handlers_t * handlers = draw_buf->handlers;
 147:../../Middlewares/LVGL/GUI/lvgl/src/draw/lv_draw_buf.c ****     if(!handlers->flush_cache_cb) {
 148:../../Middlewares/LVGL/GUI/lvgl/src/draw/lv_draw_buf.c ****         return;
 149:../../Middlewares/LVGL/GUI/lvgl/src/draw/lv_draw_buf.c ****     }
 150:../../Middlewares/LVGL/GUI/lvgl/src/draw/lv_draw_buf.c **** 
 151:../../Middlewares/LVGL/GUI/lvgl/src/draw/lv_draw_buf.c ****     LV_PROFILER_DRAW_BEGIN;
 152:../../Middlewares/LVGL/GUI/lvgl/src/draw/lv_draw_buf.c **** 
 153:../../Middlewares/LVGL/GUI/lvgl/src/draw/lv_draw_buf.c ****     lv_area_t full;
 154:../../Middlewares/LVGL/GUI/lvgl/src/draw/lv_draw_buf.c ****     if(area == NULL) {
 155:../../Middlewares/LVGL/GUI/lvgl/src/draw/lv_draw_buf.c ****         draw_buf_get_full_area(draw_buf, &full);
 156:../../Middlewares/LVGL/GUI/lvgl/src/draw/lv_draw_buf.c ****         area = &full;
 157:../../Middlewares/LVGL/GUI/lvgl/src/draw/lv_draw_buf.c ****     }
 158:../../Middlewares/LVGL/GUI/lvgl/src/draw/lv_draw_buf.c **** 
 159:../../Middlewares/LVGL/GUI/lvgl/src/draw/lv_draw_buf.c ****     handlers->flush_cache_cb(draw_buf, area);
 160:../../Middlewares/LVGL/GUI/lvgl/src/draw/lv_draw_buf.c ****     LV_PROFILER_DRAW_END;
 161:../../Middlewares/LVGL/GUI/lvgl/src/draw/lv_draw_buf.c **** }
 162:../../Middlewares/LVGL/GUI/lvgl/src/draw/lv_draw_buf.c **** 
 163:../../Middlewares/LVGL/GUI/lvgl/src/draw/lv_draw_buf.c **** void lv_draw_buf_clear(lv_draw_buf_t * draw_buf, const lv_area_t * a)
 164:../../Middlewares/LVGL/GUI/lvgl/src/draw/lv_draw_buf.c **** {
 165:../../Middlewares/LVGL/GUI/lvgl/src/draw/lv_draw_buf.c ****     LV_ASSERT_NULL(draw_buf);
 166:../../Middlewares/LVGL/GUI/lvgl/src/draw/lv_draw_buf.c ****     LV_PROFILER_DRAW_BEGIN;
 167:../../Middlewares/LVGL/GUI/lvgl/src/draw/lv_draw_buf.c **** 
 168:../../Middlewares/LVGL/GUI/lvgl/src/draw/lv_draw_buf.c ****     const lv_image_header_t * header = &draw_buf->header;
 169:../../Middlewares/LVGL/GUI/lvgl/src/draw/lv_draw_buf.c ****     uint32_t stride = header->stride;
 170:../../Middlewares/LVGL/GUI/lvgl/src/draw/lv_draw_buf.c **** 
 171:../../Middlewares/LVGL/GUI/lvgl/src/draw/lv_draw_buf.c ****     if(a == NULL) {
 172:../../Middlewares/LVGL/GUI/lvgl/src/draw/lv_draw_buf.c ****         uint8_t * buf = lv_draw_buf_goto_xy(draw_buf, 0, 0);
 173:../../Middlewares/LVGL/GUI/lvgl/src/draw/lv_draw_buf.c ****         lv_memzero(buf, header->h * stride);
 174:../../Middlewares/LVGL/GUI/lvgl/src/draw/lv_draw_buf.c ****         lv_draw_buf_flush_cache(draw_buf, a);
 175:../../Middlewares/LVGL/GUI/lvgl/src/draw/lv_draw_buf.c ****         LV_PROFILER_DRAW_END;
 176:../../Middlewares/LVGL/GUI/lvgl/src/draw/lv_draw_buf.c ****         return;
 177:../../Middlewares/LVGL/GUI/lvgl/src/draw/lv_draw_buf.c ****     }
 178:../../Middlewares/LVGL/GUI/lvgl/src/draw/lv_draw_buf.c **** 
 179:../../Middlewares/LVGL/GUI/lvgl/src/draw/lv_draw_buf.c ****     lv_area_t a_draw_buf;
 180:../../Middlewares/LVGL/GUI/lvgl/src/draw/lv_draw_buf.c ****     a_draw_buf.x1 = 0;
 181:../../Middlewares/LVGL/GUI/lvgl/src/draw/lv_draw_buf.c ****     a_draw_buf.y1 = 0;
 182:../../Middlewares/LVGL/GUI/lvgl/src/draw/lv_draw_buf.c ****     a_draw_buf.x2 = draw_buf->header.w - 1;
 183:../../Middlewares/LVGL/GUI/lvgl/src/draw/lv_draw_buf.c ****     a_draw_buf.y2 = draw_buf->header.h - 1;
 184:../../Middlewares/LVGL/GUI/lvgl/src/draw/lv_draw_buf.c **** 
 185:../../Middlewares/LVGL/GUI/lvgl/src/draw/lv_draw_buf.c ****     lv_area_t a_clipped;
 186:../../Middlewares/LVGL/GUI/lvgl/src/draw/lv_draw_buf.c ****     if(!lv_area_intersect(&a_clipped, a, &a_draw_buf)) {
 187:../../Middlewares/LVGL/GUI/lvgl/src/draw/lv_draw_buf.c ****         LV_PROFILER_DRAW_END;
 188:../../Middlewares/LVGL/GUI/lvgl/src/draw/lv_draw_buf.c ****         return;
 189:../../Middlewares/LVGL/GUI/lvgl/src/draw/lv_draw_buf.c ****     }
 190:../../Middlewares/LVGL/GUI/lvgl/src/draw/lv_draw_buf.c **** 
 191:../../Middlewares/LVGL/GUI/lvgl/src/draw/lv_draw_buf.c ****     if(lv_area_get_width(&a_clipped) <= 0) {
 192:../../Middlewares/LVGL/GUI/lvgl/src/draw/lv_draw_buf.c ****         LV_PROFILER_DRAW_END;
 193:../../Middlewares/LVGL/GUI/lvgl/src/draw/lv_draw_buf.c ****         return;
 194:../../Middlewares/LVGL/GUI/lvgl/src/draw/lv_draw_buf.c ****     }
 195:../../Middlewares/LVGL/GUI/lvgl/src/draw/lv_draw_buf.c **** 
 196:../../Middlewares/LVGL/GUI/lvgl/src/draw/lv_draw_buf.c ****     if(lv_area_get_height(&a_clipped) <= 0) {
 197:../../Middlewares/LVGL/GUI/lvgl/src/draw/lv_draw_buf.c ****         LV_PROFILER_DRAW_END;
 198:../../Middlewares/LVGL/GUI/lvgl/src/draw/lv_draw_buf.c ****         return;
 199:../../Middlewares/LVGL/GUI/lvgl/src/draw/lv_draw_buf.c ****     }
 200:../../Middlewares/LVGL/GUI/lvgl/src/draw/lv_draw_buf.c **** 
 201:../../Middlewares/LVGL/GUI/lvgl/src/draw/lv_draw_buf.c ****     uint8_t * buf = lv_draw_buf_goto_xy(draw_buf, a_clipped.x1, a_clipped.y1);
 202:../../Middlewares/LVGL/GUI/lvgl/src/draw/lv_draw_buf.c ****     uint8_t bpp = lv_color_format_get_bpp(header->cf);
ARM GAS  C:\Users\28576\AppData\Local\Temp\ccjLWieG.s 			page 5


 203:../../Middlewares/LVGL/GUI/lvgl/src/draw/lv_draw_buf.c ****     uint32_t line_length = (lv_area_get_width(&a_clipped) * bpp + 7) >> 3;
 204:../../Middlewares/LVGL/GUI/lvgl/src/draw/lv_draw_buf.c ****     int32_t y;
 205:../../Middlewares/LVGL/GUI/lvgl/src/draw/lv_draw_buf.c ****     for(y = a_clipped.y1; y <= a_clipped.y2; y++) {
 206:../../Middlewares/LVGL/GUI/lvgl/src/draw/lv_draw_buf.c ****         lv_memzero(buf, line_length);
 207:../../Middlewares/LVGL/GUI/lvgl/src/draw/lv_draw_buf.c ****         buf += stride;
 208:../../Middlewares/LVGL/GUI/lvgl/src/draw/lv_draw_buf.c ****     }
 209:../../Middlewares/LVGL/GUI/lvgl/src/draw/lv_draw_buf.c ****     lv_draw_buf_flush_cache(draw_buf, a);
 210:../../Middlewares/LVGL/GUI/lvgl/src/draw/lv_draw_buf.c ****     LV_PROFILER_DRAW_END;
 211:../../Middlewares/LVGL/GUI/lvgl/src/draw/lv_draw_buf.c **** }
 212:../../Middlewares/LVGL/GUI/lvgl/src/draw/lv_draw_buf.c **** 
 213:../../Middlewares/LVGL/GUI/lvgl/src/draw/lv_draw_buf.c **** void lv_draw_buf_copy(lv_draw_buf_t * dest, const lv_area_t * dest_area,
 214:../../Middlewares/LVGL/GUI/lvgl/src/draw/lv_draw_buf.c ****                       const lv_draw_buf_t * src, const lv_area_t * src_area)
 215:../../Middlewares/LVGL/GUI/lvgl/src/draw/lv_draw_buf.c **** {
 216:../../Middlewares/LVGL/GUI/lvgl/src/draw/lv_draw_buf.c ****     LV_PROFILER_DRAW_BEGIN;
 217:../../Middlewares/LVGL/GUI/lvgl/src/draw/lv_draw_buf.c ****     uint8_t * dest_bufc;
 218:../../Middlewares/LVGL/GUI/lvgl/src/draw/lv_draw_buf.c ****     uint8_t * src_bufc;
 219:../../Middlewares/LVGL/GUI/lvgl/src/draw/lv_draw_buf.c ****     int32_t line_width;
 220:../../Middlewares/LVGL/GUI/lvgl/src/draw/lv_draw_buf.c **** 
 221:../../Middlewares/LVGL/GUI/lvgl/src/draw/lv_draw_buf.c ****     /*Source and dest color format must be same. Color conversion is not supported yet.*/
 222:../../Middlewares/LVGL/GUI/lvgl/src/draw/lv_draw_buf.c ****     LV_ASSERT_FORMAT_MSG(dest->header.cf == src->header.cf, "Color format mismatch: %d != %d",
 223:../../Middlewares/LVGL/GUI/lvgl/src/draw/lv_draw_buf.c ****                          dest->header.cf, src->header.cf);
 224:../../Middlewares/LVGL/GUI/lvgl/src/draw/lv_draw_buf.c **** 
 225:../../Middlewares/LVGL/GUI/lvgl/src/draw/lv_draw_buf.c ****     if(dest_area == NULL) line_width = dest->header.w;
 226:../../Middlewares/LVGL/GUI/lvgl/src/draw/lv_draw_buf.c ****     else line_width = lv_area_get_width(dest_area);
 227:../../Middlewares/LVGL/GUI/lvgl/src/draw/lv_draw_buf.c **** 
 228:../../Middlewares/LVGL/GUI/lvgl/src/draw/lv_draw_buf.c ****     /* For indexed image, copy the palette if we are copying full image area*/
 229:../../Middlewares/LVGL/GUI/lvgl/src/draw/lv_draw_buf.c ****     if(dest_area == NULL || src_area == NULL) {
 230:../../Middlewares/LVGL/GUI/lvgl/src/draw/lv_draw_buf.c ****         if(LV_COLOR_FORMAT_IS_INDEXED(dest->header.cf)) {
 231:../../Middlewares/LVGL/GUI/lvgl/src/draw/lv_draw_buf.c ****             lv_memcpy(dest->data, src->data, LV_COLOR_INDEXED_PALETTE_SIZE(dest->header.cf) * sizeo
 232:../../Middlewares/LVGL/GUI/lvgl/src/draw/lv_draw_buf.c ****         }
 233:../../Middlewares/LVGL/GUI/lvgl/src/draw/lv_draw_buf.c ****     }
 234:../../Middlewares/LVGL/GUI/lvgl/src/draw/lv_draw_buf.c **** 
 235:../../Middlewares/LVGL/GUI/lvgl/src/draw/lv_draw_buf.c ****     /*Check source and dest area have same width*/
 236:../../Middlewares/LVGL/GUI/lvgl/src/draw/lv_draw_buf.c ****     if((src_area == NULL && line_width != src->header.w) || \
 237:../../Middlewares/LVGL/GUI/lvgl/src/draw/lv_draw_buf.c ****        (src_area != NULL && line_width != lv_area_get_width(src_area))) {
 238:../../Middlewares/LVGL/GUI/lvgl/src/draw/lv_draw_buf.c ****         LV_ASSERT_MSG(0, "Source and destination areas have different width");
 239:../../Middlewares/LVGL/GUI/lvgl/src/draw/lv_draw_buf.c ****         LV_PROFILER_DRAW_END;
 240:../../Middlewares/LVGL/GUI/lvgl/src/draw/lv_draw_buf.c ****         return;
 241:../../Middlewares/LVGL/GUI/lvgl/src/draw/lv_draw_buf.c ****     }
 242:../../Middlewares/LVGL/GUI/lvgl/src/draw/lv_draw_buf.c **** 
 243:../../Middlewares/LVGL/GUI/lvgl/src/draw/lv_draw_buf.c ****     if(src_area) src_bufc = lv_draw_buf_goto_xy(src, src_area->x1, src_area->y1);
 244:../../Middlewares/LVGL/GUI/lvgl/src/draw/lv_draw_buf.c ****     else src_bufc = lv_draw_buf_goto_xy(src, 0, 0);
 245:../../Middlewares/LVGL/GUI/lvgl/src/draw/lv_draw_buf.c **** 
 246:../../Middlewares/LVGL/GUI/lvgl/src/draw/lv_draw_buf.c ****     if(dest_area) dest_bufc = lv_draw_buf_goto_xy(dest, dest_area->x1, dest_area->y1);
 247:../../Middlewares/LVGL/GUI/lvgl/src/draw/lv_draw_buf.c ****     else dest_bufc = lv_draw_buf_goto_xy(dest, 0, 0);
 248:../../Middlewares/LVGL/GUI/lvgl/src/draw/lv_draw_buf.c **** 
 249:../../Middlewares/LVGL/GUI/lvgl/src/draw/lv_draw_buf.c ****     int32_t start_y, end_y;
 250:../../Middlewares/LVGL/GUI/lvgl/src/draw/lv_draw_buf.c ****     if(dest_area) {
 251:../../Middlewares/LVGL/GUI/lvgl/src/draw/lv_draw_buf.c ****         start_y = dest_area->y1;
 252:../../Middlewares/LVGL/GUI/lvgl/src/draw/lv_draw_buf.c ****         end_y = dest_area->y2;
 253:../../Middlewares/LVGL/GUI/lvgl/src/draw/lv_draw_buf.c ****     }
 254:../../Middlewares/LVGL/GUI/lvgl/src/draw/lv_draw_buf.c ****     else {
 255:../../Middlewares/LVGL/GUI/lvgl/src/draw/lv_draw_buf.c ****         start_y = 0;
 256:../../Middlewares/LVGL/GUI/lvgl/src/draw/lv_draw_buf.c ****         end_y = dest->header.h - 1;
 257:../../Middlewares/LVGL/GUI/lvgl/src/draw/lv_draw_buf.c ****     }
 258:../../Middlewares/LVGL/GUI/lvgl/src/draw/lv_draw_buf.c **** 
 259:../../Middlewares/LVGL/GUI/lvgl/src/draw/lv_draw_buf.c ****     uint32_t dest_stride = dest->header.stride;
ARM GAS  C:\Users\28576\AppData\Local\Temp\ccjLWieG.s 			page 6


 260:../../Middlewares/LVGL/GUI/lvgl/src/draw/lv_draw_buf.c ****     uint32_t src_stride = src->header.stride;
 261:../../Middlewares/LVGL/GUI/lvgl/src/draw/lv_draw_buf.c ****     uint32_t line_bytes = (line_width * lv_color_format_get_bpp(dest->header.cf) + 7) >> 3;
 262:../../Middlewares/LVGL/GUI/lvgl/src/draw/lv_draw_buf.c **** 
 263:../../Middlewares/LVGL/GUI/lvgl/src/draw/lv_draw_buf.c ****     for(; start_y <= end_y; start_y++) {
 264:../../Middlewares/LVGL/GUI/lvgl/src/draw/lv_draw_buf.c ****         lv_memcpy(dest_bufc, src_bufc, line_bytes);
 265:../../Middlewares/LVGL/GUI/lvgl/src/draw/lv_draw_buf.c ****         dest_bufc += dest_stride;
 266:../../Middlewares/LVGL/GUI/lvgl/src/draw/lv_draw_buf.c ****         src_bufc += src_stride;
 267:../../Middlewares/LVGL/GUI/lvgl/src/draw/lv_draw_buf.c ****     }
 268:../../Middlewares/LVGL/GUI/lvgl/src/draw/lv_draw_buf.c ****     LV_PROFILER_DRAW_END;
 269:../../Middlewares/LVGL/GUI/lvgl/src/draw/lv_draw_buf.c **** }
 270:../../Middlewares/LVGL/GUI/lvgl/src/draw/lv_draw_buf.c **** 
 271:../../Middlewares/LVGL/GUI/lvgl/src/draw/lv_draw_buf.c **** lv_result_t lv_draw_buf_init(lv_draw_buf_t * draw_buf, uint32_t w, uint32_t h, lv_color_format_t cf
 272:../../Middlewares/LVGL/GUI/lvgl/src/draw/lv_draw_buf.c ****                              void * data, uint32_t data_size)
 273:../../Middlewares/LVGL/GUI/lvgl/src/draw/lv_draw_buf.c **** {
 274:../../Middlewares/LVGL/GUI/lvgl/src/draw/lv_draw_buf.c ****     LV_ASSERT_NULL(draw_buf);
 275:../../Middlewares/LVGL/GUI/lvgl/src/draw/lv_draw_buf.c ****     if(draw_buf == NULL) return LV_RESULT_INVALID;
 276:../../Middlewares/LVGL/GUI/lvgl/src/draw/lv_draw_buf.c **** 
 277:../../Middlewares/LVGL/GUI/lvgl/src/draw/lv_draw_buf.c ****     lv_memzero(draw_buf, sizeof(lv_draw_buf_t));
 278:../../Middlewares/LVGL/GUI/lvgl/src/draw/lv_draw_buf.c ****     if(stride == 0) stride = lv_draw_buf_width_to_stride(w, cf);
 279:../../Middlewares/LVGL/GUI/lvgl/src/draw/lv_draw_buf.c ****     if(stride * h > data_size) {
 280:../../Middlewares/LVGL/GUI/lvgl/src/draw/lv_draw_buf.c ****         LV_LOG_WARN("Data size too small, required: %" LV_PRId32 ", provided: %" LV_PRId32, stride 
 281:../../Middlewares/LVGL/GUI/lvgl/src/draw/lv_draw_buf.c ****                     data_size);
 282:../../Middlewares/LVGL/GUI/lvgl/src/draw/lv_draw_buf.c ****         return LV_RESULT_INVALID;
 283:../../Middlewares/LVGL/GUI/lvgl/src/draw/lv_draw_buf.c ****     }
 284:../../Middlewares/LVGL/GUI/lvgl/src/draw/lv_draw_buf.c **** 
 285:../../Middlewares/LVGL/GUI/lvgl/src/draw/lv_draw_buf.c ****     lv_image_header_t * header = &draw_buf->header;
 286:../../Middlewares/LVGL/GUI/lvgl/src/draw/lv_draw_buf.c ****     header->w = w;
 287:../../Middlewares/LVGL/GUI/lvgl/src/draw/lv_draw_buf.c ****     header->h = h;
 288:../../Middlewares/LVGL/GUI/lvgl/src/draw/lv_draw_buf.c ****     header->cf = cf;
 289:../../Middlewares/LVGL/GUI/lvgl/src/draw/lv_draw_buf.c ****     header->stride = stride;
 290:../../Middlewares/LVGL/GUI/lvgl/src/draw/lv_draw_buf.c ****     header->flags = 0;
 291:../../Middlewares/LVGL/GUI/lvgl/src/draw/lv_draw_buf.c ****     header->magic = LV_IMAGE_HEADER_MAGIC;
 292:../../Middlewares/LVGL/GUI/lvgl/src/draw/lv_draw_buf.c **** 
 293:../../Middlewares/LVGL/GUI/lvgl/src/draw/lv_draw_buf.c ****     draw_buf->data = data;
 294:../../Middlewares/LVGL/GUI/lvgl/src/draw/lv_draw_buf.c ****     draw_buf->unaligned_data = data;
 295:../../Middlewares/LVGL/GUI/lvgl/src/draw/lv_draw_buf.c ****     draw_buf->handlers = &default_handlers;
 296:../../Middlewares/LVGL/GUI/lvgl/src/draw/lv_draw_buf.c ****     draw_buf->data_size = data_size;
 297:../../Middlewares/LVGL/GUI/lvgl/src/draw/lv_draw_buf.c ****     if(lv_draw_buf_align(data, cf) != draw_buf->unaligned_data) {
 298:../../Middlewares/LVGL/GUI/lvgl/src/draw/lv_draw_buf.c ****         LV_LOG_WARN("Data is not aligned, ignored");
 299:../../Middlewares/LVGL/GUI/lvgl/src/draw/lv_draw_buf.c ****     }
 300:../../Middlewares/LVGL/GUI/lvgl/src/draw/lv_draw_buf.c ****     return LV_RESULT_OK;
 301:../../Middlewares/LVGL/GUI/lvgl/src/draw/lv_draw_buf.c **** }
 302:../../Middlewares/LVGL/GUI/lvgl/src/draw/lv_draw_buf.c **** 
 303:../../Middlewares/LVGL/GUI/lvgl/src/draw/lv_draw_buf.c **** lv_draw_buf_t * lv_draw_buf_create(uint32_t w, uint32_t h, lv_color_format_t cf, uint32_t stride)
 304:../../Middlewares/LVGL/GUI/lvgl/src/draw/lv_draw_buf.c **** {
 305:../../Middlewares/LVGL/GUI/lvgl/src/draw/lv_draw_buf.c ****     return lv_draw_buf_create_ex(&default_handlers, w, h, cf, stride);
 306:../../Middlewares/LVGL/GUI/lvgl/src/draw/lv_draw_buf.c **** }
 307:../../Middlewares/LVGL/GUI/lvgl/src/draw/lv_draw_buf.c **** 
 308:../../Middlewares/LVGL/GUI/lvgl/src/draw/lv_draw_buf.c **** lv_draw_buf_t * lv_draw_buf_create_ex(const lv_draw_buf_handlers_t * handlers, uint32_t w, uint32_t
 309:../../Middlewares/LVGL/GUI/lvgl/src/draw/lv_draw_buf.c ****                                       lv_color_format_t cf, uint32_t stride)
 310:../../Middlewares/LVGL/GUI/lvgl/src/draw/lv_draw_buf.c **** {
 311:../../Middlewares/LVGL/GUI/lvgl/src/draw/lv_draw_buf.c ****     LV_PROFILER_DRAW_BEGIN;
 312:../../Middlewares/LVGL/GUI/lvgl/src/draw/lv_draw_buf.c ****     lv_draw_buf_t * draw_buf = lv_malloc_zeroed(sizeof(lv_draw_buf_t));
 313:../../Middlewares/LVGL/GUI/lvgl/src/draw/lv_draw_buf.c ****     LV_ASSERT_MALLOC(draw_buf);
 314:../../Middlewares/LVGL/GUI/lvgl/src/draw/lv_draw_buf.c ****     if(draw_buf == NULL) {
 315:../../Middlewares/LVGL/GUI/lvgl/src/draw/lv_draw_buf.c ****         LV_PROFILER_DRAW_END;
 316:../../Middlewares/LVGL/GUI/lvgl/src/draw/lv_draw_buf.c ****         return NULL;
ARM GAS  C:\Users\28576\AppData\Local\Temp\ccjLWieG.s 			page 7


 317:../../Middlewares/LVGL/GUI/lvgl/src/draw/lv_draw_buf.c ****     }
 318:../../Middlewares/LVGL/GUI/lvgl/src/draw/lv_draw_buf.c ****     if(stride == 0) stride = lv_draw_buf_width_to_stride(w, cf);
 319:../../Middlewares/LVGL/GUI/lvgl/src/draw/lv_draw_buf.c **** 
 320:../../Middlewares/LVGL/GUI/lvgl/src/draw/lv_draw_buf.c ****     uint32_t size = _calculate_draw_buf_size(w, h, cf, stride);
 321:../../Middlewares/LVGL/GUI/lvgl/src/draw/lv_draw_buf.c **** 
 322:../../Middlewares/LVGL/GUI/lvgl/src/draw/lv_draw_buf.c ****     void * buf = draw_buf_malloc(handlers, size, cf);
 323:../../Middlewares/LVGL/GUI/lvgl/src/draw/lv_draw_buf.c ****     /*Do not assert here as LVGL or the app might just want to try creating a draw_buf*/
 324:../../Middlewares/LVGL/GUI/lvgl/src/draw/lv_draw_buf.c ****     if(buf == NULL) {
 325:../../Middlewares/LVGL/GUI/lvgl/src/draw/lv_draw_buf.c ****         LV_LOG_WARN("No memory: %"LV_PRIu32"x%"LV_PRIu32", cf: %d, stride: %"LV_PRIu32", %"LV_PRIu3
 326:../../Middlewares/LVGL/GUI/lvgl/src/draw/lv_draw_buf.c ****                     w, h, cf, stride, size);
 327:../../Middlewares/LVGL/GUI/lvgl/src/draw/lv_draw_buf.c ****         lv_free(draw_buf);
 328:../../Middlewares/LVGL/GUI/lvgl/src/draw/lv_draw_buf.c ****         LV_PROFILER_DRAW_END;
 329:../../Middlewares/LVGL/GUI/lvgl/src/draw/lv_draw_buf.c ****         return NULL;
 330:../../Middlewares/LVGL/GUI/lvgl/src/draw/lv_draw_buf.c ****     }
 331:../../Middlewares/LVGL/GUI/lvgl/src/draw/lv_draw_buf.c **** 
 332:../../Middlewares/LVGL/GUI/lvgl/src/draw/lv_draw_buf.c ****     draw_buf->header.w = w;
 333:../../Middlewares/LVGL/GUI/lvgl/src/draw/lv_draw_buf.c ****     draw_buf->header.h = h;
 334:../../Middlewares/LVGL/GUI/lvgl/src/draw/lv_draw_buf.c ****     draw_buf->header.cf = cf;
 335:../../Middlewares/LVGL/GUI/lvgl/src/draw/lv_draw_buf.c ****     draw_buf->header.flags = LV_IMAGE_FLAGS_MODIFIABLE | LV_IMAGE_FLAGS_ALLOCATED;
 336:../../Middlewares/LVGL/GUI/lvgl/src/draw/lv_draw_buf.c ****     draw_buf->header.stride = stride;
 337:../../Middlewares/LVGL/GUI/lvgl/src/draw/lv_draw_buf.c ****     draw_buf->header.magic = LV_IMAGE_HEADER_MAGIC;
 338:../../Middlewares/LVGL/GUI/lvgl/src/draw/lv_draw_buf.c ****     draw_buf->data = lv_draw_buf_align(buf, cf);
 339:../../Middlewares/LVGL/GUI/lvgl/src/draw/lv_draw_buf.c ****     draw_buf->unaligned_data = buf;
 340:../../Middlewares/LVGL/GUI/lvgl/src/draw/lv_draw_buf.c ****     draw_buf->data_size = size;
 341:../../Middlewares/LVGL/GUI/lvgl/src/draw/lv_draw_buf.c ****     draw_buf->handlers = handlers;
 342:../../Middlewares/LVGL/GUI/lvgl/src/draw/lv_draw_buf.c ****     LV_PROFILER_DRAW_END;
 343:../../Middlewares/LVGL/GUI/lvgl/src/draw/lv_draw_buf.c ****     return draw_buf;
 344:../../Middlewares/LVGL/GUI/lvgl/src/draw/lv_draw_buf.c **** }
 345:../../Middlewares/LVGL/GUI/lvgl/src/draw/lv_draw_buf.c **** 
 346:../../Middlewares/LVGL/GUI/lvgl/src/draw/lv_draw_buf.c **** lv_draw_buf_t * lv_draw_buf_dup(const lv_draw_buf_t * draw_buf)
 347:../../Middlewares/LVGL/GUI/lvgl/src/draw/lv_draw_buf.c **** {
 348:../../Middlewares/LVGL/GUI/lvgl/src/draw/lv_draw_buf.c ****     return lv_draw_buf_dup_ex(&default_handlers, draw_buf);
 349:../../Middlewares/LVGL/GUI/lvgl/src/draw/lv_draw_buf.c **** }
 350:../../Middlewares/LVGL/GUI/lvgl/src/draw/lv_draw_buf.c **** 
 351:../../Middlewares/LVGL/GUI/lvgl/src/draw/lv_draw_buf.c **** lv_draw_buf_t * lv_draw_buf_dup_ex(const lv_draw_buf_handlers_t * handlers, const lv_draw_buf_t * d
 352:../../Middlewares/LVGL/GUI/lvgl/src/draw/lv_draw_buf.c **** {
 353:../../Middlewares/LVGL/GUI/lvgl/src/draw/lv_draw_buf.c ****     LV_PROFILER_DRAW_BEGIN;
 354:../../Middlewares/LVGL/GUI/lvgl/src/draw/lv_draw_buf.c ****     const lv_image_header_t * header = &draw_buf->header;
 355:../../Middlewares/LVGL/GUI/lvgl/src/draw/lv_draw_buf.c ****     lv_draw_buf_t * new_buf = lv_draw_buf_create_ex(handlers, header->w, header->h, header->cf, hea
 356:../../Middlewares/LVGL/GUI/lvgl/src/draw/lv_draw_buf.c ****     if(new_buf == NULL) {
 357:../../Middlewares/LVGL/GUI/lvgl/src/draw/lv_draw_buf.c ****         LV_PROFILER_DRAW_END;
 358:../../Middlewares/LVGL/GUI/lvgl/src/draw/lv_draw_buf.c ****         return NULL;
 359:../../Middlewares/LVGL/GUI/lvgl/src/draw/lv_draw_buf.c ****     }
 360:../../Middlewares/LVGL/GUI/lvgl/src/draw/lv_draw_buf.c **** 
 361:../../Middlewares/LVGL/GUI/lvgl/src/draw/lv_draw_buf.c ****     new_buf->header.flags = draw_buf->header.flags;
 362:../../Middlewares/LVGL/GUI/lvgl/src/draw/lv_draw_buf.c ****     new_buf->header.flags |= LV_IMAGE_FLAGS_MODIFIABLE | LV_IMAGE_FLAGS_ALLOCATED;
 363:../../Middlewares/LVGL/GUI/lvgl/src/draw/lv_draw_buf.c **** 
 364:../../Middlewares/LVGL/GUI/lvgl/src/draw/lv_draw_buf.c ****     /*Choose the smaller size to copy*/
 365:../../Middlewares/LVGL/GUI/lvgl/src/draw/lv_draw_buf.c ****     uint32_t size = LV_MIN(draw_buf->data_size, new_buf->data_size);
 366:../../Middlewares/LVGL/GUI/lvgl/src/draw/lv_draw_buf.c **** 
 367:../../Middlewares/LVGL/GUI/lvgl/src/draw/lv_draw_buf.c ****     /*Copy image data*/
 368:../../Middlewares/LVGL/GUI/lvgl/src/draw/lv_draw_buf.c ****     lv_memcpy(new_buf->data, draw_buf->data, size);
 369:../../Middlewares/LVGL/GUI/lvgl/src/draw/lv_draw_buf.c ****     LV_PROFILER_DRAW_END;
 370:../../Middlewares/LVGL/GUI/lvgl/src/draw/lv_draw_buf.c ****     return new_buf;
 371:../../Middlewares/LVGL/GUI/lvgl/src/draw/lv_draw_buf.c **** }
 372:../../Middlewares/LVGL/GUI/lvgl/src/draw/lv_draw_buf.c **** 
 373:../../Middlewares/LVGL/GUI/lvgl/src/draw/lv_draw_buf.c **** lv_draw_buf_t * lv_draw_buf_reshape(lv_draw_buf_t * draw_buf, lv_color_format_t cf, uint32_t w, uin
ARM GAS  C:\Users\28576\AppData\Local\Temp\ccjLWieG.s 			page 8


 374:../../Middlewares/LVGL/GUI/lvgl/src/draw/lv_draw_buf.c ****                                     uint32_t stride)
 375:../../Middlewares/LVGL/GUI/lvgl/src/draw/lv_draw_buf.c **** {
 376:../../Middlewares/LVGL/GUI/lvgl/src/draw/lv_draw_buf.c ****     if(draw_buf == NULL) return NULL;
 377:../../Middlewares/LVGL/GUI/lvgl/src/draw/lv_draw_buf.c ****     LV_PROFILER_DRAW_BEGIN;
 378:../../Middlewares/LVGL/GUI/lvgl/src/draw/lv_draw_buf.c **** 
 379:../../Middlewares/LVGL/GUI/lvgl/src/draw/lv_draw_buf.c ****     /*If color format is unknown, keep using the original color format.*/
 380:../../Middlewares/LVGL/GUI/lvgl/src/draw/lv_draw_buf.c ****     if(cf == LV_COLOR_FORMAT_UNKNOWN) cf = draw_buf->header.cf;
 381:../../Middlewares/LVGL/GUI/lvgl/src/draw/lv_draw_buf.c ****     if(stride == 0) stride = lv_draw_buf_width_to_stride(w, cf);
 382:../../Middlewares/LVGL/GUI/lvgl/src/draw/lv_draw_buf.c **** 
 383:../../Middlewares/LVGL/GUI/lvgl/src/draw/lv_draw_buf.c ****     uint32_t size = _calculate_draw_buf_size(w, h, cf, stride);
 384:../../Middlewares/LVGL/GUI/lvgl/src/draw/lv_draw_buf.c **** 
 385:../../Middlewares/LVGL/GUI/lvgl/src/draw/lv_draw_buf.c ****     if(size > draw_buf->data_size) {
 386:../../Middlewares/LVGL/GUI/lvgl/src/draw/lv_draw_buf.c ****         LV_LOG_TRACE("Draw buf too small for new shape");
 387:../../Middlewares/LVGL/GUI/lvgl/src/draw/lv_draw_buf.c ****         LV_PROFILER_DRAW_END;
 388:../../Middlewares/LVGL/GUI/lvgl/src/draw/lv_draw_buf.c ****         return NULL;
 389:../../Middlewares/LVGL/GUI/lvgl/src/draw/lv_draw_buf.c ****     }
 390:../../Middlewares/LVGL/GUI/lvgl/src/draw/lv_draw_buf.c **** 
 391:../../Middlewares/LVGL/GUI/lvgl/src/draw/lv_draw_buf.c ****     draw_buf->header.cf = cf;
 392:../../Middlewares/LVGL/GUI/lvgl/src/draw/lv_draw_buf.c ****     draw_buf->header.w = w;
 393:../../Middlewares/LVGL/GUI/lvgl/src/draw/lv_draw_buf.c ****     draw_buf->header.h = h;
 394:../../Middlewares/LVGL/GUI/lvgl/src/draw/lv_draw_buf.c ****     draw_buf->header.stride = stride;
 395:../../Middlewares/LVGL/GUI/lvgl/src/draw/lv_draw_buf.c **** 
 396:../../Middlewares/LVGL/GUI/lvgl/src/draw/lv_draw_buf.c ****     LV_PROFILER_DRAW_END;
 397:../../Middlewares/LVGL/GUI/lvgl/src/draw/lv_draw_buf.c ****     return draw_buf;
 398:../../Middlewares/LVGL/GUI/lvgl/src/draw/lv_draw_buf.c **** }
 399:../../Middlewares/LVGL/GUI/lvgl/src/draw/lv_draw_buf.c **** 
 400:../../Middlewares/LVGL/GUI/lvgl/src/draw/lv_draw_buf.c **** void lv_draw_buf_destroy(lv_draw_buf_t * draw_buf)
 401:../../Middlewares/LVGL/GUI/lvgl/src/draw/lv_draw_buf.c **** {
 402:../../Middlewares/LVGL/GUI/lvgl/src/draw/lv_draw_buf.c ****     LV_ASSERT_NULL(draw_buf);
 403:../../Middlewares/LVGL/GUI/lvgl/src/draw/lv_draw_buf.c ****     if(draw_buf == NULL) return;
 404:../../Middlewares/LVGL/GUI/lvgl/src/draw/lv_draw_buf.c ****     LV_PROFILER_DRAW_BEGIN;
 405:../../Middlewares/LVGL/GUI/lvgl/src/draw/lv_draw_buf.c **** 
 406:../../Middlewares/LVGL/GUI/lvgl/src/draw/lv_draw_buf.c ****     if(draw_buf->header.flags & LV_IMAGE_FLAGS_ALLOCATED) {
 407:../../Middlewares/LVGL/GUI/lvgl/src/draw/lv_draw_buf.c ****         LV_ASSERT_NULL(draw_buf->handlers);
 408:../../Middlewares/LVGL/GUI/lvgl/src/draw/lv_draw_buf.c **** 
 409:../../Middlewares/LVGL/GUI/lvgl/src/draw/lv_draw_buf.c ****         const lv_draw_buf_handlers_t * handlers = draw_buf->handlers;
 410:../../Middlewares/LVGL/GUI/lvgl/src/draw/lv_draw_buf.c ****         draw_buf_free(handlers, draw_buf->unaligned_data);
 411:../../Middlewares/LVGL/GUI/lvgl/src/draw/lv_draw_buf.c ****         lv_free(draw_buf);
 412:../../Middlewares/LVGL/GUI/lvgl/src/draw/lv_draw_buf.c ****     }
 413:../../Middlewares/LVGL/GUI/lvgl/src/draw/lv_draw_buf.c ****     else {
 414:../../Middlewares/LVGL/GUI/lvgl/src/draw/lv_draw_buf.c ****         LV_LOG_ERROR("draw buffer is not allocated, ignored");
 415:../../Middlewares/LVGL/GUI/lvgl/src/draw/lv_draw_buf.c ****     }
 416:../../Middlewares/LVGL/GUI/lvgl/src/draw/lv_draw_buf.c ****     LV_PROFILER_DRAW_END;
 417:../../Middlewares/LVGL/GUI/lvgl/src/draw/lv_draw_buf.c **** }
 418:../../Middlewares/LVGL/GUI/lvgl/src/draw/lv_draw_buf.c **** 
 419:../../Middlewares/LVGL/GUI/lvgl/src/draw/lv_draw_buf.c **** void * lv_draw_buf_goto_xy(const lv_draw_buf_t * buf, uint32_t x, uint32_t y)
 420:../../Middlewares/LVGL/GUI/lvgl/src/draw/lv_draw_buf.c **** {
 421:../../Middlewares/LVGL/GUI/lvgl/src/draw/lv_draw_buf.c ****     LV_ASSERT_NULL(buf);
 422:../../Middlewares/LVGL/GUI/lvgl/src/draw/lv_draw_buf.c ****     if(buf == NULL) return NULL;
 423:../../Middlewares/LVGL/GUI/lvgl/src/draw/lv_draw_buf.c **** 
 424:../../Middlewares/LVGL/GUI/lvgl/src/draw/lv_draw_buf.c ****     uint8_t * data = buf->data;
 425:../../Middlewares/LVGL/GUI/lvgl/src/draw/lv_draw_buf.c **** 
 426:../../Middlewares/LVGL/GUI/lvgl/src/draw/lv_draw_buf.c ****     /*Skip palette*/
 427:../../Middlewares/LVGL/GUI/lvgl/src/draw/lv_draw_buf.c ****     data += LV_COLOR_INDEXED_PALETTE_SIZE(buf->header.cf) * sizeof(lv_color32_t);
 428:../../Middlewares/LVGL/GUI/lvgl/src/draw/lv_draw_buf.c ****     data += buf->header.stride * y;
 429:../../Middlewares/LVGL/GUI/lvgl/src/draw/lv_draw_buf.c **** 
 430:../../Middlewares/LVGL/GUI/lvgl/src/draw/lv_draw_buf.c ****     if(x == 0) return data;
ARM GAS  C:\Users\28576\AppData\Local\Temp\ccjLWieG.s 			page 9


 431:../../Middlewares/LVGL/GUI/lvgl/src/draw/lv_draw_buf.c **** 
 432:../../Middlewares/LVGL/GUI/lvgl/src/draw/lv_draw_buf.c ****     return data + x * lv_color_format_get_bpp(buf->header.cf) / 8;
 433:../../Middlewares/LVGL/GUI/lvgl/src/draw/lv_draw_buf.c **** }
 434:../../Middlewares/LVGL/GUI/lvgl/src/draw/lv_draw_buf.c **** 
 435:../../Middlewares/LVGL/GUI/lvgl/src/draw/lv_draw_buf.c **** lv_result_t lv_draw_buf_adjust_stride(lv_draw_buf_t * src, uint32_t stride)
 436:../../Middlewares/LVGL/GUI/lvgl/src/draw/lv_draw_buf.c **** {
 437:../../Middlewares/LVGL/GUI/lvgl/src/draw/lv_draw_buf.c ****     LV_ASSERT_NULL(src);
 438:../../Middlewares/LVGL/GUI/lvgl/src/draw/lv_draw_buf.c ****     LV_ASSERT_NULL(src->data);
 439:../../Middlewares/LVGL/GUI/lvgl/src/draw/lv_draw_buf.c ****     if(src == NULL) return LV_RESULT_INVALID;
 440:../../Middlewares/LVGL/GUI/lvgl/src/draw/lv_draw_buf.c ****     if(src->data == NULL) return LV_RESULT_INVALID;
 441:../../Middlewares/LVGL/GUI/lvgl/src/draw/lv_draw_buf.c ****     LV_PROFILER_DRAW_BEGIN;
 442:../../Middlewares/LVGL/GUI/lvgl/src/draw/lv_draw_buf.c **** 
 443:../../Middlewares/LVGL/GUI/lvgl/src/draw/lv_draw_buf.c ****     const lv_image_header_t * header = &src->header;
 444:../../Middlewares/LVGL/GUI/lvgl/src/draw/lv_draw_buf.c ****     uint32_t w = header->w;
 445:../../Middlewares/LVGL/GUI/lvgl/src/draw/lv_draw_buf.c ****     uint32_t h = header->h;
 446:../../Middlewares/LVGL/GUI/lvgl/src/draw/lv_draw_buf.c **** 
 447:../../Middlewares/LVGL/GUI/lvgl/src/draw/lv_draw_buf.c ****     if(!lv_draw_buf_has_flag(src, LV_IMAGE_FLAGS_MODIFIABLE)) {
 448:../../Middlewares/LVGL/GUI/lvgl/src/draw/lv_draw_buf.c ****         LV_PROFILER_DRAW_END;
 449:../../Middlewares/LVGL/GUI/lvgl/src/draw/lv_draw_buf.c ****         return LV_RESULT_INVALID;
 450:../../Middlewares/LVGL/GUI/lvgl/src/draw/lv_draw_buf.c ****     }
 451:../../Middlewares/LVGL/GUI/lvgl/src/draw/lv_draw_buf.c **** 
 452:../../Middlewares/LVGL/GUI/lvgl/src/draw/lv_draw_buf.c ****     /*Use global stride*/
 453:../../Middlewares/LVGL/GUI/lvgl/src/draw/lv_draw_buf.c ****     if(stride == 0) stride = lv_draw_buf_width_to_stride(w, header->cf);
 454:../../Middlewares/LVGL/GUI/lvgl/src/draw/lv_draw_buf.c **** 
 455:../../Middlewares/LVGL/GUI/lvgl/src/draw/lv_draw_buf.c ****     /*Check if stride already match*/
 456:../../Middlewares/LVGL/GUI/lvgl/src/draw/lv_draw_buf.c ****     if(header->stride == stride) {
 457:../../Middlewares/LVGL/GUI/lvgl/src/draw/lv_draw_buf.c ****         LV_PROFILER_DRAW_END;
 458:../../Middlewares/LVGL/GUI/lvgl/src/draw/lv_draw_buf.c ****         return LV_RESULT_OK;
 459:../../Middlewares/LVGL/GUI/lvgl/src/draw/lv_draw_buf.c ****     }
 460:../../Middlewares/LVGL/GUI/lvgl/src/draw/lv_draw_buf.c **** 
 461:../../Middlewares/LVGL/GUI/lvgl/src/draw/lv_draw_buf.c ****     /*Calculate the minimal stride allowed from bpp*/
 462:../../Middlewares/LVGL/GUI/lvgl/src/draw/lv_draw_buf.c ****     uint32_t bpp = lv_color_format_get_bpp(header->cf);
 463:../../Middlewares/LVGL/GUI/lvgl/src/draw/lv_draw_buf.c ****     uint32_t min_stride = (w * bpp + 7) >> 3;
 464:../../Middlewares/LVGL/GUI/lvgl/src/draw/lv_draw_buf.c ****     if(stride < min_stride) {
 465:../../Middlewares/LVGL/GUI/lvgl/src/draw/lv_draw_buf.c ****         LV_LOG_WARN("New stride is too small. min: %" LV_PRId32, min_stride);
 466:../../Middlewares/LVGL/GUI/lvgl/src/draw/lv_draw_buf.c ****         LV_PROFILER_DRAW_END;
 467:../../Middlewares/LVGL/GUI/lvgl/src/draw/lv_draw_buf.c ****         return LV_RESULT_INVALID;
 468:../../Middlewares/LVGL/GUI/lvgl/src/draw/lv_draw_buf.c ****     }
 469:../../Middlewares/LVGL/GUI/lvgl/src/draw/lv_draw_buf.c **** 
 470:../../Middlewares/LVGL/GUI/lvgl/src/draw/lv_draw_buf.c ****     /*Check if buffer has enough space. */
 471:../../Middlewares/LVGL/GUI/lvgl/src/draw/lv_draw_buf.c ****     uint32_t new_size = _calculate_draw_buf_size(w, h, header->cf, stride);
 472:../../Middlewares/LVGL/GUI/lvgl/src/draw/lv_draw_buf.c ****     if(new_size > src->data_size) {
 473:../../Middlewares/LVGL/GUI/lvgl/src/draw/lv_draw_buf.c ****         LV_PROFILER_DRAW_END;
 474:../../Middlewares/LVGL/GUI/lvgl/src/draw/lv_draw_buf.c ****         return LV_RESULT_INVALID;
 475:../../Middlewares/LVGL/GUI/lvgl/src/draw/lv_draw_buf.c ****     }
 476:../../Middlewares/LVGL/GUI/lvgl/src/draw/lv_draw_buf.c **** 
 477:../../Middlewares/LVGL/GUI/lvgl/src/draw/lv_draw_buf.c ****     uint32_t offset = LV_COLOR_INDEXED_PALETTE_SIZE(header->cf) * 4;
 478:../../Middlewares/LVGL/GUI/lvgl/src/draw/lv_draw_buf.c **** 
 479:../../Middlewares/LVGL/GUI/lvgl/src/draw/lv_draw_buf.c ****     if(stride > header->stride) {
 480:../../Middlewares/LVGL/GUI/lvgl/src/draw/lv_draw_buf.c ****         /*Copy from the last line to the first*/
 481:../../Middlewares/LVGL/GUI/lvgl/src/draw/lv_draw_buf.c ****         uint8_t * src_data = src->data + offset + header->stride * (h - 1);
 482:../../Middlewares/LVGL/GUI/lvgl/src/draw/lv_draw_buf.c ****         uint8_t * dst_data = src->data + offset + stride * (h - 1);
 483:../../Middlewares/LVGL/GUI/lvgl/src/draw/lv_draw_buf.c ****         for(uint32_t y = 0; y < h; y++) {
 484:../../Middlewares/LVGL/GUI/lvgl/src/draw/lv_draw_buf.c ****             lv_memmove(dst_data, src_data, min_stride);
 485:../../Middlewares/LVGL/GUI/lvgl/src/draw/lv_draw_buf.c ****             src_data -= header->stride;
 486:../../Middlewares/LVGL/GUI/lvgl/src/draw/lv_draw_buf.c ****             dst_data -= stride;
 487:../../Middlewares/LVGL/GUI/lvgl/src/draw/lv_draw_buf.c ****         }
ARM GAS  C:\Users\28576\AppData\Local\Temp\ccjLWieG.s 			page 10


 488:../../Middlewares/LVGL/GUI/lvgl/src/draw/lv_draw_buf.c ****     }
 489:../../Middlewares/LVGL/GUI/lvgl/src/draw/lv_draw_buf.c ****     else {
 490:../../Middlewares/LVGL/GUI/lvgl/src/draw/lv_draw_buf.c ****         /*Copy from the first line to the last*/
 491:../../Middlewares/LVGL/GUI/lvgl/src/draw/lv_draw_buf.c ****         uint8_t * src_data = src->data + offset;
 492:../../Middlewares/LVGL/GUI/lvgl/src/draw/lv_draw_buf.c ****         uint8_t * dst_data = src->data + offset;
 493:../../Middlewares/LVGL/GUI/lvgl/src/draw/lv_draw_buf.c ****         for(uint32_t y = 0; y < h; y++) {
 494:../../Middlewares/LVGL/GUI/lvgl/src/draw/lv_draw_buf.c ****             lv_memmove(dst_data, src_data, min_stride);
 495:../../Middlewares/LVGL/GUI/lvgl/src/draw/lv_draw_buf.c ****             src_data += header->stride;
 496:../../Middlewares/LVGL/GUI/lvgl/src/draw/lv_draw_buf.c ****             dst_data += stride;
 497:../../Middlewares/LVGL/GUI/lvgl/src/draw/lv_draw_buf.c ****         }
 498:../../Middlewares/LVGL/GUI/lvgl/src/draw/lv_draw_buf.c ****     }
 499:../../Middlewares/LVGL/GUI/lvgl/src/draw/lv_draw_buf.c **** 
 500:../../Middlewares/LVGL/GUI/lvgl/src/draw/lv_draw_buf.c ****     src->header.stride = stride;
 501:../../Middlewares/LVGL/GUI/lvgl/src/draw/lv_draw_buf.c **** 
 502:../../Middlewares/LVGL/GUI/lvgl/src/draw/lv_draw_buf.c ****     LV_PROFILER_DRAW_END;
 503:../../Middlewares/LVGL/GUI/lvgl/src/draw/lv_draw_buf.c ****     return LV_RESULT_OK;
 504:../../Middlewares/LVGL/GUI/lvgl/src/draw/lv_draw_buf.c **** }
 505:../../Middlewares/LVGL/GUI/lvgl/src/draw/lv_draw_buf.c **** 
 506:../../Middlewares/LVGL/GUI/lvgl/src/draw/lv_draw_buf.c **** lv_result_t lv_draw_buf_premultiply(lv_draw_buf_t * draw_buf)
 507:../../Middlewares/LVGL/GUI/lvgl/src/draw/lv_draw_buf.c **** {
 508:../../Middlewares/LVGL/GUI/lvgl/src/draw/lv_draw_buf.c ****     LV_ASSERT_NULL(draw_buf);
 509:../../Middlewares/LVGL/GUI/lvgl/src/draw/lv_draw_buf.c ****     if(draw_buf == NULL) return LV_RESULT_INVALID;
 510:../../Middlewares/LVGL/GUI/lvgl/src/draw/lv_draw_buf.c **** 
 511:../../Middlewares/LVGL/GUI/lvgl/src/draw/lv_draw_buf.c ****     if(draw_buf->header.flags & LV_IMAGE_FLAGS_PREMULTIPLIED) return LV_RESULT_INVALID;
 512:../../Middlewares/LVGL/GUI/lvgl/src/draw/lv_draw_buf.c ****     if((draw_buf->header.flags & LV_IMAGE_FLAGS_MODIFIABLE) == 0) {
 513:../../Middlewares/LVGL/GUI/lvgl/src/draw/lv_draw_buf.c ****         LV_LOG_WARN("draw buf is not modifiable: 0x%04x", draw_buf->header.flags);
 514:../../Middlewares/LVGL/GUI/lvgl/src/draw/lv_draw_buf.c ****         return LV_RESULT_INVALID;
 515:../../Middlewares/LVGL/GUI/lvgl/src/draw/lv_draw_buf.c ****     }
 516:../../Middlewares/LVGL/GUI/lvgl/src/draw/lv_draw_buf.c ****     LV_PROFILER_DRAW_BEGIN;
 517:../../Middlewares/LVGL/GUI/lvgl/src/draw/lv_draw_buf.c **** 
 518:../../Middlewares/LVGL/GUI/lvgl/src/draw/lv_draw_buf.c ****     /*Premultiply color with alpha, do case by case by judging color format*/
 519:../../Middlewares/LVGL/GUI/lvgl/src/draw/lv_draw_buf.c ****     lv_color_format_t cf = draw_buf->header.cf;
 520:../../Middlewares/LVGL/GUI/lvgl/src/draw/lv_draw_buf.c ****     if(LV_COLOR_FORMAT_IS_INDEXED(cf)) {
 521:../../Middlewares/LVGL/GUI/lvgl/src/draw/lv_draw_buf.c ****         int size = LV_COLOR_INDEXED_PALETTE_SIZE(cf);
 522:../../Middlewares/LVGL/GUI/lvgl/src/draw/lv_draw_buf.c ****         lv_color32_t * palette = (lv_color32_t *)draw_buf->data;
 523:../../Middlewares/LVGL/GUI/lvgl/src/draw/lv_draw_buf.c ****         for(int i = 0; i < size; i++) {
 524:../../Middlewares/LVGL/GUI/lvgl/src/draw/lv_draw_buf.c ****             lv_color_premultiply(&palette[i]);
 525:../../Middlewares/LVGL/GUI/lvgl/src/draw/lv_draw_buf.c ****         }
 526:../../Middlewares/LVGL/GUI/lvgl/src/draw/lv_draw_buf.c ****     }
 527:../../Middlewares/LVGL/GUI/lvgl/src/draw/lv_draw_buf.c ****     else if(cf == LV_COLOR_FORMAT_ARGB8888) {
 528:../../Middlewares/LVGL/GUI/lvgl/src/draw/lv_draw_buf.c ****         uint32_t h = draw_buf->header.h;
 529:../../Middlewares/LVGL/GUI/lvgl/src/draw/lv_draw_buf.c ****         uint32_t w = draw_buf->header.w;
 530:../../Middlewares/LVGL/GUI/lvgl/src/draw/lv_draw_buf.c ****         uint32_t stride = draw_buf->header.stride;
 531:../../Middlewares/LVGL/GUI/lvgl/src/draw/lv_draw_buf.c ****         uint8_t * line = (uint8_t *)draw_buf->data;
 532:../../Middlewares/LVGL/GUI/lvgl/src/draw/lv_draw_buf.c ****         for(uint32_t y = 0; y < h; y++) {
 533:../../Middlewares/LVGL/GUI/lvgl/src/draw/lv_draw_buf.c ****             lv_color32_t * pixel = (lv_color32_t *)line;
 534:../../Middlewares/LVGL/GUI/lvgl/src/draw/lv_draw_buf.c ****             for(uint32_t x = 0; x < w; x++) {
 535:../../Middlewares/LVGL/GUI/lvgl/src/draw/lv_draw_buf.c ****                 lv_color_premultiply(pixel);
 536:../../Middlewares/LVGL/GUI/lvgl/src/draw/lv_draw_buf.c ****                 pixel++;
 537:../../Middlewares/LVGL/GUI/lvgl/src/draw/lv_draw_buf.c ****             }
 538:../../Middlewares/LVGL/GUI/lvgl/src/draw/lv_draw_buf.c ****             line += stride;
 539:../../Middlewares/LVGL/GUI/lvgl/src/draw/lv_draw_buf.c ****         }
 540:../../Middlewares/LVGL/GUI/lvgl/src/draw/lv_draw_buf.c ****     }
 541:../../Middlewares/LVGL/GUI/lvgl/src/draw/lv_draw_buf.c ****     else if(cf == LV_COLOR_FORMAT_RGB565A8) {
 542:../../Middlewares/LVGL/GUI/lvgl/src/draw/lv_draw_buf.c ****         uint32_t h = draw_buf->header.h;
 543:../../Middlewares/LVGL/GUI/lvgl/src/draw/lv_draw_buf.c ****         uint32_t w = draw_buf->header.w;
 544:../../Middlewares/LVGL/GUI/lvgl/src/draw/lv_draw_buf.c ****         uint32_t stride = draw_buf->header.stride;
ARM GAS  C:\Users\28576\AppData\Local\Temp\ccjLWieG.s 			page 11


 545:../../Middlewares/LVGL/GUI/lvgl/src/draw/lv_draw_buf.c ****         uint32_t alpha_stride = stride / 2;
 546:../../Middlewares/LVGL/GUI/lvgl/src/draw/lv_draw_buf.c ****         uint8_t * line = (uint8_t *)draw_buf->data;
 547:../../Middlewares/LVGL/GUI/lvgl/src/draw/lv_draw_buf.c ****         lv_opa_t * alpha = (lv_opa_t *)(line + stride * h);
 548:../../Middlewares/LVGL/GUI/lvgl/src/draw/lv_draw_buf.c ****         for(uint32_t y = 0; y < h; y++) {
 549:../../Middlewares/LVGL/GUI/lvgl/src/draw/lv_draw_buf.c ****             lv_color16_t * pixel = (lv_color16_t *)line;
 550:../../Middlewares/LVGL/GUI/lvgl/src/draw/lv_draw_buf.c ****             for(uint32_t x = 0; x < w; x++) {
 551:../../Middlewares/LVGL/GUI/lvgl/src/draw/lv_draw_buf.c ****                 lv_color16_premultiply(pixel, alpha[x]);
 552:../../Middlewares/LVGL/GUI/lvgl/src/draw/lv_draw_buf.c ****                 pixel++;
 553:../../Middlewares/LVGL/GUI/lvgl/src/draw/lv_draw_buf.c ****             }
 554:../../Middlewares/LVGL/GUI/lvgl/src/draw/lv_draw_buf.c ****             line += stride;
 555:../../Middlewares/LVGL/GUI/lvgl/src/draw/lv_draw_buf.c ****             alpha += alpha_stride;
 556:../../Middlewares/LVGL/GUI/lvgl/src/draw/lv_draw_buf.c ****         }
 557:../../Middlewares/LVGL/GUI/lvgl/src/draw/lv_draw_buf.c ****     }
 558:../../Middlewares/LVGL/GUI/lvgl/src/draw/lv_draw_buf.c ****     else if(cf == LV_COLOR_FORMAT_ARGB8565) {
 559:../../Middlewares/LVGL/GUI/lvgl/src/draw/lv_draw_buf.c ****         uint32_t h = draw_buf->header.h;
 560:../../Middlewares/LVGL/GUI/lvgl/src/draw/lv_draw_buf.c ****         uint32_t w = draw_buf->header.w;
 561:../../Middlewares/LVGL/GUI/lvgl/src/draw/lv_draw_buf.c ****         uint32_t stride = draw_buf->header.stride;
 562:../../Middlewares/LVGL/GUI/lvgl/src/draw/lv_draw_buf.c ****         uint8_t * line = (uint8_t *)draw_buf->data;
 563:../../Middlewares/LVGL/GUI/lvgl/src/draw/lv_draw_buf.c ****         for(uint32_t y = 0; y < h; y++) {
 564:../../Middlewares/LVGL/GUI/lvgl/src/draw/lv_draw_buf.c ****             uint8_t * pixel = line;
 565:../../Middlewares/LVGL/GUI/lvgl/src/draw/lv_draw_buf.c ****             for(uint32_t x = 0; x < w; x++) {
 566:../../Middlewares/LVGL/GUI/lvgl/src/draw/lv_draw_buf.c ****                 uint8_t alpha = pixel[2];
 567:../../Middlewares/LVGL/GUI/lvgl/src/draw/lv_draw_buf.c ****                 lv_color16_premultiply((lv_color16_t *)pixel, alpha);
 568:../../Middlewares/LVGL/GUI/lvgl/src/draw/lv_draw_buf.c ****                 pixel += 3;
 569:../../Middlewares/LVGL/GUI/lvgl/src/draw/lv_draw_buf.c ****             }
 570:../../Middlewares/LVGL/GUI/lvgl/src/draw/lv_draw_buf.c ****             line += stride;
 571:../../Middlewares/LVGL/GUI/lvgl/src/draw/lv_draw_buf.c ****         }
 572:../../Middlewares/LVGL/GUI/lvgl/src/draw/lv_draw_buf.c ****     }
 573:../../Middlewares/LVGL/GUI/lvgl/src/draw/lv_draw_buf.c ****     else if(LV_COLOR_FORMAT_IS_ALPHA_ONLY(cf)) {
 574:../../Middlewares/LVGL/GUI/lvgl/src/draw/lv_draw_buf.c ****         /*Pass*/
 575:../../Middlewares/LVGL/GUI/lvgl/src/draw/lv_draw_buf.c ****     }
 576:../../Middlewares/LVGL/GUI/lvgl/src/draw/lv_draw_buf.c ****     else {
 577:../../Middlewares/LVGL/GUI/lvgl/src/draw/lv_draw_buf.c ****         LV_LOG_WARN("draw buf has no alpha, cf: %d", cf);
 578:../../Middlewares/LVGL/GUI/lvgl/src/draw/lv_draw_buf.c ****     }
 579:../../Middlewares/LVGL/GUI/lvgl/src/draw/lv_draw_buf.c **** 
 580:../../Middlewares/LVGL/GUI/lvgl/src/draw/lv_draw_buf.c ****     draw_buf->header.flags |= LV_IMAGE_FLAGS_PREMULTIPLIED;
 581:../../Middlewares/LVGL/GUI/lvgl/src/draw/lv_draw_buf.c **** 
 582:../../Middlewares/LVGL/GUI/lvgl/src/draw/lv_draw_buf.c ****     LV_PROFILER_DRAW_END;
 583:../../Middlewares/LVGL/GUI/lvgl/src/draw/lv_draw_buf.c ****     return LV_RESULT_OK;
 584:../../Middlewares/LVGL/GUI/lvgl/src/draw/lv_draw_buf.c **** }
 585:../../Middlewares/LVGL/GUI/lvgl/src/draw/lv_draw_buf.c **** 
 586:../../Middlewares/LVGL/GUI/lvgl/src/draw/lv_draw_buf.c **** void lv_draw_buf_set_palette(lv_draw_buf_t * draw_buf, uint8_t index, lv_color32_t color)
 587:../../Middlewares/LVGL/GUI/lvgl/src/draw/lv_draw_buf.c **** {
 588:../../Middlewares/LVGL/GUI/lvgl/src/draw/lv_draw_buf.c ****     LV_ASSERT_NULL(draw_buf);
 589:../../Middlewares/LVGL/GUI/lvgl/src/draw/lv_draw_buf.c ****     if(draw_buf == NULL) return;
 590:../../Middlewares/LVGL/GUI/lvgl/src/draw/lv_draw_buf.c **** 
 591:../../Middlewares/LVGL/GUI/lvgl/src/draw/lv_draw_buf.c ****     if(!LV_COLOR_FORMAT_IS_INDEXED(draw_buf->header.cf)) {
 592:../../Middlewares/LVGL/GUI/lvgl/src/draw/lv_draw_buf.c ****         LV_LOG_WARN("Not indexed color format");
 593:../../Middlewares/LVGL/GUI/lvgl/src/draw/lv_draw_buf.c ****         return;
 594:../../Middlewares/LVGL/GUI/lvgl/src/draw/lv_draw_buf.c ****     }
 595:../../Middlewares/LVGL/GUI/lvgl/src/draw/lv_draw_buf.c **** 
 596:../../Middlewares/LVGL/GUI/lvgl/src/draw/lv_draw_buf.c ****     lv_color32_t * palette = (lv_color32_t *)draw_buf->data;
 597:../../Middlewares/LVGL/GUI/lvgl/src/draw/lv_draw_buf.c ****     palette[index] = color;
 598:../../Middlewares/LVGL/GUI/lvgl/src/draw/lv_draw_buf.c **** }
 599:../../Middlewares/LVGL/GUI/lvgl/src/draw/lv_draw_buf.c **** 
 600:../../Middlewares/LVGL/GUI/lvgl/src/draw/lv_draw_buf.c **** bool lv_draw_buf_has_flag(const lv_draw_buf_t * draw_buf, lv_image_flags_t flag)
 601:../../Middlewares/LVGL/GUI/lvgl/src/draw/lv_draw_buf.c **** {
ARM GAS  C:\Users\28576\AppData\Local\Temp\ccjLWieG.s 			page 12


 602:../../Middlewares/LVGL/GUI/lvgl/src/draw/lv_draw_buf.c ****     return draw_buf->header.flags & flag;
 603:../../Middlewares/LVGL/GUI/lvgl/src/draw/lv_draw_buf.c **** }
 604:../../Middlewares/LVGL/GUI/lvgl/src/draw/lv_draw_buf.c **** 
 605:../../Middlewares/LVGL/GUI/lvgl/src/draw/lv_draw_buf.c **** void lv_draw_buf_set_flag(lv_draw_buf_t * draw_buf, lv_image_flags_t flag)
 606:../../Middlewares/LVGL/GUI/lvgl/src/draw/lv_draw_buf.c **** {
 607:../../Middlewares/LVGL/GUI/lvgl/src/draw/lv_draw_buf.c ****     draw_buf->header.flags |= flag;
 608:../../Middlewares/LVGL/GUI/lvgl/src/draw/lv_draw_buf.c **** }
 609:../../Middlewares/LVGL/GUI/lvgl/src/draw/lv_draw_buf.c **** 
 610:../../Middlewares/LVGL/GUI/lvgl/src/draw/lv_draw_buf.c **** void lv_draw_buf_clear_flag(lv_draw_buf_t * draw_buf, lv_image_flags_t flag)
 611:../../Middlewares/LVGL/GUI/lvgl/src/draw/lv_draw_buf.c **** {
 612:../../Middlewares/LVGL/GUI/lvgl/src/draw/lv_draw_buf.c ****     draw_buf->header.flags &= ~flag;
 613:../../Middlewares/LVGL/GUI/lvgl/src/draw/lv_draw_buf.c **** }
 614:../../Middlewares/LVGL/GUI/lvgl/src/draw/lv_draw_buf.c **** 
 615:../../Middlewares/LVGL/GUI/lvgl/src/draw/lv_draw_buf.c **** lv_result_t lv_draw_buf_from_image(lv_draw_buf_t * buf, const lv_image_dsc_t * img)
 616:../../Middlewares/LVGL/GUI/lvgl/src/draw/lv_draw_buf.c **** {
 617:../../Middlewares/LVGL/GUI/lvgl/src/draw/lv_draw_buf.c ****     const lv_result_t res = lv_draw_buf_init(buf, img->header.w, img->header.h, img->header.cf, img
 618:../../Middlewares/LVGL/GUI/lvgl/src/draw/lv_draw_buf.c ****                                              (void *)img->data, img->data_size);
 619:../../Middlewares/LVGL/GUI/lvgl/src/draw/lv_draw_buf.c ****     if(res != LV_RESULT_OK) {
 620:../../Middlewares/LVGL/GUI/lvgl/src/draw/lv_draw_buf.c ****         return res;
 621:../../Middlewares/LVGL/GUI/lvgl/src/draw/lv_draw_buf.c ****     }
 622:../../Middlewares/LVGL/GUI/lvgl/src/draw/lv_draw_buf.c **** 
 623:../../Middlewares/LVGL/GUI/lvgl/src/draw/lv_draw_buf.c ****     buf->header.flags = img->header.flags;
 624:../../Middlewares/LVGL/GUI/lvgl/src/draw/lv_draw_buf.c ****     return res;
 625:../../Middlewares/LVGL/GUI/lvgl/src/draw/lv_draw_buf.c **** }
 626:../../Middlewares/LVGL/GUI/lvgl/src/draw/lv_draw_buf.c **** 
 627:../../Middlewares/LVGL/GUI/lvgl/src/draw/lv_draw_buf.c **** void lv_draw_buf_to_image(const lv_draw_buf_t * buf, lv_image_dsc_t * img)
 628:../../Middlewares/LVGL/GUI/lvgl/src/draw/lv_draw_buf.c **** {
 629:../../Middlewares/LVGL/GUI/lvgl/src/draw/lv_draw_buf.c ****     lv_memcpy((void *)img, buf, sizeof(lv_image_dsc_t));
 630:../../Middlewares/LVGL/GUI/lvgl/src/draw/lv_draw_buf.c **** }
 631:../../Middlewares/LVGL/GUI/lvgl/src/draw/lv_draw_buf.c **** 
 632:../../Middlewares/LVGL/GUI/lvgl/src/draw/lv_draw_buf.c **** void lv_image_buf_set_palette(lv_image_dsc_t * dsc, uint8_t id, lv_color32_t c)
 633:../../Middlewares/LVGL/GUI/lvgl/src/draw/lv_draw_buf.c **** {
 634:../../Middlewares/LVGL/GUI/lvgl/src/draw/lv_draw_buf.c ****     LV_LOG_WARN("Deprecated API, use lv_draw_buf_set_palette instead.");
 635:../../Middlewares/LVGL/GUI/lvgl/src/draw/lv_draw_buf.c ****     lv_draw_buf_set_palette((lv_draw_buf_t *)dsc, id, c);
 636:../../Middlewares/LVGL/GUI/lvgl/src/draw/lv_draw_buf.c **** }
 637:../../Middlewares/LVGL/GUI/lvgl/src/draw/lv_draw_buf.c **** 
 638:../../Middlewares/LVGL/GUI/lvgl/src/draw/lv_draw_buf.c **** void lv_image_buf_free(lv_image_dsc_t * dsc)
 639:../../Middlewares/LVGL/GUI/lvgl/src/draw/lv_draw_buf.c **** {
 640:../../Middlewares/LVGL/GUI/lvgl/src/draw/lv_draw_buf.c ****     LV_LOG_WARN("Deprecated API, use lv_draw_buf_destroy instead.");
 641:../../Middlewares/LVGL/GUI/lvgl/src/draw/lv_draw_buf.c ****     if(dsc != NULL) {
 642:../../Middlewares/LVGL/GUI/lvgl/src/draw/lv_draw_buf.c ****         if(dsc->data != NULL)
 643:../../Middlewares/LVGL/GUI/lvgl/src/draw/lv_draw_buf.c ****             lv_free((void *)dsc->data);
 644:../../Middlewares/LVGL/GUI/lvgl/src/draw/lv_draw_buf.c **** 
 645:../../Middlewares/LVGL/GUI/lvgl/src/draw/lv_draw_buf.c ****         lv_free((void *)dsc);
 646:../../Middlewares/LVGL/GUI/lvgl/src/draw/lv_draw_buf.c ****     }
 647:../../Middlewares/LVGL/GUI/lvgl/src/draw/lv_draw_buf.c **** }
 648:../../Middlewares/LVGL/GUI/lvgl/src/draw/lv_draw_buf.c **** 
 649:../../Middlewares/LVGL/GUI/lvgl/src/draw/lv_draw_buf.c **** /**********************
 650:../../Middlewares/LVGL/GUI/lvgl/src/draw/lv_draw_buf.c ****  *   STATIC FUNCTIONS
 651:../../Middlewares/LVGL/GUI/lvgl/src/draw/lv_draw_buf.c ****  **********************/
 652:../../Middlewares/LVGL/GUI/lvgl/src/draw/lv_draw_buf.c **** 
 653:../../Middlewares/LVGL/GUI/lvgl/src/draw/lv_draw_buf.c **** static void * buf_malloc(size_t size_bytes, lv_color_format_t color_format)
 654:../../Middlewares/LVGL/GUI/lvgl/src/draw/lv_draw_buf.c **** {
 655:../../Middlewares/LVGL/GUI/lvgl/src/draw/lv_draw_buf.c ****     LV_UNUSED(color_format);
 656:../../Middlewares/LVGL/GUI/lvgl/src/draw/lv_draw_buf.c **** 
 657:../../Middlewares/LVGL/GUI/lvgl/src/draw/lv_draw_buf.c ****     /*Allocate larger memory to be sure it can be aligned as needed*/
 658:../../Middlewares/LVGL/GUI/lvgl/src/draw/lv_draw_buf.c ****     size_bytes += LV_DRAW_BUF_ALIGN - 1;
ARM GAS  C:\Users\28576\AppData\Local\Temp\ccjLWieG.s 			page 13


 659:../../Middlewares/LVGL/GUI/lvgl/src/draw/lv_draw_buf.c ****     return lv_malloc(size_bytes);
 660:../../Middlewares/LVGL/GUI/lvgl/src/draw/lv_draw_buf.c **** }
 661:../../Middlewares/LVGL/GUI/lvgl/src/draw/lv_draw_buf.c **** 
 662:../../Middlewares/LVGL/GUI/lvgl/src/draw/lv_draw_buf.c **** static void buf_free(void * buf)
 663:../../Middlewares/LVGL/GUI/lvgl/src/draw/lv_draw_buf.c **** {
 664:../../Middlewares/LVGL/GUI/lvgl/src/draw/lv_draw_buf.c ****     lv_free(buf);
 665:../../Middlewares/LVGL/GUI/lvgl/src/draw/lv_draw_buf.c **** }
 666:../../Middlewares/LVGL/GUI/lvgl/src/draw/lv_draw_buf.c **** 
 667:../../Middlewares/LVGL/GUI/lvgl/src/draw/lv_draw_buf.c **** static void * buf_align(void * buf, lv_color_format_t color_format)
 668:../../Middlewares/LVGL/GUI/lvgl/src/draw/lv_draw_buf.c **** {
  28              		.loc 1 668 1 view -0
  29              		.cfi_startproc
  30              		@ args = 0, pretend = 0, frame = 0
  31              		@ frame_needed = 0, uses_anonymous_args = 0
  32              		@ link register save eliminated.
 669:../../Middlewares/LVGL/GUI/lvgl/src/draw/lv_draw_buf.c ****     LV_UNUSED(color_format);
  33              		.loc 1 669 5 view .LVU1
 670:../../Middlewares/LVGL/GUI/lvgl/src/draw/lv_draw_buf.c **** 
 671:../../Middlewares/LVGL/GUI/lvgl/src/draw/lv_draw_buf.c ****     uint8_t * buf_u8 = buf;
  34              		.loc 1 671 5 view .LVU2
 672:../../Middlewares/LVGL/GUI/lvgl/src/draw/lv_draw_buf.c ****     if(buf_u8) {
  35              		.loc 1 672 5 view .LVU3
  36              		.loc 1 672 7 is_stmt 0 view .LVU4
  37 0000 0346     		mov	r3, r0
  38 0002 18B1     		cbz	r0, .L3
 673:../../Middlewares/LVGL/GUI/lvgl/src/draw/lv_draw_buf.c ****         buf_u8 = (uint8_t *)LV_ROUND_UP((lv_uintptr_t)buf_u8, LV_DRAW_BUF_ALIGN);
  39              		.loc 1 673 9 is_stmt 1 view .LVU5
  40              		.loc 1 673 29 is_stmt 0 view .LVU6
  41 0004 0333     		adds	r3, r3, #3
  42 0006 23F00300 		bic	r0, r3, #3
  43              	.LVL1:
  44              		.loc 1 673 29 view .LVU7
  45 000a 7047     		bx	lr
  46              	.LVL2:
  47              	.L3:
 674:../../Middlewares/LVGL/GUI/lvgl/src/draw/lv_draw_buf.c ****     }
 675:../../Middlewares/LVGL/GUI/lvgl/src/draw/lv_draw_buf.c ****     return buf_u8;
  48              		.loc 1 675 5 is_stmt 1 view .LVU8
 676:../../Middlewares/LVGL/GUI/lvgl/src/draw/lv_draw_buf.c **** }
  49              		.loc 1 676 1 is_stmt 0 view .LVU9
  50 000c 7047     		bx	lr
  51              		.cfi_endproc
  52              	.LFE221:
  54              		.section	.text.draw_buf_malloc,"ax",%progbits
  55              		.align	1
  56              		.syntax unified
  57              		.thumb
  58              		.thumb_func
  60              	draw_buf_malloc:
  61              	.LVL3:
  62              	.LFB223:
 677:../../Middlewares/LVGL/GUI/lvgl/src/draw/lv_draw_buf.c **** 
 678:../../Middlewares/LVGL/GUI/lvgl/src/draw/lv_draw_buf.c **** static uint32_t width_to_stride(uint32_t w, lv_color_format_t color_format)
 679:../../Middlewares/LVGL/GUI/lvgl/src/draw/lv_draw_buf.c **** {
 680:../../Middlewares/LVGL/GUI/lvgl/src/draw/lv_draw_buf.c ****     uint32_t width_byte;
 681:../../Middlewares/LVGL/GUI/lvgl/src/draw/lv_draw_buf.c ****     width_byte = w * lv_color_format_get_bpp(color_format);
 682:../../Middlewares/LVGL/GUI/lvgl/src/draw/lv_draw_buf.c ****     width_byte = (width_byte + 7) >> 3; /*Round up*/
ARM GAS  C:\Users\28576\AppData\Local\Temp\ccjLWieG.s 			page 14


 683:../../Middlewares/LVGL/GUI/lvgl/src/draw/lv_draw_buf.c **** 
 684:../../Middlewares/LVGL/GUI/lvgl/src/draw/lv_draw_buf.c ****     return LV_ROUND_UP(width_byte, LV_DRAW_BUF_STRIDE_ALIGN);
 685:../../Middlewares/LVGL/GUI/lvgl/src/draw/lv_draw_buf.c **** }
 686:../../Middlewares/LVGL/GUI/lvgl/src/draw/lv_draw_buf.c **** 
 687:../../Middlewares/LVGL/GUI/lvgl/src/draw/lv_draw_buf.c **** static void * draw_buf_malloc(const lv_draw_buf_handlers_t * handlers, size_t size_bytes,
 688:../../Middlewares/LVGL/GUI/lvgl/src/draw/lv_draw_buf.c ****                               lv_color_format_t color_format)
 689:../../Middlewares/LVGL/GUI/lvgl/src/draw/lv_draw_buf.c **** {
  63              		.loc 1 689 1 is_stmt 1 view -0
  64              		.cfi_startproc
  65              		@ args = 0, pretend = 0, frame = 0
  66              		@ frame_needed = 0, uses_anonymous_args = 0
  67              		.loc 1 689 1 is_stmt 0 view .LVU11
  68 0000 08B5     		push	{r3, lr}
  69              	.LCFI0:
  70              		.cfi_def_cfa_offset 8
  71              		.cfi_offset 3, -8
  72              		.cfi_offset 14, -4
  73 0002 0B46     		mov	r3, r1
  74 0004 1146     		mov	r1, r2
  75              	.LVL4:
 690:../../Middlewares/LVGL/GUI/lvgl/src/draw/lv_draw_buf.c ****     if(handlers->buf_malloc_cb) return handlers->buf_malloc_cb(size_bytes, color_format);
  76              		.loc 1 690 5 is_stmt 1 view .LVU12
  77              		.loc 1 690 16 is_stmt 0 view .LVU13
  78 0006 0268     		ldr	r2, [r0]
  79              	.LVL5:
  80              		.loc 1 690 7 view .LVU14
  81 0008 12B1     		cbz	r2, .L6
  82              		.loc 1 690 33 is_stmt 1 discriminator 1 view .LVU15
  83              		.loc 1 690 40 is_stmt 0 discriminator 1 view .LVU16
  84 000a 1846     		mov	r0, r3
  85              	.LVL6:
  86              		.loc 1 690 40 discriminator 1 view .LVU17
  87 000c 9047     		blx	r2
  88              	.LVL7:
  89              	.L4:
 691:../../Middlewares/LVGL/GUI/lvgl/src/draw/lv_draw_buf.c ****     else return NULL;
 692:../../Middlewares/LVGL/GUI/lvgl/src/draw/lv_draw_buf.c **** }
  90              		.loc 1 692 1 view .LVU18
  91 000e 08BD     		pop	{r3, pc}
  92              	.LVL8:
  93              	.L6:
 691:../../Middlewares/LVGL/GUI/lvgl/src/draw/lv_draw_buf.c ****     else return NULL;
  94              		.loc 1 691 17 view .LVU19
  95 0010 1046     		mov	r0, r2
  96              	.LVL9:
 691:../../Middlewares/LVGL/GUI/lvgl/src/draw/lv_draw_buf.c ****     else return NULL;
  97              		.loc 1 691 17 view .LVU20
  98 0012 FCE7     		b	.L4
  99              		.cfi_endproc
 100              	.LFE223:
 102              		.section	.text.draw_buf_free,"ax",%progbits
 103              		.align	1
 104              		.syntax unified
 105              		.thumb
 106              		.thumb_func
 108              	draw_buf_free:
 109              	.LVL10:
ARM GAS  C:\Users\28576\AppData\Local\Temp\ccjLWieG.s 			page 15


 110              	.LFB224:
 693:../../Middlewares/LVGL/GUI/lvgl/src/draw/lv_draw_buf.c **** 
 694:../../Middlewares/LVGL/GUI/lvgl/src/draw/lv_draw_buf.c **** static void draw_buf_free(const lv_draw_buf_handlers_t * handlers, void * buf)
 695:../../Middlewares/LVGL/GUI/lvgl/src/draw/lv_draw_buf.c **** {
 111              		.loc 1 695 1 is_stmt 1 view -0
 112              		.cfi_startproc
 113              		@ args = 0, pretend = 0, frame = 0
 114              		@ frame_needed = 0, uses_anonymous_args = 0
 115              		.loc 1 695 1 is_stmt 0 view .LVU22
 116 0000 08B5     		push	{r3, lr}
 117              	.LCFI1:
 118              		.cfi_def_cfa_offset 8
 119              		.cfi_offset 3, -8
 120              		.cfi_offset 14, -4
 696:../../Middlewares/LVGL/GUI/lvgl/src/draw/lv_draw_buf.c ****     if(handlers->buf_free_cb)
 121              		.loc 1 696 5 is_stmt 1 view .LVU23
 122              		.loc 1 696 16 is_stmt 0 view .LVU24
 123 0002 4368     		ldr	r3, [r0, #4]
 124              		.loc 1 696 7 view .LVU25
 125 0004 0BB1     		cbz	r3, .L8
 697:../../Middlewares/LVGL/GUI/lvgl/src/draw/lv_draw_buf.c ****         handlers->buf_free_cb(buf);
 126              		.loc 1 697 9 is_stmt 1 view .LVU26
 127 0006 0846     		mov	r0, r1
 128              	.LVL11:
 129              		.loc 1 697 9 is_stmt 0 view .LVU27
 130 0008 9847     		blx	r3
 131              	.LVL12:
 132              	.L8:
 698:../../Middlewares/LVGL/GUI/lvgl/src/draw/lv_draw_buf.c **** }
 133              		.loc 1 698 1 view .LVU28
 134 000a 08BD     		pop	{r3, pc}
 135              		.cfi_endproc
 136              	.LFE224:
 138              		.section	.text.width_to_stride,"ax",%progbits
 139              		.align	1
 140              		.syntax unified
 141              		.thumb
 142              		.thumb_func
 144              	width_to_stride:
 145              	.LVL13:
 146              	.LFB222:
 679:../../Middlewares/LVGL/GUI/lvgl/src/draw/lv_draw_buf.c ****     uint32_t width_byte;
 147              		.loc 1 679 1 is_stmt 1 view -0
 148              		.cfi_startproc
 149              		@ args = 0, pretend = 0, frame = 0
 150              		@ frame_needed = 0, uses_anonymous_args = 0
 679:../../Middlewares/LVGL/GUI/lvgl/src/draw/lv_draw_buf.c ****     uint32_t width_byte;
 151              		.loc 1 679 1 is_stmt 0 view .LVU30
 152 0000 10B5     		push	{r4, lr}
 153              	.LCFI2:
 154              		.cfi_def_cfa_offset 8
 155              		.cfi_offset 4, -8
 156              		.cfi_offset 14, -4
 157 0002 0446     		mov	r4, r0
 680:../../Middlewares/LVGL/GUI/lvgl/src/draw/lv_draw_buf.c ****     width_byte = w * lv_color_format_get_bpp(color_format);
 158              		.loc 1 680 5 is_stmt 1 view .LVU31
 681:../../Middlewares/LVGL/GUI/lvgl/src/draw/lv_draw_buf.c ****     width_byte = (width_byte + 7) >> 3; /*Round up*/
ARM GAS  C:\Users\28576\AppData\Local\Temp\ccjLWieG.s 			page 16


 159              		.loc 1 681 5 view .LVU32
 681:../../Middlewares/LVGL/GUI/lvgl/src/draw/lv_draw_buf.c ****     width_byte = (width_byte + 7) >> 3; /*Round up*/
 160              		.loc 1 681 22 is_stmt 0 view .LVU33
 161 0004 0846     		mov	r0, r1
 162              	.LVL14:
 681:../../Middlewares/LVGL/GUI/lvgl/src/draw/lv_draw_buf.c ****     width_byte = (width_byte + 7) >> 3; /*Round up*/
 163              		.loc 1 681 22 view .LVU34
 164 0006 FFF7FEFF 		bl	lv_color_format_get_bpp
 165              	.LVL15:
 681:../../Middlewares/LVGL/GUI/lvgl/src/draw/lv_draw_buf.c ****     width_byte = (width_byte + 7) >> 3; /*Round up*/
 166              		.loc 1 681 16 discriminator 1 view .LVU35
 167 000a 04FB00F0 		mul	r0, r4, r0
 168              	.LVL16:
 682:../../Middlewares/LVGL/GUI/lvgl/src/draw/lv_draw_buf.c **** 
 169              		.loc 1 682 5 is_stmt 1 view .LVU36
 682:../../Middlewares/LVGL/GUI/lvgl/src/draw/lv_draw_buf.c **** 
 170              		.loc 1 682 30 is_stmt 0 view .LVU37
 171 000e 0730     		adds	r0, r0, #7
 172              	.LVL17:
 684:../../Middlewares/LVGL/GUI/lvgl/src/draw/lv_draw_buf.c **** }
 173              		.loc 1 684 5 is_stmt 1 view .LVU38
 685:../../Middlewares/LVGL/GUI/lvgl/src/draw/lv_draw_buf.c **** 
 174              		.loc 1 685 1 is_stmt 0 view .LVU39
 175 0010 C008     		lsrs	r0, r0, #3
 176              	.LVL18:
 685:../../Middlewares/LVGL/GUI/lvgl/src/draw/lv_draw_buf.c **** 
 177              		.loc 1 685 1 view .LVU40
 178 0012 10BD     		pop	{r4, pc}
 685:../../Middlewares/LVGL/GUI/lvgl/src/draw/lv_draw_buf.c **** 
 179              		.loc 1 685 1 view .LVU41
 180              		.cfi_endproc
 181              	.LFE222:
 183              		.section	.text.buf_free,"ax",%progbits
 184              		.align	1
 185              		.syntax unified
 186              		.thumb
 187              		.thumb_func
 189              	buf_free:
 190              	.LVL19:
 191              	.LFB220:
 663:../../Middlewares/LVGL/GUI/lvgl/src/draw/lv_draw_buf.c ****     lv_free(buf);
 192              		.loc 1 663 1 is_stmt 1 view -0
 193              		.cfi_startproc
 194              		@ args = 0, pretend = 0, frame = 0
 195              		@ frame_needed = 0, uses_anonymous_args = 0
 663:../../Middlewares/LVGL/GUI/lvgl/src/draw/lv_draw_buf.c ****     lv_free(buf);
 196              		.loc 1 663 1 is_stmt 0 view .LVU43
 197 0000 08B5     		push	{r3, lr}
 198              	.LCFI3:
 199              		.cfi_def_cfa_offset 8
 200              		.cfi_offset 3, -8
 201              		.cfi_offset 14, -4
 664:../../Middlewares/LVGL/GUI/lvgl/src/draw/lv_draw_buf.c **** }
 202              		.loc 1 664 5 is_stmt 1 view .LVU44
 203 0002 FFF7FEFF 		bl	lv_free
 204              	.LVL20:
 665:../../Middlewares/LVGL/GUI/lvgl/src/draw/lv_draw_buf.c **** 
ARM GAS  C:\Users\28576\AppData\Local\Temp\ccjLWieG.s 			page 17


 205              		.loc 1 665 1 is_stmt 0 view .LVU45
 206 0006 08BD     		pop	{r3, pc}
 207              		.cfi_endproc
 208              	.LFE220:
 210              		.section	.text.buf_malloc,"ax",%progbits
 211              		.align	1
 212              		.syntax unified
 213              		.thumb
 214              		.thumb_func
 216              	buf_malloc:
 217              	.LVL21:
 218              	.LFB219:
 654:../../Middlewares/LVGL/GUI/lvgl/src/draw/lv_draw_buf.c ****     LV_UNUSED(color_format);
 219              		.loc 1 654 1 is_stmt 1 view -0
 220              		.cfi_startproc
 221              		@ args = 0, pretend = 0, frame = 0
 222              		@ frame_needed = 0, uses_anonymous_args = 0
 654:../../Middlewares/LVGL/GUI/lvgl/src/draw/lv_draw_buf.c ****     LV_UNUSED(color_format);
 223              		.loc 1 654 1 is_stmt 0 view .LVU47
 224 0000 08B5     		push	{r3, lr}
 225              	.LCFI4:
 226              		.cfi_def_cfa_offset 8
 227              		.cfi_offset 3, -8
 228              		.cfi_offset 14, -4
 655:../../Middlewares/LVGL/GUI/lvgl/src/draw/lv_draw_buf.c **** 
 229              		.loc 1 655 5 is_stmt 1 view .LVU48
 658:../../Middlewares/LVGL/GUI/lvgl/src/draw/lv_draw_buf.c ****     return lv_malloc(size_bytes);
 230              		.loc 1 658 5 view .LVU49
 231              	.LVL22:
 659:../../Middlewares/LVGL/GUI/lvgl/src/draw/lv_draw_buf.c **** }
 232              		.loc 1 659 5 view .LVU50
 659:../../Middlewares/LVGL/GUI/lvgl/src/draw/lv_draw_buf.c **** }
 233              		.loc 1 659 12 is_stmt 0 view .LVU51
 234 0002 0330     		adds	r0, r0, #3
 235              	.LVL23:
 659:../../Middlewares/LVGL/GUI/lvgl/src/draw/lv_draw_buf.c **** }
 236              		.loc 1 659 12 view .LVU52
 237 0004 FFF7FEFF 		bl	lv_malloc
 238              	.LVL24:
 660:../../Middlewares/LVGL/GUI/lvgl/src/draw/lv_draw_buf.c **** 
 239              		.loc 1 660 1 view .LVU53
 240 0008 08BD     		pop	{r3, pc}
 241              		.cfi_endproc
 242              	.LFE219:
 244              		.section	.text.draw_buf_get_full_area,"ax",%progbits
 245              		.align	1
 246              		.syntax unified
 247              		.thumb
 248              		.thumb_func
 250              	draw_buf_get_full_area:
 251              	.LVL25:
 252              	.LFB226:
 699:../../Middlewares/LVGL/GUI/lvgl/src/draw/lv_draw_buf.c **** 
 700:../../Middlewares/LVGL/GUI/lvgl/src/draw/lv_draw_buf.c **** /**
 701:../../Middlewares/LVGL/GUI/lvgl/src/draw/lv_draw_buf.c ****  * For given width, height, color format, and stride, calculate the size needed for a new draw buff
 702:../../Middlewares/LVGL/GUI/lvgl/src/draw/lv_draw_buf.c ****  */
 703:../../Middlewares/LVGL/GUI/lvgl/src/draw/lv_draw_buf.c **** static uint32_t _calculate_draw_buf_size(uint32_t w, uint32_t h, lv_color_format_t cf, uint32_t str
ARM GAS  C:\Users\28576\AppData\Local\Temp\ccjLWieG.s 			page 18


 704:../../Middlewares/LVGL/GUI/lvgl/src/draw/lv_draw_buf.c **** {
 705:../../Middlewares/LVGL/GUI/lvgl/src/draw/lv_draw_buf.c ****     uint32_t size;
 706:../../Middlewares/LVGL/GUI/lvgl/src/draw/lv_draw_buf.c **** 
 707:../../Middlewares/LVGL/GUI/lvgl/src/draw/lv_draw_buf.c ****     if(stride == 0) stride = lv_draw_buf_width_to_stride(w, cf);
 708:../../Middlewares/LVGL/GUI/lvgl/src/draw/lv_draw_buf.c **** 
 709:../../Middlewares/LVGL/GUI/lvgl/src/draw/lv_draw_buf.c ****     size = stride * h;
 710:../../Middlewares/LVGL/GUI/lvgl/src/draw/lv_draw_buf.c ****     if(cf == LV_COLOR_FORMAT_RGB565A8) {
 711:../../Middlewares/LVGL/GUI/lvgl/src/draw/lv_draw_buf.c ****         size += (stride / 2) * h; /*A8 mask*/
 712:../../Middlewares/LVGL/GUI/lvgl/src/draw/lv_draw_buf.c ****     }
 713:../../Middlewares/LVGL/GUI/lvgl/src/draw/lv_draw_buf.c ****     else if(LV_COLOR_FORMAT_IS_INDEXED(cf)) {
 714:../../Middlewares/LVGL/GUI/lvgl/src/draw/lv_draw_buf.c ****         /*@todo we have to include palette right before image data*/
 715:../../Middlewares/LVGL/GUI/lvgl/src/draw/lv_draw_buf.c ****         size += LV_COLOR_INDEXED_PALETTE_SIZE(cf) * 4;
 716:../../Middlewares/LVGL/GUI/lvgl/src/draw/lv_draw_buf.c ****     }
 717:../../Middlewares/LVGL/GUI/lvgl/src/draw/lv_draw_buf.c **** 
 718:../../Middlewares/LVGL/GUI/lvgl/src/draw/lv_draw_buf.c ****     return size;
 719:../../Middlewares/LVGL/GUI/lvgl/src/draw/lv_draw_buf.c **** }
 720:../../Middlewares/LVGL/GUI/lvgl/src/draw/lv_draw_buf.c **** 
 721:../../Middlewares/LVGL/GUI/lvgl/src/draw/lv_draw_buf.c **** static void draw_buf_get_full_area(const lv_draw_buf_t * draw_buf, lv_area_t * full_area)
 722:../../Middlewares/LVGL/GUI/lvgl/src/draw/lv_draw_buf.c **** {
 253              		.loc 1 722 1 is_stmt 1 view -0
 254              		.cfi_startproc
 255              		@ args = 0, pretend = 0, frame = 0
 256              		@ frame_needed = 0, uses_anonymous_args = 0
 257              		.loc 1 722 1 is_stmt 0 view .LVU55
 258 0000 00B5     		push	{lr}
 259              	.LCFI5:
 260              		.cfi_def_cfa_offset 4
 261              		.cfi_offset 14, -4
 262 0002 83B0     		sub	sp, sp, #12
 263              	.LCFI6:
 264              		.cfi_def_cfa_offset 16
 265 0004 0246     		mov	r2, r0
 266 0006 0846     		mov	r0, r1
 267              	.LVL26:
 723:../../Middlewares/LVGL/GUI/lvgl/src/draw/lv_draw_buf.c ****     const lv_image_header_t * header = &draw_buf->header;
 268              		.loc 1 723 5 is_stmt 1 view .LVU56
 724:../../Middlewares/LVGL/GUI/lvgl/src/draw/lv_draw_buf.c ****     lv_area_set(full_area, 0, 0, header->w - 1, header->h - 1);
 269              		.loc 1 724 5 view .LVU57
 270              		.loc 1 724 40 is_stmt 0 view .LVU58
 271 0008 9388     		ldrh	r3, [r2, #4]
 272              		.loc 1 724 55 view .LVU59
 273 000a D288     		ldrh	r2, [r2, #6]
 274              	.LVL27:
 275              		.loc 1 724 59 view .LVU60
 276 000c 013A     		subs	r2, r2, #1
 277              		.loc 1 724 5 view .LVU61
 278 000e 0092     		str	r2, [sp]
 279 0010 013B     		subs	r3, r3, #1
 280 0012 0022     		movs	r2, #0
 281 0014 1146     		mov	r1, r2
 282              	.LVL28:
 283              		.loc 1 724 5 view .LVU62
 284 0016 FFF7FEFF 		bl	lv_area_set
 285              	.LVL29:
 725:../../Middlewares/LVGL/GUI/lvgl/src/draw/lv_draw_buf.c **** }
 286              		.loc 1 725 1 view .LVU63
 287 001a 03B0     		add	sp, sp, #12
ARM GAS  C:\Users\28576\AppData\Local\Temp\ccjLWieG.s 			page 19


 288              	.LCFI7:
 289              		.cfi_def_cfa_offset 4
 290              		@ sp needed
 291 001c 00BD     		pop	{pc}
 292              		.cfi_endproc
 293              	.LFE226:
 295              		.section	.text.lv_draw_buf_handlers_init,"ax",%progbits
 296              		.align	1
 297              		.global	lv_draw_buf_handlers_init
 298              		.syntax unified
 299              		.thumb
 300              		.thumb_func
 302              	lv_draw_buf_handlers_init:
 303              	.LVL30:
 304              	.LFB189:
  71:../../Middlewares/LVGL/GUI/lvgl/src/draw/lv_draw_buf.c ****     lv_memzero(handlers, sizeof(lv_draw_buf_handlers_t));
 305              		.loc 1 71 1 is_stmt 1 view -0
 306              		.cfi_startproc
 307              		@ args = 12, pretend = 0, frame = 0
 308              		@ frame_needed = 0, uses_anonymous_args = 0
  71:../../Middlewares/LVGL/GUI/lvgl/src/draw/lv_draw_buf.c ****     lv_memzero(handlers, sizeof(lv_draw_buf_handlers_t));
 309              		.loc 1 71 1 is_stmt 0 view .LVU65
 310 0000 F8B5     		push	{r3, r4, r5, r6, r7, lr}
 311              	.LCFI8:
 312              		.cfi_def_cfa_offset 24
 313              		.cfi_offset 3, -24
 314              		.cfi_offset 4, -20
 315              		.cfi_offset 5, -16
 316              		.cfi_offset 6, -12
 317              		.cfi_offset 7, -8
 318              		.cfi_offset 14, -4
 319 0002 0446     		mov	r4, r0
 320 0004 0F46     		mov	r7, r1
 321 0006 1646     		mov	r6, r2
 322 0008 1D46     		mov	r5, r3
  72:../../Middlewares/LVGL/GUI/lvgl/src/draw/lv_draw_buf.c ****     handlers->buf_malloc_cb = buf_malloc_cb;
 323              		.loc 1 72 5 is_stmt 1 view .LVU66
 324              	.LVL31:
 325              	.LBB11:
 326              	.LBI11:
 327              		.file 2 "H:/STM32H7/RGB_LVGL/Middlewares/LVGL/GUI/lvgl/src/stdlib/lv_string.h"
   1:H:/STM32H7/RGB_LVGL/Middlewares/LVGL/GUI/lvgl/src/stdlib\lv_string.h **** /**
   2:H:/STM32H7/RGB_LVGL/Middlewares/LVGL/GUI/lvgl/src/stdlib\lv_string.h ****  * @file lv_string.h
   3:H:/STM32H7/RGB_LVGL/Middlewares/LVGL/GUI/lvgl/src/stdlib\lv_string.h ****  *
   4:H:/STM32H7/RGB_LVGL/Middlewares/LVGL/GUI/lvgl/src/stdlib\lv_string.h ****  */
   5:H:/STM32H7/RGB_LVGL/Middlewares/LVGL/GUI/lvgl/src/stdlib\lv_string.h **** 
   6:H:/STM32H7/RGB_LVGL/Middlewares/LVGL/GUI/lvgl/src/stdlib\lv_string.h **** #ifndef LV_STRING_H
   7:H:/STM32H7/RGB_LVGL/Middlewares/LVGL/GUI/lvgl/src/stdlib\lv_string.h **** #define LV_STRING_H
   8:H:/STM32H7/RGB_LVGL/Middlewares/LVGL/GUI/lvgl/src/stdlib\lv_string.h **** 
   9:H:/STM32H7/RGB_LVGL/Middlewares/LVGL/GUI/lvgl/src/stdlib\lv_string.h **** #ifdef __cplusplus
  10:H:/STM32H7/RGB_LVGL/Middlewares/LVGL/GUI/lvgl/src/stdlib\lv_string.h **** extern "C" {
  11:H:/STM32H7/RGB_LVGL/Middlewares/LVGL/GUI/lvgl/src/stdlib\lv_string.h **** #endif
  12:H:/STM32H7/RGB_LVGL/Middlewares/LVGL/GUI/lvgl/src/stdlib\lv_string.h **** 
  13:H:/STM32H7/RGB_LVGL/Middlewares/LVGL/GUI/lvgl/src/stdlib\lv_string.h **** /*********************
  14:H:/STM32H7/RGB_LVGL/Middlewares/LVGL/GUI/lvgl/src/stdlib\lv_string.h ****  *      INCLUDES
  15:H:/STM32H7/RGB_LVGL/Middlewares/LVGL/GUI/lvgl/src/stdlib\lv_string.h ****  *********************/
  16:H:/STM32H7/RGB_LVGL/Middlewares/LVGL/GUI/lvgl/src/stdlib\lv_string.h **** #include "../lv_conf_internal.h"
ARM GAS  C:\Users\28576\AppData\Local\Temp\ccjLWieG.s 			page 20


  17:H:/STM32H7/RGB_LVGL/Middlewares/LVGL/GUI/lvgl/src/stdlib\lv_string.h **** #include "../misc/lv_types.h"
  18:H:/STM32H7/RGB_LVGL/Middlewares/LVGL/GUI/lvgl/src/stdlib\lv_string.h **** 
  19:H:/STM32H7/RGB_LVGL/Middlewares/LVGL/GUI/lvgl/src/stdlib\lv_string.h **** /*********************
  20:H:/STM32H7/RGB_LVGL/Middlewares/LVGL/GUI/lvgl/src/stdlib\lv_string.h ****  *      DEFINES
  21:H:/STM32H7/RGB_LVGL/Middlewares/LVGL/GUI/lvgl/src/stdlib\lv_string.h ****  *********************/
  22:H:/STM32H7/RGB_LVGL/Middlewares/LVGL/GUI/lvgl/src/stdlib\lv_string.h **** 
  23:H:/STM32H7/RGB_LVGL/Middlewares/LVGL/GUI/lvgl/src/stdlib\lv_string.h **** /**********************
  24:H:/STM32H7/RGB_LVGL/Middlewares/LVGL/GUI/lvgl/src/stdlib\lv_string.h ****  *      TYPEDEFS
  25:H:/STM32H7/RGB_LVGL/Middlewares/LVGL/GUI/lvgl/src/stdlib\lv_string.h ****  **********************/
  26:H:/STM32H7/RGB_LVGL/Middlewares/LVGL/GUI/lvgl/src/stdlib\lv_string.h **** 
  27:H:/STM32H7/RGB_LVGL/Middlewares/LVGL/GUI/lvgl/src/stdlib\lv_string.h **** /**********************
  28:H:/STM32H7/RGB_LVGL/Middlewares/LVGL/GUI/lvgl/src/stdlib\lv_string.h ****  * GLOBAL PROTOTYPES
  29:H:/STM32H7/RGB_LVGL/Middlewares/LVGL/GUI/lvgl/src/stdlib\lv_string.h ****  **********************/
  30:H:/STM32H7/RGB_LVGL/Middlewares/LVGL/GUI/lvgl/src/stdlib\lv_string.h **** 
  31:H:/STM32H7/RGB_LVGL/Middlewares/LVGL/GUI/lvgl/src/stdlib\lv_string.h **** /**
  32:H:/STM32H7/RGB_LVGL/Middlewares/LVGL/GUI/lvgl/src/stdlib\lv_string.h ****  * @brief Copies a block of memory from a source address to a destination address.
  33:H:/STM32H7/RGB_LVGL/Middlewares/LVGL/GUI/lvgl/src/stdlib\lv_string.h ****  * @param dst Pointer to the destination array where the content is to be copied.
  34:H:/STM32H7/RGB_LVGL/Middlewares/LVGL/GUI/lvgl/src/stdlib\lv_string.h ****  * @param src Pointer to the source of data to be copied.
  35:H:/STM32H7/RGB_LVGL/Middlewares/LVGL/GUI/lvgl/src/stdlib\lv_string.h ****  * @param len Number of bytes to copy.
  36:H:/STM32H7/RGB_LVGL/Middlewares/LVGL/GUI/lvgl/src/stdlib\lv_string.h ****  * @return Pointer to the destination array.
  37:H:/STM32H7/RGB_LVGL/Middlewares/LVGL/GUI/lvgl/src/stdlib\lv_string.h ****  * @note The function does not check for any overlapping of the source and destination memory block
  38:H:/STM32H7/RGB_LVGL/Middlewares/LVGL/GUI/lvgl/src/stdlib\lv_string.h ****  */
  39:H:/STM32H7/RGB_LVGL/Middlewares/LVGL/GUI/lvgl/src/stdlib\lv_string.h **** void * lv_memcpy(void * dst, const void * src, size_t len);
  40:H:/STM32H7/RGB_LVGL/Middlewares/LVGL/GUI/lvgl/src/stdlib\lv_string.h **** 
  41:H:/STM32H7/RGB_LVGL/Middlewares/LVGL/GUI/lvgl/src/stdlib\lv_string.h **** /**
  42:H:/STM32H7/RGB_LVGL/Middlewares/LVGL/GUI/lvgl/src/stdlib\lv_string.h ****  * @brief Fills a block of memory with a specified value.
  43:H:/STM32H7/RGB_LVGL/Middlewares/LVGL/GUI/lvgl/src/stdlib\lv_string.h ****  * @param dst Pointer to the destination array to fill with the specified value.
  44:H:/STM32H7/RGB_LVGL/Middlewares/LVGL/GUI/lvgl/src/stdlib\lv_string.h ****  * @param v Value to be set. The value is passed as an int, but the function fills
  45:H:/STM32H7/RGB_LVGL/Middlewares/LVGL/GUI/lvgl/src/stdlib\lv_string.h ****  *          the block of memory using the unsigned char conversion of this value.
  46:H:/STM32H7/RGB_LVGL/Middlewares/LVGL/GUI/lvgl/src/stdlib\lv_string.h ****  * @param len Number of bytes to be set to the value.
  47:H:/STM32H7/RGB_LVGL/Middlewares/LVGL/GUI/lvgl/src/stdlib\lv_string.h ****  */
  48:H:/STM32H7/RGB_LVGL/Middlewares/LVGL/GUI/lvgl/src/stdlib\lv_string.h **** void lv_memset(void * dst, uint8_t v, size_t len);
  49:H:/STM32H7/RGB_LVGL/Middlewares/LVGL/GUI/lvgl/src/stdlib\lv_string.h **** 
  50:H:/STM32H7/RGB_LVGL/Middlewares/LVGL/GUI/lvgl/src/stdlib\lv_string.h **** /**
  51:H:/STM32H7/RGB_LVGL/Middlewares/LVGL/GUI/lvgl/src/stdlib\lv_string.h ****  * @brief Move a block of memory from source to destination
  52:H:/STM32H7/RGB_LVGL/Middlewares/LVGL/GUI/lvgl/src/stdlib\lv_string.h ****  * @param dst Pointer to the destination array where the content is to be copied.
  53:H:/STM32H7/RGB_LVGL/Middlewares/LVGL/GUI/lvgl/src/stdlib\lv_string.h ****  * @param src Pointer to the source of data to be copied.
  54:H:/STM32H7/RGB_LVGL/Middlewares/LVGL/GUI/lvgl/src/stdlib\lv_string.h ****  * @param len Number of bytes to copy
  55:H:/STM32H7/RGB_LVGL/Middlewares/LVGL/GUI/lvgl/src/stdlib\lv_string.h ****  * @return Pointer to the destination array.
  56:H:/STM32H7/RGB_LVGL/Middlewares/LVGL/GUI/lvgl/src/stdlib\lv_string.h ****  */
  57:H:/STM32H7/RGB_LVGL/Middlewares/LVGL/GUI/lvgl/src/stdlib\lv_string.h **** void * lv_memmove(void * dst, const void * src, size_t len);
  58:H:/STM32H7/RGB_LVGL/Middlewares/LVGL/GUI/lvgl/src/stdlib\lv_string.h **** 
  59:H:/STM32H7/RGB_LVGL/Middlewares/LVGL/GUI/lvgl/src/stdlib\lv_string.h **** /**
  60:H:/STM32H7/RGB_LVGL/Middlewares/LVGL/GUI/lvgl/src/stdlib\lv_string.h ****  * @brief This function will compare two memory blocks
  61:H:/STM32H7/RGB_LVGL/Middlewares/LVGL/GUI/lvgl/src/stdlib\lv_string.h ****  * @param p1 Pointer to the first memory block
  62:H:/STM32H7/RGB_LVGL/Middlewares/LVGL/GUI/lvgl/src/stdlib\lv_string.h ****  * @param p2 Pointer to the second memory block
  63:H:/STM32H7/RGB_LVGL/Middlewares/LVGL/GUI/lvgl/src/stdlib\lv_string.h ****  * @param len Number of bytes to compare
  64:H:/STM32H7/RGB_LVGL/Middlewares/LVGL/GUI/lvgl/src/stdlib\lv_string.h ****  * @return The difference between the value of the first unmatching byte.
  65:H:/STM32H7/RGB_LVGL/Middlewares/LVGL/GUI/lvgl/src/stdlib\lv_string.h ****  */
  66:H:/STM32H7/RGB_LVGL/Middlewares/LVGL/GUI/lvgl/src/stdlib\lv_string.h **** int lv_memcmp(const void * p1, const void * p2, size_t len);
  67:H:/STM32H7/RGB_LVGL/Middlewares/LVGL/GUI/lvgl/src/stdlib\lv_string.h **** 
  68:H:/STM32H7/RGB_LVGL/Middlewares/LVGL/GUI/lvgl/src/stdlib\lv_string.h **** /**
  69:H:/STM32H7/RGB_LVGL/Middlewares/LVGL/GUI/lvgl/src/stdlib\lv_string.h ****  * Same as `memset(dst, 0x00, len)`.
  70:H:/STM32H7/RGB_LVGL/Middlewares/LVGL/GUI/lvgl/src/stdlib\lv_string.h ****  * @param dst pointer to the destination buffer
  71:H:/STM32H7/RGB_LVGL/Middlewares/LVGL/GUI/lvgl/src/stdlib\lv_string.h ****  * @param len number of byte to set
  72:H:/STM32H7/RGB_LVGL/Middlewares/LVGL/GUI/lvgl/src/stdlib\lv_string.h ****  */
  73:H:/STM32H7/RGB_LVGL/Middlewares/LVGL/GUI/lvgl/src/stdlib\lv_string.h **** static inline void lv_memzero(void * dst, size_t len)
ARM GAS  C:\Users\28576\AppData\Local\Temp\ccjLWieG.s 			page 21


 328              		.loc 2 73 20 view .LVU67
 329              	.LBB12:
  74:H:/STM32H7/RGB_LVGL/Middlewares/LVGL/GUI/lvgl/src/stdlib\lv_string.h **** {
  75:H:/STM32H7/RGB_LVGL/Middlewares/LVGL/GUI/lvgl/src/stdlib\lv_string.h ****     lv_memset(dst, 0x00, len);
 330              		.loc 2 75 5 view .LVU68
 331 000a 1822     		movs	r2, #24
 332              	.LVL32:
 333              		.loc 2 75 5 is_stmt 0 view .LVU69
 334 000c 0021     		movs	r1, #0
 335              	.LVL33:
 336              		.loc 2 75 5 view .LVU70
 337 000e FFF7FEFF 		bl	lv_memset
 338              	.LVL34:
 339              		.loc 2 75 5 view .LVU71
 340              	.LBE12:
 341              	.LBE11:
  73:../../Middlewares/LVGL/GUI/lvgl/src/draw/lv_draw_buf.c ****     handlers->buf_free_cb = buf_free_cb;
 342              		.loc 1 73 5 is_stmt 1 view .LVU72
  73:../../Middlewares/LVGL/GUI/lvgl/src/draw/lv_draw_buf.c ****     handlers->buf_free_cb = buf_free_cb;
 343              		.loc 1 73 29 is_stmt 0 view .LVU73
 344 0012 2760     		str	r7, [r4]
  74:../../Middlewares/LVGL/GUI/lvgl/src/draw/lv_draw_buf.c ****     handlers->align_pointer_cb = align_pointer_cb;
 345              		.loc 1 74 5 is_stmt 1 view .LVU74
  74:../../Middlewares/LVGL/GUI/lvgl/src/draw/lv_draw_buf.c ****     handlers->align_pointer_cb = align_pointer_cb;
 346              		.loc 1 74 27 is_stmt 0 view .LVU75
 347 0014 6660     		str	r6, [r4, #4]
  75:../../Middlewares/LVGL/GUI/lvgl/src/draw/lv_draw_buf.c ****     handlers->invalidate_cache_cb = invalidate_cache_cb;
 348              		.loc 1 75 5 is_stmt 1 view .LVU76
  75:../../Middlewares/LVGL/GUI/lvgl/src/draw/lv_draw_buf.c ****     handlers->invalidate_cache_cb = invalidate_cache_cb;
 349              		.loc 1 75 32 is_stmt 0 view .LVU77
 350 0016 A560     		str	r5, [r4, #8]
  76:../../Middlewares/LVGL/GUI/lvgl/src/draw/lv_draw_buf.c ****     handlers->flush_cache_cb = flush_cache_cb;
 351              		.loc 1 76 5 is_stmt 1 view .LVU78
  76:../../Middlewares/LVGL/GUI/lvgl/src/draw/lv_draw_buf.c ****     handlers->flush_cache_cb = flush_cache_cb;
 352              		.loc 1 76 35 is_stmt 0 view .LVU79
 353 0018 069B     		ldr	r3, [sp, #24]
 354 001a E360     		str	r3, [r4, #12]
  77:../../Middlewares/LVGL/GUI/lvgl/src/draw/lv_draw_buf.c ****     handlers->width_to_stride_cb = width_to_stride_cb;
 355              		.loc 1 77 5 is_stmt 1 view .LVU80
  77:../../Middlewares/LVGL/GUI/lvgl/src/draw/lv_draw_buf.c ****     handlers->width_to_stride_cb = width_to_stride_cb;
 356              		.loc 1 77 30 is_stmt 0 view .LVU81
 357 001c 079B     		ldr	r3, [sp, #28]
 358 001e 2361     		str	r3, [r4, #16]
  78:../../Middlewares/LVGL/GUI/lvgl/src/draw/lv_draw_buf.c **** }
 359              		.loc 1 78 5 is_stmt 1 view .LVU82
  78:../../Middlewares/LVGL/GUI/lvgl/src/draw/lv_draw_buf.c **** }
 360              		.loc 1 78 34 is_stmt 0 view .LVU83
 361 0020 089B     		ldr	r3, [sp, #32]
 362 0022 6361     		str	r3, [r4, #20]
  79:../../Middlewares/LVGL/GUI/lvgl/src/draw/lv_draw_buf.c **** 
 363              		.loc 1 79 1 view .LVU84
 364 0024 F8BD     		pop	{r3, r4, r5, r6, r7, pc}
  79:../../Middlewares/LVGL/GUI/lvgl/src/draw/lv_draw_buf.c **** 
 365              		.loc 1 79 1 view .LVU85
 366              		.cfi_endproc
 367              	.LFE189:
 369              		.section	.text.lv_draw_buf_init_with_default_handlers,"ax",%progbits
ARM GAS  C:\Users\28576\AppData\Local\Temp\ccjLWieG.s 			page 22


 370              		.align	1
 371              		.global	lv_draw_buf_init_with_default_handlers
 372              		.syntax unified
 373              		.thumb
 374              		.thumb_func
 376              	lv_draw_buf_init_with_default_handlers:
 377              	.LVL35:
 378              	.LFB188:
  60:../../Middlewares/LVGL/GUI/lvgl/src/draw/lv_draw_buf.c ****     lv_draw_buf_handlers_init(handlers, buf_malloc, buf_free, buf_align, NULL, NULL, width_to_strid
 379              		.loc 1 60 1 is_stmt 1 view -0
 380              		.cfi_startproc
 381              		@ args = 0, pretend = 0, frame = 0
 382              		@ frame_needed = 0, uses_anonymous_args = 0
  60:../../Middlewares/LVGL/GUI/lvgl/src/draw/lv_draw_buf.c ****     lv_draw_buf_handlers_init(handlers, buf_malloc, buf_free, buf_align, NULL, NULL, width_to_strid
 383              		.loc 1 60 1 is_stmt 0 view .LVU87
 384 0000 00B5     		push	{lr}
 385              	.LCFI9:
 386              		.cfi_def_cfa_offset 4
 387              		.cfi_offset 14, -4
 388 0002 85B0     		sub	sp, sp, #20
 389              	.LCFI10:
 390              		.cfi_def_cfa_offset 24
  61:../../Middlewares/LVGL/GUI/lvgl/src/draw/lv_draw_buf.c **** }
 391              		.loc 1 61 5 is_stmt 1 view .LVU88
 392 0004 054B     		ldr	r3, .L23
 393 0006 0293     		str	r3, [sp, #8]
 394 0008 0023     		movs	r3, #0
 395 000a 0193     		str	r3, [sp, #4]
 396 000c 0093     		str	r3, [sp]
 397 000e 044B     		ldr	r3, .L23+4
 398 0010 044A     		ldr	r2, .L23+8
 399 0012 0549     		ldr	r1, .L23+12
 400 0014 FFF7FEFF 		bl	lv_draw_buf_handlers_init
 401              	.LVL36:
  62:../../Middlewares/LVGL/GUI/lvgl/src/draw/lv_draw_buf.c **** 
 402              		.loc 1 62 1 is_stmt 0 view .LVU89
 403 0018 05B0     		add	sp, sp, #20
 404              	.LCFI11:
 405              		.cfi_def_cfa_offset 4
 406              		@ sp needed
 407 001a 00BD     		pop	{pc}
 408              	.L24:
 409              		.align	2
 410              	.L23:
 411 001c 00000000 		.word	width_to_stride
 412 0020 00000000 		.word	buf_align
 413 0024 00000000 		.word	buf_free
 414 0028 00000000 		.word	buf_malloc
 415              		.cfi_endproc
 416              	.LFE188:
 418              		.section	.text.lv_draw_buf_init_handlers,"ax",%progbits
 419              		.align	1
 420              		.global	lv_draw_buf_init_handlers
 421              		.syntax unified
 422              		.thumb
 423              		.thumb_func
 425              	lv_draw_buf_init_handlers:
ARM GAS  C:\Users\28576\AppData\Local\Temp\ccjLWieG.s 			page 23


 426              	.LFB187:
  53:../../Middlewares/LVGL/GUI/lvgl/src/draw/lv_draw_buf.c ****     lv_draw_buf_init_with_default_handlers(&default_handlers);
 427              		.loc 1 53 1 is_stmt 1 view -0
 428              		.cfi_startproc
 429              		@ args = 0, pretend = 0, frame = 0
 430              		@ frame_needed = 0, uses_anonymous_args = 0
 431 0000 10B5     		push	{r4, lr}
 432              	.LCFI12:
 433              		.cfi_def_cfa_offset 8
 434              		.cfi_offset 4, -8
 435              		.cfi_offset 14, -4
  54:../../Middlewares/LVGL/GUI/lvgl/src/draw/lv_draw_buf.c ****     lv_draw_buf_init_with_default_handlers(&font_draw_buf_handlers);
 436              		.loc 1 54 5 view .LVU91
 437 0002 064C     		ldr	r4, .L27
 438 0004 2046     		mov	r0, r4
 439 0006 FFF7FEFF 		bl	lv_draw_buf_init_with_default_handlers
 440              	.LVL37:
  55:../../Middlewares/LVGL/GUI/lvgl/src/draw/lv_draw_buf.c ****     lv_draw_buf_init_with_default_handlers(&image_cache_draw_buf_handlers);
 441              		.loc 1 55 5 view .LVU92
 442 000a 04F11800 		add	r0, r4, #24
 443 000e FFF7FEFF 		bl	lv_draw_buf_init_with_default_handlers
 444              	.LVL38:
  56:../../Middlewares/LVGL/GUI/lvgl/src/draw/lv_draw_buf.c **** }
 445              		.loc 1 56 5 view .LVU93
 446 0012 04F13000 		add	r0, r4, #48
 447 0016 FFF7FEFF 		bl	lv_draw_buf_init_with_default_handlers
 448              	.LVL39:
  57:../../Middlewares/LVGL/GUI/lvgl/src/draw/lv_draw_buf.c **** 
 449              		.loc 1 57 1 is_stmt 0 view .LVU94
 450 001a 10BD     		pop	{r4, pc}
 451              	.L28:
 452              		.align	2
 453              	.L27:
 454 001c C8000000 		.word	lv_global+200
 455              		.cfi_endproc
 456              	.LFE187:
 458              		.section	.text.lv_draw_buf_get_handlers,"ax",%progbits
 459              		.align	1
 460              		.global	lv_draw_buf_get_handlers
 461              		.syntax unified
 462              		.thumb
 463              		.thumb_func
 465              	lv_draw_buf_get_handlers:
 466              	.LFB190:
  82:../../Middlewares/LVGL/GUI/lvgl/src/draw/lv_draw_buf.c ****     return &default_handlers;
 467              		.loc 1 82 1 is_stmt 1 view -0
 468              		.cfi_startproc
 469              		@ args = 0, pretend = 0, frame = 0
 470              		@ frame_needed = 0, uses_anonymous_args = 0
 471              		@ link register save eliminated.
  83:../../Middlewares/LVGL/GUI/lvgl/src/draw/lv_draw_buf.c **** }
 472              		.loc 1 83 5 view .LVU96
  84:../../Middlewares/LVGL/GUI/lvgl/src/draw/lv_draw_buf.c **** 
 473              		.loc 1 84 1 is_stmt 0 view .LVU97
 474 0000 0048     		ldr	r0, .L30
 475 0002 7047     		bx	lr
 476              	.L31:
ARM GAS  C:\Users\28576\AppData\Local\Temp\ccjLWieG.s 			page 24


 477              		.align	2
 478              	.L30:
 479 0004 C8000000 		.word	lv_global+200
 480              		.cfi_endproc
 481              	.LFE190:
 483              		.section	.text.lv_draw_buf_get_font_handlers,"ax",%progbits
 484              		.align	1
 485              		.global	lv_draw_buf_get_font_handlers
 486              		.syntax unified
 487              		.thumb
 488              		.thumb_func
 490              	lv_draw_buf_get_font_handlers:
 491              	.LFB191:
  87:../../Middlewares/LVGL/GUI/lvgl/src/draw/lv_draw_buf.c ****     return &font_draw_buf_handlers;
 492              		.loc 1 87 1 is_stmt 1 view -0
 493              		.cfi_startproc
 494              		@ args = 0, pretend = 0, frame = 0
 495              		@ frame_needed = 0, uses_anonymous_args = 0
 496              		@ link register save eliminated.
  88:../../Middlewares/LVGL/GUI/lvgl/src/draw/lv_draw_buf.c **** }
 497              		.loc 1 88 5 view .LVU99
  89:../../Middlewares/LVGL/GUI/lvgl/src/draw/lv_draw_buf.c **** 
 498              		.loc 1 89 1 is_stmt 0 view .LVU100
 499 0000 0048     		ldr	r0, .L33
 500 0002 7047     		bx	lr
 501              	.L34:
 502              		.align	2
 503              	.L33:
 504 0004 E0000000 		.word	lv_global+224
 505              		.cfi_endproc
 506              	.LFE191:
 508              		.section	.text.lv_draw_buf_get_image_handlers,"ax",%progbits
 509              		.align	1
 510              		.global	lv_draw_buf_get_image_handlers
 511              		.syntax unified
 512              		.thumb
 513              		.thumb_func
 515              	lv_draw_buf_get_image_handlers:
 516              	.LFB192:
  92:../../Middlewares/LVGL/GUI/lvgl/src/draw/lv_draw_buf.c ****     return &image_cache_draw_buf_handlers;
 517              		.loc 1 92 1 is_stmt 1 view -0
 518              		.cfi_startproc
 519              		@ args = 0, pretend = 0, frame = 0
 520              		@ frame_needed = 0, uses_anonymous_args = 0
 521              		@ link register save eliminated.
  93:../../Middlewares/LVGL/GUI/lvgl/src/draw/lv_draw_buf.c **** }
 522              		.loc 1 93 5 view .LVU102
  94:../../Middlewares/LVGL/GUI/lvgl/src/draw/lv_draw_buf.c **** 
 523              		.loc 1 94 1 is_stmt 0 view .LVU103
 524 0000 0048     		ldr	r0, .L36
 525 0002 7047     		bx	lr
 526              	.L37:
 527              		.align	2
 528              	.L36:
 529 0004 F8000000 		.word	lv_global+248
 530              		.cfi_endproc
 531              	.LFE192:
ARM GAS  C:\Users\28576\AppData\Local\Temp\ccjLWieG.s 			page 25


 533              		.section	.text.lv_draw_buf_width_to_stride_ex,"ax",%progbits
 534              		.align	1
 535              		.global	lv_draw_buf_width_to_stride_ex
 536              		.syntax unified
 537              		.thumb
 538              		.thumb_func
 540              	lv_draw_buf_width_to_stride_ex:
 541              	.LVL40:
 542              	.LFB194:
 103:../../Middlewares/LVGL/GUI/lvgl/src/draw/lv_draw_buf.c ****     if(handlers->width_to_stride_cb) return handlers->width_to_stride_cb(w, color_format);
 543              		.loc 1 103 1 is_stmt 1 view -0
 544              		.cfi_startproc
 545              		@ args = 0, pretend = 0, frame = 0
 546              		@ frame_needed = 0, uses_anonymous_args = 0
 103:../../Middlewares/LVGL/GUI/lvgl/src/draw/lv_draw_buf.c ****     if(handlers->width_to_stride_cb) return handlers->width_to_stride_cb(w, color_format);
 547              		.loc 1 103 1 is_stmt 0 view .LVU105
 548 0000 08B5     		push	{r3, lr}
 549              	.LCFI13:
 550              		.cfi_def_cfa_offset 8
 551              		.cfi_offset 3, -8
 552              		.cfi_offset 14, -4
 553 0002 0B46     		mov	r3, r1
 554 0004 1146     		mov	r1, r2
 555              	.LVL41:
 104:../../Middlewares/LVGL/GUI/lvgl/src/draw/lv_draw_buf.c ****     else return 0;
 556              		.loc 1 104 5 is_stmt 1 view .LVU106
 104:../../Middlewares/LVGL/GUI/lvgl/src/draw/lv_draw_buf.c ****     else return 0;
 557              		.loc 1 104 16 is_stmt 0 view .LVU107
 558 0006 4269     		ldr	r2, [r0, #20]
 559              	.LVL42:
 104:../../Middlewares/LVGL/GUI/lvgl/src/draw/lv_draw_buf.c ****     else return 0;
 560              		.loc 1 104 7 view .LVU108
 561 0008 12B1     		cbz	r2, .L40
 104:../../Middlewares/LVGL/GUI/lvgl/src/draw/lv_draw_buf.c ****     else return 0;
 562              		.loc 1 104 38 is_stmt 1 discriminator 1 view .LVU109
 104:../../Middlewares/LVGL/GUI/lvgl/src/draw/lv_draw_buf.c ****     else return 0;
 563              		.loc 1 104 45 is_stmt 0 discriminator 1 view .LVU110
 564 000a 1846     		mov	r0, r3
 565              	.LVL43:
 104:../../Middlewares/LVGL/GUI/lvgl/src/draw/lv_draw_buf.c ****     else return 0;
 566              		.loc 1 104 45 discriminator 1 view .LVU111
 567 000c 9047     		blx	r2
 568              	.LVL44:
 569              	.L38:
 106:../../Middlewares/LVGL/GUI/lvgl/src/draw/lv_draw_buf.c **** 
 570              		.loc 1 106 1 view .LVU112
 571 000e 08BD     		pop	{r3, pc}
 572              	.LVL45:
 573              	.L40:
 105:../../Middlewares/LVGL/GUI/lvgl/src/draw/lv_draw_buf.c **** }
 574              		.loc 1 105 17 view .LVU113
 575 0010 1046     		mov	r0, r2
 576              	.LVL46:
 105:../../Middlewares/LVGL/GUI/lvgl/src/draw/lv_draw_buf.c **** }
 577              		.loc 1 105 17 view .LVU114
 578 0012 FCE7     		b	.L38
 579              		.cfi_endproc
ARM GAS  C:\Users\28576\AppData\Local\Temp\ccjLWieG.s 			page 26


 580              	.LFE194:
 582              		.section	.text.lv_draw_buf_width_to_stride,"ax",%progbits
 583              		.align	1
 584              		.global	lv_draw_buf_width_to_stride
 585              		.syntax unified
 586              		.thumb
 587              		.thumb_func
 589              	lv_draw_buf_width_to_stride:
 590              	.LVL47:
 591              	.LFB193:
  97:../../Middlewares/LVGL/GUI/lvgl/src/draw/lv_draw_buf.c ****     return lv_draw_buf_width_to_stride_ex(&default_handlers, w, color_format);
 592              		.loc 1 97 1 is_stmt 1 view -0
 593              		.cfi_startproc
 594              		@ args = 0, pretend = 0, frame = 0
 595              		@ frame_needed = 0, uses_anonymous_args = 0
  97:../../Middlewares/LVGL/GUI/lvgl/src/draw/lv_draw_buf.c ****     return lv_draw_buf_width_to_stride_ex(&default_handlers, w, color_format);
 596              		.loc 1 97 1 is_stmt 0 view .LVU116
 597 0000 08B5     		push	{r3, lr}
 598              	.LCFI14:
 599              		.cfi_def_cfa_offset 8
 600              		.cfi_offset 3, -8
 601              		.cfi_offset 14, -4
 602 0002 0A46     		mov	r2, r1
  98:../../Middlewares/LVGL/GUI/lvgl/src/draw/lv_draw_buf.c **** }
 603              		.loc 1 98 5 is_stmt 1 view .LVU117
  98:../../Middlewares/LVGL/GUI/lvgl/src/draw/lv_draw_buf.c **** }
 604              		.loc 1 98 12 is_stmt 0 view .LVU118
 605 0004 0146     		mov	r1, r0
 606              	.LVL48:
  98:../../Middlewares/LVGL/GUI/lvgl/src/draw/lv_draw_buf.c **** }
 607              		.loc 1 98 12 view .LVU119
 608 0006 0248     		ldr	r0, .L44
 609              	.LVL49:
  98:../../Middlewares/LVGL/GUI/lvgl/src/draw/lv_draw_buf.c **** }
 610              		.loc 1 98 12 view .LVU120
 611 0008 FFF7FEFF 		bl	lv_draw_buf_width_to_stride_ex
 612              	.LVL50:
  99:../../Middlewares/LVGL/GUI/lvgl/src/draw/lv_draw_buf.c **** 
 613              		.loc 1 99 1 view .LVU121
 614 000c 08BD     		pop	{r3, pc}
 615              	.L45:
 616 000e 00BF     		.align	2
 617              	.L44:
 618 0010 C8000000 		.word	lv_global+200
 619              		.cfi_endproc
 620              	.LFE193:
 622              		.section	.text._calculate_draw_buf_size,"ax",%progbits
 623              		.align	1
 624              		.syntax unified
 625              		.thumb
 626              		.thumb_func
 628              	_calculate_draw_buf_size:
 629              	.LVL51:
 630              	.LFB225:
 704:../../Middlewares/LVGL/GUI/lvgl/src/draw/lv_draw_buf.c ****     uint32_t size;
 631              		.loc 1 704 1 is_stmt 1 view -0
 632              		.cfi_startproc
ARM GAS  C:\Users\28576\AppData\Local\Temp\ccjLWieG.s 			page 27


 633              		@ args = 0, pretend = 0, frame = 0
 634              		@ frame_needed = 0, uses_anonymous_args = 0
 704:../../Middlewares/LVGL/GUI/lvgl/src/draw/lv_draw_buf.c ****     uint32_t size;
 635              		.loc 1 704 1 is_stmt 0 view .LVU123
 636 0000 38B5     		push	{r3, r4, r5, lr}
 637              	.LCFI15:
 638              		.cfi_def_cfa_offset 16
 639              		.cfi_offset 3, -16
 640              		.cfi_offset 4, -12
 641              		.cfi_offset 5, -8
 642              		.cfi_offset 14, -4
 643 0002 0D46     		mov	r5, r1
 644 0004 1446     		mov	r4, r2
 705:../../Middlewares/LVGL/GUI/lvgl/src/draw/lv_draw_buf.c **** 
 645              		.loc 1 705 5 is_stmt 1 view .LVU124
 707:../../Middlewares/LVGL/GUI/lvgl/src/draw/lv_draw_buf.c **** 
 646              		.loc 1 707 5 view .LVU125
 707:../../Middlewares/LVGL/GUI/lvgl/src/draw/lv_draw_buf.c **** 
 647              		.loc 1 707 7 is_stmt 0 view .LVU126
 648 0006 1A46     		mov	r2, r3
 649              	.LVL52:
 707:../../Middlewares/LVGL/GUI/lvgl/src/draw/lv_draw_buf.c **** 
 650              		.loc 1 707 7 view .LVU127
 651 0008 8BB1     		cbz	r3, .L56
 652              	.LVL53:
 653              	.L47:
 709:../../Middlewares/LVGL/GUI/lvgl/src/draw/lv_draw_buf.c ****     if(cf == LV_COLOR_FORMAT_RGB565A8) {
 654              		.loc 1 709 5 is_stmt 1 view .LVU128
 709:../../Middlewares/LVGL/GUI/lvgl/src/draw/lv_draw_buf.c ****     if(cf == LV_COLOR_FORMAT_RGB565A8) {
 655              		.loc 1 709 10 is_stmt 0 view .LVU129
 656 000a 05FB02F0 		mul	r0, r5, r2
 657              	.LVL54:
 710:../../Middlewares/LVGL/GUI/lvgl/src/draw/lv_draw_buf.c ****         size += (stride / 2) * h; /*A8 mask*/
 658              		.loc 1 710 5 is_stmt 1 view .LVU130
 710:../../Middlewares/LVGL/GUI/lvgl/src/draw/lv_draw_buf.c ****         size += (stride / 2) * h; /*A8 mask*/
 659              		.loc 1 710 7 is_stmt 0 view .LVU131
 660 000e 142C     		cmp	r4, #20
 661 0010 12D0     		beq	.L57
 713:../../Middlewares/LVGL/GUI/lvgl/src/draw/lv_draw_buf.c ****         /*@todo we have to include palette right before image data*/
 662              		.loc 1 713 10 is_stmt 1 view .LVU132
 713:../../Middlewares/LVGL/GUI/lvgl/src/draw/lv_draw_buf.c ****         /*@todo we have to include palette right before image data*/
 663              		.loc 1 713 13 is_stmt 0 view .LVU133
 664 0012 E31F     		subs	r3, r4, #7
 665 0014 DBB2     		uxtb	r3, r3
 713:../../Middlewares/LVGL/GUI/lvgl/src/draw/lv_draw_buf.c ****         /*@todo we have to include palette right before image data*/
 666              		.loc 1 713 12 view .LVU134
 667 0016 032B     		cmp	r3, #3
 668 0018 11D8     		bhi	.L46
 715:../../Middlewares/LVGL/GUI/lvgl/src/draw/lv_draw_buf.c ****     }
 669              		.loc 1 715 9 is_stmt 1 view .LVU135
 715:../../Middlewares/LVGL/GUI/lvgl/src/draw/lv_draw_buf.c ****     }
 670              		.loc 1 715 51 is_stmt 0 view .LVU136
 671 001a 072C     		cmp	r4, #7
 672 001c 13D0     		beq	.L51
 715:../../Middlewares/LVGL/GUI/lvgl/src/draw/lv_draw_buf.c ****     }
 673              		.loc 1 715 51 discriminator 1 view .LVU137
 674 001e 082C     		cmp	r4, #8
ARM GAS  C:\Users\28576\AppData\Local\Temp\ccjLWieG.s 			page 28


 675 0020 14D0     		beq	.L52
 715:../../Middlewares/LVGL/GUI/lvgl/src/draw/lv_draw_buf.c ****     }
 676              		.loc 1 715 51 discriminator 3 view .LVU138
 677 0022 092C     		cmp	r4, #9
 678 0024 14D0     		beq	.L53
 715:../../Middlewares/LVGL/GUI/lvgl/src/draw/lv_draw_buf.c ****     }
 679              		.loc 1 715 51 discriminator 5 view .LVU139
 680 0026 0A2C     		cmp	r4, #10
 681 0028 0AD0     		beq	.L58
 715:../../Middlewares/LVGL/GUI/lvgl/src/draw/lv_draw_buf.c ****     }
 682              		.loc 1 715 51 discriminator 8 view .LVU140
 683 002a 0023     		movs	r3, #0
 684 002c 0CE0     		b	.L50
 685              	.LVL55:
 686              	.L56:
 707:../../Middlewares/LVGL/GUI/lvgl/src/draw/lv_draw_buf.c **** 
 687              		.loc 1 707 21 is_stmt 1 discriminator 1 view .LVU141
 707:../../Middlewares/LVGL/GUI/lvgl/src/draw/lv_draw_buf.c **** 
 688              		.loc 1 707 30 is_stmt 0 discriminator 1 view .LVU142
 689 002e 2146     		mov	r1, r4
 690              	.LVL56:
 707:../../Middlewares/LVGL/GUI/lvgl/src/draw/lv_draw_buf.c **** 
 691              		.loc 1 707 30 discriminator 1 view .LVU143
 692 0030 FFF7FEFF 		bl	lv_draw_buf_width_to_stride
 693              	.LVL57:
 707:../../Middlewares/LVGL/GUI/lvgl/src/draw/lv_draw_buf.c **** 
 694              		.loc 1 707 30 discriminator 1 view .LVU144
 695 0034 0246     		mov	r2, r0
 696 0036 E8E7     		b	.L47
 697              	.LVL58:
 698              	.L57:
 711:../../Middlewares/LVGL/GUI/lvgl/src/draw/lv_draw_buf.c ****     }
 699              		.loc 1 711 9 is_stmt 1 view .LVU145
 711:../../Middlewares/LVGL/GUI/lvgl/src/draw/lv_draw_buf.c ****     }
 700              		.loc 1 711 25 is_stmt 0 view .LVU146
 701 0038 5208     		lsrs	r2, r2, #1
 702              	.LVL59:
 711:../../Middlewares/LVGL/GUI/lvgl/src/draw/lv_draw_buf.c ****     }
 703              		.loc 1 711 14 view .LVU147
 704 003a 05FB0200 		mla	r0, r5, r2, r0
 705              	.LVL60:
 706              	.L46:
 719:../../Middlewares/LVGL/GUI/lvgl/src/draw/lv_draw_buf.c **** 
 707              		.loc 1 719 1 view .LVU148
 708 003e 38BD     		pop	{r3, r4, r5, pc}
 709              	.LVL61:
 710              	.L58:
 715:../../Middlewares/LVGL/GUI/lvgl/src/draw/lv_draw_buf.c ****     }
 711              		.loc 1 715 51 discriminator 7 view .LVU149
 712 0040 4FF48063 		mov	r3, #1024
 713 0044 00E0     		b	.L50
 714              	.L51:
 715:../../Middlewares/LVGL/GUI/lvgl/src/draw/lv_draw_buf.c ****     }
 715              		.loc 1 715 51 discriminator 2 view .LVU150
 716 0046 0823     		movs	r3, #8
 717              	.L50:
 715:../../Middlewares/LVGL/GUI/lvgl/src/draw/lv_draw_buf.c ****     }
ARM GAS  C:\Users\28576\AppData\Local\Temp\ccjLWieG.s 			page 29


 718              		.loc 1 715 14 discriminator 9 view .LVU151
 719 0048 1844     		add	r0, r0, r3
 720              	.LVL62:
 718:../../Middlewares/LVGL/GUI/lvgl/src/draw/lv_draw_buf.c **** }
 721              		.loc 1 718 5 is_stmt 1 view .LVU152
 718:../../Middlewares/LVGL/GUI/lvgl/src/draw/lv_draw_buf.c **** }
 722              		.loc 1 718 12 is_stmt 0 view .LVU153
 723 004a F8E7     		b	.L46
 724              	.L52:
 715:../../Middlewares/LVGL/GUI/lvgl/src/draw/lv_draw_buf.c ****     }
 725              		.loc 1 715 51 discriminator 4 view .LVU154
 726 004c 1023     		movs	r3, #16
 727 004e FBE7     		b	.L50
 728              	.L53:
 715:../../Middlewares/LVGL/GUI/lvgl/src/draw/lv_draw_buf.c ****     }
 729              		.loc 1 715 51 discriminator 6 view .LVU155
 730 0050 4023     		movs	r3, #64
 731 0052 F9E7     		b	.L50
 732              		.cfi_endproc
 733              	.LFE225:
 735              		.section	.text.lv_draw_buf_align_ex,"ax",%progbits
 736              		.align	1
 737              		.global	lv_draw_buf_align_ex
 738              		.syntax unified
 739              		.thumb
 740              		.thumb_func
 742              	lv_draw_buf_align_ex:
 743              	.LVL63:
 744              	.LFB196:
 114:../../Middlewares/LVGL/GUI/lvgl/src/draw/lv_draw_buf.c ****     if(handlers->align_pointer_cb) return handlers->align_pointer_cb(data, color_format);
 745              		.loc 1 114 1 is_stmt 1 view -0
 746              		.cfi_startproc
 747              		@ args = 0, pretend = 0, frame = 0
 748              		@ frame_needed = 0, uses_anonymous_args = 0
 114:../../Middlewares/LVGL/GUI/lvgl/src/draw/lv_draw_buf.c ****     if(handlers->align_pointer_cb) return handlers->align_pointer_cb(data, color_format);
 749              		.loc 1 114 1 is_stmt 0 view .LVU157
 750 0000 08B5     		push	{r3, lr}
 751              	.LCFI16:
 752              		.cfi_def_cfa_offset 8
 753              		.cfi_offset 3, -8
 754              		.cfi_offset 14, -4
 755 0002 0B46     		mov	r3, r1
 756 0004 1146     		mov	r1, r2
 757              	.LVL64:
 115:../../Middlewares/LVGL/GUI/lvgl/src/draw/lv_draw_buf.c ****     else return NULL;
 758              		.loc 1 115 5 is_stmt 1 view .LVU158
 115:../../Middlewares/LVGL/GUI/lvgl/src/draw/lv_draw_buf.c ****     else return NULL;
 759              		.loc 1 115 16 is_stmt 0 view .LVU159
 760 0006 8268     		ldr	r2, [r0, #8]
 761              	.LVL65:
 115:../../Middlewares/LVGL/GUI/lvgl/src/draw/lv_draw_buf.c ****     else return NULL;
 762              		.loc 1 115 7 view .LVU160
 763 0008 12B1     		cbz	r2, .L61
 115:../../Middlewares/LVGL/GUI/lvgl/src/draw/lv_draw_buf.c ****     else return NULL;
 764              		.loc 1 115 36 is_stmt 1 discriminator 1 view .LVU161
 115:../../Middlewares/LVGL/GUI/lvgl/src/draw/lv_draw_buf.c ****     else return NULL;
 765              		.loc 1 115 43 is_stmt 0 discriminator 1 view .LVU162
ARM GAS  C:\Users\28576\AppData\Local\Temp\ccjLWieG.s 			page 30


 766 000a 1846     		mov	r0, r3
 767              	.LVL66:
 115:../../Middlewares/LVGL/GUI/lvgl/src/draw/lv_draw_buf.c ****     else return NULL;
 768              		.loc 1 115 43 discriminator 1 view .LVU163
 769 000c 9047     		blx	r2
 770              	.LVL67:
 771              	.L59:
 117:../../Middlewares/LVGL/GUI/lvgl/src/draw/lv_draw_buf.c **** 
 772              		.loc 1 117 1 view .LVU164
 773 000e 08BD     		pop	{r3, pc}
 774              	.LVL68:
 775              	.L61:
 116:../../Middlewares/LVGL/GUI/lvgl/src/draw/lv_draw_buf.c **** }
 776              		.loc 1 116 17 view .LVU165
 777 0010 1046     		mov	r0, r2
 778              	.LVL69:
 116:../../Middlewares/LVGL/GUI/lvgl/src/draw/lv_draw_buf.c **** }
 779              		.loc 1 116 17 view .LVU166
 780 0012 FCE7     		b	.L59
 781              		.cfi_endproc
 782              	.LFE196:
 784              		.section	.text.lv_draw_buf_align,"ax",%progbits
 785              		.align	1
 786              		.global	lv_draw_buf_align
 787              		.syntax unified
 788              		.thumb
 789              		.thumb_func
 791              	lv_draw_buf_align:
 792              	.LVL70:
 793              	.LFB195:
 109:../../Middlewares/LVGL/GUI/lvgl/src/draw/lv_draw_buf.c ****     return lv_draw_buf_align_ex(&default_handlers, data, color_format);
 794              		.loc 1 109 1 is_stmt 1 view -0
 795              		.cfi_startproc
 796              		@ args = 0, pretend = 0, frame = 0
 797              		@ frame_needed = 0, uses_anonymous_args = 0
 109:../../Middlewares/LVGL/GUI/lvgl/src/draw/lv_draw_buf.c ****     return lv_draw_buf_align_ex(&default_handlers, data, color_format);
 798              		.loc 1 109 1 is_stmt 0 view .LVU168
 799 0000 08B5     		push	{r3, lr}
 800              	.LCFI17:
 801              		.cfi_def_cfa_offset 8
 802              		.cfi_offset 3, -8
 803              		.cfi_offset 14, -4
 804 0002 0A46     		mov	r2, r1
 110:../../Middlewares/LVGL/GUI/lvgl/src/draw/lv_draw_buf.c **** }
 805              		.loc 1 110 5 is_stmt 1 view .LVU169
 110:../../Middlewares/LVGL/GUI/lvgl/src/draw/lv_draw_buf.c **** }
 806              		.loc 1 110 12 is_stmt 0 view .LVU170
 807 0004 0146     		mov	r1, r0
 808              	.LVL71:
 110:../../Middlewares/LVGL/GUI/lvgl/src/draw/lv_draw_buf.c **** }
 809              		.loc 1 110 12 view .LVU171
 810 0006 0248     		ldr	r0, .L65
 811              	.LVL72:
 110:../../Middlewares/LVGL/GUI/lvgl/src/draw/lv_draw_buf.c **** }
 812              		.loc 1 110 12 view .LVU172
 813 0008 FFF7FEFF 		bl	lv_draw_buf_align_ex
 814              	.LVL73:
ARM GAS  C:\Users\28576\AppData\Local\Temp\ccjLWieG.s 			page 31


 111:../../Middlewares/LVGL/GUI/lvgl/src/draw/lv_draw_buf.c **** 
 815              		.loc 1 111 1 view .LVU173
 816 000c 08BD     		pop	{r3, pc}
 817              	.L66:
 818 000e 00BF     		.align	2
 819              	.L65:
 820 0010 C8000000 		.word	lv_global+200
 821              		.cfi_endproc
 822              	.LFE195:
 824              		.section	.text.lv_draw_buf_invalidate_cache,"ax",%progbits
 825              		.align	1
 826              		.global	lv_draw_buf_invalidate_cache
 827              		.syntax unified
 828              		.thumb
 829              		.thumb_func
 831              	lv_draw_buf_invalidate_cache:
 832              	.LVL74:
 833              	.LFB197:
 120:../../Middlewares/LVGL/GUI/lvgl/src/draw/lv_draw_buf.c ****     LV_ASSERT_NULL(draw_buf);
 834              		.loc 1 120 1 is_stmt 1 view -0
 835              		.cfi_startproc
 836              		@ args = 0, pretend = 0, frame = 16
 837              		@ frame_needed = 0, uses_anonymous_args = 0
 121:../../Middlewares/LVGL/GUI/lvgl/src/draw/lv_draw_buf.c ****     LV_ASSERT_NULL(draw_buf->handlers);
 838              		.loc 1 121 5 view .LVU175
 121:../../Middlewares/LVGL/GUI/lvgl/src/draw/lv_draw_buf.c ****     LV_ASSERT_NULL(draw_buf->handlers);
 839              		.loc 1 121 5 view .LVU176
 840 0000 60B1     		cbz	r0, .L69
 120:../../Middlewares/LVGL/GUI/lvgl/src/draw/lv_draw_buf.c ****     LV_ASSERT_NULL(draw_buf);
 841              		.loc 1 120 1 is_stmt 0 view .LVU177
 842 0002 30B5     		push	{r4, r5, lr}
 843              	.LCFI18:
 844              		.cfi_def_cfa_offset 12
 845              		.cfi_offset 4, -12
 846              		.cfi_offset 5, -8
 847              		.cfi_offset 14, -4
 848 0004 85B0     		sub	sp, sp, #20
 849              	.LCFI19:
 850              		.cfi_def_cfa_offset 32
 851 0006 0546     		mov	r5, r0
 121:../../Middlewares/LVGL/GUI/lvgl/src/draw/lv_draw_buf.c ****     LV_ASSERT_NULL(draw_buf->handlers);
 852              		.loc 1 121 5 is_stmt 1 view .LVU178
 121:../../Middlewares/LVGL/GUI/lvgl/src/draw/lv_draw_buf.c ****     LV_ASSERT_NULL(draw_buf->handlers);
 853              		.loc 1 121 29 view .LVU179
 122:../../Middlewares/LVGL/GUI/lvgl/src/draw/lv_draw_buf.c **** 
 854              		.loc 1 122 5 view .LVU180
 122:../../Middlewares/LVGL/GUI/lvgl/src/draw/lv_draw_buf.c **** 
 855              		.loc 1 122 5 view .LVU181
 856 0008 8469     		ldr	r4, [r0, #24]
 857 000a 44B1     		cbz	r4, .L71
 122:../../Middlewares/LVGL/GUI/lvgl/src/draw/lv_draw_buf.c **** 
 858              		.loc 1 122 5 view .LVU182
 122:../../Middlewares/LVGL/GUI/lvgl/src/draw/lv_draw_buf.c **** 
 859              		.loc 1 122 39 view .LVU183
 124:../../Middlewares/LVGL/GUI/lvgl/src/draw/lv_draw_buf.c ****     if(!handlers->invalidate_cache_cb) {
 860              		.loc 1 124 5 view .LVU184
 861              	.LVL75:
ARM GAS  C:\Users\28576\AppData\Local\Temp\ccjLWieG.s 			page 32


 125:../../Middlewares/LVGL/GUI/lvgl/src/draw/lv_draw_buf.c ****         return;
 862              		.loc 1 125 5 view .LVU185
 125:../../Middlewares/LVGL/GUI/lvgl/src/draw/lv_draw_buf.c ****         return;
 863              		.loc 1 125 17 is_stmt 0 view .LVU186
 864 000c E368     		ldr	r3, [r4, #12]
 125:../../Middlewares/LVGL/GUI/lvgl/src/draw/lv_draw_buf.c ****         return;
 865              		.loc 1 125 7 view .LVU187
 866 000e 1BB1     		cbz	r3, .L67
 129:../../Middlewares/LVGL/GUI/lvgl/src/draw/lv_draw_buf.c **** 
 867              		.loc 1 129 27 is_stmt 1 view .LVU188
 131:../../Middlewares/LVGL/GUI/lvgl/src/draw/lv_draw_buf.c ****     if(area == NULL) {
 868              		.loc 1 131 5 view .LVU189
 132:../../Middlewares/LVGL/GUI/lvgl/src/draw/lv_draw_buf.c ****         draw_buf_get_full_area(draw_buf, &full);
 869              		.loc 1 132 5 view .LVU190
 132:../../Middlewares/LVGL/GUI/lvgl/src/draw/lv_draw_buf.c ****         draw_buf_get_full_area(draw_buf, &full);
 870              		.loc 1 132 7 is_stmt 0 view .LVU191
 871 0010 31B1     		cbz	r1, .L77
 872              	.LVL76:
 873              	.L74:
 137:../../Middlewares/LVGL/GUI/lvgl/src/draw/lv_draw_buf.c ****     LV_PROFILER_DRAW_END;
 874              		.loc 1 137 5 is_stmt 1 view .LVU192
 137:../../Middlewares/LVGL/GUI/lvgl/src/draw/lv_draw_buf.c ****     LV_PROFILER_DRAW_END;
 875              		.loc 1 137 13 is_stmt 0 view .LVU193
 876 0012 E368     		ldr	r3, [r4, #12]
 137:../../Middlewares/LVGL/GUI/lvgl/src/draw/lv_draw_buf.c ****     LV_PROFILER_DRAW_END;
 877              		.loc 1 137 5 view .LVU194
 878 0014 2846     		mov	r0, r5
 879 0016 9847     		blx	r3
 880              	.LVL77:
 138:../../Middlewares/LVGL/GUI/lvgl/src/draw/lv_draw_buf.c **** }
 881              		.loc 1 138 25 is_stmt 1 view .LVU195
 882              	.L67:
 139:../../Middlewares/LVGL/GUI/lvgl/src/draw/lv_draw_buf.c **** 
 883              		.loc 1 139 1 is_stmt 0 view .LVU196
 884 0018 05B0     		add	sp, sp, #20
 885              	.LCFI20:
 886              		.cfi_def_cfa_offset 12
 887              		@ sp needed
 888 001a 30BD     		pop	{r4, r5, pc}
 889              	.LVL78:
 890              	.L69:
 891              	.LCFI21:
 892              		.cfi_def_cfa_offset 0
 893              		.cfi_restore 4
 894              		.cfi_restore 5
 895              		.cfi_restore 14
 121:../../Middlewares/LVGL/GUI/lvgl/src/draw/lv_draw_buf.c ****     LV_ASSERT_NULL(draw_buf->handlers);
 896              		.loc 1 121 5 is_stmt 1 view .LVU197
 121:../../Middlewares/LVGL/GUI/lvgl/src/draw/lv_draw_buf.c ****     LV_ASSERT_NULL(draw_buf->handlers);
 897              		.loc 1 121 5 view .LVU198
 121:../../Middlewares/LVGL/GUI/lvgl/src/draw/lv_draw_buf.c ****     LV_ASSERT_NULL(draw_buf->handlers);
 898              		.loc 1 121 5 view .LVU199
 121:../../Middlewares/LVGL/GUI/lvgl/src/draw/lv_draw_buf.c ****     LV_ASSERT_NULL(draw_buf->handlers);
 899              		.loc 1 121 5 view .LVU200
 121:../../Middlewares/LVGL/GUI/lvgl/src/draw/lv_draw_buf.c ****     LV_ASSERT_NULL(draw_buf->handlers);
 900              		.loc 1 121 5 view .LVU201
 901 001c FEE7     		b	.L69
ARM GAS  C:\Users\28576\AppData\Local\Temp\ccjLWieG.s 			page 33


 902              	.L71:
 903              	.LCFI22:
 904              		.cfi_def_cfa_offset 32
 905              		.cfi_offset 4, -12
 906              		.cfi_offset 5, -8
 907              		.cfi_offset 14, -4
 122:../../Middlewares/LVGL/GUI/lvgl/src/draw/lv_draw_buf.c **** 
 908              		.loc 1 122 5 view .LVU202
 122:../../Middlewares/LVGL/GUI/lvgl/src/draw/lv_draw_buf.c **** 
 909              		.loc 1 122 5 view .LVU203
 122:../../Middlewares/LVGL/GUI/lvgl/src/draw/lv_draw_buf.c **** 
 910              		.loc 1 122 5 view .LVU204
 122:../../Middlewares/LVGL/GUI/lvgl/src/draw/lv_draw_buf.c **** 
 911              		.loc 1 122 5 view .LVU205
 122:../../Middlewares/LVGL/GUI/lvgl/src/draw/lv_draw_buf.c **** 
 912              		.loc 1 122 5 view .LVU206
 913 001e FEE7     		b	.L71
 914              	.LVL79:
 915              	.L77:
 133:../../Middlewares/LVGL/GUI/lvgl/src/draw/lv_draw_buf.c ****         area = &full;
 916              		.loc 1 133 9 view .LVU207
 917 0020 6946     		mov	r1, sp
 918              	.LVL80:
 133:../../Middlewares/LVGL/GUI/lvgl/src/draw/lv_draw_buf.c ****         area = &full;
 919              		.loc 1 133 9 is_stmt 0 view .LVU208
 920 0022 FFF7FEFF 		bl	draw_buf_get_full_area
 921              	.LVL81:
 134:../../Middlewares/LVGL/GUI/lvgl/src/draw/lv_draw_buf.c ****     }
 922              		.loc 1 134 9 is_stmt 1 view .LVU209
 134:../../Middlewares/LVGL/GUI/lvgl/src/draw/lv_draw_buf.c ****     }
 923              		.loc 1 134 14 is_stmt 0 view .LVU210
 924 0026 6946     		mov	r1, sp
 925 0028 F3E7     		b	.L74
 926              		.cfi_endproc
 927              	.LFE197:
 929              		.section	.text.lv_draw_buf_flush_cache,"ax",%progbits
 930              		.align	1
 931              		.global	lv_draw_buf_flush_cache
 932              		.syntax unified
 933              		.thumb
 934              		.thumb_func
 936              	lv_draw_buf_flush_cache:
 937              	.LVL82:
 938              	.LFB198:
 142:../../Middlewares/LVGL/GUI/lvgl/src/draw/lv_draw_buf.c ****     LV_ASSERT_NULL(draw_buf);
 939              		.loc 1 142 1 is_stmt 1 view -0
 940              		.cfi_startproc
 941              		@ args = 0, pretend = 0, frame = 16
 942              		@ frame_needed = 0, uses_anonymous_args = 0
 143:../../Middlewares/LVGL/GUI/lvgl/src/draw/lv_draw_buf.c ****     LV_ASSERT_NULL(draw_buf->handlers);
 943              		.loc 1 143 5 view .LVU212
 143:../../Middlewares/LVGL/GUI/lvgl/src/draw/lv_draw_buf.c ****     LV_ASSERT_NULL(draw_buf->handlers);
 944              		.loc 1 143 5 view .LVU213
 945 0000 60B1     		cbz	r0, .L80
 142:../../Middlewares/LVGL/GUI/lvgl/src/draw/lv_draw_buf.c ****     LV_ASSERT_NULL(draw_buf);
 946              		.loc 1 142 1 is_stmt 0 view .LVU214
 947 0002 30B5     		push	{r4, r5, lr}
ARM GAS  C:\Users\28576\AppData\Local\Temp\ccjLWieG.s 			page 34


 948              	.LCFI23:
 949              		.cfi_def_cfa_offset 12
 950              		.cfi_offset 4, -12
 951              		.cfi_offset 5, -8
 952              		.cfi_offset 14, -4
 953 0004 85B0     		sub	sp, sp, #20
 954              	.LCFI24:
 955              		.cfi_def_cfa_offset 32
 956 0006 0546     		mov	r5, r0
 143:../../Middlewares/LVGL/GUI/lvgl/src/draw/lv_draw_buf.c ****     LV_ASSERT_NULL(draw_buf->handlers);
 957              		.loc 1 143 5 is_stmt 1 view .LVU215
 143:../../Middlewares/LVGL/GUI/lvgl/src/draw/lv_draw_buf.c ****     LV_ASSERT_NULL(draw_buf->handlers);
 958              		.loc 1 143 29 view .LVU216
 144:../../Middlewares/LVGL/GUI/lvgl/src/draw/lv_draw_buf.c **** 
 959              		.loc 1 144 5 view .LVU217
 144:../../Middlewares/LVGL/GUI/lvgl/src/draw/lv_draw_buf.c **** 
 960              		.loc 1 144 5 view .LVU218
 961 0008 8469     		ldr	r4, [r0, #24]
 962 000a 44B1     		cbz	r4, .L82
 144:../../Middlewares/LVGL/GUI/lvgl/src/draw/lv_draw_buf.c **** 
 963              		.loc 1 144 5 view .LVU219
 144:../../Middlewares/LVGL/GUI/lvgl/src/draw/lv_draw_buf.c **** 
 964              		.loc 1 144 39 view .LVU220
 146:../../Middlewares/LVGL/GUI/lvgl/src/draw/lv_draw_buf.c ****     if(!handlers->flush_cache_cb) {
 965              		.loc 1 146 5 view .LVU221
 966              	.LVL83:
 147:../../Middlewares/LVGL/GUI/lvgl/src/draw/lv_draw_buf.c ****         return;
 967              		.loc 1 147 5 view .LVU222
 147:../../Middlewares/LVGL/GUI/lvgl/src/draw/lv_draw_buf.c ****         return;
 968              		.loc 1 147 17 is_stmt 0 view .LVU223
 969 000c 2369     		ldr	r3, [r4, #16]
 147:../../Middlewares/LVGL/GUI/lvgl/src/draw/lv_draw_buf.c ****         return;
 970              		.loc 1 147 7 view .LVU224
 971 000e 1BB1     		cbz	r3, .L78
 151:../../Middlewares/LVGL/GUI/lvgl/src/draw/lv_draw_buf.c **** 
 972              		.loc 1 151 27 is_stmt 1 view .LVU225
 153:../../Middlewares/LVGL/GUI/lvgl/src/draw/lv_draw_buf.c ****     if(area == NULL) {
 973              		.loc 1 153 5 view .LVU226
 154:../../Middlewares/LVGL/GUI/lvgl/src/draw/lv_draw_buf.c ****         draw_buf_get_full_area(draw_buf, &full);
 974              		.loc 1 154 5 view .LVU227
 154:../../Middlewares/LVGL/GUI/lvgl/src/draw/lv_draw_buf.c ****         draw_buf_get_full_area(draw_buf, &full);
 975              		.loc 1 154 7 is_stmt 0 view .LVU228
 976 0010 31B1     		cbz	r1, .L88
 977              	.LVL84:
 978              	.L85:
 159:../../Middlewares/LVGL/GUI/lvgl/src/draw/lv_draw_buf.c ****     LV_PROFILER_DRAW_END;
 979              		.loc 1 159 5 is_stmt 1 view .LVU229
 159:../../Middlewares/LVGL/GUI/lvgl/src/draw/lv_draw_buf.c ****     LV_PROFILER_DRAW_END;
 980              		.loc 1 159 13 is_stmt 0 view .LVU230
 981 0012 2369     		ldr	r3, [r4, #16]
 159:../../Middlewares/LVGL/GUI/lvgl/src/draw/lv_draw_buf.c ****     LV_PROFILER_DRAW_END;
 982              		.loc 1 159 5 view .LVU231
 983 0014 2846     		mov	r0, r5
 984 0016 9847     		blx	r3
 985              	.LVL85:
 160:../../Middlewares/LVGL/GUI/lvgl/src/draw/lv_draw_buf.c **** }
 986              		.loc 1 160 25 is_stmt 1 view .LVU232
ARM GAS  C:\Users\28576\AppData\Local\Temp\ccjLWieG.s 			page 35


 987              	.L78:
 161:../../Middlewares/LVGL/GUI/lvgl/src/draw/lv_draw_buf.c **** 
 988              		.loc 1 161 1 is_stmt 0 view .LVU233
 989 0018 05B0     		add	sp, sp, #20
 990              	.LCFI25:
 991              		.cfi_def_cfa_offset 12
 992              		@ sp needed
 993 001a 30BD     		pop	{r4, r5, pc}
 994              	.LVL86:
 995              	.L80:
 996              	.LCFI26:
 997              		.cfi_def_cfa_offset 0
 998              		.cfi_restore 4
 999              		.cfi_restore 5
 1000              		.cfi_restore 14
 143:../../Middlewares/LVGL/GUI/lvgl/src/draw/lv_draw_buf.c ****     LV_ASSERT_NULL(draw_buf->handlers);
 1001              		.loc 1 143 5 is_stmt 1 view .LVU234
 143:../../Middlewares/LVGL/GUI/lvgl/src/draw/lv_draw_buf.c ****     LV_ASSERT_NULL(draw_buf->handlers);
 1002              		.loc 1 143 5 view .LVU235
 143:../../Middlewares/LVGL/GUI/lvgl/src/draw/lv_draw_buf.c ****     LV_ASSERT_NULL(draw_buf->handlers);
 1003              		.loc 1 143 5 view .LVU236
 143:../../Middlewares/LVGL/GUI/lvgl/src/draw/lv_draw_buf.c ****     LV_ASSERT_NULL(draw_buf->handlers);
 1004              		.loc 1 143 5 view .LVU237
 143:../../Middlewares/LVGL/GUI/lvgl/src/draw/lv_draw_buf.c ****     LV_ASSERT_NULL(draw_buf->handlers);
 1005              		.loc 1 143 5 view .LVU238
 1006 001c FEE7     		b	.L80
 1007              	.L82:
 1008              	.LCFI27:
 1009              		.cfi_def_cfa_offset 32
 1010              		.cfi_offset 4, -12
 1011              		.cfi_offset 5, -8
 1012              		.cfi_offset 14, -4
 144:../../Middlewares/LVGL/GUI/lvgl/src/draw/lv_draw_buf.c **** 
 1013              		.loc 1 144 5 view .LVU239
 144:../../Middlewares/LVGL/GUI/lvgl/src/draw/lv_draw_buf.c **** 
 1014              		.loc 1 144 5 view .LVU240
 144:../../Middlewares/LVGL/GUI/lvgl/src/draw/lv_draw_buf.c **** 
 1015              		.loc 1 144 5 view .LVU241
 144:../../Middlewares/LVGL/GUI/lvgl/src/draw/lv_draw_buf.c **** 
 1016              		.loc 1 144 5 view .LVU242
 144:../../Middlewares/LVGL/GUI/lvgl/src/draw/lv_draw_buf.c **** 
 1017              		.loc 1 144 5 view .LVU243
 1018 001e FEE7     		b	.L82
 1019              	.LVL87:
 1020              	.L88:
 155:../../Middlewares/LVGL/GUI/lvgl/src/draw/lv_draw_buf.c ****         area = &full;
 1021              		.loc 1 155 9 view .LVU244
 1022 0020 6946     		mov	r1, sp
 1023              	.LVL88:
 155:../../Middlewares/LVGL/GUI/lvgl/src/draw/lv_draw_buf.c ****         area = &full;
 1024              		.loc 1 155 9 is_stmt 0 view .LVU245
 1025 0022 FFF7FEFF 		bl	draw_buf_get_full_area
 1026              	.LVL89:
 156:../../Middlewares/LVGL/GUI/lvgl/src/draw/lv_draw_buf.c ****     }
 1027              		.loc 1 156 9 is_stmt 1 view .LVU246
 156:../../Middlewares/LVGL/GUI/lvgl/src/draw/lv_draw_buf.c ****     }
 1028              		.loc 1 156 14 is_stmt 0 view .LVU247
ARM GAS  C:\Users\28576\AppData\Local\Temp\ccjLWieG.s 			page 36


 1029 0026 6946     		mov	r1, sp
 1030 0028 F3E7     		b	.L85
 1031              		.cfi_endproc
 1032              	.LFE198:
 1034              		.section	.text.lv_draw_buf_init,"ax",%progbits
 1035              		.align	1
 1036              		.global	lv_draw_buf_init
 1037              		.syntax unified
 1038              		.thumb
 1039              		.thumb_func
 1041              	lv_draw_buf_init:
 1042              	.LVL90:
 1043              	.LFB201:
 273:../../Middlewares/LVGL/GUI/lvgl/src/draw/lv_draw_buf.c ****     LV_ASSERT_NULL(draw_buf);
 1044              		.loc 1 273 1 is_stmt 1 view -0
 1045              		.cfi_startproc
 1046              		@ args = 12, pretend = 0, frame = 0
 1047              		@ frame_needed = 0, uses_anonymous_args = 0
 274:../../Middlewares/LVGL/GUI/lvgl/src/draw/lv_draw_buf.c ****     if(draw_buf == NULL) return LV_RESULT_INVALID;
 1048              		.loc 1 274 5 view .LVU249
 274:../../Middlewares/LVGL/GUI/lvgl/src/draw/lv_draw_buf.c ****     if(draw_buf == NULL) return LV_RESULT_INVALID;
 1049              		.loc 1 274 5 view .LVU250
 1050 0000 90B1     		cbz	r0, .L91
 273:../../Middlewares/LVGL/GUI/lvgl/src/draw/lv_draw_buf.c ****     LV_ASSERT_NULL(draw_buf);
 1051              		.loc 1 273 1 is_stmt 0 view .LVU251
 1052 0002 F8B5     		push	{r3, r4, r5, r6, r7, lr}
 1053              	.LCFI28:
 1054              		.cfi_def_cfa_offset 24
 1055              		.cfi_offset 3, -24
 1056              		.cfi_offset 4, -20
 1057              		.cfi_offset 5, -16
 1058              		.cfi_offset 6, -12
 1059              		.cfi_offset 7, -8
 1060              		.cfi_offset 14, -4
 1061 0004 0E46     		mov	r6, r1
 1062 0006 1546     		mov	r5, r2
 1063 0008 1F46     		mov	r7, r3
 1064 000a 0446     		mov	r4, r0
 274:../../Middlewares/LVGL/GUI/lvgl/src/draw/lv_draw_buf.c ****     if(draw_buf == NULL) return LV_RESULT_INVALID;
 1065              		.loc 1 274 5 is_stmt 1 view .LVU252
 274:../../Middlewares/LVGL/GUI/lvgl/src/draw/lv_draw_buf.c ****     if(draw_buf == NULL) return LV_RESULT_INVALID;
 1066              		.loc 1 274 29 view .LVU253
 275:../../Middlewares/LVGL/GUI/lvgl/src/draw/lv_draw_buf.c **** 
 1067              		.loc 1 275 5 view .LVU254
 277:../../Middlewares/LVGL/GUI/lvgl/src/draw/lv_draw_buf.c ****     if(stride == 0) stride = lv_draw_buf_width_to_stride(w, cf);
 1068              		.loc 1 277 5 view .LVU255
 1069              	.LVL91:
 1070              	.LBB13:
 1071              	.LBI13:
  73:H:/STM32H7/RGB_LVGL/Middlewares/LVGL/GUI/lvgl/src/stdlib\lv_string.h **** {
 1072              		.loc 2 73 20 view .LVU256
 1073              	.LBB14:
 1074              		.loc 2 75 5 view .LVU257
 1075 000c 1C22     		movs	r2, #28
 1076              	.LVL92:
 1077              		.loc 2 75 5 is_stmt 0 view .LVU258
 1078 000e 0021     		movs	r1, #0
ARM GAS  C:\Users\28576\AppData\Local\Temp\ccjLWieG.s 			page 37


 1079              	.LVL93:
 1080              		.loc 2 75 5 view .LVU259
 1081 0010 FFF7FEFF 		bl	lv_memset
 1082              	.LVL94:
 1083              		.loc 2 75 5 view .LVU260
 1084              	.LBE14:
 1085              	.LBE13:
 278:../../Middlewares/LVGL/GUI/lvgl/src/draw/lv_draw_buf.c ****     if(stride * h > data_size) {
 1086              		.loc 1 278 5 is_stmt 1 view .LVU261
 278:../../Middlewares/LVGL/GUI/lvgl/src/draw/lv_draw_buf.c ****     if(stride * h > data_size) {
 1087              		.loc 1 278 7 is_stmt 0 view .LVU262
 1088 0014 069B     		ldr	r3, [sp, #24]
 1089 0016 43B1     		cbz	r3, .L97
 1090              	.LVL95:
 1091              	.L92:
 279:../../Middlewares/LVGL/GUI/lvgl/src/draw/lv_draw_buf.c ****         LV_LOG_WARN("Data size too small, required: %" LV_PRId32 ", provided: %" LV_PRId32, stride 
 1092              		.loc 1 279 5 is_stmt 1 view .LVU263
 279:../../Middlewares/LVGL/GUI/lvgl/src/draw/lv_draw_buf.c ****         LV_LOG_WARN("Data size too small, required: %" LV_PRId32 ", provided: %" LV_PRId32, stride 
 1093              		.loc 1 279 15 is_stmt 0 view .LVU264
 1094 0018 069B     		ldr	r3, [sp, #24]
 1095 001a 05FB03F3 		mul	r3, r5, r3
 279:../../Middlewares/LVGL/GUI/lvgl/src/draw/lv_draw_buf.c ****         LV_LOG_WARN("Data size too small, required: %" LV_PRId32 ", provided: %" LV_PRId32, stride 
 1096              		.loc 1 279 7 view .LVU265
 1097 001e 0899     		ldr	r1, [sp, #32]
 1098 0020 8B42     		cmp	r3, r1
 1099 0022 08D9     		bls	.L98
 282:../../Middlewares/LVGL/GUI/lvgl/src/draw/lv_draw_buf.c ****     }
 1100              		.loc 1 282 16 view .LVU266
 1101 0024 0020     		movs	r0, #0
 1102              	.L93:
 301:../../Middlewares/LVGL/GUI/lvgl/src/draw/lv_draw_buf.c **** 
 1103              		.loc 1 301 1 view .LVU267
 1104 0026 F8BD     		pop	{r3, r4, r5, r6, r7, pc}
 1105              	.LVL96:
 1106              	.L91:
 1107              	.LCFI29:
 1108              		.cfi_def_cfa_offset 0
 1109              		.cfi_restore 3
 1110              		.cfi_restore 4
 1111              		.cfi_restore 5
 1112              		.cfi_restore 6
 1113              		.cfi_restore 7
 1114              		.cfi_restore 14
 274:../../Middlewares/LVGL/GUI/lvgl/src/draw/lv_draw_buf.c ****     if(draw_buf == NULL) return LV_RESULT_INVALID;
 1115              		.loc 1 274 5 is_stmt 1 view .LVU268
 274:../../Middlewares/LVGL/GUI/lvgl/src/draw/lv_draw_buf.c ****     if(draw_buf == NULL) return LV_RESULT_INVALID;
 1116              		.loc 1 274 5 view .LVU269
 274:../../Middlewares/LVGL/GUI/lvgl/src/draw/lv_draw_buf.c ****     if(draw_buf == NULL) return LV_RESULT_INVALID;
 1117              		.loc 1 274 5 view .LVU270
 274:../../Middlewares/LVGL/GUI/lvgl/src/draw/lv_draw_buf.c ****     if(draw_buf == NULL) return LV_RESULT_INVALID;
 1118              		.loc 1 274 5 view .LVU271
 274:../../Middlewares/LVGL/GUI/lvgl/src/draw/lv_draw_buf.c ****     if(draw_buf == NULL) return LV_RESULT_INVALID;
 1119              		.loc 1 274 5 view .LVU272
 1120 0028 FEE7     		b	.L91
 1121              	.LVL97:
 1122              	.L97:
 1123              	.LCFI30:
ARM GAS  C:\Users\28576\AppData\Local\Temp\ccjLWieG.s 			page 38


 1124              		.cfi_def_cfa_offset 24
 1125              		.cfi_offset 3, -24
 1126              		.cfi_offset 4, -20
 1127              		.cfi_offset 5, -16
 1128              		.cfi_offset 6, -12
 1129              		.cfi_offset 7, -8
 1130              		.cfi_offset 14, -4
 278:../../Middlewares/LVGL/GUI/lvgl/src/draw/lv_draw_buf.c ****     if(stride * h > data_size) {
 1131              		.loc 1 278 21 discriminator 1 view .LVU273
 278:../../Middlewares/LVGL/GUI/lvgl/src/draw/lv_draw_buf.c ****     if(stride * h > data_size) {
 1132              		.loc 1 278 30 is_stmt 0 discriminator 1 view .LVU274
 1133 002a 3946     		mov	r1, r7
 1134 002c 3046     		mov	r0, r6
 1135 002e FFF7FEFF 		bl	lv_draw_buf_width_to_stride
 1136              	.LVL98:
 1137 0032 0690     		str	r0, [sp, #24]
 1138              	.LVL99:
 278:../../Middlewares/LVGL/GUI/lvgl/src/draw/lv_draw_buf.c ****     if(stride * h > data_size) {
 1139              		.loc 1 278 30 discriminator 1 view .LVU275
 1140 0034 F0E7     		b	.L92
 1141              	.LVL100:
 1142              	.L98:
 285:../../Middlewares/LVGL/GUI/lvgl/src/draw/lv_draw_buf.c ****     header->w = w;
 1143              		.loc 1 285 5 is_stmt 1 view .LVU276
 286:../../Middlewares/LVGL/GUI/lvgl/src/draw/lv_draw_buf.c ****     header->h = h;
 1144              		.loc 1 286 5 view .LVU277
 286:../../Middlewares/LVGL/GUI/lvgl/src/draw/lv_draw_buf.c ****     header->h = h;
 1145              		.loc 1 286 15 is_stmt 0 view .LVU278
 1146 0036 A680     		strh	r6, [r4, #4]	@ movhi
 287:../../Middlewares/LVGL/GUI/lvgl/src/draw/lv_draw_buf.c ****     header->cf = cf;
 1147              		.loc 1 287 5 is_stmt 1 view .LVU279
 287:../../Middlewares/LVGL/GUI/lvgl/src/draw/lv_draw_buf.c ****     header->cf = cf;
 1148              		.loc 1 287 15 is_stmt 0 view .LVU280
 1149 0038 E580     		strh	r5, [r4, #6]	@ movhi
 288:../../Middlewares/LVGL/GUI/lvgl/src/draw/lv_draw_buf.c ****     header->stride = stride;
 1150              		.loc 1 288 5 is_stmt 1 view .LVU281
 288:../../Middlewares/LVGL/GUI/lvgl/src/draw/lv_draw_buf.c ****     header->stride = stride;
 1151              		.loc 1 288 16 is_stmt 0 view .LVU282
 1152 003a 3946     		mov	r1, r7
 1153 003c 6770     		strb	r7, [r4, #1]
 289:../../Middlewares/LVGL/GUI/lvgl/src/draw/lv_draw_buf.c ****     header->flags = 0;
 1154              		.loc 1 289 5 is_stmt 1 view .LVU283
 289:../../Middlewares/LVGL/GUI/lvgl/src/draw/lv_draw_buf.c ****     header->flags = 0;
 1155              		.loc 1 289 20 is_stmt 0 view .LVU284
 1156 003e 069B     		ldr	r3, [sp, #24]
 1157 0040 2381     		strh	r3, [r4, #8]	@ movhi
 290:../../Middlewares/LVGL/GUI/lvgl/src/draw/lv_draw_buf.c ****     header->magic = LV_IMAGE_HEADER_MAGIC;
 1158              		.loc 1 290 5 is_stmt 1 view .LVU285
 290:../../Middlewares/LVGL/GUI/lvgl/src/draw/lv_draw_buf.c ****     header->magic = LV_IMAGE_HEADER_MAGIC;
 1159              		.loc 1 290 19 is_stmt 0 view .LVU286
 1160 0042 0023     		movs	r3, #0
 1161 0044 6380     		strh	r3, [r4, #2]	@ movhi
 291:../../Middlewares/LVGL/GUI/lvgl/src/draw/lv_draw_buf.c **** 
 1162              		.loc 1 291 5 is_stmt 1 view .LVU287
 291:../../Middlewares/LVGL/GUI/lvgl/src/draw/lv_draw_buf.c **** 
 1163              		.loc 1 291 19 is_stmt 0 view .LVU288
 1164 0046 1923     		movs	r3, #25
ARM GAS  C:\Users\28576\AppData\Local\Temp\ccjLWieG.s 			page 39


 1165 0048 2370     		strb	r3, [r4]
 293:../../Middlewares/LVGL/GUI/lvgl/src/draw/lv_draw_buf.c ****     draw_buf->unaligned_data = data;
 1166              		.loc 1 293 5 is_stmt 1 view .LVU289
 293:../../Middlewares/LVGL/GUI/lvgl/src/draw/lv_draw_buf.c ****     draw_buf->unaligned_data = data;
 1167              		.loc 1 293 20 is_stmt 0 view .LVU290
 1168 004a 079B     		ldr	r3, [sp, #28]
 1169 004c 2361     		str	r3, [r4, #16]
 294:../../Middlewares/LVGL/GUI/lvgl/src/draw/lv_draw_buf.c ****     draw_buf->handlers = &default_handlers;
 1170              		.loc 1 294 5 is_stmt 1 view .LVU291
 294:../../Middlewares/LVGL/GUI/lvgl/src/draw/lv_draw_buf.c ****     draw_buf->handlers = &default_handlers;
 1171              		.loc 1 294 30 is_stmt 0 view .LVU292
 1172 004e 6361     		str	r3, [r4, #20]
 295:../../Middlewares/LVGL/GUI/lvgl/src/draw/lv_draw_buf.c ****     draw_buf->data_size = data_size;
 1173              		.loc 1 295 5 is_stmt 1 view .LVU293
 295:../../Middlewares/LVGL/GUI/lvgl/src/draw/lv_draw_buf.c ****     draw_buf->data_size = data_size;
 1174              		.loc 1 295 24 is_stmt 0 view .LVU294
 1175 0050 044B     		ldr	r3, .L99
 1176 0052 A361     		str	r3, [r4, #24]
 296:../../Middlewares/LVGL/GUI/lvgl/src/draw/lv_draw_buf.c ****     if(lv_draw_buf_align(data, cf) != draw_buf->unaligned_data) {
 1177              		.loc 1 296 5 is_stmt 1 view .LVU295
 296:../../Middlewares/LVGL/GUI/lvgl/src/draw/lv_draw_buf.c ****     if(lv_draw_buf_align(data, cf) != draw_buf->unaligned_data) {
 1178              		.loc 1 296 25 is_stmt 0 view .LVU296
 1179 0054 089B     		ldr	r3, [sp, #32]
 1180 0056 E360     		str	r3, [r4, #12]
 297:../../Middlewares/LVGL/GUI/lvgl/src/draw/lv_draw_buf.c ****         LV_LOG_WARN("Data is not aligned, ignored");
 1181              		.loc 1 297 5 is_stmt 1 view .LVU297
 297:../../Middlewares/LVGL/GUI/lvgl/src/draw/lv_draw_buf.c ****         LV_LOG_WARN("Data is not aligned, ignored");
 1182              		.loc 1 297 8 is_stmt 0 view .LVU298
 1183 0058 0798     		ldr	r0, [sp, #28]
 1184 005a FFF7FEFF 		bl	lv_draw_buf_align
 1185              	.LVL101:
 298:../../Middlewares/LVGL/GUI/lvgl/src/draw/lv_draw_buf.c ****     }
 1186              		.loc 1 298 9 is_stmt 1 view .LVU299
 298:../../Middlewares/LVGL/GUI/lvgl/src/draw/lv_draw_buf.c ****     }
 1187              		.loc 1 298 9 view .LVU300
 298:../../Middlewares/LVGL/GUI/lvgl/src/draw/lv_draw_buf.c ****     }
 1188              		.loc 1 298 9 view .LVU301
 300:../../Middlewares/LVGL/GUI/lvgl/src/draw/lv_draw_buf.c **** }
 1189              		.loc 1 300 5 view .LVU302
 300:../../Middlewares/LVGL/GUI/lvgl/src/draw/lv_draw_buf.c **** }
 1190              		.loc 1 300 12 is_stmt 0 view .LVU303
 1191 005e 0120     		movs	r0, #1
 1192 0060 E1E7     		b	.L93
 1193              	.L100:
 1194 0062 00BF     		.align	2
 1195              	.L99:
 1196 0064 C8000000 		.word	lv_global+200
 1197              		.cfi_endproc
 1198              	.LFE201:
 1200              		.section	.text.lv_draw_buf_create_ex,"ax",%progbits
 1201              		.align	1
 1202              		.global	lv_draw_buf_create_ex
 1203              		.syntax unified
 1204              		.thumb
 1205              		.thumb_func
 1207              	lv_draw_buf_create_ex:
 1208              	.LVL102:
ARM GAS  C:\Users\28576\AppData\Local\Temp\ccjLWieG.s 			page 40


 1209              	.LFB203:
 310:../../Middlewares/LVGL/GUI/lvgl/src/draw/lv_draw_buf.c ****     LV_PROFILER_DRAW_BEGIN;
 1210              		.loc 1 310 1 is_stmt 1 view -0
 1211              		.cfi_startproc
 1212              		@ args = 4, pretend = 0, frame = 0
 1213              		@ frame_needed = 0, uses_anonymous_args = 0
 310:../../Middlewares/LVGL/GUI/lvgl/src/draw/lv_draw_buf.c ****     LV_PROFILER_DRAW_BEGIN;
 1214              		.loc 1 310 1 is_stmt 0 view .LVU305
 1215 0000 2DE9F047 		push	{r4, r5, r6, r7, r8, r9, r10, lr}
 1216              	.LCFI31:
 1217              		.cfi_def_cfa_offset 32
 1218              		.cfi_offset 4, -32
 1219              		.cfi_offset 5, -28
 1220              		.cfi_offset 6, -24
 1221              		.cfi_offset 7, -20
 1222              		.cfi_offset 8, -16
 1223              		.cfi_offset 9, -12
 1224              		.cfi_offset 10, -8
 1225              		.cfi_offset 14, -4
 1226 0004 0746     		mov	r7, r0
 1227 0006 0E46     		mov	r6, r1
 1228 0008 9046     		mov	r8, r2
 1229 000a 1D46     		mov	r5, r3
 311:../../Middlewares/LVGL/GUI/lvgl/src/draw/lv_draw_buf.c ****     lv_draw_buf_t * draw_buf = lv_malloc_zeroed(sizeof(lv_draw_buf_t));
 1230              		.loc 1 311 27 is_stmt 1 view .LVU306
 312:../../Middlewares/LVGL/GUI/lvgl/src/draw/lv_draw_buf.c ****     LV_ASSERT_MALLOC(draw_buf);
 1231              		.loc 1 312 5 view .LVU307
 312:../../Middlewares/LVGL/GUI/lvgl/src/draw/lv_draw_buf.c ****     LV_ASSERT_MALLOC(draw_buf);
 1232              		.loc 1 312 32 is_stmt 0 view .LVU308
 1233 000c 1C20     		movs	r0, #28
 1234              	.LVL103:
 312:../../Middlewares/LVGL/GUI/lvgl/src/draw/lv_draw_buf.c ****     LV_ASSERT_MALLOC(draw_buf);
 1235              		.loc 1 312 32 view .LVU309
 1236 000e FFF7FEFF 		bl	lv_malloc_zeroed
 1237              	.LVL104:
 313:../../Middlewares/LVGL/GUI/lvgl/src/draw/lv_draw_buf.c ****     if(draw_buf == NULL) {
 1238              		.loc 1 313 5 is_stmt 1 view .LVU310
 313:../../Middlewares/LVGL/GUI/lvgl/src/draw/lv_draw_buf.c ****     if(draw_buf == NULL) {
 1239              		.loc 1 313 5 view .LVU311
 1240 0012 30B3     		cbz	r0, .L103
 1241 0014 0446     		mov	r4, r0
 313:../../Middlewares/LVGL/GUI/lvgl/src/draw/lv_draw_buf.c ****     if(draw_buf == NULL) {
 1242              		.loc 1 313 5 view .LVU312
 313:../../Middlewares/LVGL/GUI/lvgl/src/draw/lv_draw_buf.c ****     if(draw_buf == NULL) {
 1243              		.loc 1 313 31 view .LVU313
 314:../../Middlewares/LVGL/GUI/lvgl/src/draw/lv_draw_buf.c ****         LV_PROFILER_DRAW_END;
 1244              		.loc 1 314 5 view .LVU314
 318:../../Middlewares/LVGL/GUI/lvgl/src/draw/lv_draw_buf.c **** 
 1245              		.loc 1 318 5 view .LVU315
 318:../../Middlewares/LVGL/GUI/lvgl/src/draw/lv_draw_buf.c **** 
 1246              		.loc 1 318 7 is_stmt 0 view .LVU316
 1247 0016 089B     		ldr	r3, [sp, #32]
 1248 0018 23B3     		cbz	r3, .L108
 1249              	.LVL105:
 1250              	.L104:
 320:../../Middlewares/LVGL/GUI/lvgl/src/draw/lv_draw_buf.c **** 
 1251              		.loc 1 320 5 is_stmt 1 view .LVU317
ARM GAS  C:\Users\28576\AppData\Local\Temp\ccjLWieG.s 			page 41


 320:../../Middlewares/LVGL/GUI/lvgl/src/draw/lv_draw_buf.c **** 
 1252              		.loc 1 320 21 is_stmt 0 view .LVU318
 1253 001a 089B     		ldr	r3, [sp, #32]
 1254 001c 2A46     		mov	r2, r5
 1255 001e 4146     		mov	r1, r8
 1256 0020 3046     		mov	r0, r6
 1257 0022 FFF7FEFF 		bl	_calculate_draw_buf_size
 1258              	.LVL106:
 1259 0026 0146     		mov	r1, r0
 1260 0028 8246     		mov	r10, r0
 1261              	.LVL107:
 322:../../Middlewares/LVGL/GUI/lvgl/src/draw/lv_draw_buf.c ****     /*Do not assert here as LVGL or the app might just want to try creating a draw_buf*/
 1262              		.loc 1 322 5 is_stmt 1 view .LVU319
 322:../../Middlewares/LVGL/GUI/lvgl/src/draw/lv_draw_buf.c ****     /*Do not assert here as LVGL or the app might just want to try creating a draw_buf*/
 1263              		.loc 1 322 18 is_stmt 0 view .LVU320
 1264 002a 2A46     		mov	r2, r5
 1265 002c 3846     		mov	r0, r7
 1266              	.LVL108:
 322:../../Middlewares/LVGL/GUI/lvgl/src/draw/lv_draw_buf.c ****     /*Do not assert here as LVGL or the app might just want to try creating a draw_buf*/
 1267              		.loc 1 322 18 view .LVU321
 1268 002e FFF7FEFF 		bl	draw_buf_malloc
 1269              	.LVL109:
 324:../../Middlewares/LVGL/GUI/lvgl/src/draw/lv_draw_buf.c ****         LV_LOG_WARN("No memory: %"LV_PRIu32"x%"LV_PRIu32", cf: %d, stride: %"LV_PRIu32", %"LV_PRIu3
 1270              		.loc 1 324 5 is_stmt 1 view .LVU322
 324:../../Middlewares/LVGL/GUI/lvgl/src/draw/lv_draw_buf.c ****         LV_LOG_WARN("No memory: %"LV_PRIu32"x%"LV_PRIu32", cf: %d, stride: %"LV_PRIu32", %"LV_PRIu3
 1271              		.loc 1 324 7 is_stmt 0 view .LVU323
 1272 0032 8146     		mov	r9, r0
 1273 0034 E0B1     		cbz	r0, .L109
 332:../../Middlewares/LVGL/GUI/lvgl/src/draw/lv_draw_buf.c ****     draw_buf->header.h = h;
 1274              		.loc 1 332 5 is_stmt 1 view .LVU324
 332:../../Middlewares/LVGL/GUI/lvgl/src/draw/lv_draw_buf.c ****     draw_buf->header.h = h;
 1275              		.loc 1 332 24 is_stmt 0 view .LVU325
 1276 0036 A680     		strh	r6, [r4, #4]	@ movhi
 333:../../Middlewares/LVGL/GUI/lvgl/src/draw/lv_draw_buf.c ****     draw_buf->header.cf = cf;
 1277              		.loc 1 333 5 is_stmt 1 view .LVU326
 333:../../Middlewares/LVGL/GUI/lvgl/src/draw/lv_draw_buf.c ****     draw_buf->header.cf = cf;
 1278              		.loc 1 333 24 is_stmt 0 view .LVU327
 1279 0038 A4F80680 		strh	r8, [r4, #6]	@ movhi
 334:../../Middlewares/LVGL/GUI/lvgl/src/draw/lv_draw_buf.c ****     draw_buf->header.flags = LV_IMAGE_FLAGS_MODIFIABLE | LV_IMAGE_FLAGS_ALLOCATED;
 1280              		.loc 1 334 5 is_stmt 1 view .LVU328
 334:../../Middlewares/LVGL/GUI/lvgl/src/draw/lv_draw_buf.c ****     draw_buf->header.flags = LV_IMAGE_FLAGS_MODIFIABLE | LV_IMAGE_FLAGS_ALLOCATED;
 1281              		.loc 1 334 25 is_stmt 0 view .LVU329
 1282 003c 6570     		strb	r5, [r4, #1]
 335:../../Middlewares/LVGL/GUI/lvgl/src/draw/lv_draw_buf.c ****     draw_buf->header.stride = stride;
 1283              		.loc 1 335 5 is_stmt 1 view .LVU330
 335:../../Middlewares/LVGL/GUI/lvgl/src/draw/lv_draw_buf.c ****     draw_buf->header.stride = stride;
 1284              		.loc 1 335 28 is_stmt 0 view .LVU331
 1285 003e 3023     		movs	r3, #48
 1286 0040 6380     		strh	r3, [r4, #2]	@ movhi
 336:../../Middlewares/LVGL/GUI/lvgl/src/draw/lv_draw_buf.c ****     draw_buf->header.magic = LV_IMAGE_HEADER_MAGIC;
 1287              		.loc 1 336 5 is_stmt 1 view .LVU332
 336:../../Middlewares/LVGL/GUI/lvgl/src/draw/lv_draw_buf.c ****     draw_buf->header.magic = LV_IMAGE_HEADER_MAGIC;
 1288              		.loc 1 336 29 is_stmt 0 view .LVU333
 1289 0042 089B     		ldr	r3, [sp, #32]
 1290 0044 2381     		strh	r3, [r4, #8]	@ movhi
 337:../../Middlewares/LVGL/GUI/lvgl/src/draw/lv_draw_buf.c ****     draw_buf->data = lv_draw_buf_align(buf, cf);
 1291              		.loc 1 337 5 is_stmt 1 view .LVU334
ARM GAS  C:\Users\28576\AppData\Local\Temp\ccjLWieG.s 			page 42


 337:../../Middlewares/LVGL/GUI/lvgl/src/draw/lv_draw_buf.c ****     draw_buf->data = lv_draw_buf_align(buf, cf);
 1292              		.loc 1 337 28 is_stmt 0 view .LVU335
 1293 0046 1923     		movs	r3, #25
 1294 0048 2370     		strb	r3, [r4]
 338:../../Middlewares/LVGL/GUI/lvgl/src/draw/lv_draw_buf.c ****     draw_buf->unaligned_data = buf;
 1295              		.loc 1 338 5 is_stmt 1 view .LVU336
 338:../../Middlewares/LVGL/GUI/lvgl/src/draw/lv_draw_buf.c ****     draw_buf->unaligned_data = buf;
 1296              		.loc 1 338 22 is_stmt 0 view .LVU337
 1297 004a 2946     		mov	r1, r5
 1298 004c FFF7FEFF 		bl	lv_draw_buf_align
 1299              	.LVL110:
 338:../../Middlewares/LVGL/GUI/lvgl/src/draw/lv_draw_buf.c ****     draw_buf->unaligned_data = buf;
 1300              		.loc 1 338 20 discriminator 1 view .LVU338
 1301 0050 2061     		str	r0, [r4, #16]
 339:../../Middlewares/LVGL/GUI/lvgl/src/draw/lv_draw_buf.c ****     draw_buf->data_size = size;
 1302              		.loc 1 339 5 is_stmt 1 view .LVU339
 339:../../Middlewares/LVGL/GUI/lvgl/src/draw/lv_draw_buf.c ****     draw_buf->data_size = size;
 1303              		.loc 1 339 30 is_stmt 0 view .LVU340
 1304 0052 C4F81490 		str	r9, [r4, #20]
 340:../../Middlewares/LVGL/GUI/lvgl/src/draw/lv_draw_buf.c ****     draw_buf->handlers = handlers;
 1305              		.loc 1 340 5 is_stmt 1 view .LVU341
 340:../../Middlewares/LVGL/GUI/lvgl/src/draw/lv_draw_buf.c ****     draw_buf->handlers = handlers;
 1306              		.loc 1 340 25 is_stmt 0 view .LVU342
 1307 0056 C4F80CA0 		str	r10, [r4, #12]
 341:../../Middlewares/LVGL/GUI/lvgl/src/draw/lv_draw_buf.c ****     LV_PROFILER_DRAW_END;
 1308              		.loc 1 341 5 is_stmt 1 view .LVU343
 341:../../Middlewares/LVGL/GUI/lvgl/src/draw/lv_draw_buf.c ****     LV_PROFILER_DRAW_END;
 1309              		.loc 1 341 24 is_stmt 0 view .LVU344
 1310 005a A761     		str	r7, [r4, #24]
 342:../../Middlewares/LVGL/GUI/lvgl/src/draw/lv_draw_buf.c ****     return draw_buf;
 1311              		.loc 1 342 25 is_stmt 1 view .LVU345
 343:../../Middlewares/LVGL/GUI/lvgl/src/draw/lv_draw_buf.c **** }
 1312              		.loc 1 343 5 view .LVU346
 1313              	.LVL111:
 1314              	.L101:
 344:../../Middlewares/LVGL/GUI/lvgl/src/draw/lv_draw_buf.c **** 
 1315              		.loc 1 344 1 is_stmt 0 view .LVU347
 1316 005c 2046     		mov	r0, r4
 1317 005e BDE8F087 		pop	{r4, r5, r6, r7, r8, r9, r10, pc}
 1318              	.LVL112:
 1319              	.L103:
 313:../../Middlewares/LVGL/GUI/lvgl/src/draw/lv_draw_buf.c ****     if(draw_buf == NULL) {
 1320              		.loc 1 313 5 is_stmt 1 view .LVU348
 313:../../Middlewares/LVGL/GUI/lvgl/src/draw/lv_draw_buf.c ****     if(draw_buf == NULL) {
 1321              		.loc 1 313 5 view .LVU349
 313:../../Middlewares/LVGL/GUI/lvgl/src/draw/lv_draw_buf.c ****     if(draw_buf == NULL) {
 1322              		.loc 1 313 5 view .LVU350
 313:../../Middlewares/LVGL/GUI/lvgl/src/draw/lv_draw_buf.c ****     if(draw_buf == NULL) {
 1323              		.loc 1 313 5 view .LVU351
 313:../../Middlewares/LVGL/GUI/lvgl/src/draw/lv_draw_buf.c ****     if(draw_buf == NULL) {
 1324              		.loc 1 313 5 view .LVU352
 1325 0062 FEE7     		b	.L103
 1326              	.L108:
 318:../../Middlewares/LVGL/GUI/lvgl/src/draw/lv_draw_buf.c **** 
 1327              		.loc 1 318 21 discriminator 1 view .LVU353
 318:../../Middlewares/LVGL/GUI/lvgl/src/draw/lv_draw_buf.c **** 
 1328              		.loc 1 318 30 is_stmt 0 discriminator 1 view .LVU354
ARM GAS  C:\Users\28576\AppData\Local\Temp\ccjLWieG.s 			page 43


 1329 0064 2946     		mov	r1, r5
 1330 0066 3046     		mov	r0, r6
 1331              	.LVL113:
 318:../../Middlewares/LVGL/GUI/lvgl/src/draw/lv_draw_buf.c **** 
 1332              		.loc 1 318 30 discriminator 1 view .LVU355
 1333 0068 FFF7FEFF 		bl	lv_draw_buf_width_to_stride
 1334              	.LVL114:
 1335 006c 0890     		str	r0, [sp, #32]
 1336              	.LVL115:
 318:../../Middlewares/LVGL/GUI/lvgl/src/draw/lv_draw_buf.c **** 
 1337              		.loc 1 318 30 discriminator 1 view .LVU356
 1338 006e D4E7     		b	.L104
 1339              	.LVL116:
 1340              	.L109:
 325:../../Middlewares/LVGL/GUI/lvgl/src/draw/lv_draw_buf.c ****                     w, h, cf, stride, size);
 1341              		.loc 1 325 9 is_stmt 1 view .LVU357
 325:../../Middlewares/LVGL/GUI/lvgl/src/draw/lv_draw_buf.c ****                     w, h, cf, stride, size);
 1342              		.loc 1 325 9 view .LVU358
 325:../../Middlewares/LVGL/GUI/lvgl/src/draw/lv_draw_buf.c ****                     w, h, cf, stride, size);
 1343              		.loc 1 325 9 view .LVU359
 327:../../Middlewares/LVGL/GUI/lvgl/src/draw/lv_draw_buf.c ****         LV_PROFILER_DRAW_END;
 1344              		.loc 1 327 9 view .LVU360
 1345 0070 2046     		mov	r0, r4
 1346              	.LVL117:
 327:../../Middlewares/LVGL/GUI/lvgl/src/draw/lv_draw_buf.c ****         LV_PROFILER_DRAW_END;
 1347              		.loc 1 327 9 is_stmt 0 view .LVU361
 1348 0072 FFF7FEFF 		bl	lv_free
 1349              	.LVL118:
 328:../../Middlewares/LVGL/GUI/lvgl/src/draw/lv_draw_buf.c ****         return NULL;
 1350              		.loc 1 328 29 is_stmt 1 view .LVU362
 329:../../Middlewares/LVGL/GUI/lvgl/src/draw/lv_draw_buf.c ****     }
 1351              		.loc 1 329 9 view .LVU363
 329:../../Middlewares/LVGL/GUI/lvgl/src/draw/lv_draw_buf.c ****     }
 1352              		.loc 1 329 16 is_stmt 0 view .LVU364
 1353 0076 4C46     		mov	r4, r9
 1354              	.LVL119:
 329:../../Middlewares/LVGL/GUI/lvgl/src/draw/lv_draw_buf.c ****     }
 1355              		.loc 1 329 16 view .LVU365
 1356 0078 F0E7     		b	.L101
 1357              		.cfi_endproc
 1358              	.LFE203:
 1360              		.section	.text.lv_draw_buf_create,"ax",%progbits
 1361              		.align	1
 1362              		.global	lv_draw_buf_create
 1363              		.syntax unified
 1364              		.thumb
 1365              		.thumb_func
 1367              	lv_draw_buf_create:
 1368              	.LVL120:
 1369              	.LFB202:
 304:../../Middlewares/LVGL/GUI/lvgl/src/draw/lv_draw_buf.c ****     return lv_draw_buf_create_ex(&default_handlers, w, h, cf, stride);
 1370              		.loc 1 304 1 is_stmt 1 view -0
 1371              		.cfi_startproc
 1372              		@ args = 0, pretend = 0, frame = 0
 1373              		@ frame_needed = 0, uses_anonymous_args = 0
 304:../../Middlewares/LVGL/GUI/lvgl/src/draw/lv_draw_buf.c ****     return lv_draw_buf_create_ex(&default_handlers, w, h, cf, stride);
 1374              		.loc 1 304 1 is_stmt 0 view .LVU367
ARM GAS  C:\Users\28576\AppData\Local\Temp\ccjLWieG.s 			page 44


 1375 0000 00B5     		push	{lr}
 1376              	.LCFI32:
 1377              		.cfi_def_cfa_offset 4
 1378              		.cfi_offset 14, -4
 1379 0002 83B0     		sub	sp, sp, #12
 1380              	.LCFI33:
 1381              		.cfi_def_cfa_offset 16
 305:../../Middlewares/LVGL/GUI/lvgl/src/draw/lv_draw_buf.c **** }
 1382              		.loc 1 305 5 is_stmt 1 view .LVU368
 305:../../Middlewares/LVGL/GUI/lvgl/src/draw/lv_draw_buf.c **** }
 1383              		.loc 1 305 12 is_stmt 0 view .LVU369
 1384 0004 0093     		str	r3, [sp]
 1385 0006 1346     		mov	r3, r2
 1386              	.LVL121:
 305:../../Middlewares/LVGL/GUI/lvgl/src/draw/lv_draw_buf.c **** }
 1387              		.loc 1 305 12 view .LVU370
 1388 0008 0A46     		mov	r2, r1
 1389              	.LVL122:
 305:../../Middlewares/LVGL/GUI/lvgl/src/draw/lv_draw_buf.c **** }
 1390              		.loc 1 305 12 view .LVU371
 1391 000a 0146     		mov	r1, r0
 1392              	.LVL123:
 305:../../Middlewares/LVGL/GUI/lvgl/src/draw/lv_draw_buf.c **** }
 1393              		.loc 1 305 12 view .LVU372
 1394 000c 0248     		ldr	r0, .L112
 1395              	.LVL124:
 305:../../Middlewares/LVGL/GUI/lvgl/src/draw/lv_draw_buf.c **** }
 1396              		.loc 1 305 12 view .LVU373
 1397 000e FFF7FEFF 		bl	lv_draw_buf_create_ex
 1398              	.LVL125:
 306:../../Middlewares/LVGL/GUI/lvgl/src/draw/lv_draw_buf.c **** 
 1399              		.loc 1 306 1 view .LVU374
 1400 0012 03B0     		add	sp, sp, #12
 1401              	.LCFI34:
 1402              		.cfi_def_cfa_offset 4
 1403              		@ sp needed
 1404 0014 00BD     		pop	{pc}
 1405              	.L113:
 1406 0016 00BF     		.align	2
 1407              	.L112:
 1408 0018 C8000000 		.word	lv_global+200
 1409              		.cfi_endproc
 1410              	.LFE202:
 1412              		.section	.text.lv_draw_buf_dup_ex,"ax",%progbits
 1413              		.align	1
 1414              		.global	lv_draw_buf_dup_ex
 1415              		.syntax unified
 1416              		.thumb
 1417              		.thumb_func
 1419              	lv_draw_buf_dup_ex:
 1420              	.LVL126:
 1421              	.LFB205:
 352:../../Middlewares/LVGL/GUI/lvgl/src/draw/lv_draw_buf.c ****     LV_PROFILER_DRAW_BEGIN;
 1422              		.loc 1 352 1 is_stmt 1 view -0
 1423              		.cfi_startproc
 1424              		@ args = 0, pretend = 0, frame = 0
 1425              		@ frame_needed = 0, uses_anonymous_args = 0
ARM GAS  C:\Users\28576\AppData\Local\Temp\ccjLWieG.s 			page 45


 352:../../Middlewares/LVGL/GUI/lvgl/src/draw/lv_draw_buf.c ****     LV_PROFILER_DRAW_BEGIN;
 1426              		.loc 1 352 1 is_stmt 0 view .LVU376
 1427 0000 30B5     		push	{r4, r5, lr}
 1428              	.LCFI35:
 1429              		.cfi_def_cfa_offset 12
 1430              		.cfi_offset 4, -12
 1431              		.cfi_offset 5, -8
 1432              		.cfi_offset 14, -4
 1433 0002 83B0     		sub	sp, sp, #12
 1434              	.LCFI36:
 1435              		.cfi_def_cfa_offset 24
 1436 0004 0C46     		mov	r4, r1
 353:../../Middlewares/LVGL/GUI/lvgl/src/draw/lv_draw_buf.c ****     const lv_image_header_t * header = &draw_buf->header;
 1437              		.loc 1 353 27 is_stmt 1 view .LVU377
 354:../../Middlewares/LVGL/GUI/lvgl/src/draw/lv_draw_buf.c ****     lv_draw_buf_t * new_buf = lv_draw_buf_create_ex(handlers, header->w, header->h, header->cf, hea
 1438              		.loc 1 354 5 view .LVU378
 1439              	.LVL127:
 355:../../Middlewares/LVGL/GUI/lvgl/src/draw/lv_draw_buf.c ****     if(new_buf == NULL) {
 1440              		.loc 1 355 5 view .LVU379
 355:../../Middlewares/LVGL/GUI/lvgl/src/draw/lv_draw_buf.c ****     if(new_buf == NULL) {
 1441              		.loc 1 355 103 is_stmt 0 view .LVU380
 1442 0006 0B89     		ldrh	r3, [r1, #8]
 355:../../Middlewares/LVGL/GUI/lvgl/src/draw/lv_draw_buf.c ****     if(new_buf == NULL) {
 1443              		.loc 1 355 31 view .LVU381
 1444 0008 0093     		str	r3, [sp]
 1445 000a 4B78     		ldrb	r3, [r1, #1]	@ zero_extendqisi2
 1446 000c CA88     		ldrh	r2, [r1, #6]
 1447 000e 8988     		ldrh	r1, [r1, #4]
 1448              	.LVL128:
 355:../../Middlewares/LVGL/GUI/lvgl/src/draw/lv_draw_buf.c ****     if(new_buf == NULL) {
 1449              		.loc 1 355 31 view .LVU382
 1450 0010 FFF7FEFF 		bl	lv_draw_buf_create_ex
 1451              	.LVL129:
 356:../../Middlewares/LVGL/GUI/lvgl/src/draw/lv_draw_buf.c ****         LV_PROFILER_DRAW_END;
 1452              		.loc 1 356 5 is_stmt 1 view .LVU383
 356:../../Middlewares/LVGL/GUI/lvgl/src/draw/lv_draw_buf.c ****         LV_PROFILER_DRAW_END;
 1453              		.loc 1 356 7 is_stmt 0 view .LVU384
 1454 0014 0546     		mov	r5, r0
 1455 0016 68B1     		cbz	r0, .L114
 361:../../Middlewares/LVGL/GUI/lvgl/src/draw/lv_draw_buf.c ****     new_buf->header.flags |= LV_IMAGE_FLAGS_MODIFIABLE | LV_IMAGE_FLAGS_ALLOCATED;
 1456              		.loc 1 361 5 is_stmt 1 view .LVU385
 361:../../Middlewares/LVGL/GUI/lvgl/src/draw/lv_draw_buf.c ****     new_buf->header.flags |= LV_IMAGE_FLAGS_MODIFIABLE | LV_IMAGE_FLAGS_ALLOCATED;
 1457              		.loc 1 361 45 is_stmt 0 view .LVU386
 1458 0018 6388     		ldrh	r3, [r4, #2]
 361:../../Middlewares/LVGL/GUI/lvgl/src/draw/lv_draw_buf.c ****     new_buf->header.flags |= LV_IMAGE_FLAGS_MODIFIABLE | LV_IMAGE_FLAGS_ALLOCATED;
 1459              		.loc 1 361 27 view .LVU387
 1460 001a 4380     		strh	r3, [r0, #2]	@ movhi
 362:../../Middlewares/LVGL/GUI/lvgl/src/draw/lv_draw_buf.c **** 
 1461              		.loc 1 362 5 is_stmt 1 view .LVU388
 362:../../Middlewares/LVGL/GUI/lvgl/src/draw/lv_draw_buf.c **** 
 1462              		.loc 1 362 27 is_stmt 0 view .LVU389
 1463 001c 43F03003 		orr	r3, r3, #48
 1464 0020 4380     		strh	r3, [r0, #2]	@ movhi
 365:../../Middlewares/LVGL/GUI/lvgl/src/draw/lv_draw_buf.c **** 
 1465              		.loc 1 365 5 is_stmt 1 view .LVU390
 365:../../Middlewares/LVGL/GUI/lvgl/src/draw/lv_draw_buf.c **** 
 1466              		.loc 1 365 21 is_stmt 0 view .LVU391
ARM GAS  C:\Users\28576\AppData\Local\Temp\ccjLWieG.s 			page 46


 1467 0022 C268     		ldr	r2, [r0, #12]
 1468 0024 E368     		ldr	r3, [r4, #12]
 1469              	.LVL130:
 368:../../Middlewares/LVGL/GUI/lvgl/src/draw/lv_draw_buf.c ****     LV_PROFILER_DRAW_END;
 1470              		.loc 1 368 5 is_stmt 1 view .LVU392
 1471 0026 9A42     		cmp	r2, r3
 1472 0028 28BF     		it	cs
 1473 002a 1A46     		movcs	r2, r3
 1474              	.LVL131:
 368:../../Middlewares/LVGL/GUI/lvgl/src/draw/lv_draw_buf.c ****     LV_PROFILER_DRAW_END;
 1475              		.loc 1 368 5 is_stmt 0 view .LVU393
 1476 002c 2169     		ldr	r1, [r4, #16]
 1477 002e 0069     		ldr	r0, [r0, #16]
 1478              	.LVL132:
 368:../../Middlewares/LVGL/GUI/lvgl/src/draw/lv_draw_buf.c ****     LV_PROFILER_DRAW_END;
 1479              		.loc 1 368 5 view .LVU394
 1480 0030 FFF7FEFF 		bl	lv_memcpy
 1481              	.LVL133:
 369:../../Middlewares/LVGL/GUI/lvgl/src/draw/lv_draw_buf.c ****     return new_buf;
 1482              		.loc 1 369 25 is_stmt 1 view .LVU395
 370:../../Middlewares/LVGL/GUI/lvgl/src/draw/lv_draw_buf.c **** }
 1483              		.loc 1 370 5 view .LVU396
 1484              	.L114:
 371:../../Middlewares/LVGL/GUI/lvgl/src/draw/lv_draw_buf.c **** 
 1485              		.loc 1 371 1 is_stmt 0 view .LVU397
 1486 0034 2846     		mov	r0, r5
 1487 0036 03B0     		add	sp, sp, #12
 1488              	.LCFI37:
 1489              		.cfi_def_cfa_offset 12
 1490              		@ sp needed
 1491 0038 30BD     		pop	{r4, r5, pc}
 371:../../Middlewares/LVGL/GUI/lvgl/src/draw/lv_draw_buf.c **** 
 1492              		.loc 1 371 1 view .LVU398
 1493              		.cfi_endproc
 1494              	.LFE205:
 1496              		.section	.text.lv_draw_buf_dup,"ax",%progbits
 1497              		.align	1
 1498              		.global	lv_draw_buf_dup
 1499              		.syntax unified
 1500              		.thumb
 1501              		.thumb_func
 1503              	lv_draw_buf_dup:
 1504              	.LVL134:
 1505              	.LFB204:
 347:../../Middlewares/LVGL/GUI/lvgl/src/draw/lv_draw_buf.c ****     return lv_draw_buf_dup_ex(&default_handlers, draw_buf);
 1506              		.loc 1 347 1 is_stmt 1 view -0
 1507              		.cfi_startproc
 1508              		@ args = 0, pretend = 0, frame = 0
 1509              		@ frame_needed = 0, uses_anonymous_args = 0
 347:../../Middlewares/LVGL/GUI/lvgl/src/draw/lv_draw_buf.c ****     return lv_draw_buf_dup_ex(&default_handlers, draw_buf);
 1510              		.loc 1 347 1 is_stmt 0 view .LVU400
 1511 0000 08B5     		push	{r3, lr}
 1512              	.LCFI38:
 1513              		.cfi_def_cfa_offset 8
 1514              		.cfi_offset 3, -8
 1515              		.cfi_offset 14, -4
 1516 0002 0146     		mov	r1, r0
ARM GAS  C:\Users\28576\AppData\Local\Temp\ccjLWieG.s 			page 47


 348:../../Middlewares/LVGL/GUI/lvgl/src/draw/lv_draw_buf.c **** }
 1517              		.loc 1 348 5 is_stmt 1 view .LVU401
 348:../../Middlewares/LVGL/GUI/lvgl/src/draw/lv_draw_buf.c **** }
 1518              		.loc 1 348 12 is_stmt 0 view .LVU402
 1519 0004 0148     		ldr	r0, .L119
 1520              	.LVL135:
 348:../../Middlewares/LVGL/GUI/lvgl/src/draw/lv_draw_buf.c **** }
 1521              		.loc 1 348 12 view .LVU403
 1522 0006 FFF7FEFF 		bl	lv_draw_buf_dup_ex
 1523              	.LVL136:
 349:../../Middlewares/LVGL/GUI/lvgl/src/draw/lv_draw_buf.c **** 
 1524              		.loc 1 349 1 view .LVU404
 1525 000a 08BD     		pop	{r3, pc}
 1526              	.L120:
 1527              		.align	2
 1528              	.L119:
 1529 000c C8000000 		.word	lv_global+200
 1530              		.cfi_endproc
 1531              	.LFE204:
 1533              		.section	.text.lv_draw_buf_reshape,"ax",%progbits
 1534              		.align	1
 1535              		.global	lv_draw_buf_reshape
 1536              		.syntax unified
 1537              		.thumb
 1538              		.thumb_func
 1540              	lv_draw_buf_reshape:
 1541              	.LVL137:
 1542              	.LFB206:
 375:../../Middlewares/LVGL/GUI/lvgl/src/draw/lv_draw_buf.c ****     if(draw_buf == NULL) return NULL;
 1543              		.loc 1 375 1 is_stmt 1 view -0
 1544              		.cfi_startproc
 1545              		@ args = 4, pretend = 0, frame = 0
 1546              		@ frame_needed = 0, uses_anonymous_args = 0
 375:../../Middlewares/LVGL/GUI/lvgl/src/draw/lv_draw_buf.c ****     if(draw_buf == NULL) return NULL;
 1547              		.loc 1 375 1 is_stmt 0 view .LVU406
 1548 0000 F8B5     		push	{r3, r4, r5, r6, r7, lr}
 1549              	.LCFI39:
 1550              		.cfi_def_cfa_offset 24
 1551              		.cfi_offset 3, -24
 1552              		.cfi_offset 4, -20
 1553              		.cfi_offset 5, -16
 1554              		.cfi_offset 6, -12
 1555              		.cfi_offset 7, -8
 1556              		.cfi_offset 14, -4
 376:../../Middlewares/LVGL/GUI/lvgl/src/draw/lv_draw_buf.c ****     LV_PROFILER_DRAW_BEGIN;
 1557              		.loc 1 376 5 is_stmt 1 view .LVU407
 376:../../Middlewares/LVGL/GUI/lvgl/src/draw/lv_draw_buf.c ****     LV_PROFILER_DRAW_BEGIN;
 1558              		.loc 1 376 7 is_stmt 0 view .LVU408
 1559 0002 0446     		mov	r4, r0
 1560 0004 A8B1     		cbz	r0, .L121
 1561 0006 0D46     		mov	r5, r1
 1562 0008 1646     		mov	r6, r2
 1563 000a 1F46     		mov	r7, r3
 377:../../Middlewares/LVGL/GUI/lvgl/src/draw/lv_draw_buf.c **** 
 1564              		.loc 1 377 27 is_stmt 1 view .LVU409
 380:../../Middlewares/LVGL/GUI/lvgl/src/draw/lv_draw_buf.c ****     if(stride == 0) stride = lv_draw_buf_width_to_stride(w, cf);
 1565              		.loc 1 380 5 view .LVU410
ARM GAS  C:\Users\28576\AppData\Local\Temp\ccjLWieG.s 			page 48


 380:../../Middlewares/LVGL/GUI/lvgl/src/draw/lv_draw_buf.c ****     if(stride == 0) stride = lv_draw_buf_width_to_stride(w, cf);
 1566              		.loc 1 380 7 is_stmt 0 view .LVU411
 1567 000c 01B9     		cbnz	r1, .L123
 380:../../Middlewares/LVGL/GUI/lvgl/src/draw/lv_draw_buf.c ****     if(stride == 0) stride = lv_draw_buf_width_to_stride(w, cf);
 1568              		.loc 1 380 39 is_stmt 1 discriminator 1 view .LVU412
 380:../../Middlewares/LVGL/GUI/lvgl/src/draw/lv_draw_buf.c ****     if(stride == 0) stride = lv_draw_buf_width_to_stride(w, cf);
 1569              		.loc 1 380 42 is_stmt 0 discriminator 1 view .LVU413
 1570 000e 4578     		ldrb	r5, [r0, #1]	@ zero_extendqisi2
 1571              	.L123:
 1572              	.LVL138:
 381:../../Middlewares/LVGL/GUI/lvgl/src/draw/lv_draw_buf.c **** 
 1573              		.loc 1 381 5 is_stmt 1 view .LVU414
 381:../../Middlewares/LVGL/GUI/lvgl/src/draw/lv_draw_buf.c **** 
 1574              		.loc 1 381 7 is_stmt 0 view .LVU415
 1575 0010 069B     		ldr	r3, [sp, #24]
 1576              	.LVL139:
 381:../../Middlewares/LVGL/GUI/lvgl/src/draw/lv_draw_buf.c **** 
 1577              		.loc 1 381 7 view .LVU416
 1578 0012 7BB1     		cbz	r3, .L128
 1579              	.LVL140:
 1580              	.L124:
 383:../../Middlewares/LVGL/GUI/lvgl/src/draw/lv_draw_buf.c **** 
 1581              		.loc 1 383 5 is_stmt 1 view .LVU417
 383:../../Middlewares/LVGL/GUI/lvgl/src/draw/lv_draw_buf.c **** 
 1582              		.loc 1 383 21 is_stmt 0 view .LVU418
 1583 0014 069B     		ldr	r3, [sp, #24]
 1584 0016 2A46     		mov	r2, r5
 1585 0018 3946     		mov	r1, r7
 1586 001a 3046     		mov	r0, r6
 1587 001c FFF7FEFF 		bl	_calculate_draw_buf_size
 1588              	.LVL141:
 385:../../Middlewares/LVGL/GUI/lvgl/src/draw/lv_draw_buf.c ****         LV_LOG_TRACE("Draw buf too small for new shape");
 1589              		.loc 1 385 5 is_stmt 1 view .LVU419
 385:../../Middlewares/LVGL/GUI/lvgl/src/draw/lv_draw_buf.c ****         LV_LOG_TRACE("Draw buf too small for new shape");
 1590              		.loc 1 385 23 is_stmt 0 view .LVU420
 1591 0020 E368     		ldr	r3, [r4, #12]
 385:../../Middlewares/LVGL/GUI/lvgl/src/draw/lv_draw_buf.c ****         LV_LOG_TRACE("Draw buf too small for new shape");
 1592              		.loc 1 385 7 view .LVU421
 1593 0022 8342     		cmp	r3, r0
 1594 0024 0CD3     		bcc	.L126
 391:../../Middlewares/LVGL/GUI/lvgl/src/draw/lv_draw_buf.c ****     draw_buf->header.w = w;
 1595              		.loc 1 391 5 is_stmt 1 view .LVU422
 391:../../Middlewares/LVGL/GUI/lvgl/src/draw/lv_draw_buf.c ****     draw_buf->header.w = w;
 1596              		.loc 1 391 25 is_stmt 0 view .LVU423
 1597 0026 6570     		strb	r5, [r4, #1]
 392:../../Middlewares/LVGL/GUI/lvgl/src/draw/lv_draw_buf.c ****     draw_buf->header.h = h;
 1598              		.loc 1 392 5 is_stmt 1 view .LVU424
 392:../../Middlewares/LVGL/GUI/lvgl/src/draw/lv_draw_buf.c ****     draw_buf->header.h = h;
 1599              		.loc 1 392 24 is_stmt 0 view .LVU425
 1600 0028 A680     		strh	r6, [r4, #4]	@ movhi
 393:../../Middlewares/LVGL/GUI/lvgl/src/draw/lv_draw_buf.c ****     draw_buf->header.stride = stride;
 1601              		.loc 1 393 5 is_stmt 1 view .LVU426
 393:../../Middlewares/LVGL/GUI/lvgl/src/draw/lv_draw_buf.c ****     draw_buf->header.stride = stride;
 1602              		.loc 1 393 24 is_stmt 0 view .LVU427
 1603 002a E780     		strh	r7, [r4, #6]	@ movhi
 394:../../Middlewares/LVGL/GUI/lvgl/src/draw/lv_draw_buf.c **** 
 1604              		.loc 1 394 5 is_stmt 1 view .LVU428
ARM GAS  C:\Users\28576\AppData\Local\Temp\ccjLWieG.s 			page 49


 394:../../Middlewares/LVGL/GUI/lvgl/src/draw/lv_draw_buf.c **** 
 1605              		.loc 1 394 29 is_stmt 0 view .LVU429
 1606 002c 069B     		ldr	r3, [sp, #24]
 1607 002e 2381     		strh	r3, [r4, #8]	@ movhi
 396:../../Middlewares/LVGL/GUI/lvgl/src/draw/lv_draw_buf.c ****     return draw_buf;
 1608              		.loc 1 396 25 is_stmt 1 view .LVU430
 397:../../Middlewares/LVGL/GUI/lvgl/src/draw/lv_draw_buf.c **** }
 1609              		.loc 1 397 5 view .LVU431
 397:../../Middlewares/LVGL/GUI/lvgl/src/draw/lv_draw_buf.c **** }
 1610              		.loc 1 397 12 is_stmt 0 view .LVU432
 1611 0030 2046     		mov	r0, r4
 1612              	.LVL142:
 1613              	.L121:
 398:../../Middlewares/LVGL/GUI/lvgl/src/draw/lv_draw_buf.c **** 
 1614              		.loc 1 398 1 view .LVU433
 1615 0032 F8BD     		pop	{r3, r4, r5, r6, r7, pc}
 1616              	.LVL143:
 1617              	.L128:
 381:../../Middlewares/LVGL/GUI/lvgl/src/draw/lv_draw_buf.c **** 
 1618              		.loc 1 381 21 is_stmt 1 discriminator 1 view .LVU434
 381:../../Middlewares/LVGL/GUI/lvgl/src/draw/lv_draw_buf.c **** 
 1619              		.loc 1 381 30 is_stmt 0 discriminator 1 view .LVU435
 1620 0034 2946     		mov	r1, r5
 1621 0036 3046     		mov	r0, r6
 1622              	.LVL144:
 381:../../Middlewares/LVGL/GUI/lvgl/src/draw/lv_draw_buf.c **** 
 1623              		.loc 1 381 30 discriminator 1 view .LVU436
 1624 0038 FFF7FEFF 		bl	lv_draw_buf_width_to_stride
 1625              	.LVL145:
 381:../../Middlewares/LVGL/GUI/lvgl/src/draw/lv_draw_buf.c **** 
 1626              		.loc 1 381 30 discriminator 1 view .LVU437
 1627 003c 0690     		str	r0, [sp, #24]
 1628              	.LVL146:
 381:../../Middlewares/LVGL/GUI/lvgl/src/draw/lv_draw_buf.c **** 
 1629              		.loc 1 381 30 discriminator 1 view .LVU438
 1630 003e E9E7     		b	.L124
 1631              	.LVL147:
 1632              	.L126:
 388:../../Middlewares/LVGL/GUI/lvgl/src/draw/lv_draw_buf.c ****     }
 1633              		.loc 1 388 16 view .LVU439
 1634 0040 0020     		movs	r0, #0
 1635              	.LVL148:
 388:../../Middlewares/LVGL/GUI/lvgl/src/draw/lv_draw_buf.c ****     }
 1636              		.loc 1 388 16 view .LVU440
 1637 0042 F6E7     		b	.L121
 1638              		.cfi_endproc
 1639              	.LFE206:
 1641              		.section	.text.lv_draw_buf_destroy,"ax",%progbits
 1642              		.align	1
 1643              		.global	lv_draw_buf_destroy
 1644              		.syntax unified
 1645              		.thumb
 1646              		.thumb_func
 1648              	lv_draw_buf_destroy:
 1649              	.LVL149:
 1650              	.LFB207:
 401:../../Middlewares/LVGL/GUI/lvgl/src/draw/lv_draw_buf.c ****     LV_ASSERT_NULL(draw_buf);
ARM GAS  C:\Users\28576\AppData\Local\Temp\ccjLWieG.s 			page 50


 1651              		.loc 1 401 1 is_stmt 1 view -0
 1652              		.cfi_startproc
 1653              		@ args = 0, pretend = 0, frame = 0
 1654              		@ frame_needed = 0, uses_anonymous_args = 0
 402:../../Middlewares/LVGL/GUI/lvgl/src/draw/lv_draw_buf.c ****     if(draw_buf == NULL) return;
 1655              		.loc 1 402 5 view .LVU442
 402:../../Middlewares/LVGL/GUI/lvgl/src/draw/lv_draw_buf.c ****     if(draw_buf == NULL) return;
 1656              		.loc 1 402 5 view .LVU443
 1657 0000 70B1     		cbz	r0, .L131
 401:../../Middlewares/LVGL/GUI/lvgl/src/draw/lv_draw_buf.c ****     LV_ASSERT_NULL(draw_buf);
 1658              		.loc 1 401 1 is_stmt 0 view .LVU444
 1659 0002 10B5     		push	{r4, lr}
 1660              	.LCFI40:
 1661              		.cfi_def_cfa_offset 8
 1662              		.cfi_offset 4, -8
 1663              		.cfi_offset 14, -4
 1664 0004 0446     		mov	r4, r0
 402:../../Middlewares/LVGL/GUI/lvgl/src/draw/lv_draw_buf.c ****     if(draw_buf == NULL) return;
 1665              		.loc 1 402 5 is_stmt 1 view .LVU445
 402:../../Middlewares/LVGL/GUI/lvgl/src/draw/lv_draw_buf.c ****     if(draw_buf == NULL) return;
 1666              		.loc 1 402 29 view .LVU446
 403:../../Middlewares/LVGL/GUI/lvgl/src/draw/lv_draw_buf.c ****     LV_PROFILER_DRAW_BEGIN;
 1667              		.loc 1 403 5 view .LVU447
 404:../../Middlewares/LVGL/GUI/lvgl/src/draw/lv_draw_buf.c **** 
 1668              		.loc 1 404 27 view .LVU448
 406:../../Middlewares/LVGL/GUI/lvgl/src/draw/lv_draw_buf.c ****         LV_ASSERT_NULL(draw_buf->handlers);
 1669              		.loc 1 406 5 view .LVU449
 406:../../Middlewares/LVGL/GUI/lvgl/src/draw/lv_draw_buf.c ****         LV_ASSERT_NULL(draw_buf->handlers);
 1670              		.loc 1 406 24 is_stmt 0 view .LVU450
 1671 0006 4388     		ldrh	r3, [r0, #2]
 406:../../Middlewares/LVGL/GUI/lvgl/src/draw/lv_draw_buf.c ****         LV_ASSERT_NULL(draw_buf->handlers);
 1672              		.loc 1 406 7 view .LVU451
 1673 0008 13F0100F 		tst	r3, #16
 1674 000c 07D0     		beq	.L129
 1675              	.LBB15:
 407:../../Middlewares/LVGL/GUI/lvgl/src/draw/lv_draw_buf.c **** 
 1676              		.loc 1 407 9 is_stmt 1 view .LVU452
 407:../../Middlewares/LVGL/GUI/lvgl/src/draw/lv_draw_buf.c **** 
 1677              		.loc 1 407 9 view .LVU453
 1678 000e 8069     		ldr	r0, [r0, #24]
 1679              	.LVL150:
 407:../../Middlewares/LVGL/GUI/lvgl/src/draw/lv_draw_buf.c **** 
 1680              		.loc 1 407 9 is_stmt 0 view .LVU454
 1681 0010 38B1     		cbz	r0, .L134
 407:../../Middlewares/LVGL/GUI/lvgl/src/draw/lv_draw_buf.c **** 
 1682              		.loc 1 407 9 is_stmt 1 view .LVU455
 407:../../Middlewares/LVGL/GUI/lvgl/src/draw/lv_draw_buf.c **** 
 1683              		.loc 1 407 43 view .LVU456
 409:../../Middlewares/LVGL/GUI/lvgl/src/draw/lv_draw_buf.c ****         draw_buf_free(handlers, draw_buf->unaligned_data);
 1684              		.loc 1 409 9 view .LVU457
 1685              	.LVL151:
 410:../../Middlewares/LVGL/GUI/lvgl/src/draw/lv_draw_buf.c ****         lv_free(draw_buf);
 1686              		.loc 1 410 9 view .LVU458
 1687 0012 6169     		ldr	r1, [r4, #20]
 1688 0014 FFF7FEFF 		bl	draw_buf_free
 1689              	.LVL152:
 411:../../Middlewares/LVGL/GUI/lvgl/src/draw/lv_draw_buf.c ****     }
ARM GAS  C:\Users\28576\AppData\Local\Temp\ccjLWieG.s 			page 51


 1690              		.loc 1 411 9 view .LVU459
 1691 0018 2046     		mov	r0, r4
 1692 001a FFF7FEFF 		bl	lv_free
 1693              	.LVL153:
 1694              	.LBE15:
 414:../../Middlewares/LVGL/GUI/lvgl/src/draw/lv_draw_buf.c ****     }
 1695              		.loc 1 414 9 view .LVU460
 414:../../Middlewares/LVGL/GUI/lvgl/src/draw/lv_draw_buf.c ****     }
 1696              		.loc 1 414 9 view .LVU461
 414:../../Middlewares/LVGL/GUI/lvgl/src/draw/lv_draw_buf.c ****     }
 1697              		.loc 1 414 9 view .LVU462
 416:../../Middlewares/LVGL/GUI/lvgl/src/draw/lv_draw_buf.c **** }
 1698              		.loc 1 416 25 view .LVU463
 1699              	.L129:
 417:../../Middlewares/LVGL/GUI/lvgl/src/draw/lv_draw_buf.c **** 
 1700              		.loc 1 417 1 is_stmt 0 view .LVU464
 1701 001e 10BD     		pop	{r4, pc}
 1702              	.LVL154:
 1703              	.L131:
 1704              	.LCFI41:
 1705              		.cfi_def_cfa_offset 0
 1706              		.cfi_restore 4
 1707              		.cfi_restore 14
 402:../../Middlewares/LVGL/GUI/lvgl/src/draw/lv_draw_buf.c ****     if(draw_buf == NULL) return;
 1708              		.loc 1 402 5 is_stmt 1 view .LVU465
 402:../../Middlewares/LVGL/GUI/lvgl/src/draw/lv_draw_buf.c ****     if(draw_buf == NULL) return;
 1709              		.loc 1 402 5 view .LVU466
 402:../../Middlewares/LVGL/GUI/lvgl/src/draw/lv_draw_buf.c ****     if(draw_buf == NULL) return;
 1710              		.loc 1 402 5 view .LVU467
 402:../../Middlewares/LVGL/GUI/lvgl/src/draw/lv_draw_buf.c ****     if(draw_buf == NULL) return;
 1711              		.loc 1 402 5 view .LVU468
 402:../../Middlewares/LVGL/GUI/lvgl/src/draw/lv_draw_buf.c ****     if(draw_buf == NULL) return;
 1712              		.loc 1 402 5 view .LVU469
 1713 0020 FEE7     		b	.L131
 1714              	.LVL155:
 1715              	.L134:
 1716              	.LCFI42:
 1717              		.cfi_def_cfa_offset 8
 1718              		.cfi_offset 4, -8
 1719              		.cfi_offset 14, -4
 1720              	.LBB16:
 407:../../Middlewares/LVGL/GUI/lvgl/src/draw/lv_draw_buf.c **** 
 1721              		.loc 1 407 9 view .LVU470
 407:../../Middlewares/LVGL/GUI/lvgl/src/draw/lv_draw_buf.c **** 
 1722              		.loc 1 407 9 view .LVU471
 407:../../Middlewares/LVGL/GUI/lvgl/src/draw/lv_draw_buf.c **** 
 1723              		.loc 1 407 9 view .LVU472
 407:../../Middlewares/LVGL/GUI/lvgl/src/draw/lv_draw_buf.c **** 
 1724              		.loc 1 407 9 view .LVU473
 407:../../Middlewares/LVGL/GUI/lvgl/src/draw/lv_draw_buf.c **** 
 1725              		.loc 1 407 9 view .LVU474
 1726 0022 FEE7     		b	.L134
 1727              	.LBE16:
 1728              		.cfi_endproc
 1729              	.LFE207:
 1731              		.section	.text.lv_draw_buf_goto_xy,"ax",%progbits
 1732              		.align	1
ARM GAS  C:\Users\28576\AppData\Local\Temp\ccjLWieG.s 			page 52


 1733              		.global	lv_draw_buf_goto_xy
 1734              		.syntax unified
 1735              		.thumb
 1736              		.thumb_func
 1738              	lv_draw_buf_goto_xy:
 1739              	.LVL156:
 1740              	.LFB208:
 420:../../Middlewares/LVGL/GUI/lvgl/src/draw/lv_draw_buf.c ****     LV_ASSERT_NULL(buf);
 1741              		.loc 1 420 1 view -0
 1742              		.cfi_startproc
 1743              		@ args = 0, pretend = 0, frame = 0
 1744              		@ frame_needed = 0, uses_anonymous_args = 0
 421:../../Middlewares/LVGL/GUI/lvgl/src/draw/lv_draw_buf.c ****     if(buf == NULL) return NULL;
 1745              		.loc 1 421 5 view .LVU476
 421:../../Middlewares/LVGL/GUI/lvgl/src/draw/lv_draw_buf.c ****     if(buf == NULL) return NULL;
 1746              		.loc 1 421 5 view .LVU477
 1747 0000 70B1     		cbz	r0, .L139
 420:../../Middlewares/LVGL/GUI/lvgl/src/draw/lv_draw_buf.c ****     LV_ASSERT_NULL(buf);
 1748              		.loc 1 420 1 is_stmt 0 view .LVU478
 1749 0002 38B5     		push	{r3, r4, r5, lr}
 1750              	.LCFI43:
 1751              		.cfi_def_cfa_offset 16
 1752              		.cfi_offset 3, -16
 1753              		.cfi_offset 4, -12
 1754              		.cfi_offset 5, -8
 1755              		.cfi_offset 14, -4
 1756 0004 0D46     		mov	r5, r1
 1757 0006 0346     		mov	r3, r0
 421:../../Middlewares/LVGL/GUI/lvgl/src/draw/lv_draw_buf.c ****     if(buf == NULL) return NULL;
 1758              		.loc 1 421 5 is_stmt 1 view .LVU479
 421:../../Middlewares/LVGL/GUI/lvgl/src/draw/lv_draw_buf.c ****     if(buf == NULL) return NULL;
 1759              		.loc 1 421 24 view .LVU480
 422:../../Middlewares/LVGL/GUI/lvgl/src/draw/lv_draw_buf.c **** 
 1760              		.loc 1 422 5 view .LVU481
 424:../../Middlewares/LVGL/GUI/lvgl/src/draw/lv_draw_buf.c **** 
 1761              		.loc 1 424 5 view .LVU482
 424:../../Middlewares/LVGL/GUI/lvgl/src/draw/lv_draw_buf.c **** 
 1762              		.loc 1 424 15 is_stmt 0 view .LVU483
 1763 0008 0469     		ldr	r4, [r0, #16]
 1764              	.LVL157:
 427:../../Middlewares/LVGL/GUI/lvgl/src/draw/lv_draw_buf.c ****     data += buf->header.stride * y;
 1765              		.loc 1 427 5 is_stmt 1 view .LVU484
 427:../../Middlewares/LVGL/GUI/lvgl/src/draw/lv_draw_buf.c ****     data += buf->header.stride * y;
 1766              		.loc 1 427 13 is_stmt 0 view .LVU485
 1767 000a 4078     		ldrb	r0, [r0, #1]	@ zero_extendqisi2
 1768              	.LVL158:
 427:../../Middlewares/LVGL/GUI/lvgl/src/draw/lv_draw_buf.c ****     data += buf->header.stride * y;
 1769              		.loc 1 427 59 view .LVU486
 1770 000c 0728     		cmp	r0, #7
 1771 000e 0BD0     		beq	.L142
 427:../../Middlewares/LVGL/GUI/lvgl/src/draw/lv_draw_buf.c ****     data += buf->header.stride * y;
 1772              		.loc 1 427 59 discriminator 1 view .LVU487
 1773 0010 0828     		cmp	r0, #8
 1774 0012 11D0     		beq	.L143
 427:../../Middlewares/LVGL/GUI/lvgl/src/draw/lv_draw_buf.c ****     data += buf->header.stride * y;
 1775              		.loc 1 427 59 discriminator 3 view .LVU488
 1776 0014 0928     		cmp	r0, #9
ARM GAS  C:\Users\28576\AppData\Local\Temp\ccjLWieG.s 			page 53


 1777 0016 11D0     		beq	.L144
 427:../../Middlewares/LVGL/GUI/lvgl/src/draw/lv_draw_buf.c ****     data += buf->header.stride * y;
 1778              		.loc 1 427 59 discriminator 5 view .LVU489
 1779 0018 0A28     		cmp	r0, #10
 1780 001a 02D0     		beq	.L148
 427:../../Middlewares/LVGL/GUI/lvgl/src/draw/lv_draw_buf.c ****     data += buf->header.stride * y;
 1781              		.loc 1 427 59 discriminator 8 view .LVU490
 1782 001c 0021     		movs	r1, #0
 1783              	.LVL159:
 427:../../Middlewares/LVGL/GUI/lvgl/src/draw/lv_draw_buf.c ****     data += buf->header.stride * y;
 1784              		.loc 1 427 59 discriminator 8 view .LVU491
 1785 001e 04E0     		b	.L140
 1786              	.LVL160:
 1787              	.L139:
 1788              	.LCFI44:
 1789              		.cfi_def_cfa_offset 0
 1790              		.cfi_restore 3
 1791              		.cfi_restore 4
 1792              		.cfi_restore 5
 1793              		.cfi_restore 14
 421:../../Middlewares/LVGL/GUI/lvgl/src/draw/lv_draw_buf.c ****     if(buf == NULL) return NULL;
 1794              		.loc 1 421 5 is_stmt 1 view .LVU492
 421:../../Middlewares/LVGL/GUI/lvgl/src/draw/lv_draw_buf.c ****     if(buf == NULL) return NULL;
 1795              		.loc 1 421 5 view .LVU493
 421:../../Middlewares/LVGL/GUI/lvgl/src/draw/lv_draw_buf.c ****     if(buf == NULL) return NULL;
 1796              		.loc 1 421 5 view .LVU494
 421:../../Middlewares/LVGL/GUI/lvgl/src/draw/lv_draw_buf.c ****     if(buf == NULL) return NULL;
 1797              		.loc 1 421 5 view .LVU495
 421:../../Middlewares/LVGL/GUI/lvgl/src/draw/lv_draw_buf.c ****     if(buf == NULL) return NULL;
 1798              		.loc 1 421 5 view .LVU496
 1799 0020 FEE7     		b	.L139
 1800              	.LVL161:
 1801              	.L148:
 1802              	.LCFI45:
 1803              		.cfi_def_cfa_offset 16
 1804              		.cfi_offset 3, -16
 1805              		.cfi_offset 4, -12
 1806              		.cfi_offset 5, -8
 1807              		.cfi_offset 14, -4
 427:../../Middlewares/LVGL/GUI/lvgl/src/draw/lv_draw_buf.c ****     data += buf->header.stride * y;
 1808              		.loc 1 427 59 is_stmt 0 discriminator 7 view .LVU497
 1809 0022 4FF48061 		mov	r1, #1024
 1810              	.LVL162:
 427:../../Middlewares/LVGL/GUI/lvgl/src/draw/lv_draw_buf.c ****     data += buf->header.stride * y;
 1811              		.loc 1 427 59 discriminator 7 view .LVU498
 1812 0026 00E0     		b	.L140
 1813              	.LVL163:
 1814              	.L142:
 427:../../Middlewares/LVGL/GUI/lvgl/src/draw/lv_draw_buf.c ****     data += buf->header.stride * y;
 1815              		.loc 1 427 59 discriminator 2 view .LVU499
 1816 0028 0821     		movs	r1, #8
 1817              	.LVL164:
 1818              	.L140:
 428:../../Middlewares/LVGL/GUI/lvgl/src/draw/lv_draw_buf.c **** 
 1819              		.loc 1 428 5 is_stmt 1 view .LVU500
 428:../../Middlewares/LVGL/GUI/lvgl/src/draw/lv_draw_buf.c **** 
 1820              		.loc 1 428 24 is_stmt 0 view .LVU501
ARM GAS  C:\Users\28576\AppData\Local\Temp\ccjLWieG.s 			page 54


 1821 002a 1B89     		ldrh	r3, [r3, #8]
 1822              	.LVL165:
 428:../../Middlewares/LVGL/GUI/lvgl/src/draw/lv_draw_buf.c **** 
 1823              		.loc 1 428 10 view .LVU502
 1824 002c 02FB0313 		mla	r3, r2, r3, r1
 1825 0030 1C44     		add	r4, r4, r3
 1826              	.LVL166:
 430:../../Middlewares/LVGL/GUI/lvgl/src/draw/lv_draw_buf.c **** 
 1827              		.loc 1 430 5 is_stmt 1 view .LVU503
 430:../../Middlewares/LVGL/GUI/lvgl/src/draw/lv_draw_buf.c **** 
 1828              		.loc 1 430 7 is_stmt 0 view .LVU504
 1829 0032 2DB9     		cbnz	r5, .L149
 1830              	.LVL167:
 1831              	.L137:
 433:../../Middlewares/LVGL/GUI/lvgl/src/draw/lv_draw_buf.c **** 
 1832              		.loc 1 433 1 view .LVU505
 1833 0034 2046     		mov	r0, r4
 1834 0036 38BD     		pop	{r3, r4, r5, pc}
 1835              	.LVL168:
 1836              	.L143:
 427:../../Middlewares/LVGL/GUI/lvgl/src/draw/lv_draw_buf.c ****     data += buf->header.stride * y;
 1837              		.loc 1 427 59 discriminator 4 view .LVU506
 1838 0038 1021     		movs	r1, #16
 1839              	.LVL169:
 427:../../Middlewares/LVGL/GUI/lvgl/src/draw/lv_draw_buf.c ****     data += buf->header.stride * y;
 1840              		.loc 1 427 59 discriminator 4 view .LVU507
 1841 003a F6E7     		b	.L140
 1842              	.LVL170:
 1843              	.L144:
 427:../../Middlewares/LVGL/GUI/lvgl/src/draw/lv_draw_buf.c ****     data += buf->header.stride * y;
 1844              		.loc 1 427 59 discriminator 6 view .LVU508
 1845 003c 4021     		movs	r1, #64
 1846              	.LVL171:
 427:../../Middlewares/LVGL/GUI/lvgl/src/draw/lv_draw_buf.c ****     data += buf->header.stride * y;
 1847              		.loc 1 427 59 discriminator 6 view .LVU509
 1848 003e F4E7     		b	.L140
 1849              	.LVL172:
 1850              	.L149:
 432:../../Middlewares/LVGL/GUI/lvgl/src/draw/lv_draw_buf.c **** }
 1851              		.loc 1 432 5 is_stmt 1 view .LVU510
 432:../../Middlewares/LVGL/GUI/lvgl/src/draw/lv_draw_buf.c **** }
 1852              		.loc 1 432 23 is_stmt 0 view .LVU511
 1853 0040 FFF7FEFF 		bl	lv_color_format_get_bpp
 1854              	.LVL173:
 432:../../Middlewares/LVGL/GUI/lvgl/src/draw/lv_draw_buf.c **** }
 1855              		.loc 1 432 21 discriminator 1 view .LVU512
 1856 0044 2B46     		mov	r3, r5
 1857 0046 00FB03F3 		mul	r3, r0, r3
 432:../../Middlewares/LVGL/GUI/lvgl/src/draw/lv_draw_buf.c **** }
 1858              		.loc 1 432 17 discriminator 1 view .LVU513
 1859 004a 04EBD304 		add	r4, r4, r3, lsr #3
 1860              	.LVL174:
 432:../../Middlewares/LVGL/GUI/lvgl/src/draw/lv_draw_buf.c **** }
 1861              		.loc 1 432 17 view .LVU514
 1862 004e F1E7     		b	.L137
 1863              		.cfi_endproc
 1864              	.LFE208:
ARM GAS  C:\Users\28576\AppData\Local\Temp\ccjLWieG.s 			page 55


 1866              		.section	.text.lv_draw_buf_clear,"ax",%progbits
 1867              		.align	1
 1868              		.global	lv_draw_buf_clear
 1869              		.syntax unified
 1870              		.thumb
 1871              		.thumb_func
 1873              	lv_draw_buf_clear:
 1874              	.LVL175:
 1875              	.LFB199:
 164:../../Middlewares/LVGL/GUI/lvgl/src/draw/lv_draw_buf.c ****     LV_ASSERT_NULL(draw_buf);
 1876              		.loc 1 164 1 is_stmt 1 view -0
 1877              		.cfi_startproc
 1878              		@ args = 0, pretend = 0, frame = 32
 1879              		@ frame_needed = 0, uses_anonymous_args = 0
 165:../../Middlewares/LVGL/GUI/lvgl/src/draw/lv_draw_buf.c ****     LV_PROFILER_DRAW_BEGIN;
 1880              		.loc 1 165 5 view .LVU516
 165:../../Middlewares/LVGL/GUI/lvgl/src/draw/lv_draw_buf.c ****     LV_PROFILER_DRAW_BEGIN;
 1881              		.loc 1 165 5 view .LVU517
 1882 0000 C0B1     		cbz	r0, .L152
 164:../../Middlewares/LVGL/GUI/lvgl/src/draw/lv_draw_buf.c ****     LV_ASSERT_NULL(draw_buf);
 1883              		.loc 1 164 1 is_stmt 0 view .LVU518
 1884 0002 2DE9F043 		push	{r4, r5, r6, r7, r8, r9, lr}
 1885              	.LCFI46:
 1886              		.cfi_def_cfa_offset 28
 1887              		.cfi_offset 4, -28
 1888              		.cfi_offset 5, -24
 1889              		.cfi_offset 6, -20
 1890              		.cfi_offset 7, -16
 1891              		.cfi_offset 8, -12
 1892              		.cfi_offset 9, -8
 1893              		.cfi_offset 14, -4
 1894 0006 89B0     		sub	sp, sp, #36
 1895              	.LCFI47:
 1896              		.cfi_def_cfa_offset 64
 1897 0008 0F46     		mov	r7, r1
 1898 000a 0446     		mov	r4, r0
 165:../../Middlewares/LVGL/GUI/lvgl/src/draw/lv_draw_buf.c ****     LV_PROFILER_DRAW_BEGIN;
 1899              		.loc 1 165 5 is_stmt 1 view .LVU519
 165:../../Middlewares/LVGL/GUI/lvgl/src/draw/lv_draw_buf.c ****     LV_PROFILER_DRAW_BEGIN;
 1900              		.loc 1 165 29 view .LVU520
 166:../../Middlewares/LVGL/GUI/lvgl/src/draw/lv_draw_buf.c **** 
 1901              		.loc 1 166 27 view .LVU521
 168:../../Middlewares/LVGL/GUI/lvgl/src/draw/lv_draw_buf.c ****     uint32_t stride = header->stride;
 1902              		.loc 1 168 5 view .LVU522
 1903              	.LVL176:
 169:../../Middlewares/LVGL/GUI/lvgl/src/draw/lv_draw_buf.c **** 
 1904              		.loc 1 169 5 view .LVU523
 169:../../Middlewares/LVGL/GUI/lvgl/src/draw/lv_draw_buf.c **** 
 1905              		.loc 1 169 29 is_stmt 0 view .LVU524
 1906 000c 0389     		ldrh	r3, [r0, #8]
 1907 000e 9846     		mov	r8, r3
 1908              	.LVL177:
 171:../../Middlewares/LVGL/GUI/lvgl/src/draw/lv_draw_buf.c ****         uint8_t * buf = lv_draw_buf_goto_xy(draw_buf, 0, 0);
 1909              		.loc 1 171 5 is_stmt 1 view .LVU525
 171:../../Middlewares/LVGL/GUI/lvgl/src/draw/lv_draw_buf.c ****         uint8_t * buf = lv_draw_buf_goto_xy(draw_buf, 0, 0);
 1910              		.loc 1 171 7 is_stmt 0 view .LVU526
 1911 0010 89B1     		cbz	r1, .L160
ARM GAS  C:\Users\28576\AppData\Local\Temp\ccjLWieG.s 			page 56


 179:../../Middlewares/LVGL/GUI/lvgl/src/draw/lv_draw_buf.c ****     a_draw_buf.x1 = 0;
 1912              		.loc 1 179 5 is_stmt 1 view .LVU527
 180:../../Middlewares/LVGL/GUI/lvgl/src/draw/lv_draw_buf.c ****     a_draw_buf.y1 = 0;
 1913              		.loc 1 180 5 view .LVU528
 180:../../Middlewares/LVGL/GUI/lvgl/src/draw/lv_draw_buf.c ****     a_draw_buf.y1 = 0;
 1914              		.loc 1 180 19 is_stmt 0 view .LVU529
 1915 0012 0023     		movs	r3, #0
 1916              	.LVL178:
 180:../../Middlewares/LVGL/GUI/lvgl/src/draw/lv_draw_buf.c ****     a_draw_buf.y1 = 0;
 1917              		.loc 1 180 19 view .LVU530
 1918 0014 0493     		str	r3, [sp, #16]
 181:../../Middlewares/LVGL/GUI/lvgl/src/draw/lv_draw_buf.c ****     a_draw_buf.x2 = draw_buf->header.w - 1;
 1919              		.loc 1 181 5 is_stmt 1 view .LVU531
 181:../../Middlewares/LVGL/GUI/lvgl/src/draw/lv_draw_buf.c ****     a_draw_buf.x2 = draw_buf->header.w - 1;
 1920              		.loc 1 181 19 is_stmt 0 view .LVU532
 1921 0016 0593     		str	r3, [sp, #20]
 182:../../Middlewares/LVGL/GUI/lvgl/src/draw/lv_draw_buf.c ****     a_draw_buf.y2 = draw_buf->header.h - 1;
 1922              		.loc 1 182 5 is_stmt 1 view .LVU533
 182:../../Middlewares/LVGL/GUI/lvgl/src/draw/lv_draw_buf.c ****     a_draw_buf.y2 = draw_buf->header.h - 1;
 1923              		.loc 1 182 37 is_stmt 0 view .LVU534
 1924 0018 8388     		ldrh	r3, [r0, #4]
 182:../../Middlewares/LVGL/GUI/lvgl/src/draw/lv_draw_buf.c ****     a_draw_buf.y2 = draw_buf->header.h - 1;
 1925              		.loc 1 182 40 view .LVU535
 1926 001a 013B     		subs	r3, r3, #1
 182:../../Middlewares/LVGL/GUI/lvgl/src/draw/lv_draw_buf.c ****     a_draw_buf.y2 = draw_buf->header.h - 1;
 1927              		.loc 1 182 19 view .LVU536
 1928 001c 0693     		str	r3, [sp, #24]
 183:../../Middlewares/LVGL/GUI/lvgl/src/draw/lv_draw_buf.c **** 
 1929              		.loc 1 183 5 is_stmt 1 view .LVU537
 183:../../Middlewares/LVGL/GUI/lvgl/src/draw/lv_draw_buf.c **** 
 1930              		.loc 1 183 37 is_stmt 0 view .LVU538
 1931 001e C388     		ldrh	r3, [r0, #6]
 183:../../Middlewares/LVGL/GUI/lvgl/src/draw/lv_draw_buf.c **** 
 1932              		.loc 1 183 40 view .LVU539
 1933 0020 013B     		subs	r3, r3, #1
 183:../../Middlewares/LVGL/GUI/lvgl/src/draw/lv_draw_buf.c **** 
 1934              		.loc 1 183 19 view .LVU540
 1935 0022 0793     		str	r3, [sp, #28]
 185:../../Middlewares/LVGL/GUI/lvgl/src/draw/lv_draw_buf.c ****     if(!lv_area_intersect(&a_clipped, a, &a_draw_buf)) {
 1936              		.loc 1 185 5 is_stmt 1 view .LVU541
 186:../../Middlewares/LVGL/GUI/lvgl/src/draw/lv_draw_buf.c ****         LV_PROFILER_DRAW_END;
 1937              		.loc 1 186 5 view .LVU542
 186:../../Middlewares/LVGL/GUI/lvgl/src/draw/lv_draw_buf.c ****         LV_PROFILER_DRAW_END;
 1938              		.loc 1 186 9 is_stmt 0 view .LVU543
 1939 0024 04AA     		add	r2, sp, #16
 1940 0026 6846     		mov	r0, sp
 1941              	.LVL179:
 186:../../Middlewares/LVGL/GUI/lvgl/src/draw/lv_draw_buf.c ****         LV_PROFILER_DRAW_END;
 1942              		.loc 1 186 9 view .LVU544
 1943 0028 FFF7FEFF 		bl	lv_area_intersect
 1944              	.LVL180:
 186:../../Middlewares/LVGL/GUI/lvgl/src/draw/lv_draw_buf.c ****         LV_PROFILER_DRAW_END;
 1945              		.loc 1 186 7 discriminator 1 view .LVU545
 1946 002c 90B9     		cbnz	r0, .L161
 1947              	.L150:
 211:../../Middlewares/LVGL/GUI/lvgl/src/draw/lv_draw_buf.c **** 
 1948              		.loc 1 211 1 view .LVU546
ARM GAS  C:\Users\28576\AppData\Local\Temp\ccjLWieG.s 			page 57


 1949 002e 09B0     		add	sp, sp, #36
 1950              	.LCFI48:
 1951              		.cfi_def_cfa_offset 28
 1952              		@ sp needed
 1953 0030 BDE8F083 		pop	{r4, r5, r6, r7, r8, r9, pc}
 1954              	.LVL181:
 1955              	.L152:
 1956              	.LCFI49:
 1957              		.cfi_def_cfa_offset 0
 1958              		.cfi_restore 4
 1959              		.cfi_restore 5
 1960              		.cfi_restore 6
 1961              		.cfi_restore 7
 1962              		.cfi_restore 8
 1963              		.cfi_restore 9
 1964              		.cfi_restore 14
 165:../../Middlewares/LVGL/GUI/lvgl/src/draw/lv_draw_buf.c ****     LV_PROFILER_DRAW_BEGIN;
 1965              		.loc 1 165 5 is_stmt 1 view .LVU547
 165:../../Middlewares/LVGL/GUI/lvgl/src/draw/lv_draw_buf.c ****     LV_PROFILER_DRAW_BEGIN;
 1966              		.loc 1 165 5 view .LVU548
 165:../../Middlewares/LVGL/GUI/lvgl/src/draw/lv_draw_buf.c ****     LV_PROFILER_DRAW_BEGIN;
 1967              		.loc 1 165 5 view .LVU549
 165:../../Middlewares/LVGL/GUI/lvgl/src/draw/lv_draw_buf.c ****     LV_PROFILER_DRAW_BEGIN;
 1968              		.loc 1 165 5 view .LVU550
 165:../../Middlewares/LVGL/GUI/lvgl/src/draw/lv_draw_buf.c ****     LV_PROFILER_DRAW_BEGIN;
 1969              		.loc 1 165 5 view .LVU551
 1970 0034 FEE7     		b	.L152
 1971              	.LVL182:
 1972              	.L160:
 1973              	.LCFI50:
 1974              		.cfi_def_cfa_offset 64
 1975              		.cfi_offset 4, -28
 1976              		.cfi_offset 5, -24
 1977              		.cfi_offset 6, -20
 1978              		.cfi_offset 7, -16
 1979              		.cfi_offset 8, -12
 1980              		.cfi_offset 9, -8
 1981              		.cfi_offset 14, -4
 1982              	.LBB17:
 172:../../Middlewares/LVGL/GUI/lvgl/src/draw/lv_draw_buf.c ****         lv_memzero(buf, header->h * stride);
 1983              		.loc 1 172 9 view .LVU552
 172:../../Middlewares/LVGL/GUI/lvgl/src/draw/lv_draw_buf.c ****         lv_memzero(buf, header->h * stride);
 1984              		.loc 1 172 25 is_stmt 0 view .LVU553
 1985 0036 0A46     		mov	r2, r1
 1986 0038 FFF7FEFF 		bl	lv_draw_buf_goto_xy
 1987              	.LVL183:
 173:../../Middlewares/LVGL/GUI/lvgl/src/draw/lv_draw_buf.c ****         lv_draw_buf_flush_cache(draw_buf, a);
 1988              		.loc 1 173 9 is_stmt 1 view .LVU554
 173:../../Middlewares/LVGL/GUI/lvgl/src/draw/lv_draw_buf.c ****         lv_draw_buf_flush_cache(draw_buf, a);
 1989              		.loc 1 173 31 is_stmt 0 view .LVU555
 1990 003c E288     		ldrh	r2, [r4, #6]
 1991              	.LVL184:
 1992              	.LBB18:
 1993              	.LBI18:
  73:H:/STM32H7/RGB_LVGL/Middlewares/LVGL/GUI/lvgl/src/stdlib\lv_string.h **** {
 1994              		.loc 2 73 20 is_stmt 1 view .LVU556
 1995              	.LBB19:
ARM GAS  C:\Users\28576\AppData\Local\Temp\ccjLWieG.s 			page 58


 1996              		.loc 2 75 5 view .LVU557
 1997 003e 4346     		mov	r3, r8
 1998 0040 03FB02F2 		mul	r2, r3, r2
 1999              	.LVL185:
 2000              		.loc 2 75 5 is_stmt 0 view .LVU558
 2001 0044 0021     		movs	r1, #0
 2002 0046 FFF7FEFF 		bl	lv_memset
 2003              	.LVL186:
 2004              		.loc 2 75 5 view .LVU559
 2005              	.LBE19:
 2006              	.LBE18:
 174:../../Middlewares/LVGL/GUI/lvgl/src/draw/lv_draw_buf.c ****         LV_PROFILER_DRAW_END;
 2007              		.loc 1 174 9 is_stmt 1 view .LVU560
 2008 004a 3946     		mov	r1, r7
 2009 004c 2046     		mov	r0, r4
 2010 004e FFF7FEFF 		bl	lv_draw_buf_flush_cache
 2011              	.LVL187:
 175:../../Middlewares/LVGL/GUI/lvgl/src/draw/lv_draw_buf.c ****         return;
 2012              		.loc 1 175 29 view .LVU561
 176:../../Middlewares/LVGL/GUI/lvgl/src/draw/lv_draw_buf.c ****     }
 2013              		.loc 1 176 9 view .LVU562
 2014 0052 ECE7     		b	.L150
 2015              	.LVL188:
 2016              	.L161:
 176:../../Middlewares/LVGL/GUI/lvgl/src/draw/lv_draw_buf.c ****     }
 2017              		.loc 1 176 9 is_stmt 0 view .LVU563
 2018              	.LBE17:
 191:../../Middlewares/LVGL/GUI/lvgl/src/draw/lv_draw_buf.c ****         LV_PROFILER_DRAW_END;
 2019              		.loc 1 191 5 is_stmt 1 view .LVU564
 191:../../Middlewares/LVGL/GUI/lvgl/src/draw/lv_draw_buf.c ****         LV_PROFILER_DRAW_END;
 2020              		.loc 1 191 8 is_stmt 0 view .LVU565
 2021 0054 6846     		mov	r0, sp
 2022 0056 FFF7FEFF 		bl	lv_area_get_width
 2023              	.LVL189:
 191:../../Middlewares/LVGL/GUI/lvgl/src/draw/lv_draw_buf.c ****         LV_PROFILER_DRAW_END;
 2024              		.loc 1 191 7 discriminator 1 view .LVU566
 2025 005a 0028     		cmp	r0, #0
 2026 005c E7DD     		ble	.L150
 196:../../Middlewares/LVGL/GUI/lvgl/src/draw/lv_draw_buf.c ****         LV_PROFILER_DRAW_END;
 2027              		.loc 1 196 5 is_stmt 1 view .LVU567
 196:../../Middlewares/LVGL/GUI/lvgl/src/draw/lv_draw_buf.c ****         LV_PROFILER_DRAW_END;
 2028              		.loc 1 196 8 is_stmt 0 view .LVU568
 2029 005e 6846     		mov	r0, sp
 2030 0060 FFF7FEFF 		bl	lv_area_get_height
 2031              	.LVL190:
 196:../../Middlewares/LVGL/GUI/lvgl/src/draw/lv_draw_buf.c ****         LV_PROFILER_DRAW_END;
 2032              		.loc 1 196 7 discriminator 1 view .LVU569
 2033 0064 0028     		cmp	r0, #0
 2034 0066 E2DD     		ble	.L150
 201:../../Middlewares/LVGL/GUI/lvgl/src/draw/lv_draw_buf.c ****     uint8_t bpp = lv_color_format_get_bpp(header->cf);
 2035              		.loc 1 201 5 is_stmt 1 view .LVU570
 201:../../Middlewares/LVGL/GUI/lvgl/src/draw/lv_draw_buf.c ****     uint8_t bpp = lv_color_format_get_bpp(header->cf);
 2036              		.loc 1 201 21 is_stmt 0 view .LVU571
 2037 0068 019A     		ldr	r2, [sp, #4]
 2038 006a 0099     		ldr	r1, [sp]
 2039 006c 2046     		mov	r0, r4
 2040 006e FFF7FEFF 		bl	lv_draw_buf_goto_xy
ARM GAS  C:\Users\28576\AppData\Local\Temp\ccjLWieG.s 			page 59


 2041              	.LVL191:
 2042 0072 0546     		mov	r5, r0
 2043              	.LVL192:
 202:../../Middlewares/LVGL/GUI/lvgl/src/draw/lv_draw_buf.c ****     uint32_t line_length = (lv_area_get_width(&a_clipped) * bpp + 7) >> 3;
 2044              		.loc 1 202 5 is_stmt 1 view .LVU572
 202:../../Middlewares/LVGL/GUI/lvgl/src/draw/lv_draw_buf.c ****     uint32_t line_length = (lv_area_get_width(&a_clipped) * bpp + 7) >> 3;
 2045              		.loc 1 202 19 is_stmt 0 view .LVU573
 2046 0074 6078     		ldrb	r0, [r4, #1]	@ zero_extendqisi2
 2047              	.LVL193:
 202:../../Middlewares/LVGL/GUI/lvgl/src/draw/lv_draw_buf.c ****     uint32_t line_length = (lv_area_get_width(&a_clipped) * bpp + 7) >> 3;
 2048              		.loc 1 202 19 view .LVU574
 2049 0076 FFF7FEFF 		bl	lv_color_format_get_bpp
 2050              	.LVL194:
 2051 007a 0646     		mov	r6, r0
 2052              	.LVL195:
 203:../../Middlewares/LVGL/GUI/lvgl/src/draw/lv_draw_buf.c ****     int32_t y;
 2053              		.loc 1 203 5 is_stmt 1 view .LVU575
 203:../../Middlewares/LVGL/GUI/lvgl/src/draw/lv_draw_buf.c ****     int32_t y;
 2054              		.loc 1 203 29 is_stmt 0 view .LVU576
 2055 007c 6846     		mov	r0, sp
 2056 007e FFF7FEFF 		bl	lv_area_get_width
 2057              	.LVL196:
 203:../../Middlewares/LVGL/GUI/lvgl/src/draw/lv_draw_buf.c ****     int32_t y;
 2058              		.loc 1 203 59 discriminator 1 view .LVU577
 2059 0082 00FB06F3 		mul	r3, r0, r6
 203:../../Middlewares/LVGL/GUI/lvgl/src/draw/lv_draw_buf.c ****     int32_t y;
 2060              		.loc 1 203 65 discriminator 1 view .LVU578
 2061 0086 0733     		adds	r3, r3, #7
 203:../../Middlewares/LVGL/GUI/lvgl/src/draw/lv_draw_buf.c ****     int32_t y;
 2062              		.loc 1 203 70 discriminator 1 view .LVU579
 2063 0088 DB10     		asrs	r3, r3, #3
 2064 008a 9946     		mov	r9, r3
 2065              	.LVL197:
 204:../../Middlewares/LVGL/GUI/lvgl/src/draw/lv_draw_buf.c ****     for(y = a_clipped.y1; y <= a_clipped.y2; y++) {
 2066              		.loc 1 204 5 is_stmt 1 view .LVU580
 205:../../Middlewares/LVGL/GUI/lvgl/src/draw/lv_draw_buf.c ****         lv_memzero(buf, line_length);
 2067              		.loc 1 205 5 view .LVU581
 205:../../Middlewares/LVGL/GUI/lvgl/src/draw/lv_draw_buf.c ****         lv_memzero(buf, line_length);
 2068              		.loc 1 205 11 is_stmt 0 view .LVU582
 2069 008c 019E     		ldr	r6, [sp, #4]
 2070              	.LVL198:
 205:../../Middlewares/LVGL/GUI/lvgl/src/draw/lv_draw_buf.c ****         lv_memzero(buf, line_length);
 2071              		.loc 1 205 5 view .LVU583
 2072 008e 06E0     		b	.L155
 2073              	.LVL199:
 2074              	.L156:
 206:../../Middlewares/LVGL/GUI/lvgl/src/draw/lv_draw_buf.c ****         buf += stride;
 2075              		.loc 1 206 9 is_stmt 1 view .LVU584
 2076              	.LBB20:
 2077              	.LBI20:
  73:H:/STM32H7/RGB_LVGL/Middlewares/LVGL/GUI/lvgl/src/stdlib\lv_string.h **** {
 2078              		.loc 2 73 20 view .LVU585
 2079              	.LBB21:
 2080              		.loc 2 75 5 view .LVU586
 2081 0090 4A46     		mov	r2, r9
 2082 0092 0021     		movs	r1, #0
 2083 0094 2846     		mov	r0, r5
ARM GAS  C:\Users\28576\AppData\Local\Temp\ccjLWieG.s 			page 60


 2084 0096 FFF7FEFF 		bl	lv_memset
 2085              	.LVL200:
 2086              		.loc 2 75 5 is_stmt 0 view .LVU587
 2087              	.LBE21:
 2088              	.LBE20:
 207:../../Middlewares/LVGL/GUI/lvgl/src/draw/lv_draw_buf.c ****     }
 2089              		.loc 1 207 9 is_stmt 1 view .LVU588
 207:../../Middlewares/LVGL/GUI/lvgl/src/draw/lv_draw_buf.c ****     }
 2090              		.loc 1 207 13 is_stmt 0 view .LVU589
 2091 009a 4544     		add	r5, r5, r8
 2092              	.LVL201:
 205:../../Middlewares/LVGL/GUI/lvgl/src/draw/lv_draw_buf.c ****         lv_memzero(buf, line_length);
 2093              		.loc 1 205 47 is_stmt 1 discriminator 3 view .LVU590
 2094 009c 0136     		adds	r6, r6, #1
 2095              	.LVL202:
 2096              	.L155:
 205:../../Middlewares/LVGL/GUI/lvgl/src/draw/lv_draw_buf.c ****         lv_memzero(buf, line_length);
 2097              		.loc 1 205 29 discriminator 1 view .LVU591
 205:../../Middlewares/LVGL/GUI/lvgl/src/draw/lv_draw_buf.c ****         lv_memzero(buf, line_length);
 2098              		.loc 1 205 41 is_stmt 0 discriminator 1 view .LVU592
 2099 009e 039B     		ldr	r3, [sp, #12]
 205:../../Middlewares/LVGL/GUI/lvgl/src/draw/lv_draw_buf.c ****         lv_memzero(buf, line_length);
 2100              		.loc 1 205 29 discriminator 1 view .LVU593
 2101 00a0 B342     		cmp	r3, r6
 2102 00a2 F5DA     		bge	.L156
 209:../../Middlewares/LVGL/GUI/lvgl/src/draw/lv_draw_buf.c ****     LV_PROFILER_DRAW_END;
 2103              		.loc 1 209 5 is_stmt 1 view .LVU594
 2104 00a4 3946     		mov	r1, r7
 2105 00a6 2046     		mov	r0, r4
 2106 00a8 FFF7FEFF 		bl	lv_draw_buf_flush_cache
 2107              	.LVL203:
 210:../../Middlewares/LVGL/GUI/lvgl/src/draw/lv_draw_buf.c **** }
 2108              		.loc 1 210 25 view .LVU595
 2109 00ac BFE7     		b	.L150
 2110              		.cfi_endproc
 2111              	.LFE199:
 2113              		.section	.text.lv_draw_buf_copy,"ax",%progbits
 2114              		.align	1
 2115              		.global	lv_draw_buf_copy
 2116              		.syntax unified
 2117              		.thumb
 2118              		.thumb_func
 2120              	lv_draw_buf_copy:
 2121              	.LVL204:
 2122              	.LFB200:
 215:../../Middlewares/LVGL/GUI/lvgl/src/draw/lv_draw_buf.c ****     LV_PROFILER_DRAW_BEGIN;
 2123              		.loc 1 215 1 view -0
 2124              		.cfi_startproc
 2125              		@ args = 0, pretend = 0, frame = 0
 2126              		@ frame_needed = 0, uses_anonymous_args = 0
 215:../../Middlewares/LVGL/GUI/lvgl/src/draw/lv_draw_buf.c ****     LV_PROFILER_DRAW_BEGIN;
 2127              		.loc 1 215 1 is_stmt 0 view .LVU597
 2128 0000 2DE9F84F 		push	{r3, r4, r5, r6, r7, r8, r9, r10, fp, lr}
 2129              	.LCFI51:
 2130              		.cfi_def_cfa_offset 40
 2131              		.cfi_offset 3, -40
 2132              		.cfi_offset 4, -36
ARM GAS  C:\Users\28576\AppData\Local\Temp\ccjLWieG.s 			page 61


 2133              		.cfi_offset 5, -32
 2134              		.cfi_offset 6, -28
 2135              		.cfi_offset 7, -24
 2136              		.cfi_offset 8, -20
 2137              		.cfi_offset 9, -16
 2138              		.cfi_offset 10, -12
 2139              		.cfi_offset 11, -8
 2140              		.cfi_offset 14, -4
 2141 0004 1546     		mov	r5, r2
 2142 0006 1F46     		mov	r7, r3
 216:../../Middlewares/LVGL/GUI/lvgl/src/draw/lv_draw_buf.c ****     uint8_t * dest_bufc;
 2143              		.loc 1 216 27 is_stmt 1 view .LVU598
 217:../../Middlewares/LVGL/GUI/lvgl/src/draw/lv_draw_buf.c ****     uint8_t * src_bufc;
 2144              		.loc 1 217 5 view .LVU599
 218:../../Middlewares/LVGL/GUI/lvgl/src/draw/lv_draw_buf.c ****     int32_t line_width;
 2145              		.loc 1 218 5 view .LVU600
 219:../../Middlewares/LVGL/GUI/lvgl/src/draw/lv_draw_buf.c **** 
 2146              		.loc 1 219 5 view .LVU601
 222:../../Middlewares/LVGL/GUI/lvgl/src/draw/lv_draw_buf.c ****                          dest->header.cf, src->header.cf);
 2147              		.loc 1 222 5 view .LVU602
 222:../../Middlewares/LVGL/GUI/lvgl/src/draw/lv_draw_buf.c ****                          dest->header.cf, src->header.cf);
 2148              		.loc 1 222 5 view .LVU603
 2149 0008 4278     		ldrb	r2, [r0, #1]	@ zero_extendqisi2
 2150              	.LVL205:
 222:../../Middlewares/LVGL/GUI/lvgl/src/draw/lv_draw_buf.c ****                          dest->header.cf, src->header.cf);
 2151              		.loc 1 222 5 is_stmt 0 view .LVU604
 2152 000a 6B78     		ldrb	r3, [r5, #1]	@ zero_extendqisi2
 2153              	.LVL206:
 222:../../Middlewares/LVGL/GUI/lvgl/src/draw/lv_draw_buf.c ****                          dest->header.cf, src->header.cf);
 2154              		.loc 1 222 5 view .LVU605
 2155 000c 9A42     		cmp	r2, r3
 2156 000e 00D0     		beq	.L163
 2157              	.L164:
 222:../../Middlewares/LVGL/GUI/lvgl/src/draw/lv_draw_buf.c ****                          dest->header.cf, src->header.cf);
 2158              		.loc 1 222 5 is_stmt 1 view .LVU606
 222:../../Middlewares/LVGL/GUI/lvgl/src/draw/lv_draw_buf.c ****                          dest->header.cf, src->header.cf);
 2159              		.loc 1 222 5 view .LVU607
 222:../../Middlewares/LVGL/GUI/lvgl/src/draw/lv_draw_buf.c ****                          dest->header.cf, src->header.cf);
 2160              		.loc 1 222 5 view .LVU608
 222:../../Middlewares/LVGL/GUI/lvgl/src/draw/lv_draw_buf.c ****                          dest->header.cf, src->header.cf);
 2161              		.loc 1 222 5 view .LVU609
 222:../../Middlewares/LVGL/GUI/lvgl/src/draw/lv_draw_buf.c ****                          dest->header.cf, src->header.cf);
 2162              		.loc 1 222 5 view .LVU610
 2163 0010 FEE7     		b	.L164
 2164              	.L163:
 2165 0012 0446     		mov	r4, r0
 2166 0014 0E46     		mov	r6, r1
 222:../../Middlewares/LVGL/GUI/lvgl/src/draw/lv_draw_buf.c ****                          dest->header.cf, src->header.cf);
 2167              		.loc 1 222 5 view .LVU611
 225:../../Middlewares/LVGL/GUI/lvgl/src/draw/lv_draw_buf.c ****     else line_width = lv_area_get_width(dest_area);
 2168              		.loc 1 225 5 view .LVU612
 225:../../Middlewares/LVGL/GUI/lvgl/src/draw/lv_draw_buf.c ****     else line_width = lv_area_get_width(dest_area);
 2169              		.loc 1 225 7 is_stmt 0 view .LVU613
 2170 0016 C1B1     		cbz	r1, .L184
 226:../../Middlewares/LVGL/GUI/lvgl/src/draw/lv_draw_buf.c **** 
 2171              		.loc 1 226 10 is_stmt 1 view .LVU614
 226:../../Middlewares/LVGL/GUI/lvgl/src/draw/lv_draw_buf.c **** 
ARM GAS  C:\Users\28576\AppData\Local\Temp\ccjLWieG.s 			page 62


 2172              		.loc 1 226 23 is_stmt 0 view .LVU615
 2173 0018 0846     		mov	r0, r1
 2174              	.LVL207:
 226:../../Middlewares/LVGL/GUI/lvgl/src/draw/lv_draw_buf.c **** 
 2175              		.loc 1 226 23 view .LVU616
 2176 001a FFF7FEFF 		bl	lv_area_get_width
 2177              	.LVL208:
 226:../../Middlewares/LVGL/GUI/lvgl/src/draw/lv_draw_buf.c **** 
 2178              		.loc 1 226 23 view .LVU617
 2179 001e 8346     		mov	fp, r0
 2180              	.L166:
 2181              	.LVL209:
 229:../../Middlewares/LVGL/GUI/lvgl/src/draw/lv_draw_buf.c ****         if(LV_COLOR_FORMAT_IS_INDEXED(dest->header.cf)) {
 2182              		.loc 1 229 5 is_stmt 1 view .LVU618
 229:../../Middlewares/LVGL/GUI/lvgl/src/draw/lv_draw_buf.c ****         if(LV_COLOR_FORMAT_IS_INDEXED(dest->header.cf)) {
 2183              		.loc 1 229 7 is_stmt 0 view .LVU619
 2184 0020 002F     		cmp	r7, #0
 2185 0022 18BF     		it	ne
 2186 0024 002E     		cmpne	r6, #0
 2187 0026 1DD1     		bne	.L167
 230:../../Middlewares/LVGL/GUI/lvgl/src/draw/lv_draw_buf.c ****             lv_memcpy(dest->data, src->data, LV_COLOR_INDEXED_PALETTE_SIZE(dest->header.cf) * sizeo
 2188              		.loc 1 230 9 is_stmt 1 view .LVU620
 230:../../Middlewares/LVGL/GUI/lvgl/src/draw/lv_draw_buf.c ****             lv_memcpy(dest->data, src->data, LV_COLOR_INDEXED_PALETTE_SIZE(dest->header.cf) * sizeo
 2189              		.loc 1 230 12 is_stmt 0 view .LVU621
 2190 0028 6378     		ldrb	r3, [r4, #1]	@ zero_extendqisi2
 2191 002a DA1F     		subs	r2, r3, #7
 2192 002c D2B2     		uxtb	r2, r2
 230:../../Middlewares/LVGL/GUI/lvgl/src/draw/lv_draw_buf.c ****             lv_memcpy(dest->data, src->data, LV_COLOR_INDEXED_PALETTE_SIZE(dest->header.cf) * sizeo
 2193              		.loc 1 230 11 view .LVU622
 2194 002e 032A     		cmp	r2, #3
 2195 0030 14D8     		bhi	.L168
 231:../../Middlewares/LVGL/GUI/lvgl/src/draw/lv_draw_buf.c ****         }
 2196              		.loc 1 231 13 is_stmt 1 view .LVU623
 231:../../Middlewares/LVGL/GUI/lvgl/src/draw/lv_draw_buf.c ****         }
 2197              		.loc 1 231 27 is_stmt 0 view .LVU624
 2198 0032 2069     		ldr	r0, [r4, #16]
 231:../../Middlewares/LVGL/GUI/lvgl/src/draw/lv_draw_buf.c ****         }
 2199              		.loc 1 231 38 view .LVU625
 2200 0034 2969     		ldr	r1, [r5, #16]
 231:../../Middlewares/LVGL/GUI/lvgl/src/draw/lv_draw_buf.c ****         }
 2201              		.loc 1 231 13 view .LVU626
 2202 0036 072B     		cmp	r3, #7
 2203 0038 0DD0     		beq	.L179
 231:../../Middlewares/LVGL/GUI/lvgl/src/draw/lv_draw_buf.c ****         }
 2204              		.loc 1 231 93 discriminator 1 view .LVU627
 2205 003a 082B     		cmp	r3, #8
 2206 003c 19D0     		beq	.L180
 231:../../Middlewares/LVGL/GUI/lvgl/src/draw/lv_draw_buf.c ****         }
 2207              		.loc 1 231 93 discriminator 3 view .LVU628
 2208 003e 092B     		cmp	r3, #9
 2209 0040 19D0     		beq	.L181
 231:../../Middlewares/LVGL/GUI/lvgl/src/draw/lv_draw_buf.c ****         }
 2210              		.loc 1 231 93 discriminator 5 view .LVU629
 2211 0042 0A2B     		cmp	r3, #10
 2212 0044 04D0     		beq	.L185
 231:../../Middlewares/LVGL/GUI/lvgl/src/draw/lv_draw_buf.c ****         }
 2213              		.loc 1 231 13 discriminator 8 view .LVU630
ARM GAS  C:\Users\28576\AppData\Local\Temp\ccjLWieG.s 			page 63


 2214 0046 0022     		movs	r2, #0
 2215 0048 06E0     		b	.L169
 2216              	.LVL210:
 2217              	.L184:
 225:../../Middlewares/LVGL/GUI/lvgl/src/draw/lv_draw_buf.c ****     else line_width = lv_area_get_width(dest_area);
 2218              		.loc 1 225 27 is_stmt 1 discriminator 1 view .LVU631
 225:../../Middlewares/LVGL/GUI/lvgl/src/draw/lv_draw_buf.c ****     else line_width = lv_area_get_width(dest_area);
 2219              		.loc 1 225 52 is_stmt 0 discriminator 1 view .LVU632
 2220 004a 8388     		ldrh	r3, [r0, #4]
 2221 004c 9B46     		mov	fp, r3
 2222              	.LVL211:
 225:../../Middlewares/LVGL/GUI/lvgl/src/draw/lv_draw_buf.c ****     else line_width = lv_area_get_width(dest_area);
 2223              		.loc 1 225 52 discriminator 1 view .LVU633
 2224 004e E7E7     		b	.L166
 2225              	.LVL212:
 2226              	.L185:
 231:../../Middlewares/LVGL/GUI/lvgl/src/draw/lv_draw_buf.c ****         }
 2227              		.loc 1 231 13 discriminator 7 view .LVU634
 2228 0050 4FF48062 		mov	r2, #1024
 2229 0054 00E0     		b	.L169
 2230              	.L179:
 231:../../Middlewares/LVGL/GUI/lvgl/src/draw/lv_draw_buf.c ****         }
 2231              		.loc 1 231 13 discriminator 2 view .LVU635
 2232 0056 0822     		movs	r2, #8
 2233              	.L169:
 231:../../Middlewares/LVGL/GUI/lvgl/src/draw/lv_draw_buf.c ****         }
 2234              		.loc 1 231 13 discriminator 9 view .LVU636
 2235 0058 FFF7FEFF 		bl	lv_memcpy
 2236              	.LVL213:
 2237              	.L168:
 236:../../Middlewares/LVGL/GUI/lvgl/src/draw/lv_draw_buf.c ****        (src_area != NULL && line_width != lv_area_get_width(src_area))) {
 2238              		.loc 1 236 5 is_stmt 1 view .LVU637
 236:../../Middlewares/LVGL/GUI/lvgl/src/draw/lv_draw_buf.c ****        (src_area != NULL && line_width != lv_area_get_width(src_area))) {
 2239              		.loc 1 236 7 is_stmt 0 view .LVU638
 2240 005c 1FB9     		cbnz	r7, .L170
 236:../../Middlewares/LVGL/GUI/lvgl/src/draw/lv_draw_buf.c ****        (src_area != NULL && line_width != lv_area_get_width(src_area))) {
 2241              		.loc 1 236 54 discriminator 1 view .LVU639
 2242 005e AB88     		ldrh	r3, [r5, #4]
 236:../../Middlewares/LVGL/GUI/lvgl/src/draw/lv_draw_buf.c ****        (src_area != NULL && line_width != lv_area_get_width(src_area))) {
 2243              		.loc 1 236 26 discriminator 1 view .LVU640
 2244 0060 5B45     		cmp	r3, fp
 2245 0062 05D1     		bne	.L171
 2246              	.L167:
 236:../../Middlewares/LVGL/GUI/lvgl/src/draw/lv_draw_buf.c ****        (src_area != NULL && line_width != lv_area_get_width(src_area))) {
 2247              		.loc 1 236 58 discriminator 3 view .LVU641
 2248 0064 8FB1     		cbz	r7, .L172
 2249              	.L170:
 237:../../Middlewares/LVGL/GUI/lvgl/src/draw/lv_draw_buf.c ****         LV_ASSERT_MSG(0, "Source and destination areas have different width");
 2250              		.loc 1 237 43 view .LVU642
 2251 0066 3846     		mov	r0, r7
 2252 0068 FFF7FEFF 		bl	lv_area_get_width
 2253              	.LVL214:
 237:../../Middlewares/LVGL/GUI/lvgl/src/draw/lv_draw_buf.c ****         LV_ASSERT_MSG(0, "Source and destination areas have different width");
 2254              		.loc 1 237 26 discriminator 1 view .LVU643
 2255 006c 5845     		cmp	r0, fp
 2256 006e 04D0     		beq	.L173
 2257              	.L171:
ARM GAS  C:\Users\28576\AppData\Local\Temp\ccjLWieG.s 			page 64


 238:../../Middlewares/LVGL/GUI/lvgl/src/draw/lv_draw_buf.c ****         LV_PROFILER_DRAW_END;
 2258              		.loc 1 238 9 is_stmt 1 view .LVU644
 238:../../Middlewares/LVGL/GUI/lvgl/src/draw/lv_draw_buf.c ****         LV_PROFILER_DRAW_END;
 2259              		.loc 1 238 9 view .LVU645
 238:../../Middlewares/LVGL/GUI/lvgl/src/draw/lv_draw_buf.c ****         LV_PROFILER_DRAW_END;
 2260              		.loc 1 238 9 view .LVU646
 238:../../Middlewares/LVGL/GUI/lvgl/src/draw/lv_draw_buf.c ****         LV_PROFILER_DRAW_END;
 2261              		.loc 1 238 9 view .LVU647
 238:../../Middlewares/LVGL/GUI/lvgl/src/draw/lv_draw_buf.c ****         LV_PROFILER_DRAW_END;
 2262              		.loc 1 238 9 view .LVU648
 2263 0070 FEE7     		b	.L171
 2264              	.L180:
 231:../../Middlewares/LVGL/GUI/lvgl/src/draw/lv_draw_buf.c ****         }
 2265              		.loc 1 231 13 is_stmt 0 discriminator 4 view .LVU649
 2266 0072 1022     		movs	r2, #16
 2267 0074 F0E7     		b	.L169
 2268              	.L181:
 231:../../Middlewares/LVGL/GUI/lvgl/src/draw/lv_draw_buf.c ****         }
 2269              		.loc 1 231 13 discriminator 6 view .LVU650
 2270 0076 4022     		movs	r2, #64
 2271 0078 EEE7     		b	.L169
 2272              	.L173:
 243:../../Middlewares/LVGL/GUI/lvgl/src/draw/lv_draw_buf.c ****     else src_bufc = lv_draw_buf_goto_xy(src, 0, 0);
 2273              		.loc 1 243 5 is_stmt 1 view .LVU651
 243:../../Middlewares/LVGL/GUI/lvgl/src/draw/lv_draw_buf.c ****     else src_bufc = lv_draw_buf_goto_xy(src, 0, 0);
 2274              		.loc 1 243 7 is_stmt 0 view .LVU652
 2275 007a 37B1     		cbz	r7, .L172
 243:../../Middlewares/LVGL/GUI/lvgl/src/draw/lv_draw_buf.c ****     else src_bufc = lv_draw_buf_goto_xy(src, 0, 0);
 2276              		.loc 1 243 18 is_stmt 1 discriminator 1 view .LVU653
 243:../../Middlewares/LVGL/GUI/lvgl/src/draw/lv_draw_buf.c ****     else src_bufc = lv_draw_buf_goto_xy(src, 0, 0);
 2277              		.loc 1 243 29 is_stmt 0 discriminator 1 view .LVU654
 2278 007c 7A68     		ldr	r2, [r7, #4]
 2279 007e 3968     		ldr	r1, [r7]
 2280 0080 2846     		mov	r0, r5
 2281 0082 FFF7FEFF 		bl	lv_draw_buf_goto_xy
 2282              	.LVL215:
 2283 0086 8046     		mov	r8, r0
 2284              	.LVL216:
 243:../../Middlewares/LVGL/GUI/lvgl/src/draw/lv_draw_buf.c ****     else src_bufc = lv_draw_buf_goto_xy(src, 0, 0);
 2285              		.loc 1 243 29 discriminator 1 view .LVU655
 2286 0088 05E0     		b	.L174
 2287              	.LVL217:
 2288              	.L172:
 244:../../Middlewares/LVGL/GUI/lvgl/src/draw/lv_draw_buf.c **** 
 2289              		.loc 1 244 10 is_stmt 1 view .LVU656
 244:../../Middlewares/LVGL/GUI/lvgl/src/draw/lv_draw_buf.c **** 
 2290              		.loc 1 244 21 is_stmt 0 view .LVU657
 2291 008a 3A46     		mov	r2, r7
 2292 008c 3946     		mov	r1, r7
 2293 008e 2846     		mov	r0, r5
 2294 0090 FFF7FEFF 		bl	lv_draw_buf_goto_xy
 2295              	.LVL218:
 2296 0094 8046     		mov	r8, r0
 2297              	.L174:
 2298              	.LVL219:
 246:../../Middlewares/LVGL/GUI/lvgl/src/draw/lv_draw_buf.c ****     else dest_bufc = lv_draw_buf_goto_xy(dest, 0, 0);
 2299              		.loc 1 246 5 is_stmt 1 view .LVU658
ARM GAS  C:\Users\28576\AppData\Local\Temp\ccjLWieG.s 			page 65


 246:../../Middlewares/LVGL/GUI/lvgl/src/draw/lv_draw_buf.c ****     else dest_bufc = lv_draw_buf_goto_xy(dest, 0, 0);
 2300              		.loc 1 246 7 is_stmt 0 view .LVU659
 2301 0096 A6B1     		cbz	r6, .L175
 246:../../Middlewares/LVGL/GUI/lvgl/src/draw/lv_draw_buf.c ****     else dest_bufc = lv_draw_buf_goto_xy(dest, 0, 0);
 2302              		.loc 1 246 19 is_stmt 1 discriminator 1 view .LVU660
 246:../../Middlewares/LVGL/GUI/lvgl/src/draw/lv_draw_buf.c ****     else dest_bufc = lv_draw_buf_goto_xy(dest, 0, 0);
 2303              		.loc 1 246 31 is_stmt 0 discriminator 1 view .LVU661
 2304 0098 7268     		ldr	r2, [r6, #4]
 2305 009a 3168     		ldr	r1, [r6]
 2306 009c 2046     		mov	r0, r4
 2307 009e FFF7FEFF 		bl	lv_draw_buf_goto_xy
 2308              	.LVL220:
 2309 00a2 0746     		mov	r7, r0
 2310              	.LVL221:
 249:../../Middlewares/LVGL/GUI/lvgl/src/draw/lv_draw_buf.c ****     if(dest_area) {
 2311              		.loc 1 249 5 is_stmt 1 view .LVU662
 250:../../Middlewares/LVGL/GUI/lvgl/src/draw/lv_draw_buf.c ****         start_y = dest_area->y1;
 2312              		.loc 1 250 5 view .LVU663
 251:../../Middlewares/LVGL/GUI/lvgl/src/draw/lv_draw_buf.c ****         end_y = dest_area->y2;
 2313              		.loc 1 251 9 view .LVU664
 251:../../Middlewares/LVGL/GUI/lvgl/src/draw/lv_draw_buf.c ****         end_y = dest_area->y2;
 2314              		.loc 1 251 17 is_stmt 0 view .LVU665
 2315 00a4 D6F80490 		ldr	r9, [r6, #4]
 2316              	.LVL222:
 252:../../Middlewares/LVGL/GUI/lvgl/src/draw/lv_draw_buf.c ****     }
 2317              		.loc 1 252 9 is_stmt 1 view .LVU666
 252:../../Middlewares/LVGL/GUI/lvgl/src/draw/lv_draw_buf.c ****     }
 2318              		.loc 1 252 15 is_stmt 0 view .LVU667
 2319 00a8 F668     		ldr	r6, [r6, #12]
 2320              	.LVL223:
 2321              	.L176:
 259:../../Middlewares/LVGL/GUI/lvgl/src/draw/lv_draw_buf.c ****     uint32_t src_stride = src->header.stride;
 2322              		.loc 1 259 5 is_stmt 1 view .LVU668
 259:../../Middlewares/LVGL/GUI/lvgl/src/draw/lv_draw_buf.c ****     uint32_t src_stride = src->header.stride;
 2323              		.loc 1 259 40 is_stmt 0 view .LVU669
 2324 00aa B4F808A0 		ldrh	r10, [r4, #8]
 2325              	.LVL224:
 260:../../Middlewares/LVGL/GUI/lvgl/src/draw/lv_draw_buf.c ****     uint32_t line_bytes = (line_width * lv_color_format_get_bpp(dest->header.cf) + 7) >> 3;
 2326              		.loc 1 260 5 is_stmt 1 view .LVU670
 260:../../Middlewares/LVGL/GUI/lvgl/src/draw/lv_draw_buf.c ****     uint32_t line_bytes = (line_width * lv_color_format_get_bpp(dest->header.cf) + 7) >> 3;
 2327              		.loc 1 260 38 is_stmt 0 view .LVU671
 2328 00ae 2D89     		ldrh	r5, [r5, #8]
 2329              	.LVL225:
 261:../../Middlewares/LVGL/GUI/lvgl/src/draw/lv_draw_buf.c **** 
 2330              		.loc 1 261 5 is_stmt 1 view .LVU672
 261:../../Middlewares/LVGL/GUI/lvgl/src/draw/lv_draw_buf.c **** 
 2331              		.loc 1 261 41 is_stmt 0 view .LVU673
 2332 00b0 6078     		ldrb	r0, [r4, #1]	@ zero_extendqisi2
 2333              	.LVL226:
 261:../../Middlewares/LVGL/GUI/lvgl/src/draw/lv_draw_buf.c **** 
 2334              		.loc 1 261 41 view .LVU674
 2335 00b2 FFF7FEFF 		bl	lv_color_format_get_bpp
 2336              	.LVL227:
 261:../../Middlewares/LVGL/GUI/lvgl/src/draw/lv_draw_buf.c **** 
 2337              		.loc 1 261 39 discriminator 1 view .LVU675
 2338 00b6 5C46     		mov	r4, fp
 2339              	.LVL228:
ARM GAS  C:\Users\28576\AppData\Local\Temp\ccjLWieG.s 			page 66


 261:../../Middlewares/LVGL/GUI/lvgl/src/draw/lv_draw_buf.c **** 
 2340              		.loc 1 261 39 discriminator 1 view .LVU676
 2341 00b8 00FB04F4 		mul	r4, r0, r4
 261:../../Middlewares/LVGL/GUI/lvgl/src/draw/lv_draw_buf.c **** 
 2342              		.loc 1 261 82 discriminator 1 view .LVU677
 2343 00bc 0734     		adds	r4, r4, #7
 261:../../Middlewares/LVGL/GUI/lvgl/src/draw/lv_draw_buf.c **** 
 2344              		.loc 1 261 87 discriminator 1 view .LVU678
 2345 00be E410     		asrs	r4, r4, #3
 2346              	.LVL229:
 263:../../Middlewares/LVGL/GUI/lvgl/src/draw/lv_draw_buf.c ****         lv_memcpy(dest_bufc, src_bufc, line_bytes);
 2347              		.loc 1 263 5 is_stmt 1 view .LVU679
 2348 00c0 13E0     		b	.L177
 2349              	.LVL230:
 2350              	.L175:
 247:../../Middlewares/LVGL/GUI/lvgl/src/draw/lv_draw_buf.c **** 
 2351              		.loc 1 247 10 view .LVU680
 247:../../Middlewares/LVGL/GUI/lvgl/src/draw/lv_draw_buf.c **** 
 2352              		.loc 1 247 22 is_stmt 0 view .LVU681
 2353 00c2 3246     		mov	r2, r6
 2354 00c4 3146     		mov	r1, r6
 2355 00c6 2046     		mov	r0, r4
 2356 00c8 FFF7FEFF 		bl	lv_draw_buf_goto_xy
 2357              	.LVL231:
 2358 00cc 0746     		mov	r7, r0
 2359              	.LVL232:
 249:../../Middlewares/LVGL/GUI/lvgl/src/draw/lv_draw_buf.c ****     if(dest_area) {
 2360              		.loc 1 249 5 is_stmt 1 view .LVU682
 250:../../Middlewares/LVGL/GUI/lvgl/src/draw/lv_draw_buf.c ****         start_y = dest_area->y1;
 2361              		.loc 1 250 5 view .LVU683
 255:../../Middlewares/LVGL/GUI/lvgl/src/draw/lv_draw_buf.c ****         end_y = dest->header.h - 1;
 2362              		.loc 1 255 9 view .LVU684
 256:../../Middlewares/LVGL/GUI/lvgl/src/draw/lv_draw_buf.c ****     }
 2363              		.loc 1 256 9 view .LVU685
 256:../../Middlewares/LVGL/GUI/lvgl/src/draw/lv_draw_buf.c ****     }
 2364              		.loc 1 256 29 is_stmt 0 view .LVU686
 2365 00ce E688     		ldrh	r6, [r4, #6]
 2366              	.LVL233:
 256:../../Middlewares/LVGL/GUI/lvgl/src/draw/lv_draw_buf.c ****     }
 2367              		.loc 1 256 15 view .LVU687
 2368 00d0 013E     		subs	r6, r6, #1
 2369              	.LVL234:
 255:../../Middlewares/LVGL/GUI/lvgl/src/draw/lv_draw_buf.c ****         end_y = dest->header.h - 1;
 2370              		.loc 1 255 17 view .LVU688
 2371 00d2 4FF00009 		mov	r9, #0
 2372 00d6 E8E7     		b	.L176
 2373              	.LVL235:
 2374              	.L178:
 264:../../Middlewares/LVGL/GUI/lvgl/src/draw/lv_draw_buf.c ****         dest_bufc += dest_stride;
 2375              		.loc 1 264 9 is_stmt 1 view .LVU689
 2376 00d8 2246     		mov	r2, r4
 2377 00da 4146     		mov	r1, r8
 2378 00dc 3846     		mov	r0, r7
 2379 00de FFF7FEFF 		bl	lv_memcpy
 2380              	.LVL236:
 265:../../Middlewares/LVGL/GUI/lvgl/src/draw/lv_draw_buf.c ****         src_bufc += src_stride;
 2381              		.loc 1 265 9 view .LVU690
ARM GAS  C:\Users\28576\AppData\Local\Temp\ccjLWieG.s 			page 67


 265:../../Middlewares/LVGL/GUI/lvgl/src/draw/lv_draw_buf.c ****         src_bufc += src_stride;
 2382              		.loc 1 265 19 is_stmt 0 view .LVU691
 2383 00e2 5744     		add	r7, r7, r10
 2384              	.LVL237:
 266:../../Middlewares/LVGL/GUI/lvgl/src/draw/lv_draw_buf.c ****     }
 2385              		.loc 1 266 9 is_stmt 1 view .LVU692
 266:../../Middlewares/LVGL/GUI/lvgl/src/draw/lv_draw_buf.c ****     }
 2386              		.loc 1 266 18 is_stmt 0 view .LVU693
 2387 00e4 A844     		add	r8, r8, r5
 2388              	.LVL238:
 263:../../Middlewares/LVGL/GUI/lvgl/src/draw/lv_draw_buf.c ****         lv_memcpy(dest_bufc, src_bufc, line_bytes);
 2389              		.loc 1 263 36 is_stmt 1 discriminator 2 view .LVU694
 2390 00e6 09F10109 		add	r9, r9, #1
 2391              	.LVL239:
 2392              	.L177:
 263:../../Middlewares/LVGL/GUI/lvgl/src/draw/lv_draw_buf.c ****         lv_memcpy(dest_bufc, src_bufc, line_bytes);
 2393              		.loc 1 263 19 discriminator 1 view .LVU695
 2394 00ea B145     		cmp	r9, r6
 2395 00ec F4DD     		ble	.L178
 269:../../Middlewares/LVGL/GUI/lvgl/src/draw/lv_draw_buf.c **** 
 2396              		.loc 1 269 1 is_stmt 0 view .LVU696
 2397 00ee BDE8F88F 		pop	{r3, r4, r5, r6, r7, r8, r9, r10, fp, pc}
 269:../../Middlewares/LVGL/GUI/lvgl/src/draw/lv_draw_buf.c **** 
 2398              		.loc 1 269 1 view .LVU697
 2399              		.cfi_endproc
 2400              	.LFE200:
 2402              		.section	.text.lv_draw_buf_premultiply,"ax",%progbits
 2403              		.align	1
 2404              		.global	lv_draw_buf_premultiply
 2405              		.syntax unified
 2406              		.thumb
 2407              		.thumb_func
 2409              	lv_draw_buf_premultiply:
 2410              	.LVL240:
 2411              	.LFB210:
 507:../../Middlewares/LVGL/GUI/lvgl/src/draw/lv_draw_buf.c ****     LV_ASSERT_NULL(draw_buf);
 2412              		.loc 1 507 1 is_stmt 1 view -0
 2413              		.cfi_startproc
 2414              		@ args = 0, pretend = 0, frame = 8
 2415              		@ frame_needed = 0, uses_anonymous_args = 0
 508:../../Middlewares/LVGL/GUI/lvgl/src/draw/lv_draw_buf.c ****     if(draw_buf == NULL) return LV_RESULT_INVALID;
 2416              		.loc 1 508 5 view .LVU699
 508:../../Middlewares/LVGL/GUI/lvgl/src/draw/lv_draw_buf.c ****     if(draw_buf == NULL) return LV_RESULT_INVALID;
 2417              		.loc 1 508 5 view .LVU700
 2418 0000 D8B1     		cbz	r0, .L188
 507:../../Middlewares/LVGL/GUI/lvgl/src/draw/lv_draw_buf.c ****     LV_ASSERT_NULL(draw_buf);
 2419              		.loc 1 507 1 is_stmt 0 view .LVU701
 2420 0002 2DE9F04F 		push	{r4, r5, r6, r7, r8, r9, r10, fp, lr}
 2421              	.LCFI52:
 2422              		.cfi_def_cfa_offset 36
 2423              		.cfi_offset 4, -36
 2424              		.cfi_offset 5, -32
 2425              		.cfi_offset 6, -28
 2426              		.cfi_offset 7, -24
 2427              		.cfi_offset 8, -20
 2428              		.cfi_offset 9, -16
 2429              		.cfi_offset 10, -12
ARM GAS  C:\Users\28576\AppData\Local\Temp\ccjLWieG.s 			page 68


 2430              		.cfi_offset 11, -8
 2431              		.cfi_offset 14, -4
 2432 0006 83B0     		sub	sp, sp, #12
 2433              	.LCFI53:
 2434              		.cfi_def_cfa_offset 48
 2435 0008 0646     		mov	r6, r0
 508:../../Middlewares/LVGL/GUI/lvgl/src/draw/lv_draw_buf.c ****     if(draw_buf == NULL) return LV_RESULT_INVALID;
 2436              		.loc 1 508 5 is_stmt 1 view .LVU702
 508:../../Middlewares/LVGL/GUI/lvgl/src/draw/lv_draw_buf.c ****     if(draw_buf == NULL) return LV_RESULT_INVALID;
 2437              		.loc 1 508 29 view .LVU703
 509:../../Middlewares/LVGL/GUI/lvgl/src/draw/lv_draw_buf.c **** 
 2438              		.loc 1 509 5 view .LVU704
 511:../../Middlewares/LVGL/GUI/lvgl/src/draw/lv_draw_buf.c ****     if((draw_buf->header.flags & LV_IMAGE_FLAGS_MODIFIABLE) == 0) {
 2439              		.loc 1 511 5 view .LVU705
 511:../../Middlewares/LVGL/GUI/lvgl/src/draw/lv_draw_buf.c ****     if((draw_buf->header.flags & LV_IMAGE_FLAGS_MODIFIABLE) == 0) {
 2440              		.loc 1 511 24 is_stmt 0 view .LVU706
 2441 000a 4388     		ldrh	r3, [r0, #2]
 511:../../Middlewares/LVGL/GUI/lvgl/src/draw/lv_draw_buf.c ****     if((draw_buf->header.flags & LV_IMAGE_FLAGS_MODIFIABLE) == 0) {
 2442              		.loc 1 511 7 view .LVU707
 2443 000c 13F0010F 		tst	r3, #1
 2444 0010 40F09080 		bne	.L206
 512:../../Middlewares/LVGL/GUI/lvgl/src/draw/lv_draw_buf.c ****         LV_LOG_WARN("draw buf is not modifiable: 0x%04x", draw_buf->header.flags);
 2445              		.loc 1 512 5 is_stmt 1 view .LVU708
 512:../../Middlewares/LVGL/GUI/lvgl/src/draw/lv_draw_buf.c ****         LV_LOG_WARN("draw buf is not modifiable: 0x%04x", draw_buf->header.flags);
 2446              		.loc 1 512 7 is_stmt 0 view .LVU709
 2447 0014 13F0200F 		tst	r3, #32
 2448 0018 00F08E80 		beq	.L207
 516:../../Middlewares/LVGL/GUI/lvgl/src/draw/lv_draw_buf.c **** 
 2449              		.loc 1 516 27 is_stmt 1 view .LVU710
 519:../../Middlewares/LVGL/GUI/lvgl/src/draw/lv_draw_buf.c ****     if(LV_COLOR_FORMAT_IS_INDEXED(cf)) {
 2450              		.loc 1 519 5 view .LVU711
 519:../../Middlewares/LVGL/GUI/lvgl/src/draw/lv_draw_buf.c ****     if(LV_COLOR_FORMAT_IS_INDEXED(cf)) {
 2451              		.loc 1 519 23 is_stmt 0 view .LVU712
 2452 001c 4378     		ldrb	r3, [r0, #1]	@ zero_extendqisi2
 2453              	.LVL241:
 520:../../Middlewares/LVGL/GUI/lvgl/src/draw/lv_draw_buf.c ****         int size = LV_COLOR_INDEXED_PALETTE_SIZE(cf);
 2454              		.loc 1 520 5 is_stmt 1 view .LVU713
 520:../../Middlewares/LVGL/GUI/lvgl/src/draw/lv_draw_buf.c ****         int size = LV_COLOR_INDEXED_PALETTE_SIZE(cf);
 2455              		.loc 1 520 8 is_stmt 0 view .LVU714
 2456 001e DA1F     		subs	r2, r3, #7
 2457 0020 D2B2     		uxtb	r2, r2
 520:../../Middlewares/LVGL/GUI/lvgl/src/draw/lv_draw_buf.c ****         int size = LV_COLOR_INDEXED_PALETTE_SIZE(cf);
 2458              		.loc 1 520 7 view .LVU715
 2459 0022 032A     		cmp	r2, #3
 2460 0024 24D8     		bhi	.L190
 2461              	.LBB22:
 521:../../Middlewares/LVGL/GUI/lvgl/src/draw/lv_draw_buf.c ****         lv_color32_t * palette = (lv_color32_t *)draw_buf->data;
 2462              		.loc 1 521 9 is_stmt 1 view .LVU716
 521:../../Middlewares/LVGL/GUI/lvgl/src/draw/lv_draw_buf.c ****         lv_color32_t * palette = (lv_color32_t *)draw_buf->data;
 2463              		.loc 1 521 20 is_stmt 0 view .LVU717
 2464 0026 072B     		cmp	r3, #7
 2465 0028 0BD0     		beq	.L208
 521:../../Middlewares/LVGL/GUI/lvgl/src/draw/lv_draw_buf.c ****         lv_color32_t * palette = (lv_color32_t *)draw_buf->data;
 2466              		.loc 1 521 20 discriminator 1 view .LVU718
 2467 002a 082B     		cmp	r3, #8
 2468 002c 0DD0     		beq	.L209
 521:../../Middlewares/LVGL/GUI/lvgl/src/draw/lv_draw_buf.c ****         lv_color32_t * palette = (lv_color32_t *)draw_buf->data;
ARM GAS  C:\Users\28576\AppData\Local\Temp\ccjLWieG.s 			page 69


 2469              		.loc 1 521 20 discriminator 3 view .LVU719
 2470 002e 092B     		cmp	r3, #9
 2471 0030 0DD0     		beq	.L210
 521:../../Middlewares/LVGL/GUI/lvgl/src/draw/lv_draw_buf.c ****         lv_color32_t * palette = (lv_color32_t *)draw_buf->data;
 2472              		.loc 1 521 20 discriminator 5 view .LVU720
 2473 0032 0A2B     		cmp	r3, #10
 2474 0034 02D0     		beq	.L217
 521:../../Middlewares/LVGL/GUI/lvgl/src/draw/lv_draw_buf.c ****         lv_color32_t * palette = (lv_color32_t *)draw_buf->data;
 2475              		.loc 1 521 13 discriminator 8 view .LVU721
 2476 0036 0025     		movs	r5, #0
 2477 0038 04E0     		b	.L191
 2478              	.LVL242:
 2479              	.L188:
 2480              	.LCFI54:
 2481              		.cfi_def_cfa_offset 0
 2482              		.cfi_restore 4
 2483              		.cfi_restore 5
 2484              		.cfi_restore 6
 2485              		.cfi_restore 7
 2486              		.cfi_restore 8
 2487              		.cfi_restore 9
 2488              		.cfi_restore 10
 2489              		.cfi_restore 11
 2490              		.cfi_restore 14
 521:../../Middlewares/LVGL/GUI/lvgl/src/draw/lv_draw_buf.c ****         lv_color32_t * palette = (lv_color32_t *)draw_buf->data;
 2491              		.loc 1 521 13 discriminator 8 view .LVU722
 2492              	.LBE22:
 508:../../Middlewares/LVGL/GUI/lvgl/src/draw/lv_draw_buf.c ****     if(draw_buf == NULL) return LV_RESULT_INVALID;
 2493              		.loc 1 508 5 is_stmt 1 view .LVU723
 508:../../Middlewares/LVGL/GUI/lvgl/src/draw/lv_draw_buf.c ****     if(draw_buf == NULL) return LV_RESULT_INVALID;
 2494              		.loc 1 508 5 view .LVU724
 508:../../Middlewares/LVGL/GUI/lvgl/src/draw/lv_draw_buf.c ****     if(draw_buf == NULL) return LV_RESULT_INVALID;
 2495              		.loc 1 508 5 view .LVU725
 508:../../Middlewares/LVGL/GUI/lvgl/src/draw/lv_draw_buf.c ****     if(draw_buf == NULL) return LV_RESULT_INVALID;
 2496              		.loc 1 508 5 view .LVU726
 508:../../Middlewares/LVGL/GUI/lvgl/src/draw/lv_draw_buf.c ****     if(draw_buf == NULL) return LV_RESULT_INVALID;
 2497              		.loc 1 508 5 view .LVU727
 2498 003a FEE7     		b	.L188
 2499              	.LVL243:
 2500              	.L217:
 2501              	.LCFI55:
 2502              		.cfi_def_cfa_offset 48
 2503              		.cfi_offset 4, -36
 2504              		.cfi_offset 5, -32
 2505              		.cfi_offset 6, -28
 2506              		.cfi_offset 7, -24
 2507              		.cfi_offset 8, -20
 2508              		.cfi_offset 9, -16
 2509              		.cfi_offset 10, -12
 2510              		.cfi_offset 11, -8
 2511              		.cfi_offset 14, -4
 2512              	.LBB25:
 521:../../Middlewares/LVGL/GUI/lvgl/src/draw/lv_draw_buf.c ****         lv_color32_t * palette = (lv_color32_t *)draw_buf->data;
 2513              		.loc 1 521 13 is_stmt 0 discriminator 7 view .LVU728
 2514 003c 4FF48075 		mov	r5, #256
 2515 0040 00E0     		b	.L191
 2516              	.L208:
ARM GAS  C:\Users\28576\AppData\Local\Temp\ccjLWieG.s 			page 70


 521:../../Middlewares/LVGL/GUI/lvgl/src/draw/lv_draw_buf.c ****         lv_color32_t * palette = (lv_color32_t *)draw_buf->data;
 2517              		.loc 1 521 13 discriminator 2 view .LVU729
 2518 0042 0225     		movs	r5, #2
 2519              	.L191:
 2520              	.LVL244:
 522:../../Middlewares/LVGL/GUI/lvgl/src/draw/lv_draw_buf.c ****         for(int i = 0; i < size; i++) {
 2521              		.loc 1 522 9 is_stmt 1 view .LVU730
 522:../../Middlewares/LVGL/GUI/lvgl/src/draw/lv_draw_buf.c ****         for(int i = 0; i < size; i++) {
 2522              		.loc 1 522 24 is_stmt 0 view .LVU731
 2523 0044 3769     		ldr	r7, [r6, #16]
 2524              	.LVL245:
 523:../../Middlewares/LVGL/GUI/lvgl/src/draw/lv_draw_buf.c ****             lv_color_premultiply(&palette[i]);
 2525              		.loc 1 523 9 is_stmt 1 view .LVU732
 2526              	.LBB23:
 523:../../Middlewares/LVGL/GUI/lvgl/src/draw/lv_draw_buf.c ****             lv_color_premultiply(&palette[i]);
 2527              		.loc 1 523 13 view .LVU733
 523:../../Middlewares/LVGL/GUI/lvgl/src/draw/lv_draw_buf.c ****             lv_color_premultiply(&palette[i]);
 2528              		.loc 1 523 17 is_stmt 0 view .LVU734
 2529 0046 0024     		movs	r4, #0
 523:../../Middlewares/LVGL/GUI/lvgl/src/draw/lv_draw_buf.c ****             lv_color_premultiply(&palette[i]);
 2530              		.loc 1 523 9 view .LVU735
 2531 0048 08E0     		b	.L192
 2532              	.LVL246:
 2533              	.L209:
 523:../../Middlewares/LVGL/GUI/lvgl/src/draw/lv_draw_buf.c ****             lv_color_premultiply(&palette[i]);
 2534              		.loc 1 523 9 view .LVU736
 2535              	.LBE23:
 521:../../Middlewares/LVGL/GUI/lvgl/src/draw/lv_draw_buf.c ****         lv_color32_t * palette = (lv_color32_t *)draw_buf->data;
 2536              		.loc 1 521 13 discriminator 4 view .LVU737
 2537 004a 0425     		movs	r5, #4
 2538 004c FAE7     		b	.L191
 2539              	.L210:
 521:../../Middlewares/LVGL/GUI/lvgl/src/draw/lv_draw_buf.c ****         lv_color32_t * palette = (lv_color32_t *)draw_buf->data;
 2540              		.loc 1 521 13 discriminator 6 view .LVU738
 2541 004e 1025     		movs	r5, #16
 2542 0050 F8E7     		b	.L191
 2543              	.LVL247:
 2544              	.L193:
 2545              	.LBB24:
 524:../../Middlewares/LVGL/GUI/lvgl/src/draw/lv_draw_buf.c ****         }
 2546              		.loc 1 524 13 is_stmt 1 view .LVU739
 2547 0052 07EB8400 		add	r0, r7, r4, lsl #2
 2548 0056 FFF7FEFF 		bl	lv_color_premultiply
 2549              	.LVL248:
