ARM GAS  C:\Users\28576\AppData\Local\Temp\cc59YylE.s 			page 1


   1              		.cpu cortex-m7
   2              		.arch armv7e-m
   3              		.fpu fpv5-d16
   4              		.eabi_attribute 28, 1
   5              		.eabi_attribute 20, 1
   6              		.eabi_attribute 21, 1
   7              		.eabi_attribute 23, 3
   8              		.eabi_attribute 24, 1
   9              		.eabi_attribute 25, 1
  10              		.eabi_attribute 26, 1
  11              		.eabi_attribute 30, 1
  12              		.eabi_attribute 34, 1
  13              		.eabi_attribute 18, 4
  14              		.file	"lv_draw.c"
  15              		.text
  16              	.Ltext0:
  17              		.cfi_sections	.debug_frame
  18              		.file 1 "../../Middlewares/LVGL/GUI/lvgl/src/draw/lv_draw.c"
  19              		.section	.text.get_draw_dsc_size,"ax",%progbits
  20              		.align	1
  21              		.syntax unified
  22              		.thumb
  23              		.thumb_func
  25              	get_draw_dsc_size:
  26              	.LVL0:
  27              	.LFB211:
   1:../../Middlewares/LVGL/GUI/lvgl/src/draw/lv_draw.c **** /**
   2:../../Middlewares/LVGL/GUI/lvgl/src/draw/lv_draw.c ****  * @file lv_draw.c
   3:../../Middlewares/LVGL/GUI/lvgl/src/draw/lv_draw.c ****  *
   4:../../Middlewares/LVGL/GUI/lvgl/src/draw/lv_draw.c ****  */
   5:../../Middlewares/LVGL/GUI/lvgl/src/draw/lv_draw.c **** 
   6:../../Middlewares/LVGL/GUI/lvgl/src/draw/lv_draw.c **** /**
   7:../../Middlewares/LVGL/GUI/lvgl/src/draw/lv_draw.c ****  * Modified by NXP in 2024
   8:../../Middlewares/LVGL/GUI/lvgl/src/draw/lv_draw.c ****  */
   9:../../Middlewares/LVGL/GUI/lvgl/src/draw/lv_draw.c **** 
  10:../../Middlewares/LVGL/GUI/lvgl/src/draw/lv_draw.c **** /*********************
  11:../../Middlewares/LVGL/GUI/lvgl/src/draw/lv_draw.c ****  *      INCLUDES
  12:../../Middlewares/LVGL/GUI/lvgl/src/draw/lv_draw.c ****  *********************/
  13:../../Middlewares/LVGL/GUI/lvgl/src/draw/lv_draw.c **** #include "../misc/lv_area_private.h"
  14:../../Middlewares/LVGL/GUI/lvgl/src/draw/lv_draw.c **** #include "../misc/lv_assert.h"
  15:../../Middlewares/LVGL/GUI/lvgl/src/draw/lv_draw.c **** #include "lv_draw_private.h"
  16:../../Middlewares/LVGL/GUI/lvgl/src/draw/lv_draw.c **** #include "lv_draw_mask_private.h"
  17:../../Middlewares/LVGL/GUI/lvgl/src/draw/lv_draw.c **** #include "lv_draw_vector_private.h"
  18:../../Middlewares/LVGL/GUI/lvgl/src/draw/lv_draw.c **** #include "lv_draw_3d.h"
  19:../../Middlewares/LVGL/GUI/lvgl/src/draw/lv_draw.c **** #include "sw/lv_draw_sw.h"
  20:../../Middlewares/LVGL/GUI/lvgl/src/draw/lv_draw.c **** #include "../display/lv_display_private.h"
  21:../../Middlewares/LVGL/GUI/lvgl/src/draw/lv_draw.c **** #include "../core/lv_global.h"
  22:../../Middlewares/LVGL/GUI/lvgl/src/draw/lv_draw.c **** #include "../core/lv_refr_private.h"
  23:../../Middlewares/LVGL/GUI/lvgl/src/draw/lv_draw.c **** #include "../stdlib/lv_string.h"
  24:../../Middlewares/LVGL/GUI/lvgl/src/draw/lv_draw.c **** 
  25:../../Middlewares/LVGL/GUI/lvgl/src/draw/lv_draw.c **** /*********************
  26:../../Middlewares/LVGL/GUI/lvgl/src/draw/lv_draw.c ****  *      DEFINES
  27:../../Middlewares/LVGL/GUI/lvgl/src/draw/lv_draw.c ****  *********************/
  28:../../Middlewares/LVGL/GUI/lvgl/src/draw/lv_draw.c **** #define _draw_info LV_GLOBAL_DEFAULT()->draw_info
  29:../../Middlewares/LVGL/GUI/lvgl/src/draw/lv_draw.c **** 
  30:../../Middlewares/LVGL/GUI/lvgl/src/draw/lv_draw.c **** /**********************
  31:../../Middlewares/LVGL/GUI/lvgl/src/draw/lv_draw.c ****  *      TYPEDEFS
ARM GAS  C:\Users\28576\AppData\Local\Temp\cc59YylE.s 			page 2


  32:../../Middlewares/LVGL/GUI/lvgl/src/draw/lv_draw.c ****  **********************/
  33:../../Middlewares/LVGL/GUI/lvgl/src/draw/lv_draw.c **** 
  34:../../Middlewares/LVGL/GUI/lvgl/src/draw/lv_draw.c **** /**********************
  35:../../Middlewares/LVGL/GUI/lvgl/src/draw/lv_draw.c ****  *  STATIC PROTOTYPES
  36:../../Middlewares/LVGL/GUI/lvgl/src/draw/lv_draw.c ****  **********************/
  37:../../Middlewares/LVGL/GUI/lvgl/src/draw/lv_draw.c **** static bool is_independent(lv_layer_t * layer, lv_draw_task_t * t_check);
  38:../../Middlewares/LVGL/GUI/lvgl/src/draw/lv_draw.c **** static void cleanup_task(lv_draw_task_t * t, lv_display_t * disp);
  39:../../Middlewares/LVGL/GUI/lvgl/src/draw/lv_draw.c **** static inline size_t get_draw_dsc_size(lv_draw_task_type_t type);
  40:../../Middlewares/LVGL/GUI/lvgl/src/draw/lv_draw.c **** static lv_draw_task_t * get_first_available_task(lv_layer_t * layer);
  41:../../Middlewares/LVGL/GUI/lvgl/src/draw/lv_draw.c **** 
  42:../../Middlewares/LVGL/GUI/lvgl/src/draw/lv_draw.c **** #if LV_LOG_LEVEL <= LV_LOG_LEVEL_INFO
  43:../../Middlewares/LVGL/GUI/lvgl/src/draw/lv_draw.c **** static inline uint32_t get_layer_size_kb(uint32_t size_byte)
  44:../../Middlewares/LVGL/GUI/lvgl/src/draw/lv_draw.c **** {
  45:../../Middlewares/LVGL/GUI/lvgl/src/draw/lv_draw.c ****     return (size_byte + 1023) >> 10;
  46:../../Middlewares/LVGL/GUI/lvgl/src/draw/lv_draw.c **** }
  47:../../Middlewares/LVGL/GUI/lvgl/src/draw/lv_draw.c **** #endif
  48:../../Middlewares/LVGL/GUI/lvgl/src/draw/lv_draw.c **** 
  49:../../Middlewares/LVGL/GUI/lvgl/src/draw/lv_draw.c **** /**********************
  50:../../Middlewares/LVGL/GUI/lvgl/src/draw/lv_draw.c ****  *  STATIC VARIABLES
  51:../../Middlewares/LVGL/GUI/lvgl/src/draw/lv_draw.c ****  **********************/
  52:../../Middlewares/LVGL/GUI/lvgl/src/draw/lv_draw.c **** 
  53:../../Middlewares/LVGL/GUI/lvgl/src/draw/lv_draw.c **** /**********************
  54:../../Middlewares/LVGL/GUI/lvgl/src/draw/lv_draw.c ****  *      MACROS
  55:../../Middlewares/LVGL/GUI/lvgl/src/draw/lv_draw.c ****  **********************/
  56:../../Middlewares/LVGL/GUI/lvgl/src/draw/lv_draw.c **** 
  57:../../Middlewares/LVGL/GUI/lvgl/src/draw/lv_draw.c **** /**********************
  58:../../Middlewares/LVGL/GUI/lvgl/src/draw/lv_draw.c ****  *   GLOBAL FUNCTIONS
  59:../../Middlewares/LVGL/GUI/lvgl/src/draw/lv_draw.c ****  **********************/
  60:../../Middlewares/LVGL/GUI/lvgl/src/draw/lv_draw.c **** 
  61:../../Middlewares/LVGL/GUI/lvgl/src/draw/lv_draw.c **** void lv_draw_init(void)
  62:../../Middlewares/LVGL/GUI/lvgl/src/draw/lv_draw.c **** {
  63:../../Middlewares/LVGL/GUI/lvgl/src/draw/lv_draw.c **** #if LV_USE_OS
  64:../../Middlewares/LVGL/GUI/lvgl/src/draw/lv_draw.c ****     lv_thread_sync_init(&_draw_info.sync);
  65:../../Middlewares/LVGL/GUI/lvgl/src/draw/lv_draw.c **** #endif
  66:../../Middlewares/LVGL/GUI/lvgl/src/draw/lv_draw.c **** }
  67:../../Middlewares/LVGL/GUI/lvgl/src/draw/lv_draw.c **** 
  68:../../Middlewares/LVGL/GUI/lvgl/src/draw/lv_draw.c **** void lv_draw_deinit(void)
  69:../../Middlewares/LVGL/GUI/lvgl/src/draw/lv_draw.c **** {
  70:../../Middlewares/LVGL/GUI/lvgl/src/draw/lv_draw.c **** #if LV_USE_OS
  71:../../Middlewares/LVGL/GUI/lvgl/src/draw/lv_draw.c ****     lv_thread_sync_delete(&_draw_info.sync);
  72:../../Middlewares/LVGL/GUI/lvgl/src/draw/lv_draw.c **** #endif
  73:../../Middlewares/LVGL/GUI/lvgl/src/draw/lv_draw.c **** 
  74:../../Middlewares/LVGL/GUI/lvgl/src/draw/lv_draw.c ****     lv_draw_unit_t * u = _draw_info.unit_head;
  75:../../Middlewares/LVGL/GUI/lvgl/src/draw/lv_draw.c ****     while(u) {
  76:../../Middlewares/LVGL/GUI/lvgl/src/draw/lv_draw.c ****         lv_draw_unit_t * cur_unit = u;
  77:../../Middlewares/LVGL/GUI/lvgl/src/draw/lv_draw.c ****         u = u->next;
  78:../../Middlewares/LVGL/GUI/lvgl/src/draw/lv_draw.c **** 
  79:../../Middlewares/LVGL/GUI/lvgl/src/draw/lv_draw.c ****         if(cur_unit->delete_cb) cur_unit->delete_cb(cur_unit);
  80:../../Middlewares/LVGL/GUI/lvgl/src/draw/lv_draw.c ****         lv_free(cur_unit);
  81:../../Middlewares/LVGL/GUI/lvgl/src/draw/lv_draw.c ****     }
  82:../../Middlewares/LVGL/GUI/lvgl/src/draw/lv_draw.c ****     _draw_info.unit_head = NULL;
  83:../../Middlewares/LVGL/GUI/lvgl/src/draw/lv_draw.c **** }
  84:../../Middlewares/LVGL/GUI/lvgl/src/draw/lv_draw.c **** 
  85:../../Middlewares/LVGL/GUI/lvgl/src/draw/lv_draw.c **** void * lv_draw_create_unit(size_t size)
  86:../../Middlewares/LVGL/GUI/lvgl/src/draw/lv_draw.c **** {
  87:../../Middlewares/LVGL/GUI/lvgl/src/draw/lv_draw.c ****     lv_draw_unit_t * new_unit = lv_malloc_zeroed(size);
  88:../../Middlewares/LVGL/GUI/lvgl/src/draw/lv_draw.c ****     LV_ASSERT_MALLOC(new_unit);
ARM GAS  C:\Users\28576\AppData\Local\Temp\cc59YylE.s 			page 3


  89:../../Middlewares/LVGL/GUI/lvgl/src/draw/lv_draw.c ****     new_unit->next = _draw_info.unit_head;
  90:../../Middlewares/LVGL/GUI/lvgl/src/draw/lv_draw.c **** 
  91:../../Middlewares/LVGL/GUI/lvgl/src/draw/lv_draw.c ****     _draw_info.unit_head = new_unit;
  92:../../Middlewares/LVGL/GUI/lvgl/src/draw/lv_draw.c ****     _draw_info.unit_cnt++;
  93:../../Middlewares/LVGL/GUI/lvgl/src/draw/lv_draw.c **** 
  94:../../Middlewares/LVGL/GUI/lvgl/src/draw/lv_draw.c ****     new_unit->idx = _draw_info.unit_cnt;
  95:../../Middlewares/LVGL/GUI/lvgl/src/draw/lv_draw.c **** 
  96:../../Middlewares/LVGL/GUI/lvgl/src/draw/lv_draw.c ****     return new_unit;
  97:../../Middlewares/LVGL/GUI/lvgl/src/draw/lv_draw.c **** }
  98:../../Middlewares/LVGL/GUI/lvgl/src/draw/lv_draw.c **** 
  99:../../Middlewares/LVGL/GUI/lvgl/src/draw/lv_draw.c **** lv_draw_task_t * lv_draw_add_task(lv_layer_t * layer, const lv_area_t * coords, lv_draw_task_type_t
 100:../../Middlewares/LVGL/GUI/lvgl/src/draw/lv_draw.c **** {
 101:../../Middlewares/LVGL/GUI/lvgl/src/draw/lv_draw.c ****     LV_PROFILER_DRAW_BEGIN;
 102:../../Middlewares/LVGL/GUI/lvgl/src/draw/lv_draw.c ****     size_t dsc_size = get_draw_dsc_size(type);
 103:../../Middlewares/LVGL/GUI/lvgl/src/draw/lv_draw.c ****     LV_ASSERT_FORMAT_MSG(dsc_size > 0, "Draw task size is 0 for type %d", type);
 104:../../Middlewares/LVGL/GUI/lvgl/src/draw/lv_draw.c ****     lv_draw_task_t * new_task = lv_malloc_zeroed(LV_ALIGN_UP(sizeof(lv_draw_task_t), 8) + dsc_size)
 105:../../Middlewares/LVGL/GUI/lvgl/src/draw/lv_draw.c ****     LV_ASSERT_MALLOC(new_task);
 106:../../Middlewares/LVGL/GUI/lvgl/src/draw/lv_draw.c ****     new_task->area = *coords;
 107:../../Middlewares/LVGL/GUI/lvgl/src/draw/lv_draw.c ****     new_task->_real_area = *coords;
 108:../../Middlewares/LVGL/GUI/lvgl/src/draw/lv_draw.c ****     new_task->target_layer = layer;
 109:../../Middlewares/LVGL/GUI/lvgl/src/draw/lv_draw.c ****     new_task->clip_area = layer->_clip_area;
 110:../../Middlewares/LVGL/GUI/lvgl/src/draw/lv_draw.c **** #if LV_DRAW_TRANSFORM_USE_MATRIX
 111:../../Middlewares/LVGL/GUI/lvgl/src/draw/lv_draw.c ****     new_task->matrix = layer->matrix;
 112:../../Middlewares/LVGL/GUI/lvgl/src/draw/lv_draw.c **** #endif
 113:../../Middlewares/LVGL/GUI/lvgl/src/draw/lv_draw.c ****     new_task->type = type;
 114:../../Middlewares/LVGL/GUI/lvgl/src/draw/lv_draw.c ****     new_task->draw_dsc = (uint8_t *)new_task + LV_ALIGN_UP(sizeof(lv_draw_task_t), 8);
 115:../../Middlewares/LVGL/GUI/lvgl/src/draw/lv_draw.c ****     new_task->state = LV_DRAW_TASK_STATE_QUEUED;
 116:../../Middlewares/LVGL/GUI/lvgl/src/draw/lv_draw.c **** 
 117:../../Middlewares/LVGL/GUI/lvgl/src/draw/lv_draw.c ****     /*Find the tail*/
 118:../../Middlewares/LVGL/GUI/lvgl/src/draw/lv_draw.c ****     if(layer->draw_task_head == NULL) {
 119:../../Middlewares/LVGL/GUI/lvgl/src/draw/lv_draw.c ****         layer->draw_task_head = new_task;
 120:../../Middlewares/LVGL/GUI/lvgl/src/draw/lv_draw.c ****     }
 121:../../Middlewares/LVGL/GUI/lvgl/src/draw/lv_draw.c ****     else {
 122:../../Middlewares/LVGL/GUI/lvgl/src/draw/lv_draw.c ****         lv_draw_task_t * tail = layer->draw_task_head;
 123:../../Middlewares/LVGL/GUI/lvgl/src/draw/lv_draw.c ****         while(tail->next) tail = tail->next;
 124:../../Middlewares/LVGL/GUI/lvgl/src/draw/lv_draw.c **** 
 125:../../Middlewares/LVGL/GUI/lvgl/src/draw/lv_draw.c ****         tail->next = new_task;
 126:../../Middlewares/LVGL/GUI/lvgl/src/draw/lv_draw.c ****     }
 127:../../Middlewares/LVGL/GUI/lvgl/src/draw/lv_draw.c **** 
 128:../../Middlewares/LVGL/GUI/lvgl/src/draw/lv_draw.c ****     LV_PROFILER_DRAW_END;
 129:../../Middlewares/LVGL/GUI/lvgl/src/draw/lv_draw.c ****     return new_task;
 130:../../Middlewares/LVGL/GUI/lvgl/src/draw/lv_draw.c **** }
 131:../../Middlewares/LVGL/GUI/lvgl/src/draw/lv_draw.c **** 
 132:../../Middlewares/LVGL/GUI/lvgl/src/draw/lv_draw.c **** void lv_draw_finalize_task_creation(lv_layer_t * layer, lv_draw_task_t * t)
 133:../../Middlewares/LVGL/GUI/lvgl/src/draw/lv_draw.c **** {
 134:../../Middlewares/LVGL/GUI/lvgl/src/draw/lv_draw.c ****     LV_PROFILER_DRAW_BEGIN;
 135:../../Middlewares/LVGL/GUI/lvgl/src/draw/lv_draw.c ****     lv_draw_dsc_base_t * base_dsc = t->draw_dsc;
 136:../../Middlewares/LVGL/GUI/lvgl/src/draw/lv_draw.c ****     base_dsc->layer = layer;
 137:../../Middlewares/LVGL/GUI/lvgl/src/draw/lv_draw.c **** 
 138:../../Middlewares/LVGL/GUI/lvgl/src/draw/lv_draw.c ****     lv_draw_global_info_t * info = &_draw_info;
 139:../../Middlewares/LVGL/GUI/lvgl/src/draw/lv_draw.c **** 
 140:../../Middlewares/LVGL/GUI/lvgl/src/draw/lv_draw.c ****     /*Send LV_EVENT_DRAW_TASK_ADDED and dispatch only on the "main" draw_task
 141:../../Middlewares/LVGL/GUI/lvgl/src/draw/lv_draw.c ****      *and not on the draw tasks added in the event.
 142:../../Middlewares/LVGL/GUI/lvgl/src/draw/lv_draw.c ****      *Sending LV_EVENT_DRAW_TASK_ADDED events might cause recursive event sends and besides
 143:../../Middlewares/LVGL/GUI/lvgl/src/draw/lv_draw.c ****      *dispatching might remove the "main" draw task while it's still being used in the event*/
 144:../../Middlewares/LVGL/GUI/lvgl/src/draw/lv_draw.c **** 
 145:../../Middlewares/LVGL/GUI/lvgl/src/draw/lv_draw.c ****     if(info->task_running == false) {
ARM GAS  C:\Users\28576\AppData\Local\Temp\cc59YylE.s 			page 4


 146:../../Middlewares/LVGL/GUI/lvgl/src/draw/lv_draw.c ****         if(base_dsc->obj && lv_obj_has_flag(base_dsc->obj, LV_OBJ_FLAG_SEND_DRAW_TASK_EVENTS)) {
 147:../../Middlewares/LVGL/GUI/lvgl/src/draw/lv_draw.c ****             info->task_running = true;
 148:../../Middlewares/LVGL/GUI/lvgl/src/draw/lv_draw.c ****             lv_obj_send_event(base_dsc->obj, LV_EVENT_DRAW_TASK_ADDED, t);
 149:../../Middlewares/LVGL/GUI/lvgl/src/draw/lv_draw.c ****             info->task_running = false;
 150:../../Middlewares/LVGL/GUI/lvgl/src/draw/lv_draw.c ****         }
 151:../../Middlewares/LVGL/GUI/lvgl/src/draw/lv_draw.c **** 
 152:../../Middlewares/LVGL/GUI/lvgl/src/draw/lv_draw.c ****         /*Let the draw units set their preference score*/
 153:../../Middlewares/LVGL/GUI/lvgl/src/draw/lv_draw.c ****         t->preference_score = 100;
 154:../../Middlewares/LVGL/GUI/lvgl/src/draw/lv_draw.c ****         t->preferred_draw_unit_id = 0;
 155:../../Middlewares/LVGL/GUI/lvgl/src/draw/lv_draw.c ****         lv_draw_unit_t * u = info->unit_head;
 156:../../Middlewares/LVGL/GUI/lvgl/src/draw/lv_draw.c ****         while(u) {
 157:../../Middlewares/LVGL/GUI/lvgl/src/draw/lv_draw.c ****             if(u->evaluate_cb) {
 158:../../Middlewares/LVGL/GUI/lvgl/src/draw/lv_draw.c ****                 LV_PROFILER_DRAW_BEGIN_TAG("evaluate_cb");
 159:../../Middlewares/LVGL/GUI/lvgl/src/draw/lv_draw.c ****                 LV_PROFILER_DRAW_BEGIN_TAG(u->name);
 160:../../Middlewares/LVGL/GUI/lvgl/src/draw/lv_draw.c ****                 u->evaluate_cb(u, t);
 161:../../Middlewares/LVGL/GUI/lvgl/src/draw/lv_draw.c ****                 LV_PROFILER_DRAW_END_TAG(u->name);
 162:../../Middlewares/LVGL/GUI/lvgl/src/draw/lv_draw.c ****                 LV_PROFILER_DRAW_END_TAG("evaluate_cb");
 163:../../Middlewares/LVGL/GUI/lvgl/src/draw/lv_draw.c ****             }
 164:../../Middlewares/LVGL/GUI/lvgl/src/draw/lv_draw.c ****             u = u->next;
 165:../../Middlewares/LVGL/GUI/lvgl/src/draw/lv_draw.c ****         }
 166:../../Middlewares/LVGL/GUI/lvgl/src/draw/lv_draw.c ****         if(t->preferred_draw_unit_id == LV_DRAW_UNIT_NONE) {
 167:../../Middlewares/LVGL/GUI/lvgl/src/draw/lv_draw.c ****             LV_LOG_WARN("the draw task was not taken by any units");
 168:../../Middlewares/LVGL/GUI/lvgl/src/draw/lv_draw.c ****             t->state = LV_DRAW_TASK_STATE_READY;
 169:../../Middlewares/LVGL/GUI/lvgl/src/draw/lv_draw.c ****         }
 170:../../Middlewares/LVGL/GUI/lvgl/src/draw/lv_draw.c ****         else {
 171:../../Middlewares/LVGL/GUI/lvgl/src/draw/lv_draw.c ****             lv_draw_dispatch();
 172:../../Middlewares/LVGL/GUI/lvgl/src/draw/lv_draw.c ****         }
 173:../../Middlewares/LVGL/GUI/lvgl/src/draw/lv_draw.c ****     }
 174:../../Middlewares/LVGL/GUI/lvgl/src/draw/lv_draw.c ****     else {
 175:../../Middlewares/LVGL/GUI/lvgl/src/draw/lv_draw.c ****         /*Let the draw units set their preference score*/
 176:../../Middlewares/LVGL/GUI/lvgl/src/draw/lv_draw.c ****         t->preference_score = 100;
 177:../../Middlewares/LVGL/GUI/lvgl/src/draw/lv_draw.c ****         t->preferred_draw_unit_id = 0;
 178:../../Middlewares/LVGL/GUI/lvgl/src/draw/lv_draw.c ****         lv_draw_unit_t * u = info->unit_head;
 179:../../Middlewares/LVGL/GUI/lvgl/src/draw/lv_draw.c ****         while(u) {
 180:../../Middlewares/LVGL/GUI/lvgl/src/draw/lv_draw.c ****             if(u->evaluate_cb) {
 181:../../Middlewares/LVGL/GUI/lvgl/src/draw/lv_draw.c ****                 LV_PROFILER_DRAW_BEGIN_TAG("evaluate_cb");
 182:../../Middlewares/LVGL/GUI/lvgl/src/draw/lv_draw.c ****                 LV_PROFILER_DRAW_BEGIN_TAG(u->name);
 183:../../Middlewares/LVGL/GUI/lvgl/src/draw/lv_draw.c ****                 u->evaluate_cb(u, t);
 184:../../Middlewares/LVGL/GUI/lvgl/src/draw/lv_draw.c ****                 LV_PROFILER_DRAW_END_TAG(u->name);
 185:../../Middlewares/LVGL/GUI/lvgl/src/draw/lv_draw.c ****                 LV_PROFILER_DRAW_END_TAG("evaluate_cb");
 186:../../Middlewares/LVGL/GUI/lvgl/src/draw/lv_draw.c ****             }
 187:../../Middlewares/LVGL/GUI/lvgl/src/draw/lv_draw.c ****             u = u->next;
 188:../../Middlewares/LVGL/GUI/lvgl/src/draw/lv_draw.c ****         }
 189:../../Middlewares/LVGL/GUI/lvgl/src/draw/lv_draw.c ****     }
 190:../../Middlewares/LVGL/GUI/lvgl/src/draw/lv_draw.c ****     LV_PROFILER_DRAW_END;
 191:../../Middlewares/LVGL/GUI/lvgl/src/draw/lv_draw.c **** }
 192:../../Middlewares/LVGL/GUI/lvgl/src/draw/lv_draw.c **** 
 193:../../Middlewares/LVGL/GUI/lvgl/src/draw/lv_draw.c **** void lv_draw_wait_for_finish(void)
 194:../../Middlewares/LVGL/GUI/lvgl/src/draw/lv_draw.c **** {
 195:../../Middlewares/LVGL/GUI/lvgl/src/draw/lv_draw.c **** #if LV_USE_OS
 196:../../Middlewares/LVGL/GUI/lvgl/src/draw/lv_draw.c ****     LV_PROFILER_DRAW_BEGIN;
 197:../../Middlewares/LVGL/GUI/lvgl/src/draw/lv_draw.c ****     lv_draw_unit_t * u = _draw_info.unit_head;
 198:../../Middlewares/LVGL/GUI/lvgl/src/draw/lv_draw.c ****     while(u) {
 199:../../Middlewares/LVGL/GUI/lvgl/src/draw/lv_draw.c ****         if(u->wait_for_finish_cb) {
 200:../../Middlewares/LVGL/GUI/lvgl/src/draw/lv_draw.c ****             LV_PROFILER_DRAW_BEGIN_TAG("wait_for_finish_cb");
 201:../../Middlewares/LVGL/GUI/lvgl/src/draw/lv_draw.c ****             LV_PROFILER_DRAW_BEGIN_TAG(u->name);
 202:../../Middlewares/LVGL/GUI/lvgl/src/draw/lv_draw.c ****             u->wait_for_finish_cb(u);
ARM GAS  C:\Users\28576\AppData\Local\Temp\cc59YylE.s 			page 5


 203:../../Middlewares/LVGL/GUI/lvgl/src/draw/lv_draw.c ****             LV_PROFILER_DRAW_END_TAG(u->name);
 204:../../Middlewares/LVGL/GUI/lvgl/src/draw/lv_draw.c ****             LV_PROFILER_DRAW_END_TAG("wait_for_finish_cb");
 205:../../Middlewares/LVGL/GUI/lvgl/src/draw/lv_draw.c ****         }
 206:../../Middlewares/LVGL/GUI/lvgl/src/draw/lv_draw.c ****         u = u->next;
 207:../../Middlewares/LVGL/GUI/lvgl/src/draw/lv_draw.c ****     }
 208:../../Middlewares/LVGL/GUI/lvgl/src/draw/lv_draw.c ****     LV_PROFILER_DRAW_END;
 209:../../Middlewares/LVGL/GUI/lvgl/src/draw/lv_draw.c **** #endif
 210:../../Middlewares/LVGL/GUI/lvgl/src/draw/lv_draw.c **** }
 211:../../Middlewares/LVGL/GUI/lvgl/src/draw/lv_draw.c **** 
 212:../../Middlewares/LVGL/GUI/lvgl/src/draw/lv_draw.c **** void lv_draw_dispatch(void)
 213:../../Middlewares/LVGL/GUI/lvgl/src/draw/lv_draw.c **** {
 214:../../Middlewares/LVGL/GUI/lvgl/src/draw/lv_draw.c ****     LV_PROFILER_DRAW_BEGIN;
 215:../../Middlewares/LVGL/GUI/lvgl/src/draw/lv_draw.c ****     bool task_dispatched = false;
 216:../../Middlewares/LVGL/GUI/lvgl/src/draw/lv_draw.c ****     lv_display_t * disp = lv_display_get_next(NULL);
 217:../../Middlewares/LVGL/GUI/lvgl/src/draw/lv_draw.c ****     while(disp) {
 218:../../Middlewares/LVGL/GUI/lvgl/src/draw/lv_draw.c ****         lv_layer_t * layer = disp->layer_head;
 219:../../Middlewares/LVGL/GUI/lvgl/src/draw/lv_draw.c ****         while(layer) {
 220:../../Middlewares/LVGL/GUI/lvgl/src/draw/lv_draw.c ****             if(lv_draw_dispatch_layer(disp, layer))
 221:../../Middlewares/LVGL/GUI/lvgl/src/draw/lv_draw.c ****                 task_dispatched = true;
 222:../../Middlewares/LVGL/GUI/lvgl/src/draw/lv_draw.c ****             layer = layer->next;
 223:../../Middlewares/LVGL/GUI/lvgl/src/draw/lv_draw.c ****         }
 224:../../Middlewares/LVGL/GUI/lvgl/src/draw/lv_draw.c ****         if(!task_dispatched) {
 225:../../Middlewares/LVGL/GUI/lvgl/src/draw/lv_draw.c ****             lv_draw_wait_for_finish();
 226:../../Middlewares/LVGL/GUI/lvgl/src/draw/lv_draw.c ****             lv_draw_dispatch_request();
 227:../../Middlewares/LVGL/GUI/lvgl/src/draw/lv_draw.c ****         }
 228:../../Middlewares/LVGL/GUI/lvgl/src/draw/lv_draw.c ****         disp = lv_display_get_next(disp);
 229:../../Middlewares/LVGL/GUI/lvgl/src/draw/lv_draw.c ****     }
 230:../../Middlewares/LVGL/GUI/lvgl/src/draw/lv_draw.c ****     LV_PROFILER_DRAW_END;
 231:../../Middlewares/LVGL/GUI/lvgl/src/draw/lv_draw.c **** }
 232:../../Middlewares/LVGL/GUI/lvgl/src/draw/lv_draw.c **** 
 233:../../Middlewares/LVGL/GUI/lvgl/src/draw/lv_draw.c **** bool lv_draw_dispatch_layer(lv_display_t * disp, lv_layer_t * layer)
 234:../../Middlewares/LVGL/GUI/lvgl/src/draw/lv_draw.c **** {
 235:../../Middlewares/LVGL/GUI/lvgl/src/draw/lv_draw.c ****     LV_PROFILER_DRAW_BEGIN;
 236:../../Middlewares/LVGL/GUI/lvgl/src/draw/lv_draw.c ****     /*Remove the finished tasks first*/
 237:../../Middlewares/LVGL/GUI/lvgl/src/draw/lv_draw.c ****     lv_draw_task_t * t_prev = NULL;
 238:../../Middlewares/LVGL/GUI/lvgl/src/draw/lv_draw.c ****     lv_draw_task_t * t = layer->draw_task_head;
 239:../../Middlewares/LVGL/GUI/lvgl/src/draw/lv_draw.c ****     lv_draw_task_t * t_next;
 240:../../Middlewares/LVGL/GUI/lvgl/src/draw/lv_draw.c ****     bool remove_task = false;
 241:../../Middlewares/LVGL/GUI/lvgl/src/draw/lv_draw.c ****     while(t) {
 242:../../Middlewares/LVGL/GUI/lvgl/src/draw/lv_draw.c ****         t_next = t->next;
 243:../../Middlewares/LVGL/GUI/lvgl/src/draw/lv_draw.c ****         if(t->state == LV_DRAW_TASK_STATE_READY) {
 244:../../Middlewares/LVGL/GUI/lvgl/src/draw/lv_draw.c ****             cleanup_task(t, disp);
 245:../../Middlewares/LVGL/GUI/lvgl/src/draw/lv_draw.c ****             remove_task = true;
 246:../../Middlewares/LVGL/GUI/lvgl/src/draw/lv_draw.c ****             if(t_prev != NULL)
 247:../../Middlewares/LVGL/GUI/lvgl/src/draw/lv_draw.c ****                 t_prev->next = t_next;
 248:../../Middlewares/LVGL/GUI/lvgl/src/draw/lv_draw.c ****             else
 249:../../Middlewares/LVGL/GUI/lvgl/src/draw/lv_draw.c ****                 layer->draw_task_head = t_next;
 250:../../Middlewares/LVGL/GUI/lvgl/src/draw/lv_draw.c ****         }
 251:../../Middlewares/LVGL/GUI/lvgl/src/draw/lv_draw.c ****         else {
 252:../../Middlewares/LVGL/GUI/lvgl/src/draw/lv_draw.c ****             t_prev = t;
 253:../../Middlewares/LVGL/GUI/lvgl/src/draw/lv_draw.c ****         }
 254:../../Middlewares/LVGL/GUI/lvgl/src/draw/lv_draw.c ****         t = t_next;
 255:../../Middlewares/LVGL/GUI/lvgl/src/draw/lv_draw.c ****     }
 256:../../Middlewares/LVGL/GUI/lvgl/src/draw/lv_draw.c **** 
 257:../../Middlewares/LVGL/GUI/lvgl/src/draw/lv_draw.c ****     bool task_dispatched = false;
 258:../../Middlewares/LVGL/GUI/lvgl/src/draw/lv_draw.c **** 
 259:../../Middlewares/LVGL/GUI/lvgl/src/draw/lv_draw.c ****     /*This layer is ready, enable blending its buffer*/
ARM GAS  C:\Users\28576\AppData\Local\Temp\cc59YylE.s 			page 6


 260:../../Middlewares/LVGL/GUI/lvgl/src/draw/lv_draw.c ****     if(layer->parent && layer->all_tasks_added && layer->draw_task_head == NULL) {
 261:../../Middlewares/LVGL/GUI/lvgl/src/draw/lv_draw.c ****         /*Find a draw task with TYPE_LAYER in the layer where the src is this layer*/
 262:../../Middlewares/LVGL/GUI/lvgl/src/draw/lv_draw.c ****         lv_draw_task_t * t_src = layer->parent->draw_task_head;
 263:../../Middlewares/LVGL/GUI/lvgl/src/draw/lv_draw.c ****         while(t_src) {
 264:../../Middlewares/LVGL/GUI/lvgl/src/draw/lv_draw.c ****             if(t_src->type == LV_DRAW_TASK_TYPE_LAYER && t_src->state == LV_DRAW_TASK_STATE_WAITING
 265:../../Middlewares/LVGL/GUI/lvgl/src/draw/lv_draw.c ****                 lv_draw_image_dsc_t * draw_dsc = t_src->draw_dsc;
 266:../../Middlewares/LVGL/GUI/lvgl/src/draw/lv_draw.c ****                 if(draw_dsc->src == layer) {
 267:../../Middlewares/LVGL/GUI/lvgl/src/draw/lv_draw.c ****                     t_src->state = LV_DRAW_TASK_STATE_QUEUED;
 268:../../Middlewares/LVGL/GUI/lvgl/src/draw/lv_draw.c ****                     lv_draw_dispatch_request();
 269:../../Middlewares/LVGL/GUI/lvgl/src/draw/lv_draw.c ****                     break;
 270:../../Middlewares/LVGL/GUI/lvgl/src/draw/lv_draw.c ****                 }
 271:../../Middlewares/LVGL/GUI/lvgl/src/draw/lv_draw.c ****             }
 272:../../Middlewares/LVGL/GUI/lvgl/src/draw/lv_draw.c ****             t_src = t_src->next;
 273:../../Middlewares/LVGL/GUI/lvgl/src/draw/lv_draw.c ****         }
 274:../../Middlewares/LVGL/GUI/lvgl/src/draw/lv_draw.c ****     }
 275:../../Middlewares/LVGL/GUI/lvgl/src/draw/lv_draw.c ****     /*Assign draw tasks to the draw_units*/
 276:../../Middlewares/LVGL/GUI/lvgl/src/draw/lv_draw.c ****     else if(remove_task || layer->draw_task_head) {
 277:../../Middlewares/LVGL/GUI/lvgl/src/draw/lv_draw.c ****         /*Find a draw unit which is not busy and can take at least one task*/
 278:../../Middlewares/LVGL/GUI/lvgl/src/draw/lv_draw.c ****         /*Let all draw units to pick draw tasks*/
 279:../../Middlewares/LVGL/GUI/lvgl/src/draw/lv_draw.c ****         lv_draw_unit_t * u = _draw_info.unit_head;
 280:../../Middlewares/LVGL/GUI/lvgl/src/draw/lv_draw.c ****         while(u) {
 281:../../Middlewares/LVGL/GUI/lvgl/src/draw/lv_draw.c ****             LV_PROFILER_DRAW_BEGIN_TAG("dispatch_cb");
 282:../../Middlewares/LVGL/GUI/lvgl/src/draw/lv_draw.c ****             LV_PROFILER_DRAW_BEGIN_TAG(u->name);
 283:../../Middlewares/LVGL/GUI/lvgl/src/draw/lv_draw.c ****             int32_t taken_cnt = u->dispatch_cb(u, layer);
 284:../../Middlewares/LVGL/GUI/lvgl/src/draw/lv_draw.c ****             LV_PROFILER_DRAW_END_TAG(u->name);
 285:../../Middlewares/LVGL/GUI/lvgl/src/draw/lv_draw.c ****             LV_PROFILER_DRAW_END_TAG("dispatch_cb");
 286:../../Middlewares/LVGL/GUI/lvgl/src/draw/lv_draw.c ****             if(taken_cnt != LV_DRAW_UNIT_IDLE) task_dispatched = true;
 287:../../Middlewares/LVGL/GUI/lvgl/src/draw/lv_draw.c ****             u = u->next;
 288:../../Middlewares/LVGL/GUI/lvgl/src/draw/lv_draw.c ****         }
 289:../../Middlewares/LVGL/GUI/lvgl/src/draw/lv_draw.c ****     }
 290:../../Middlewares/LVGL/GUI/lvgl/src/draw/lv_draw.c **** 
 291:../../Middlewares/LVGL/GUI/lvgl/src/draw/lv_draw.c ****     LV_PROFILER_DRAW_END;
 292:../../Middlewares/LVGL/GUI/lvgl/src/draw/lv_draw.c ****     return task_dispatched;
 293:../../Middlewares/LVGL/GUI/lvgl/src/draw/lv_draw.c **** }
 294:../../Middlewares/LVGL/GUI/lvgl/src/draw/lv_draw.c **** 
 295:../../Middlewares/LVGL/GUI/lvgl/src/draw/lv_draw.c **** void lv_draw_dispatch_wait_for_request(void)
 296:../../Middlewares/LVGL/GUI/lvgl/src/draw/lv_draw.c **** {
 297:../../Middlewares/LVGL/GUI/lvgl/src/draw/lv_draw.c ****     LV_PROFILER_DRAW_BEGIN;
 298:../../Middlewares/LVGL/GUI/lvgl/src/draw/lv_draw.c **** #if LV_USE_OS
 299:../../Middlewares/LVGL/GUI/lvgl/src/draw/lv_draw.c ****     lv_thread_sync_wait(&_draw_info.sync);
 300:../../Middlewares/LVGL/GUI/lvgl/src/draw/lv_draw.c **** #else
 301:../../Middlewares/LVGL/GUI/lvgl/src/draw/lv_draw.c ****     while(!_draw_info.dispatch_req);
 302:../../Middlewares/LVGL/GUI/lvgl/src/draw/lv_draw.c ****     _draw_info.dispatch_req = 0;
 303:../../Middlewares/LVGL/GUI/lvgl/src/draw/lv_draw.c **** #endif
 304:../../Middlewares/LVGL/GUI/lvgl/src/draw/lv_draw.c ****     LV_PROFILER_DRAW_END;
 305:../../Middlewares/LVGL/GUI/lvgl/src/draw/lv_draw.c **** }
 306:../../Middlewares/LVGL/GUI/lvgl/src/draw/lv_draw.c **** 
 307:../../Middlewares/LVGL/GUI/lvgl/src/draw/lv_draw.c **** void lv_draw_dispatch_request(void)
 308:../../Middlewares/LVGL/GUI/lvgl/src/draw/lv_draw.c **** {
 309:../../Middlewares/LVGL/GUI/lvgl/src/draw/lv_draw.c ****     LV_PROFILER_DRAW_BEGIN;
 310:../../Middlewares/LVGL/GUI/lvgl/src/draw/lv_draw.c **** #if LV_USE_OS
 311:../../Middlewares/LVGL/GUI/lvgl/src/draw/lv_draw.c ****     lv_thread_sync_signal(&_draw_info.sync);
 312:../../Middlewares/LVGL/GUI/lvgl/src/draw/lv_draw.c **** #else
 313:../../Middlewares/LVGL/GUI/lvgl/src/draw/lv_draw.c ****     _draw_info.dispatch_req = 1;
 314:../../Middlewares/LVGL/GUI/lvgl/src/draw/lv_draw.c **** #endif
 315:../../Middlewares/LVGL/GUI/lvgl/src/draw/lv_draw.c ****     LV_PROFILER_DRAW_END;
 316:../../Middlewares/LVGL/GUI/lvgl/src/draw/lv_draw.c **** }
ARM GAS  C:\Users\28576\AppData\Local\Temp\cc59YylE.s 			page 7


 317:../../Middlewares/LVGL/GUI/lvgl/src/draw/lv_draw.c **** 
 318:../../Middlewares/LVGL/GUI/lvgl/src/draw/lv_draw.c **** uint32_t lv_draw_get_unit_count(void)
 319:../../Middlewares/LVGL/GUI/lvgl/src/draw/lv_draw.c **** {
 320:../../Middlewares/LVGL/GUI/lvgl/src/draw/lv_draw.c ****     return _draw_info.unit_cnt;
 321:../../Middlewares/LVGL/GUI/lvgl/src/draw/lv_draw.c **** }
 322:../../Middlewares/LVGL/GUI/lvgl/src/draw/lv_draw.c **** 
 323:../../Middlewares/LVGL/GUI/lvgl/src/draw/lv_draw.c **** lv_draw_task_t * lv_draw_get_available_task(lv_layer_t * layer, lv_draw_task_t * t_prev, uint8_t dr
 324:../../Middlewares/LVGL/GUI/lvgl/src/draw/lv_draw.c **** {
 325:../../Middlewares/LVGL/GUI/lvgl/src/draw/lv_draw.c ****     if(_draw_info.unit_cnt == 1) {
 326:../../Middlewares/LVGL/GUI/lvgl/src/draw/lv_draw.c ****         return get_first_available_task(layer);
 327:../../Middlewares/LVGL/GUI/lvgl/src/draw/lv_draw.c ****     }
 328:../../Middlewares/LVGL/GUI/lvgl/src/draw/lv_draw.c ****     else {
 329:../../Middlewares/LVGL/GUI/lvgl/src/draw/lv_draw.c ****         return lv_draw_get_next_available_task(layer, t_prev, draw_unit_id);
 330:../../Middlewares/LVGL/GUI/lvgl/src/draw/lv_draw.c ****     }
 331:../../Middlewares/LVGL/GUI/lvgl/src/draw/lv_draw.c **** }
 332:../../Middlewares/LVGL/GUI/lvgl/src/draw/lv_draw.c **** 
 333:../../Middlewares/LVGL/GUI/lvgl/src/draw/lv_draw.c **** lv_draw_task_t * lv_draw_get_next_available_task(lv_layer_t * layer, lv_draw_task_t * t_prev, uint8
 334:../../Middlewares/LVGL/GUI/lvgl/src/draw/lv_draw.c **** {
 335:../../Middlewares/LVGL/GUI/lvgl/src/draw/lv_draw.c ****     LV_PROFILER_DRAW_BEGIN;
 336:../../Middlewares/LVGL/GUI/lvgl/src/draw/lv_draw.c **** 
 337:../../Middlewares/LVGL/GUI/lvgl/src/draw/lv_draw.c ****     /*If the first task is screen sized, there cannot be independent areas*/
 338:../../Middlewares/LVGL/GUI/lvgl/src/draw/lv_draw.c ****     if(layer->draw_task_head) {
 339:../../Middlewares/LVGL/GUI/lvgl/src/draw/lv_draw.c ****         int32_t hor_res = lv_display_get_horizontal_resolution(lv_refr_get_disp_refreshing());
 340:../../Middlewares/LVGL/GUI/lvgl/src/draw/lv_draw.c ****         int32_t ver_res = lv_display_get_vertical_resolution(lv_refr_get_disp_refreshing());
 341:../../Middlewares/LVGL/GUI/lvgl/src/draw/lv_draw.c ****         lv_draw_task_t * t = layer->draw_task_head;
 342:../../Middlewares/LVGL/GUI/lvgl/src/draw/lv_draw.c ****         if(t->state != LV_DRAW_TASK_STATE_QUEUED &&
 343:../../Middlewares/LVGL/GUI/lvgl/src/draw/lv_draw.c ****            t->area.x1 <= 0 && t->area.x2 >= hor_res - 1 &&
 344:../../Middlewares/LVGL/GUI/lvgl/src/draw/lv_draw.c ****            t->area.y1 <= 0 && t->area.y2 >= ver_res - 1) {
 345:../../Middlewares/LVGL/GUI/lvgl/src/draw/lv_draw.c ****             LV_PROFILER_DRAW_END;
 346:../../Middlewares/LVGL/GUI/lvgl/src/draw/lv_draw.c ****             return NULL;
 347:../../Middlewares/LVGL/GUI/lvgl/src/draw/lv_draw.c ****         }
 348:../../Middlewares/LVGL/GUI/lvgl/src/draw/lv_draw.c ****     }
 349:../../Middlewares/LVGL/GUI/lvgl/src/draw/lv_draw.c **** 
 350:../../Middlewares/LVGL/GUI/lvgl/src/draw/lv_draw.c ****     lv_draw_task_t * t = t_prev ? t_prev->next : layer->draw_task_head;
 351:../../Middlewares/LVGL/GUI/lvgl/src/draw/lv_draw.c ****     while(t) {
 352:../../Middlewares/LVGL/GUI/lvgl/src/draw/lv_draw.c ****         /*Find a queued and independent task*/
 353:../../Middlewares/LVGL/GUI/lvgl/src/draw/lv_draw.c ****         if(t->state == LV_DRAW_TASK_STATE_QUEUED &&
 354:../../Middlewares/LVGL/GUI/lvgl/src/draw/lv_draw.c ****            (t->preferred_draw_unit_id == LV_DRAW_UNIT_NONE || t->preferred_draw_unit_id == draw_uni
 355:../../Middlewares/LVGL/GUI/lvgl/src/draw/lv_draw.c ****            is_independent(layer, t)) {
 356:../../Middlewares/LVGL/GUI/lvgl/src/draw/lv_draw.c ****             LV_PROFILER_DRAW_END;
 357:../../Middlewares/LVGL/GUI/lvgl/src/draw/lv_draw.c ****             return t;
 358:../../Middlewares/LVGL/GUI/lvgl/src/draw/lv_draw.c ****         }
 359:../../Middlewares/LVGL/GUI/lvgl/src/draw/lv_draw.c ****         t = t->next;
 360:../../Middlewares/LVGL/GUI/lvgl/src/draw/lv_draw.c ****     }
 361:../../Middlewares/LVGL/GUI/lvgl/src/draw/lv_draw.c **** 
 362:../../Middlewares/LVGL/GUI/lvgl/src/draw/lv_draw.c ****     LV_PROFILER_DRAW_END;
 363:../../Middlewares/LVGL/GUI/lvgl/src/draw/lv_draw.c ****     return NULL;
 364:../../Middlewares/LVGL/GUI/lvgl/src/draw/lv_draw.c **** }
 365:../../Middlewares/LVGL/GUI/lvgl/src/draw/lv_draw.c **** 
 366:../../Middlewares/LVGL/GUI/lvgl/src/draw/lv_draw.c **** uint32_t lv_draw_get_dependent_count(lv_draw_task_t * t_check)
 367:../../Middlewares/LVGL/GUI/lvgl/src/draw/lv_draw.c **** {
 368:../../Middlewares/LVGL/GUI/lvgl/src/draw/lv_draw.c ****     if(t_check == NULL) return 0;
 369:../../Middlewares/LVGL/GUI/lvgl/src/draw/lv_draw.c ****     if(t_check->next == NULL) return 0;
 370:../../Middlewares/LVGL/GUI/lvgl/src/draw/lv_draw.c **** 
 371:../../Middlewares/LVGL/GUI/lvgl/src/draw/lv_draw.c ****     LV_PROFILER_DRAW_BEGIN;
 372:../../Middlewares/LVGL/GUI/lvgl/src/draw/lv_draw.c ****     uint32_t cnt = 0;
 373:../../Middlewares/LVGL/GUI/lvgl/src/draw/lv_draw.c **** 
ARM GAS  C:\Users\28576\AppData\Local\Temp\cc59YylE.s 			page 8


 374:../../Middlewares/LVGL/GUI/lvgl/src/draw/lv_draw.c ****     lv_draw_task_t * t = t_check->next;
 375:../../Middlewares/LVGL/GUI/lvgl/src/draw/lv_draw.c ****     while(t) {
 376:../../Middlewares/LVGL/GUI/lvgl/src/draw/lv_draw.c ****         if((t->state == LV_DRAW_TASK_STATE_QUEUED || t->state == LV_DRAW_TASK_STATE_WAITING) &&
 377:../../Middlewares/LVGL/GUI/lvgl/src/draw/lv_draw.c ****            lv_area_is_on(&t_check->area, &t->area)) {
 378:../../Middlewares/LVGL/GUI/lvgl/src/draw/lv_draw.c ****             cnt++;
 379:../../Middlewares/LVGL/GUI/lvgl/src/draw/lv_draw.c ****         }
 380:../../Middlewares/LVGL/GUI/lvgl/src/draw/lv_draw.c **** 
 381:../../Middlewares/LVGL/GUI/lvgl/src/draw/lv_draw.c ****         t = t->next;
 382:../../Middlewares/LVGL/GUI/lvgl/src/draw/lv_draw.c ****     }
 383:../../Middlewares/LVGL/GUI/lvgl/src/draw/lv_draw.c ****     LV_PROFILER_DRAW_END;
 384:../../Middlewares/LVGL/GUI/lvgl/src/draw/lv_draw.c ****     return cnt;
 385:../../Middlewares/LVGL/GUI/lvgl/src/draw/lv_draw.c **** }
 386:../../Middlewares/LVGL/GUI/lvgl/src/draw/lv_draw.c **** 
 387:../../Middlewares/LVGL/GUI/lvgl/src/draw/lv_draw.c **** void lv_layer_init(lv_layer_t * layer)
 388:../../Middlewares/LVGL/GUI/lvgl/src/draw/lv_draw.c **** {
 389:../../Middlewares/LVGL/GUI/lvgl/src/draw/lv_draw.c ****     LV_ASSERT_NULL(layer);
 390:../../Middlewares/LVGL/GUI/lvgl/src/draw/lv_draw.c ****     lv_memzero(layer, sizeof(lv_layer_t));
 391:../../Middlewares/LVGL/GUI/lvgl/src/draw/lv_draw.c ****     lv_layer_reset(layer);
 392:../../Middlewares/LVGL/GUI/lvgl/src/draw/lv_draw.c **** }
 393:../../Middlewares/LVGL/GUI/lvgl/src/draw/lv_draw.c **** 
 394:../../Middlewares/LVGL/GUI/lvgl/src/draw/lv_draw.c **** void lv_layer_reset(lv_layer_t * layer)
 395:../../Middlewares/LVGL/GUI/lvgl/src/draw/lv_draw.c **** {
 396:../../Middlewares/LVGL/GUI/lvgl/src/draw/lv_draw.c ****     LV_ASSERT_NULL(layer);
 397:../../Middlewares/LVGL/GUI/lvgl/src/draw/lv_draw.c **** #if LV_DRAW_TRANSFORM_USE_MATRIX
 398:../../Middlewares/LVGL/GUI/lvgl/src/draw/lv_draw.c ****     lv_matrix_identity(&layer->matrix);
 399:../../Middlewares/LVGL/GUI/lvgl/src/draw/lv_draw.c **** #endif
 400:../../Middlewares/LVGL/GUI/lvgl/src/draw/lv_draw.c ****     layer->opa = LV_OPA_COVER;
 401:../../Middlewares/LVGL/GUI/lvgl/src/draw/lv_draw.c ****     layer->recolor = lv_color32_make(0, 0, 0, 0);
 402:../../Middlewares/LVGL/GUI/lvgl/src/draw/lv_draw.c **** }
 403:../../Middlewares/LVGL/GUI/lvgl/src/draw/lv_draw.c **** 
 404:../../Middlewares/LVGL/GUI/lvgl/src/draw/lv_draw.c **** lv_layer_t * lv_draw_layer_create(lv_layer_t * parent_layer, lv_color_format_t color_format, const 
 405:../../Middlewares/LVGL/GUI/lvgl/src/draw/lv_draw.c **** {
 406:../../Middlewares/LVGL/GUI/lvgl/src/draw/lv_draw.c ****     LV_PROFILER_DRAW_BEGIN;
 407:../../Middlewares/LVGL/GUI/lvgl/src/draw/lv_draw.c ****     lv_layer_t * new_layer = lv_malloc_zeroed(sizeof(lv_layer_t));
 408:../../Middlewares/LVGL/GUI/lvgl/src/draw/lv_draw.c ****     LV_ASSERT_MALLOC(new_layer);
 409:../../Middlewares/LVGL/GUI/lvgl/src/draw/lv_draw.c ****     if(new_layer == NULL) {
 410:../../Middlewares/LVGL/GUI/lvgl/src/draw/lv_draw.c ****         LV_PROFILER_DRAW_END;
 411:../../Middlewares/LVGL/GUI/lvgl/src/draw/lv_draw.c ****         return NULL;
 412:../../Middlewares/LVGL/GUI/lvgl/src/draw/lv_draw.c ****     }
 413:../../Middlewares/LVGL/GUI/lvgl/src/draw/lv_draw.c **** 
 414:../../Middlewares/LVGL/GUI/lvgl/src/draw/lv_draw.c ****     lv_draw_layer_init(new_layer, parent_layer, color_format, area);
 415:../../Middlewares/LVGL/GUI/lvgl/src/draw/lv_draw.c **** 
 416:../../Middlewares/LVGL/GUI/lvgl/src/draw/lv_draw.c ****     /*Inherits transparency from parent*/
 417:../../Middlewares/LVGL/GUI/lvgl/src/draw/lv_draw.c ****     if(parent_layer) {
 418:../../Middlewares/LVGL/GUI/lvgl/src/draw/lv_draw.c ****         new_layer->opa = parent_layer->opa;
 419:../../Middlewares/LVGL/GUI/lvgl/src/draw/lv_draw.c ****         new_layer->recolor = parent_layer->recolor;
 420:../../Middlewares/LVGL/GUI/lvgl/src/draw/lv_draw.c ****     }
 421:../../Middlewares/LVGL/GUI/lvgl/src/draw/lv_draw.c **** 
 422:../../Middlewares/LVGL/GUI/lvgl/src/draw/lv_draw.c ****     LV_PROFILER_DRAW_END;
 423:../../Middlewares/LVGL/GUI/lvgl/src/draw/lv_draw.c ****     return new_layer;
 424:../../Middlewares/LVGL/GUI/lvgl/src/draw/lv_draw.c **** }
 425:../../Middlewares/LVGL/GUI/lvgl/src/draw/lv_draw.c **** 
 426:../../Middlewares/LVGL/GUI/lvgl/src/draw/lv_draw.c **** void lv_draw_layer_init(lv_layer_t * layer, lv_layer_t * parent_layer, lv_color_format_t color_form
 427:../../Middlewares/LVGL/GUI/lvgl/src/draw/lv_draw.c ****                         const lv_area_t * area)
 428:../../Middlewares/LVGL/GUI/lvgl/src/draw/lv_draw.c **** {
 429:../../Middlewares/LVGL/GUI/lvgl/src/draw/lv_draw.c ****     LV_PROFILER_DRAW_BEGIN;
 430:../../Middlewares/LVGL/GUI/lvgl/src/draw/lv_draw.c ****     lv_layer_init(layer);
ARM GAS  C:\Users\28576\AppData\Local\Temp\cc59YylE.s 			page 9


 431:../../Middlewares/LVGL/GUI/lvgl/src/draw/lv_draw.c ****     lv_display_t * disp = lv_refr_get_disp_refreshing();
 432:../../Middlewares/LVGL/GUI/lvgl/src/draw/lv_draw.c **** 
 433:../../Middlewares/LVGL/GUI/lvgl/src/draw/lv_draw.c ****     layer->parent = parent_layer;
 434:../../Middlewares/LVGL/GUI/lvgl/src/draw/lv_draw.c ****     layer->_clip_area = *area;
 435:../../Middlewares/LVGL/GUI/lvgl/src/draw/lv_draw.c ****     layer->buf_area = *area;
 436:../../Middlewares/LVGL/GUI/lvgl/src/draw/lv_draw.c ****     layer->phy_clip_area = *area;
 437:../../Middlewares/LVGL/GUI/lvgl/src/draw/lv_draw.c ****     layer->color_format = color_format;
 438:../../Middlewares/LVGL/GUI/lvgl/src/draw/lv_draw.c **** 
 439:../../Middlewares/LVGL/GUI/lvgl/src/draw/lv_draw.c ****     if(disp->layer_init) disp->layer_init(disp, layer);
 440:../../Middlewares/LVGL/GUI/lvgl/src/draw/lv_draw.c **** 
 441:../../Middlewares/LVGL/GUI/lvgl/src/draw/lv_draw.c ****     if(disp->layer_head) {
 442:../../Middlewares/LVGL/GUI/lvgl/src/draw/lv_draw.c ****         lv_layer_t * tail = disp->layer_head;
 443:../../Middlewares/LVGL/GUI/lvgl/src/draw/lv_draw.c ****         while(tail->next) tail = tail->next;
 444:../../Middlewares/LVGL/GUI/lvgl/src/draw/lv_draw.c ****         tail->next = layer;
 445:../../Middlewares/LVGL/GUI/lvgl/src/draw/lv_draw.c ****     }
 446:../../Middlewares/LVGL/GUI/lvgl/src/draw/lv_draw.c ****     else {
 447:../../Middlewares/LVGL/GUI/lvgl/src/draw/lv_draw.c ****         disp->layer_head = layer;
 448:../../Middlewares/LVGL/GUI/lvgl/src/draw/lv_draw.c ****     }
 449:../../Middlewares/LVGL/GUI/lvgl/src/draw/lv_draw.c **** 
 450:../../Middlewares/LVGL/GUI/lvgl/src/draw/lv_draw.c ****     LV_PROFILER_DRAW_END;
 451:../../Middlewares/LVGL/GUI/lvgl/src/draw/lv_draw.c **** }
 452:../../Middlewares/LVGL/GUI/lvgl/src/draw/lv_draw.c **** 
 453:../../Middlewares/LVGL/GUI/lvgl/src/draw/lv_draw.c **** void * lv_draw_layer_alloc_buf(lv_layer_t * layer)
 454:../../Middlewares/LVGL/GUI/lvgl/src/draw/lv_draw.c **** {
 455:../../Middlewares/LVGL/GUI/lvgl/src/draw/lv_draw.c ****     LV_PROFILER_DRAW_BEGIN;
 456:../../Middlewares/LVGL/GUI/lvgl/src/draw/lv_draw.c ****     /*If the buffer of the layer is already allocated return it*/
 457:../../Middlewares/LVGL/GUI/lvgl/src/draw/lv_draw.c ****     if(layer->draw_buf != NULL) {
 458:../../Middlewares/LVGL/GUI/lvgl/src/draw/lv_draw.c ****         LV_PROFILER_DRAW_END;
 459:../../Middlewares/LVGL/GUI/lvgl/src/draw/lv_draw.c ****         return layer->draw_buf->data;
 460:../../Middlewares/LVGL/GUI/lvgl/src/draw/lv_draw.c ****     }
 461:../../Middlewares/LVGL/GUI/lvgl/src/draw/lv_draw.c **** 
 462:../../Middlewares/LVGL/GUI/lvgl/src/draw/lv_draw.c ****     /*If the buffer of the layer is not allocated yet, allocate it now*/
 463:../../Middlewares/LVGL/GUI/lvgl/src/draw/lv_draw.c ****     int32_t w = lv_area_get_width(&layer->buf_area);
 464:../../Middlewares/LVGL/GUI/lvgl/src/draw/lv_draw.c ****     int32_t h = lv_area_get_height(&layer->buf_area);
 465:../../Middlewares/LVGL/GUI/lvgl/src/draw/lv_draw.c ****     uint32_t layer_size_byte = h * lv_draw_buf_width_to_stride(w, layer->color_format);
 466:../../Middlewares/LVGL/GUI/lvgl/src/draw/lv_draw.c **** 
 467:../../Middlewares/LVGL/GUI/lvgl/src/draw/lv_draw.c **** #if LV_DRAW_LAYER_MAX_MEMORY > 0
 468:../../Middlewares/LVGL/GUI/lvgl/src/draw/lv_draw.c ****     /* Do not allocate the layer if the sum of allocated layer sizes
 469:../../Middlewares/LVGL/GUI/lvgl/src/draw/lv_draw.c ****      * will exceed `LV_DRAW_LAYER_MAX_MEMORY` */
 470:../../Middlewares/LVGL/GUI/lvgl/src/draw/lv_draw.c ****     if((_draw_info.used_memory_for_layers + layer_size_byte) > LV_DRAW_LAYER_MAX_MEMORY) {
 471:../../Middlewares/LVGL/GUI/lvgl/src/draw/lv_draw.c ****         LV_LOG_WARN("LV_DRAW_LAYER_MAX_MEMORY was reached when allocating the layer.");
 472:../../Middlewares/LVGL/GUI/lvgl/src/draw/lv_draw.c ****         return NULL;
 473:../../Middlewares/LVGL/GUI/lvgl/src/draw/lv_draw.c ****     }
 474:../../Middlewares/LVGL/GUI/lvgl/src/draw/lv_draw.c **** #endif
 475:../../Middlewares/LVGL/GUI/lvgl/src/draw/lv_draw.c **** 
 476:../../Middlewares/LVGL/GUI/lvgl/src/draw/lv_draw.c ****     layer->draw_buf = lv_draw_buf_create(w, h, layer->color_format, 0);
 477:../../Middlewares/LVGL/GUI/lvgl/src/draw/lv_draw.c **** 
 478:../../Middlewares/LVGL/GUI/lvgl/src/draw/lv_draw.c ****     if(layer->draw_buf == NULL) {
 479:../../Middlewares/LVGL/GUI/lvgl/src/draw/lv_draw.c ****         LV_LOG_WARN("Allocating layer buffer failed. Try later");
 480:../../Middlewares/LVGL/GUI/lvgl/src/draw/lv_draw.c ****         LV_PROFILER_DRAW_END;
 481:../../Middlewares/LVGL/GUI/lvgl/src/draw/lv_draw.c ****         return NULL;
 482:../../Middlewares/LVGL/GUI/lvgl/src/draw/lv_draw.c ****     }
 483:../../Middlewares/LVGL/GUI/lvgl/src/draw/lv_draw.c **** 
 484:../../Middlewares/LVGL/GUI/lvgl/src/draw/lv_draw.c ****     _draw_info.used_memory_for_layers += layer_size_byte;
 485:../../Middlewares/LVGL/GUI/lvgl/src/draw/lv_draw.c ****     LV_LOG_INFO("Layer memory used: %" LV_PRIu32 " kB", get_layer_size_kb(_draw_info.used_memory_fo
 486:../../Middlewares/LVGL/GUI/lvgl/src/draw/lv_draw.c **** 
 487:../../Middlewares/LVGL/GUI/lvgl/src/draw/lv_draw.c ****     if(lv_color_format_has_alpha(layer->color_format)) {
ARM GAS  C:\Users\28576\AppData\Local\Temp\cc59YylE.s 			page 10


 488:../../Middlewares/LVGL/GUI/lvgl/src/draw/lv_draw.c ****         lv_draw_buf_clear(layer->draw_buf, NULL);
 489:../../Middlewares/LVGL/GUI/lvgl/src/draw/lv_draw.c ****     }
 490:../../Middlewares/LVGL/GUI/lvgl/src/draw/lv_draw.c **** 
 491:../../Middlewares/LVGL/GUI/lvgl/src/draw/lv_draw.c ****     LV_PROFILER_DRAW_END;
 492:../../Middlewares/LVGL/GUI/lvgl/src/draw/lv_draw.c ****     return layer->draw_buf->data;
 493:../../Middlewares/LVGL/GUI/lvgl/src/draw/lv_draw.c **** }
 494:../../Middlewares/LVGL/GUI/lvgl/src/draw/lv_draw.c **** 
 495:../../Middlewares/LVGL/GUI/lvgl/src/draw/lv_draw.c **** void * lv_draw_layer_go_to_xy(lv_layer_t * layer, int32_t x, int32_t y)
 496:../../Middlewares/LVGL/GUI/lvgl/src/draw/lv_draw.c **** {
 497:../../Middlewares/LVGL/GUI/lvgl/src/draw/lv_draw.c ****     return lv_draw_buf_goto_xy(layer->draw_buf, x, y);
 498:../../Middlewares/LVGL/GUI/lvgl/src/draw/lv_draw.c **** }
 499:../../Middlewares/LVGL/GUI/lvgl/src/draw/lv_draw.c **** 
 500:../../Middlewares/LVGL/GUI/lvgl/src/draw/lv_draw.c **** lv_draw_task_type_t lv_draw_task_get_type(const lv_draw_task_t * t)
 501:../../Middlewares/LVGL/GUI/lvgl/src/draw/lv_draw.c **** {
 502:../../Middlewares/LVGL/GUI/lvgl/src/draw/lv_draw.c ****     return t->type;
 503:../../Middlewares/LVGL/GUI/lvgl/src/draw/lv_draw.c **** }
 504:../../Middlewares/LVGL/GUI/lvgl/src/draw/lv_draw.c **** 
 505:../../Middlewares/LVGL/GUI/lvgl/src/draw/lv_draw.c **** void * lv_draw_task_get_draw_dsc(const lv_draw_task_t * t)
 506:../../Middlewares/LVGL/GUI/lvgl/src/draw/lv_draw.c **** {
 507:../../Middlewares/LVGL/GUI/lvgl/src/draw/lv_draw.c ****     return t->draw_dsc;
 508:../../Middlewares/LVGL/GUI/lvgl/src/draw/lv_draw.c **** }
 509:../../Middlewares/LVGL/GUI/lvgl/src/draw/lv_draw.c **** 
 510:../../Middlewares/LVGL/GUI/lvgl/src/draw/lv_draw.c **** void lv_draw_task_get_area(const lv_draw_task_t * t, lv_area_t * area)
 511:../../Middlewares/LVGL/GUI/lvgl/src/draw/lv_draw.c **** {
 512:../../Middlewares/LVGL/GUI/lvgl/src/draw/lv_draw.c ****     *area = t->area;
 513:../../Middlewares/LVGL/GUI/lvgl/src/draw/lv_draw.c **** }
 514:../../Middlewares/LVGL/GUI/lvgl/src/draw/lv_draw.c **** 
 515:../../Middlewares/LVGL/GUI/lvgl/src/draw/lv_draw.c **** /**********************
 516:../../Middlewares/LVGL/GUI/lvgl/src/draw/lv_draw.c ****  *   STATIC FUNCTIONS
 517:../../Middlewares/LVGL/GUI/lvgl/src/draw/lv_draw.c ****  **********************/
 518:../../Middlewares/LVGL/GUI/lvgl/src/draw/lv_draw.c **** 
 519:../../Middlewares/LVGL/GUI/lvgl/src/draw/lv_draw.c **** /**
 520:../../Middlewares/LVGL/GUI/lvgl/src/draw/lv_draw.c ****  * Check if there are older draw task overlapping the area of `t_check`
 521:../../Middlewares/LVGL/GUI/lvgl/src/draw/lv_draw.c ****  * @param layer      the draw ctx to search in
 522:../../Middlewares/LVGL/GUI/lvgl/src/draw/lv_draw.c ****  * @param t_check       check this task if it overlaps with the older ones
 523:../../Middlewares/LVGL/GUI/lvgl/src/draw/lv_draw.c ****  * @return              true: `t_check` is not overlapping with older tasks so it's independent
 524:../../Middlewares/LVGL/GUI/lvgl/src/draw/lv_draw.c ****  */
 525:../../Middlewares/LVGL/GUI/lvgl/src/draw/lv_draw.c **** static bool is_independent(lv_layer_t * layer, lv_draw_task_t * t_check)
 526:../../Middlewares/LVGL/GUI/lvgl/src/draw/lv_draw.c **** {
 527:../../Middlewares/LVGL/GUI/lvgl/src/draw/lv_draw.c ****     LV_PROFILER_DRAW_BEGIN;
 528:../../Middlewares/LVGL/GUI/lvgl/src/draw/lv_draw.c ****     lv_draw_task_t * t = layer->draw_task_head;
 529:../../Middlewares/LVGL/GUI/lvgl/src/draw/lv_draw.c **** 
 530:../../Middlewares/LVGL/GUI/lvgl/src/draw/lv_draw.c ****     /*If t_check is outside of the older tasks then it's independent*/
 531:../../Middlewares/LVGL/GUI/lvgl/src/draw/lv_draw.c ****     while(t && t != t_check) {
 532:../../Middlewares/LVGL/GUI/lvgl/src/draw/lv_draw.c ****         if(t->state != LV_DRAW_TASK_STATE_READY) {
 533:../../Middlewares/LVGL/GUI/lvgl/src/draw/lv_draw.c ****             lv_area_t a;
 534:../../Middlewares/LVGL/GUI/lvgl/src/draw/lv_draw.c ****             if(lv_area_intersect(&a, &t->_real_area, &t_check->_real_area)) {
 535:../../Middlewares/LVGL/GUI/lvgl/src/draw/lv_draw.c ****                 LV_PROFILER_DRAW_END;
 536:../../Middlewares/LVGL/GUI/lvgl/src/draw/lv_draw.c ****                 return false;
 537:../../Middlewares/LVGL/GUI/lvgl/src/draw/lv_draw.c ****             }
 538:../../Middlewares/LVGL/GUI/lvgl/src/draw/lv_draw.c ****         }
 539:../../Middlewares/LVGL/GUI/lvgl/src/draw/lv_draw.c ****         t = t->next;
 540:../../Middlewares/LVGL/GUI/lvgl/src/draw/lv_draw.c ****     }
 541:../../Middlewares/LVGL/GUI/lvgl/src/draw/lv_draw.c ****     LV_PROFILER_DRAW_END;
 542:../../Middlewares/LVGL/GUI/lvgl/src/draw/lv_draw.c **** 
 543:../../Middlewares/LVGL/GUI/lvgl/src/draw/lv_draw.c ****     return true;
 544:../../Middlewares/LVGL/GUI/lvgl/src/draw/lv_draw.c **** }
ARM GAS  C:\Users\28576\AppData\Local\Temp\cc59YylE.s 			page 11


 545:../../Middlewares/LVGL/GUI/lvgl/src/draw/lv_draw.c **** 
 546:../../Middlewares/LVGL/GUI/lvgl/src/draw/lv_draw.c **** /**
 547:../../Middlewares/LVGL/GUI/lvgl/src/draw/lv_draw.c ****  * Get the size of the draw descriptor of a draw task
 548:../../Middlewares/LVGL/GUI/lvgl/src/draw/lv_draw.c ****  * @param type      type of the draw task
 549:../../Middlewares/LVGL/GUI/lvgl/src/draw/lv_draw.c ****  * @return          size of the draw descriptor in bytes
 550:../../Middlewares/LVGL/GUI/lvgl/src/draw/lv_draw.c ****  */
 551:../../Middlewares/LVGL/GUI/lvgl/src/draw/lv_draw.c **** static inline size_t get_draw_dsc_size(lv_draw_task_type_t type)
 552:../../Middlewares/LVGL/GUI/lvgl/src/draw/lv_draw.c **** {
  28              		.loc 1 552 1 view -0
  29              		.cfi_startproc
  30              		@ args = 0, pretend = 0, frame = 0
  31              		@ frame_needed = 0, uses_anonymous_args = 0
  32              		@ link register save eliminated.
 553:../../Middlewares/LVGL/GUI/lvgl/src/draw/lv_draw.c ****     switch(type) {
  33              		.loc 1 553 5 view .LVU1
  34 0000 0628     		cmp	r0, #6
  35 0002 1ED0     		beq	.L6
  36 0004 08D9     		bls	.L17
  37 0006 0928     		cmp	r0, #9
  38 0008 27D0     		beq	.L12
  39 000a 14D8     		bhi	.L5
  40 000c 0728     		cmp	r0, #7
  41 000e 26D0     		beq	.L13
  42 0010 0828     		cmp	r0, #8
  43 0012 26D1     		bne	.L14
 554:../../Middlewares/LVGL/GUI/lvgl/src/draw/lv_draw.c ****         case LV_DRAW_TASK_TYPE_NONE:
 555:../../Middlewares/LVGL/GUI/lvgl/src/draw/lv_draw.c ****             return 0;
 556:../../Middlewares/LVGL/GUI/lvgl/src/draw/lv_draw.c ****         case LV_DRAW_TASK_TYPE_FILL:
 557:../../Middlewares/LVGL/GUI/lvgl/src/draw/lv_draw.c ****             return sizeof(lv_draw_fill_dsc_t);
 558:../../Middlewares/LVGL/GUI/lvgl/src/draw/lv_draw.c ****         case LV_DRAW_TASK_TYPE_BORDER:
 559:../../Middlewares/LVGL/GUI/lvgl/src/draw/lv_draw.c ****             return sizeof(lv_draw_border_dsc_t);
 560:../../Middlewares/LVGL/GUI/lvgl/src/draw/lv_draw.c ****         case LV_DRAW_TASK_TYPE_BOX_SHADOW:
 561:../../Middlewares/LVGL/GUI/lvgl/src/draw/lv_draw.c ****             return sizeof(lv_draw_box_shadow_dsc_t);
 562:../../Middlewares/LVGL/GUI/lvgl/src/draw/lv_draw.c ****         case LV_DRAW_TASK_TYPE_LETTER:
 563:../../Middlewares/LVGL/GUI/lvgl/src/draw/lv_draw.c ****             return sizeof(lv_draw_letter_dsc_t);
 564:../../Middlewares/LVGL/GUI/lvgl/src/draw/lv_draw.c ****         case LV_DRAW_TASK_TYPE_LABEL:
 565:../../Middlewares/LVGL/GUI/lvgl/src/draw/lv_draw.c ****             return sizeof(lv_draw_label_dsc_t);
 566:../../Middlewares/LVGL/GUI/lvgl/src/draw/lv_draw.c ****         case LV_DRAW_TASK_TYPE_IMAGE:
 567:../../Middlewares/LVGL/GUI/lvgl/src/draw/lv_draw.c ****             return sizeof(lv_draw_image_dsc_t);
 568:../../Middlewares/LVGL/GUI/lvgl/src/draw/lv_draw.c ****         case LV_DRAW_TASK_TYPE_LAYER:
 569:../../Middlewares/LVGL/GUI/lvgl/src/draw/lv_draw.c ****             return sizeof(lv_draw_image_dsc_t);
 570:../../Middlewares/LVGL/GUI/lvgl/src/draw/lv_draw.c ****         case LV_DRAW_TASK_TYPE_LINE:
 571:../../Middlewares/LVGL/GUI/lvgl/src/draw/lv_draw.c ****             return sizeof(lv_draw_line_dsc_t);
  44              		.loc 1 571 20 is_stmt 0 view .LVU2
  45 0014 4020     		movs	r0, #64
  46              	.LVL1:
  47              		.loc 1 571 20 view .LVU3
  48 0016 7047     		bx	lr
  49              	.LVL2:
  50              	.L17:
 553:../../Middlewares/LVGL/GUI/lvgl/src/draw/lv_draw.c ****     switch(type) {
  51              		.loc 1 553 5 view .LVU4
  52 0018 0328     		cmp	r0, #3
  53 001a 14D0     		beq	.L7
  54 001c 05D8     		bhi	.L4
  55 001e 0128     		cmp	r0, #1
  56 0020 13D0     		beq	.L8
ARM GAS  C:\Users\28576\AppData\Local\Temp\cc59YylE.s 			page 12


  57 0022 0228     		cmp	r0, #2
  58 0024 13D1     		bne	.L9
 559:../../Middlewares/LVGL/GUI/lvgl/src/draw/lv_draw.c ****         case LV_DRAW_TASK_TYPE_BOX_SHADOW:
  59              		.loc 1 559 20 view .LVU5
  60 0026 2C20     		movs	r0, #44
  61              	.LVL3:
 559:../../Middlewares/LVGL/GUI/lvgl/src/draw/lv_draw.c ****         case LV_DRAW_TASK_TYPE_BOX_SHADOW:
  62              		.loc 1 559 20 view .LVU6
  63 0028 7047     		bx	lr
  64              	.LVL4:
  65              	.L4:
 553:../../Middlewares/LVGL/GUI/lvgl/src/draw/lv_draw.c ****     switch(type) {
  66              		.loc 1 553 5 view .LVU7
  67 002a 0428     		cmp	r0, #4
  68 002c 11D0     		beq	.L10
  69 002e 0528     		cmp	r0, #5
  70 0030 11D1     		bne	.L11
 565:../../Middlewares/LVGL/GUI/lvgl/src/draw/lv_draw.c ****         case LV_DRAW_TASK_TYPE_IMAGE:
  71              		.loc 1 565 20 view .LVU8
  72 0032 6C20     		movs	r0, #108
  73              	.LVL5:
 565:../../Middlewares/LVGL/GUI/lvgl/src/draw/lv_draw.c ****         case LV_DRAW_TASK_TYPE_IMAGE:
  74              		.loc 1 565 20 view .LVU9
  75 0034 7047     		bx	lr
  76              	.LVL6:
  77              	.L5:
 553:../../Middlewares/LVGL/GUI/lvgl/src/draw/lv_draw.c ****         case LV_DRAW_TASK_TYPE_NONE:
  78              		.loc 1 553 5 view .LVU10
  79 0036 0A28     		cmp	r0, #10
  80 0038 15D0     		beq	.L15
  81 003a 0B28     		cmp	r0, #11
  82 003c 15D1     		bne	.L16
 572:../../Middlewares/LVGL/GUI/lvgl/src/draw/lv_draw.c ****         case LV_DRAW_TASK_TYPE_ARC:
 573:../../Middlewares/LVGL/GUI/lvgl/src/draw/lv_draw.c ****             return sizeof(lv_draw_arc_dsc_t);
 574:../../Middlewares/LVGL/GUI/lvgl/src/draw/lv_draw.c ****         case LV_DRAW_TASK_TYPE_TRIANGLE:
 575:../../Middlewares/LVGL/GUI/lvgl/src/draw/lv_draw.c ****             return sizeof(lv_draw_triangle_dsc_t);
 576:../../Middlewares/LVGL/GUI/lvgl/src/draw/lv_draw.c ****         case LV_DRAW_TASK_TYPE_MASK_RECTANGLE:
 577:../../Middlewares/LVGL/GUI/lvgl/src/draw/lv_draw.c ****             return sizeof(lv_draw_mask_rect_dsc_t);
  83              		.loc 1 577 20 view .LVU11
  84 003e 3420     		movs	r0, #52
  85              	.LVL7:
  86              		.loc 1 577 20 view .LVU12
  87 0040 7047     		bx	lr
  88              	.LVL8:
  89              	.L6:
 567:../../Middlewares/LVGL/GUI/lvgl/src/draw/lv_draw.c ****         case LV_DRAW_TASK_TYPE_LAYER:
  90              		.loc 1 567 20 view .LVU13
  91 0042 6C20     		movs	r0, #108
  92              	.LVL9:
 567:../../Middlewares/LVGL/GUI/lvgl/src/draw/lv_draw.c ****         case LV_DRAW_TASK_TYPE_LAYER:
  93              		.loc 1 567 20 view .LVU14
  94 0044 7047     		bx	lr
  95              	.LVL10:
  96              	.L7:
 561:../../Middlewares/LVGL/GUI/lvgl/src/draw/lv_draw.c ****         case LV_DRAW_TASK_TYPE_LETTER:
  97              		.loc 1 561 20 view .LVU15
  98 0046 3820     		movs	r0, #56
ARM GAS  C:\Users\28576\AppData\Local\Temp\cc59YylE.s 			page 13


  99              	.LVL11:
 561:../../Middlewares/LVGL/GUI/lvgl/src/draw/lv_draw.c ****         case LV_DRAW_TASK_TYPE_LETTER:
 100              		.loc 1 561 20 view .LVU16
 101 0048 7047     		bx	lr
 102              	.LVL12:
 103              	.L8:
 557:../../Middlewares/LVGL/GUI/lvgl/src/draw/lv_draw.c ****         case LV_DRAW_TASK_TYPE_BORDER:
 104              		.loc 1 557 20 view .LVU17
 105 004a 3020     		movs	r0, #48
 106              	.LVL13:
 557:../../Middlewares/LVGL/GUI/lvgl/src/draw/lv_draw.c ****         case LV_DRAW_TASK_TYPE_BORDER:
 107              		.loc 1 557 20 view .LVU18
 108 004c 7047     		bx	lr
 109              	.LVL14:
 110              	.L9:
 553:../../Middlewares/LVGL/GUI/lvgl/src/draw/lv_draw.c ****         case LV_DRAW_TASK_TYPE_NONE:
 111              		.loc 1 553 5 view .LVU19
 112 004e 0020     		movs	r0, #0
 113              	.LVL15:
 553:../../Middlewares/LVGL/GUI/lvgl/src/draw/lv_draw.c ****         case LV_DRAW_TASK_TYPE_NONE:
 114              		.loc 1 553 5 view .LVU20
 115 0050 7047     		bx	lr
 116              	.LVL16:
 117              	.L10:
 563:../../Middlewares/LVGL/GUI/lvgl/src/draw/lv_draw.c ****         case LV_DRAW_TASK_TYPE_LABEL:
 118              		.loc 1 563 20 view .LVU21
 119 0052 5020     		movs	r0, #80
 120              	.LVL17:
 563:../../Middlewares/LVGL/GUI/lvgl/src/draw/lv_draw.c ****         case LV_DRAW_TASK_TYPE_LABEL:
 121              		.loc 1 563 20 view .LVU22
 122 0054 7047     		bx	lr
 123              	.LVL18:
 124              	.L11:
 553:../../Middlewares/LVGL/GUI/lvgl/src/draw/lv_draw.c ****         case LV_DRAW_TASK_TYPE_NONE:
 125              		.loc 1 553 5 view .LVU23
 126 0056 0020     		movs	r0, #0
 127              	.LVL19:
 553:../../Middlewares/LVGL/GUI/lvgl/src/draw/lv_draw.c ****         case LV_DRAW_TASK_TYPE_NONE:
 128              		.loc 1 553 5 view .LVU24
 129 0058 7047     		bx	lr
 130              	.LVL20:
 131              	.L12:
 573:../../Middlewares/LVGL/GUI/lvgl/src/draw/lv_draw.c ****         case LV_DRAW_TASK_TYPE_TRIANGLE:
 132              		.loc 1 573 20 view .LVU25
 133 005a 4020     		movs	r0, #64
 134              	.LVL21:
 573:../../Middlewares/LVGL/GUI/lvgl/src/draw/lv_draw.c ****         case LV_DRAW_TASK_TYPE_TRIANGLE:
 135              		.loc 1 573 20 view .LVU26
 136 005c 7047     		bx	lr
 137              	.LVL22:
 138              	.L13:
 569:../../Middlewares/LVGL/GUI/lvgl/src/draw/lv_draw.c ****         case LV_DRAW_TASK_TYPE_LINE:
 139              		.loc 1 569 20 view .LVU27
 140 005e 6C20     		movs	r0, #108
 141              	.LVL23:
 569:../../Middlewares/LVGL/GUI/lvgl/src/draw/lv_draw.c ****         case LV_DRAW_TASK_TYPE_LINE:
 142              		.loc 1 569 20 view .LVU28
ARM GAS  C:\Users\28576\AppData\Local\Temp\cc59YylE.s 			page 14


 143 0060 7047     		bx	lr
 144              	.LVL24:
 145              	.L14:
 553:../../Middlewares/LVGL/GUI/lvgl/src/draw/lv_draw.c ****         case LV_DRAW_TASK_TYPE_NONE:
 146              		.loc 1 553 5 view .LVU29
 147 0062 0020     		movs	r0, #0
 148              	.LVL25:
 553:../../Middlewares/LVGL/GUI/lvgl/src/draw/lv_draw.c ****         case LV_DRAW_TASK_TYPE_NONE:
 149              		.loc 1 553 5 view .LVU30
 150 0064 7047     		bx	lr
 151              	.LVL26:
 152              	.L15:
 575:../../Middlewares/LVGL/GUI/lvgl/src/draw/lv_draw.c ****         case LV_DRAW_TASK_TYPE_MASK_RECTANGLE:
 153              		.loc 1 575 20 view .LVU31
 154 0066 4420     		movs	r0, #68
 155              	.LVL27:
 575:../../Middlewares/LVGL/GUI/lvgl/src/draw/lv_draw.c ****         case LV_DRAW_TASK_TYPE_MASK_RECTANGLE:
 156              		.loc 1 575 20 view .LVU32
 157 0068 7047     		bx	lr
 158              	.LVL28:
 159              	.L16:
 553:../../Middlewares/LVGL/GUI/lvgl/src/draw/lv_draw.c ****         case LV_DRAW_TASK_TYPE_NONE:
 160              		.loc 1 553 5 view .LVU33
 161 006a 0020     		movs	r0, #0
 162              	.LVL29:
 578:../../Middlewares/LVGL/GUI/lvgl/src/draw/lv_draw.c **** 
 579:../../Middlewares/LVGL/GUI/lvgl/src/draw/lv_draw.c ****         /* no struct match for LV_DRAW_TASK_TYPE_MASK_BITMAP, set it to zero now */
 580:../../Middlewares/LVGL/GUI/lvgl/src/draw/lv_draw.c ****         case LV_DRAW_TASK_TYPE_MASK_BITMAP:
 581:../../Middlewares/LVGL/GUI/lvgl/src/draw/lv_draw.c ****             return 0;
 582:../../Middlewares/LVGL/GUI/lvgl/src/draw/lv_draw.c **** #if LV_USE_VECTOR_GRAPHIC
 583:../../Middlewares/LVGL/GUI/lvgl/src/draw/lv_draw.c ****         case LV_DRAW_TASK_TYPE_VECTOR:
 584:../../Middlewares/LVGL/GUI/lvgl/src/draw/lv_draw.c ****             return sizeof(lv_draw_vector_task_dsc_t);
 585:../../Middlewares/LVGL/GUI/lvgl/src/draw/lv_draw.c **** #endif
 586:../../Middlewares/LVGL/GUI/lvgl/src/draw/lv_draw.c **** #if LV_USE_3DTEXTURE
 587:../../Middlewares/LVGL/GUI/lvgl/src/draw/lv_draw.c ****         case LV_DRAW_TASK_TYPE_3D:
 588:../../Middlewares/LVGL/GUI/lvgl/src/draw/lv_draw.c ****             return sizeof(lv_draw_3d_dsc_t);
 589:../../Middlewares/LVGL/GUI/lvgl/src/draw/lv_draw.c **** #endif
 590:../../Middlewares/LVGL/GUI/lvgl/src/draw/lv_draw.c ****             /* Note that default is not added here because when adding new draw task type,
 591:../../Middlewares/LVGL/GUI/lvgl/src/draw/lv_draw.c ****              * if forget to add case, the compiler will automatically report a warning.
 592:../../Middlewares/LVGL/GUI/lvgl/src/draw/lv_draw.c ****              */
 593:../../Middlewares/LVGL/GUI/lvgl/src/draw/lv_draw.c ****     }
 594:../../Middlewares/LVGL/GUI/lvgl/src/draw/lv_draw.c **** 
 595:../../Middlewares/LVGL/GUI/lvgl/src/draw/lv_draw.c ****     return 0;
 596:../../Middlewares/LVGL/GUI/lvgl/src/draw/lv_draw.c **** }
 163              		.loc 1 596 1 view .LVU34
 164 006c 7047     		bx	lr
 165              		.cfi_endproc
 166              	.LFE211:
 168              		.section	.text.get_first_available_task,"ax",%progbits
 169              		.align	1
 170              		.syntax unified
 171              		.thumb
 172              		.thumb_func
 174              	get_first_available_task:
 175              	.LVL30:
 176              	.LFB213:
 597:../../Middlewares/LVGL/GUI/lvgl/src/draw/lv_draw.c **** 
ARM GAS  C:\Users\28576\AppData\Local\Temp\cc59YylE.s 			page 15


 598:../../Middlewares/LVGL/GUI/lvgl/src/draw/lv_draw.c **** /**
 599:../../Middlewares/LVGL/GUI/lvgl/src/draw/lv_draw.c ****  * Clean-up resources allocated by a finished task
 600:../../Middlewares/LVGL/GUI/lvgl/src/draw/lv_draw.c ****  * @param t         pointer to a draw task
 601:../../Middlewares/LVGL/GUI/lvgl/src/draw/lv_draw.c ****  * @param disp      pointer to a display on which the task was drawn
 602:../../Middlewares/LVGL/GUI/lvgl/src/draw/lv_draw.c ****  */
 603:../../Middlewares/LVGL/GUI/lvgl/src/draw/lv_draw.c **** static void cleanup_task(lv_draw_task_t * t, lv_display_t * disp)
 604:../../Middlewares/LVGL/GUI/lvgl/src/draw/lv_draw.c **** {
 605:../../Middlewares/LVGL/GUI/lvgl/src/draw/lv_draw.c ****     LV_PROFILER_DRAW_BEGIN;
 606:../../Middlewares/LVGL/GUI/lvgl/src/draw/lv_draw.c ****     /*If it was layer drawing free the layer too*/
 607:../../Middlewares/LVGL/GUI/lvgl/src/draw/lv_draw.c ****     if(t->type == LV_DRAW_TASK_TYPE_LAYER) {
 608:../../Middlewares/LVGL/GUI/lvgl/src/draw/lv_draw.c ****         lv_draw_image_dsc_t * draw_image_dsc = t->draw_dsc;
 609:../../Middlewares/LVGL/GUI/lvgl/src/draw/lv_draw.c ****         lv_layer_t * layer_drawn = (lv_layer_t *)draw_image_dsc->src;
 610:../../Middlewares/LVGL/GUI/lvgl/src/draw/lv_draw.c **** 
 611:../../Middlewares/LVGL/GUI/lvgl/src/draw/lv_draw.c ****         if(layer_drawn->draw_buf) {
 612:../../Middlewares/LVGL/GUI/lvgl/src/draw/lv_draw.c ****             int32_t h = lv_area_get_height(&layer_drawn->buf_area);
 613:../../Middlewares/LVGL/GUI/lvgl/src/draw/lv_draw.c ****             uint32_t layer_size_byte = h * layer_drawn->draw_buf->header.stride;
 614:../../Middlewares/LVGL/GUI/lvgl/src/draw/lv_draw.c **** 
 615:../../Middlewares/LVGL/GUI/lvgl/src/draw/lv_draw.c ****             if(_draw_info.used_memory_for_layers >= layer_size_byte) {
 616:../../Middlewares/LVGL/GUI/lvgl/src/draw/lv_draw.c ****                 _draw_info.used_memory_for_layers -= layer_size_byte;
 617:../../Middlewares/LVGL/GUI/lvgl/src/draw/lv_draw.c ****             }
 618:../../Middlewares/LVGL/GUI/lvgl/src/draw/lv_draw.c ****             else {
 619:../../Middlewares/LVGL/GUI/lvgl/src/draw/lv_draw.c ****                 _draw_info.used_memory_for_layers = 0;
 620:../../Middlewares/LVGL/GUI/lvgl/src/draw/lv_draw.c ****                 LV_LOG_WARN("More layers were freed than allocated");
 621:../../Middlewares/LVGL/GUI/lvgl/src/draw/lv_draw.c ****             }
 622:../../Middlewares/LVGL/GUI/lvgl/src/draw/lv_draw.c ****             LV_LOG_INFO("Layer memory used: %" LV_PRIu32 " kB", get_layer_size_kb(_draw_info.used_m
 623:../../Middlewares/LVGL/GUI/lvgl/src/draw/lv_draw.c ****             lv_draw_buf_destroy(layer_drawn->draw_buf);
 624:../../Middlewares/LVGL/GUI/lvgl/src/draw/lv_draw.c ****             layer_drawn->draw_buf = NULL;
 625:../../Middlewares/LVGL/GUI/lvgl/src/draw/lv_draw.c ****         }
 626:../../Middlewares/LVGL/GUI/lvgl/src/draw/lv_draw.c **** 
 627:../../Middlewares/LVGL/GUI/lvgl/src/draw/lv_draw.c ****         /*Remove the layer from  the display's*/
 628:../../Middlewares/LVGL/GUI/lvgl/src/draw/lv_draw.c ****         if(disp) {
 629:../../Middlewares/LVGL/GUI/lvgl/src/draw/lv_draw.c ****             lv_layer_t * l2 = disp->layer_head;
 630:../../Middlewares/LVGL/GUI/lvgl/src/draw/lv_draw.c ****             while(l2) {
 631:../../Middlewares/LVGL/GUI/lvgl/src/draw/lv_draw.c ****                 if(l2->next == layer_drawn) {
 632:../../Middlewares/LVGL/GUI/lvgl/src/draw/lv_draw.c ****                     l2->next = layer_drawn->next;
 633:../../Middlewares/LVGL/GUI/lvgl/src/draw/lv_draw.c ****                     break;
 634:../../Middlewares/LVGL/GUI/lvgl/src/draw/lv_draw.c ****                 }
 635:../../Middlewares/LVGL/GUI/lvgl/src/draw/lv_draw.c ****                 l2 = l2->next;
 636:../../Middlewares/LVGL/GUI/lvgl/src/draw/lv_draw.c ****             }
 637:../../Middlewares/LVGL/GUI/lvgl/src/draw/lv_draw.c **** 
 638:../../Middlewares/LVGL/GUI/lvgl/src/draw/lv_draw.c ****             if(disp->layer_deinit) {
 639:../../Middlewares/LVGL/GUI/lvgl/src/draw/lv_draw.c ****                 LV_PROFILER_DRAW_BEGIN_TAG("layer_deinit");
 640:../../Middlewares/LVGL/GUI/lvgl/src/draw/lv_draw.c ****                 disp->layer_deinit(disp, layer_drawn);
 641:../../Middlewares/LVGL/GUI/lvgl/src/draw/lv_draw.c ****                 LV_PROFILER_DRAW_END_TAG("layer_deinit");
 642:../../Middlewares/LVGL/GUI/lvgl/src/draw/lv_draw.c ****             }
 643:../../Middlewares/LVGL/GUI/lvgl/src/draw/lv_draw.c ****             lv_free(layer_drawn);
 644:../../Middlewares/LVGL/GUI/lvgl/src/draw/lv_draw.c ****         }
 645:../../Middlewares/LVGL/GUI/lvgl/src/draw/lv_draw.c ****     }
 646:../../Middlewares/LVGL/GUI/lvgl/src/draw/lv_draw.c ****     lv_draw_label_dsc_t * draw_label_dsc = lv_draw_task_get_label_dsc(t);
 647:../../Middlewares/LVGL/GUI/lvgl/src/draw/lv_draw.c ****     if(draw_label_dsc && draw_label_dsc->text_local) {
 648:../../Middlewares/LVGL/GUI/lvgl/src/draw/lv_draw.c ****         lv_free((void *)draw_label_dsc->text);
 649:../../Middlewares/LVGL/GUI/lvgl/src/draw/lv_draw.c ****         draw_label_dsc->text = NULL;
 650:../../Middlewares/LVGL/GUI/lvgl/src/draw/lv_draw.c ****     }
 651:../../Middlewares/LVGL/GUI/lvgl/src/draw/lv_draw.c **** 
 652:../../Middlewares/LVGL/GUI/lvgl/src/draw/lv_draw.c ****     lv_free(t);
 653:../../Middlewares/LVGL/GUI/lvgl/src/draw/lv_draw.c ****     LV_PROFILER_DRAW_END;
 654:../../Middlewares/LVGL/GUI/lvgl/src/draw/lv_draw.c **** }
ARM GAS  C:\Users\28576\AppData\Local\Temp\cc59YylE.s 			page 16


 655:../../Middlewares/LVGL/GUI/lvgl/src/draw/lv_draw.c **** 
 656:../../Middlewares/LVGL/GUI/lvgl/src/draw/lv_draw.c **** static lv_draw_task_t * get_first_available_task(lv_layer_t * layer)
 657:../../Middlewares/LVGL/GUI/lvgl/src/draw/lv_draw.c **** {
 177              		.loc 1 657 1 is_stmt 1 view -0
 178              		.cfi_startproc
 179              		@ args = 0, pretend = 0, frame = 0
 180              		@ frame_needed = 0, uses_anonymous_args = 0
 181              		@ link register save eliminated.
 658:../../Middlewares/LVGL/GUI/lvgl/src/draw/lv_draw.c ****     LV_PROFILER_DRAW_BEGIN;
 182              		.loc 1 658 27 view .LVU36
 659:../../Middlewares/LVGL/GUI/lvgl/src/draw/lv_draw.c ****     /* If there is only 1 draw unit the task can be consumed linearly as
 660:../../Middlewares/LVGL/GUI/lvgl/src/draw/lv_draw.c ****      * they are added in the correct order. However, it can happen that
 661:../../Middlewares/LVGL/GUI/lvgl/src/draw/lv_draw.c ****      * there is a `LV_DRAW_TASK_TYPE_LAYER` which can be blended only when
 662:../../Middlewares/LVGL/GUI/lvgl/src/draw/lv_draw.c ****      * all its tasks are ready. As other areas might be on top of that
 663:../../Middlewares/LVGL/GUI/lvgl/src/draw/lv_draw.c ****      * layer-to-blend don't skip it. Instead stop there, so that the
 664:../../Middlewares/LVGL/GUI/lvgl/src/draw/lv_draw.c ****      * draw tasks of that layer can be consumed and can be finished.
 665:../../Middlewares/LVGL/GUI/lvgl/src/draw/lv_draw.c ****      * After that this layer-to-blenf will have `LV_DRAW_TASK_STATE_QUEUED`
 666:../../Middlewares/LVGL/GUI/lvgl/src/draw/lv_draw.c ****      * so it can be blended normally.*/
 667:../../Middlewares/LVGL/GUI/lvgl/src/draw/lv_draw.c ****     lv_draw_task_t * t = layer->draw_task_head;
 183              		.loc 1 667 5 view .LVU37
 184              		.loc 1 667 22 is_stmt 0 view .LVU38
 185 0000 406C     		ldr	r0, [r0, #68]
 186              	.LVL31:
 668:../../Middlewares/LVGL/GUI/lvgl/src/draw/lv_draw.c ****     while(t) {
 187              		.loc 1 668 5 is_stmt 1 view .LVU39
 188              		.loc 1 668 11 view .LVU40
 189 0002 10B1     		cbz	r0, .L18
 669:../../Middlewares/LVGL/GUI/lvgl/src/draw/lv_draw.c ****         /*Not queued yet, leave this layer while the first task is queued*/
 670:../../Middlewares/LVGL/GUI/lvgl/src/draw/lv_draw.c ****         if(t->state != LV_DRAW_TASK_STATE_QUEUED) {
 190              		.loc 1 670 9 view .LVU41
 191              		.loc 1 670 13 is_stmt 0 view .LVU42
 192 0004 036D     		ldr	r3, [r0, #80]
 193              		.loc 1 670 11 view .LVU43
 194 0006 012B     		cmp	r3, #1
 195 0008 00D1     		bne	.L21
 196              	.LVL32:
 197              	.L18:
 671:../../Middlewares/LVGL/GUI/lvgl/src/draw/lv_draw.c ****             t = NULL;
 672:../../Middlewares/LVGL/GUI/lvgl/src/draw/lv_draw.c ****             break;
 673:../../Middlewares/LVGL/GUI/lvgl/src/draw/lv_draw.c ****         }
 674:../../Middlewares/LVGL/GUI/lvgl/src/draw/lv_draw.c ****         /*It's a supported and queued task, process it*/
 675:../../Middlewares/LVGL/GUI/lvgl/src/draw/lv_draw.c ****         else {
 676:../../Middlewares/LVGL/GUI/lvgl/src/draw/lv_draw.c ****             break;
 677:../../Middlewares/LVGL/GUI/lvgl/src/draw/lv_draw.c ****         }
 678:../../Middlewares/LVGL/GUI/lvgl/src/draw/lv_draw.c ****         t = t->next;
 679:../../Middlewares/LVGL/GUI/lvgl/src/draw/lv_draw.c ****     }
 680:../../Middlewares/LVGL/GUI/lvgl/src/draw/lv_draw.c **** 
 681:../../Middlewares/LVGL/GUI/lvgl/src/draw/lv_draw.c ****     LV_PROFILER_DRAW_END;
 682:../../Middlewares/LVGL/GUI/lvgl/src/draw/lv_draw.c ****     return t;
 683:../../Middlewares/LVGL/GUI/lvgl/src/draw/lv_draw.c **** }
 198              		.loc 1 683 1 view .LVU44
 199 000a 7047     		bx	lr
 200              	.LVL33:
 201              	.L21:
 671:../../Middlewares/LVGL/GUI/lvgl/src/draw/lv_draw.c ****             t = NULL;
 202              		.loc 1 671 15 view .LVU45
 203 000c 0020     		movs	r0, #0
ARM GAS  C:\Users\28576\AppData\Local\Temp\cc59YylE.s 			page 17


 204              	.LVL34:
 681:../../Middlewares/LVGL/GUI/lvgl/src/draw/lv_draw.c ****     return t;
 205              		.loc 1 681 25 is_stmt 1 view .LVU46
 682:../../Middlewares/LVGL/GUI/lvgl/src/draw/lv_draw.c **** }
 206              		.loc 1 682 5 view .LVU47
 682:../../Middlewares/LVGL/GUI/lvgl/src/draw/lv_draw.c **** }
 207              		.loc 1 682 12 is_stmt 0 view .LVU48
 208 000e FCE7     		b	.L18
 209              		.cfi_endproc
 210              	.LFE213:
 212              		.section	.text.cleanup_task,"ax",%progbits
 213              		.align	1
 214              		.syntax unified
 215              		.thumb
 216              		.thumb_func
 218              	cleanup_task:
 219              	.LVL35:
 220              	.LFB212:
 604:../../Middlewares/LVGL/GUI/lvgl/src/draw/lv_draw.c ****     LV_PROFILER_DRAW_BEGIN;
 221              		.loc 1 604 1 is_stmt 1 view -0
 222              		.cfi_startproc
 223              		@ args = 0, pretend = 0, frame = 0
 224              		@ frame_needed = 0, uses_anonymous_args = 0
 604:../../Middlewares/LVGL/GUI/lvgl/src/draw/lv_draw.c ****     LV_PROFILER_DRAW_BEGIN;
 225              		.loc 1 604 1 is_stmt 0 view .LVU50
 226 0000 70B5     		push	{r4, r5, r6, lr}
 227              	.LCFI0:
 228              		.cfi_def_cfa_offset 16
 229              		.cfi_offset 4, -16
 230              		.cfi_offset 5, -12
 231              		.cfi_offset 6, -8
 232              		.cfi_offset 14, -4
 233 0002 0446     		mov	r4, r0
 605:../../Middlewares/LVGL/GUI/lvgl/src/draw/lv_draw.c ****     /*If it was layer drawing free the layer too*/
 234              		.loc 1 605 27 is_stmt 1 view .LVU51
 607:../../Middlewares/LVGL/GUI/lvgl/src/draw/lv_draw.c ****         lv_draw_image_dsc_t * draw_image_dsc = t->draw_dsc;
 235              		.loc 1 607 5 view .LVU52
 607:../../Middlewares/LVGL/GUI/lvgl/src/draw/lv_draw.c ****         lv_draw_image_dsc_t * draw_image_dsc = t->draw_dsc;
 236              		.loc 1 607 9 is_stmt 0 view .LVU53
 237 0004 0379     		ldrb	r3, [r0, #4]	@ zero_extendqisi2
 607:../../Middlewares/LVGL/GUI/lvgl/src/draw/lv_draw.c ****         lv_draw_image_dsc_t * draw_image_dsc = t->draw_dsc;
 238              		.loc 1 607 7 view .LVU54
 239 0006 072B     		cmp	r3, #7
 240 0008 0DD0     		beq	.L34
 241              	.LVL36:
 242              	.L23:
 646:../../Middlewares/LVGL/GUI/lvgl/src/draw/lv_draw.c ****     if(draw_label_dsc && draw_label_dsc->text_local) {
 243              		.loc 1 646 5 is_stmt 1 view .LVU55
 646:../../Middlewares/LVGL/GUI/lvgl/src/draw/lv_draw.c ****     if(draw_label_dsc && draw_label_dsc->text_local) {
 244              		.loc 1 646 44 is_stmt 0 view .LVU56
 245 000a 2046     		mov	r0, r4
 246 000c FFF7FEFF 		bl	lv_draw_task_get_label_dsc
 247              	.LVL37:
 647:../../Middlewares/LVGL/GUI/lvgl/src/draw/lv_draw.c ****         lv_free((void *)draw_label_dsc->text);
 248              		.loc 1 647 5 is_stmt 1 view .LVU57
 647:../../Middlewares/LVGL/GUI/lvgl/src/draw/lv_draw.c ****         lv_free((void *)draw_label_dsc->text);
 249              		.loc 1 647 7 is_stmt 0 view .LVU58
ARM GAS  C:\Users\28576\AppData\Local\Temp\cc59YylE.s 			page 18


 250 0010 0546     		mov	r5, r0
 251 0012 20B1     		cbz	r0, .L31
 647:../../Middlewares/LVGL/GUI/lvgl/src/draw/lv_draw.c ****         lv_free((void *)draw_label_dsc->text);
 252              		.loc 1 647 23 discriminator 1 view .LVU59
 253 0014 90F85C30 		ldrb	r3, [r0, #92]	@ zero_extendqisi2
 254 0018 13F0010F 		tst	r3, #1
 255 001c 38D1     		bne	.L35
 256              	.LVL38:
 257              	.L31:
 652:../../Middlewares/LVGL/GUI/lvgl/src/draw/lv_draw.c ****     LV_PROFILER_DRAW_END;
 258              		.loc 1 652 5 is_stmt 1 view .LVU60
 259 001e 2046     		mov	r0, r4
 260 0020 FFF7FEFF 		bl	lv_free
 261              	.LVL39:
 653:../../Middlewares/LVGL/GUI/lvgl/src/draw/lv_draw.c **** }
 262              		.loc 1 653 25 view .LVU61
 654:../../Middlewares/LVGL/GUI/lvgl/src/draw/lv_draw.c **** 
 263              		.loc 1 654 1 is_stmt 0 view .LVU62
 264 0024 70BD     		pop	{r4, r5, r6, pc}
 265              	.LVL40:
 266              	.L34:
 654:../../Middlewares/LVGL/GUI/lvgl/src/draw/lv_draw.c **** 
 267              		.loc 1 654 1 view .LVU63
 268 0026 0E46     		mov	r6, r1
 269              	.LBB4:
 608:../../Middlewares/LVGL/GUI/lvgl/src/draw/lv_draw.c ****         lv_layer_t * layer_drawn = (lv_layer_t *)draw_image_dsc->src;
 270              		.loc 1 608 9 is_stmt 1 view .LVU64
 608:../../Middlewares/LVGL/GUI/lvgl/src/draw/lv_draw.c ****         lv_layer_t * layer_drawn = (lv_layer_t *)draw_image_dsc->src;
 271              		.loc 1 608 31 is_stmt 0 view .LVU65
 272 0028 436D     		ldr	r3, [r0, #84]
 273              	.LVL41:
 609:../../Middlewares/LVGL/GUI/lvgl/src/draw/lv_draw.c **** 
 274              		.loc 1 609 9 is_stmt 1 view .LVU66
 609:../../Middlewares/LVGL/GUI/lvgl/src/draw/lv_draw.c **** 
 275              		.loc 1 609 22 is_stmt 0 view .LVU67
 276 002a DD69     		ldr	r5, [r3, #28]
 277              	.LVL42:
 611:../../Middlewares/LVGL/GUI/lvgl/src/draw/lv_draw.c ****             int32_t h = lv_area_get_height(&layer_drawn->buf_area);
 278              		.loc 1 611 9 is_stmt 1 view .LVU68
 611:../../Middlewares/LVGL/GUI/lvgl/src/draw/lv_draw.c ****             int32_t h = lv_area_get_height(&layer_drawn->buf_area);
 279              		.loc 1 611 23 is_stmt 0 view .LVU69
 280 002c 2B68     		ldr	r3, [r5]
 281              	.LVL43:
 611:../../Middlewares/LVGL/GUI/lvgl/src/draw/lv_draw.c ****             int32_t h = lv_area_get_height(&layer_drawn->buf_area);
 282              		.loc 1 611 11 view .LVU70
 283 002e A3B1     		cbz	r3, .L24
 284              	.LBB5:
 612:../../Middlewares/LVGL/GUI/lvgl/src/draw/lv_draw.c ****             uint32_t layer_size_byte = h * layer_drawn->draw_buf->header.stride;
 285              		.loc 1 612 13 is_stmt 1 view .LVU71
 612:../../Middlewares/LVGL/GUI/lvgl/src/draw/lv_draw.c ****             uint32_t layer_size_byte = h * layer_drawn->draw_buf->header.stride;
 286              		.loc 1 612 25 is_stmt 0 view .LVU72
 287 0030 281D     		adds	r0, r5, #4
 288              	.LVL44:
 612:../../Middlewares/LVGL/GUI/lvgl/src/draw/lv_draw.c ****             uint32_t layer_size_byte = h * layer_drawn->draw_buf->header.stride;
 289              		.loc 1 612 25 view .LVU73
 290 0032 FFF7FEFF 		bl	lv_area_get_height
 291              	.LVL45:
ARM GAS  C:\Users\28576\AppData\Local\Temp\cc59YylE.s 			page 19


 613:../../Middlewares/LVGL/GUI/lvgl/src/draw/lv_draw.c **** 
 292              		.loc 1 613 13 is_stmt 1 view .LVU74
 613:../../Middlewares/LVGL/GUI/lvgl/src/draw/lv_draw.c **** 
 293              		.loc 1 613 55 is_stmt 0 view .LVU75
 294 0036 2B68     		ldr	r3, [r5]
 613:../../Middlewares/LVGL/GUI/lvgl/src/draw/lv_draw.c **** 
 295              		.loc 1 613 73 view .LVU76
 296 0038 1B89     		ldrh	r3, [r3, #8]
 613:../../Middlewares/LVGL/GUI/lvgl/src/draw/lv_draw.c **** 
 297              		.loc 1 613 42 view .LVU77
 298 003a 03FB00F0 		mul	r0, r3, r0
 299              	.LVL46:
 615:../../Middlewares/LVGL/GUI/lvgl/src/draw/lv_draw.c ****                 _draw_info.used_memory_for_layers -= layer_size_byte;
 300              		.loc 1 615 13 is_stmt 1 view .LVU78
 615:../../Middlewares/LVGL/GUI/lvgl/src/draw/lv_draw.c ****                 _draw_info.used_memory_for_layers -= layer_size_byte;
 301              		.loc 1 615 26 is_stmt 0 view .LVU79
 302 003e 174B     		ldr	r3, .L37
 303 0040 D3F82C31 		ldr	r3, [r3, #300]
 615:../../Middlewares/LVGL/GUI/lvgl/src/draw/lv_draw.c ****                 _draw_info.used_memory_for_layers -= layer_size_byte;
 304              		.loc 1 615 15 view .LVU80
 305 0044 8342     		cmp	r3, r0
 306 0046 12D3     		bcc	.L25
 616:../../Middlewares/LVGL/GUI/lvgl/src/draw/lv_draw.c ****             }
 307              		.loc 1 616 17 is_stmt 1 view .LVU81
 616:../../Middlewares/LVGL/GUI/lvgl/src/draw/lv_draw.c ****             }
 308              		.loc 1 616 51 is_stmt 0 view .LVU82
 309 0048 1B1A     		subs	r3, r3, r0
 310 004a 144A     		ldr	r2, .L37
 311 004c C2F82C31 		str	r3, [r2, #300]
 312              	.L26:
 620:../../Middlewares/LVGL/GUI/lvgl/src/draw/lv_draw.c ****             }
 313              		.loc 1 620 17 is_stmt 1 view .LVU83
 620:../../Middlewares/LVGL/GUI/lvgl/src/draw/lv_draw.c ****             }
 314              		.loc 1 620 17 view .LVU84
 620:../../Middlewares/LVGL/GUI/lvgl/src/draw/lv_draw.c ****             }
 315              		.loc 1 620 17 view .LVU85
 622:../../Middlewares/LVGL/GUI/lvgl/src/draw/lv_draw.c ****             lv_draw_buf_destroy(layer_drawn->draw_buf);
 316              		.loc 1 622 13 view .LVU86
 622:../../Middlewares/LVGL/GUI/lvgl/src/draw/lv_draw.c ****             lv_draw_buf_destroy(layer_drawn->draw_buf);
 317              		.loc 1 622 13 view .LVU87
 622:../../Middlewares/LVGL/GUI/lvgl/src/draw/lv_draw.c ****             lv_draw_buf_destroy(layer_drawn->draw_buf);
 318              		.loc 1 622 13 view .LVU88
 623:../../Middlewares/LVGL/GUI/lvgl/src/draw/lv_draw.c ****             layer_drawn->draw_buf = NULL;
 319              		.loc 1 623 13 view .LVU89
 320 0050 2868     		ldr	r0, [r5]
 321              	.LVL47:
 623:../../Middlewares/LVGL/GUI/lvgl/src/draw/lv_draw.c ****             layer_drawn->draw_buf = NULL;
 322              		.loc 1 623 13 is_stmt 0 view .LVU90
 323 0052 FFF7FEFF 		bl	lv_draw_buf_destroy
 324              	.LVL48:
 624:../../Middlewares/LVGL/GUI/lvgl/src/draw/lv_draw.c ****         }
 325              		.loc 1 624 13 is_stmt 1 view .LVU91
 624:../../Middlewares/LVGL/GUI/lvgl/src/draw/lv_draw.c ****         }
 326              		.loc 1 624 35 is_stmt 0 view .LVU92
 327 0056 0023     		movs	r3, #0
 328 0058 2B60     		str	r3, [r5]
 329              	.LVL49:
ARM GAS  C:\Users\28576\AppData\Local\Temp\cc59YylE.s 			page 20


 330              	.L24:
 624:../../Middlewares/LVGL/GUI/lvgl/src/draw/lv_draw.c ****         }
 331              		.loc 1 624 35 view .LVU93
 332              	.LBE5:
 628:../../Middlewares/LVGL/GUI/lvgl/src/draw/lv_draw.c ****             lv_layer_t * l2 = disp->layer_head;
 333              		.loc 1 628 9 is_stmt 1 view .LVU94
 628:../../Middlewares/LVGL/GUI/lvgl/src/draw/lv_draw.c ****             lv_layer_t * l2 = disp->layer_head;
 334              		.loc 1 628 11 is_stmt 0 view .LVU95
 335 005a 002E     		cmp	r6, #0
 336 005c D5D0     		beq	.L23
 337              	.LBB6:
 629:../../Middlewares/LVGL/GUI/lvgl/src/draw/lv_draw.c ****             while(l2) {
 338              		.loc 1 629 13 is_stmt 1 view .LVU96
 629:../../Middlewares/LVGL/GUI/lvgl/src/draw/lv_draw.c ****             while(l2) {
 339              		.loc 1 629 26 is_stmt 0 view .LVU97
 340 005e D6F8B032 		ldr	r3, [r6, #688]
 341              	.LVL50:
 630:../../Middlewares/LVGL/GUI/lvgl/src/draw/lv_draw.c ****                 if(l2->next == layer_drawn) {
 342              		.loc 1 630 13 is_stmt 1 view .LVU98
 343              	.L27:
 630:../../Middlewares/LVGL/GUI/lvgl/src/draw/lv_draw.c ****                 if(l2->next == layer_drawn) {
 344              		.loc 1 630 19 view .LVU99
 345 0062 5BB1     		cbz	r3, .L28
 631:../../Middlewares/LVGL/GUI/lvgl/src/draw/lv_draw.c ****                     l2->next = layer_drawn->next;
 346              		.loc 1 631 17 view .LVU100
 631:../../Middlewares/LVGL/GUI/lvgl/src/draw/lv_draw.c ****                     l2->next = layer_drawn->next;
 347              		.loc 1 631 22 is_stmt 0 view .LVU101
 348 0064 DA6C     		ldr	r2, [r3, #76]
 631:../../Middlewares/LVGL/GUI/lvgl/src/draw/lv_draw.c ****                     l2->next = layer_drawn->next;
 349              		.loc 1 631 19 view .LVU102
 350 0066 AA42     		cmp	r2, r5
 351 0068 06D0     		beq	.L36
 635:../../Middlewares/LVGL/GUI/lvgl/src/draw/lv_draw.c ****             }
 352              		.loc 1 635 20 view .LVU103
 353 006a 1346     		mov	r3, r2
 354              	.LVL51:
 635:../../Middlewares/LVGL/GUI/lvgl/src/draw/lv_draw.c ****             }
 355              		.loc 1 635 20 view .LVU104
 356 006c F9E7     		b	.L27
 357              	.LVL52:
 358              	.L25:
 635:../../Middlewares/LVGL/GUI/lvgl/src/draw/lv_draw.c ****             }
 359              		.loc 1 635 20 view .LVU105
 360              	.LBE6:
 361              	.LBB7:
 619:../../Middlewares/LVGL/GUI/lvgl/src/draw/lv_draw.c ****                 LV_LOG_WARN("More layers were freed than allocated");
 362              		.loc 1 619 17 is_stmt 1 view .LVU106
 619:../../Middlewares/LVGL/GUI/lvgl/src/draw/lv_draw.c ****                 LV_LOG_WARN("More layers were freed than allocated");
 363              		.loc 1 619 51 is_stmt 0 view .LVU107
 364 006e 0B4B     		ldr	r3, .L37
 365 0070 0022     		movs	r2, #0
 366 0072 C3F82C21 		str	r2, [r3, #300]
 367 0076 EBE7     		b	.L26
 368              	.LVL53:
 369              	.L36:
 619:../../Middlewares/LVGL/GUI/lvgl/src/draw/lv_draw.c ****                 LV_LOG_WARN("More layers were freed than allocated");
 370              		.loc 1 619 51 view .LVU108
ARM GAS  C:\Users\28576\AppData\Local\Temp\cc59YylE.s 			page 21


 371              	.LBE7:
 372              	.LBB8:
 632:../../Middlewares/LVGL/GUI/lvgl/src/draw/lv_draw.c ****                     break;
 373              		.loc 1 632 21 is_stmt 1 view .LVU109
 632:../../Middlewares/LVGL/GUI/lvgl/src/draw/lv_draw.c ****                     break;
 374              		.loc 1 632 43 is_stmt 0 view .LVU110
 375 0078 EA6C     		ldr	r2, [r5, #76]
 632:../../Middlewares/LVGL/GUI/lvgl/src/draw/lv_draw.c ****                     break;
 376              		.loc 1 632 30 view .LVU111
 377 007a DA64     		str	r2, [r3, #76]
 633:../../Middlewares/LVGL/GUI/lvgl/src/draw/lv_draw.c ****                 }
 378              		.loc 1 633 21 is_stmt 1 view .LVU112
 379              	.L28:
 638:../../Middlewares/LVGL/GUI/lvgl/src/draw/lv_draw.c ****                 LV_PROFILER_DRAW_BEGIN_TAG("layer_deinit");
 380              		.loc 1 638 13 view .LVU113
 638:../../Middlewares/LVGL/GUI/lvgl/src/draw/lv_draw.c ****                 LV_PROFILER_DRAW_BEGIN_TAG("layer_deinit");
 381              		.loc 1 638 20 is_stmt 0 view .LVU114
 382 007c 3046     		mov	r0, r6
 383 007e D6F8B832 		ldr	r3, [r6, #696]
 384              	.LVL54:
 638:../../Middlewares/LVGL/GUI/lvgl/src/draw/lv_draw.c ****                 LV_PROFILER_DRAW_BEGIN_TAG("layer_deinit");
 385              		.loc 1 638 15 view .LVU115
 386 0082 0BB1     		cbz	r3, .L30
 387              	.LVL55:
 639:../../Middlewares/LVGL/GUI/lvgl/src/draw/lv_draw.c ****                 disp->layer_deinit(disp, layer_drawn);
 388              		.loc 1 639 59 is_stmt 1 view .LVU116
 640:../../Middlewares/LVGL/GUI/lvgl/src/draw/lv_draw.c ****                 LV_PROFILER_DRAW_END_TAG("layer_deinit");
 389              		.loc 1 640 17 view .LVU117
 390 0084 2946     		mov	r1, r5
 391 0086 9847     		blx	r3
 392              	.LVL56:
 393              	.L30:
 641:../../Middlewares/LVGL/GUI/lvgl/src/draw/lv_draw.c ****             }
 394              		.loc 1 641 57 view .LVU118
 643:../../Middlewares/LVGL/GUI/lvgl/src/draw/lv_draw.c ****         }
 395              		.loc 1 643 13 view .LVU119
 396 0088 2846     		mov	r0, r5
 397 008a FFF7FEFF 		bl	lv_free
 398              	.LVL57:
 399 008e BCE7     		b	.L23
 400              	.LVL58:
 401              	.L35:
 643:../../Middlewares/LVGL/GUI/lvgl/src/draw/lv_draw.c ****         }
 402              		.loc 1 643 13 is_stmt 0 view .LVU120
 403              	.LBE8:
 404              	.LBE4:
 648:../../Middlewares/LVGL/GUI/lvgl/src/draw/lv_draw.c ****         draw_label_dsc->text = NULL;
 405              		.loc 1 648 9 is_stmt 1 view .LVU121
 406 0090 C069     		ldr	r0, [r0, #28]
 407              	.LVL59:
 648:../../Middlewares/LVGL/GUI/lvgl/src/draw/lv_draw.c ****         draw_label_dsc->text = NULL;
 408              		.loc 1 648 9 is_stmt 0 view .LVU122
 409 0092 FFF7FEFF 		bl	lv_free
 410              	.LVL60:
 649:../../Middlewares/LVGL/GUI/lvgl/src/draw/lv_draw.c ****     }
 411              		.loc 1 649 9 is_stmt 1 view .LVU123
 649:../../Middlewares/LVGL/GUI/lvgl/src/draw/lv_draw.c ****     }
ARM GAS  C:\Users\28576\AppData\Local\Temp\cc59YylE.s 			page 22


 412              		.loc 1 649 30 is_stmt 0 view .LVU124
 413 0096 0023     		movs	r3, #0
 414 0098 EB61     		str	r3, [r5, #28]
 415 009a C0E7     		b	.L31
 416              	.L38:
 417              		.align	2
 418              	.L37:
 419 009c 00000000 		.word	lv_global
 420              		.cfi_endproc
 421              	.LFE212:
 423              		.section	.text.is_independent,"ax",%progbits
 424              		.align	1
 425              		.syntax unified
 426              		.thumb
 427              		.thumb_func
 429              	is_independent:
 430              	.LVL61:
 431              	.LFB210:
 526:../../Middlewares/LVGL/GUI/lvgl/src/draw/lv_draw.c ****     LV_PROFILER_DRAW_BEGIN;
 432              		.loc 1 526 1 is_stmt 1 view -0
 433              		.cfi_startproc
 434              		@ args = 0, pretend = 0, frame = 16
 435              		@ frame_needed = 0, uses_anonymous_args = 0
 526:../../Middlewares/LVGL/GUI/lvgl/src/draw/lv_draw.c ****     LV_PROFILER_DRAW_BEGIN;
 436              		.loc 1 526 1 is_stmt 0 view .LVU126
 437 0000 30B5     		push	{r4, r5, lr}
 438              	.LCFI1:
 439              		.cfi_def_cfa_offset 12
 440              		.cfi_offset 4, -12
 441              		.cfi_offset 5, -8
 442              		.cfi_offset 14, -4
 443 0002 85B0     		sub	sp, sp, #20
 444              	.LCFI2:
 445              		.cfi_def_cfa_offset 32
 446 0004 0D46     		mov	r5, r1
 527:../../Middlewares/LVGL/GUI/lvgl/src/draw/lv_draw.c ****     lv_draw_task_t * t = layer->draw_task_head;
 447              		.loc 1 527 27 is_stmt 1 view .LVU127
 528:../../Middlewares/LVGL/GUI/lvgl/src/draw/lv_draw.c **** 
 448              		.loc 1 528 5 view .LVU128
 528:../../Middlewares/LVGL/GUI/lvgl/src/draw/lv_draw.c **** 
 449              		.loc 1 528 22 is_stmt 0 view .LVU129
 450 0006 446C     		ldr	r4, [r0, #68]
 451              	.LVL62:
 531:../../Middlewares/LVGL/GUI/lvgl/src/draw/lv_draw.c ****         if(t->state != LV_DRAW_TASK_STATE_READY) {
 452              		.loc 1 531 5 is_stmt 1 view .LVU130
 531:../../Middlewares/LVGL/GUI/lvgl/src/draw/lv_draw.c ****         if(t->state != LV_DRAW_TASK_STATE_READY) {
 453              		.loc 1 531 10 is_stmt 0 view .LVU131
 454 0008 00E0     		b	.L40
 455              	.LVL63:
 456              	.L41:
 539:../../Middlewares/LVGL/GUI/lvgl/src/draw/lv_draw.c ****     }
 457              		.loc 1 539 9 is_stmt 1 view .LVU132
 539:../../Middlewares/LVGL/GUI/lvgl/src/draw/lv_draw.c ****     }
 458              		.loc 1 539 11 is_stmt 0 view .LVU133
 459 000a 2468     		ldr	r4, [r4]
 460              	.LVL64:
 461              	.L40:
ARM GAS  C:\Users\28576\AppData\Local\Temp\cc59YylE.s 			page 23


 531:../../Middlewares/LVGL/GUI/lvgl/src/draw/lv_draw.c ****         if(t->state != LV_DRAW_TASK_STATE_READY) {
 462              		.loc 1 531 13 is_stmt 1 view .LVU134
 531:../../Middlewares/LVGL/GUI/lvgl/src/draw/lv_draw.c ****         if(t->state != LV_DRAW_TASK_STATE_READY) {
 463              		.loc 1 531 18 is_stmt 0 view .LVU135
 464 000c 631B     		subs	r3, r4, r5
 465 000e 18BF     		it	ne
 466 0010 0123     		movne	r3, #1
 531:../../Middlewares/LVGL/GUI/lvgl/src/draw/lv_draw.c ****         if(t->state != LV_DRAW_TASK_STATE_READY) {
 467              		.loc 1 531 13 view .LVU136
 468 0012 74B1     		cbz	r4, .L46
 469 0014 6BB1     		cbz	r3, .L46
 532:../../Middlewares/LVGL/GUI/lvgl/src/draw/lv_draw.c ****             lv_area_t a;
 470              		.loc 1 532 9 is_stmt 1 view .LVU137
 532:../../Middlewares/LVGL/GUI/lvgl/src/draw/lv_draw.c ****             lv_area_t a;
 471              		.loc 1 532 13 is_stmt 0 view .LVU138
 472 0016 236D     		ldr	r3, [r4, #80]
 532:../../Middlewares/LVGL/GUI/lvgl/src/draw/lv_draw.c ****             lv_area_t a;
 473              		.loc 1 532 11 view .LVU139
 474 0018 032B     		cmp	r3, #3
 475 001a F6D0     		beq	.L41
 476              	.LBB9:
 533:../../Middlewares/LVGL/GUI/lvgl/src/draw/lv_draw.c ****             if(lv_area_intersect(&a, &t->_real_area, &t_check->_real_area)) {
 477              		.loc 1 533 13 is_stmt 1 view .LVU140
 534:../../Middlewares/LVGL/GUI/lvgl/src/draw/lv_draw.c ****                 LV_PROFILER_DRAW_END;
 478              		.loc 1 534 13 view .LVU141
 534:../../Middlewares/LVGL/GUI/lvgl/src/draw/lv_draw.c ****                 LV_PROFILER_DRAW_END;
 479              		.loc 1 534 16 is_stmt 0 view .LVU142
 480 001c 05F11802 		add	r2, r5, #24
 481 0020 04F11801 		add	r1, r4, #24
 482 0024 6846     		mov	r0, sp
 483 0026 FFF7FEFF 		bl	lv_area_intersect
 484              	.LVL65:
 534:../../Middlewares/LVGL/GUI/lvgl/src/draw/lv_draw.c ****                 LV_PROFILER_DRAW_END;
 485              		.loc 1 534 15 discriminator 1 view .LVU143
 486 002a 0028     		cmp	r0, #0
 487 002c EDD0     		beq	.L41
 535:../../Middlewares/LVGL/GUI/lvgl/src/draw/lv_draw.c ****                 return false;
 488              		.loc 1 535 37 is_stmt 1 view .LVU144
 536:../../Middlewares/LVGL/GUI/lvgl/src/draw/lv_draw.c ****             }
 489              		.loc 1 536 17 view .LVU145
 536:../../Middlewares/LVGL/GUI/lvgl/src/draw/lv_draw.c ****             }
 490              		.loc 1 536 24 is_stmt 0 view .LVU146
 491 002e 0020     		movs	r0, #0
 492 0030 00E0     		b	.L43
 493              	.L46:
 494              	.LBE9:
 543:../../Middlewares/LVGL/GUI/lvgl/src/draw/lv_draw.c **** }
 495              		.loc 1 543 12 view .LVU147
 496 0032 0120     		movs	r0, #1
 497              	.L43:
 544:../../Middlewares/LVGL/GUI/lvgl/src/draw/lv_draw.c **** 
 498              		.loc 1 544 1 view .LVU148
 499 0034 05B0     		add	sp, sp, #20
 500              	.LCFI3:
 501              		.cfi_def_cfa_offset 12
 502              		@ sp needed
 503 0036 30BD     		pop	{r4, r5, pc}
ARM GAS  C:\Users\28576\AppData\Local\Temp\cc59YylE.s 			page 24


 544:../../Middlewares/LVGL/GUI/lvgl/src/draw/lv_draw.c **** 
 504              		.loc 1 544 1 view .LVU149
 505              		.cfi_endproc
 506              	.LFE210:
 508              		.section	.text.lv_draw_init,"ax",%progbits
 509              		.align	1
 510              		.global	lv_draw_init
 511              		.syntax unified
 512              		.thumb
 513              		.thumb_func
 515              	lv_draw_init:
 516              	.LFB187:
  62:../../Middlewares/LVGL/GUI/lvgl/src/draw/lv_draw.c **** #if LV_USE_OS
 517              		.loc 1 62 1 is_stmt 1 view -0
 518              		.cfi_startproc
 519              		@ args = 0, pretend = 0, frame = 0
 520              		@ frame_needed = 0, uses_anonymous_args = 0
 521              		@ link register save eliminated.
  66:../../Middlewares/LVGL/GUI/lvgl/src/draw/lv_draw.c **** 
 522              		.loc 1 66 1 view .LVU151
 523 0000 7047     		bx	lr
 524              		.cfi_endproc
 525              	.LFE187:
 527              		.section	.text.lv_draw_deinit,"ax",%progbits
 528              		.align	1
 529              		.global	lv_draw_deinit
 530              		.syntax unified
 531              		.thumb
 532              		.thumb_func
 534              	lv_draw_deinit:
 535              	.LFB188:
  69:../../Middlewares/LVGL/GUI/lvgl/src/draw/lv_draw.c **** #if LV_USE_OS
 536              		.loc 1 69 1 view -0
 537              		.cfi_startproc
 538              		@ args = 0, pretend = 0, frame = 0
 539              		@ frame_needed = 0, uses_anonymous_args = 0
 540 0000 38B5     		push	{r3, r4, r5, lr}
 541              	.LCFI4:
 542              		.cfi_def_cfa_offset 16
 543              		.cfi_offset 3, -16
 544              		.cfi_offset 4, -12
 545              		.cfi_offset 5, -8
 546              		.cfi_offset 14, -4
  74:../../Middlewares/LVGL/GUI/lvgl/src/draw/lv_draw.c ****     while(u) {
 547              		.loc 1 74 5 view .LVU153
  74:../../Middlewares/LVGL/GUI/lvgl/src/draw/lv_draw.c ****     while(u) {
 548              		.loc 1 74 22 is_stmt 0 view .LVU154
 549 0002 0A4B     		ldr	r3, .L55
 550 0004 D3F82441 		ldr	r4, [r3, #292]
 551              	.LVL66:
  75:../../Middlewares/LVGL/GUI/lvgl/src/draw/lv_draw.c ****         lv_draw_unit_t * cur_unit = u;
 552              		.loc 1 75 5 is_stmt 1 view .LVU155
  75:../../Middlewares/LVGL/GUI/lvgl/src/draw/lv_draw.c ****         lv_draw_unit_t * cur_unit = u;
 553              		.loc 1 75 10 is_stmt 0 view .LVU156
 554 0008 03E0     		b	.L50
 555              	.LVL67:
 556              	.L51:
ARM GAS  C:\Users\28576\AppData\Local\Temp\cc59YylE.s 			page 25


 557              	.LBB10:
  80:../../Middlewares/LVGL/GUI/lvgl/src/draw/lv_draw.c ****     }
 558              		.loc 1 80 9 is_stmt 1 view .LVU157
 559 000a 2046     		mov	r0, r4
 560 000c FFF7FEFF 		bl	lv_free
 561              	.LVL68:
  77:../../Middlewares/LVGL/GUI/lvgl/src/draw/lv_draw.c **** 
 562              		.loc 1 77 11 is_stmt 0 view .LVU158
 563 0010 2C46     		mov	r4, r5
 564              	.LVL69:
 565              	.L50:
  77:../../Middlewares/LVGL/GUI/lvgl/src/draw/lv_draw.c **** 
 566              		.loc 1 77 11 view .LVU159
 567              	.LBE10:
  75:../../Middlewares/LVGL/GUI/lvgl/src/draw/lv_draw.c ****         lv_draw_unit_t * cur_unit = u;
 568              		.loc 1 75 11 is_stmt 1 view .LVU160
 569 0012 34B1     		cbz	r4, .L54
 570              	.LBB11:
  76:../../Middlewares/LVGL/GUI/lvgl/src/draw/lv_draw.c ****         u = u->next;
 571              		.loc 1 76 9 view .LVU161
 572              	.LVL70:
  77:../../Middlewares/LVGL/GUI/lvgl/src/draw/lv_draw.c **** 
 573              		.loc 1 77 9 view .LVU162
  77:../../Middlewares/LVGL/GUI/lvgl/src/draw/lv_draw.c **** 
 574              		.loc 1 77 11 is_stmt 0 view .LVU163
 575 0014 2568     		ldr	r5, [r4]
 576              	.LVL71:
  79:../../Middlewares/LVGL/GUI/lvgl/src/draw/lv_draw.c ****         lv_free(cur_unit);
 577              		.loc 1 79 9 is_stmt 1 view .LVU164
  79:../../Middlewares/LVGL/GUI/lvgl/src/draw/lv_draw.c ****         lv_free(cur_unit);
 578              		.loc 1 79 20 is_stmt 0 view .LVU165
 579 0016 A369     		ldr	r3, [r4, #24]
  79:../../Middlewares/LVGL/GUI/lvgl/src/draw/lv_draw.c ****         lv_free(cur_unit);
 580              		.loc 1 79 11 view .LVU166
 581 0018 002B     		cmp	r3, #0
 582 001a F6D0     		beq	.L51
  79:../../Middlewares/LVGL/GUI/lvgl/src/draw/lv_draw.c ****         lv_free(cur_unit);
 583              		.loc 1 79 33 is_stmt 1 discriminator 1 view .LVU167
 584 001c 2046     		mov	r0, r4
 585 001e 9847     		blx	r3
 586              	.LVL72:
 587 0020 F3E7     		b	.L51
 588              	.LVL73:
 589              	.L54:
  79:../../Middlewares/LVGL/GUI/lvgl/src/draw/lv_draw.c ****         lv_free(cur_unit);
 590              		.loc 1 79 33 is_stmt 0 discriminator 1 view .LVU168
 591              	.LBE11:
  82:../../Middlewares/LVGL/GUI/lvgl/src/draw/lv_draw.c **** }
 592              		.loc 1 82 5 is_stmt 1 view .LVU169
  82:../../Middlewares/LVGL/GUI/lvgl/src/draw/lv_draw.c **** }
 593              		.loc 1 82 26 is_stmt 0 view .LVU170
 594 0022 024B     		ldr	r3, .L55
 595 0024 C3F82441 		str	r4, [r3, #292]
  83:../../Middlewares/LVGL/GUI/lvgl/src/draw/lv_draw.c **** 
 596              		.loc 1 83 1 view .LVU171
 597 0028 38BD     		pop	{r3, r4, r5, pc}
 598              	.LVL74:
ARM GAS  C:\Users\28576\AppData\Local\Temp\cc59YylE.s 			page 26


 599              	.L56:
  83:../../Middlewares/LVGL/GUI/lvgl/src/draw/lv_draw.c **** 
 600              		.loc 1 83 1 view .LVU172
 601 002a 00BF     		.align	2
 602              	.L55:
 603 002c 00000000 		.word	lv_global
 604              		.cfi_endproc
 605              	.LFE188:
 607              		.section	.text.lv_draw_create_unit,"ax",%progbits
 608              		.align	1
 609              		.global	lv_draw_create_unit
 610              		.syntax unified
 611              		.thumb
 612              		.thumb_func
 614              	lv_draw_create_unit:
 615              	.LVL75:
 616              	.LFB189:
  86:../../Middlewares/LVGL/GUI/lvgl/src/draw/lv_draw.c ****     lv_draw_unit_t * new_unit = lv_malloc_zeroed(size);
 617              		.loc 1 86 1 is_stmt 1 view -0
 618              		.cfi_startproc
 619              		@ args = 0, pretend = 0, frame = 0
 620              		@ frame_needed = 0, uses_anonymous_args = 0
  86:../../Middlewares/LVGL/GUI/lvgl/src/draw/lv_draw.c ****     lv_draw_unit_t * new_unit = lv_malloc_zeroed(size);
 621              		.loc 1 86 1 is_stmt 0 view .LVU174
 622 0000 08B5     		push	{r3, lr}
 623              	.LCFI5:
 624              		.cfi_def_cfa_offset 8
 625              		.cfi_offset 3, -8
 626              		.cfi_offset 14, -4
  87:../../Middlewares/LVGL/GUI/lvgl/src/draw/lv_draw.c ****     LV_ASSERT_MALLOC(new_unit);
 627              		.loc 1 87 5 is_stmt 1 view .LVU175
  87:../../Middlewares/LVGL/GUI/lvgl/src/draw/lv_draw.c ****     LV_ASSERT_MALLOC(new_unit);
 628              		.loc 1 87 33 is_stmt 0 view .LVU176
 629 0002 FFF7FEFF 		bl	lv_malloc_zeroed
 630              	.LVL76:
  88:../../Middlewares/LVGL/GUI/lvgl/src/draw/lv_draw.c ****     new_unit->next = _draw_info.unit_head;
 631              		.loc 1 88 5 is_stmt 1 view .LVU177
  88:../../Middlewares/LVGL/GUI/lvgl/src/draw/lv_draw.c ****     new_unit->next = _draw_info.unit_head;
 632              		.loc 1 88 5 view .LVU178
 633 0006 60B1     		cbz	r0, .L59
  88:../../Middlewares/LVGL/GUI/lvgl/src/draw/lv_draw.c ****     new_unit->next = _draw_info.unit_head;
 634              		.loc 1 88 5 view .LVU179
  88:../../Middlewares/LVGL/GUI/lvgl/src/draw/lv_draw.c ****     new_unit->next = _draw_info.unit_head;
 635              		.loc 1 88 31 view .LVU180
  89:../../Middlewares/LVGL/GUI/lvgl/src/draw/lv_draw.c **** 
 636              		.loc 1 89 5 view .LVU181
  89:../../Middlewares/LVGL/GUI/lvgl/src/draw/lv_draw.c **** 
 637              		.loc 1 89 32 is_stmt 0 view .LVU182
 638 0008 0649     		ldr	r1, .L61
 639 000a D1F82421 		ldr	r2, [r1, #292]
  89:../../Middlewares/LVGL/GUI/lvgl/src/draw/lv_draw.c **** 
 640              		.loc 1 89 20 view .LVU183
 641 000e 0260     		str	r2, [r0]
  91:../../Middlewares/LVGL/GUI/lvgl/src/draw/lv_draw.c ****     _draw_info.unit_cnt++;
 642              		.loc 1 91 5 is_stmt 1 view .LVU184
  91:../../Middlewares/LVGL/GUI/lvgl/src/draw/lv_draw.c ****     _draw_info.unit_cnt++;
 643              		.loc 1 91 26 is_stmt 0 view .LVU185
ARM GAS  C:\Users\28576\AppData\Local\Temp\cc59YylE.s 			page 27


 644 0010 C1F82401 		str	r0, [r1, #292]
  92:../../Middlewares/LVGL/GUI/lvgl/src/draw/lv_draw.c **** 
 645              		.loc 1 92 5 is_stmt 1 view .LVU186
  92:../../Middlewares/LVGL/GUI/lvgl/src/draw/lv_draw.c **** 
 646              		.loc 1 92 15 is_stmt 0 view .LVU187
 647 0014 D1F82821 		ldr	r2, [r1, #296]
  92:../../Middlewares/LVGL/GUI/lvgl/src/draw/lv_draw.c **** 
 648              		.loc 1 92 24 view .LVU188
 649 0018 0132     		adds	r2, r2, #1
 650 001a C1F82821 		str	r2, [r1, #296]
  94:../../Middlewares/LVGL/GUI/lvgl/src/draw/lv_draw.c **** 
 651              		.loc 1 94 5 is_stmt 1 view .LVU189
  94:../../Middlewares/LVGL/GUI/lvgl/src/draw/lv_draw.c **** 
 652              		.loc 1 94 19 is_stmt 0 view .LVU190
 653 001e 8260     		str	r2, [r0, #8]
  96:../../Middlewares/LVGL/GUI/lvgl/src/draw/lv_draw.c **** }
 654              		.loc 1 96 5 is_stmt 1 view .LVU191
  97:../../Middlewares/LVGL/GUI/lvgl/src/draw/lv_draw.c **** 
 655              		.loc 1 97 1 is_stmt 0 view .LVU192
 656 0020 08BD     		pop	{r3, pc}
 657              	.L59:
  88:../../Middlewares/LVGL/GUI/lvgl/src/draw/lv_draw.c ****     new_unit->next = _draw_info.unit_head;
 658              		.loc 1 88 5 is_stmt 1 view .LVU193
  88:../../Middlewares/LVGL/GUI/lvgl/src/draw/lv_draw.c ****     new_unit->next = _draw_info.unit_head;
 659              		.loc 1 88 5 view .LVU194
  88:../../Middlewares/LVGL/GUI/lvgl/src/draw/lv_draw.c ****     new_unit->next = _draw_info.unit_head;
 660              		.loc 1 88 5 view .LVU195
  88:../../Middlewares/LVGL/GUI/lvgl/src/draw/lv_draw.c ****     new_unit->next = _draw_info.unit_head;
 661              		.loc 1 88 5 view .LVU196
  88:../../Middlewares/LVGL/GUI/lvgl/src/draw/lv_draw.c ****     new_unit->next = _draw_info.unit_head;
 662              		.loc 1 88 5 view .LVU197
 663 0022 FEE7     		b	.L59
 664              	.L62:
 665              		.align	2
 666              	.L61:
 667 0024 00000000 		.word	lv_global
 668              		.cfi_endproc
 669              	.LFE189:
 671              		.section	.text.lv_draw_add_task,"ax",%progbits
 672              		.align	1
 673              		.global	lv_draw_add_task
 674              		.syntax unified
 675              		.thumb
 676              		.thumb_func
 678              	lv_draw_add_task:
 679              	.LVL77:
 680              	.LFB190:
 100:../../Middlewares/LVGL/GUI/lvgl/src/draw/lv_draw.c ****     LV_PROFILER_DRAW_BEGIN;
 681              		.loc 1 100 1 view -0
 682              		.cfi_startproc
 683              		@ args = 0, pretend = 0, frame = 0
 684              		@ frame_needed = 0, uses_anonymous_args = 0
 100:../../Middlewares/LVGL/GUI/lvgl/src/draw/lv_draw.c ****     LV_PROFILER_DRAW_BEGIN;
 685              		.loc 1 100 1 is_stmt 0 view .LVU199
 686 0000 70B5     		push	{r4, r5, r6, lr}
 687              	.LCFI6:
 688              		.cfi_def_cfa_offset 16
ARM GAS  C:\Users\28576\AppData\Local\Temp\cc59YylE.s 			page 28


 689              		.cfi_offset 4, -16
 690              		.cfi_offset 5, -12
 691              		.cfi_offset 6, -8
 692              		.cfi_offset 14, -4
 693 0002 0646     		mov	r6, r0
 694 0004 0D46     		mov	r5, r1
 695 0006 1446     		mov	r4, r2
 101:../../Middlewares/LVGL/GUI/lvgl/src/draw/lv_draw.c ****     size_t dsc_size = get_draw_dsc_size(type);
 696              		.loc 1 101 27 is_stmt 1 view .LVU200
 102:../../Middlewares/LVGL/GUI/lvgl/src/draw/lv_draw.c ****     LV_ASSERT_FORMAT_MSG(dsc_size > 0, "Draw task size is 0 for type %d", type);
 697              		.loc 1 102 5 view .LVU201
 102:../../Middlewares/LVGL/GUI/lvgl/src/draw/lv_draw.c ****     LV_ASSERT_FORMAT_MSG(dsc_size > 0, "Draw task size is 0 for type %d", type);
 698              		.loc 1 102 23 is_stmt 0 view .LVU202
 699 0008 1046     		mov	r0, r2
 700              	.LVL78:
 102:../../Middlewares/LVGL/GUI/lvgl/src/draw/lv_draw.c ****     LV_ASSERT_FORMAT_MSG(dsc_size > 0, "Draw task size is 0 for type %d", type);
 701              		.loc 1 102 23 view .LVU203
 702 000a FFF7FEFF 		bl	get_draw_dsc_size
 703              	.LVL79:
 103:../../Middlewares/LVGL/GUI/lvgl/src/draw/lv_draw.c ****     lv_draw_task_t * new_task = lv_malloc_zeroed(LV_ALIGN_UP(sizeof(lv_draw_task_t), 8) + dsc_size)
 704              		.loc 1 103 5 is_stmt 1 view .LVU204
 103:../../Middlewares/LVGL/GUI/lvgl/src/draw/lv_draw.c ****     lv_draw_task_t * new_task = lv_malloc_zeroed(LV_ALIGN_UP(sizeof(lv_draw_task_t), 8) + dsc_size)
 705              		.loc 1 103 5 view .LVU205
 706 000e 00B9     		cbnz	r0, .L64
 707              	.L65:
 103:../../Middlewares/LVGL/GUI/lvgl/src/draw/lv_draw.c ****     lv_draw_task_t * new_task = lv_malloc_zeroed(LV_ALIGN_UP(sizeof(lv_draw_task_t), 8) + dsc_size)
 708              		.loc 1 103 5 view .LVU206
 103:../../Middlewares/LVGL/GUI/lvgl/src/draw/lv_draw.c ****     lv_draw_task_t * new_task = lv_malloc_zeroed(LV_ALIGN_UP(sizeof(lv_draw_task_t), 8) + dsc_size)
 709              		.loc 1 103 5 view .LVU207
 103:../../Middlewares/LVGL/GUI/lvgl/src/draw/lv_draw.c ****     lv_draw_task_t * new_task = lv_malloc_zeroed(LV_ALIGN_UP(sizeof(lv_draw_task_t), 8) + dsc_size)
 710              		.loc 1 103 5 view .LVU208
 103:../../Middlewares/LVGL/GUI/lvgl/src/draw/lv_draw.c ****     lv_draw_task_t * new_task = lv_malloc_zeroed(LV_ALIGN_UP(sizeof(lv_draw_task_t), 8) + dsc_size)
 711              		.loc 1 103 5 view .LVU209
 103:../../Middlewares/LVGL/GUI/lvgl/src/draw/lv_draw.c ****     lv_draw_task_t * new_task = lv_malloc_zeroed(LV_ALIGN_UP(sizeof(lv_draw_task_t), 8) + dsc_size)
 712              		.loc 1 103 5 view .LVU210
 713 0010 FEE7     		b	.L65
 714              	.L64:
 103:../../Middlewares/LVGL/GUI/lvgl/src/draw/lv_draw.c ****     lv_draw_task_t * new_task = lv_malloc_zeroed(LV_ALIGN_UP(sizeof(lv_draw_task_t), 8) + dsc_size)
 715              		.loc 1 103 5 view .LVU211
 104:../../Middlewares/LVGL/GUI/lvgl/src/draw/lv_draw.c ****     LV_ASSERT_MALLOC(new_task);
 716              		.loc 1 104 5 view .LVU212
 104:../../Middlewares/LVGL/GUI/lvgl/src/draw/lv_draw.c ****     LV_ASSERT_MALLOC(new_task);
 717              		.loc 1 104 33 is_stmt 0 view .LVU213
 718 0012 6030     		adds	r0, r0, #96
 719              	.LVL80:
 104:../../Middlewares/LVGL/GUI/lvgl/src/draw/lv_draw.c ****     LV_ASSERT_MALLOC(new_task);
 720              		.loc 1 104 33 view .LVU214
 721 0014 FFF7FEFF 		bl	lv_malloc_zeroed
 722              	.LVL81:
 105:../../Middlewares/LVGL/GUI/lvgl/src/draw/lv_draw.c ****     new_task->area = *coords;
 723              		.loc 1 105 5 is_stmt 1 view .LVU215
 105:../../Middlewares/LVGL/GUI/lvgl/src/draw/lv_draw.c ****     new_task->area = *coords;
 724              		.loc 1 105 5 view .LVU216
 725 0018 8446     		mov	ip, r0
 726 001a 38B3     		cbz	r0, .L67
 105:../../Middlewares/LVGL/GUI/lvgl/src/draw/lv_draw.c ****     new_task->area = *coords;
 727              		.loc 1 105 5 view .LVU217
ARM GAS  C:\Users\28576\AppData\Local\Temp\cc59YylE.s 			page 29


 105:../../Middlewares/LVGL/GUI/lvgl/src/draw/lv_draw.c ****     new_task->area = *coords;
 728              		.loc 1 105 31 view .LVU218
 106:../../Middlewares/LVGL/GUI/lvgl/src/draw/lv_draw.c ****     new_task->_real_area = *coords;
 729              		.loc 1 106 5 view .LVU219
 106:../../Middlewares/LVGL/GUI/lvgl/src/draw/lv_draw.c ****     new_task->_real_area = *coords;
 730              		.loc 1 106 20 is_stmt 0 view .LVU220
 731 001c 00F1080E 		add	lr, r0, #8
 732 0020 95E80F00 		ldm	r5, {r0, r1, r2, r3}
 733              	.LVL82:
 106:../../Middlewares/LVGL/GUI/lvgl/src/draw/lv_draw.c ****     new_task->_real_area = *coords;
 734              		.loc 1 106 20 view .LVU221
 735 0024 8EE80F00 		stm	lr, {r0, r1, r2, r3}
 107:../../Middlewares/LVGL/GUI/lvgl/src/draw/lv_draw.c ****     new_task->target_layer = layer;
 736              		.loc 1 107 5 is_stmt 1 view .LVU222
 107:../../Middlewares/LVGL/GUI/lvgl/src/draw/lv_draw.c ****     new_task->target_layer = layer;
 737              		.loc 1 107 26 is_stmt 0 view .LVU223
 738 0028 0CF1180E 		add	lr, ip, #24
 739 002c 95E80F00 		ldm	r5, {r0, r1, r2, r3}
 740 0030 8EE80F00 		stm	lr, {r0, r1, r2, r3}
 108:../../Middlewares/LVGL/GUI/lvgl/src/draw/lv_draw.c ****     new_task->clip_area = layer->_clip_area;
 741              		.loc 1 108 5 is_stmt 1 view .LVU224
 108:../../Middlewares/LVGL/GUI/lvgl/src/draw/lv_draw.c ****     new_task->clip_area = layer->_clip_area;
 742              		.loc 1 108 28 is_stmt 0 view .LVU225
 743 0034 CCF84860 		str	r6, [ip, #72]
 109:../../Middlewares/LVGL/GUI/lvgl/src/draw/lv_draw.c **** #if LV_DRAW_TRANSFORM_USE_MATRIX
 744              		.loc 1 109 5 is_stmt 1 view .LVU226
 109:../../Middlewares/LVGL/GUI/lvgl/src/draw/lv_draw.c **** #if LV_DRAW_TRANSFORM_USE_MATRIX
 745              		.loc 1 109 25 is_stmt 0 view .LVU227
 746 0038 0CF1380E 		add	lr, ip, #56
 747 003c 06F11803 		add	r3, r6, #24
 748 0040 0FCB     		ldm	r3, {r0, r1, r2, r3}
 749 0042 8EE80F00 		stm	lr, {r0, r1, r2, r3}
 113:../../Middlewares/LVGL/GUI/lvgl/src/draw/lv_draw.c ****     new_task->draw_dsc = (uint8_t *)new_task + LV_ALIGN_UP(sizeof(lv_draw_task_t), 8);
 750              		.loc 1 113 5 is_stmt 1 view .LVU228
 113:../../Middlewares/LVGL/GUI/lvgl/src/draw/lv_draw.c ****     new_task->draw_dsc = (uint8_t *)new_task + LV_ALIGN_UP(sizeof(lv_draw_task_t), 8);
 751              		.loc 1 113 20 is_stmt 0 view .LVU229
 752 0046 8CF80440 		strb	r4, [ip, #4]
 114:../../Middlewares/LVGL/GUI/lvgl/src/draw/lv_draw.c ****     new_task->state = LV_DRAW_TASK_STATE_QUEUED;
 753              		.loc 1 114 5 is_stmt 1 view .LVU230
 114:../../Middlewares/LVGL/GUI/lvgl/src/draw/lv_draw.c ****     new_task->state = LV_DRAW_TASK_STATE_QUEUED;
 754              		.loc 1 114 46 is_stmt 0 view .LVU231
 755 004a 0CF16003 		add	r3, ip, #96
 114:../../Middlewares/LVGL/GUI/lvgl/src/draw/lv_draw.c ****     new_task->state = LV_DRAW_TASK_STATE_QUEUED;
 756              		.loc 1 114 24 view .LVU232
 757 004e CCF85430 		str	r3, [ip, #84]
 115:../../Middlewares/LVGL/GUI/lvgl/src/draw/lv_draw.c **** 
 758              		.loc 1 115 5 is_stmt 1 view .LVU233
 115:../../Middlewares/LVGL/GUI/lvgl/src/draw/lv_draw.c **** 
 759              		.loc 1 115 21 is_stmt 0 view .LVU234
 760 0052 0123     		movs	r3, #1
 761 0054 CCF85030 		str	r3, [ip, #80]
 118:../../Middlewares/LVGL/GUI/lvgl/src/draw/lv_draw.c ****         layer->draw_task_head = new_task;
 762              		.loc 1 118 5 is_stmt 1 view .LVU235
 118:../../Middlewares/LVGL/GUI/lvgl/src/draw/lv_draw.c ****         layer->draw_task_head = new_task;
 763              		.loc 1 118 13 is_stmt 0 view .LVU236
 764 0058 736C     		ldr	r3, [r6, #68]
 118:../../Middlewares/LVGL/GUI/lvgl/src/draw/lv_draw.c ****         layer->draw_task_head = new_task;
ARM GAS  C:\Users\28576\AppData\Local\Temp\cc59YylE.s 			page 30


 765              		.loc 1 118 7 view .LVU237
 766 005a 43B1     		cbz	r3, .L71
 767              	.L68:
 768              	.LVL83:
 769              	.LBB12:
 123:../../Middlewares/LVGL/GUI/lvgl/src/draw/lv_draw.c **** 
 770              		.loc 1 123 15 is_stmt 1 discriminator 1 view .LVU238
 771 005c 1A46     		mov	r2, r3
 123:../../Middlewares/LVGL/GUI/lvgl/src/draw/lv_draw.c **** 
 772              		.loc 1 123 19 is_stmt 0 discriminator 1 view .LVU239
 773 005e 1B68     		ldr	r3, [r3]
 774              	.LVL84:
 123:../../Middlewares/LVGL/GUI/lvgl/src/draw/lv_draw.c **** 
 775              		.loc 1 123 15 discriminator 1 view .LVU240
 776 0060 002B     		cmp	r3, #0
 777 0062 FBD1     		bne	.L68
 125:../../Middlewares/LVGL/GUI/lvgl/src/draw/lv_draw.c ****     }
 778              		.loc 1 125 9 is_stmt 1 view .LVU241
 125:../../Middlewares/LVGL/GUI/lvgl/src/draw/lv_draw.c ****     }
 779              		.loc 1 125 20 is_stmt 0 view .LVU242
 780 0064 C2F800C0 		str	ip, [r2]
 781              	.LBE12:
 128:../../Middlewares/LVGL/GUI/lvgl/src/draw/lv_draw.c ****     return new_task;
 782              		.loc 1 128 25 is_stmt 1 view .LVU243
 129:../../Middlewares/LVGL/GUI/lvgl/src/draw/lv_draw.c **** }
 783              		.loc 1 129 5 view .LVU244
 784              	.LVL85:
 785              	.L63:
 130:../../Middlewares/LVGL/GUI/lvgl/src/draw/lv_draw.c **** 
 786              		.loc 1 130 1 is_stmt 0 view .LVU245
 787 0068 6046     		mov	r0, ip
 788 006a 70BD     		pop	{r4, r5, r6, pc}
 789              	.LVL86:
 790              	.L67:
 105:../../Middlewares/LVGL/GUI/lvgl/src/draw/lv_draw.c ****     new_task->area = *coords;
 791              		.loc 1 105 5 is_stmt 1 view .LVU246
 105:../../Middlewares/LVGL/GUI/lvgl/src/draw/lv_draw.c ****     new_task->area = *coords;
 792              		.loc 1 105 5 view .LVU247
 105:../../Middlewares/LVGL/GUI/lvgl/src/draw/lv_draw.c ****     new_task->area = *coords;
 793              		.loc 1 105 5 view .LVU248
 105:../../Middlewares/LVGL/GUI/lvgl/src/draw/lv_draw.c ****     new_task->area = *coords;
 794              		.loc 1 105 5 view .LVU249
 105:../../Middlewares/LVGL/GUI/lvgl/src/draw/lv_draw.c ****     new_task->area = *coords;
 795              		.loc 1 105 5 view .LVU250
 796 006c FEE7     		b	.L67
 797              	.LVL87:
 798              	.L71:
 119:../../Middlewares/LVGL/GUI/lvgl/src/draw/lv_draw.c ****     }
 799              		.loc 1 119 9 view .LVU251
 119:../../Middlewares/LVGL/GUI/lvgl/src/draw/lv_draw.c ****     }
 800              		.loc 1 119 31 is_stmt 0 view .LVU252
 801 006e C6F844C0 		str	ip, [r6, #68]
 802 0072 F9E7     		b	.L63
 803              		.cfi_endproc
 804              	.LFE190:
 806              		.section	.text.lv_draw_wait_for_finish,"ax",%progbits
 807              		.align	1
ARM GAS  C:\Users\28576\AppData\Local\Temp\cc59YylE.s 			page 31


 808              		.global	lv_draw_wait_for_finish
 809              		.syntax unified
 810              		.thumb
 811              		.thumb_func
 813              	lv_draw_wait_for_finish:
 814              	.LFB192:
 194:../../Middlewares/LVGL/GUI/lvgl/src/draw/lv_draw.c **** #if LV_USE_OS
 815              		.loc 1 194 1 is_stmt 1 view -0
 816              		.cfi_startproc
 817              		@ args = 0, pretend = 0, frame = 0
 818              		@ frame_needed = 0, uses_anonymous_args = 0
 819              		@ link register save eliminated.
 210:../../Middlewares/LVGL/GUI/lvgl/src/draw/lv_draw.c **** 
 820              		.loc 1 210 1 view .LVU254
 821 0000 7047     		bx	lr
 822              		.cfi_endproc
 823              	.LFE192:
 825              		.section	.text.lv_draw_dispatch_wait_for_request,"ax",%progbits
 826              		.align	1
 827              		.global	lv_draw_dispatch_wait_for_request
 828              		.syntax unified
 829              		.thumb
 830              		.thumb_func
 832              	lv_draw_dispatch_wait_for_request:
 833              	.LFB195:
 296:../../Middlewares/LVGL/GUI/lvgl/src/draw/lv_draw.c ****     LV_PROFILER_DRAW_BEGIN;
 834              		.loc 1 296 1 view -0
 835              		.cfi_startproc
 836              		@ args = 0, pretend = 0, frame = 0
 837              		@ frame_needed = 0, uses_anonymous_args = 0
 838              		@ link register save eliminated.
 839              	.L74:
 301:../../Middlewares/LVGL/GUI/lvgl/src/draw/lv_draw.c ****     _draw_info.dispatch_req = 0;
 840              		.loc 1 301 11 discriminator 1 view .LVU256
 301:../../Middlewares/LVGL/GUI/lvgl/src/draw/lv_draw.c ****     _draw_info.dispatch_req = 0;
 841              		.loc 1 301 22 is_stmt 0 discriminator 1 view .LVU257
 842 0000 044B     		ldr	r3, .L75
 843 0002 D3F83031 		ldr	r3, [r3, #304]
 301:../../Middlewares/LVGL/GUI/lvgl/src/draw/lv_draw.c ****     _draw_info.dispatch_req = 0;
 844              		.loc 1 301 11 discriminator 1 view .LVU258
 845 0006 002B     		cmp	r3, #0
 846 0008 FAD0     		beq	.L74
 302:../../Middlewares/LVGL/GUI/lvgl/src/draw/lv_draw.c **** #endif
 847              		.loc 1 302 5 is_stmt 1 view .LVU259
 302:../../Middlewares/LVGL/GUI/lvgl/src/draw/lv_draw.c **** #endif
 848              		.loc 1 302 29 is_stmt 0 view .LVU260
 849 000a 024B     		ldr	r3, .L75
 850 000c 0022     		movs	r2, #0
 851 000e C3F83021 		str	r2, [r3, #304]
 304:../../Middlewares/LVGL/GUI/lvgl/src/draw/lv_draw.c **** }
 852              		.loc 1 304 25 is_stmt 1 view .LVU261
 305:../../Middlewares/LVGL/GUI/lvgl/src/draw/lv_draw.c **** 
 853              		.loc 1 305 1 is_stmt 0 view .LVU262
 854 0012 7047     		bx	lr
 855              	.L76:
 856              		.align	2
 857              	.L75:
ARM GAS  C:\Users\28576\AppData\Local\Temp\cc59YylE.s 			page 32


 858 0014 00000000 		.word	lv_global
 859              		.cfi_endproc
 860              	.LFE195:
 862              		.section	.text.lv_draw_dispatch_request,"ax",%progbits
 863              		.align	1
 864              		.global	lv_draw_dispatch_request
 865              		.syntax unified
 866              		.thumb
 867              		.thumb_func
 869              	lv_draw_dispatch_request:
 870              	.LFB196:
 308:../../Middlewares/LVGL/GUI/lvgl/src/draw/lv_draw.c ****     LV_PROFILER_DRAW_BEGIN;
 871              		.loc 1 308 1 is_stmt 1 view -0
 872              		.cfi_startproc
 873              		@ args = 0, pretend = 0, frame = 0
 874              		@ frame_needed = 0, uses_anonymous_args = 0
 875              		@ link register save eliminated.
 309:../../Middlewares/LVGL/GUI/lvgl/src/draw/lv_draw.c **** #if LV_USE_OS
 876              		.loc 1 309 27 view .LVU264
 313:../../Middlewares/LVGL/GUI/lvgl/src/draw/lv_draw.c **** #endif
 877              		.loc 1 313 5 view .LVU265
 313:../../Middlewares/LVGL/GUI/lvgl/src/draw/lv_draw.c **** #endif
 878              		.loc 1 313 29 is_stmt 0 view .LVU266
 879 0000 024B     		ldr	r3, .L78
 880 0002 0122     		movs	r2, #1
 881 0004 C3F83021 		str	r2, [r3, #304]
 315:../../Middlewares/LVGL/GUI/lvgl/src/draw/lv_draw.c **** }
 882              		.loc 1 315 25 is_stmt 1 view .LVU267
 316:../../Middlewares/LVGL/GUI/lvgl/src/draw/lv_draw.c **** 
 883              		.loc 1 316 1 is_stmt 0 view .LVU268
 884 0008 7047     		bx	lr
 885              	.L79:
 886 000a 00BF     		.align	2
 887              	.L78:
 888 000c 00000000 		.word	lv_global
 889              		.cfi_endproc
 890              	.LFE196:
 892              		.section	.text.lv_draw_dispatch_layer,"ax",%progbits
 893              		.align	1
 894              		.global	lv_draw_dispatch_layer
 895              		.syntax unified
 896              		.thumb
 897              		.thumb_func
 899              	lv_draw_dispatch_layer:
 900              	.LVL88:
 901              	.LFB194:
 234:../../Middlewares/LVGL/GUI/lvgl/src/draw/lv_draw.c ****     LV_PROFILER_DRAW_BEGIN;
 902              		.loc 1 234 1 is_stmt 1 view -0
 903              		.cfi_startproc
 904              		@ args = 0, pretend = 0, frame = 0
 905              		@ frame_needed = 0, uses_anonymous_args = 0
 234:../../Middlewares/LVGL/GUI/lvgl/src/draw/lv_draw.c ****     LV_PROFILER_DRAW_BEGIN;
 906              		.loc 1 234 1 is_stmt 0 view .LVU270
 907 0000 2DE9F041 		push	{r4, r5, r6, r7, r8, lr}
 908              	.LCFI7:
 909              		.cfi_def_cfa_offset 24
 910              		.cfi_offset 4, -24
ARM GAS  C:\Users\28576\AppData\Local\Temp\cc59YylE.s 			page 33


 911              		.cfi_offset 5, -20
 912              		.cfi_offset 6, -16
 913              		.cfi_offset 7, -12
 914              		.cfi_offset 8, -8
 915              		.cfi_offset 14, -4
 916 0004 8046     		mov	r8, r0
 917 0006 0E46     		mov	r6, r1
 235:../../Middlewares/LVGL/GUI/lvgl/src/draw/lv_draw.c ****     /*Remove the finished tasks first*/
 918              		.loc 1 235 27 is_stmt 1 view .LVU271
 237:../../Middlewares/LVGL/GUI/lvgl/src/draw/lv_draw.c ****     lv_draw_task_t * t = layer->draw_task_head;
 919              		.loc 1 237 5 view .LVU272
 920              	.LVL89:
 238:../../Middlewares/LVGL/GUI/lvgl/src/draw/lv_draw.c ****     lv_draw_task_t * t_next;
 921              		.loc 1 238 5 view .LVU273
 238:../../Middlewares/LVGL/GUI/lvgl/src/draw/lv_draw.c ****     lv_draw_task_t * t_next;
 922              		.loc 1 238 22 is_stmt 0 view .LVU274
 923 0008 486C     		ldr	r0, [r1, #68]
 924              	.LVL90:
 239:../../Middlewares/LVGL/GUI/lvgl/src/draw/lv_draw.c ****     bool remove_task = false;
 925              		.loc 1 239 5 is_stmt 1 view .LVU275
 240:../../Middlewares/LVGL/GUI/lvgl/src/draw/lv_draw.c ****     while(t) {
 926              		.loc 1 240 5 view .LVU276
 241:../../Middlewares/LVGL/GUI/lvgl/src/draw/lv_draw.c ****         t_next = t->next;
 927              		.loc 1 241 5 view .LVU277
 240:../../Middlewares/LVGL/GUI/lvgl/src/draw/lv_draw.c ****     while(t) {
 928              		.loc 1 240 10 is_stmt 0 view .LVU278
 929 000a 0027     		movs	r7, #0
 237:../../Middlewares/LVGL/GUI/lvgl/src/draw/lv_draw.c ****     lv_draw_task_t * t = layer->draw_task_head;
 930              		.loc 1 237 22 view .LVU279
 931 000c 3D46     		mov	r5, r7
 241:../../Middlewares/LVGL/GUI/lvgl/src/draw/lv_draw.c ****         t_next = t->next;
 932              		.loc 1 241 10 view .LVU280
 933 000e 04E0     		b	.L81
 934              	.LVL91:
 935              	.L83:
 249:../../Middlewares/LVGL/GUI/lvgl/src/draw/lv_draw.c ****         }
 936              		.loc 1 249 17 is_stmt 1 view .LVU281
 249:../../Middlewares/LVGL/GUI/lvgl/src/draw/lv_draw.c ****         }
 937              		.loc 1 249 39 is_stmt 0 view .LVU282
 938 0010 7464     		str	r4, [r6, #68]
 939 0012 2846     		mov	r0, r5
 245:../../Middlewares/LVGL/GUI/lvgl/src/draw/lv_draw.c ****             if(t_prev != NULL)
 940              		.loc 1 245 25 view .LVU283
 941 0014 0127     		movs	r7, #1
 942              	.LVL92:
 943              	.L82:
 245:../../Middlewares/LVGL/GUI/lvgl/src/draw/lv_draw.c ****             if(t_prev != NULL)
 944              		.loc 1 245 25 view .LVU284
 945 0016 0546     		mov	r5, r0
 946              	.LVL93:
 245:../../Middlewares/LVGL/GUI/lvgl/src/draw/lv_draw.c ****             if(t_prev != NULL)
 947              		.loc 1 245 25 view .LVU285
 948 0018 2046     		mov	r0, r4
 949              	.LVL94:
 950              	.L81:
 241:../../Middlewares/LVGL/GUI/lvgl/src/draw/lv_draw.c ****         t_next = t->next;
 951              		.loc 1 241 11 is_stmt 1 view .LVU286
ARM GAS  C:\Users\28576\AppData\Local\Temp\cc59YylE.s 			page 34


 952 001a 60B1     		cbz	r0, .L96
 242:../../Middlewares/LVGL/GUI/lvgl/src/draw/lv_draw.c ****         if(t->state == LV_DRAW_TASK_STATE_READY) {
 953              		.loc 1 242 9 view .LVU287
 242:../../Middlewares/LVGL/GUI/lvgl/src/draw/lv_draw.c ****         if(t->state == LV_DRAW_TASK_STATE_READY) {
 954              		.loc 1 242 16 is_stmt 0 view .LVU288
 955 001c 0468     		ldr	r4, [r0]
 956              	.LVL95:
 243:../../Middlewares/LVGL/GUI/lvgl/src/draw/lv_draw.c ****             cleanup_task(t, disp);
 957              		.loc 1 243 9 is_stmt 1 view .LVU289
 243:../../Middlewares/LVGL/GUI/lvgl/src/draw/lv_draw.c ****             cleanup_task(t, disp);
 958              		.loc 1 243 13 is_stmt 0 view .LVU290
 959 001e 036D     		ldr	r3, [r0, #80]
 243:../../Middlewares/LVGL/GUI/lvgl/src/draw/lv_draw.c ****             cleanup_task(t, disp);
 960              		.loc 1 243 11 view .LVU291
 961 0020 032B     		cmp	r3, #3
 962 0022 F8D1     		bne	.L82
 244:../../Middlewares/LVGL/GUI/lvgl/src/draw/lv_draw.c ****             remove_task = true;
 963              		.loc 1 244 13 is_stmt 1 view .LVU292
 964 0024 4146     		mov	r1, r8
 965 0026 FFF7FEFF 		bl	cleanup_task
 966              	.LVL96:
 245:../../Middlewares/LVGL/GUI/lvgl/src/draw/lv_draw.c ****             if(t_prev != NULL)
 967              		.loc 1 245 13 view .LVU293
 246:../../Middlewares/LVGL/GUI/lvgl/src/draw/lv_draw.c ****                 t_prev->next = t_next;
 968              		.loc 1 246 13 view .LVU294
 246:../../Middlewares/LVGL/GUI/lvgl/src/draw/lv_draw.c ****                 t_prev->next = t_next;
 969              		.loc 1 246 15 is_stmt 0 view .LVU295
 970 002a 002D     		cmp	r5, #0
 971 002c F0D0     		beq	.L83
 247:../../Middlewares/LVGL/GUI/lvgl/src/draw/lv_draw.c ****             else
 972              		.loc 1 247 17 is_stmt 1 view .LVU296
 247:../../Middlewares/LVGL/GUI/lvgl/src/draw/lv_draw.c ****             else
 973              		.loc 1 247 30 is_stmt 0 view .LVU297
 974 002e 2C60     		str	r4, [r5]
 975 0030 2846     		mov	r0, r5
 245:../../Middlewares/LVGL/GUI/lvgl/src/draw/lv_draw.c ****             if(t_prev != NULL)
 976              		.loc 1 245 25 view .LVU298
 977 0032 0127     		movs	r7, #1
 978 0034 EFE7     		b	.L82
 979              	.LVL97:
 980              	.L96:
 257:../../Middlewares/LVGL/GUI/lvgl/src/draw/lv_draw.c **** 
 981              		.loc 1 257 5 is_stmt 1 view .LVU299
 260:../../Middlewares/LVGL/GUI/lvgl/src/draw/lv_draw.c ****         /*Find a draw task with TYPE_LAYER in the layer where the src is this layer*/
 982              		.loc 1 260 5 view .LVU300
 260:../../Middlewares/LVGL/GUI/lvgl/src/draw/lv_draw.c ****         /*Find a draw task with TYPE_LAYER in the layer where the src is this layer*/
 983              		.loc 1 260 13 is_stmt 0 view .LVU301
 984 0036 B36C     		ldr	r3, [r6, #72]
 260:../../Middlewares/LVGL/GUI/lvgl/src/draw/lv_draw.c ****         /*Find a draw task with TYPE_LAYER in the layer where the src is this layer*/
 985              		.loc 1 260 7 view .LVU302
 986 0038 23B1     		cbz	r3, .L85
 260:../../Middlewares/LVGL/GUI/lvgl/src/draw/lv_draw.c ****         /*Find a draw task with TYPE_LAYER in the layer where the src is this layer*/
 987              		.loc 1 260 30 discriminator 1 view .LVU303
 988 003a 96F85020 		ldrb	r2, [r6, #80]	@ zero_extendqisi2
 260:../../Middlewares/LVGL/GUI/lvgl/src/draw/lv_draw.c ****         /*Find a draw task with TYPE_LAYER in the layer where the src is this layer*/
 989              		.loc 1 260 22 discriminator 1 view .LVU304
 990 003e 0AB1     		cbz	r2, .L85
ARM GAS  C:\Users\28576\AppData\Local\Temp\cc59YylE.s 			page 35


 260:../../Middlewares/LVGL/GUI/lvgl/src/draw/lv_draw.c ****         /*Find a draw task with TYPE_LAYER in the layer where the src is this layer*/
 991              		.loc 1 260 56 discriminator 2 view .LVU305
 992 0040 726C     		ldr	r2, [r6, #68]
 260:../../Middlewares/LVGL/GUI/lvgl/src/draw/lv_draw.c ****         /*Find a draw task with TYPE_LAYER in the layer where the src is this layer*/
 993              		.loc 1 260 48 discriminator 2 view .LVU306
 994 0042 3AB1     		cbz	r2, .L97
 995              	.L85:
 276:../../Middlewares/LVGL/GUI/lvgl/src/draw/lv_draw.c ****         /*Find a draw unit which is not busy and can take at least one task*/
 996              		.loc 1 276 10 is_stmt 1 view .LVU307
 276:../../Middlewares/LVGL/GUI/lvgl/src/draw/lv_draw.c ****         /*Find a draw unit which is not busy and can take at least one task*/
 997              		.loc 1 276 12 is_stmt 0 view .LVU308
 998 0044 0FB9     		cbnz	r7, .L90
 276:../../Middlewares/LVGL/GUI/lvgl/src/draw/lv_draw.c ****         /*Find a draw unit which is not busy and can take at least one task*/
 999              		.loc 1 276 33 discriminator 1 view .LVU309
 1000 0046 736C     		ldr	r3, [r6, #68]
 276:../../Middlewares/LVGL/GUI/lvgl/src/draw/lv_draw.c ****         /*Find a draw unit which is not busy and can take at least one task*/
 1001              		.loc 1 276 25 discriminator 1 view .LVU310
 1002 0048 CBB1     		cbz	r3, .L88
 1003              	.L90:
 1004              	.LBB13:
 279:../../Middlewares/LVGL/GUI/lvgl/src/draw/lv_draw.c ****         while(u) {
 1005              		.loc 1 279 9 is_stmt 1 view .LVU311
 279:../../Middlewares/LVGL/GUI/lvgl/src/draw/lv_draw.c ****         while(u) {
 1006              		.loc 1 279 26 is_stmt 0 view .LVU312
 1007 004a 144B     		ldr	r3, .L99
 1008 004c D3F82441 		ldr	r4, [r3, #292]
 1009              	.LVL98:
 280:../../Middlewares/LVGL/GUI/lvgl/src/draw/lv_draw.c ****             LV_PROFILER_DRAW_BEGIN_TAG("dispatch_cb");
 1010              		.loc 1 280 9 is_stmt 1 view .LVU313
 1011              	.LBE13:
 257:../../Middlewares/LVGL/GUI/lvgl/src/draw/lv_draw.c **** 
 1012              		.loc 1 257 10 is_stmt 0 view .LVU314
 1013 0050 0027     		movs	r7, #0
 1014              	.LVL99:
 1015              	.LBB16:
 280:../../Middlewares/LVGL/GUI/lvgl/src/draw/lv_draw.c ****             LV_PROFILER_DRAW_BEGIN_TAG("dispatch_cb");
 1016              		.loc 1 280 14 view .LVU315
 1017 0052 18E0     		b	.L91
 1018              	.LVL100:
 1019              	.L97:
 280:../../Middlewares/LVGL/GUI/lvgl/src/draw/lv_draw.c ****             LV_PROFILER_DRAW_BEGIN_TAG("dispatch_cb");
 1020              		.loc 1 280 14 view .LVU316
 1021              	.LBE16:
 1022              	.LBB17:
 262:../../Middlewares/LVGL/GUI/lvgl/src/draw/lv_draw.c ****         while(t_src) {
 1023              		.loc 1 262 9 is_stmt 1 view .LVU317
 262:../../Middlewares/LVGL/GUI/lvgl/src/draw/lv_draw.c ****         while(t_src) {
 1024              		.loc 1 262 26 is_stmt 0 view .LVU318
 1025 0054 5B6C     		ldr	r3, [r3, #68]
 1026              	.LVL101:
 263:../../Middlewares/LVGL/GUI/lvgl/src/draw/lv_draw.c ****             if(t_src->type == LV_DRAW_TASK_TYPE_LAYER && t_src->state == LV_DRAW_TASK_STATE_WAITING
 1027              		.loc 1 263 9 is_stmt 1 view .LVU319
 263:../../Middlewares/LVGL/GUI/lvgl/src/draw/lv_draw.c ****             if(t_src->type == LV_DRAW_TASK_TYPE_LAYER && t_src->state == LV_DRAW_TASK_STATE_WAITING
 1028              		.loc 1 263 14 is_stmt 0 view .LVU320
 1029 0056 00E0     		b	.L86
 1030              	.L87:
 272:../../Middlewares/LVGL/GUI/lvgl/src/draw/lv_draw.c ****         }
ARM GAS  C:\Users\28576\AppData\Local\Temp\cc59YylE.s 			page 36


 1031              		.loc 1 272 13 is_stmt 1 view .LVU321
 272:../../Middlewares/LVGL/GUI/lvgl/src/draw/lv_draw.c ****         }
 1032              		.loc 1 272 19 is_stmt 0 view .LVU322
 1033 0058 1B68     		ldr	r3, [r3]
 1034              	.LVL102:
 1035              	.L86:
 263:../../Middlewares/LVGL/GUI/lvgl/src/draw/lv_draw.c ****             if(t_src->type == LV_DRAW_TASK_TYPE_LAYER && t_src->state == LV_DRAW_TASK_STATE_WAITING
 1036              		.loc 1 263 15 is_stmt 1 view .LVU323
 1037 005a 7BB1     		cbz	r3, .L98
 264:../../Middlewares/LVGL/GUI/lvgl/src/draw/lv_draw.c ****                 lv_draw_image_dsc_t * draw_dsc = t_src->draw_dsc;
 1038              		.loc 1 264 13 view .LVU324
 264:../../Middlewares/LVGL/GUI/lvgl/src/draw/lv_draw.c ****                 lv_draw_image_dsc_t * draw_dsc = t_src->draw_dsc;
 1039              		.loc 1 264 21 is_stmt 0 view .LVU325
 1040 005c 1A79     		ldrb	r2, [r3, #4]	@ zero_extendqisi2
 264:../../Middlewares/LVGL/GUI/lvgl/src/draw/lv_draw.c ****                 lv_draw_image_dsc_t * draw_dsc = t_src->draw_dsc;
 1041              		.loc 1 264 15 view .LVU326
 1042 005e 072A     		cmp	r2, #7
 1043 0060 FAD1     		bne	.L87
 264:../../Middlewares/LVGL/GUI/lvgl/src/draw/lv_draw.c ****                 lv_draw_image_dsc_t * draw_dsc = t_src->draw_dsc;
 1044              		.loc 1 264 63 discriminator 1 view .LVU327
 1045 0062 1A6D     		ldr	r2, [r3, #80]
 264:../../Middlewares/LVGL/GUI/lvgl/src/draw/lv_draw.c ****                 lv_draw_image_dsc_t * draw_dsc = t_src->draw_dsc;
 1046              		.loc 1 264 55 discriminator 1 view .LVU328
 1047 0064 002A     		cmp	r2, #0
 1048 0066 F7D1     		bne	.L87
 1049              	.LBB18:
 265:../../Middlewares/LVGL/GUI/lvgl/src/draw/lv_draw.c ****                 if(draw_dsc->src == layer) {
 1050              		.loc 1 265 17 is_stmt 1 view .LVU329
 265:../../Middlewares/LVGL/GUI/lvgl/src/draw/lv_draw.c ****                 if(draw_dsc->src == layer) {
 1051              		.loc 1 265 39 is_stmt 0 view .LVU330
 1052 0068 5A6D     		ldr	r2, [r3, #84]
 1053              	.LVL103:
 266:../../Middlewares/LVGL/GUI/lvgl/src/draw/lv_draw.c ****                     t_src->state = LV_DRAW_TASK_STATE_QUEUED;
 1054              		.loc 1 266 17 is_stmt 1 view .LVU331
 266:../../Middlewares/LVGL/GUI/lvgl/src/draw/lv_draw.c ****                     t_src->state = LV_DRAW_TASK_STATE_QUEUED;
 1055              		.loc 1 266 28 is_stmt 0 view .LVU332
 1056 006a D269     		ldr	r2, [r2, #28]
 1057              	.LVL104:
 266:../../Middlewares/LVGL/GUI/lvgl/src/draw/lv_draw.c ****                     t_src->state = LV_DRAW_TASK_STATE_QUEUED;
 1058              		.loc 1 266 19 view .LVU333
 1059 006c B242     		cmp	r2, r6
 1060 006e F3D1     		bne	.L87
 267:../../Middlewares/LVGL/GUI/lvgl/src/draw/lv_draw.c ****                     lv_draw_dispatch_request();
 1061              		.loc 1 267 21 is_stmt 1 view .LVU334
 267:../../Middlewares/LVGL/GUI/lvgl/src/draw/lv_draw.c ****                     lv_draw_dispatch_request();
 1062              		.loc 1 267 34 is_stmt 0 view .LVU335
 1063 0070 0122     		movs	r2, #1
 1064 0072 1A65     		str	r2, [r3, #80]
 268:../../Middlewares/LVGL/GUI/lvgl/src/draw/lv_draw.c ****                     break;
 1065              		.loc 1 268 21 is_stmt 1 view .LVU336
 1066 0074 FFF7FEFF 		bl	lv_draw_dispatch_request
 1067              	.LVL105:
 269:../../Middlewares/LVGL/GUI/lvgl/src/draw/lv_draw.c ****                 }
 1068              		.loc 1 269 21 view .LVU337
 1069              	.LBE18:
 1070              	.LBE17:
 257:../../Middlewares/LVGL/GUI/lvgl/src/draw/lv_draw.c **** 
ARM GAS  C:\Users\28576\AppData\Local\Temp\cc59YylE.s 			page 37


 1071              		.loc 1 257 10 is_stmt 0 view .LVU338
 1072 0078 0027     		movs	r7, #0
 1073              	.LVL106:
 1074              	.LBB20:
 1075              	.LBB19:
 269:../../Middlewares/LVGL/GUI/lvgl/src/draw/lv_draw.c ****                 }
 1076              		.loc 1 269 21 view .LVU339
 1077 007a 00E0     		b	.L88
 1078              	.LVL107:
 1079              	.L98:
 269:../../Middlewares/LVGL/GUI/lvgl/src/draw/lv_draw.c ****                 }
 1080              		.loc 1 269 21 view .LVU340
 1081              	.LBE19:
 1082              	.LBE20:
 257:../../Middlewares/LVGL/GUI/lvgl/src/draw/lv_draw.c **** 
 1083              		.loc 1 257 10 view .LVU341
 1084 007c 1F46     		mov	r7, r3
 1085              	.LVL108:
 1086              	.L88:
 291:../../Middlewares/LVGL/GUI/lvgl/src/draw/lv_draw.c ****     return task_dispatched;
 1087              		.loc 1 291 25 is_stmt 1 view .LVU342
 292:../../Middlewares/LVGL/GUI/lvgl/src/draw/lv_draw.c **** }
 1088              		.loc 1 292 5 view .LVU343
 293:../../Middlewares/LVGL/GUI/lvgl/src/draw/lv_draw.c **** 
 1089              		.loc 1 293 1 is_stmt 0 view .LVU344
 1090 007e 3846     		mov	r0, r7
 1091 0080 BDE8F081 		pop	{r4, r5, r6, r7, r8, pc}
 1092              	.LVL109:
 1093              	.L92:
 1094              	.LBB21:
 1095              	.LBB14:
 287:../../Middlewares/LVGL/GUI/lvgl/src/draw/lv_draw.c ****         }
 1096              		.loc 1 287 13 is_stmt 1 view .LVU345
 287:../../Middlewares/LVGL/GUI/lvgl/src/draw/lv_draw.c ****         }
 1097              		.loc 1 287 15 is_stmt 0 view .LVU346
 1098 0084 2468     		ldr	r4, [r4]
 1099              	.LVL110:
 1100              	.L91:
 287:../../Middlewares/LVGL/GUI/lvgl/src/draw/lv_draw.c ****         }
 1101              		.loc 1 287 15 view .LVU347
 1102              	.LBE14:
 280:../../Middlewares/LVGL/GUI/lvgl/src/draw/lv_draw.c ****             LV_PROFILER_DRAW_BEGIN_TAG("dispatch_cb");
 1103              		.loc 1 280 15 is_stmt 1 view .LVU348
 1104 0086 002C     		cmp	r4, #0
 1105 0088 F9D0     		beq	.L88
 1106              	.LBB15:
 281:../../Middlewares/LVGL/GUI/lvgl/src/draw/lv_draw.c ****             LV_PROFILER_DRAW_BEGIN_TAG(u->name);
 1107              		.loc 1 281 54 view .LVU349
 282:../../Middlewares/LVGL/GUI/lvgl/src/draw/lv_draw.c ****             int32_t taken_cnt = u->dispatch_cb(u, layer);
 1108              		.loc 1 282 48 view .LVU350
 283:../../Middlewares/LVGL/GUI/lvgl/src/draw/lv_draw.c ****             LV_PROFILER_DRAW_END_TAG(u->name);
 1109              		.loc 1 283 13 view .LVU351
 283:../../Middlewares/LVGL/GUI/lvgl/src/draw/lv_draw.c ****             LV_PROFILER_DRAW_END_TAG(u->name);
 1110              		.loc 1 283 34 is_stmt 0 view .LVU352
 1111 008a E368     		ldr	r3, [r4, #12]
 283:../../Middlewares/LVGL/GUI/lvgl/src/draw/lv_draw.c ****             LV_PROFILER_DRAW_END_TAG(u->name);
 1112              		.loc 1 283 33 view .LVU353
ARM GAS  C:\Users\28576\AppData\Local\Temp\cc59YylE.s 			page 38


 1113 008c 3146     		mov	r1, r6
 1114 008e 2046     		mov	r0, r4
 1115 0090 9847     		blx	r3
 1116              	.LVL111:
 284:../../Middlewares/LVGL/GUI/lvgl/src/draw/lv_draw.c ****             LV_PROFILER_DRAW_END_TAG("dispatch_cb");
 1117              		.loc 1 284 46 is_stmt 1 view .LVU354
 285:../../Middlewares/LVGL/GUI/lvgl/src/draw/lv_draw.c ****             if(taken_cnt != LV_DRAW_UNIT_IDLE) task_dispatched = true;
 1118              		.loc 1 285 52 view .LVU355
 286:../../Middlewares/LVGL/GUI/lvgl/src/draw/lv_draw.c ****             u = u->next;
 1119              		.loc 1 286 13 view .LVU356
 286:../../Middlewares/LVGL/GUI/lvgl/src/draw/lv_draw.c ****             u = u->next;
 1120              		.loc 1 286 15 is_stmt 0 view .LVU357
 1121 0092 B0F1FF3F 		cmp	r0, #-1
 1122 0096 F5D0     		beq	.L92
 286:../../Middlewares/LVGL/GUI/lvgl/src/draw/lv_draw.c ****             u = u->next;
 1123              		.loc 1 286 64 discriminator 1 view .LVU358
 1124 0098 0127     		movs	r7, #1
 1125              	.LVL112:
 286:../../Middlewares/LVGL/GUI/lvgl/src/draw/lv_draw.c ****             u = u->next;
 1126              		.loc 1 286 64 discriminator 1 view .LVU359
 1127 009a F3E7     		b	.L92
 1128              	.L100:
 1129              		.align	2
 1130              	.L99:
 1131 009c 00000000 		.word	lv_global
 1132              	.LBE15:
 1133              	.LBE21:
 1134              		.cfi_endproc
 1135              	.LFE194:
 1137              		.section	.text.lv_draw_dispatch,"ax",%progbits
 1138              		.align	1
 1139              		.global	lv_draw_dispatch
 1140              		.syntax unified
 1141              		.thumb
 1142              		.thumb_func
 1144              	lv_draw_dispatch:
 1145              	.LFB193:
 213:../../Middlewares/LVGL/GUI/lvgl/src/draw/lv_draw.c ****     LV_PROFILER_DRAW_BEGIN;
 1146              		.loc 1 213 1 is_stmt 1 view -0
 1147              		.cfi_startproc
 1148              		@ args = 0, pretend = 0, frame = 0
 1149              		@ frame_needed = 0, uses_anonymous_args = 0
 1150 0000 70B5     		push	{r4, r5, r6, lr}
 1151              	.LCFI8:
 1152              		.cfi_def_cfa_offset 16
 1153              		.cfi_offset 4, -16
 1154              		.cfi_offset 5, -12
 1155              		.cfi_offset 6, -8
 1156              		.cfi_offset 14, -4
 214:../../Middlewares/LVGL/GUI/lvgl/src/draw/lv_draw.c ****     bool task_dispatched = false;
 1157              		.loc 1 214 27 view .LVU361
 215:../../Middlewares/LVGL/GUI/lvgl/src/draw/lv_draw.c ****     lv_display_t * disp = lv_display_get_next(NULL);
 1158              		.loc 1 215 5 view .LVU362
 1159              	.LVL113:
 216:../../Middlewares/LVGL/GUI/lvgl/src/draw/lv_draw.c ****     while(disp) {
 1160              		.loc 1 216 5 view .LVU363
 216:../../Middlewares/LVGL/GUI/lvgl/src/draw/lv_draw.c ****     while(disp) {
ARM GAS  C:\Users\28576\AppData\Local\Temp\cc59YylE.s 			page 39


 1161              		.loc 1 216 27 is_stmt 0 view .LVU364
 1162 0002 0020     		movs	r0, #0
 1163 0004 FFF7FEFF 		bl	lv_display_get_next
 1164              	.LVL114:
 1165 0008 0546     		mov	r5, r0
 1166              	.LVL115:
 217:../../Middlewares/LVGL/GUI/lvgl/src/draw/lv_draw.c ****         lv_layer_t * layer = disp->layer_head;
 1167              		.loc 1 217 5 is_stmt 1 view .LVU365
 215:../../Middlewares/LVGL/GUI/lvgl/src/draw/lv_draw.c ****     lv_display_t * disp = lv_display_get_next(NULL);
 1168              		.loc 1 215 10 is_stmt 0 view .LVU366
 1169 000a 0026     		movs	r6, #0
 217:../../Middlewares/LVGL/GUI/lvgl/src/draw/lv_draw.c ****         lv_layer_t * layer = disp->layer_head;
 1170              		.loc 1 217 10 view .LVU367
 1171 000c 0EE0     		b	.L102
 1172              	.LVL116:
 1173              	.L104:
 1174              	.LBB22:
 222:../../Middlewares/LVGL/GUI/lvgl/src/draw/lv_draw.c ****         }
 1175              		.loc 1 222 13 is_stmt 1 view .LVU368
 222:../../Middlewares/LVGL/GUI/lvgl/src/draw/lv_draw.c ****         }
 1176              		.loc 1 222 19 is_stmt 0 view .LVU369
 1177 000e E46C     		ldr	r4, [r4, #76]
 1178              	.LVL117:
 1179              	.L103:
 219:../../Middlewares/LVGL/GUI/lvgl/src/draw/lv_draw.c ****             if(lv_draw_dispatch_layer(disp, layer))
 1180              		.loc 1 219 15 is_stmt 1 view .LVU370
 1181 0010 3CB1     		cbz	r4, .L110
 220:../../Middlewares/LVGL/GUI/lvgl/src/draw/lv_draw.c ****                 task_dispatched = true;
 1182              		.loc 1 220 13 view .LVU371
 220:../../Middlewares/LVGL/GUI/lvgl/src/draw/lv_draw.c ****                 task_dispatched = true;
 1183              		.loc 1 220 16 is_stmt 0 view .LVU372
 1184 0012 2146     		mov	r1, r4
 1185 0014 2846     		mov	r0, r5
 1186 0016 FFF7FEFF 		bl	lv_draw_dispatch_layer
 1187              	.LVL118:
 220:../../Middlewares/LVGL/GUI/lvgl/src/draw/lv_draw.c ****                 task_dispatched = true;
 1188              		.loc 1 220 15 discriminator 1 view .LVU373
 1189 001a 0028     		cmp	r0, #0
 1190 001c F7D0     		beq	.L104
 221:../../Middlewares/LVGL/GUI/lvgl/src/draw/lv_draw.c ****             layer = layer->next;
 1191              		.loc 1 221 33 view .LVU374
 1192 001e 0646     		mov	r6, r0
 1193              	.LVL119:
 221:../../Middlewares/LVGL/GUI/lvgl/src/draw/lv_draw.c ****             layer = layer->next;
 1194              		.loc 1 221 33 view .LVU375
 1195 0020 F5E7     		b	.L104
 1196              	.LVL120:
 1197              	.L110:
 224:../../Middlewares/LVGL/GUI/lvgl/src/draw/lv_draw.c ****             lv_draw_wait_for_finish();
 1198              		.loc 1 224 9 is_stmt 1 view .LVU376
 224:../../Middlewares/LVGL/GUI/lvgl/src/draw/lv_draw.c ****             lv_draw_wait_for_finish();
 1199              		.loc 1 224 11 is_stmt 0 view .LVU377
 1200 0022 3EB1     		cbz	r6, .L111
 1201              	.L106:
 228:../../Middlewares/LVGL/GUI/lvgl/src/draw/lv_draw.c ****     }
 1202              		.loc 1 228 9 is_stmt 1 view .LVU378
 228:../../Middlewares/LVGL/GUI/lvgl/src/draw/lv_draw.c ****     }
ARM GAS  C:\Users\28576\AppData\Local\Temp\cc59YylE.s 			page 40


 1203              		.loc 1 228 16 is_stmt 0 view .LVU379
 1204 0024 2846     		mov	r0, r5
 1205 0026 FFF7FEFF 		bl	lv_display_get_next
 1206              	.LVL121:
 1207 002a 0546     		mov	r5, r0
 1208              	.LVL122:
 1209              	.L102:
 228:../../Middlewares/LVGL/GUI/lvgl/src/draw/lv_draw.c ****     }
 1210              		.loc 1 228 16 view .LVU380
 1211              	.LBE22:
 217:../../Middlewares/LVGL/GUI/lvgl/src/draw/lv_draw.c ****         lv_layer_t * layer = disp->layer_head;
 1212              		.loc 1 217 11 is_stmt 1 view .LVU381
 1213 002c 2DB1     		cbz	r5, .L112
 1214              	.LBB23:
 218:../../Middlewares/LVGL/GUI/lvgl/src/draw/lv_draw.c ****         while(layer) {
 1215              		.loc 1 218 9 view .LVU382
 218:../../Middlewares/LVGL/GUI/lvgl/src/draw/lv_draw.c ****         while(layer) {
 1216              		.loc 1 218 22 is_stmt 0 view .LVU383
 1217 002e D5F8B042 		ldr	r4, [r5, #688]
 1218              	.LVL123:
 219:../../Middlewares/LVGL/GUI/lvgl/src/draw/lv_draw.c ****             if(lv_draw_dispatch_layer(disp, layer))
 1219              		.loc 1 219 9 is_stmt 1 view .LVU384
 219:../../Middlewares/LVGL/GUI/lvgl/src/draw/lv_draw.c ****             if(lv_draw_dispatch_layer(disp, layer))
 1220              		.loc 1 219 14 is_stmt 0 view .LVU385
 1221 0032 EDE7     		b	.L103
 1222              	.L111:
 225:../../Middlewares/LVGL/GUI/lvgl/src/draw/lv_draw.c ****             lv_draw_dispatch_request();
 1223              		.loc 1 225 13 is_stmt 1 view .LVU386
 226:../../Middlewares/LVGL/GUI/lvgl/src/draw/lv_draw.c ****         }
 1224              		.loc 1 226 13 view .LVU387
 1225 0034 FFF7FEFF 		bl	lv_draw_dispatch_request
 1226              	.LVL124:
 1227 0038 F4E7     		b	.L106
 1228              	.LVL125:
 1229              	.L112:
 226:../../Middlewares/LVGL/GUI/lvgl/src/draw/lv_draw.c ****         }
 1230              		.loc 1 226 13 is_stmt 0 view .LVU388
 1231              	.LBE23:
 231:../../Middlewares/LVGL/GUI/lvgl/src/draw/lv_draw.c **** 
 1232              		.loc 1 231 1 view .LVU389
 1233 003a 70BD     		pop	{r4, r5, r6, pc}
 231:../../Middlewares/LVGL/GUI/lvgl/src/draw/lv_draw.c **** 
 1234              		.loc 1 231 1 view .LVU390
 1235              		.cfi_endproc
 1236              	.LFE193:
 1238              		.section	.text.lv_draw_finalize_task_creation,"ax",%progbits
 1239              		.align	1
 1240              		.global	lv_draw_finalize_task_creation
 1241              		.syntax unified
 1242              		.thumb
 1243              		.thumb_func
 1245              	lv_draw_finalize_task_creation:
 1246              	.LVL126:
 1247              	.LFB191:
 133:../../Middlewares/LVGL/GUI/lvgl/src/draw/lv_draw.c ****     LV_PROFILER_DRAW_BEGIN;
 1248              		.loc 1 133 1 is_stmt 1 view -0
 1249              		.cfi_startproc
ARM GAS  C:\Users\28576\AppData\Local\Temp\cc59YylE.s 			page 41


 1250              		@ args = 0, pretend = 0, frame = 0
 1251              		@ frame_needed = 0, uses_anonymous_args = 0
 133:../../Middlewares/LVGL/GUI/lvgl/src/draw/lv_draw.c ****     LV_PROFILER_DRAW_BEGIN;
 1252              		.loc 1 133 1 is_stmt 0 view .LVU392
 1253 0000 70B5     		push	{r4, r5, r6, lr}
 1254              	.LCFI9:
 1255              		.cfi_def_cfa_offset 16
 1256              		.cfi_offset 4, -16
 1257              		.cfi_offset 5, -12
 1258              		.cfi_offset 6, -8
 1259              		.cfi_offset 14, -4
 1260 0002 0D46     		mov	r5, r1
 134:../../Middlewares/LVGL/GUI/lvgl/src/draw/lv_draw.c ****     lv_draw_dsc_base_t * base_dsc = t->draw_dsc;
 1261              		.loc 1 134 27 is_stmt 1 view .LVU393
 135:../../Middlewares/LVGL/GUI/lvgl/src/draw/lv_draw.c ****     base_dsc->layer = layer;
 1262              		.loc 1 135 5 view .LVU394
 135:../../Middlewares/LVGL/GUI/lvgl/src/draw/lv_draw.c ****     base_dsc->layer = layer;
 1263              		.loc 1 135 26 is_stmt 0 view .LVU395
 1264 0004 4C6D     		ldr	r4, [r1, #84]
 1265              	.LVL127:
 136:../../Middlewares/LVGL/GUI/lvgl/src/draw/lv_draw.c **** 
 1266              		.loc 1 136 5 is_stmt 1 view .LVU396
 136:../../Middlewares/LVGL/GUI/lvgl/src/draw/lv_draw.c **** 
 1267              		.loc 1 136 21 is_stmt 0 view .LVU397
 1268 0006 2061     		str	r0, [r4, #16]
 138:../../Middlewares/LVGL/GUI/lvgl/src/draw/lv_draw.c **** 
 1269              		.loc 1 138 5 is_stmt 1 view .LVU398
 1270              	.LVL128:
 145:../../Middlewares/LVGL/GUI/lvgl/src/draw/lv_draw.c ****         if(base_dsc->obj && lv_obj_has_flag(base_dsc->obj, LV_OBJ_FLAG_SEND_DRAW_TASK_EVENTS)) {
 1271              		.loc 1 145 5 view .LVU399
 145:../../Middlewares/LVGL/GUI/lvgl/src/draw/lv_draw.c ****         if(base_dsc->obj && lv_obj_has_flag(base_dsc->obj, LV_OBJ_FLAG_SEND_DRAW_TASK_EVENTS)) {
 1272              		.loc 1 145 12 is_stmt 0 view .LVU400
 1273 0008 234B     		ldr	r3, .L127
 1274 000a 93F83831 		ldrb	r3, [r3, #312]	@ zero_extendqisi2
 145:../../Middlewares/LVGL/GUI/lvgl/src/draw/lv_draw.c ****         if(base_dsc->obj && lv_obj_has_flag(base_dsc->obj, LV_OBJ_FLAG_SEND_DRAW_TASK_EVENTS)) {
 1275              		.loc 1 145 7 view .LVU401
 1276 000e 7BBB     		cbnz	r3, .L114
 1277              	.LBB24:
 146:../../Middlewares/LVGL/GUI/lvgl/src/draw/lv_draw.c ****             info->task_running = true;
 1278              		.loc 1 146 9 is_stmt 1 view .LVU402
 146:../../Middlewares/LVGL/GUI/lvgl/src/draw/lv_draw.c ****             info->task_running = true;
 1279              		.loc 1 146 20 is_stmt 0 view .LVU403
 1280 0010 2068     		ldr	r0, [r4]
 1281              	.LVL129:
 146:../../Middlewares/LVGL/GUI/lvgl/src/draw/lv_draw.c ****             info->task_running = true;
 1282              		.loc 1 146 11 view .LVU404
 1283 0012 20B1     		cbz	r0, .L115
 146:../../Middlewares/LVGL/GUI/lvgl/src/draw/lv_draw.c ****             info->task_running = true;
 1284              		.loc 1 146 29 discriminator 1 view .LVU405
 1285 0014 4FF40021 		mov	r1, #524288
 1286              	.LVL130:
 146:../../Middlewares/LVGL/GUI/lvgl/src/draw/lv_draw.c ****             info->task_running = true;
 1287              		.loc 1 146 29 discriminator 1 view .LVU406
 1288 0018 FFF7FEFF 		bl	lv_obj_has_flag
 1289              	.LVL131:
 146:../../Middlewares/LVGL/GUI/lvgl/src/draw/lv_draw.c ****             info->task_running = true;
 1290              		.loc 1 146 26 discriminator 2 view .LVU407
ARM GAS  C:\Users\28576\AppData\Local\Temp\cc59YylE.s 			page 42


 1291 001c 48B9     		cbnz	r0, .L125
 1292              	.L115:
 153:../../Middlewares/LVGL/GUI/lvgl/src/draw/lv_draw.c ****         t->preferred_draw_unit_id = 0;
 1293              		.loc 1 153 9 is_stmt 1 view .LVU408
 153:../../Middlewares/LVGL/GUI/lvgl/src/draw/lv_draw.c ****         t->preferred_draw_unit_id = 0;
 1294              		.loc 1 153 29 is_stmt 0 view .LVU409
 1295 001e 6423     		movs	r3, #100
 1296 0020 85F85930 		strb	r3, [r5, #89]
 154:../../Middlewares/LVGL/GUI/lvgl/src/draw/lv_draw.c ****         lv_draw_unit_t * u = info->unit_head;
 1297              		.loc 1 154 9 is_stmt 1 view .LVU410
 154:../../Middlewares/LVGL/GUI/lvgl/src/draw/lv_draw.c ****         lv_draw_unit_t * u = info->unit_head;
 1298              		.loc 1 154 35 is_stmt 0 view .LVU411
 1299 0024 0023     		movs	r3, #0
 1300 0026 85F85830 		strb	r3, [r5, #88]
 155:../../Middlewares/LVGL/GUI/lvgl/src/draw/lv_draw.c ****         while(u) {
 1301              		.loc 1 155 9 is_stmt 1 view .LVU412
 155:../../Middlewares/LVGL/GUI/lvgl/src/draw/lv_draw.c ****         while(u) {
 1302              		.loc 1 155 26 is_stmt 0 view .LVU413
 1303 002a 1B4B     		ldr	r3, .L127
 1304 002c D3F82441 		ldr	r4, [r3, #292]
 1305              	.LVL132:
 156:../../Middlewares/LVGL/GUI/lvgl/src/draw/lv_draw.c ****             if(u->evaluate_cb) {
 1306              		.loc 1 156 9 is_stmt 1 view .LVU414
 156:../../Middlewares/LVGL/GUI/lvgl/src/draw/lv_draw.c ****             if(u->evaluate_cb) {
 1307              		.loc 1 156 14 is_stmt 0 view .LVU415
 1308 0030 0DE0     		b	.L116
 1309              	.LVL133:
 1310              	.L125:
 147:../../Middlewares/LVGL/GUI/lvgl/src/draw/lv_draw.c ****             lv_obj_send_event(base_dsc->obj, LV_EVENT_DRAW_TASK_ADDED, t);
 1311              		.loc 1 147 13 is_stmt 1 view .LVU416
 147:../../Middlewares/LVGL/GUI/lvgl/src/draw/lv_draw.c ****             lv_obj_send_event(base_dsc->obj, LV_EVENT_DRAW_TASK_ADDED, t);
 1312              		.loc 1 147 32 is_stmt 0 view .LVU417
 1313 0032 0123     		movs	r3, #1
 1314 0034 184E     		ldr	r6, .L127
 1315 0036 86F83831 		strb	r3, [r6, #312]
 148:../../Middlewares/LVGL/GUI/lvgl/src/draw/lv_draw.c ****             info->task_running = false;
 1316              		.loc 1 148 13 is_stmt 1 view .LVU418
 1317 003a 2A46     		mov	r2, r5
 1318 003c 2221     		movs	r1, #34
 1319 003e 2068     		ldr	r0, [r4]
 1320 0040 FFF7FEFF 		bl	lv_obj_send_event
 1321              	.LVL134:
 149:../../Middlewares/LVGL/GUI/lvgl/src/draw/lv_draw.c ****         }
 1322              		.loc 1 149 13 view .LVU419
 149:../../Middlewares/LVGL/GUI/lvgl/src/draw/lv_draw.c ****         }
 1323              		.loc 1 149 32 is_stmt 0 view .LVU420
 1324 0044 0023     		movs	r3, #0
 1325 0046 86F83831 		strb	r3, [r6, #312]
 1326 004a E8E7     		b	.L115
 1327              	.LVL135:
 1328              	.L117:
 161:../../Middlewares/LVGL/GUI/lvgl/src/draw/lv_draw.c ****                 LV_PROFILER_DRAW_END_TAG("evaluate_cb");
 1329              		.loc 1 161 50 is_stmt 1 view .LVU421
 162:../../Middlewares/LVGL/GUI/lvgl/src/draw/lv_draw.c ****             }
 1330              		.loc 1 162 56 view .LVU422
 164:../../Middlewares/LVGL/GUI/lvgl/src/draw/lv_draw.c ****         }
 1331              		.loc 1 164 13 view .LVU423
ARM GAS  C:\Users\28576\AppData\Local\Temp\cc59YylE.s 			page 43


 164:../../Middlewares/LVGL/GUI/lvgl/src/draw/lv_draw.c ****         }
 1332              		.loc 1 164 15 is_stmt 0 view .LVU424
 1333 004c 2468     		ldr	r4, [r4]
 1334              	.LVL136:
 1335              	.L116:
 156:../../Middlewares/LVGL/GUI/lvgl/src/draw/lv_draw.c ****             if(u->evaluate_cb) {
 1336              		.loc 1 156 15 is_stmt 1 view .LVU425
 1337 004e 34B1     		cbz	r4, .L126
 157:../../Middlewares/LVGL/GUI/lvgl/src/draw/lv_draw.c ****                 LV_PROFILER_DRAW_BEGIN_TAG("evaluate_cb");
 1338              		.loc 1 157 13 view .LVU426
 157:../../Middlewares/LVGL/GUI/lvgl/src/draw/lv_draw.c ****                 LV_PROFILER_DRAW_BEGIN_TAG("evaluate_cb");
 1339              		.loc 1 157 17 is_stmt 0 view .LVU427
 1340 0050 2369     		ldr	r3, [r4, #16]
 157:../../Middlewares/LVGL/GUI/lvgl/src/draw/lv_draw.c ****                 LV_PROFILER_DRAW_BEGIN_TAG("evaluate_cb");
 1341              		.loc 1 157 15 view .LVU428
 1342 0052 002B     		cmp	r3, #0
 1343 0054 FAD0     		beq	.L117
 158:../../Middlewares/LVGL/GUI/lvgl/src/draw/lv_draw.c ****                 LV_PROFILER_DRAW_BEGIN_TAG(u->name);
 1344              		.loc 1 158 58 is_stmt 1 view .LVU429
 159:../../Middlewares/LVGL/GUI/lvgl/src/draw/lv_draw.c ****                 u->evaluate_cb(u, t);
 1345              		.loc 1 159 52 view .LVU430
 160:../../Middlewares/LVGL/GUI/lvgl/src/draw/lv_draw.c ****                 LV_PROFILER_DRAW_END_TAG(u->name);
 1346              		.loc 1 160 17 view .LVU431
 1347 0056 2946     		mov	r1, r5
 1348 0058 2046     		mov	r0, r4
 1349 005a 9847     		blx	r3
 1350              	.LVL137:
 1351 005c F6E7     		b	.L117
 1352              	.L126:
 166:../../Middlewares/LVGL/GUI/lvgl/src/draw/lv_draw.c ****             LV_LOG_WARN("the draw task was not taken by any units");
 1353              		.loc 1 166 9 view .LVU432
 166:../../Middlewares/LVGL/GUI/lvgl/src/draw/lv_draw.c ****             LV_LOG_WARN("the draw task was not taken by any units");
 1354              		.loc 1 166 13 is_stmt 0 view .LVU433
 1355 005e 95F85830 		ldrb	r3, [r5, #88]	@ zero_extendqisi2
 166:../../Middlewares/LVGL/GUI/lvgl/src/draw/lv_draw.c ****             LV_LOG_WARN("the draw task was not taken by any units");
 1356              		.loc 1 166 11 view .LVU434
 1357 0062 13B9     		cbnz	r3, .L119
 167:../../Middlewares/LVGL/GUI/lvgl/src/draw/lv_draw.c ****             t->state = LV_DRAW_TASK_STATE_READY;
 1358              		.loc 1 167 13 is_stmt 1 view .LVU435
 167:../../Middlewares/LVGL/GUI/lvgl/src/draw/lv_draw.c ****             t->state = LV_DRAW_TASK_STATE_READY;
 1359              		.loc 1 167 13 view .LVU436
 167:../../Middlewares/LVGL/GUI/lvgl/src/draw/lv_draw.c ****             t->state = LV_DRAW_TASK_STATE_READY;
 1360              		.loc 1 167 13 view .LVU437
 168:../../Middlewares/LVGL/GUI/lvgl/src/draw/lv_draw.c ****         }
 1361              		.loc 1 168 13 view .LVU438
 168:../../Middlewares/LVGL/GUI/lvgl/src/draw/lv_draw.c ****         }
 1362              		.loc 1 168 22 is_stmt 0 view .LVU439
 1363 0064 0323     		movs	r3, #3
 1364 0066 2B65     		str	r3, [r5, #80]
 1365              	.LVL138:
 1366              	.L113:
 168:../../Middlewares/LVGL/GUI/lvgl/src/draw/lv_draw.c ****         }
 1367              		.loc 1 168 22 view .LVU440
 1368              	.LBE24:
 191:../../Middlewares/LVGL/GUI/lvgl/src/draw/lv_draw.c **** 
 1369              		.loc 1 191 1 view .LVU441
 1370 0068 70BD     		pop	{r4, r5, r6, pc}
ARM GAS  C:\Users\28576\AppData\Local\Temp\cc59YylE.s 			page 44


 1371              	.LVL139:
 1372              	.L119:
 1373              	.LBB25:
 171:../../Middlewares/LVGL/GUI/lvgl/src/draw/lv_draw.c ****         }
 1374              		.loc 1 171 13 is_stmt 1 view .LVU442
 1375 006a FFF7FEFF 		bl	lv_draw_dispatch
 1376              	.LVL140:
 1377 006e FBE7     		b	.L113
 1378              	.LVL141:
 1379              	.L114:
 171:../../Middlewares/LVGL/GUI/lvgl/src/draw/lv_draw.c ****         }
 1380              		.loc 1 171 13 is_stmt 0 view .LVU443
 1381              	.LBE25:
 1382              	.LBB26:
 176:../../Middlewares/LVGL/GUI/lvgl/src/draw/lv_draw.c ****         t->preferred_draw_unit_id = 0;
 1383              		.loc 1 176 9 is_stmt 1 view .LVU444
 176:../../Middlewares/LVGL/GUI/lvgl/src/draw/lv_draw.c ****         t->preferred_draw_unit_id = 0;
 1384              		.loc 1 176 29 is_stmt 0 view .LVU445
 1385 0070 6423     		movs	r3, #100
 1386 0072 81F85930 		strb	r3, [r1, #89]
 177:../../Middlewares/LVGL/GUI/lvgl/src/draw/lv_draw.c ****         lv_draw_unit_t * u = info->unit_head;
 1387              		.loc 1 177 9 is_stmt 1 view .LVU446
 177:../../Middlewares/LVGL/GUI/lvgl/src/draw/lv_draw.c ****         lv_draw_unit_t * u = info->unit_head;
 1388              		.loc 1 177 35 is_stmt 0 view .LVU447
 1389 0076 0023     		movs	r3, #0
 1390 0078 81F85830 		strb	r3, [r1, #88]
 178:../../Middlewares/LVGL/GUI/lvgl/src/draw/lv_draw.c ****         while(u) {
 1391              		.loc 1 178 9 is_stmt 1 view .LVU448
 178:../../Middlewares/LVGL/GUI/lvgl/src/draw/lv_draw.c ****         while(u) {
 1392              		.loc 1 178 26 is_stmt 0 view .LVU449
 1393 007c 064B     		ldr	r3, .L127
 1394 007e D3F82441 		ldr	r4, [r3, #292]
 1395              	.LVL142:
 179:../../Middlewares/LVGL/GUI/lvgl/src/draw/lv_draw.c ****             if(u->evaluate_cb) {
 1396              		.loc 1 179 9 is_stmt 1 view .LVU450
 179:../../Middlewares/LVGL/GUI/lvgl/src/draw/lv_draw.c ****             if(u->evaluate_cb) {
 1397              		.loc 1 179 14 is_stmt 0 view .LVU451
 1398 0082 00E0     		b	.L121
 1399              	.LVL143:
 1400              	.L122:
 184:../../Middlewares/LVGL/GUI/lvgl/src/draw/lv_draw.c ****                 LV_PROFILER_DRAW_END_TAG("evaluate_cb");
 1401              		.loc 1 184 50 is_stmt 1 view .LVU452
 185:../../Middlewares/LVGL/GUI/lvgl/src/draw/lv_draw.c ****             }
 1402              		.loc 1 185 56 view .LVU453
 187:../../Middlewares/LVGL/GUI/lvgl/src/draw/lv_draw.c ****         }
 1403              		.loc 1 187 13 view .LVU454
 187:../../Middlewares/LVGL/GUI/lvgl/src/draw/lv_draw.c ****         }
 1404              		.loc 1 187 15 is_stmt 0 view .LVU455
 1405 0084 2468     		ldr	r4, [r4]
 1406              	.LVL144:
 1407              	.L121:
 179:../../Middlewares/LVGL/GUI/lvgl/src/draw/lv_draw.c ****             if(u->evaluate_cb) {
 1408              		.loc 1 179 15 is_stmt 1 view .LVU456
 1409 0086 002C     		cmp	r4, #0
 1410 0088 EED0     		beq	.L113
 180:../../Middlewares/LVGL/GUI/lvgl/src/draw/lv_draw.c ****                 LV_PROFILER_DRAW_BEGIN_TAG("evaluate_cb");
 1411              		.loc 1 180 13 view .LVU457
ARM GAS  C:\Users\28576\AppData\Local\Temp\cc59YylE.s 			page 45


 180:../../Middlewares/LVGL/GUI/lvgl/src/draw/lv_draw.c ****                 LV_PROFILER_DRAW_BEGIN_TAG("evaluate_cb");
 1412              		.loc 1 180 17 is_stmt 0 view .LVU458
 1413 008a 2369     		ldr	r3, [r4, #16]
 180:../../Middlewares/LVGL/GUI/lvgl/src/draw/lv_draw.c ****                 LV_PROFILER_DRAW_BEGIN_TAG("evaluate_cb");
 1414              		.loc 1 180 15 view .LVU459
 1415 008c 002B     		cmp	r3, #0
 1416 008e F9D0     		beq	.L122
 181:../../Middlewares/LVGL/GUI/lvgl/src/draw/lv_draw.c ****                 LV_PROFILER_DRAW_BEGIN_TAG(u->name);
 1417              		.loc 1 181 58 is_stmt 1 view .LVU460
 182:../../Middlewares/LVGL/GUI/lvgl/src/draw/lv_draw.c ****                 u->evaluate_cb(u, t);
 1418              		.loc 1 182 52 view .LVU461
 183:../../Middlewares/LVGL/GUI/lvgl/src/draw/lv_draw.c ****                 LV_PROFILER_DRAW_END_TAG(u->name);
 1419              		.loc 1 183 17 view .LVU462
 1420 0090 2946     		mov	r1, r5
 1421 0092 2046     		mov	r0, r4
 1422 0094 9847     		blx	r3
 1423              	.LVL145:
 1424 0096 F5E7     		b	.L122
 1425              	.L128:
 1426              		.align	2
 1427              	.L127:
 1428 0098 00000000 		.word	lv_global
 1429              	.LBE26:
 1430              		.cfi_endproc
 1431              	.LFE191:
 1433              		.section	.text.lv_draw_get_unit_count,"ax",%progbits
 1434              		.align	1
 1435              		.global	lv_draw_get_unit_count
 1436              		.syntax unified
 1437              		.thumb
 1438              		.thumb_func
 1440              	lv_draw_get_unit_count:
 1441              	.LFB197:
 319:../../Middlewares/LVGL/GUI/lvgl/src/draw/lv_draw.c ****     return _draw_info.unit_cnt;
 1442              		.loc 1 319 1 view -0
 1443              		.cfi_startproc
 1444              		@ args = 0, pretend = 0, frame = 0
 1445              		@ frame_needed = 0, uses_anonymous_args = 0
 1446              		@ link register save eliminated.
 320:../../Middlewares/LVGL/GUI/lvgl/src/draw/lv_draw.c **** }
 1447              		.loc 1 320 5 view .LVU464
 321:../../Middlewares/LVGL/GUI/lvgl/src/draw/lv_draw.c **** 
 1448              		.loc 1 321 1 is_stmt 0 view .LVU465
 1449 0000 014B     		ldr	r3, .L130
 1450 0002 D3F82801 		ldr	r0, [r3, #296]
 1451 0006 7047     		bx	lr
 1452              	.L131:
 1453              		.align	2
 1454              	.L130:
 1455 0008 00000000 		.word	lv_global
 1456              		.cfi_endproc
 1457              	.LFE197:
 1459              		.section	.text.lv_draw_get_next_available_task,"ax",%progbits
 1460              		.align	1
 1461              		.global	lv_draw_get_next_available_task
 1462              		.syntax unified
 1463              		.thumb
ARM GAS  C:\Users\28576\AppData\Local\Temp\cc59YylE.s 			page 46


 1464              		.thumb_func
 1466              	lv_draw_get_next_available_task:
 1467              	.LVL146:
 1468              	.LFB199:
 334:../../Middlewares/LVGL/GUI/lvgl/src/draw/lv_draw.c ****     LV_PROFILER_DRAW_BEGIN;
 1469              		.loc 1 334 1 is_stmt 1 view -0
 1470              		.cfi_startproc
 1471              		@ args = 0, pretend = 0, frame = 0
 1472              		@ frame_needed = 0, uses_anonymous_args = 0
 334:../../Middlewares/LVGL/GUI/lvgl/src/draw/lv_draw.c ****     LV_PROFILER_DRAW_BEGIN;
 1473              		.loc 1 334 1 is_stmt 0 view .LVU467
 1474 0000 F8B5     		push	{r3, r4, r5, r6, r7, lr}
 1475              	.LCFI10:
 1476              		.cfi_def_cfa_offset 24
 1477              		.cfi_offset 3, -24
 1478              		.cfi_offset 4, -20
 1479              		.cfi_offset 5, -16
 1480              		.cfi_offset 6, -12
 1481              		.cfi_offset 7, -8
 1482              		.cfi_offset 14, -4
 1483 0002 0546     		mov	r5, r0
 1484 0004 0C46     		mov	r4, r1
 1485 0006 1646     		mov	r6, r2
 335:../../Middlewares/LVGL/GUI/lvgl/src/draw/lv_draw.c **** 
 1486              		.loc 1 335 27 is_stmt 1 view .LVU468
 338:../../Middlewares/LVGL/GUI/lvgl/src/draw/lv_draw.c ****         int32_t hor_res = lv_display_get_horizontal_resolution(lv_refr_get_disp_refreshing());
 1487              		.loc 1 338 5 view .LVU469
 338:../../Middlewares/LVGL/GUI/lvgl/src/draw/lv_draw.c ****         int32_t hor_res = lv_display_get_horizontal_resolution(lv_refr_get_disp_refreshing());
 1488              		.loc 1 338 13 is_stmt 0 view .LVU470
 1489 0008 436C     		ldr	r3, [r0, #68]
 338:../../Middlewares/LVGL/GUI/lvgl/src/draw/lv_draw.c ****         int32_t hor_res = lv_display_get_horizontal_resolution(lv_refr_get_disp_refreshing());
 1490              		.loc 1 338 7 view .LVU471
 1491 000a 7BB1     		cbz	r3, .L133
 1492              	.LBB27:
 339:../../Middlewares/LVGL/GUI/lvgl/src/draw/lv_draw.c ****         int32_t ver_res = lv_display_get_vertical_resolution(lv_refr_get_disp_refreshing());
 1493              		.loc 1 339 9 is_stmt 1 view .LVU472
 339:../../Middlewares/LVGL/GUI/lvgl/src/draw/lv_draw.c ****         int32_t ver_res = lv_display_get_vertical_resolution(lv_refr_get_disp_refreshing());
 1494              		.loc 1 339 64 is_stmt 0 view .LVU473
 1495 000c FFF7FEFF 		bl	lv_refr_get_disp_refreshing
 1496              	.LVL147:
 339:../../Middlewares/LVGL/GUI/lvgl/src/draw/lv_draw.c ****         int32_t ver_res = lv_display_get_vertical_resolution(lv_refr_get_disp_refreshing());
 1497              		.loc 1 339 27 discriminator 1 view .LVU474
 1498 0010 FFF7FEFF 		bl	lv_display_get_horizontal_resolution
 1499              	.LVL148:
 1500 0014 0746     		mov	r7, r0
 1501              	.LVL149:
 340:../../Middlewares/LVGL/GUI/lvgl/src/draw/lv_draw.c ****         lv_draw_task_t * t = layer->draw_task_head;
 1502              		.loc 1 340 9 is_stmt 1 view .LVU475
 340:../../Middlewares/LVGL/GUI/lvgl/src/draw/lv_draw.c ****         lv_draw_task_t * t = layer->draw_task_head;
 1503              		.loc 1 340 62 is_stmt 0 view .LVU476
 1504 0016 FFF7FEFF 		bl	lv_refr_get_disp_refreshing
 1505              	.LVL150:
 340:../../Middlewares/LVGL/GUI/lvgl/src/draw/lv_draw.c ****         lv_draw_task_t * t = layer->draw_task_head;
 1506              		.loc 1 340 27 discriminator 1 view .LVU477
 1507 001a FFF7FEFF 		bl	lv_display_get_vertical_resolution
 1508              	.LVL151:
 341:../../Middlewares/LVGL/GUI/lvgl/src/draw/lv_draw.c ****         if(t->state != LV_DRAW_TASK_STATE_QUEUED &&
ARM GAS  C:\Users\28576\AppData\Local\Temp\cc59YylE.s 			page 47


 1509              		.loc 1 341 9 is_stmt 1 view .LVU478
 341:../../Middlewares/LVGL/GUI/lvgl/src/draw/lv_draw.c ****         if(t->state != LV_DRAW_TASK_STATE_QUEUED &&
 1510              		.loc 1 341 26 is_stmt 0 view .LVU479
 1511 001e 6B6C     		ldr	r3, [r5, #68]
 1512              	.LVL152:
 342:../../Middlewares/LVGL/GUI/lvgl/src/draw/lv_draw.c ****            t->area.x1 <= 0 && t->area.x2 >= hor_res - 1 &&
 1513              		.loc 1 342 9 is_stmt 1 view .LVU480
 342:../../Middlewares/LVGL/GUI/lvgl/src/draw/lv_draw.c ****            t->area.x1 <= 0 && t->area.x2 >= hor_res - 1 &&
 1514              		.loc 1 342 13 is_stmt 0 view .LVU481
 1515 0020 1A6D     		ldr	r2, [r3, #80]
 342:../../Middlewares/LVGL/GUI/lvgl/src/draw/lv_draw.c ****            t->area.x1 <= 0 && t->area.x2 >= hor_res - 1 &&
 1516              		.loc 1 342 11 view .LVU482
 1517 0022 012A     		cmp	r2, #1
 1518 0024 02D0     		beq	.L133
 343:../../Middlewares/LVGL/GUI/lvgl/src/draw/lv_draw.c ****            t->area.y1 <= 0 && t->area.y2 >= ver_res - 1) {
 1519              		.loc 1 343 19 view .LVU483
 1520 0026 9A68     		ldr	r2, [r3, #8]
 342:../../Middlewares/LVGL/GUI/lvgl/src/draw/lv_draw.c ****            t->area.x1 <= 0 && t->area.x2 >= hor_res - 1 &&
 1521              		.loc 1 342 50 discriminator 1 view .LVU484
 1522 0028 002A     		cmp	r2, #0
 1523 002a 02DD     		ble	.L143
 1524              	.LVL153:
 1525              	.L133:
 342:../../Middlewares/LVGL/GUI/lvgl/src/draw/lv_draw.c ****            t->area.x1 <= 0 && t->area.x2 >= hor_res - 1 &&
 1526              		.loc 1 342 50 discriminator 1 view .LVU485
 1527              	.LBE27:
 350:../../Middlewares/LVGL/GUI/lvgl/src/draw/lv_draw.c ****     while(t) {
 1528              		.loc 1 350 5 is_stmt 1 view .LVU486
 350:../../Middlewares/LVGL/GUI/lvgl/src/draw/lv_draw.c ****     while(t) {
 1529              		.loc 1 350 48 is_stmt 0 view .LVU487
 1530 002c 7CB1     		cbz	r4, .L135
 350:../../Middlewares/LVGL/GUI/lvgl/src/draw/lv_draw.c ****     while(t) {
 1531              		.loc 1 350 22 discriminator 1 view .LVU488
 1532 002e 2468     		ldr	r4, [r4]
 1533              	.LVL154:
 350:../../Middlewares/LVGL/GUI/lvgl/src/draw/lv_draw.c ****     while(t) {
 1534              		.loc 1 350 22 discriminator 1 view .LVU489
 1535 0030 16E0     		b	.L139
 1536              	.LVL155:
 1537              	.L143:
 1538              	.LBB28:
 343:../../Middlewares/LVGL/GUI/lvgl/src/draw/lv_draw.c ****            t->area.y1 <= 0 && t->area.y2 >= ver_res - 1) {
 1539              		.loc 1 343 38 view .LVU490
 1540 0032 1969     		ldr	r1, [r3, #16]
 343:../../Middlewares/LVGL/GUI/lvgl/src/draw/lv_draw.c ****            t->area.y1 <= 0 && t->area.y2 >= ver_res - 1) {
 1541              		.loc 1 343 53 view .LVU491
 1542 0034 7A1E     		subs	r2, r7, #1
 343:../../Middlewares/LVGL/GUI/lvgl/src/draw/lv_draw.c ****            t->area.y1 <= 0 && t->area.y2 >= ver_res - 1) {
 1543              		.loc 1 343 28 view .LVU492
 1544 0036 9142     		cmp	r1, r2
 1545 0038 F8DB     		blt	.L133
 344:../../Middlewares/LVGL/GUI/lvgl/src/draw/lv_draw.c ****             LV_PROFILER_DRAW_END;
 1546              		.loc 1 344 19 view .LVU493
 1547 003a DA68     		ldr	r2, [r3, #12]
 343:../../Middlewares/LVGL/GUI/lvgl/src/draw/lv_draw.c ****            t->area.y1 <= 0 && t->area.y2 >= ver_res - 1) {
 1548              		.loc 1 343 57 discriminator 1 view .LVU494
 1549 003c 002A     		cmp	r2, #0
ARM GAS  C:\Users\28576\AppData\Local\Temp\cc59YylE.s 			page 48


 1550 003e F5DC     		bgt	.L133
 344:../../Middlewares/LVGL/GUI/lvgl/src/draw/lv_draw.c ****             LV_PROFILER_DRAW_END;
 1551              		.loc 1 344 38 view .LVU495
 1552 0040 5B69     		ldr	r3, [r3, #20]
 1553              	.LVL156:
 344:../../Middlewares/LVGL/GUI/lvgl/src/draw/lv_draw.c ****             LV_PROFILER_DRAW_END;
 1554              		.loc 1 344 53 view .LVU496
 1555 0042 0138     		subs	r0, r0, #1
 1556              	.LVL157:
 344:../../Middlewares/LVGL/GUI/lvgl/src/draw/lv_draw.c ****             LV_PROFILER_DRAW_END;
 1557              		.loc 1 344 28 view .LVU497
 1558 0044 8342     		cmp	r3, r0
 1559 0046 F1DB     		blt	.L133
 346:../../Middlewares/LVGL/GUI/lvgl/src/draw/lv_draw.c ****         }
 1560              		.loc 1 346 20 view .LVU498
 1561 0048 0024     		movs	r4, #0
 1562              	.LVL158:
 1563              	.L132:
 346:../../Middlewares/LVGL/GUI/lvgl/src/draw/lv_draw.c ****         }
 1564              		.loc 1 346 20 view .LVU499
 1565              	.LBE28:
 364:../../Middlewares/LVGL/GUI/lvgl/src/draw/lv_draw.c **** 
 1566              		.loc 1 364 1 view .LVU500
 1567 004a 2046     		mov	r0, r4
 1568 004c F8BD     		pop	{r3, r4, r5, r6, r7, pc}
 1569              	.LVL159:
 1570              	.L135:
 350:../../Middlewares/LVGL/GUI/lvgl/src/draw/lv_draw.c ****     while(t) {
 1571              		.loc 1 350 22 discriminator 2 view .LVU501
 1572 004e 6C6C     		ldr	r4, [r5, #68]
 1573              	.LVL160:
 350:../../Middlewares/LVGL/GUI/lvgl/src/draw/lv_draw.c ****     while(t) {
 1574              		.loc 1 350 22 discriminator 2 view .LVU502
 1575 0050 06E0     		b	.L139
 1576              	.L138:
 355:../../Middlewares/LVGL/GUI/lvgl/src/draw/lv_draw.c ****             LV_PROFILER_DRAW_END;
 1577              		.loc 1 355 12 view .LVU503
 1578 0052 2146     		mov	r1, r4
 1579 0054 2846     		mov	r0, r5
 1580 0056 FFF7FEFF 		bl	is_independent
 1581              	.LVL161:
 354:../../Middlewares/LVGL/GUI/lvgl/src/draw/lv_draw.c ****            is_independent(layer, t)) {
 1582              		.loc 1 354 106 discriminator 1 view .LVU504
 1583 005a 0028     		cmp	r0, #0
 1584 005c F5D1     		bne	.L132
 1585              	.L137:
 359:../../Middlewares/LVGL/GUI/lvgl/src/draw/lv_draw.c ****     }
 1586              		.loc 1 359 9 is_stmt 1 view .LVU505
 359:../../Middlewares/LVGL/GUI/lvgl/src/draw/lv_draw.c ****     }
 1587              		.loc 1 359 11 is_stmt 0 view .LVU506
 1588 005e 2468     		ldr	r4, [r4]
 1589              	.LVL162:
 1590              	.L139:
 351:../../Middlewares/LVGL/GUI/lvgl/src/draw/lv_draw.c ****         /*Find a queued and independent task*/
 1591              		.loc 1 351 11 is_stmt 1 view .LVU507
 1592 0060 002C     		cmp	r4, #0
 1593 0062 F2D0     		beq	.L132
ARM GAS  C:\Users\28576\AppData\Local\Temp\cc59YylE.s 			page 49


 353:../../Middlewares/LVGL/GUI/lvgl/src/draw/lv_draw.c ****            (t->preferred_draw_unit_id == LV_DRAW_UNIT_NONE || t->preferred_draw_unit_id == draw_uni
 1594              		.loc 1 353 9 view .LVU508
 353:../../Middlewares/LVGL/GUI/lvgl/src/draw/lv_draw.c ****            (t->preferred_draw_unit_id == LV_DRAW_UNIT_NONE || t->preferred_draw_unit_id == draw_uni
 1595              		.loc 1 353 13 is_stmt 0 view .LVU509
 1596 0064 236D     		ldr	r3, [r4, #80]
 353:../../Middlewares/LVGL/GUI/lvgl/src/draw/lv_draw.c ****            (t->preferred_draw_unit_id == LV_DRAW_UNIT_NONE || t->preferred_draw_unit_id == draw_uni
 1597              		.loc 1 353 11 view .LVU510
 1598 0066 012B     		cmp	r3, #1
 1599 0068 F9D1     		bne	.L137
 354:../../Middlewares/LVGL/GUI/lvgl/src/draw/lv_draw.c ****            is_independent(layer, t)) {
 1600              		.loc 1 354 14 view .LVU511
 1601 006a 94F85830 		ldrb	r3, [r4, #88]	@ zero_extendqisi2
 353:../../Middlewares/LVGL/GUI/lvgl/src/draw/lv_draw.c ****            (t->preferred_draw_unit_id == LV_DRAW_UNIT_NONE || t->preferred_draw_unit_id == draw_uni
 1602              		.loc 1 353 50 discriminator 1 view .LVU512
 1603 006e 002B     		cmp	r3, #0
 1604 0070 EFD0     		beq	.L138
 354:../../Middlewares/LVGL/GUI/lvgl/src/draw/lv_draw.c ****            is_independent(layer, t)) {
 1605              		.loc 1 354 60 view .LVU513
 1606 0072 B342     		cmp	r3, r6
 1607 0074 F3D1     		bne	.L137
 1608 0076 ECE7     		b	.L138
 1609              		.cfi_endproc
 1610              	.LFE199:
 1612              		.section	.text.lv_draw_get_available_task,"ax",%progbits
 1613              		.align	1
 1614              		.global	lv_draw_get_available_task
 1615              		.syntax unified
 1616              		.thumb
 1617              		.thumb_func
 1619              	lv_draw_get_available_task:
 1620              	.LVL163:
 1621              	.LFB198:
 324:../../Middlewares/LVGL/GUI/lvgl/src/draw/lv_draw.c ****     if(_draw_info.unit_cnt == 1) {
 1622              		.loc 1 324 1 is_stmt 1 view -0
 1623              		.cfi_startproc
 1624              		@ args = 0, pretend = 0, frame = 0
 1625              		@ frame_needed = 0, uses_anonymous_args = 0
 324:../../Middlewares/LVGL/GUI/lvgl/src/draw/lv_draw.c ****     if(_draw_info.unit_cnt == 1) {
 1626              		.loc 1 324 1 is_stmt 0 view .LVU515
 1627 0000 08B5     		push	{r3, lr}
 1628              	.LCFI11:
 1629              		.cfi_def_cfa_offset 8
 1630              		.cfi_offset 3, -8
 1631              		.cfi_offset 14, -4
 325:../../Middlewares/LVGL/GUI/lvgl/src/draw/lv_draw.c ****         return get_first_available_task(layer);
 1632              		.loc 1 325 5 is_stmt 1 view .LVU516
 325:../../Middlewares/LVGL/GUI/lvgl/src/draw/lv_draw.c ****         return get_first_available_task(layer);
 1633              		.loc 1 325 18 is_stmt 0 view .LVU517
 1634 0002 054B     		ldr	r3, .L149
 1635 0004 D3F82831 		ldr	r3, [r3, #296]
 325:../../Middlewares/LVGL/GUI/lvgl/src/draw/lv_draw.c ****         return get_first_available_task(layer);
 1636              		.loc 1 325 7 view .LVU518
 1637 0008 012B     		cmp	r3, #1
 1638 000a 02D0     		beq	.L148
 329:../../Middlewares/LVGL/GUI/lvgl/src/draw/lv_draw.c ****     }
 1639              		.loc 1 329 9 is_stmt 1 view .LVU519
 329:../../Middlewares/LVGL/GUI/lvgl/src/draw/lv_draw.c ****     }
ARM GAS  C:\Users\28576\AppData\Local\Temp\cc59YylE.s 			page 50


 1640              		.loc 1 329 16 is_stmt 0 view .LVU520
 1641 000c FFF7FEFF 		bl	lv_draw_get_next_available_task
 1642              	.LVL164:
 1643              	.L144:
 331:../../Middlewares/LVGL/GUI/lvgl/src/draw/lv_draw.c **** 
 1644              		.loc 1 331 1 view .LVU521
 1645 0010 08BD     		pop	{r3, pc}
 1646              	.LVL165:
 1647              	.L148:
 326:../../Middlewares/LVGL/GUI/lvgl/src/draw/lv_draw.c ****     }
 1648              		.loc 1 326 9 is_stmt 1 view .LVU522
 326:../../Middlewares/LVGL/GUI/lvgl/src/draw/lv_draw.c ****     }
 1649              		.loc 1 326 16 is_stmt 0 view .LVU523
 1650 0012 FFF7FEFF 		bl	get_first_available_task
 1651              	.LVL166:
 326:../../Middlewares/LVGL/GUI/lvgl/src/draw/lv_draw.c ****     }
 1652              		.loc 1 326 16 view .LVU524
 1653 0016 FBE7     		b	.L144
 1654              	.L150:
 1655              		.align	2
 1656              	.L149:
 1657 0018 00000000 		.word	lv_global
 1658              		.cfi_endproc
 1659              	.LFE198:
 1661              		.section	.text.lv_draw_get_dependent_count,"ax",%progbits
 1662              		.align	1
 1663              		.global	lv_draw_get_dependent_count
 1664              		.syntax unified
 1665              		.thumb
 1666              		.thumb_func
 1668              	lv_draw_get_dependent_count:
 1669              	.LVL167:
 1670              	.LFB200:
 367:../../Middlewares/LVGL/GUI/lvgl/src/draw/lv_draw.c ****     if(t_check == NULL) return 0;
 1671              		.loc 1 367 1 is_stmt 1 view -0
 1672              		.cfi_startproc
 1673              		@ args = 0, pretend = 0, frame = 0
 1674              		@ frame_needed = 0, uses_anonymous_args = 0
 367:../../Middlewares/LVGL/GUI/lvgl/src/draw/lv_draw.c ****     if(t_check == NULL) return 0;
 1675              		.loc 1 367 1 is_stmt 0 view .LVU526
 1676 0000 70B5     		push	{r4, r5, r6, lr}
 1677              	.LCFI12:
 1678              		.cfi_def_cfa_offset 16
 1679              		.cfi_offset 4, -16
 1680              		.cfi_offset 5, -12
 1681              		.cfi_offset 6, -8
 1682              		.cfi_offset 14, -4
 368:../../Middlewares/LVGL/GUI/lvgl/src/draw/lv_draw.c ****     if(t_check->next == NULL) return 0;
 1683              		.loc 1 368 5 is_stmt 1 view .LVU527
 368:../../Middlewares/LVGL/GUI/lvgl/src/draw/lv_draw.c ****     if(t_check->next == NULL) return 0;
 1684              		.loc 1 368 7 is_stmt 0 view .LVU528
 1685 0002 B0B1     		cbz	r0, .L157
 1686 0004 0646     		mov	r6, r0
 369:../../Middlewares/LVGL/GUI/lvgl/src/draw/lv_draw.c **** 
 1687              		.loc 1 369 5 is_stmt 1 view .LVU529
 369:../../Middlewares/LVGL/GUI/lvgl/src/draw/lv_draw.c **** 
 1688              		.loc 1 369 15 is_stmt 0 view .LVU530
ARM GAS  C:\Users\28576\AppData\Local\Temp\cc59YylE.s 			page 51


 1689 0006 0468     		ldr	r4, [r0]
 369:../../Middlewares/LVGL/GUI/lvgl/src/draw/lv_draw.c **** 
 1690              		.loc 1 369 7 view .LVU531
 1691 0008 B4B1     		cbz	r4, .L158
 372:../../Middlewares/LVGL/GUI/lvgl/src/draw/lv_draw.c **** 
 1692              		.loc 1 372 14 view .LVU532
 1693 000a 0025     		movs	r5, #0
 1694 000c 00E0     		b	.L153
 1695              	.LVL168:
 1696              	.L155:
 381:../../Middlewares/LVGL/GUI/lvgl/src/draw/lv_draw.c ****     }
 1697              		.loc 1 381 9 is_stmt 1 view .LVU533
 381:../../Middlewares/LVGL/GUI/lvgl/src/draw/lv_draw.c ****     }
 1698              		.loc 1 381 11 is_stmt 0 view .LVU534
 1699 000e 2468     		ldr	r4, [r4]
 1700              	.LVL169:
 1701              	.L153:
 375:../../Middlewares/LVGL/GUI/lvgl/src/draw/lv_draw.c ****         if((t->state == LV_DRAW_TASK_STATE_QUEUED || t->state == LV_DRAW_TASK_STATE_WAITING) &&
 1702              		.loc 1 375 11 is_stmt 1 view .LVU535
 1703 0010 84B1     		cbz	r4, .L151
 376:../../Middlewares/LVGL/GUI/lvgl/src/draw/lv_draw.c ****            lv_area_is_on(&t_check->area, &t->area)) {
 1704              		.loc 1 376 9 view .LVU536
 376:../../Middlewares/LVGL/GUI/lvgl/src/draw/lv_draw.c ****            lv_area_is_on(&t_check->area, &t->area)) {
 1705              		.loc 1 376 14 is_stmt 0 view .LVU537
 1706 0012 236D     		ldr	r3, [r4, #80]
 376:../../Middlewares/LVGL/GUI/lvgl/src/draw/lv_draw.c ****            lv_area_is_on(&t_check->area, &t->area)) {
 1707              		.loc 1 376 11 view .LVU538
 1708 0014 012B     		cmp	r3, #1
 1709 0016 02D0     		beq	.L154
 376:../../Middlewares/LVGL/GUI/lvgl/src/draw/lv_draw.c ****            lv_area_is_on(&t_check->area, &t->area)) {
 1710              		.loc 1 376 55 discriminator 2 view .LVU539
 1711 0018 236D     		ldr	r3, [r4, #80]
 376:../../Middlewares/LVGL/GUI/lvgl/src/draw/lv_draw.c ****            lv_area_is_on(&t_check->area, &t->area)) {
 1712              		.loc 1 376 51 discriminator 2 view .LVU540
 1713 001a 002B     		cmp	r3, #0
 1714 001c F7D1     		bne	.L155
 1715              	.L154:
 377:../../Middlewares/LVGL/GUI/lvgl/src/draw/lv_draw.c ****             cnt++;
 1716              		.loc 1 377 12 view .LVU541
 1717 001e 04F10801 		add	r1, r4, #8
 1718 0022 06F10800 		add	r0, r6, #8
 1719 0026 FFF7FEFF 		bl	lv_area_is_on
 1720              	.LVL170:
 376:../../Middlewares/LVGL/GUI/lvgl/src/draw/lv_draw.c ****            lv_area_is_on(&t_check->area, &t->area)) {
 1721              		.loc 1 376 94 discriminator 3 view .LVU542
 1722 002a 0028     		cmp	r0, #0
 1723 002c EFD0     		beq	.L155
 378:../../Middlewares/LVGL/GUI/lvgl/src/draw/lv_draw.c ****         }
 1724              		.loc 1 378 13 is_stmt 1 view .LVU543
 378:../../Middlewares/LVGL/GUI/lvgl/src/draw/lv_draw.c ****         }
 1725              		.loc 1 378 16 is_stmt 0 view .LVU544
 1726 002e 0135     		adds	r5, r5, #1
 1727              	.LVL171:
 378:../../Middlewares/LVGL/GUI/lvgl/src/draw/lv_draw.c ****         }
 1728              		.loc 1 378 16 view .LVU545
 1729 0030 EDE7     		b	.L155
 1730              	.LVL172:
ARM GAS  C:\Users\28576\AppData\Local\Temp\cc59YylE.s 			page 52


 1731              	.L157:
 368:../../Middlewares/LVGL/GUI/lvgl/src/draw/lv_draw.c ****     if(t_check->next == NULL) return 0;
 1732              		.loc 1 368 32 discriminator 1 view .LVU546
 1733 0032 0546     		mov	r5, r0
 1734              	.LVL173:
 1735              	.L151:
 385:../../Middlewares/LVGL/GUI/lvgl/src/draw/lv_draw.c **** 
 1736              		.loc 1 385 1 view .LVU547
 1737 0034 2846     		mov	r0, r5
 1738 0036 70BD     		pop	{r4, r5, r6, pc}
 1739              	.LVL174:
 1740              	.L158:
 369:../../Middlewares/LVGL/GUI/lvgl/src/draw/lv_draw.c **** 
 1741              		.loc 1 369 38 discriminator 1 view .LVU548
 1742 0038 2546     		mov	r5, r4
 1743 003a FBE7     		b	.L151
 1744              		.cfi_endproc
 1745              	.LFE200:
 1747              		.section	.text.lv_layer_reset,"ax",%progbits
 1748              		.align	1
 1749              		.global	lv_layer_reset
 1750              		.syntax unified
 1751              		.thumb
 1752              		.thumb_func
 1754              	lv_layer_reset:
 1755              	.LVL175:
 1756              	.LFB202:
 395:../../Middlewares/LVGL/GUI/lvgl/src/draw/lv_draw.c ****     LV_ASSERT_NULL(layer);
 1757              		.loc 1 395 1 is_stmt 1 view -0
 1758              		.cfi_startproc
 1759              		@ args = 0, pretend = 0, frame = 0
 1760              		@ frame_needed = 0, uses_anonymous_args = 0
 396:../../Middlewares/LVGL/GUI/lvgl/src/draw/lv_draw.c **** #if LV_DRAW_TRANSFORM_USE_MATRIX
 1761              		.loc 1 396 5 view .LVU550
 396:../../Middlewares/LVGL/GUI/lvgl/src/draw/lv_draw.c **** #if LV_DRAW_TRANSFORM_USE_MATRIX
 1762              		.loc 1 396 5 view .LVU551
 1763 0000 C8B1     		cbz	r0, .L162
 395:../../Middlewares/LVGL/GUI/lvgl/src/draw/lv_draw.c ****     LV_ASSERT_NULL(layer);
 1764              		.loc 1 395 1 is_stmt 0 view .LVU552
 1765 0002 10B5     		push	{r4, lr}
 1766              	.LCFI13:
 1767              		.cfi_def_cfa_offset 8
 1768              		.cfi_offset 4, -8
 1769              		.cfi_offset 14, -4
 1770 0004 0446     		mov	r4, r0
 396:../../Middlewares/LVGL/GUI/lvgl/src/draw/lv_draw.c **** #if LV_DRAW_TRANSFORM_USE_MATRIX
 1771              		.loc 1 396 5 is_stmt 1 view .LVU553
 396:../../Middlewares/LVGL/GUI/lvgl/src/draw/lv_draw.c **** #if LV_DRAW_TRANSFORM_USE_MATRIX
 1772              		.loc 1 396 26 view .LVU554
 400:../../Middlewares/LVGL/GUI/lvgl/src/draw/lv_draw.c ****     layer->recolor = lv_color32_make(0, 0, 0, 0);
 1773              		.loc 1 400 5 view .LVU555
 400:../../Middlewares/LVGL/GUI/lvgl/src/draw/lv_draw.c ****     layer->recolor = lv_color32_make(0, 0, 0, 0);
 1774              		.loc 1 400 16 is_stmt 0 view .LVU556
 1775 0006 FF23     		movs	r3, #255
 1776 0008 80F83830 		strb	r3, [r0, #56]
 401:../../Middlewares/LVGL/GUI/lvgl/src/draw/lv_draw.c **** }
 1777              		.loc 1 401 5 is_stmt 1 view .LVU557
ARM GAS  C:\Users\28576\AppData\Local\Temp\cc59YylE.s 			page 53


 401:../../Middlewares/LVGL/GUI/lvgl/src/draw/lv_draw.c **** }
 1778              		.loc 1 401 22 is_stmt 0 view .LVU558
 1779 000c 0023     		movs	r3, #0
 1780 000e 1A46     		mov	r2, r3
 1781 0010 1946     		mov	r1, r3
 1782 0012 1846     		mov	r0, r3
 1783              	.LVL176:
 401:../../Middlewares/LVGL/GUI/lvgl/src/draw/lv_draw.c **** }
 1784              		.loc 1 401 22 view .LVU559
 1785 0014 FFF7FEFF 		bl	lv_color32_make
 1786              	.LVL177:
 1787 0018 84F83900 		strb	r0, [r4, #57]
 1788 001c C0F30723 		ubfx	r3, r0, #8, #8
 1789 0020 84F83A30 		strb	r3, [r4, #58]
 1790 0024 C0F30743 		ubfx	r3, r0, #16, #8
 1791 0028 84F83B30 		strb	r3, [r4, #59]
 1792 002c C0F30760 		ubfx	r0, r0, #24, #8
 1793 0030 84F83C00 		strb	r0, [r4, #60]
 402:../../Middlewares/LVGL/GUI/lvgl/src/draw/lv_draw.c **** 
 1794              		.loc 1 402 1 view .LVU560
 1795 0034 10BD     		pop	{r4, pc}
 1796              	.LVL178:
 1797              	.L162:
 1798              	.LCFI14:
 1799              		.cfi_def_cfa_offset 0
 1800              		.cfi_restore 4
 1801              		.cfi_restore 14
 396:../../Middlewares/LVGL/GUI/lvgl/src/draw/lv_draw.c **** #if LV_DRAW_TRANSFORM_USE_MATRIX
 1802              		.loc 1 396 5 is_stmt 1 view .LVU561
 396:../../Middlewares/LVGL/GUI/lvgl/src/draw/lv_draw.c **** #if LV_DRAW_TRANSFORM_USE_MATRIX
 1803              		.loc 1 396 5 view .LVU562
 396:../../Middlewares/LVGL/GUI/lvgl/src/draw/lv_draw.c **** #if LV_DRAW_TRANSFORM_USE_MATRIX
 1804              		.loc 1 396 5 view .LVU563
 396:../../Middlewares/LVGL/GUI/lvgl/src/draw/lv_draw.c **** #if LV_DRAW_TRANSFORM_USE_MATRIX
 1805              		.loc 1 396 5 view .LVU564
 396:../../Middlewares/LVGL/GUI/lvgl/src/draw/lv_draw.c **** #if LV_DRAW_TRANSFORM_USE_MATRIX
 1806              		.loc 1 396 5 view .LVU565
 1807 0036 FEE7     		b	.L162
 1808              		.cfi_endproc
 1809              	.LFE202:
 1811              		.section	.text.lv_layer_init,"ax",%progbits
 1812              		.align	1
 1813              		.global	lv_layer_init
 1814              		.syntax unified
 1815              		.thumb
 1816              		.thumb_func
 1818              	lv_layer_init:
 1819              	.LVL179:
 1820              	.LFB201:
 388:../../Middlewares/LVGL/GUI/lvgl/src/draw/lv_draw.c ****     LV_ASSERT_NULL(layer);
 1821              		.loc 1 388 1 view -0
 1822              		.cfi_startproc
 1823              		@ args = 0, pretend = 0, frame = 0
 1824              		@ frame_needed = 0, uses_anonymous_args = 0
 389:../../Middlewares/LVGL/GUI/lvgl/src/draw/lv_draw.c ****     lv_memzero(layer, sizeof(lv_layer_t));
 1825              		.loc 1 389 5 view .LVU567
 389:../../Middlewares/LVGL/GUI/lvgl/src/draw/lv_draw.c ****     lv_memzero(layer, sizeof(lv_layer_t));
ARM GAS  C:\Users\28576\AppData\Local\Temp\cc59YylE.s 			page 54


 1826              		.loc 1 389 5 view .LVU568
 1827 0000 48B1     		cbz	r0, .L167
 388:../../Middlewares/LVGL/GUI/lvgl/src/draw/lv_draw.c ****     LV_ASSERT_NULL(layer);
 1828              		.loc 1 388 1 is_stmt 0 view .LVU569
 1829 0002 10B5     		push	{r4, lr}
 1830              	.LCFI15:
 1831              		.cfi_def_cfa_offset 8
 1832              		.cfi_offset 4, -8
 1833              		.cfi_offset 14, -4
 389:../../Middlewares/LVGL/GUI/lvgl/src/draw/lv_draw.c ****     lv_memzero(layer, sizeof(lv_layer_t));
 1834              		.loc 1 389 5 is_stmt 1 view .LVU570
 389:../../Middlewares/LVGL/GUI/lvgl/src/draw/lv_draw.c ****     lv_memzero(layer, sizeof(lv_layer_t));
 1835              		.loc 1 389 26 view .LVU571
 390:../../Middlewares/LVGL/GUI/lvgl/src/draw/lv_draw.c ****     lv_layer_reset(layer);
 1836              		.loc 1 390 5 view .LVU572
 1837              	.LVL180:
 1838              	.LBB29:
 1839              	.LBI29:
 1840              		.file 2 "H:/STM32H7/RGB_LVGL/Middlewares/LVGL/GUI/lvgl/src/stdlib/lv_string.h"
   1:H:/STM32H7/RGB_LVGL/Middlewares/LVGL/GUI/lvgl/src/stdlib\lv_string.h **** /**
   2:H:/STM32H7/RGB_LVGL/Middlewares/LVGL/GUI/lvgl/src/stdlib\lv_string.h ****  * @file lv_string.h
   3:H:/STM32H7/RGB_LVGL/Middlewares/LVGL/GUI/lvgl/src/stdlib\lv_string.h ****  *
   4:H:/STM32H7/RGB_LVGL/Middlewares/LVGL/GUI/lvgl/src/stdlib\lv_string.h ****  */
   5:H:/STM32H7/RGB_LVGL/Middlewares/LVGL/GUI/lvgl/src/stdlib\lv_string.h **** 
   6:H:/STM32H7/RGB_LVGL/Middlewares/LVGL/GUI/lvgl/src/stdlib\lv_string.h **** #ifndef LV_STRING_H
   7:H:/STM32H7/RGB_LVGL/Middlewares/LVGL/GUI/lvgl/src/stdlib\lv_string.h **** #define LV_STRING_H
   8:H:/STM32H7/RGB_LVGL/Middlewares/LVGL/GUI/lvgl/src/stdlib\lv_string.h **** 
   9:H:/STM32H7/RGB_LVGL/Middlewares/LVGL/GUI/lvgl/src/stdlib\lv_string.h **** #ifdef __cplusplus
  10:H:/STM32H7/RGB_LVGL/Middlewares/LVGL/GUI/lvgl/src/stdlib\lv_string.h **** extern "C" {
  11:H:/STM32H7/RGB_LVGL/Middlewares/LVGL/GUI/lvgl/src/stdlib\lv_string.h **** #endif
  12:H:/STM32H7/RGB_LVGL/Middlewares/LVGL/GUI/lvgl/src/stdlib\lv_string.h **** 
  13:H:/STM32H7/RGB_LVGL/Middlewares/LVGL/GUI/lvgl/src/stdlib\lv_string.h **** /*********************
  14:H:/STM32H7/RGB_LVGL/Middlewares/LVGL/GUI/lvgl/src/stdlib\lv_string.h ****  *      INCLUDES
  15:H:/STM32H7/RGB_LVGL/Middlewares/LVGL/GUI/lvgl/src/stdlib\lv_string.h ****  *********************/
  16:H:/STM32H7/RGB_LVGL/Middlewares/LVGL/GUI/lvgl/src/stdlib\lv_string.h **** #include "../lv_conf_internal.h"
  17:H:/STM32H7/RGB_LVGL/Middlewares/LVGL/GUI/lvgl/src/stdlib\lv_string.h **** #include "../misc/lv_types.h"
  18:H:/STM32H7/RGB_LVGL/Middlewares/LVGL/GUI/lvgl/src/stdlib\lv_string.h **** 
  19:H:/STM32H7/RGB_LVGL/Middlewares/LVGL/GUI/lvgl/src/stdlib\lv_string.h **** /*********************
  20:H:/STM32H7/RGB_LVGL/Middlewares/LVGL/GUI/lvgl/src/stdlib\lv_string.h ****  *      DEFINES
  21:H:/STM32H7/RGB_LVGL/Middlewares/LVGL/GUI/lvgl/src/stdlib\lv_string.h ****  *********************/
  22:H:/STM32H7/RGB_LVGL/Middlewares/LVGL/GUI/lvgl/src/stdlib\lv_string.h **** 
  23:H:/STM32H7/RGB_LVGL/Middlewares/LVGL/GUI/lvgl/src/stdlib\lv_string.h **** /**********************
  24:H:/STM32H7/RGB_LVGL/Middlewares/LVGL/GUI/lvgl/src/stdlib\lv_string.h ****  *      TYPEDEFS
  25:H:/STM32H7/RGB_LVGL/Middlewares/LVGL/GUI/lvgl/src/stdlib\lv_string.h ****  **********************/
  26:H:/STM32H7/RGB_LVGL/Middlewares/LVGL/GUI/lvgl/src/stdlib\lv_string.h **** 
  27:H:/STM32H7/RGB_LVGL/Middlewares/LVGL/GUI/lvgl/src/stdlib\lv_string.h **** /**********************
  28:H:/STM32H7/RGB_LVGL/Middlewares/LVGL/GUI/lvgl/src/stdlib\lv_string.h ****  * GLOBAL PROTOTYPES
  29:H:/STM32H7/RGB_LVGL/Middlewares/LVGL/GUI/lvgl/src/stdlib\lv_string.h ****  **********************/
  30:H:/STM32H7/RGB_LVGL/Middlewares/LVGL/GUI/lvgl/src/stdlib\lv_string.h **** 
  31:H:/STM32H7/RGB_LVGL/Middlewares/LVGL/GUI/lvgl/src/stdlib\lv_string.h **** /**
  32:H:/STM32H7/RGB_LVGL/Middlewares/LVGL/GUI/lvgl/src/stdlib\lv_string.h ****  * @brief Copies a block of memory from a source address to a destination address.
  33:H:/STM32H7/RGB_LVGL/Middlewares/LVGL/GUI/lvgl/src/stdlib\lv_string.h ****  * @param dst Pointer to the destination array where the content is to be copied.
  34:H:/STM32H7/RGB_LVGL/Middlewares/LVGL/GUI/lvgl/src/stdlib\lv_string.h ****  * @param src Pointer to the source of data to be copied.
  35:H:/STM32H7/RGB_LVGL/Middlewares/LVGL/GUI/lvgl/src/stdlib\lv_string.h ****  * @param len Number of bytes to copy.
  36:H:/STM32H7/RGB_LVGL/Middlewares/LVGL/GUI/lvgl/src/stdlib\lv_string.h ****  * @return Pointer to the destination array.
  37:H:/STM32H7/RGB_LVGL/Middlewares/LVGL/GUI/lvgl/src/stdlib\lv_string.h ****  * @note The function does not check for any overlapping of the source and destination memory block
  38:H:/STM32H7/RGB_LVGL/Middlewares/LVGL/GUI/lvgl/src/stdlib\lv_string.h ****  */
ARM GAS  C:\Users\28576\AppData\Local\Temp\cc59YylE.s 			page 55


  39:H:/STM32H7/RGB_LVGL/Middlewares/LVGL/GUI/lvgl/src/stdlib\lv_string.h **** void * lv_memcpy(void * dst, const void * src, size_t len);
  40:H:/STM32H7/RGB_LVGL/Middlewares/LVGL/GUI/lvgl/src/stdlib\lv_string.h **** 
  41:H:/STM32H7/RGB_LVGL/Middlewares/LVGL/GUI/lvgl/src/stdlib\lv_string.h **** /**
  42:H:/STM32H7/RGB_LVGL/Middlewares/LVGL/GUI/lvgl/src/stdlib\lv_string.h ****  * @brief Fills a block of memory with a specified value.
  43:H:/STM32H7/RGB_LVGL/Middlewares/LVGL/GUI/lvgl/src/stdlib\lv_string.h ****  * @param dst Pointer to the destination array to fill with the specified value.
  44:H:/STM32H7/RGB_LVGL/Middlewares/LVGL/GUI/lvgl/src/stdlib\lv_string.h ****  * @param v Value to be set. The value is passed as an int, but the function fills
  45:H:/STM32H7/RGB_LVGL/Middlewares/LVGL/GUI/lvgl/src/stdlib\lv_string.h ****  *          the block of memory using the unsigned char conversion of this value.
  46:H:/STM32H7/RGB_LVGL/Middlewares/LVGL/GUI/lvgl/src/stdlib\lv_string.h ****  * @param len Number of bytes to be set to the value.
  47:H:/STM32H7/RGB_LVGL/Middlewares/LVGL/GUI/lvgl/src/stdlib\lv_string.h ****  */
  48:H:/STM32H7/RGB_LVGL/Middlewares/LVGL/GUI/lvgl/src/stdlib\lv_string.h **** void lv_memset(void * dst, uint8_t v, size_t len);
  49:H:/STM32H7/RGB_LVGL/Middlewares/LVGL/GUI/lvgl/src/stdlib\lv_string.h **** 
  50:H:/STM32H7/RGB_LVGL/Middlewares/LVGL/GUI/lvgl/src/stdlib\lv_string.h **** /**
  51:H:/STM32H7/RGB_LVGL/Middlewares/LVGL/GUI/lvgl/src/stdlib\lv_string.h ****  * @brief Move a block of memory from source to destination
  52:H:/STM32H7/RGB_LVGL/Middlewares/LVGL/GUI/lvgl/src/stdlib\lv_string.h ****  * @param dst Pointer to the destination array where the content is to be copied.
  53:H:/STM32H7/RGB_LVGL/Middlewares/LVGL/GUI/lvgl/src/stdlib\lv_string.h ****  * @param src Pointer to the source of data to be copied.
  54:H:/STM32H7/RGB_LVGL/Middlewares/LVGL/GUI/lvgl/src/stdlib\lv_string.h ****  * @param len Number of bytes to copy
  55:H:/STM32H7/RGB_LVGL/Middlewares/LVGL/GUI/lvgl/src/stdlib\lv_string.h ****  * @return Pointer to the destination array.
  56:H:/STM32H7/RGB_LVGL/Middlewares/LVGL/GUI/lvgl/src/stdlib\lv_string.h ****  */
  57:H:/STM32H7/RGB_LVGL/Middlewares/LVGL/GUI/lvgl/src/stdlib\lv_string.h **** void * lv_memmove(void * dst, const void * src, size_t len);
  58:H:/STM32H7/RGB_LVGL/Middlewares/LVGL/GUI/lvgl/src/stdlib\lv_string.h **** 
  59:H:/STM32H7/RGB_LVGL/Middlewares/LVGL/GUI/lvgl/src/stdlib\lv_string.h **** /**
  60:H:/STM32H7/RGB_LVGL/Middlewares/LVGL/GUI/lvgl/src/stdlib\lv_string.h ****  * @brief This function will compare two memory blocks
  61:H:/STM32H7/RGB_LVGL/Middlewares/LVGL/GUI/lvgl/src/stdlib\lv_string.h ****  * @param p1 Pointer to the first memory block
  62:H:/STM32H7/RGB_LVGL/Middlewares/LVGL/GUI/lvgl/src/stdlib\lv_string.h ****  * @param p2 Pointer to the second memory block
  63:H:/STM32H7/RGB_LVGL/Middlewares/LVGL/GUI/lvgl/src/stdlib\lv_string.h ****  * @param len Number of bytes to compare
  64:H:/STM32H7/RGB_LVGL/Middlewares/LVGL/GUI/lvgl/src/stdlib\lv_string.h ****  * @return The difference between the value of the first unmatching byte.
  65:H:/STM32H7/RGB_LVGL/Middlewares/LVGL/GUI/lvgl/src/stdlib\lv_string.h ****  */
  66:H:/STM32H7/RGB_LVGL/Middlewares/LVGL/GUI/lvgl/src/stdlib\lv_string.h **** int lv_memcmp(const void * p1, const void * p2, size_t len);
  67:H:/STM32H7/RGB_LVGL/Middlewares/LVGL/GUI/lvgl/src/stdlib\lv_string.h **** 
  68:H:/STM32H7/RGB_LVGL/Middlewares/LVGL/GUI/lvgl/src/stdlib\lv_string.h **** /**
  69:H:/STM32H7/RGB_LVGL/Middlewares/LVGL/GUI/lvgl/src/stdlib\lv_string.h ****  * Same as `memset(dst, 0x00, len)`.
  70:H:/STM32H7/RGB_LVGL/Middlewares/LVGL/GUI/lvgl/src/stdlib\lv_string.h ****  * @param dst pointer to the destination buffer
  71:H:/STM32H7/RGB_LVGL/Middlewares/LVGL/GUI/lvgl/src/stdlib\lv_string.h ****  * @param len number of byte to set
  72:H:/STM32H7/RGB_LVGL/Middlewares/LVGL/GUI/lvgl/src/stdlib\lv_string.h ****  */
  73:H:/STM32H7/RGB_LVGL/Middlewares/LVGL/GUI/lvgl/src/stdlib\lv_string.h **** static inline void lv_memzero(void * dst, size_t len)
 1841              		.loc 2 73 20 view .LVU573
 1842              	.LBB30:
  74:H:/STM32H7/RGB_LVGL/Middlewares/LVGL/GUI/lvgl/src/stdlib\lv_string.h **** {
  75:H:/STM32H7/RGB_LVGL/Middlewares/LVGL/GUI/lvgl/src/stdlib\lv_string.h ****     lv_memset(dst, 0x00, len);
 1843              		.loc 2 75 5 view .LVU574
 1844 0004 5822     		movs	r2, #88
 1845 0006 0021     		movs	r1, #0
 1846 0008 0446     		mov	r4, r0
 1847 000a FFF7FEFF 		bl	lv_memset
 1848              	.LVL181:
 1849              		.loc 2 75 5 is_stmt 0 view .LVU575
 1850              	.LBE30:
 1851              	.LBE29:
 391:../../Middlewares/LVGL/GUI/lvgl/src/draw/lv_draw.c **** }
 1852              		.loc 1 391 5 is_stmt 1 view .LVU576
 1853 000e 2046     		mov	r0, r4
 1854 0010 FFF7FEFF 		bl	lv_layer_reset
 1855              	.LVL182:
 392:../../Middlewares/LVGL/GUI/lvgl/src/draw/lv_draw.c **** 
 1856              		.loc 1 392 1 is_stmt 0 view .LVU577
 1857 0014 10BD     		pop	{r4, pc}
 1858              	.LVL183:
ARM GAS  C:\Users\28576\AppData\Local\Temp\cc59YylE.s 			page 56


 1859              	.L167:
 1860              	.LCFI16:
 1861              		.cfi_def_cfa_offset 0
 1862              		.cfi_restore 4
 1863              		.cfi_restore 14
 389:../../Middlewares/LVGL/GUI/lvgl/src/draw/lv_draw.c ****     lv_memzero(layer, sizeof(lv_layer_t));
 1864              		.loc 1 389 5 is_stmt 1 view .LVU578
 389:../../Middlewares/LVGL/GUI/lvgl/src/draw/lv_draw.c ****     lv_memzero(layer, sizeof(lv_layer_t));
 1865              		.loc 1 389 5 view .LVU579
 389:../../Middlewares/LVGL/GUI/lvgl/src/draw/lv_draw.c ****     lv_memzero(layer, sizeof(lv_layer_t));
 1866              		.loc 1 389 5 view .LVU580
 389:../../Middlewares/LVGL/GUI/lvgl/src/draw/lv_draw.c ****     lv_memzero(layer, sizeof(lv_layer_t));
 1867              		.loc 1 389 5 view .LVU581
 389:../../Middlewares/LVGL/GUI/lvgl/src/draw/lv_draw.c ****     lv_memzero(layer, sizeof(lv_layer_t));
 1868              		.loc 1 389 5 view .LVU582
 1869 0016 FEE7     		b	.L167
 1870              		.cfi_endproc
 1871              	.LFE201:
 1873              		.section	.text.lv_draw_layer_init,"ax",%progbits
 1874              		.align	1
 1875              		.global	lv_draw_layer_init
 1876              		.syntax unified
 1877              		.thumb
 1878              		.thumb_func
 1880              	lv_draw_layer_init:
 1881              	.LVL184:
 1882              	.LFB204:
 428:../../Middlewares/LVGL/GUI/lvgl/src/draw/lv_draw.c ****     LV_PROFILER_DRAW_BEGIN;
 1883              		.loc 1 428 1 view -0
 1884              		.cfi_startproc
 1885              		@ args = 0, pretend = 0, frame = 0
 1886              		@ frame_needed = 0, uses_anonymous_args = 0
 428:../../Middlewares/LVGL/GUI/lvgl/src/draw/lv_draw.c ****     LV_PROFILER_DRAW_BEGIN;
 1887              		.loc 1 428 1 is_stmt 0 view .LVU584
 1888 0000 2DE9F041 		push	{r4, r5, r6, r7, r8, lr}
 1889              	.LCFI17:
 1890              		.cfi_def_cfa_offset 24
 1891              		.cfi_offset 4, -24
 1892              		.cfi_offset 5, -20
 1893              		.cfi_offset 6, -16
 1894              		.cfi_offset 7, -12
 1895              		.cfi_offset 8, -8
 1896              		.cfi_offset 14, -4
 1897 0004 0546     		mov	r5, r0
 1898 0006 8846     		mov	r8, r1
 1899 0008 1746     		mov	r7, r2
 1900 000a 1C46     		mov	r4, r3
 429:../../Middlewares/LVGL/GUI/lvgl/src/draw/lv_draw.c ****     lv_layer_init(layer);
 1901              		.loc 1 429 27 is_stmt 1 view .LVU585
 430:../../Middlewares/LVGL/GUI/lvgl/src/draw/lv_draw.c ****     lv_display_t * disp = lv_refr_get_disp_refreshing();
 1902              		.loc 1 430 5 view .LVU586
 1903 000c FFF7FEFF 		bl	lv_layer_init
 1904              	.LVL185:
 431:../../Middlewares/LVGL/GUI/lvgl/src/draw/lv_draw.c **** 
 1905              		.loc 1 431 5 view .LVU587
 431:../../Middlewares/LVGL/GUI/lvgl/src/draw/lv_draw.c **** 
 1906              		.loc 1 431 27 is_stmt 0 view .LVU588
ARM GAS  C:\Users\28576\AppData\Local\Temp\cc59YylE.s 			page 57


 1907 0010 FFF7FEFF 		bl	lv_refr_get_disp_refreshing
 1908              	.LVL186:
 1909 0014 0646     		mov	r6, r0
 1910              	.LVL187:
 433:../../Middlewares/LVGL/GUI/lvgl/src/draw/lv_draw.c ****     layer->_clip_area = *area;
 1911              		.loc 1 433 5 is_stmt 1 view .LVU589
 433:../../Middlewares/LVGL/GUI/lvgl/src/draw/lv_draw.c ****     layer->_clip_area = *area;
 1912              		.loc 1 433 19 is_stmt 0 view .LVU590
 1913 0016 C5F84880 		str	r8, [r5, #72]
 434:../../Middlewares/LVGL/GUI/lvgl/src/draw/lv_draw.c ****     layer->buf_area = *area;
 1914              		.loc 1 434 5 is_stmt 1 view .LVU591
 434:../../Middlewares/LVGL/GUI/lvgl/src/draw/lv_draw.c ****     layer->buf_area = *area;
 1915              		.loc 1 434 23 is_stmt 0 view .LVU592
 1916 001a 05F1180C 		add	ip, r5, #24
 1917 001e 94E80F00 		ldm	r4, {r0, r1, r2, r3}
 1918              	.LVL188:
 434:../../Middlewares/LVGL/GUI/lvgl/src/draw/lv_draw.c ****     layer->buf_area = *area;
 1919              		.loc 1 434 23 view .LVU593
 1920 0022 8CE80F00 		stm	ip, {r0, r1, r2, r3}
 435:../../Middlewares/LVGL/GUI/lvgl/src/draw/lv_draw.c ****     layer->phy_clip_area = *area;
 1921              		.loc 1 435 5 is_stmt 1 view .LVU594
 435:../../Middlewares/LVGL/GUI/lvgl/src/draw/lv_draw.c ****     layer->phy_clip_area = *area;
 1922              		.loc 1 435 21 is_stmt 0 view .LVU595
 1923 0026 05F1040C 		add	ip, r5, #4
 1924 002a 94E80F00 		ldm	r4, {r0, r1, r2, r3}
 1925 002e 8CE80F00 		stm	ip, {r0, r1, r2, r3}
 436:../../Middlewares/LVGL/GUI/lvgl/src/draw/lv_draw.c ****     layer->color_format = color_format;
 1926              		.loc 1 436 5 is_stmt 1 view .LVU596
 436:../../Middlewares/LVGL/GUI/lvgl/src/draw/lv_draw.c ****     layer->color_format = color_format;
 1927              		.loc 1 436 26 is_stmt 0 view .LVU597
 1928 0032 05F1280C 		add	ip, r5, #40
 1929 0036 94E80F00 		ldm	r4, {r0, r1, r2, r3}
 1930 003a 8CE80F00 		stm	ip, {r0, r1, r2, r3}
 437:../../Middlewares/LVGL/GUI/lvgl/src/draw/lv_draw.c **** 
 1931              		.loc 1 437 5 is_stmt 1 view .LVU598
 437:../../Middlewares/LVGL/GUI/lvgl/src/draw/lv_draw.c **** 
 1932              		.loc 1 437 25 is_stmt 0 view .LVU599
 1933 003e 2F75     		strb	r7, [r5, #20]
 439:../../Middlewares/LVGL/GUI/lvgl/src/draw/lv_draw.c **** 
 1934              		.loc 1 439 5 is_stmt 1 view .LVU600
 439:../../Middlewares/LVGL/GUI/lvgl/src/draw/lv_draw.c **** 
 1935              		.loc 1 439 12 is_stmt 0 view .LVU601
 1936 0040 D6F8B432 		ldr	r3, [r6, #692]
 439:../../Middlewares/LVGL/GUI/lvgl/src/draw/lv_draw.c **** 
 1937              		.loc 1 439 7 view .LVU602
 1938 0044 13B1     		cbz	r3, .L171
 439:../../Middlewares/LVGL/GUI/lvgl/src/draw/lv_draw.c **** 
 1939              		.loc 1 439 26 is_stmt 1 discriminator 1 view .LVU603
 1940 0046 2946     		mov	r1, r5
 1941 0048 3046     		mov	r0, r6
 1942 004a 9847     		blx	r3
 1943              	.LVL189:
 1944              	.L171:
 441:../../Middlewares/LVGL/GUI/lvgl/src/draw/lv_draw.c ****         lv_layer_t * tail = disp->layer_head;
 1945              		.loc 1 441 5 view .LVU604
 441:../../Middlewares/LVGL/GUI/lvgl/src/draw/lv_draw.c ****         lv_layer_t * tail = disp->layer_head;
 1946              		.loc 1 441 12 is_stmt 0 view .LVU605
ARM GAS  C:\Users\28576\AppData\Local\Temp\cc59YylE.s 			page 58


 1947 004c D6F8B032 		ldr	r3, [r6, #688]
 441:../../Middlewares/LVGL/GUI/lvgl/src/draw/lv_draw.c ****         lv_layer_t * tail = disp->layer_head;
 1948              		.loc 1 441 7 view .LVU606
 1949 0050 33B1     		cbz	r3, .L172
 1950              	.L173:
 1951              	.LVL190:
 1952              	.LBB31:
 443:../../Middlewares/LVGL/GUI/lvgl/src/draw/lv_draw.c ****         tail->next = layer;
 1953              		.loc 1 443 15 is_stmt 1 discriminator 1 view .LVU607
 1954 0052 1A46     		mov	r2, r3
 443:../../Middlewares/LVGL/GUI/lvgl/src/draw/lv_draw.c ****         tail->next = layer;
 1955              		.loc 1 443 19 is_stmt 0 discriminator 1 view .LVU608
 1956 0054 DB6C     		ldr	r3, [r3, #76]
 1957              	.LVL191:
 443:../../Middlewares/LVGL/GUI/lvgl/src/draw/lv_draw.c ****         tail->next = layer;
 1958              		.loc 1 443 15 discriminator 1 view .LVU609
 1959 0056 002B     		cmp	r3, #0
 1960 0058 FBD1     		bne	.L173
 444:../../Middlewares/LVGL/GUI/lvgl/src/draw/lv_draw.c ****     }
 1961              		.loc 1 444 9 is_stmt 1 view .LVU610
 444:../../Middlewares/LVGL/GUI/lvgl/src/draw/lv_draw.c ****     }
 1962              		.loc 1 444 20 is_stmt 0 view .LVU611
 1963 005a D564     		str	r5, [r2, #76]
 1964              	.LVL192:
 1965              	.L170:
 444:../../Middlewares/LVGL/GUI/lvgl/src/draw/lv_draw.c ****     }
 1966              		.loc 1 444 20 view .LVU612
 1967              	.LBE31:
 451:../../Middlewares/LVGL/GUI/lvgl/src/draw/lv_draw.c **** 
 1968              		.loc 1 451 1 view .LVU613
 1969 005c BDE8F081 		pop	{r4, r5, r6, r7, r8, pc}
 1970              	.LVL193:
 1971              	.L172:
 447:../../Middlewares/LVGL/GUI/lvgl/src/draw/lv_draw.c ****     }
 1972              		.loc 1 447 9 is_stmt 1 view .LVU614
 447:../../Middlewares/LVGL/GUI/lvgl/src/draw/lv_draw.c ****     }
 1973              		.loc 1 447 26 is_stmt 0 view .LVU615
 1974 0060 C6F8B052 		str	r5, [r6, #688]
 450:../../Middlewares/LVGL/GUI/lvgl/src/draw/lv_draw.c **** }
 1975              		.loc 1 450 25 is_stmt 1 view .LVU616
 451:../../Middlewares/LVGL/GUI/lvgl/src/draw/lv_draw.c **** 
 1976              		.loc 1 451 1 is_stmt 0 view .LVU617
 1977 0064 FAE7     		b	.L170
 1978              		.cfi_endproc
 1979              	.LFE204:
 1981              		.section	.text.lv_draw_layer_create,"ax",%progbits
 1982              		.align	1
 1983              		.global	lv_draw_layer_create
 1984              		.syntax unified
 1985              		.thumb
 1986              		.thumb_func
 1988              	lv_draw_layer_create:
 1989              	.LVL194:
 1990              	.LFB203:
 405:../../Middlewares/LVGL/GUI/lvgl/src/draw/lv_draw.c ****     LV_PROFILER_DRAW_BEGIN;
 1991              		.loc 1 405 1 is_stmt 1 view -0
 1992              		.cfi_startproc
ARM GAS  C:\Users\28576\AppData\Local\Temp\cc59YylE.s 			page 59


 1993              		@ args = 0, pretend = 0, frame = 0
 1994              		@ frame_needed = 0, uses_anonymous_args = 0
 405:../../Middlewares/LVGL/GUI/lvgl/src/draw/lv_draw.c ****     LV_PROFILER_DRAW_BEGIN;
 1995              		.loc 1 405 1 is_stmt 0 view .LVU619
 1996 0000 F8B5     		push	{r3, r4, r5, r6, r7, lr}
 1997              	.LCFI18:
 1998              		.cfi_def_cfa_offset 24
 1999              		.cfi_offset 3, -24
 2000              		.cfi_offset 4, -20
 2001              		.cfi_offset 5, -16
 2002              		.cfi_offset 6, -12
 2003              		.cfi_offset 7, -8
 2004              		.cfi_offset 14, -4
 2005 0002 0446     		mov	r4, r0
 2006 0004 0E46     		mov	r6, r1
 2007 0006 1746     		mov	r7, r2
 406:../../Middlewares/LVGL/GUI/lvgl/src/draw/lv_draw.c ****     lv_layer_t * new_layer = lv_malloc_zeroed(sizeof(lv_layer_t));
 2008              		.loc 1 406 27 is_stmt 1 view .LVU620
 407:../../Middlewares/LVGL/GUI/lvgl/src/draw/lv_draw.c ****     LV_ASSERT_MALLOC(new_layer);
 2009              		.loc 1 407 5 view .LVU621
 407:../../Middlewares/LVGL/GUI/lvgl/src/draw/lv_draw.c ****     LV_ASSERT_MALLOC(new_layer);
 2010              		.loc 1 407 30 is_stmt 0 view .LVU622
 2011 0008 5820     		movs	r0, #88
 2012              	.LVL195:
 407:../../Middlewares/LVGL/GUI/lvgl/src/draw/lv_draw.c ****     LV_ASSERT_MALLOC(new_layer);
 2013              		.loc 1 407 30 view .LVU623
 2014 000a FFF7FEFF 		bl	lv_malloc_zeroed
 2015              	.LVL196:
 408:../../Middlewares/LVGL/GUI/lvgl/src/draw/lv_draw.c ****     if(new_layer == NULL) {
 2016              		.loc 1 408 5 is_stmt 1 view .LVU624
 408:../../Middlewares/LVGL/GUI/lvgl/src/draw/lv_draw.c ****     if(new_layer == NULL) {
 2017              		.loc 1 408 5 view .LVU625
 2018 000e 80B1     		cbz	r0, .L178
 2019 0010 0546     		mov	r5, r0
 408:../../Middlewares/LVGL/GUI/lvgl/src/draw/lv_draw.c ****     if(new_layer == NULL) {
 2020              		.loc 1 408 5 view .LVU626
 408:../../Middlewares/LVGL/GUI/lvgl/src/draw/lv_draw.c ****     if(new_layer == NULL) {
 2021              		.loc 1 408 32 view .LVU627
 409:../../Middlewares/LVGL/GUI/lvgl/src/draw/lv_draw.c ****         LV_PROFILER_DRAW_END;
 2022              		.loc 1 409 5 view .LVU628
 414:../../Middlewares/LVGL/GUI/lvgl/src/draw/lv_draw.c **** 
 2023              		.loc 1 414 5 view .LVU629
 2024 0012 3B46     		mov	r3, r7
 2025 0014 3246     		mov	r2, r6
 2026 0016 2146     		mov	r1, r4
 2027 0018 FFF7FEFF 		bl	lv_draw_layer_init
 2028              	.LVL197:
 417:../../Middlewares/LVGL/GUI/lvgl/src/draw/lv_draw.c ****         new_layer->opa = parent_layer->opa;
 2029              		.loc 1 417 5 view .LVU630
 417:../../Middlewares/LVGL/GUI/lvgl/src/draw/lv_draw.c ****         new_layer->opa = parent_layer->opa;
 2030              		.loc 1 417 7 is_stmt 0 view .LVU631
 2031 001c 3CB1     		cbz	r4, .L176
 418:../../Middlewares/LVGL/GUI/lvgl/src/draw/lv_draw.c ****         new_layer->recolor = parent_layer->recolor;
 2032              		.loc 1 418 9 is_stmt 1 view .LVU632
 418:../../Middlewares/LVGL/GUI/lvgl/src/draw/lv_draw.c ****         new_layer->recolor = parent_layer->recolor;
 2033              		.loc 1 418 38 is_stmt 0 view .LVU633
 2034 001e 94F83830 		ldrb	r3, [r4, #56]	@ zero_extendqisi2
ARM GAS  C:\Users\28576\AppData\Local\Temp\cc59YylE.s 			page 60


 418:../../Middlewares/LVGL/GUI/lvgl/src/draw/lv_draw.c ****         new_layer->recolor = parent_layer->recolor;
 2035              		.loc 1 418 24 view .LVU634
 2036 0022 85F83830 		strb	r3, [r5, #56]
 419:../../Middlewares/LVGL/GUI/lvgl/src/draw/lv_draw.c ****     }
 2037              		.loc 1 419 9 is_stmt 1 view .LVU635
 419:../../Middlewares/LVGL/GUI/lvgl/src/draw/lv_draw.c ****     }
 2038              		.loc 1 419 28 is_stmt 0 view .LVU636
 2039 0026 D4F83930 		ldr	r3, [r4, #57]	@ unaligned
 2040 002a C5F83930 		str	r3, [r5, #57]	@ unaligned
 422:../../Middlewares/LVGL/GUI/lvgl/src/draw/lv_draw.c ****     return new_layer;
 2041              		.loc 1 422 25 is_stmt 1 view .LVU637
 423:../../Middlewares/LVGL/GUI/lvgl/src/draw/lv_draw.c **** }
 2042              		.loc 1 423 5 view .LVU638
 2043              	.L176:
 424:../../Middlewares/LVGL/GUI/lvgl/src/draw/lv_draw.c **** 
 2044              		.loc 1 424 1 is_stmt 0 view .LVU639
 2045 002e 2846     		mov	r0, r5
 2046 0030 F8BD     		pop	{r3, r4, r5, r6, r7, pc}
 2047              	.LVL198:
 2048              	.L178:
 408:../../Middlewares/LVGL/GUI/lvgl/src/draw/lv_draw.c ****     if(new_layer == NULL) {
 2049              		.loc 1 408 5 is_stmt 1 view .LVU640
 408:../../Middlewares/LVGL/GUI/lvgl/src/draw/lv_draw.c ****     if(new_layer == NULL) {
 2050              		.loc 1 408 5 view .LVU641
 408:../../Middlewares/LVGL/GUI/lvgl/src/draw/lv_draw.c ****     if(new_layer == NULL) {
 2051              		.loc 1 408 5 view .LVU642
 408:../../Middlewares/LVGL/GUI/lvgl/src/draw/lv_draw.c ****     if(new_layer == NULL) {
 2052              		.loc 1 408 5 view .LVU643
 408:../../Middlewares/LVGL/GUI/lvgl/src/draw/lv_draw.c ****     if(new_layer == NULL) {
 2053              		.loc 1 408 5 view .LVU644
 2054 0032 FEE7     		b	.L178
 2055              		.cfi_endproc
 2056              	.LFE203:
 2058              		.section	.text.lv_draw_layer_alloc_buf,"ax",%progbits
 2059              		.align	1
 2060              		.global	lv_draw_layer_alloc_buf
 2061              		.syntax unified
 2062              		.thumb
 2063              		.thumb_func
 2065              	lv_draw_layer_alloc_buf:
 2066              	.LVL199:
 2067              	.LFB205:
 454:../../Middlewares/LVGL/GUI/lvgl/src/draw/lv_draw.c ****     LV_PROFILER_DRAW_BEGIN;
 2068              		.loc 1 454 1 view -0
 2069              		.cfi_startproc
 2070              		@ args = 0, pretend = 0, frame = 0
 2071              		@ frame_needed = 0, uses_anonymous_args = 0
 455:../../Middlewares/LVGL/GUI/lvgl/src/draw/lv_draw.c ****     /*If the buffer of the layer is already allocated return it*/
 2072              		.loc 1 455 27 view .LVU646
 457:../../Middlewares/LVGL/GUI/lvgl/src/draw/lv_draw.c ****         LV_PROFILER_DRAW_END;
 2073              		.loc 1 457 5 view .LVU647
 457:../../Middlewares/LVGL/GUI/lvgl/src/draw/lv_draw.c ****         LV_PROFILER_DRAW_END;
 2074              		.loc 1 457 13 is_stmt 0 view .LVU648
 2075 0000 0368     		ldr	r3, [r0]
 457:../../Middlewares/LVGL/GUI/lvgl/src/draw/lv_draw.c ****         LV_PROFILER_DRAW_END;
 2076              		.loc 1 457 7 view .LVU649
 2077 0002 0BB1     		cbz	r3, .L182
ARM GAS  C:\Users\28576\AppData\Local\Temp\cc59YylE.s 			page 61


 458:../../Middlewares/LVGL/GUI/lvgl/src/draw/lv_draw.c ****         return layer->draw_buf->data;
 2078              		.loc 1 458 29 is_stmt 1 view .LVU650
 459:../../Middlewares/LVGL/GUI/lvgl/src/draw/lv_draw.c ****     }
 2079              		.loc 1 459 9 view .LVU651
 459:../../Middlewares/LVGL/GUI/lvgl/src/draw/lv_draw.c ****     }
 2080              		.loc 1 459 31 is_stmt 0 view .LVU652
 2081 0004 1869     		ldr	r0, [r3, #16]
 2082              	.LVL200:
 493:../../Middlewares/LVGL/GUI/lvgl/src/draw/lv_draw.c **** 
 2083              		.loc 1 493 1 view .LVU653
 2084 0006 7047     		bx	lr
 2085              	.LVL201:
 2086              	.L182:
 454:../../Middlewares/LVGL/GUI/lvgl/src/draw/lv_draw.c ****     LV_PROFILER_DRAW_BEGIN;
 2087              		.loc 1 454 1 view .LVU654
 2088 0008 70B5     		push	{r4, r5, r6, lr}
 2089              	.LCFI19:
 2090              		.cfi_def_cfa_offset 16
 2091              		.cfi_offset 4, -16
 2092              		.cfi_offset 5, -12
 2093              		.cfi_offset 6, -8
 2094              		.cfi_offset 14, -4
 2095 000a 0446     		mov	r4, r0
 463:../../Middlewares/LVGL/GUI/lvgl/src/draw/lv_draw.c ****     int32_t h = lv_area_get_height(&layer->buf_area);
 2096              		.loc 1 463 5 is_stmt 1 view .LVU655
 463:../../Middlewares/LVGL/GUI/lvgl/src/draw/lv_draw.c ****     int32_t h = lv_area_get_height(&layer->buf_area);
 2097              		.loc 1 463 35 is_stmt 0 view .LVU656
 2098 000c 031D     		adds	r3, r0, #4
 2099 000e 1D46     		mov	r5, r3
 463:../../Middlewares/LVGL/GUI/lvgl/src/draw/lv_draw.c ****     int32_t h = lv_area_get_height(&layer->buf_area);
 2100              		.loc 1 463 17 view .LVU657
 2101 0010 1846     		mov	r0, r3
 2102              	.LVL202:
 463:../../Middlewares/LVGL/GUI/lvgl/src/draw/lv_draw.c ****     int32_t h = lv_area_get_height(&layer->buf_area);
 2103              		.loc 1 463 17 view .LVU658
 2104 0012 FFF7FEFF 		bl	lv_area_get_width
 2105              	.LVL203:
 2106 0016 0646     		mov	r6, r0
 2107              	.LVL204:
 464:../../Middlewares/LVGL/GUI/lvgl/src/draw/lv_draw.c ****     uint32_t layer_size_byte = h * lv_draw_buf_width_to_stride(w, layer->color_format);
 2108              		.loc 1 464 5 is_stmt 1 view .LVU659
 464:../../Middlewares/LVGL/GUI/lvgl/src/draw/lv_draw.c ****     uint32_t layer_size_byte = h * lv_draw_buf_width_to_stride(w, layer->color_format);
 2109              		.loc 1 464 17 is_stmt 0 view .LVU660
 2110 0018 2846     		mov	r0, r5
 2111              	.LVL205:
 464:../../Middlewares/LVGL/GUI/lvgl/src/draw/lv_draw.c ****     uint32_t layer_size_byte = h * lv_draw_buf_width_to_stride(w, layer->color_format);
 2112              		.loc 1 464 17 view .LVU661
 2113 001a FFF7FEFF 		bl	lv_area_get_height
 2114              	.LVL206:
 2115 001e 0546     		mov	r5, r0
 2116              	.LVL207:
 465:../../Middlewares/LVGL/GUI/lvgl/src/draw/lv_draw.c **** 
 2117              		.loc 1 465 5 is_stmt 1 view .LVU662
 465:../../Middlewares/LVGL/GUI/lvgl/src/draw/lv_draw.c **** 
 2118              		.loc 1 465 36 is_stmt 0 view .LVU663
 2119 0020 217D     		ldrb	r1, [r4, #20]	@ zero_extendqisi2
 2120 0022 3046     		mov	r0, r6
ARM GAS  C:\Users\28576\AppData\Local\Temp\cc59YylE.s 			page 62


 2121              	.LVL208:
 465:../../Middlewares/LVGL/GUI/lvgl/src/draw/lv_draw.c **** 
 2122              		.loc 1 465 36 view .LVU664
 2123 0024 FFF7FEFF 		bl	lv_draw_buf_width_to_stride
 2124              	.LVL209:
 465:../../Middlewares/LVGL/GUI/lvgl/src/draw/lv_draw.c **** 
 2125              		.loc 1 465 14 discriminator 1 view .LVU665
 2126 0028 2946     		mov	r1, r5
 2127 002a 05FB00F5 		mul	r5, r5, r0
 2128              	.LVL210:
 476:../../Middlewares/LVGL/GUI/lvgl/src/draw/lv_draw.c **** 
 2129              		.loc 1 476 5 is_stmt 1 view .LVU666
 476:../../Middlewares/LVGL/GUI/lvgl/src/draw/lv_draw.c **** 
 2130              		.loc 1 476 23 is_stmt 0 view .LVU667
 2131 002e 0023     		movs	r3, #0
 2132 0030 227D     		ldrb	r2, [r4, #20]	@ zero_extendqisi2
 2133 0032 3046     		mov	r0, r6
 2134 0034 FFF7FEFF 		bl	lv_draw_buf_create
 2135              	.LVL211:
 476:../../Middlewares/LVGL/GUI/lvgl/src/draw/lv_draw.c **** 
 2136              		.loc 1 476 21 discriminator 1 view .LVU668
 2137 0038 2060     		str	r0, [r4]
 478:../../Middlewares/LVGL/GUI/lvgl/src/draw/lv_draw.c ****         LV_LOG_WARN("Allocating layer buffer failed. Try later");
 2138              		.loc 1 478 5 is_stmt 1 view .LVU669
 478:../../Middlewares/LVGL/GUI/lvgl/src/draw/lv_draw.c ****         LV_LOG_WARN("Allocating layer buffer failed. Try later");
 2139              		.loc 1 478 7 is_stmt 0 view .LVU670
 2140 003a 58B1     		cbz	r0, .L181
 484:../../Middlewares/LVGL/GUI/lvgl/src/draw/lv_draw.c ****     LV_LOG_INFO("Layer memory used: %" LV_PRIu32 " kB", get_layer_size_kb(_draw_info.used_memory_fo
 2141              		.loc 1 484 5 is_stmt 1 view .LVU671
 484:../../Middlewares/LVGL/GUI/lvgl/src/draw/lv_draw.c ****     LV_LOG_INFO("Layer memory used: %" LV_PRIu32 " kB", get_layer_size_kb(_draw_info.used_memory_fo
 2142              		.loc 1 484 15 is_stmt 0 view .LVU672
 2143 003c 084A     		ldr	r2, .L189
 2144 003e D2F82C31 		ldr	r3, [r2, #300]
 484:../../Middlewares/LVGL/GUI/lvgl/src/draw/lv_draw.c ****     LV_LOG_INFO("Layer memory used: %" LV_PRIu32 " kB", get_layer_size_kb(_draw_info.used_memory_fo
 2145              		.loc 1 484 39 view .LVU673
 2146 0042 2B44     		add	r3, r3, r5
 2147 0044 C2F82C31 		str	r3, [r2, #300]
 485:../../Middlewares/LVGL/GUI/lvgl/src/draw/lv_draw.c **** 
 2148              		.loc 1 485 5 is_stmt 1 view .LVU674
 485:../../Middlewares/LVGL/GUI/lvgl/src/draw/lv_draw.c **** 
 2149              		.loc 1 485 5 view .LVU675
 485:../../Middlewares/LVGL/GUI/lvgl/src/draw/lv_draw.c **** 
 2150              		.loc 1 485 5 view .LVU676
 487:../../Middlewares/LVGL/GUI/lvgl/src/draw/lv_draw.c ****         lv_draw_buf_clear(layer->draw_buf, NULL);
 2151              		.loc 1 487 5 view .LVU677
 487:../../Middlewares/LVGL/GUI/lvgl/src/draw/lv_draw.c ****         lv_draw_buf_clear(layer->draw_buf, NULL);
 2152              		.loc 1 487 8 is_stmt 0 view .LVU678
 2153 0048 207D     		ldrb	r0, [r4, #20]	@ zero_extendqisi2
 2154 004a FFF7FEFF 		bl	lv_color_format_has_alpha
 2155              	.LVL212:
 487:../../Middlewares/LVGL/GUI/lvgl/src/draw/lv_draw.c ****         lv_draw_buf_clear(layer->draw_buf, NULL);
 2156              		.loc 1 487 7 discriminator 1 view .LVU679
 2157 004e 10B9     		cbnz	r0, .L188
 2158              	.L184:
 491:../../Middlewares/LVGL/GUI/lvgl/src/draw/lv_draw.c ****     return layer->draw_buf->data;
 2159              		.loc 1 491 25 is_stmt 1 view .LVU680
 492:../../Middlewares/LVGL/GUI/lvgl/src/draw/lv_draw.c **** }
ARM GAS  C:\Users\28576\AppData\Local\Temp\cc59YylE.s 			page 63


 2160              		.loc 1 492 5 view .LVU681
 492:../../Middlewares/LVGL/GUI/lvgl/src/draw/lv_draw.c **** }
 2161              		.loc 1 492 17 is_stmt 0 view .LVU682
 2162 0050 2368     		ldr	r3, [r4]
 492:../../Middlewares/LVGL/GUI/lvgl/src/draw/lv_draw.c **** }
 2163              		.loc 1 492 27 view .LVU683
 2164 0052 1869     		ldr	r0, [r3, #16]
 2165              	.L181:
 493:../../Middlewares/LVGL/GUI/lvgl/src/draw/lv_draw.c **** 
 2166              		.loc 1 493 1 view .LVU684
 2167 0054 70BD     		pop	{r4, r5, r6, pc}
 2168              	.LVL213:
 2169              	.L188:
 488:../../Middlewares/LVGL/GUI/lvgl/src/draw/lv_draw.c ****     }
 2170              		.loc 1 488 9 is_stmt 1 view .LVU685
 2171 0056 0021     		movs	r1, #0
 2172 0058 2068     		ldr	r0, [r4]
 2173 005a FFF7FEFF 		bl	lv_draw_buf_clear
 2174              	.LVL214:
 2175 005e F7E7     		b	.L184
 2176              	.L190:
 2177              		.align	2
 2178              	.L189:
 2179 0060 00000000 		.word	lv_global
 2180              		.cfi_endproc
 2181              	.LFE205:
 2183              		.section	.text.lv_draw_layer_go_to_xy,"ax",%progbits
 2184              		.align	1
 2185              		.global	lv_draw_layer_go_to_xy
 2186              		.syntax unified
 2187              		.thumb
 2188              		.thumb_func
 2190              	lv_draw_layer_go_to_xy:
 2191              	.LVL215:
 2192              	.LFB206:
 496:../../Middlewares/LVGL/GUI/lvgl/src/draw/lv_draw.c ****     return lv_draw_buf_goto_xy(layer->draw_buf, x, y);
 2193              		.loc 1 496 1 view -0
 2194              		.cfi_startproc
 2195              		@ args = 0, pretend = 0, frame = 0
 2196              		@ frame_needed = 0, uses_anonymous_args = 0
 496:../../Middlewares/LVGL/GUI/lvgl/src/draw/lv_draw.c ****     return lv_draw_buf_goto_xy(layer->draw_buf, x, y);
 2197              		.loc 1 496 1 is_stmt 0 view .LVU687
 2198 0000 08B5     		push	{r3, lr}
 2199              	.LCFI20:
 2200              		.cfi_def_cfa_offset 8
 2201              		.cfi_offset 3, -8
 2202              		.cfi_offset 14, -4
 497:../../Middlewares/LVGL/GUI/lvgl/src/draw/lv_draw.c **** }
 2203              		.loc 1 497 5 is_stmt 1 view .LVU688
 497:../../Middlewares/LVGL/GUI/lvgl/src/draw/lv_draw.c **** }
 2204              		.loc 1 497 12 is_stmt 0 view .LVU689
 2205 0002 0068     		ldr	r0, [r0]
 2206              	.LVL216:
 497:../../Middlewares/LVGL/GUI/lvgl/src/draw/lv_draw.c **** }
 2207              		.loc 1 497 12 view .LVU690
 2208 0004 FFF7FEFF 		bl	lv_draw_buf_goto_xy
 2209              	.LVL217:
ARM GAS  C:\Users\28576\AppData\Local\Temp\cc59YylE.s 			page 64


 498:../../Middlewares/LVGL/GUI/lvgl/src/draw/lv_draw.c **** 
 2210              		.loc 1 498 1 view .LVU691
 2211 0008 08BD     		pop	{r3, pc}
 2212              		.cfi_endproc
 2213              	.LFE206:
 2215              		.section	.text.lv_draw_task_get_type,"ax",%progbits
 2216              		.align	1
 2217              		.global	lv_draw_task_get_type
 2218              		.syntax unified
 2219              		.thumb
 2220              		.thumb_func
 2222              	lv_draw_task_get_type:
 2223              	.LVL218:
 2224              	.LFB207:
 501:../../Middlewares/LVGL/GUI/lvgl/src/draw/lv_draw.c ****     return t->type;
 2225              		.loc 1 501 1 is_stmt 1 view -0
 2226              		.cfi_startproc
 2227              		@ args = 0, pretend = 0, frame = 0
 2228              		@ frame_needed = 0, uses_anonymous_args = 0
 2229              		@ link register save eliminated.
 502:../../Middlewares/LVGL/GUI/lvgl/src/draw/lv_draw.c **** }
 2230              		.loc 1 502 5 view .LVU693
 503:../../Middlewares/LVGL/GUI/lvgl/src/draw/lv_draw.c **** 
 2231              		.loc 1 503 1 is_stmt 0 view .LVU694
 2232 0000 0079     		ldrb	r0, [r0, #4]	@ zero_extendqisi2
 2233              	.LVL219:
 503:../../Middlewares/LVGL/GUI/lvgl/src/draw/lv_draw.c **** 
 2234              		.loc 1 503 1 view .LVU695
 2235 0002 7047     		bx	lr
 2236              		.cfi_endproc
 2237              	.LFE207:
 2239              		.section	.text.lv_draw_task_get_draw_dsc,"ax",%progbits
 2240              		.align	1
 2241              		.global	lv_draw_task_get_draw_dsc
 2242              		.syntax unified
 2243              		.thumb
 2244              		.thumb_func
 2246              	lv_draw_task_get_draw_dsc:
 2247              	.LVL220:
 2248              	.LFB208:
 506:../../Middlewares/LVGL/GUI/lvgl/src/draw/lv_draw.c ****     return t->draw_dsc;
 2249              		.loc 1 506 1 is_stmt 1 view -0
 2250              		.cfi_startproc
 2251              		@ args = 0, pretend = 0, frame = 0
 2252              		@ frame_needed = 0, uses_anonymous_args = 0
 2253              		@ link register save eliminated.
 507:../../Middlewares/LVGL/GUI/lvgl/src/draw/lv_draw.c **** }
 2254              		.loc 1 507 5 view .LVU697
 508:../../Middlewares/LVGL/GUI/lvgl/src/draw/lv_draw.c **** 
 2255              		.loc 1 508 1 is_stmt 0 view .LVU698
 2256 0000 406D     		ldr	r0, [r0, #84]
 2257              	.LVL221:
 508:../../Middlewares/LVGL/GUI/lvgl/src/draw/lv_draw.c **** 
 2258              		.loc 1 508 1 view .LVU699
 2259 0002 7047     		bx	lr
 2260              		.cfi_endproc
 2261              	.LFE208:
ARM GAS  C:\Users\28576\AppData\Local\Temp\cc59YylE.s 			page 65


 2263              		.section	.text.lv_draw_task_get_area,"ax",%progbits
 2264              		.align	1
 2265              		.global	lv_draw_task_get_area
 2266              		.syntax unified
 2267              		.thumb
 2268              		.thumb_func
 2270              	lv_draw_task_get_area:
 2271              	.LVL222:
 2272              	.LFB209:
 511:../../Middlewares/LVGL/GUI/lvgl/src/draw/lv_draw.c ****     *area = t->area;
 2273              		.loc 1 511 1 is_stmt 1 view -0
 2274              		.cfi_startproc
 2275              		@ args = 0, pretend = 0, frame = 0
 2276              		@ frame_needed = 0, uses_anonymous_args = 0
 2277              		@ link register save eliminated.
 511:../../Middlewares/LVGL/GUI/lvgl/src/draw/lv_draw.c ****     *area = t->area;
 2278              		.loc 1 511 1 is_stmt 0 view .LVU701
 2279 0000 8C46     		mov	ip, r1
 512:../../Middlewares/LVGL/GUI/lvgl/src/draw/lv_draw.c **** }
 2280              		.loc 1 512 5 is_stmt 1 view .LVU702
 512:../../Middlewares/LVGL/GUI/lvgl/src/draw/lv_draw.c **** }
 2281              		.loc 1 512 11 is_stmt 0 view .LVU703
 2282 0002 0830     		adds	r0, r0, #8
 2283              	.LVL223:
 512:../../Middlewares/LVGL/GUI/lvgl/src/draw/lv_draw.c **** }
 2284              		.loc 1 512 11 view .LVU704
 2285 0004 0FC8     		ldm	r0, {r0, r1, r2, r3}
 2286              	.LVL224:
 512:../../Middlewares/LVGL/GUI/lvgl/src/draw/lv_draw.c **** }
 2287              		.loc 1 512 11 view .LVU705
 2288 0006 8CE80F00 		stm	ip, {r0, r1, r2, r3}
 513:../../Middlewares/LVGL/GUI/lvgl/src/draw/lv_draw.c **** 
 2289              		.loc 1 513 1 view .LVU706
 2290 000a 7047     		bx	lr
 2291              		.cfi_endproc
 2292              	.LFE209:
 2294              		.text
 2295              	.Letext0:
 2296              		.file 3 "C:/Users/28576/AppData/Roaming/xPacks/@xpack-dev-tools/arm-none-eabi-gcc/15.2.1-1.1.1/.co
 2297              		.file 4 "C:/Users/28576/AppData/Roaming/xPacks/@xpack-dev-tools/arm-none-eabi-gcc/15.2.1-1.1.1/.co
 2298              		.file 5 "C:/Users/28576/AppData/Roaming/xPacks/@xpack-dev-tools/arm-none-eabi-gcc/15.2.1-1.1.1/.co
 2299              		.file 6 "../../Middlewares/LVGL/GUI/lvgl/src/draw/../misc/lv_types.h"
 2300              		.file 7 "../../Middlewares/LVGL/GUI/lvgl/src/draw/../display/lv_display_private.h"
 2301              		.file 8 "../../Middlewares/LVGL/GUI/lvgl/src/draw/lv_draw.h"
 2302              		.file 9 "../../Middlewares/LVGL/GUI/lvgl/src/draw/lv_draw_private.h"
 2303              		.file 10 "H:/STM32H7/RGB_LVGL/Middlewares/LVGL/GUI/lvgl/src/misc/lv_timer_private.h"
 2304              		.file 11 "H:/STM32H7/RGB_LVGL/Middlewares/LVGL/GUI/lvgl/src/font/lv_font.h"
 2305              		.file 12 "../../Middlewares/LVGL/GUI/lvgl/src/draw/lv_draw_image.h"
 2306              		.file 13 "H:/STM32H7/RGB_LVGL/Middlewares/LVGL/GUI/lvgl/src/misc/cache/lv_cache_private.h"
 2307              		.file 14 "H:/STM32H7/RGB_LVGL/Middlewares/LVGL/GUI/lvgl/src/draw/lv_draw_buf_private.h"
 2308              		.file 15 "../../Middlewares/LVGL/GUI/lvgl/src/draw/../misc/lv_array.h"
 2309              		.file 16 "H:/STM32H7/RGB_LVGL/Middlewares/LVGL/GUI/lvgl/src/draw/lv_draw_buf.h"
 2310              		.file 17 "../../Middlewares/LVGL/GUI/lvgl/src/draw/../misc/lv_area.h"
 2311              		.file 18 "H:/STM32H7/RGB_LVGL/Middlewares/LVGL/GUI/lvgl/src/misc/lv_color.h"
 2312              		.file 19 "H:/STM32H7/RGB_LVGL/Middlewares/LVGL/GUI/lvgl/src/draw/lv_image_dsc.h"
 2313              		.file 20 "H:/STM32H7/RGB_LVGL/Middlewares/LVGL/GUI/lvgl/src/tick/lv_tick.h"
 2314              		.file 21 "../../Middlewares/LVGL/GUI/lvgl/src/draw/../misc/lv_ll.h"
ARM GAS  C:\Users\28576\AppData\Local\Temp\cc59YylE.s 			page 66


 2315              		.file 22 "../../Middlewares/LVGL/GUI/lvgl/src/draw/../misc/lv_timer.h"
 2316              		.file 23 "../../Middlewares/LVGL/GUI/lvgl/src/draw/../misc/lv_text.h"
 2317              		.file 24 "../../Middlewares/LVGL/GUI/lvgl/src/draw/../misc/lv_bidi.h"
 2318              		.file 25 "H:/STM32H7/RGB_LVGL/Middlewares/LVGL/GUI/lvgl/src/layouts/lv_layout.h"
 2319              		.file 26 "../../Middlewares/LVGL/GUI/lvgl/src/draw/../misc/lv_style.h"
 2320              		.file 27 "../../Middlewares/LVGL/GUI/lvgl/src/draw/../osal/lv_os_none.h"
 2321              		.file 28 "H:/STM32H7/RGB_LVGL/Middlewares/LVGL/GUI/lvgl/src/misc/lv_event.h"
 2322              		.file 29 "../../Middlewares/LVGL/GUI/lvgl/src/draw/sw/../../display/lv_display.h"
 2323              		.file 30 "../../Middlewares/LVGL/GUI/lvgl/src/draw/sw/../lv_draw_label.h"
 2324              		.file 31 "H:/STM32H7/RGB_LVGL/Middlewares/LVGL/GUI/lvgl/src/core/lv_obj.h"
 2325              		.file 32 "H:/STM32H7/RGB_LVGL/Middlewares/LVGL/GUI/lvgl/src/stdlib/builtin/lv_tlsf.h"
 2326              		.file 33 "H:/STM32H7/RGB_LVGL/Middlewares/LVGL/GUI/lvgl/src/misc/lv_anim_private.h"
 2327              		.file 34 "H:/STM32H7/RGB_LVGL/Middlewares/LVGL/GUI/lvgl/src/tick/lv_tick_private.h"
 2328              		.file 35 "H:/STM32H7/RGB_LVGL/Middlewares/LVGL/GUI/lvgl/src/draw/sw/lv_draw_sw_mask_private.h"
 2329              		.file 36 "H:/STM32H7/RGB_LVGL/Middlewares/LVGL/GUI/lvgl/src/stdlib/builtin/lv_tlsf_private.h"
 2330              		.file 37 "H:/STM32H7/RGB_LVGL/Middlewares/LVGL/GUI/lvgl/src/layouts/lv_layout_private.h"
 2331              		.file 38 "../../Middlewares/LVGL/GUI/lvgl/src/draw/../core/lv_global.h"
 2332              		.file 39 "../../Middlewares/LVGL/GUI/lvgl/src/draw/../misc/lv_area_private.h"
 2333              		.file 40 "H:/STM32H7/RGB_LVGL/Middlewares/LVGL/GUI/lvgl/src/core/lv_obj_event.h"
 2334              		.file 41 "H:/STM32H7/RGB_LVGL/Middlewares/LVGL/GUI/lvgl/src/stdlib/lv_mem.h"
 2335              		.file 42 "../../Middlewares/LVGL/GUI/lvgl/src/draw/../core/lv_refr_private.h"
ARM GAS  C:\Users\28576\AppData\Local\Temp\cc59YylE.s 			page 67

