ARM GAS  C:\Users\28576\AppData\Local\Temp\ccK3W8oA.s 			page 1


   1              		.cpu cortex-m7
   2              		.arch armv7e-m
   3              		.fpu fpv5-d16
   4              		.eabi_attribute 28, 1
   5              		.eabi_attribute 20, 1
   6              		.eabi_attribute 21, 1
   7              		.eabi_attribute 23, 3
   8              		.eabi_attribute 24, 1
   9              		.eabi_attribute 25, 1
  10              		.eabi_attribute 26, 1
  11              		.eabi_attribute 30, 1
  12              		.eabi_attribute 34, 1
  13              		.eabi_attribute 18, 4
  14              		.file	"lv_fs.c"
  15              		.text
  16              	.Ltext0:
  17              		.cfi_sections	.debug_frame
  18              		.file 1 "../../Middlewares/LVGL/GUI/lvgl/src/misc/lv_fs.c"
  19              		.section	.text.lv_fs_resolve_path,"ax",%progbits
  20              		.align	1
  21              		.syntax unified
  22              		.thumb
  23              		.thumb_func
  25              	lv_fs_resolve_path:
  26              	.LVL0:
  27              	.LFB207:
   1:../../Middlewares/LVGL/GUI/lvgl/src/misc/lv_fs.c **** /**
   2:../../Middlewares/LVGL/GUI/lvgl/src/misc/lv_fs.c ****  * @file lv_fs.c
   3:../../Middlewares/LVGL/GUI/lvgl/src/misc/lv_fs.c ****  *
   4:../../Middlewares/LVGL/GUI/lvgl/src/misc/lv_fs.c ****  */
   5:../../Middlewares/LVGL/GUI/lvgl/src/misc/lv_fs.c **** 
   6:../../Middlewares/LVGL/GUI/lvgl/src/misc/lv_fs.c **** /*********************
   7:../../Middlewares/LVGL/GUI/lvgl/src/misc/lv_fs.c ****  *      INCLUDES
   8:../../Middlewares/LVGL/GUI/lvgl/src/misc/lv_fs.c ****  *********************/
   9:../../Middlewares/LVGL/GUI/lvgl/src/misc/lv_fs.c **** #include "lv_fs_private.h"
  10:../../Middlewares/LVGL/GUI/lvgl/src/misc/lv_fs.c **** 
  11:../../Middlewares/LVGL/GUI/lvgl/src/misc/lv_fs.c **** #include "../misc/lv_assert.h"
  12:../../Middlewares/LVGL/GUI/lvgl/src/misc/lv_fs.c **** #include "../misc/lv_profiler.h"
  13:../../Middlewares/LVGL/GUI/lvgl/src/misc/lv_fs.c **** #include "../stdlib/lv_string.h"
  14:../../Middlewares/LVGL/GUI/lvgl/src/misc/lv_fs.c **** #include "lv_ll.h"
  15:../../Middlewares/LVGL/GUI/lvgl/src/misc/lv_fs.c **** #include "../core/lv_global.h"
  16:../../Middlewares/LVGL/GUI/lvgl/src/misc/lv_fs.c **** 
  17:../../Middlewares/LVGL/GUI/lvgl/src/misc/lv_fs.c **** /*********************
  18:../../Middlewares/LVGL/GUI/lvgl/src/misc/lv_fs.c ****  *      DEFINES
  19:../../Middlewares/LVGL/GUI/lvgl/src/misc/lv_fs.c ****  *********************/
  20:../../Middlewares/LVGL/GUI/lvgl/src/misc/lv_fs.c **** 
  21:../../Middlewares/LVGL/GUI/lvgl/src/misc/lv_fs.c **** #if LV_FS_DEFAULT_DRIVER_LETTER != '\0' && (LV_FS_DEFAULT_DRIVER_LETTER < 'A' || 'Z' < LV_FS_DEFAUL
  22:../../Middlewares/LVGL/GUI/lvgl/src/misc/lv_fs.c ****     #error "When enabled, LV_FS_DEFAULT_DRIVER_LETTER needs to be a capital ASCII letter (A-Z)"
  23:../../Middlewares/LVGL/GUI/lvgl/src/misc/lv_fs.c **** #endif
  24:../../Middlewares/LVGL/GUI/lvgl/src/misc/lv_fs.c **** 
  25:../../Middlewares/LVGL/GUI/lvgl/src/misc/lv_fs.c **** #define fsdrv_ll_p &(LV_GLOBAL_DEFAULT()->fsdrv_ll)
  26:../../Middlewares/LVGL/GUI/lvgl/src/misc/lv_fs.c **** 
  27:../../Middlewares/LVGL/GUI/lvgl/src/misc/lv_fs.c **** /**********************
  28:../../Middlewares/LVGL/GUI/lvgl/src/misc/lv_fs.c ****  *      TYPEDEFS
  29:../../Middlewares/LVGL/GUI/lvgl/src/misc/lv_fs.c ****  **********************/
  30:../../Middlewares/LVGL/GUI/lvgl/src/misc/lv_fs.c **** typedef struct {
  31:../../Middlewares/LVGL/GUI/lvgl/src/misc/lv_fs.c ****     char driver_letter;
ARM GAS  C:\Users\28576\AppData\Local\Temp\ccK3W8oA.s 			page 2


  32:../../Middlewares/LVGL/GUI/lvgl/src/misc/lv_fs.c ****     const char * real_path;
  33:../../Middlewares/LVGL/GUI/lvgl/src/misc/lv_fs.c **** } resolved_path_t;
  34:../../Middlewares/LVGL/GUI/lvgl/src/misc/lv_fs.c **** 
  35:../../Middlewares/LVGL/GUI/lvgl/src/misc/lv_fs.c **** /**********************
  36:../../Middlewares/LVGL/GUI/lvgl/src/misc/lv_fs.c ****  *  STATIC PROTOTYPES
  37:../../Middlewares/LVGL/GUI/lvgl/src/misc/lv_fs.c ****  **********************/
  38:../../Middlewares/LVGL/GUI/lvgl/src/misc/lv_fs.c **** static resolved_path_t lv_fs_resolve_path(const char * path);
  39:../../Middlewares/LVGL/GUI/lvgl/src/misc/lv_fs.c **** static lv_fs_res_t lv_fs_read_cached(lv_fs_file_t * file_p, void * buf, uint32_t btr, uint32_t * br
  40:../../Middlewares/LVGL/GUI/lvgl/src/misc/lv_fs.c **** static lv_fs_res_t lv_fs_write_cached(lv_fs_file_t * file_p, const void * buf, uint32_t btw, uint32
  41:../../Middlewares/LVGL/GUI/lvgl/src/misc/lv_fs.c **** static lv_fs_res_t lv_fs_seek_cached(lv_fs_file_t * file_p, uint32_t pos, lv_fs_whence_t whence);
  42:../../Middlewares/LVGL/GUI/lvgl/src/misc/lv_fs.c **** 
  43:../../Middlewares/LVGL/GUI/lvgl/src/misc/lv_fs.c **** /**********************
  44:../../Middlewares/LVGL/GUI/lvgl/src/misc/lv_fs.c ****  *  STATIC VARIABLES
  45:../../Middlewares/LVGL/GUI/lvgl/src/misc/lv_fs.c ****  **********************/
  46:../../Middlewares/LVGL/GUI/lvgl/src/misc/lv_fs.c **** 
  47:../../Middlewares/LVGL/GUI/lvgl/src/misc/lv_fs.c **** /**********************
  48:../../Middlewares/LVGL/GUI/lvgl/src/misc/lv_fs.c ****  *      MACROS
  49:../../Middlewares/LVGL/GUI/lvgl/src/misc/lv_fs.c ****  **********************/
  50:../../Middlewares/LVGL/GUI/lvgl/src/misc/lv_fs.c **** 
  51:../../Middlewares/LVGL/GUI/lvgl/src/misc/lv_fs.c **** /**********************
  52:../../Middlewares/LVGL/GUI/lvgl/src/misc/lv_fs.c ****  *   GLOBAL FUNCTIONS
  53:../../Middlewares/LVGL/GUI/lvgl/src/misc/lv_fs.c ****  **********************/
  54:../../Middlewares/LVGL/GUI/lvgl/src/misc/lv_fs.c **** 
  55:../../Middlewares/LVGL/GUI/lvgl/src/misc/lv_fs.c **** void lv_fs_init(void)
  56:../../Middlewares/LVGL/GUI/lvgl/src/misc/lv_fs.c **** {
  57:../../Middlewares/LVGL/GUI/lvgl/src/misc/lv_fs.c ****     lv_ll_init(fsdrv_ll_p, sizeof(lv_fs_drv_t *));
  58:../../Middlewares/LVGL/GUI/lvgl/src/misc/lv_fs.c **** }
  59:../../Middlewares/LVGL/GUI/lvgl/src/misc/lv_fs.c **** 
  60:../../Middlewares/LVGL/GUI/lvgl/src/misc/lv_fs.c **** void lv_fs_deinit(void)
  61:../../Middlewares/LVGL/GUI/lvgl/src/misc/lv_fs.c **** {
  62:../../Middlewares/LVGL/GUI/lvgl/src/misc/lv_fs.c ****     lv_ll_clear(fsdrv_ll_p);
  63:../../Middlewares/LVGL/GUI/lvgl/src/misc/lv_fs.c **** }
  64:../../Middlewares/LVGL/GUI/lvgl/src/misc/lv_fs.c **** 
  65:../../Middlewares/LVGL/GUI/lvgl/src/misc/lv_fs.c **** bool lv_fs_is_ready(char letter)
  66:../../Middlewares/LVGL/GUI/lvgl/src/misc/lv_fs.c **** {
  67:../../Middlewares/LVGL/GUI/lvgl/src/misc/lv_fs.c ****     lv_fs_drv_t * drv = lv_fs_get_drv(letter);
  68:../../Middlewares/LVGL/GUI/lvgl/src/misc/lv_fs.c **** 
  69:../../Middlewares/LVGL/GUI/lvgl/src/misc/lv_fs.c ****     if(drv == NULL) return false; /*An unknown driver in not ready*/
  70:../../Middlewares/LVGL/GUI/lvgl/src/misc/lv_fs.c **** 
  71:../../Middlewares/LVGL/GUI/lvgl/src/misc/lv_fs.c ****     if(drv->ready_cb == NULL) return true; /*Assume the driver is always ready if no handler provid
  72:../../Middlewares/LVGL/GUI/lvgl/src/misc/lv_fs.c **** 
  73:../../Middlewares/LVGL/GUI/lvgl/src/misc/lv_fs.c ****     return drv->ready_cb(drv);
  74:../../Middlewares/LVGL/GUI/lvgl/src/misc/lv_fs.c **** }
  75:../../Middlewares/LVGL/GUI/lvgl/src/misc/lv_fs.c **** 
  76:../../Middlewares/LVGL/GUI/lvgl/src/misc/lv_fs.c **** lv_fs_res_t lv_fs_open(lv_fs_file_t * file_p, const char * path, lv_fs_mode_t mode)
  77:../../Middlewares/LVGL/GUI/lvgl/src/misc/lv_fs.c **** {
  78:../../Middlewares/LVGL/GUI/lvgl/src/misc/lv_fs.c ****     if(path == NULL) {
  79:../../Middlewares/LVGL/GUI/lvgl/src/misc/lv_fs.c ****         LV_LOG_WARN("Can't open file: path is NULL");
  80:../../Middlewares/LVGL/GUI/lvgl/src/misc/lv_fs.c ****         return LV_FS_RES_INV_PARAM;
  81:../../Middlewares/LVGL/GUI/lvgl/src/misc/lv_fs.c ****     }
  82:../../Middlewares/LVGL/GUI/lvgl/src/misc/lv_fs.c **** 
  83:../../Middlewares/LVGL/GUI/lvgl/src/misc/lv_fs.c ****     resolved_path_t resolved_path = lv_fs_resolve_path(path);
  84:../../Middlewares/LVGL/GUI/lvgl/src/misc/lv_fs.c **** 
  85:../../Middlewares/LVGL/GUI/lvgl/src/misc/lv_fs.c ****     lv_fs_drv_t * drv = lv_fs_get_drv(resolved_path.driver_letter);
  86:../../Middlewares/LVGL/GUI/lvgl/src/misc/lv_fs.c **** 
  87:../../Middlewares/LVGL/GUI/lvgl/src/misc/lv_fs.c ****     if(drv == NULL) {
  88:../../Middlewares/LVGL/GUI/lvgl/src/misc/lv_fs.c ****         LV_LOG_WARN("Can't open file (%s): unknown driver letter", path);
ARM GAS  C:\Users\28576\AppData\Local\Temp\ccK3W8oA.s 			page 3


  89:../../Middlewares/LVGL/GUI/lvgl/src/misc/lv_fs.c ****         return LV_FS_RES_NOT_EX;
  90:../../Middlewares/LVGL/GUI/lvgl/src/misc/lv_fs.c ****     }
  91:../../Middlewares/LVGL/GUI/lvgl/src/misc/lv_fs.c **** 
  92:../../Middlewares/LVGL/GUI/lvgl/src/misc/lv_fs.c ****     if(drv->ready_cb) {
  93:../../Middlewares/LVGL/GUI/lvgl/src/misc/lv_fs.c ****         if(drv->ready_cb(drv) == false) {
  94:../../Middlewares/LVGL/GUI/lvgl/src/misc/lv_fs.c ****             LV_LOG_WARN("Can't open file (%s): driver not ready", path);
  95:../../Middlewares/LVGL/GUI/lvgl/src/misc/lv_fs.c ****             return LV_FS_RES_HW_ERR;
  96:../../Middlewares/LVGL/GUI/lvgl/src/misc/lv_fs.c ****         }
  97:../../Middlewares/LVGL/GUI/lvgl/src/misc/lv_fs.c ****     }
  98:../../Middlewares/LVGL/GUI/lvgl/src/misc/lv_fs.c **** 
  99:../../Middlewares/LVGL/GUI/lvgl/src/misc/lv_fs.c ****     if(drv->open_cb == NULL) {
 100:../../Middlewares/LVGL/GUI/lvgl/src/misc/lv_fs.c ****         LV_LOG_WARN("Can't open file (%s): open function not exists", path);
 101:../../Middlewares/LVGL/GUI/lvgl/src/misc/lv_fs.c ****         return LV_FS_RES_NOT_IMP;
 102:../../Middlewares/LVGL/GUI/lvgl/src/misc/lv_fs.c ****     }
 103:../../Middlewares/LVGL/GUI/lvgl/src/misc/lv_fs.c **** 
 104:../../Middlewares/LVGL/GUI/lvgl/src/misc/lv_fs.c ****     LV_PROFILER_FS_BEGIN;
 105:../../Middlewares/LVGL/GUI/lvgl/src/misc/lv_fs.c **** 
 106:../../Middlewares/LVGL/GUI/lvgl/src/misc/lv_fs.c ****     file_p->drv = drv;
 107:../../Middlewares/LVGL/GUI/lvgl/src/misc/lv_fs.c **** 
 108:../../Middlewares/LVGL/GUI/lvgl/src/misc/lv_fs.c ****     /* For memory-mapped files we set the file handle to our file descriptor so that we can access 
 109:../../Middlewares/LVGL/GUI/lvgl/src/misc/lv_fs.c ****     if(drv->cache_size == LV_FS_CACHE_FROM_BUFFER) {
 110:../../Middlewares/LVGL/GUI/lvgl/src/misc/lv_fs.c ****         file_p->file_d = file_p;
 111:../../Middlewares/LVGL/GUI/lvgl/src/misc/lv_fs.c ****     }
 112:../../Middlewares/LVGL/GUI/lvgl/src/misc/lv_fs.c ****     else {
 113:../../Middlewares/LVGL/GUI/lvgl/src/misc/lv_fs.c ****         void * file_d = drv->open_cb(drv, resolved_path.real_path, mode);
 114:../../Middlewares/LVGL/GUI/lvgl/src/misc/lv_fs.c ****         if(file_d == NULL || file_d == (void *)(-1)) {
 115:../../Middlewares/LVGL/GUI/lvgl/src/misc/lv_fs.c ****             LV_PROFILER_FS_END;
 116:../../Middlewares/LVGL/GUI/lvgl/src/misc/lv_fs.c ****             return LV_FS_RES_UNKNOWN;
 117:../../Middlewares/LVGL/GUI/lvgl/src/misc/lv_fs.c ****         }
 118:../../Middlewares/LVGL/GUI/lvgl/src/misc/lv_fs.c ****         file_p->file_d = file_d;
 119:../../Middlewares/LVGL/GUI/lvgl/src/misc/lv_fs.c ****     }
 120:../../Middlewares/LVGL/GUI/lvgl/src/misc/lv_fs.c **** 
 121:../../Middlewares/LVGL/GUI/lvgl/src/misc/lv_fs.c ****     if(drv->cache_size) {
 122:../../Middlewares/LVGL/GUI/lvgl/src/misc/lv_fs.c ****         file_p->cache = lv_malloc_zeroed(sizeof(lv_fs_file_cache_t));
 123:../../Middlewares/LVGL/GUI/lvgl/src/misc/lv_fs.c ****         LV_ASSERT_MALLOC(file_p->cache);
 124:../../Middlewares/LVGL/GUI/lvgl/src/misc/lv_fs.c **** 
 125:../../Middlewares/LVGL/GUI/lvgl/src/misc/lv_fs.c ****         /* If this is a memory-mapped file, then set "cache" to the memory buffer */
 126:../../Middlewares/LVGL/GUI/lvgl/src/misc/lv_fs.c ****         if(drv->cache_size == LV_FS_CACHE_FROM_BUFFER) {
 127:../../Middlewares/LVGL/GUI/lvgl/src/misc/lv_fs.c ****             lv_fs_path_ex_t * path_ex = (lv_fs_path_ex_t *)path;
 128:../../Middlewares/LVGL/GUI/lvgl/src/misc/lv_fs.c ****             file_p->cache->buffer = (void *)path_ex->buffer;
 129:../../Middlewares/LVGL/GUI/lvgl/src/misc/lv_fs.c ****             file_p->cache->start = 0;
 130:../../Middlewares/LVGL/GUI/lvgl/src/misc/lv_fs.c ****             file_p->cache->file_position = 0;
 131:../../Middlewares/LVGL/GUI/lvgl/src/misc/lv_fs.c ****             file_p->cache->end = path_ex->size;
 132:../../Middlewares/LVGL/GUI/lvgl/src/misc/lv_fs.c ****         }
 133:../../Middlewares/LVGL/GUI/lvgl/src/misc/lv_fs.c ****         /*Set an invalid range by default*/
 134:../../Middlewares/LVGL/GUI/lvgl/src/misc/lv_fs.c ****         else {
 135:../../Middlewares/LVGL/GUI/lvgl/src/misc/lv_fs.c ****             file_p->cache->start = UINT32_MAX;
 136:../../Middlewares/LVGL/GUI/lvgl/src/misc/lv_fs.c ****             file_p->cache->end = UINT32_MAX - 1;
 137:../../Middlewares/LVGL/GUI/lvgl/src/misc/lv_fs.c ****         }
 138:../../Middlewares/LVGL/GUI/lvgl/src/misc/lv_fs.c ****     }
 139:../../Middlewares/LVGL/GUI/lvgl/src/misc/lv_fs.c **** 
 140:../../Middlewares/LVGL/GUI/lvgl/src/misc/lv_fs.c ****     LV_PROFILER_FS_END;
 141:../../Middlewares/LVGL/GUI/lvgl/src/misc/lv_fs.c **** 
 142:../../Middlewares/LVGL/GUI/lvgl/src/misc/lv_fs.c ****     return LV_FS_RES_OK;
 143:../../Middlewares/LVGL/GUI/lvgl/src/misc/lv_fs.c **** }
 144:../../Middlewares/LVGL/GUI/lvgl/src/misc/lv_fs.c **** 
 145:../../Middlewares/LVGL/GUI/lvgl/src/misc/lv_fs.c **** void lv_fs_make_path_from_buffer(lv_fs_path_ex_t * path, char letter, const void * buf, uint32_t si
ARM GAS  C:\Users\28576\AppData\Local\Temp\ccK3W8oA.s 			page 4


 146:../../Middlewares/LVGL/GUI/lvgl/src/misc/lv_fs.c **** {
 147:../../Middlewares/LVGL/GUI/lvgl/src/misc/lv_fs.c ****     path->path[0] = letter;
 148:../../Middlewares/LVGL/GUI/lvgl/src/misc/lv_fs.c ****     path->path[1] = ':';
 149:../../Middlewares/LVGL/GUI/lvgl/src/misc/lv_fs.c ****     path->path[2] = 0;
 150:../../Middlewares/LVGL/GUI/lvgl/src/misc/lv_fs.c ****     path->buffer = buf;
 151:../../Middlewares/LVGL/GUI/lvgl/src/misc/lv_fs.c ****     path->size = size;
 152:../../Middlewares/LVGL/GUI/lvgl/src/misc/lv_fs.c **** }
 153:../../Middlewares/LVGL/GUI/lvgl/src/misc/lv_fs.c **** 
 154:../../Middlewares/LVGL/GUI/lvgl/src/misc/lv_fs.c **** lv_fs_res_t lv_fs_close(lv_fs_file_t * file_p)
 155:../../Middlewares/LVGL/GUI/lvgl/src/misc/lv_fs.c **** {
 156:../../Middlewares/LVGL/GUI/lvgl/src/misc/lv_fs.c ****     if(file_p->drv == NULL) {
 157:../../Middlewares/LVGL/GUI/lvgl/src/misc/lv_fs.c ****         return LV_FS_RES_INV_PARAM;
 158:../../Middlewares/LVGL/GUI/lvgl/src/misc/lv_fs.c ****     }
 159:../../Middlewares/LVGL/GUI/lvgl/src/misc/lv_fs.c **** 
 160:../../Middlewares/LVGL/GUI/lvgl/src/misc/lv_fs.c ****     if(file_p->drv->close_cb == NULL) {
 161:../../Middlewares/LVGL/GUI/lvgl/src/misc/lv_fs.c ****         return LV_FS_RES_NOT_IMP;
 162:../../Middlewares/LVGL/GUI/lvgl/src/misc/lv_fs.c ****     }
 163:../../Middlewares/LVGL/GUI/lvgl/src/misc/lv_fs.c **** 
 164:../../Middlewares/LVGL/GUI/lvgl/src/misc/lv_fs.c ****     LV_PROFILER_FS_BEGIN;
 165:../../Middlewares/LVGL/GUI/lvgl/src/misc/lv_fs.c **** 
 166:../../Middlewares/LVGL/GUI/lvgl/src/misc/lv_fs.c ****     lv_fs_res_t res = file_p->drv->close_cb(file_p->drv, file_p->file_d);
 167:../../Middlewares/LVGL/GUI/lvgl/src/misc/lv_fs.c **** 
 168:../../Middlewares/LVGL/GUI/lvgl/src/misc/lv_fs.c ****     if(file_p->drv->cache_size && file_p->cache) {
 169:../../Middlewares/LVGL/GUI/lvgl/src/misc/lv_fs.c ****         /* Only free cache if it was pre-allocated (for memory-mapped files it is never allocated) 
 170:../../Middlewares/LVGL/GUI/lvgl/src/misc/lv_fs.c ****         if(file_p->drv->cache_size != LV_FS_CACHE_FROM_BUFFER && file_p->cache->buffer) {
 171:../../Middlewares/LVGL/GUI/lvgl/src/misc/lv_fs.c ****             lv_free(file_p->cache->buffer);
 172:../../Middlewares/LVGL/GUI/lvgl/src/misc/lv_fs.c ****         }
 173:../../Middlewares/LVGL/GUI/lvgl/src/misc/lv_fs.c **** 
 174:../../Middlewares/LVGL/GUI/lvgl/src/misc/lv_fs.c ****         lv_free(file_p->cache);
 175:../../Middlewares/LVGL/GUI/lvgl/src/misc/lv_fs.c ****     }
 176:../../Middlewares/LVGL/GUI/lvgl/src/misc/lv_fs.c **** 
 177:../../Middlewares/LVGL/GUI/lvgl/src/misc/lv_fs.c ****     file_p->file_d = NULL;
 178:../../Middlewares/LVGL/GUI/lvgl/src/misc/lv_fs.c ****     file_p->drv    = NULL;
 179:../../Middlewares/LVGL/GUI/lvgl/src/misc/lv_fs.c ****     file_p->cache  = NULL;
 180:../../Middlewares/LVGL/GUI/lvgl/src/misc/lv_fs.c **** 
 181:../../Middlewares/LVGL/GUI/lvgl/src/misc/lv_fs.c ****     LV_PROFILER_FS_END;
 182:../../Middlewares/LVGL/GUI/lvgl/src/misc/lv_fs.c **** 
 183:../../Middlewares/LVGL/GUI/lvgl/src/misc/lv_fs.c ****     return res;
 184:../../Middlewares/LVGL/GUI/lvgl/src/misc/lv_fs.c **** }
 185:../../Middlewares/LVGL/GUI/lvgl/src/misc/lv_fs.c **** 
 186:../../Middlewares/LVGL/GUI/lvgl/src/misc/lv_fs.c **** lv_fs_res_t lv_fs_read(lv_fs_file_t * file_p, void * buf, uint32_t btr, uint32_t * br)
 187:../../Middlewares/LVGL/GUI/lvgl/src/misc/lv_fs.c **** {
 188:../../Middlewares/LVGL/GUI/lvgl/src/misc/lv_fs.c ****     if(br != NULL) *br = 0;
 189:../../Middlewares/LVGL/GUI/lvgl/src/misc/lv_fs.c ****     if(file_p->drv == NULL) return LV_FS_RES_INV_PARAM;
 190:../../Middlewares/LVGL/GUI/lvgl/src/misc/lv_fs.c **** 
 191:../../Middlewares/LVGL/GUI/lvgl/src/misc/lv_fs.c ****     if(file_p->drv->cache_size) {
 192:../../Middlewares/LVGL/GUI/lvgl/src/misc/lv_fs.c ****         if(file_p->drv->read_cb == NULL || file_p->drv->seek_cb == NULL) return LV_FS_RES_NOT_IMP;
 193:../../Middlewares/LVGL/GUI/lvgl/src/misc/lv_fs.c ****     }
 194:../../Middlewares/LVGL/GUI/lvgl/src/misc/lv_fs.c ****     else {
 195:../../Middlewares/LVGL/GUI/lvgl/src/misc/lv_fs.c ****         if(file_p->drv->read_cb == NULL) return LV_FS_RES_NOT_IMP;
 196:../../Middlewares/LVGL/GUI/lvgl/src/misc/lv_fs.c ****     }
 197:../../Middlewares/LVGL/GUI/lvgl/src/misc/lv_fs.c **** 
 198:../../Middlewares/LVGL/GUI/lvgl/src/misc/lv_fs.c ****     LV_PROFILER_FS_BEGIN;
 199:../../Middlewares/LVGL/GUI/lvgl/src/misc/lv_fs.c **** 
 200:../../Middlewares/LVGL/GUI/lvgl/src/misc/lv_fs.c ****     uint32_t br_tmp = 0;
 201:../../Middlewares/LVGL/GUI/lvgl/src/misc/lv_fs.c ****     lv_fs_res_t res;
 202:../../Middlewares/LVGL/GUI/lvgl/src/misc/lv_fs.c **** 
ARM GAS  C:\Users\28576\AppData\Local\Temp\ccK3W8oA.s 			page 5


 203:../../Middlewares/LVGL/GUI/lvgl/src/misc/lv_fs.c ****     if(file_p->drv->cache_size) {
 204:../../Middlewares/LVGL/GUI/lvgl/src/misc/lv_fs.c ****         res = lv_fs_read_cached(file_p, buf, btr, &br_tmp);
 205:../../Middlewares/LVGL/GUI/lvgl/src/misc/lv_fs.c ****     }
 206:../../Middlewares/LVGL/GUI/lvgl/src/misc/lv_fs.c ****     else {
 207:../../Middlewares/LVGL/GUI/lvgl/src/misc/lv_fs.c ****         res = file_p->drv->read_cb(file_p->drv, file_p->file_d, buf, btr, &br_tmp);
 208:../../Middlewares/LVGL/GUI/lvgl/src/misc/lv_fs.c ****     }
 209:../../Middlewares/LVGL/GUI/lvgl/src/misc/lv_fs.c **** 
 210:../../Middlewares/LVGL/GUI/lvgl/src/misc/lv_fs.c ****     if(br != NULL) *br = br_tmp;
 211:../../Middlewares/LVGL/GUI/lvgl/src/misc/lv_fs.c **** 
 212:../../Middlewares/LVGL/GUI/lvgl/src/misc/lv_fs.c ****     LV_PROFILER_FS_END;
 213:../../Middlewares/LVGL/GUI/lvgl/src/misc/lv_fs.c **** 
 214:../../Middlewares/LVGL/GUI/lvgl/src/misc/lv_fs.c ****     return res;
 215:../../Middlewares/LVGL/GUI/lvgl/src/misc/lv_fs.c **** }
 216:../../Middlewares/LVGL/GUI/lvgl/src/misc/lv_fs.c **** 
 217:../../Middlewares/LVGL/GUI/lvgl/src/misc/lv_fs.c **** lv_fs_res_t lv_fs_write(lv_fs_file_t * file_p, const void * buf, uint32_t btw, uint32_t * bw)
 218:../../Middlewares/LVGL/GUI/lvgl/src/misc/lv_fs.c **** {
 219:../../Middlewares/LVGL/GUI/lvgl/src/misc/lv_fs.c ****     if(bw != NULL) *bw = 0;
 220:../../Middlewares/LVGL/GUI/lvgl/src/misc/lv_fs.c **** 
 221:../../Middlewares/LVGL/GUI/lvgl/src/misc/lv_fs.c ****     if(file_p->drv == NULL) {
 222:../../Middlewares/LVGL/GUI/lvgl/src/misc/lv_fs.c ****         return LV_FS_RES_INV_PARAM;
 223:../../Middlewares/LVGL/GUI/lvgl/src/misc/lv_fs.c ****     }
 224:../../Middlewares/LVGL/GUI/lvgl/src/misc/lv_fs.c **** 
 225:../../Middlewares/LVGL/GUI/lvgl/src/misc/lv_fs.c ****     if(file_p->drv->cache_size) {
 226:../../Middlewares/LVGL/GUI/lvgl/src/misc/lv_fs.c ****         if(file_p->drv->write_cb == NULL || file_p->drv->seek_cb == NULL) return LV_FS_RES_NOT_IMP;
 227:../../Middlewares/LVGL/GUI/lvgl/src/misc/lv_fs.c ****     }
 228:../../Middlewares/LVGL/GUI/lvgl/src/misc/lv_fs.c ****     else {
 229:../../Middlewares/LVGL/GUI/lvgl/src/misc/lv_fs.c ****         if(file_p->drv->write_cb == NULL) return LV_FS_RES_NOT_IMP;
 230:../../Middlewares/LVGL/GUI/lvgl/src/misc/lv_fs.c ****     }
 231:../../Middlewares/LVGL/GUI/lvgl/src/misc/lv_fs.c **** 
 232:../../Middlewares/LVGL/GUI/lvgl/src/misc/lv_fs.c ****     LV_PROFILER_FS_BEGIN;
 233:../../Middlewares/LVGL/GUI/lvgl/src/misc/lv_fs.c **** 
 234:../../Middlewares/LVGL/GUI/lvgl/src/misc/lv_fs.c ****     lv_fs_res_t res;
 235:../../Middlewares/LVGL/GUI/lvgl/src/misc/lv_fs.c ****     uint32_t bw_tmp = 0;
 236:../../Middlewares/LVGL/GUI/lvgl/src/misc/lv_fs.c ****     if(file_p->drv->cache_size) {
 237:../../Middlewares/LVGL/GUI/lvgl/src/misc/lv_fs.c ****         res = lv_fs_write_cached(file_p, buf, btw, &bw_tmp);
 238:../../Middlewares/LVGL/GUI/lvgl/src/misc/lv_fs.c ****     }
 239:../../Middlewares/LVGL/GUI/lvgl/src/misc/lv_fs.c ****     else {
 240:../../Middlewares/LVGL/GUI/lvgl/src/misc/lv_fs.c ****         res = file_p->drv->write_cb(file_p->drv, file_p->file_d, buf, btw, &bw_tmp);
 241:../../Middlewares/LVGL/GUI/lvgl/src/misc/lv_fs.c ****     }
 242:../../Middlewares/LVGL/GUI/lvgl/src/misc/lv_fs.c ****     if(bw != NULL) *bw = bw_tmp;
 243:../../Middlewares/LVGL/GUI/lvgl/src/misc/lv_fs.c **** 
 244:../../Middlewares/LVGL/GUI/lvgl/src/misc/lv_fs.c ****     LV_PROFILER_FS_END;
 245:../../Middlewares/LVGL/GUI/lvgl/src/misc/lv_fs.c ****     return res;
 246:../../Middlewares/LVGL/GUI/lvgl/src/misc/lv_fs.c **** }
 247:../../Middlewares/LVGL/GUI/lvgl/src/misc/lv_fs.c **** 
 248:../../Middlewares/LVGL/GUI/lvgl/src/misc/lv_fs.c **** lv_fs_res_t lv_fs_seek(lv_fs_file_t * file_p, uint32_t pos, lv_fs_whence_t whence)
 249:../../Middlewares/LVGL/GUI/lvgl/src/misc/lv_fs.c **** {
 250:../../Middlewares/LVGL/GUI/lvgl/src/misc/lv_fs.c ****     if(file_p->drv == NULL) {
 251:../../Middlewares/LVGL/GUI/lvgl/src/misc/lv_fs.c ****         return LV_FS_RES_INV_PARAM;
 252:../../Middlewares/LVGL/GUI/lvgl/src/misc/lv_fs.c ****     }
 253:../../Middlewares/LVGL/GUI/lvgl/src/misc/lv_fs.c **** 
 254:../../Middlewares/LVGL/GUI/lvgl/src/misc/lv_fs.c ****     if(file_p->drv->cache_size) {
 255:../../Middlewares/LVGL/GUI/lvgl/src/misc/lv_fs.c ****         if(file_p->drv->seek_cb == NULL || file_p->drv->tell_cb == NULL) return LV_FS_RES_NOT_IMP;
 256:../../Middlewares/LVGL/GUI/lvgl/src/misc/lv_fs.c ****     }
 257:../../Middlewares/LVGL/GUI/lvgl/src/misc/lv_fs.c ****     else {
 258:../../Middlewares/LVGL/GUI/lvgl/src/misc/lv_fs.c ****         if(file_p->drv->seek_cb == NULL) return LV_FS_RES_NOT_IMP;
 259:../../Middlewares/LVGL/GUI/lvgl/src/misc/lv_fs.c ****     }
ARM GAS  C:\Users\28576\AppData\Local\Temp\ccK3W8oA.s 			page 6


 260:../../Middlewares/LVGL/GUI/lvgl/src/misc/lv_fs.c **** 
 261:../../Middlewares/LVGL/GUI/lvgl/src/misc/lv_fs.c ****     LV_PROFILER_FS_BEGIN;
 262:../../Middlewares/LVGL/GUI/lvgl/src/misc/lv_fs.c **** 
 263:../../Middlewares/LVGL/GUI/lvgl/src/misc/lv_fs.c ****     lv_fs_res_t res;
 264:../../Middlewares/LVGL/GUI/lvgl/src/misc/lv_fs.c ****     if(file_p->drv->cache_size) {
 265:../../Middlewares/LVGL/GUI/lvgl/src/misc/lv_fs.c ****         res = lv_fs_seek_cached(file_p, pos, whence);
 266:../../Middlewares/LVGL/GUI/lvgl/src/misc/lv_fs.c ****     }
 267:../../Middlewares/LVGL/GUI/lvgl/src/misc/lv_fs.c ****     else {
 268:../../Middlewares/LVGL/GUI/lvgl/src/misc/lv_fs.c ****         res = file_p->drv->seek_cb(file_p->drv, file_p->file_d, pos, whence);
 269:../../Middlewares/LVGL/GUI/lvgl/src/misc/lv_fs.c ****     }
 270:../../Middlewares/LVGL/GUI/lvgl/src/misc/lv_fs.c **** 
 271:../../Middlewares/LVGL/GUI/lvgl/src/misc/lv_fs.c ****     LV_PROFILER_FS_END;
 272:../../Middlewares/LVGL/GUI/lvgl/src/misc/lv_fs.c **** 
 273:../../Middlewares/LVGL/GUI/lvgl/src/misc/lv_fs.c ****     return res;
 274:../../Middlewares/LVGL/GUI/lvgl/src/misc/lv_fs.c **** }
 275:../../Middlewares/LVGL/GUI/lvgl/src/misc/lv_fs.c **** 
 276:../../Middlewares/LVGL/GUI/lvgl/src/misc/lv_fs.c **** lv_fs_res_t lv_fs_tell(lv_fs_file_t * file_p, uint32_t * pos)
 277:../../Middlewares/LVGL/GUI/lvgl/src/misc/lv_fs.c **** {
 278:../../Middlewares/LVGL/GUI/lvgl/src/misc/lv_fs.c ****     if(file_p->drv == NULL) {
 279:../../Middlewares/LVGL/GUI/lvgl/src/misc/lv_fs.c ****         *pos = 0;
 280:../../Middlewares/LVGL/GUI/lvgl/src/misc/lv_fs.c ****         return LV_FS_RES_INV_PARAM;
 281:../../Middlewares/LVGL/GUI/lvgl/src/misc/lv_fs.c ****     }
 282:../../Middlewares/LVGL/GUI/lvgl/src/misc/lv_fs.c **** 
 283:../../Middlewares/LVGL/GUI/lvgl/src/misc/lv_fs.c ****     if(file_p->drv->cache_size == 0 && file_p->drv->tell_cb == NULL) {
 284:../../Middlewares/LVGL/GUI/lvgl/src/misc/lv_fs.c ****         *pos = 0;
 285:../../Middlewares/LVGL/GUI/lvgl/src/misc/lv_fs.c ****         return LV_FS_RES_NOT_IMP;
 286:../../Middlewares/LVGL/GUI/lvgl/src/misc/lv_fs.c ****     }
 287:../../Middlewares/LVGL/GUI/lvgl/src/misc/lv_fs.c **** 
 288:../../Middlewares/LVGL/GUI/lvgl/src/misc/lv_fs.c ****     LV_PROFILER_FS_BEGIN;
 289:../../Middlewares/LVGL/GUI/lvgl/src/misc/lv_fs.c **** 
 290:../../Middlewares/LVGL/GUI/lvgl/src/misc/lv_fs.c ****     lv_fs_res_t res;
 291:../../Middlewares/LVGL/GUI/lvgl/src/misc/lv_fs.c ****     if(file_p->drv->cache_size) {
 292:../../Middlewares/LVGL/GUI/lvgl/src/misc/lv_fs.c ****         *pos = file_p->cache->file_position;
 293:../../Middlewares/LVGL/GUI/lvgl/src/misc/lv_fs.c ****         res = LV_FS_RES_OK;
 294:../../Middlewares/LVGL/GUI/lvgl/src/misc/lv_fs.c ****     }
 295:../../Middlewares/LVGL/GUI/lvgl/src/misc/lv_fs.c ****     else {
 296:../../Middlewares/LVGL/GUI/lvgl/src/misc/lv_fs.c ****         res = file_p->drv->tell_cb(file_p->drv, file_p->file_d, pos);
 297:../../Middlewares/LVGL/GUI/lvgl/src/misc/lv_fs.c ****     }
 298:../../Middlewares/LVGL/GUI/lvgl/src/misc/lv_fs.c **** 
 299:../../Middlewares/LVGL/GUI/lvgl/src/misc/lv_fs.c ****     LV_PROFILER_FS_END;
 300:../../Middlewares/LVGL/GUI/lvgl/src/misc/lv_fs.c **** 
 301:../../Middlewares/LVGL/GUI/lvgl/src/misc/lv_fs.c ****     return res;
 302:../../Middlewares/LVGL/GUI/lvgl/src/misc/lv_fs.c **** }
 303:../../Middlewares/LVGL/GUI/lvgl/src/misc/lv_fs.c **** 
 304:../../Middlewares/LVGL/GUI/lvgl/src/misc/lv_fs.c **** lv_fs_res_t lv_fs_dir_open(lv_fs_dir_t * rddir_p, const char * path)
 305:../../Middlewares/LVGL/GUI/lvgl/src/misc/lv_fs.c **** {
 306:../../Middlewares/LVGL/GUI/lvgl/src/misc/lv_fs.c ****     if(path == NULL) return LV_FS_RES_INV_PARAM;
 307:../../Middlewares/LVGL/GUI/lvgl/src/misc/lv_fs.c **** 
 308:../../Middlewares/LVGL/GUI/lvgl/src/misc/lv_fs.c ****     resolved_path_t resolved_path = lv_fs_resolve_path(path);
 309:../../Middlewares/LVGL/GUI/lvgl/src/misc/lv_fs.c **** 
 310:../../Middlewares/LVGL/GUI/lvgl/src/misc/lv_fs.c ****     lv_fs_drv_t * drv = lv_fs_get_drv(resolved_path.driver_letter);
 311:../../Middlewares/LVGL/GUI/lvgl/src/misc/lv_fs.c **** 
 312:../../Middlewares/LVGL/GUI/lvgl/src/misc/lv_fs.c ****     if(drv == NULL) {
 313:../../Middlewares/LVGL/GUI/lvgl/src/misc/lv_fs.c ****         return LV_FS_RES_NOT_EX;
 314:../../Middlewares/LVGL/GUI/lvgl/src/misc/lv_fs.c ****     }
 315:../../Middlewares/LVGL/GUI/lvgl/src/misc/lv_fs.c **** 
 316:../../Middlewares/LVGL/GUI/lvgl/src/misc/lv_fs.c ****     if(drv->ready_cb) {
ARM GAS  C:\Users\28576\AppData\Local\Temp\ccK3W8oA.s 			page 7


 317:../../Middlewares/LVGL/GUI/lvgl/src/misc/lv_fs.c ****         if(drv->ready_cb(drv) == false) {
 318:../../Middlewares/LVGL/GUI/lvgl/src/misc/lv_fs.c ****             return LV_FS_RES_HW_ERR;
 319:../../Middlewares/LVGL/GUI/lvgl/src/misc/lv_fs.c ****         }
 320:../../Middlewares/LVGL/GUI/lvgl/src/misc/lv_fs.c ****     }
 321:../../Middlewares/LVGL/GUI/lvgl/src/misc/lv_fs.c **** 
 322:../../Middlewares/LVGL/GUI/lvgl/src/misc/lv_fs.c ****     if(drv->dir_open_cb == NULL) {
 323:../../Middlewares/LVGL/GUI/lvgl/src/misc/lv_fs.c ****         return LV_FS_RES_NOT_IMP;
 324:../../Middlewares/LVGL/GUI/lvgl/src/misc/lv_fs.c ****     }
 325:../../Middlewares/LVGL/GUI/lvgl/src/misc/lv_fs.c **** 
 326:../../Middlewares/LVGL/GUI/lvgl/src/misc/lv_fs.c ****     LV_PROFILER_FS_BEGIN;
 327:../../Middlewares/LVGL/GUI/lvgl/src/misc/lv_fs.c **** 
 328:../../Middlewares/LVGL/GUI/lvgl/src/misc/lv_fs.c ****     void * dir_d = drv->dir_open_cb(drv, resolved_path.real_path);
 329:../../Middlewares/LVGL/GUI/lvgl/src/misc/lv_fs.c **** 
 330:../../Middlewares/LVGL/GUI/lvgl/src/misc/lv_fs.c ****     if(dir_d == NULL || dir_d == (void *)(-1)) {
 331:../../Middlewares/LVGL/GUI/lvgl/src/misc/lv_fs.c ****         LV_PROFILER_FS_END;
 332:../../Middlewares/LVGL/GUI/lvgl/src/misc/lv_fs.c ****         return LV_FS_RES_UNKNOWN;
 333:../../Middlewares/LVGL/GUI/lvgl/src/misc/lv_fs.c ****     }
 334:../../Middlewares/LVGL/GUI/lvgl/src/misc/lv_fs.c **** 
 335:../../Middlewares/LVGL/GUI/lvgl/src/misc/lv_fs.c ****     rddir_p->drv = drv;
 336:../../Middlewares/LVGL/GUI/lvgl/src/misc/lv_fs.c ****     rddir_p->dir_d = dir_d;
 337:../../Middlewares/LVGL/GUI/lvgl/src/misc/lv_fs.c **** 
 338:../../Middlewares/LVGL/GUI/lvgl/src/misc/lv_fs.c ****     LV_PROFILER_FS_END;
 339:../../Middlewares/LVGL/GUI/lvgl/src/misc/lv_fs.c **** 
 340:../../Middlewares/LVGL/GUI/lvgl/src/misc/lv_fs.c ****     return LV_FS_RES_OK;
 341:../../Middlewares/LVGL/GUI/lvgl/src/misc/lv_fs.c **** }
 342:../../Middlewares/LVGL/GUI/lvgl/src/misc/lv_fs.c **** 
 343:../../Middlewares/LVGL/GUI/lvgl/src/misc/lv_fs.c **** lv_fs_res_t lv_fs_dir_read(lv_fs_dir_t * rddir_p, char * fn, uint32_t fn_len)
 344:../../Middlewares/LVGL/GUI/lvgl/src/misc/lv_fs.c **** {
 345:../../Middlewares/LVGL/GUI/lvgl/src/misc/lv_fs.c ****     if(fn_len == 0) {
 346:../../Middlewares/LVGL/GUI/lvgl/src/misc/lv_fs.c ****         return LV_FS_RES_INV_PARAM;
 347:../../Middlewares/LVGL/GUI/lvgl/src/misc/lv_fs.c ****     }
 348:../../Middlewares/LVGL/GUI/lvgl/src/misc/lv_fs.c **** 
 349:../../Middlewares/LVGL/GUI/lvgl/src/misc/lv_fs.c ****     if(rddir_p->drv == NULL || rddir_p->dir_d == NULL) {
 350:../../Middlewares/LVGL/GUI/lvgl/src/misc/lv_fs.c ****         fn[0] = '\0';
 351:../../Middlewares/LVGL/GUI/lvgl/src/misc/lv_fs.c ****         return LV_FS_RES_INV_PARAM;
 352:../../Middlewares/LVGL/GUI/lvgl/src/misc/lv_fs.c ****     }
 353:../../Middlewares/LVGL/GUI/lvgl/src/misc/lv_fs.c **** 
 354:../../Middlewares/LVGL/GUI/lvgl/src/misc/lv_fs.c ****     if(rddir_p->drv->dir_read_cb == NULL) {
 355:../../Middlewares/LVGL/GUI/lvgl/src/misc/lv_fs.c ****         fn[0] = '\0';
 356:../../Middlewares/LVGL/GUI/lvgl/src/misc/lv_fs.c ****         return LV_FS_RES_NOT_IMP;
 357:../../Middlewares/LVGL/GUI/lvgl/src/misc/lv_fs.c ****     }
 358:../../Middlewares/LVGL/GUI/lvgl/src/misc/lv_fs.c **** 
 359:../../Middlewares/LVGL/GUI/lvgl/src/misc/lv_fs.c ****     LV_PROFILER_FS_BEGIN;
 360:../../Middlewares/LVGL/GUI/lvgl/src/misc/lv_fs.c **** 
 361:../../Middlewares/LVGL/GUI/lvgl/src/misc/lv_fs.c ****     lv_fs_res_t res = rddir_p->drv->dir_read_cb(rddir_p->drv, rddir_p->dir_d, fn, fn_len);
 362:../../Middlewares/LVGL/GUI/lvgl/src/misc/lv_fs.c **** 
 363:../../Middlewares/LVGL/GUI/lvgl/src/misc/lv_fs.c ****     LV_PROFILER_FS_END;
 364:../../Middlewares/LVGL/GUI/lvgl/src/misc/lv_fs.c **** 
 365:../../Middlewares/LVGL/GUI/lvgl/src/misc/lv_fs.c ****     return res;
 366:../../Middlewares/LVGL/GUI/lvgl/src/misc/lv_fs.c **** }
 367:../../Middlewares/LVGL/GUI/lvgl/src/misc/lv_fs.c **** 
 368:../../Middlewares/LVGL/GUI/lvgl/src/misc/lv_fs.c **** lv_fs_res_t lv_fs_dir_close(lv_fs_dir_t * rddir_p)
 369:../../Middlewares/LVGL/GUI/lvgl/src/misc/lv_fs.c **** {
 370:../../Middlewares/LVGL/GUI/lvgl/src/misc/lv_fs.c ****     if(rddir_p->drv == NULL || rddir_p->dir_d == NULL) {
 371:../../Middlewares/LVGL/GUI/lvgl/src/misc/lv_fs.c ****         return LV_FS_RES_INV_PARAM;
 372:../../Middlewares/LVGL/GUI/lvgl/src/misc/lv_fs.c ****     }
 373:../../Middlewares/LVGL/GUI/lvgl/src/misc/lv_fs.c **** 
ARM GAS  C:\Users\28576\AppData\Local\Temp\ccK3W8oA.s 			page 8


 374:../../Middlewares/LVGL/GUI/lvgl/src/misc/lv_fs.c ****     if(rddir_p->drv->dir_close_cb == NULL) {
 375:../../Middlewares/LVGL/GUI/lvgl/src/misc/lv_fs.c ****         return LV_FS_RES_NOT_IMP;
 376:../../Middlewares/LVGL/GUI/lvgl/src/misc/lv_fs.c ****     }
 377:../../Middlewares/LVGL/GUI/lvgl/src/misc/lv_fs.c **** 
 378:../../Middlewares/LVGL/GUI/lvgl/src/misc/lv_fs.c ****     LV_PROFILER_FS_BEGIN;
 379:../../Middlewares/LVGL/GUI/lvgl/src/misc/lv_fs.c **** 
 380:../../Middlewares/LVGL/GUI/lvgl/src/misc/lv_fs.c ****     lv_fs_res_t res = rddir_p->drv->dir_close_cb(rddir_p->drv, rddir_p->dir_d);
 381:../../Middlewares/LVGL/GUI/lvgl/src/misc/lv_fs.c **** 
 382:../../Middlewares/LVGL/GUI/lvgl/src/misc/lv_fs.c ****     rddir_p->dir_d = NULL;
 383:../../Middlewares/LVGL/GUI/lvgl/src/misc/lv_fs.c ****     rddir_p->drv   = NULL;
 384:../../Middlewares/LVGL/GUI/lvgl/src/misc/lv_fs.c **** 
 385:../../Middlewares/LVGL/GUI/lvgl/src/misc/lv_fs.c ****     LV_PROFILER_FS_END;
 386:../../Middlewares/LVGL/GUI/lvgl/src/misc/lv_fs.c **** 
 387:../../Middlewares/LVGL/GUI/lvgl/src/misc/lv_fs.c ****     return res;
 388:../../Middlewares/LVGL/GUI/lvgl/src/misc/lv_fs.c **** }
 389:../../Middlewares/LVGL/GUI/lvgl/src/misc/lv_fs.c **** 
 390:../../Middlewares/LVGL/GUI/lvgl/src/misc/lv_fs.c **** void lv_fs_drv_init(lv_fs_drv_t * drv)
 391:../../Middlewares/LVGL/GUI/lvgl/src/misc/lv_fs.c **** {
 392:../../Middlewares/LVGL/GUI/lvgl/src/misc/lv_fs.c ****     lv_memzero(drv, sizeof(lv_fs_drv_t));
 393:../../Middlewares/LVGL/GUI/lvgl/src/misc/lv_fs.c **** }
 394:../../Middlewares/LVGL/GUI/lvgl/src/misc/lv_fs.c **** 
 395:../../Middlewares/LVGL/GUI/lvgl/src/misc/lv_fs.c **** void lv_fs_drv_register(lv_fs_drv_t * drv_p)
 396:../../Middlewares/LVGL/GUI/lvgl/src/misc/lv_fs.c **** {
 397:../../Middlewares/LVGL/GUI/lvgl/src/misc/lv_fs.c ****     /*Save the new driver*/
 398:../../Middlewares/LVGL/GUI/lvgl/src/misc/lv_fs.c ****     lv_fs_drv_t ** new_drv;
 399:../../Middlewares/LVGL/GUI/lvgl/src/misc/lv_fs.c ****     new_drv = lv_ll_ins_head(fsdrv_ll_p);
 400:../../Middlewares/LVGL/GUI/lvgl/src/misc/lv_fs.c ****     LV_ASSERT_MALLOC(new_drv);
 401:../../Middlewares/LVGL/GUI/lvgl/src/misc/lv_fs.c ****     if(new_drv == NULL) return;
 402:../../Middlewares/LVGL/GUI/lvgl/src/misc/lv_fs.c **** 
 403:../../Middlewares/LVGL/GUI/lvgl/src/misc/lv_fs.c ****     *new_drv = drv_p;
 404:../../Middlewares/LVGL/GUI/lvgl/src/misc/lv_fs.c **** }
 405:../../Middlewares/LVGL/GUI/lvgl/src/misc/lv_fs.c **** 
 406:../../Middlewares/LVGL/GUI/lvgl/src/misc/lv_fs.c **** lv_fs_drv_t * lv_fs_get_drv(char letter)
 407:../../Middlewares/LVGL/GUI/lvgl/src/misc/lv_fs.c **** {
 408:../../Middlewares/LVGL/GUI/lvgl/src/misc/lv_fs.c ****     lv_fs_drv_t ** drv;
 409:../../Middlewares/LVGL/GUI/lvgl/src/misc/lv_fs.c **** 
 410:../../Middlewares/LVGL/GUI/lvgl/src/misc/lv_fs.c ****     LV_LL_READ(fsdrv_ll_p, drv) {
 411:../../Middlewares/LVGL/GUI/lvgl/src/misc/lv_fs.c ****         if((*drv)->letter == letter) {
 412:../../Middlewares/LVGL/GUI/lvgl/src/misc/lv_fs.c ****             return *drv;
 413:../../Middlewares/LVGL/GUI/lvgl/src/misc/lv_fs.c ****         }
 414:../../Middlewares/LVGL/GUI/lvgl/src/misc/lv_fs.c ****     }
 415:../../Middlewares/LVGL/GUI/lvgl/src/misc/lv_fs.c **** 
 416:../../Middlewares/LVGL/GUI/lvgl/src/misc/lv_fs.c ****     return NULL;
 417:../../Middlewares/LVGL/GUI/lvgl/src/misc/lv_fs.c **** }
 418:../../Middlewares/LVGL/GUI/lvgl/src/misc/lv_fs.c **** 
 419:../../Middlewares/LVGL/GUI/lvgl/src/misc/lv_fs.c **** char * lv_fs_get_letters(char * buf)
 420:../../Middlewares/LVGL/GUI/lvgl/src/misc/lv_fs.c **** {
 421:../../Middlewares/LVGL/GUI/lvgl/src/misc/lv_fs.c ****     lv_fs_drv_t ** drv;
 422:../../Middlewares/LVGL/GUI/lvgl/src/misc/lv_fs.c ****     uint8_t i = 0;
 423:../../Middlewares/LVGL/GUI/lvgl/src/misc/lv_fs.c **** 
 424:../../Middlewares/LVGL/GUI/lvgl/src/misc/lv_fs.c ****     LV_LL_READ(fsdrv_ll_p, drv) {
 425:../../Middlewares/LVGL/GUI/lvgl/src/misc/lv_fs.c ****         buf[i] = (*drv)->letter;
 426:../../Middlewares/LVGL/GUI/lvgl/src/misc/lv_fs.c ****         i++;
 427:../../Middlewares/LVGL/GUI/lvgl/src/misc/lv_fs.c ****     }
 428:../../Middlewares/LVGL/GUI/lvgl/src/misc/lv_fs.c **** 
 429:../../Middlewares/LVGL/GUI/lvgl/src/misc/lv_fs.c ****     buf[i] = '\0';
 430:../../Middlewares/LVGL/GUI/lvgl/src/misc/lv_fs.c **** 
ARM GAS  C:\Users\28576\AppData\Local\Temp\ccK3W8oA.s 			page 9


 431:../../Middlewares/LVGL/GUI/lvgl/src/misc/lv_fs.c ****     return buf;
 432:../../Middlewares/LVGL/GUI/lvgl/src/misc/lv_fs.c **** }
 433:../../Middlewares/LVGL/GUI/lvgl/src/misc/lv_fs.c **** 
 434:../../Middlewares/LVGL/GUI/lvgl/src/misc/lv_fs.c **** const char * lv_fs_get_ext(const char * fn)
 435:../../Middlewares/LVGL/GUI/lvgl/src/misc/lv_fs.c **** {
 436:../../Middlewares/LVGL/GUI/lvgl/src/misc/lv_fs.c ****     size_t i;
 437:../../Middlewares/LVGL/GUI/lvgl/src/misc/lv_fs.c ****     for(i = lv_strlen(fn); i > 0; i--) {
 438:../../Middlewares/LVGL/GUI/lvgl/src/misc/lv_fs.c ****         if(fn[i] == '.') {
 439:../../Middlewares/LVGL/GUI/lvgl/src/misc/lv_fs.c ****             return &fn[i + 1];
 440:../../Middlewares/LVGL/GUI/lvgl/src/misc/lv_fs.c ****         }
 441:../../Middlewares/LVGL/GUI/lvgl/src/misc/lv_fs.c ****         else if(fn[i] == '/' || fn[i] == '\\') {
 442:../../Middlewares/LVGL/GUI/lvgl/src/misc/lv_fs.c ****             return ""; /*No extension if a '\' or '/' found*/
 443:../../Middlewares/LVGL/GUI/lvgl/src/misc/lv_fs.c ****         }
 444:../../Middlewares/LVGL/GUI/lvgl/src/misc/lv_fs.c ****     }
 445:../../Middlewares/LVGL/GUI/lvgl/src/misc/lv_fs.c **** 
 446:../../Middlewares/LVGL/GUI/lvgl/src/misc/lv_fs.c ****     return ""; /*Empty string if no '.' in the file name.*/
 447:../../Middlewares/LVGL/GUI/lvgl/src/misc/lv_fs.c **** }
 448:../../Middlewares/LVGL/GUI/lvgl/src/misc/lv_fs.c **** 
 449:../../Middlewares/LVGL/GUI/lvgl/src/misc/lv_fs.c **** char * lv_fs_up(char * path)
 450:../../Middlewares/LVGL/GUI/lvgl/src/misc/lv_fs.c **** {
 451:../../Middlewares/LVGL/GUI/lvgl/src/misc/lv_fs.c ****     size_t len = lv_strlen(path);
 452:../../Middlewares/LVGL/GUI/lvgl/src/misc/lv_fs.c ****     if(len == 0) return path;
 453:../../Middlewares/LVGL/GUI/lvgl/src/misc/lv_fs.c **** 
 454:../../Middlewares/LVGL/GUI/lvgl/src/misc/lv_fs.c ****     len--; /*Go before the trailing '\0'*/
 455:../../Middlewares/LVGL/GUI/lvgl/src/misc/lv_fs.c **** 
 456:../../Middlewares/LVGL/GUI/lvgl/src/misc/lv_fs.c ****     /*Ignore trailing '/' or '\'*/
 457:../../Middlewares/LVGL/GUI/lvgl/src/misc/lv_fs.c ****     while(path[len] == '/' || path[len] == '\\') {
 458:../../Middlewares/LVGL/GUI/lvgl/src/misc/lv_fs.c ****         path[len] = '\0';
 459:../../Middlewares/LVGL/GUI/lvgl/src/misc/lv_fs.c ****         if(len > 0)
 460:../../Middlewares/LVGL/GUI/lvgl/src/misc/lv_fs.c ****             len--;
 461:../../Middlewares/LVGL/GUI/lvgl/src/misc/lv_fs.c ****         else
 462:../../Middlewares/LVGL/GUI/lvgl/src/misc/lv_fs.c ****             return path;
 463:../../Middlewares/LVGL/GUI/lvgl/src/misc/lv_fs.c ****     }
 464:../../Middlewares/LVGL/GUI/lvgl/src/misc/lv_fs.c **** 
 465:../../Middlewares/LVGL/GUI/lvgl/src/misc/lv_fs.c ****     size_t i;
 466:../../Middlewares/LVGL/GUI/lvgl/src/misc/lv_fs.c ****     for(i = len; i > 0; i--) {
 467:../../Middlewares/LVGL/GUI/lvgl/src/misc/lv_fs.c ****         if(path[i] == '/' || path[i] == '\\') break;
 468:../../Middlewares/LVGL/GUI/lvgl/src/misc/lv_fs.c ****     }
 469:../../Middlewares/LVGL/GUI/lvgl/src/misc/lv_fs.c **** 
 470:../../Middlewares/LVGL/GUI/lvgl/src/misc/lv_fs.c ****     if(i > 0) path[i] = '\0';
 471:../../Middlewares/LVGL/GUI/lvgl/src/misc/lv_fs.c **** 
 472:../../Middlewares/LVGL/GUI/lvgl/src/misc/lv_fs.c ****     return path;
 473:../../Middlewares/LVGL/GUI/lvgl/src/misc/lv_fs.c **** }
 474:../../Middlewares/LVGL/GUI/lvgl/src/misc/lv_fs.c **** 
 475:../../Middlewares/LVGL/GUI/lvgl/src/misc/lv_fs.c **** const char * lv_fs_get_last(const char * path)
 476:../../Middlewares/LVGL/GUI/lvgl/src/misc/lv_fs.c **** {
 477:../../Middlewares/LVGL/GUI/lvgl/src/misc/lv_fs.c ****     size_t len = lv_strlen(path);
 478:../../Middlewares/LVGL/GUI/lvgl/src/misc/lv_fs.c ****     if(len == 0) return path;
 479:../../Middlewares/LVGL/GUI/lvgl/src/misc/lv_fs.c **** 
 480:../../Middlewares/LVGL/GUI/lvgl/src/misc/lv_fs.c ****     len--; /*Go before the trailing '\0'*/
 481:../../Middlewares/LVGL/GUI/lvgl/src/misc/lv_fs.c **** 
 482:../../Middlewares/LVGL/GUI/lvgl/src/misc/lv_fs.c ****     /*Ignore trailing '/' or '\'*/
 483:../../Middlewares/LVGL/GUI/lvgl/src/misc/lv_fs.c ****     while(path[len] == '/' || path[len] == '\\') {
 484:../../Middlewares/LVGL/GUI/lvgl/src/misc/lv_fs.c ****         if(len > 0)
 485:../../Middlewares/LVGL/GUI/lvgl/src/misc/lv_fs.c ****             len--;
 486:../../Middlewares/LVGL/GUI/lvgl/src/misc/lv_fs.c ****         else
 487:../../Middlewares/LVGL/GUI/lvgl/src/misc/lv_fs.c ****             return path;
ARM GAS  C:\Users\28576\AppData\Local\Temp\ccK3W8oA.s 			page 10


 488:../../Middlewares/LVGL/GUI/lvgl/src/misc/lv_fs.c ****     }
 489:../../Middlewares/LVGL/GUI/lvgl/src/misc/lv_fs.c **** 
 490:../../Middlewares/LVGL/GUI/lvgl/src/misc/lv_fs.c ****     size_t i;
 491:../../Middlewares/LVGL/GUI/lvgl/src/misc/lv_fs.c ****     for(i = len; i > 0; i--) {
 492:../../Middlewares/LVGL/GUI/lvgl/src/misc/lv_fs.c ****         if(path[i] == '/' || path[i] == '\\') break;
 493:../../Middlewares/LVGL/GUI/lvgl/src/misc/lv_fs.c ****     }
 494:../../Middlewares/LVGL/GUI/lvgl/src/misc/lv_fs.c **** 
 495:../../Middlewares/LVGL/GUI/lvgl/src/misc/lv_fs.c ****     /*No '/' or '\' in the path so return with path itself*/
 496:../../Middlewares/LVGL/GUI/lvgl/src/misc/lv_fs.c ****     if(i == 0) return path;
 497:../../Middlewares/LVGL/GUI/lvgl/src/misc/lv_fs.c **** 
 498:../../Middlewares/LVGL/GUI/lvgl/src/misc/lv_fs.c ****     return &path[i + 1];
 499:../../Middlewares/LVGL/GUI/lvgl/src/misc/lv_fs.c **** }
 500:../../Middlewares/LVGL/GUI/lvgl/src/misc/lv_fs.c **** /**********************
 501:../../Middlewares/LVGL/GUI/lvgl/src/misc/lv_fs.c ****  *   STATIC FUNCTIONS
 502:../../Middlewares/LVGL/GUI/lvgl/src/misc/lv_fs.c ****  **********************/
 503:../../Middlewares/LVGL/GUI/lvgl/src/misc/lv_fs.c **** 
 504:../../Middlewares/LVGL/GUI/lvgl/src/misc/lv_fs.c **** /**
 505:../../Middlewares/LVGL/GUI/lvgl/src/misc/lv_fs.c ****  * Extract the drive letter and the real path from LVGL's "abstracted file system" path string
 506:../../Middlewares/LVGL/GUI/lvgl/src/misc/lv_fs.c ****  * @param path path string (E.g. S:/folder/file.txt)
 507:../../Middlewares/LVGL/GUI/lvgl/src/misc/lv_fs.c ****  */
 508:../../Middlewares/LVGL/GUI/lvgl/src/misc/lv_fs.c **** static resolved_path_t lv_fs_resolve_path(const char * path)
 509:../../Middlewares/LVGL/GUI/lvgl/src/misc/lv_fs.c **** {
  28              		.loc 1 509 1 view -0
  29              		.cfi_startproc
  30              		@ args = 0, pretend = 0, frame = 0
  31              		@ frame_needed = 0, uses_anonymous_args = 0
  32              		@ link register save eliminated.
 510:../../Middlewares/LVGL/GUI/lvgl/src/misc/lv_fs.c ****     resolved_path_t resolved;
  33              		.loc 1 510 5 view .LVU1
 511:../../Middlewares/LVGL/GUI/lvgl/src/misc/lv_fs.c **** 
 512:../../Middlewares/LVGL/GUI/lvgl/src/misc/lv_fs.c **** #if LV_FS_DEFAULT_DRIVER_LETTER != '\0' /* When using default driver-identifier letter, strict form
 513:../../Middlewares/LVGL/GUI/lvgl/src/misc/lv_fs.c ****     bool has_drive_prefix = ('A' <= path[0]) && (path[0] <= 'Z') && (path[1] == ':');
 514:../../Middlewares/LVGL/GUI/lvgl/src/misc/lv_fs.c **** 
 515:../../Middlewares/LVGL/GUI/lvgl/src/misc/lv_fs.c ****     if(has_drive_prefix) {
 516:../../Middlewares/LVGL/GUI/lvgl/src/misc/lv_fs.c ****         resolved.driver_letter = path[0];
 517:../../Middlewares/LVGL/GUI/lvgl/src/misc/lv_fs.c ****         resolved.real_path = path + 2;
 518:../../Middlewares/LVGL/GUI/lvgl/src/misc/lv_fs.c ****     }
 519:../../Middlewares/LVGL/GUI/lvgl/src/misc/lv_fs.c ****     else {
 520:../../Middlewares/LVGL/GUI/lvgl/src/misc/lv_fs.c ****         resolved.driver_letter = LV_FS_DEFAULT_DRIVER_LETTER;
 521:../../Middlewares/LVGL/GUI/lvgl/src/misc/lv_fs.c ****         resolved.real_path = path;
 522:../../Middlewares/LVGL/GUI/lvgl/src/misc/lv_fs.c ****     }
 523:../../Middlewares/LVGL/GUI/lvgl/src/misc/lv_fs.c **** # else /*Lean rules for backward compatibility*/
 524:../../Middlewares/LVGL/GUI/lvgl/src/misc/lv_fs.c ****     resolved.driver_letter = path[0];
  34              		.loc 1 524 5 view .LVU2
  35              		.loc 1 524 34 is_stmt 0 view .LVU3
  36 0000 0B78     		ldrb	r3, [r1]	@ zero_extendqisi2
  37              		.loc 1 524 28 view .LVU4
  38 0002 0370     		strb	r3, [r0]
 525:../../Middlewares/LVGL/GUI/lvgl/src/misc/lv_fs.c **** 
 526:../../Middlewares/LVGL/GUI/lvgl/src/misc/lv_fs.c ****     if(*path != '\0') {
  39              		.loc 1 526 5 is_stmt 1 view .LVU5
  40              		.loc 1 526 7 is_stmt 0 view .LVU6
  41 0004 23B1     		cbz	r3, .L2
 527:../../Middlewares/LVGL/GUI/lvgl/src/misc/lv_fs.c ****         path++; /*Ignore the driver letter*/
  42              		.loc 1 527 9 is_stmt 1 view .LVU7
  43              		.loc 1 527 13 is_stmt 0 view .LVU8
  44 0006 4A1C     		adds	r2, r1, #1
ARM GAS  C:\Users\28576\AppData\Local\Temp\ccK3W8oA.s 			page 11


  45              	.LVL1:
 528:../../Middlewares/LVGL/GUI/lvgl/src/misc/lv_fs.c ****         if(*path == ':') path++;
  46              		.loc 1 528 9 is_stmt 1 view .LVU9
  47              		.loc 1 528 12 is_stmt 0 view .LVU10
  48 0008 4B78     		ldrb	r3, [r1, #1]	@ zero_extendqisi2
  49              		.loc 1 528 11 view .LVU11
  50 000a 3A2B     		cmp	r3, #58
  51 000c 02D0     		beq	.L4
 527:../../Middlewares/LVGL/GUI/lvgl/src/misc/lv_fs.c ****         path++; /*Ignore the driver letter*/
  52              		.loc 1 527 13 view .LVU12
  53 000e 1146     		mov	r1, r2
  54              	.LVL2:
  55              	.L2:
 529:../../Middlewares/LVGL/GUI/lvgl/src/misc/lv_fs.c ****     }
 530:../../Middlewares/LVGL/GUI/lvgl/src/misc/lv_fs.c **** 
 531:../../Middlewares/LVGL/GUI/lvgl/src/misc/lv_fs.c ****     resolved.real_path = path;
  56              		.loc 1 531 5 is_stmt 1 view .LVU13
  57              		.loc 1 531 24 is_stmt 0 view .LVU14
  58 0010 4160     		str	r1, [r0, #4]
 532:../../Middlewares/LVGL/GUI/lvgl/src/misc/lv_fs.c **** #endif
 533:../../Middlewares/LVGL/GUI/lvgl/src/misc/lv_fs.c **** 
 534:../../Middlewares/LVGL/GUI/lvgl/src/misc/lv_fs.c ****     return resolved;
  59              		.loc 1 534 5 is_stmt 1 view .LVU15
 535:../../Middlewares/LVGL/GUI/lvgl/src/misc/lv_fs.c **** }
  60              		.loc 1 535 1 is_stmt 0 view .LVU16
  61 0012 7047     		bx	lr
  62              	.LVL3:
  63              	.L4:
 528:../../Middlewares/LVGL/GUI/lvgl/src/misc/lv_fs.c ****     }
  64              		.loc 1 528 26 is_stmt 1 discriminator 1 view .LVU17
 528:../../Middlewares/LVGL/GUI/lvgl/src/misc/lv_fs.c ****     }
  65              		.loc 1 528 30 is_stmt 0 discriminator 1 view .LVU18
  66 0014 0231     		adds	r1, r1, #2
  67              	.LVL4:
 528:../../Middlewares/LVGL/GUI/lvgl/src/misc/lv_fs.c ****     }
  68              		.loc 1 528 30 discriminator 1 view .LVU19
  69 0016 FBE7     		b	.L2
  70              		.cfi_endproc
  71              	.LFE207:
  73              		.section	.text.lv_fs_seek_cached,"ax",%progbits
  74              		.align	1
  75              		.syntax unified
  76              		.thumb
  77              		.thumb_func
  79              	lv_fs_seek_cached:
  80              	.LVL5:
  81              	.LFB210:
 536:../../Middlewares/LVGL/GUI/lvgl/src/misc/lv_fs.c **** 
 537:../../Middlewares/LVGL/GUI/lvgl/src/misc/lv_fs.c **** static lv_fs_res_t lv_fs_read_cached(lv_fs_file_t * file_p, void * buf, uint32_t btr, uint32_t * br
 538:../../Middlewares/LVGL/GUI/lvgl/src/misc/lv_fs.c **** {
 539:../../Middlewares/LVGL/GUI/lvgl/src/misc/lv_fs.c ****     lv_fs_res_t res = LV_FS_RES_OK;
 540:../../Middlewares/LVGL/GUI/lvgl/src/misc/lv_fs.c ****     uint32_t file_position = file_p->cache->file_position;
 541:../../Middlewares/LVGL/GUI/lvgl/src/misc/lv_fs.c ****     uint32_t start = file_p->cache->start;
 542:../../Middlewares/LVGL/GUI/lvgl/src/misc/lv_fs.c ****     uint32_t end = file_p->cache->end;
 543:../../Middlewares/LVGL/GUI/lvgl/src/misc/lv_fs.c ****     char * buffer = file_p->cache->buffer;
 544:../../Middlewares/LVGL/GUI/lvgl/src/misc/lv_fs.c ****     uint32_t buffer_size = file_p->drv->cache_size;
 545:../../Middlewares/LVGL/GUI/lvgl/src/misc/lv_fs.c **** 
ARM GAS  C:\Users\28576\AppData\Local\Temp\ccK3W8oA.s 			page 12


 546:../../Middlewares/LVGL/GUI/lvgl/src/misc/lv_fs.c ****     if(start <= file_position && file_position <= end) {
 547:../../Middlewares/LVGL/GUI/lvgl/src/misc/lv_fs.c ****         /* Data can be read from cache buffer */
 548:../../Middlewares/LVGL/GUI/lvgl/src/misc/lv_fs.c ****         uint32_t buffer_remaining_length = (uint32_t)end - file_position + 1;
 549:../../Middlewares/LVGL/GUI/lvgl/src/misc/lv_fs.c ****         uint32_t buffer_offset = (end - start) - buffer_remaining_length + 1;
 550:../../Middlewares/LVGL/GUI/lvgl/src/misc/lv_fs.c **** 
 551:../../Middlewares/LVGL/GUI/lvgl/src/misc/lv_fs.c ****         /* Do not allow reading beyond the actual memory block for memory-mapped files */
 552:../../Middlewares/LVGL/GUI/lvgl/src/misc/lv_fs.c ****         if(file_p->drv->cache_size == LV_FS_CACHE_FROM_BUFFER) {
 553:../../Middlewares/LVGL/GUI/lvgl/src/misc/lv_fs.c ****             if(btr > buffer_remaining_length)
 554:../../Middlewares/LVGL/GUI/lvgl/src/misc/lv_fs.c ****                 btr = buffer_remaining_length - 1;
 555:../../Middlewares/LVGL/GUI/lvgl/src/misc/lv_fs.c ****         }
 556:../../Middlewares/LVGL/GUI/lvgl/src/misc/lv_fs.c **** 
 557:../../Middlewares/LVGL/GUI/lvgl/src/misc/lv_fs.c ****         if(btr <= buffer_remaining_length) {
 558:../../Middlewares/LVGL/GUI/lvgl/src/misc/lv_fs.c ****             /*Data is in cache buffer, and buffer end not reached, no need to read from FS*/
 559:../../Middlewares/LVGL/GUI/lvgl/src/misc/lv_fs.c ****             lv_memcpy(buf, buffer + buffer_offset, btr);
 560:../../Middlewares/LVGL/GUI/lvgl/src/misc/lv_fs.c ****             *br = btr;
 561:../../Middlewares/LVGL/GUI/lvgl/src/misc/lv_fs.c ****         }
 562:../../Middlewares/LVGL/GUI/lvgl/src/misc/lv_fs.c ****         else {
 563:../../Middlewares/LVGL/GUI/lvgl/src/misc/lv_fs.c ****             /*First part of data is in cache buffer, but we need to read rest of data from FS*/
 564:../../Middlewares/LVGL/GUI/lvgl/src/misc/lv_fs.c ****             lv_memcpy(buf, buffer + buffer_offset, buffer_remaining_length);
 565:../../Middlewares/LVGL/GUI/lvgl/src/misc/lv_fs.c **** 
 566:../../Middlewares/LVGL/GUI/lvgl/src/misc/lv_fs.c ****             file_p->drv->seek_cb(file_p->drv, file_p->file_d, file_p->cache->end + 1,
 567:../../Middlewares/LVGL/GUI/lvgl/src/misc/lv_fs.c ****                                  LV_FS_SEEK_SET);
 568:../../Middlewares/LVGL/GUI/lvgl/src/misc/lv_fs.c **** 
 569:../../Middlewares/LVGL/GUI/lvgl/src/misc/lv_fs.c ****             uint32_t bytes_read_to_buffer = 0;
 570:../../Middlewares/LVGL/GUI/lvgl/src/misc/lv_fs.c ****             if(btr - buffer_remaining_length > buffer_size) {
 571:../../Middlewares/LVGL/GUI/lvgl/src/misc/lv_fs.c ****                 /*If remaining data chuck is bigger than buffer size, then do not use cache, instea
 572:../../Middlewares/LVGL/GUI/lvgl/src/misc/lv_fs.c ****                 res = file_p->drv->read_cb(file_p->drv, file_p->file_d, (char *)buf + buffer_remain
 573:../../Middlewares/LVGL/GUI/lvgl/src/misc/lv_fs.c ****                                            btr - buffer_remaining_length, &bytes_read_to_buffer);
 574:../../Middlewares/LVGL/GUI/lvgl/src/misc/lv_fs.c ****             }
 575:../../Middlewares/LVGL/GUI/lvgl/src/misc/lv_fs.c ****             else {
 576:../../Middlewares/LVGL/GUI/lvgl/src/misc/lv_fs.c ****                 /*If remaining data chunk is smaller than buffer size, then read into cache buffer*
 577:../../Middlewares/LVGL/GUI/lvgl/src/misc/lv_fs.c ****                 res = file_p->drv->read_cb(file_p->drv, file_p->file_d, buffer, buffer_size, &bytes
 578:../../Middlewares/LVGL/GUI/lvgl/src/misc/lv_fs.c ****                 file_p->cache->start = file_p->cache->end + 1;
 579:../../Middlewares/LVGL/GUI/lvgl/src/misc/lv_fs.c ****                 file_p->cache->end = file_p->cache->start + bytes_read_to_buffer - 1;
 580:../../Middlewares/LVGL/GUI/lvgl/src/misc/lv_fs.c **** 
 581:../../Middlewares/LVGL/GUI/lvgl/src/misc/lv_fs.c ****                 uint16_t data_chunk_remaining = LV_MIN(btr - buffer_remaining_length, bytes_read_to
 582:../../Middlewares/LVGL/GUI/lvgl/src/misc/lv_fs.c ****                 lv_memcpy((char *)buf + buffer_remaining_length, buffer, data_chunk_remaining);
 583:../../Middlewares/LVGL/GUI/lvgl/src/misc/lv_fs.c ****             }
 584:../../Middlewares/LVGL/GUI/lvgl/src/misc/lv_fs.c ****             *br = LV_MIN(buffer_remaining_length + bytes_read_to_buffer, btr);
 585:../../Middlewares/LVGL/GUI/lvgl/src/misc/lv_fs.c ****         }
 586:../../Middlewares/LVGL/GUI/lvgl/src/misc/lv_fs.c ****     }
 587:../../Middlewares/LVGL/GUI/lvgl/src/misc/lv_fs.c ****     else {
 588:../../Middlewares/LVGL/GUI/lvgl/src/misc/lv_fs.c ****         file_p->drv->seek_cb(file_p->drv, file_p->file_d, file_p->cache->file_position,
 589:../../Middlewares/LVGL/GUI/lvgl/src/misc/lv_fs.c ****                              LV_FS_SEEK_SET);
 590:../../Middlewares/LVGL/GUI/lvgl/src/misc/lv_fs.c **** 
 591:../../Middlewares/LVGL/GUI/lvgl/src/misc/lv_fs.c ****         /*Data is not in cache buffer*/
 592:../../Middlewares/LVGL/GUI/lvgl/src/misc/lv_fs.c ****         if(btr > buffer_size) {
 593:../../Middlewares/LVGL/GUI/lvgl/src/misc/lv_fs.c ****             /*If bigger data is requested, then do not use cache, instead read it directly*/
 594:../../Middlewares/LVGL/GUI/lvgl/src/misc/lv_fs.c ****             res = file_p->drv->read_cb(file_p->drv, file_p->file_d, (void *)buf, btr, br);
 595:../../Middlewares/LVGL/GUI/lvgl/src/misc/lv_fs.c ****         }
 596:../../Middlewares/LVGL/GUI/lvgl/src/misc/lv_fs.c ****         else {
 597:../../Middlewares/LVGL/GUI/lvgl/src/misc/lv_fs.c ****             /*If small data is requested, then read from FS into cache buffer*/
 598:../../Middlewares/LVGL/GUI/lvgl/src/misc/lv_fs.c ****             if(buffer == NULL) {
 599:../../Middlewares/LVGL/GUI/lvgl/src/misc/lv_fs.c ****                 file_p->cache->buffer = lv_malloc(buffer_size);
 600:../../Middlewares/LVGL/GUI/lvgl/src/misc/lv_fs.c ****                 LV_ASSERT_MALLOC(file_p->cache->buffer);
 601:../../Middlewares/LVGL/GUI/lvgl/src/misc/lv_fs.c ****                 buffer = file_p->cache->buffer;
 602:../../Middlewares/LVGL/GUI/lvgl/src/misc/lv_fs.c ****             }
ARM GAS  C:\Users\28576\AppData\Local\Temp\ccK3W8oA.s 			page 13


 603:../../Middlewares/LVGL/GUI/lvgl/src/misc/lv_fs.c **** 
 604:../../Middlewares/LVGL/GUI/lvgl/src/misc/lv_fs.c ****             uint32_t bytes_read_to_buffer = 0;
 605:../../Middlewares/LVGL/GUI/lvgl/src/misc/lv_fs.c ****             res = file_p->drv->read_cb(file_p->drv, file_p->file_d, (void *)buffer, buffer_size, &b
 606:../../Middlewares/LVGL/GUI/lvgl/src/misc/lv_fs.c ****             file_p->cache->start = file_position;
 607:../../Middlewares/LVGL/GUI/lvgl/src/misc/lv_fs.c ****             file_p->cache->end = file_p->cache->start + bytes_read_to_buffer - 1;
 608:../../Middlewares/LVGL/GUI/lvgl/src/misc/lv_fs.c **** 
 609:../../Middlewares/LVGL/GUI/lvgl/src/misc/lv_fs.c ****             *br = LV_MIN(btr, bytes_read_to_buffer);
 610:../../Middlewares/LVGL/GUI/lvgl/src/misc/lv_fs.c ****             lv_memcpy(buf, buffer, *br);
 611:../../Middlewares/LVGL/GUI/lvgl/src/misc/lv_fs.c **** 
 612:../../Middlewares/LVGL/GUI/lvgl/src/misc/lv_fs.c ****         }
 613:../../Middlewares/LVGL/GUI/lvgl/src/misc/lv_fs.c ****     }
 614:../../Middlewares/LVGL/GUI/lvgl/src/misc/lv_fs.c **** 
 615:../../Middlewares/LVGL/GUI/lvgl/src/misc/lv_fs.c ****     if(res == LV_FS_RES_OK) {
 616:../../Middlewares/LVGL/GUI/lvgl/src/misc/lv_fs.c ****         file_p->cache->file_position += *br;
 617:../../Middlewares/LVGL/GUI/lvgl/src/misc/lv_fs.c ****     }
 618:../../Middlewares/LVGL/GUI/lvgl/src/misc/lv_fs.c **** 
 619:../../Middlewares/LVGL/GUI/lvgl/src/misc/lv_fs.c ****     return res;
 620:../../Middlewares/LVGL/GUI/lvgl/src/misc/lv_fs.c **** }
 621:../../Middlewares/LVGL/GUI/lvgl/src/misc/lv_fs.c **** 
 622:../../Middlewares/LVGL/GUI/lvgl/src/misc/lv_fs.c **** static lv_fs_res_t lv_fs_write_cached(lv_fs_file_t * file_p, const void * buf, uint32_t btw, uint32
 623:../../Middlewares/LVGL/GUI/lvgl/src/misc/lv_fs.c **** {
 624:../../Middlewares/LVGL/GUI/lvgl/src/misc/lv_fs.c ****     lv_fs_res_t res = LV_FS_RES_OK;
 625:../../Middlewares/LVGL/GUI/lvgl/src/misc/lv_fs.c **** 
 626:../../Middlewares/LVGL/GUI/lvgl/src/misc/lv_fs.c ****     /*Need to do FS seek before writing data to FS*/
 627:../../Middlewares/LVGL/GUI/lvgl/src/misc/lv_fs.c ****     res = file_p->drv->seek_cb(file_p->drv, file_p->file_d, file_p->cache->file_position, LV_FS_SEE
 628:../../Middlewares/LVGL/GUI/lvgl/src/misc/lv_fs.c ****     if(res != LV_FS_RES_OK) return res;
 629:../../Middlewares/LVGL/GUI/lvgl/src/misc/lv_fs.c **** 
 630:../../Middlewares/LVGL/GUI/lvgl/src/misc/lv_fs.c ****     res = file_p->drv->write_cb(file_p->drv, file_p->file_d, buf, btw, bw);
 631:../../Middlewares/LVGL/GUI/lvgl/src/misc/lv_fs.c ****     if(res != LV_FS_RES_OK) return res;
 632:../../Middlewares/LVGL/GUI/lvgl/src/misc/lv_fs.c **** 
 633:../../Middlewares/LVGL/GUI/lvgl/src/misc/lv_fs.c ****     if(file_p->cache->end >= file_p->cache->start) {
 634:../../Middlewares/LVGL/GUI/lvgl/src/misc/lv_fs.c ****         uint32_t start_position = file_p->cache->file_position;
 635:../../Middlewares/LVGL/GUI/lvgl/src/misc/lv_fs.c ****         uint32_t end_position = file_p->cache->file_position + *bw - 1;
 636:../../Middlewares/LVGL/GUI/lvgl/src/misc/lv_fs.c ****         char * cache_buffer = file_p->cache->buffer;
 637:../../Middlewares/LVGL/GUI/lvgl/src/misc/lv_fs.c ****         const char * write_buffer = buf;
 638:../../Middlewares/LVGL/GUI/lvgl/src/misc/lv_fs.c **** 
 639:../../Middlewares/LVGL/GUI/lvgl/src/misc/lv_fs.c ****         if(start_position <= file_p->cache->start && end_position >= file_p->cache->end) {
 640:../../Middlewares/LVGL/GUI/lvgl/src/misc/lv_fs.c ****             lv_memcpy(cache_buffer,
 641:../../Middlewares/LVGL/GUI/lvgl/src/misc/lv_fs.c ****                       write_buffer + (file_p->cache->start - start_position),
 642:../../Middlewares/LVGL/GUI/lvgl/src/misc/lv_fs.c ****                       file_p->cache->end + 1 - file_p->cache->start);
 643:../../Middlewares/LVGL/GUI/lvgl/src/misc/lv_fs.c ****         }
 644:../../Middlewares/LVGL/GUI/lvgl/src/misc/lv_fs.c ****         else if(start_position >= file_p->cache->start && end_position <= file_p->cache->end) {
 645:../../Middlewares/LVGL/GUI/lvgl/src/misc/lv_fs.c ****             lv_memcpy(cache_buffer + (start_position - file_p->cache->start),
 646:../../Middlewares/LVGL/GUI/lvgl/src/misc/lv_fs.c ****                       write_buffer,
 647:../../Middlewares/LVGL/GUI/lvgl/src/misc/lv_fs.c ****                       end_position + 1 - start_position);
 648:../../Middlewares/LVGL/GUI/lvgl/src/misc/lv_fs.c ****         }
 649:../../Middlewares/LVGL/GUI/lvgl/src/misc/lv_fs.c ****         else if(end_position >= file_p->cache->start && end_position <= file_p->cache->end) {
 650:../../Middlewares/LVGL/GUI/lvgl/src/misc/lv_fs.c ****             lv_memcpy(cache_buffer,
 651:../../Middlewares/LVGL/GUI/lvgl/src/misc/lv_fs.c ****                       write_buffer + (file_p->cache->start - start_position),
 652:../../Middlewares/LVGL/GUI/lvgl/src/misc/lv_fs.c ****                       end_position + 1 - file_p->cache->start);
 653:../../Middlewares/LVGL/GUI/lvgl/src/misc/lv_fs.c ****         }
 654:../../Middlewares/LVGL/GUI/lvgl/src/misc/lv_fs.c ****         else if(start_position >= file_p->cache->start && start_position <= file_p->cache->end) {
 655:../../Middlewares/LVGL/GUI/lvgl/src/misc/lv_fs.c ****             lv_memcpy(cache_buffer + (start_position - file_p->cache->start),
 656:../../Middlewares/LVGL/GUI/lvgl/src/misc/lv_fs.c ****                       write_buffer,
 657:../../Middlewares/LVGL/GUI/lvgl/src/misc/lv_fs.c ****                       file_p->cache->end + 1 - start_position);
 658:../../Middlewares/LVGL/GUI/lvgl/src/misc/lv_fs.c ****         }
 659:../../Middlewares/LVGL/GUI/lvgl/src/misc/lv_fs.c ****     }
ARM GAS  C:\Users\28576\AppData\Local\Temp\ccK3W8oA.s 			page 14


 660:../../Middlewares/LVGL/GUI/lvgl/src/misc/lv_fs.c **** 
 661:../../Middlewares/LVGL/GUI/lvgl/src/misc/lv_fs.c ****     file_p->cache->file_position += *bw;
 662:../../Middlewares/LVGL/GUI/lvgl/src/misc/lv_fs.c **** 
 663:../../Middlewares/LVGL/GUI/lvgl/src/misc/lv_fs.c ****     return res;
 664:../../Middlewares/LVGL/GUI/lvgl/src/misc/lv_fs.c **** }
 665:../../Middlewares/LVGL/GUI/lvgl/src/misc/lv_fs.c **** 
 666:../../Middlewares/LVGL/GUI/lvgl/src/misc/lv_fs.c **** static lv_fs_res_t lv_fs_seek_cached(lv_fs_file_t * file_p, uint32_t pos, lv_fs_whence_t whence)
 667:../../Middlewares/LVGL/GUI/lvgl/src/misc/lv_fs.c **** {
  82              		.loc 1 667 1 is_stmt 1 view -0
  83              		.cfi_startproc
  84              		@ args = 0, pretend = 0, frame = 8
  85              		@ frame_needed = 0, uses_anonymous_args = 0
 668:../../Middlewares/LVGL/GUI/lvgl/src/misc/lv_fs.c ****     lv_fs_res_t res = LV_FS_RES_OK;
  86              		.loc 1 668 5 view .LVU21
 669:../../Middlewares/LVGL/GUI/lvgl/src/misc/lv_fs.c ****     switch(whence) {
  87              		.loc 1 669 5 view .LVU22
  88 0000 012A     		cmp	r2, #1
  89 0002 07D0     		beq	.L6
  90 0004 1346     		mov	r3, r2
  91 0006 022A     		cmp	r2, #2
  92 0008 0AD0     		beq	.L7
  93 000a EAB9     		cbnz	r2, .L10
 670:../../Middlewares/LVGL/GUI/lvgl/src/misc/lv_fs.c ****         case LV_FS_SEEK_SET: {
 671:../../Middlewares/LVGL/GUI/lvgl/src/misc/lv_fs.c ****                 file_p->cache->file_position = pos;
  94              		.loc 1 671 17 view .LVU23
  95              		.loc 1 671 23 is_stmt 0 view .LVU24
  96 000c 8268     		ldr	r2, [r0, #8]
  97              	.LVL6:
  98              		.loc 1 671 46 view .LVU25
  99 000e 9160     		str	r1, [r2, #8]
 672:../../Middlewares/LVGL/GUI/lvgl/src/misc/lv_fs.c ****                 break;
 100              		.loc 1 672 17 is_stmt 1 view .LVU26
 668:../../Middlewares/LVGL/GUI/lvgl/src/misc/lv_fs.c ****     switch(whence) {
 101              		.loc 1 668 17 is_stmt 0 view .LVU27
 102 0010 1846     		mov	r0, r3
 103              	.LVL7:
 104              		.loc 1 672 17 view .LVU28
 105 0012 7047     		bx	lr
 106              	.LVL8:
 107              	.L6:
 673:../../Middlewares/LVGL/GUI/lvgl/src/misc/lv_fs.c ****             }
 674:../../Middlewares/LVGL/GUI/lvgl/src/misc/lv_fs.c ****         case LV_FS_SEEK_CUR: {
 675:../../Middlewares/LVGL/GUI/lvgl/src/misc/lv_fs.c ****                 file_p->cache->file_position += pos;
 108              		.loc 1 675 17 is_stmt 1 view .LVU29
 109              		.loc 1 675 23 is_stmt 0 view .LVU30
 110 0014 8268     		ldr	r2, [r0, #8]
 111              	.LVL9:
 112              		.loc 1 675 30 view .LVU31
 113 0016 9368     		ldr	r3, [r2, #8]
 114              		.loc 1 675 46 view .LVU32
 115 0018 0B44     		add	r3, r3, r1
 116 001a 9360     		str	r3, [r2, #8]
 676:../../Middlewares/LVGL/GUI/lvgl/src/misc/lv_fs.c ****                 break;
 117              		.loc 1 676 17 is_stmt 1 view .LVU33
 668:../../Middlewares/LVGL/GUI/lvgl/src/misc/lv_fs.c ****     switch(whence) {
 118              		.loc 1 668 17 is_stmt 0 view .LVU34
 119 001c 0020     		movs	r0, #0
ARM GAS  C:\Users\28576\AppData\Local\Temp\ccK3W8oA.s 			page 15


 120              	.LVL10:
 121              		.loc 1 676 17 view .LVU35
 122 001e 7047     		bx	lr
 123              	.LVL11:
 124              	.L7:
 667:../../Middlewares/LVGL/GUI/lvgl/src/misc/lv_fs.c ****     lv_fs_res_t res = LV_FS_RES_OK;
 125              		.loc 1 667 1 view .LVU36
 126 0020 30B5     		push	{r4, r5, lr}
 127              	.LCFI0:
 128              		.cfi_def_cfa_offset 12
 129              		.cfi_offset 4, -12
 130              		.cfi_offset 5, -8
 131              		.cfi_offset 14, -4
 132 0022 83B0     		sub	sp, sp, #12
 133              	.LCFI1:
 134              		.cfi_def_cfa_offset 24
 677:../../Middlewares/LVGL/GUI/lvgl/src/misc/lv_fs.c ****             }
 678:../../Middlewares/LVGL/GUI/lvgl/src/misc/lv_fs.c ****         case LV_FS_SEEK_END: {
 679:../../Middlewares/LVGL/GUI/lvgl/src/misc/lv_fs.c ****                 /*Because we don't know the file size, we do a little trick: do a FS seek, then get
 680:../../Middlewares/LVGL/GUI/lvgl/src/misc/lv_fs.c ****                 res = file_p->drv->seek_cb(file_p->drv, file_p->file_d, pos, whence);
 135              		.loc 1 680 17 is_stmt 1 view .LVU37
 136              		.loc 1 680 29 is_stmt 0 view .LVU38
 137 0024 0446     		mov	r4, r0
 138 0026 4068     		ldr	r0, [r0, #4]
 139              	.LVL12:
 140              		.loc 1 680 34 view .LVU39
 141 0028 C569     		ldr	r5, [r0, #28]
 142              		.loc 1 680 23 view .LVU40
 143 002a 0A46     		mov	r2, r1
 144              	.LVL13:
 145              		.loc 1 680 23 view .LVU41
 146 002c 2168     		ldr	r1, [r4]
 147              	.LVL14:
 148              		.loc 1 680 23 view .LVU42
 149 002e A847     		blx	r5
 150              	.LVL15:
 681:../../Middlewares/LVGL/GUI/lvgl/src/misc/lv_fs.c ****                 if(res == LV_FS_RES_OK) {
 151              		.loc 1 681 17 is_stmt 1 view .LVU43
 152              		.loc 1 681 19 is_stmt 0 view .LVU44
 153 0030 40B9     		cbnz	r0, .L8
 154              	.LBB4:
 682:../../Middlewares/LVGL/GUI/lvgl/src/misc/lv_fs.c ****                     uint32_t tmp_position;
 155              		.loc 1 682 21 is_stmt 1 view .LVU45
 683:../../Middlewares/LVGL/GUI/lvgl/src/misc/lv_fs.c ****                     res = file_p->drv->tell_cb(file_p->drv, file_p->file_d, &tmp_position);
 156              		.loc 1 683 21 view .LVU46
 157              		.loc 1 683 33 is_stmt 0 view .LVU47
 158 0032 6068     		ldr	r0, [r4, #4]
 159              	.LVL16:
 160              		.loc 1 683 38 view .LVU48
 161 0034 036A     		ldr	r3, [r0, #32]
 162              		.loc 1 683 27 view .LVU49
 163 0036 01AA     		add	r2, sp, #4
 164 0038 2168     		ldr	r1, [r4]
 165 003a 9847     		blx	r3
 166              	.LVL17:
 684:../../Middlewares/LVGL/GUI/lvgl/src/misc/lv_fs.c **** 
 685:../../Middlewares/LVGL/GUI/lvgl/src/misc/lv_fs.c ****                     if(res == LV_FS_RES_OK) {
ARM GAS  C:\Users\28576\AppData\Local\Temp\ccK3W8oA.s 			page 16


 167              		.loc 1 685 21 is_stmt 1 view .LVU50
 168              		.loc 1 685 23 is_stmt 0 view .LVU51
 169 003c 10B9     		cbnz	r0, .L8
 686:../../Middlewares/LVGL/GUI/lvgl/src/misc/lv_fs.c ****                         file_p->cache->file_position = tmp_position;
 170              		.loc 1 686 25 is_stmt 1 view .LVU52
 171              		.loc 1 686 31 is_stmt 0 view .LVU53
 172 003e A368     		ldr	r3, [r4, #8]
 173              		.loc 1 686 54 view .LVU54
 174 0040 019A     		ldr	r2, [sp, #4]
 175 0042 9A60     		str	r2, [r3, #8]
 176              	.L8:
 177              		.loc 1 686 54 view .LVU55
 178              	.LBE4:
 687:../../Middlewares/LVGL/GUI/lvgl/src/misc/lv_fs.c ****                     }
 688:../../Middlewares/LVGL/GUI/lvgl/src/misc/lv_fs.c ****                 }
 689:../../Middlewares/LVGL/GUI/lvgl/src/misc/lv_fs.c ****                 break;
 690:../../Middlewares/LVGL/GUI/lvgl/src/misc/lv_fs.c ****             }
 691:../../Middlewares/LVGL/GUI/lvgl/src/misc/lv_fs.c ****     }
 692:../../Middlewares/LVGL/GUI/lvgl/src/misc/lv_fs.c **** 
 693:../../Middlewares/LVGL/GUI/lvgl/src/misc/lv_fs.c ****     return res;
 179              		.loc 1 693 5 is_stmt 1 view .LVU56
 694:../../Middlewares/LVGL/GUI/lvgl/src/misc/lv_fs.c **** }
 180              		.loc 1 694 1 is_stmt 0 view .LVU57
 181 0044 03B0     		add	sp, sp, #12
 182              	.LCFI2:
 183              		.cfi_def_cfa_offset 12
 184              		@ sp needed
 185 0046 30BD     		pop	{r4, r5, pc}
 186              	.LVL18:
 187              	.L10:
 188              	.LCFI3:
 189              		.cfi_def_cfa_offset 0
 190              		.cfi_restore 4
 191              		.cfi_restore 5
 192              		.cfi_restore 14
 669:../../Middlewares/LVGL/GUI/lvgl/src/misc/lv_fs.c ****         case LV_FS_SEEK_SET: {
 193              		.loc 1 669 5 view .LVU58
 194 0048 0020     		movs	r0, #0
 195              	.LVL19:
 693:../../Middlewares/LVGL/GUI/lvgl/src/misc/lv_fs.c **** }
 196              		.loc 1 693 5 is_stmt 1 view .LVU59
 197              		.loc 1 694 1 is_stmt 0 view .LVU60
 198 004a 7047     		bx	lr
 199              		.cfi_endproc
 200              	.LFE210:
 202              		.section	.text.lv_fs_write_cached,"ax",%progbits
 203              		.align	1
 204              		.syntax unified
 205              		.thumb
 206              		.thumb_func
 208              	lv_fs_write_cached:
 209              	.LVL20:
 210              	.LFB209:
 623:../../Middlewares/LVGL/GUI/lvgl/src/misc/lv_fs.c ****     lv_fs_res_t res = LV_FS_RES_OK;
 211              		.loc 1 623 1 is_stmt 1 view -0
 212              		.cfi_startproc
 213              		@ args = 0, pretend = 0, frame = 0
ARM GAS  C:\Users\28576\AppData\Local\Temp\ccK3W8oA.s 			page 17


 214              		@ frame_needed = 0, uses_anonymous_args = 0
 623:../../Middlewares/LVGL/GUI/lvgl/src/misc/lv_fs.c ****     lv_fs_res_t res = LV_FS_RES_OK;
 215              		.loc 1 623 1 is_stmt 0 view .LVU62
 216 0000 2DE9F043 		push	{r4, r5, r6, r7, r8, r9, lr}
 217              	.LCFI4:
 218              		.cfi_def_cfa_offset 28
 219              		.cfi_offset 4, -28
 220              		.cfi_offset 5, -24
 221              		.cfi_offset 6, -20
 222              		.cfi_offset 7, -16
 223              		.cfi_offset 8, -12
 224              		.cfi_offset 9, -8
 225              		.cfi_offset 14, -4
 226 0004 83B0     		sub	sp, sp, #12
 227              	.LCFI5:
 228              		.cfi_def_cfa_offset 40
 229 0006 0446     		mov	r4, r0
 230 0008 0F46     		mov	r7, r1
 231 000a 9046     		mov	r8, r2
 232 000c 1E46     		mov	r6, r3
 624:../../Middlewares/LVGL/GUI/lvgl/src/misc/lv_fs.c **** 
 233              		.loc 1 624 5 is_stmt 1 view .LVU63
 234              	.LVL21:
 627:../../Middlewares/LVGL/GUI/lvgl/src/misc/lv_fs.c ****     if(res != LV_FS_RES_OK) return res;
 235              		.loc 1 627 5 view .LVU64
 627:../../Middlewares/LVGL/GUI/lvgl/src/misc/lv_fs.c ****     if(res != LV_FS_RES_OK) return res;
 236              		.loc 1 627 17 is_stmt 0 view .LVU65
 237 000e 4068     		ldr	r0, [r0, #4]
 238              	.LVL22:
 627:../../Middlewares/LVGL/GUI/lvgl/src/misc/lv_fs.c ****     if(res != LV_FS_RES_OK) return res;
 239              		.loc 1 627 22 view .LVU66
 240 0010 C569     		ldr	r5, [r0, #28]
 627:../../Middlewares/LVGL/GUI/lvgl/src/misc/lv_fs.c ****     if(res != LV_FS_RES_OK) return res;
 241              		.loc 1 627 67 view .LVU67
 242 0012 A268     		ldr	r2, [r4, #8]
 243              	.LVL23:
 627:../../Middlewares/LVGL/GUI/lvgl/src/misc/lv_fs.c ****     if(res != LV_FS_RES_OK) return res;
 244              		.loc 1 627 11 view .LVU68
 245 0014 0023     		movs	r3, #0
 246              	.LVL24:
 627:../../Middlewares/LVGL/GUI/lvgl/src/misc/lv_fs.c ****     if(res != LV_FS_RES_OK) return res;
 247              		.loc 1 627 11 view .LVU69
 248 0016 9268     		ldr	r2, [r2, #8]
 249 0018 2168     		ldr	r1, [r4]
 250              	.LVL25:
 627:../../Middlewares/LVGL/GUI/lvgl/src/misc/lv_fs.c ****     if(res != LV_FS_RES_OK) return res;
 251              		.loc 1 627 11 view .LVU70
 252 001a A847     		blx	r5
 253              	.LVL26:
 628:../../Middlewares/LVGL/GUI/lvgl/src/misc/lv_fs.c **** 
 254              		.loc 1 628 5 is_stmt 1 view .LVU71
 628:../../Middlewares/LVGL/GUI/lvgl/src/misc/lv_fs.c **** 
 255              		.loc 1 628 7 is_stmt 0 view .LVU72
 256 001c 8146     		mov	r9, r0
 257 001e 38BB     		cbnz	r0, .L15
 630:../../Middlewares/LVGL/GUI/lvgl/src/misc/lv_fs.c ****     if(res != LV_FS_RES_OK) return res;
 258              		.loc 1 630 5 is_stmt 1 view .LVU73
ARM GAS  C:\Users\28576\AppData\Local\Temp\ccK3W8oA.s 			page 18


 630:../../Middlewares/LVGL/GUI/lvgl/src/misc/lv_fs.c ****     if(res != LV_FS_RES_OK) return res;
 259              		.loc 1 630 17 is_stmt 0 view .LVU74
 260 0020 6068     		ldr	r0, [r4, #4]
 261              	.LVL27:
 630:../../Middlewares/LVGL/GUI/lvgl/src/misc/lv_fs.c ****     if(res != LV_FS_RES_OK) return res;
 262              		.loc 1 630 22 view .LVU75
 263 0022 8569     		ldr	r5, [r0, #24]
 630:../../Middlewares/LVGL/GUI/lvgl/src/misc/lv_fs.c ****     if(res != LV_FS_RES_OK) return res;
 264              		.loc 1 630 11 view .LVU76
 265 0024 0096     		str	r6, [sp]
 266 0026 4346     		mov	r3, r8
 267 0028 3A46     		mov	r2, r7
 268 002a 2168     		ldr	r1, [r4]
 269 002c A847     		blx	r5
 270              	.LVL28:
 631:../../Middlewares/LVGL/GUI/lvgl/src/misc/lv_fs.c **** 
 271              		.loc 1 631 5 is_stmt 1 view .LVU77
 631:../../Middlewares/LVGL/GUI/lvgl/src/misc/lv_fs.c **** 
 272              		.loc 1 631 7 is_stmt 0 view .LVU78
 273 002e 8146     		mov	r9, r0
 274 0030 F0B9     		cbnz	r0, .L15
 633:../../Middlewares/LVGL/GUI/lvgl/src/misc/lv_fs.c ****         uint32_t start_position = file_p->cache->file_position;
 275              		.loc 1 633 5 is_stmt 1 view .LVU79
 633:../../Middlewares/LVGL/GUI/lvgl/src/misc/lv_fs.c ****         uint32_t start_position = file_p->cache->file_position;
 276              		.loc 1 633 14 is_stmt 0 view .LVU80
 277 0032 A068     		ldr	r0, [r4, #8]
 278              	.LVL29:
 633:../../Middlewares/LVGL/GUI/lvgl/src/misc/lv_fs.c ****         uint32_t start_position = file_p->cache->file_position;
 279              		.loc 1 633 21 view .LVU81
 280 0034 4268     		ldr	r2, [r0, #4]
 633:../../Middlewares/LVGL/GUI/lvgl/src/misc/lv_fs.c ****         uint32_t start_position = file_p->cache->file_position;
 281              		.loc 1 633 43 view .LVU82
 282 0036 0368     		ldr	r3, [r0]
 633:../../Middlewares/LVGL/GUI/lvgl/src/misc/lv_fs.c ****         uint32_t start_position = file_p->cache->file_position;
 283              		.loc 1 633 7 view .LVU83
 284 0038 9A42     		cmp	r2, r3
 285 003a 14D3     		bcc	.L16
 286              	.LBB5:
 634:../../Middlewares/LVGL/GUI/lvgl/src/misc/lv_fs.c ****         uint32_t end_position = file_p->cache->file_position + *bw - 1;
 287              		.loc 1 634 9 is_stmt 1 view .LVU84
 634:../../Middlewares/LVGL/GUI/lvgl/src/misc/lv_fs.c ****         uint32_t end_position = file_p->cache->file_position + *bw - 1;
 288              		.loc 1 634 18 is_stmt 0 view .LVU85
 289 003c 8168     		ldr	r1, [r0, #8]
 290              	.LVL30:
 635:../../Middlewares/LVGL/GUI/lvgl/src/misc/lv_fs.c ****         char * cache_buffer = file_p->cache->buffer;
 291              		.loc 1 635 9 is_stmt 1 view .LVU86
 635:../../Middlewares/LVGL/GUI/lvgl/src/misc/lv_fs.c ****         char * cache_buffer = file_p->cache->buffer;
 292              		.loc 1 635 64 is_stmt 0 view .LVU87
 293 003e 3568     		ldr	r5, [r6]
 635:../../Middlewares/LVGL/GUI/lvgl/src/misc/lv_fs.c ****         char * cache_buffer = file_p->cache->buffer;
 294              		.loc 1 635 62 view .LVU88
 295 0040 0D44     		add	r5, r5, r1
 635:../../Middlewares/LVGL/GUI/lvgl/src/misc/lv_fs.c ****         char * cache_buffer = file_p->cache->buffer;
 296              		.loc 1 635 18 view .LVU89
 297 0042 013D     		subs	r5, r5, #1
 298              	.LVL31:
 636:../../Middlewares/LVGL/GUI/lvgl/src/misc/lv_fs.c ****         const char * write_buffer = buf;
ARM GAS  C:\Users\28576\AppData\Local\Temp\ccK3W8oA.s 			page 19


 299              		.loc 1 636 9 is_stmt 1 view .LVU90
 636:../../Middlewares/LVGL/GUI/lvgl/src/misc/lv_fs.c ****         const char * write_buffer = buf;
 300              		.loc 1 636 16 is_stmt 0 view .LVU91
 301 0044 C068     		ldr	r0, [r0, #12]
 302              	.LVL32:
 637:../../Middlewares/LVGL/GUI/lvgl/src/misc/lv_fs.c **** 
 303              		.loc 1 637 9 is_stmt 1 view .LVU92
 639:../../Middlewares/LVGL/GUI/lvgl/src/misc/lv_fs.c ****             lv_memcpy(cache_buffer,
 304              		.loc 1 639 9 view .LVU93
 639:../../Middlewares/LVGL/GUI/lvgl/src/misc/lv_fs.c ****             lv_memcpy(cache_buffer,
 305              		.loc 1 639 11 is_stmt 0 view .LVU94
 306 0046 8B42     		cmp	r3, r1
 307 0048 01D3     		bcc	.L17
 639:../../Middlewares/LVGL/GUI/lvgl/src/misc/lv_fs.c ****             lv_memcpy(cache_buffer,
 308              		.loc 1 639 51 discriminator 1 view .LVU95
 309 004a AA42     		cmp	r2, r5
 310 004c 14D9     		bls	.L21
 311              	.L17:
 644:../../Middlewares/LVGL/GUI/lvgl/src/misc/lv_fs.c ****             lv_memcpy(cache_buffer + (start_position - file_p->cache->start),
 312              		.loc 1 644 14 is_stmt 1 view .LVU96
 644:../../Middlewares/LVGL/GUI/lvgl/src/misc/lv_fs.c ****             lv_memcpy(cache_buffer + (start_position - file_p->cache->start),
 313              		.loc 1 644 16 is_stmt 0 view .LVU97
 314 004e 8B42     		cmp	r3, r1
 315 0050 01D8     		bhi	.L18
 644:../../Middlewares/LVGL/GUI/lvgl/src/misc/lv_fs.c ****             lv_memcpy(cache_buffer + (start_position - file_p->cache->start),
 316              		.loc 1 644 56 discriminator 1 view .LVU98
 317 0052 AA42     		cmp	r2, r5
 318 0054 19D2     		bcs	.L22
 319              	.L18:
 649:../../Middlewares/LVGL/GUI/lvgl/src/misc/lv_fs.c ****             lv_memcpy(cache_buffer,
 320              		.loc 1 649 14 is_stmt 1 view .LVU99
 649:../../Middlewares/LVGL/GUI/lvgl/src/misc/lv_fs.c ****             lv_memcpy(cache_buffer,
 321              		.loc 1 649 16 is_stmt 0 view .LVU100
 322 0056 AB42     		cmp	r3, r5
 323 0058 01D8     		bhi	.L19
 649:../../Middlewares/LVGL/GUI/lvgl/src/misc/lv_fs.c ****             lv_memcpy(cache_buffer,
 324              		.loc 1 649 54 discriminator 1 view .LVU101
 325 005a AA42     		cmp	r2, r5
 326 005c 1DD2     		bcs	.L23
 327              	.L19:
 654:../../Middlewares/LVGL/GUI/lvgl/src/misc/lv_fs.c ****             lv_memcpy(cache_buffer + (start_position - file_p->cache->start),
 328              		.loc 1 654 14 is_stmt 1 view .LVU102
 654:../../Middlewares/LVGL/GUI/lvgl/src/misc/lv_fs.c ****             lv_memcpy(cache_buffer + (start_position - file_p->cache->start),
 329              		.loc 1 654 16 is_stmt 0 view .LVU103
 330 005e 8B42     		cmp	r3, r1
 331 0060 01D8     		bhi	.L16
 654:../../Middlewares/LVGL/GUI/lvgl/src/misc/lv_fs.c ****             lv_memcpy(cache_buffer + (start_position - file_p->cache->start),
 332              		.loc 1 654 56 discriminator 1 view .LVU104
 333 0062 8A42     		cmp	r2, r1
 334 0064 22D2     		bcs	.L24
 335              	.LVL33:
 336              	.L16:
 654:../../Middlewares/LVGL/GUI/lvgl/src/misc/lv_fs.c ****             lv_memcpy(cache_buffer + (start_position - file_p->cache->start),
 337              		.loc 1 654 56 discriminator 1 view .LVU105
 338              	.LBE5:
 661:../../Middlewares/LVGL/GUI/lvgl/src/misc/lv_fs.c **** 
 339              		.loc 1 661 5 is_stmt 1 view .LVU106
ARM GAS  C:\Users\28576\AppData\Local\Temp\ccK3W8oA.s 			page 20


 661:../../Middlewares/LVGL/GUI/lvgl/src/misc/lv_fs.c **** 
 340              		.loc 1 661 11 is_stmt 0 view .LVU107
 341 0066 A268     		ldr	r2, [r4, #8]
 661:../../Middlewares/LVGL/GUI/lvgl/src/misc/lv_fs.c **** 
 342              		.loc 1 661 18 view .LVU108
 343 0068 9368     		ldr	r3, [r2, #8]
 661:../../Middlewares/LVGL/GUI/lvgl/src/misc/lv_fs.c **** 
 344              		.loc 1 661 37 view .LVU109
 345 006a 3168     		ldr	r1, [r6]
 661:../../Middlewares/LVGL/GUI/lvgl/src/misc/lv_fs.c **** 
 346              		.loc 1 661 34 view .LVU110
 347 006c 0B44     		add	r3, r3, r1
 348 006e 9360     		str	r3, [r2, #8]
 663:../../Middlewares/LVGL/GUI/lvgl/src/misc/lv_fs.c **** }
 349              		.loc 1 663 5 is_stmt 1 view .LVU111
 350              	.LVL34:
 351              	.L15:
 664:../../Middlewares/LVGL/GUI/lvgl/src/misc/lv_fs.c **** 
 352              		.loc 1 664 1 is_stmt 0 view .LVU112
 353 0070 4846     		mov	r0, r9
 354 0072 03B0     		add	sp, sp, #12
 355              	.LCFI6:
 356              		.cfi_remember_state
 357              		.cfi_def_cfa_offset 28
 358              		@ sp needed
 359 0074 BDE8F083 		pop	{r4, r5, r6, r7, r8, r9, pc}
 360              	.LVL35:
 361              	.L21:
 362              	.LCFI7:
 363              		.cfi_restore_state
 364              	.LBB6:
 640:../../Middlewares/LVGL/GUI/lvgl/src/misc/lv_fs.c ****                       write_buffer + (file_p->cache->start - start_position),
 365              		.loc 1 640 13 is_stmt 1 view .LVU113
 641:../../Middlewares/LVGL/GUI/lvgl/src/misc/lv_fs.c ****                       file_p->cache->end + 1 - file_p->cache->start);
 366              		.loc 1 641 60 is_stmt 0 view .LVU114
 367 0078 591A     		subs	r1, r3, r1
 368              	.LVL36:
 642:../../Middlewares/LVGL/GUI/lvgl/src/misc/lv_fs.c ****         }
 369              		.loc 1 642 46 view .LVU115
 370 007a D21A     		subs	r2, r2, r3
 640:../../Middlewares/LVGL/GUI/lvgl/src/misc/lv_fs.c ****                       write_buffer + (file_p->cache->start - start_position),
 371              		.loc 1 640 13 view .LVU116
 372 007c 0132     		adds	r2, r2, #1
 373 007e 3B46     		mov	r3, r7
 374 0080 0B44     		add	r3, r3, r1
 375 0082 1946     		mov	r1, r3
 376 0084 FFF7FEFF 		bl	lv_memcpy
 377              	.LVL37:
 640:../../Middlewares/LVGL/GUI/lvgl/src/misc/lv_fs.c ****                       write_buffer + (file_p->cache->start - start_position),
 378              		.loc 1 640 13 view .LVU117
 379 0088 EDE7     		b	.L16
 380              	.LVL38:
 381              	.L22:
 645:../../Middlewares/LVGL/GUI/lvgl/src/misc/lv_fs.c ****                       write_buffer,
 382              		.loc 1 645 13 is_stmt 1 view .LVU118
 645:../../Middlewares/LVGL/GUI/lvgl/src/misc/lv_fs.c ****                       write_buffer,
 383              		.loc 1 645 54 is_stmt 0 view .LVU119
ARM GAS  C:\Users\28576\AppData\Local\Temp\ccK3W8oA.s 			page 21


 384 008a CB1A     		subs	r3, r1, r3
 647:../../Middlewares/LVGL/GUI/lvgl/src/misc/lv_fs.c ****         }
 385              		.loc 1 647 40 view .LVU120
 386 008c 6A1A     		subs	r2, r5, r1
 645:../../Middlewares/LVGL/GUI/lvgl/src/misc/lv_fs.c ****                       write_buffer,
 387              		.loc 1 645 13 view .LVU121
 388 008e 0132     		adds	r2, r2, #1
 389 0090 3946     		mov	r1, r7
 390              	.LVL39:
 645:../../Middlewares/LVGL/GUI/lvgl/src/misc/lv_fs.c ****                       write_buffer,
 391              		.loc 1 645 13 view .LVU122
 392 0092 1844     		add	r0, r0, r3
 393              	.LVL40:
 645:../../Middlewares/LVGL/GUI/lvgl/src/misc/lv_fs.c ****                       write_buffer,
 394              		.loc 1 645 13 view .LVU123
 395 0094 FFF7FEFF 		bl	lv_memcpy
 396              	.LVL41:
 645:../../Middlewares/LVGL/GUI/lvgl/src/misc/lv_fs.c ****                       write_buffer,
 397              		.loc 1 645 13 view .LVU124
 398 0098 E5E7     		b	.L16
 399              	.LVL42:
 400              	.L23:
 650:../../Middlewares/LVGL/GUI/lvgl/src/misc/lv_fs.c ****                       write_buffer + (file_p->cache->start - start_position),
 401              		.loc 1 650 13 is_stmt 1 view .LVU125
 651:../../Middlewares/LVGL/GUI/lvgl/src/misc/lv_fs.c ****                       end_position + 1 - file_p->cache->start);
 402              		.loc 1 651 60 is_stmt 0 view .LVU126
 403 009a 591A     		subs	r1, r3, r1
 404              	.LVL43:
 652:../../Middlewares/LVGL/GUI/lvgl/src/misc/lv_fs.c ****         }
 405              		.loc 1 652 40 view .LVU127
 406 009c EA1A     		subs	r2, r5, r3
 650:../../Middlewares/LVGL/GUI/lvgl/src/misc/lv_fs.c ****                       write_buffer + (file_p->cache->start - start_position),
 407              		.loc 1 650 13 view .LVU128
 408 009e 0132     		adds	r2, r2, #1
 409 00a0 3B46     		mov	r3, r7
 410 00a2 0B44     		add	r3, r3, r1
 411 00a4 1946     		mov	r1, r3
 412 00a6 FFF7FEFF 		bl	lv_memcpy
 413              	.LVL44:
 650:../../Middlewares/LVGL/GUI/lvgl/src/misc/lv_fs.c ****                       write_buffer + (file_p->cache->start - start_position),
 414              		.loc 1 650 13 view .LVU129
 415 00aa DCE7     		b	.L16
 416              	.LVL45:
 417              	.L24:
 655:../../Middlewares/LVGL/GUI/lvgl/src/misc/lv_fs.c ****                       write_buffer,
 418              		.loc 1 655 13 is_stmt 1 view .LVU130
 655:../../Middlewares/LVGL/GUI/lvgl/src/misc/lv_fs.c ****                       write_buffer,
 419              		.loc 1 655 54 is_stmt 0 view .LVU131
 420 00ac CB1A     		subs	r3, r1, r3
 657:../../Middlewares/LVGL/GUI/lvgl/src/misc/lv_fs.c ****         }
 421              		.loc 1 657 46 view .LVU132
 422 00ae 521A     		subs	r2, r2, r1
 655:../../Middlewares/LVGL/GUI/lvgl/src/misc/lv_fs.c ****                       write_buffer,
 423              		.loc 1 655 13 view .LVU133
 424 00b0 0132     		adds	r2, r2, #1
 425 00b2 3946     		mov	r1, r7
 426              	.LVL46:
ARM GAS  C:\Users\28576\AppData\Local\Temp\ccK3W8oA.s 			page 22


 655:../../Middlewares/LVGL/GUI/lvgl/src/misc/lv_fs.c ****                       write_buffer,
 427              		.loc 1 655 13 view .LVU134
 428 00b4 1844     		add	r0, r0, r3
 429              	.LVL47:
 655:../../Middlewares/LVGL/GUI/lvgl/src/misc/lv_fs.c ****                       write_buffer,
 430              		.loc 1 655 13 view .LVU135
 431 00b6 FFF7FEFF 		bl	lv_memcpy
 432              	.LVL48:
 655:../../Middlewares/LVGL/GUI/lvgl/src/misc/lv_fs.c ****                       write_buffer,
 433              		.loc 1 655 13 view .LVU136
 434 00ba D4E7     		b	.L16
 435              	.LBE6:
 436              		.cfi_endproc
 437              	.LFE209:
 439              		.section	.text.lv_fs_read_cached,"ax",%progbits
 440              		.align	1
 441              		.syntax unified
 442              		.thumb
 443              		.thumb_func
 445              	lv_fs_read_cached:
 446              	.LVL49:
 447              	.LFB208:
 538:../../Middlewares/LVGL/GUI/lvgl/src/misc/lv_fs.c ****     lv_fs_res_t res = LV_FS_RES_OK;
 448              		.loc 1 538 1 is_stmt 1 view -0
 449              		.cfi_startproc
 450              		@ args = 0, pretend = 0, frame = 16
 451              		@ frame_needed = 0, uses_anonymous_args = 0
 538:../../Middlewares/LVGL/GUI/lvgl/src/misc/lv_fs.c ****     lv_fs_res_t res = LV_FS_RES_OK;
 452              		.loc 1 538 1 is_stmt 0 view .LVU138
 453 0000 2DE9F04F 		push	{r4, r5, r6, r7, r8, r9, r10, fp, lr}
 454              	.LCFI8:
 455              		.cfi_def_cfa_offset 36
 456              		.cfi_offset 4, -36
 457              		.cfi_offset 5, -32
 458              		.cfi_offset 6, -28
 459              		.cfi_offset 7, -24
 460              		.cfi_offset 8, -20
 461              		.cfi_offset 9, -16
 462              		.cfi_offset 10, -12
 463              		.cfi_offset 11, -8
 464              		.cfi_offset 14, -4
 465 0004 87B0     		sub	sp, sp, #28
 466              	.LCFI9:
 467              		.cfi_def_cfa_offset 64
 468 0006 0446     		mov	r4, r0
 469 0008 8946     		mov	r9, r1
 470 000a 1546     		mov	r5, r2
 471 000c 9B46     		mov	fp, r3
 539:../../Middlewares/LVGL/GUI/lvgl/src/misc/lv_fs.c ****     uint32_t file_position = file_p->cache->file_position;
 472              		.loc 1 539 5 is_stmt 1 view .LVU139
 473              	.LVL50:
 540:../../Middlewares/LVGL/GUI/lvgl/src/misc/lv_fs.c ****     uint32_t start = file_p->cache->start;
 474              		.loc 1 540 5 view .LVU140
 540:../../Middlewares/LVGL/GUI/lvgl/src/misc/lv_fs.c ****     uint32_t start = file_p->cache->start;
 475              		.loc 1 540 36 is_stmt 0 view .LVU141
 476 000e 8368     		ldr	r3, [r0, #8]
 477              	.LVL51:
ARM GAS  C:\Users\28576\AppData\Local\Temp\ccK3W8oA.s 			page 23


 540:../../Middlewares/LVGL/GUI/lvgl/src/misc/lv_fs.c ****     uint32_t start = file_p->cache->start;
 478              		.loc 1 540 14 view .LVU142
 479 0010 9E68     		ldr	r6, [r3, #8]
 480              	.LVL52:
 541:../../Middlewares/LVGL/GUI/lvgl/src/misc/lv_fs.c ****     uint32_t end = file_p->cache->end;
 481              		.loc 1 541 5 is_stmt 1 view .LVU143
 541:../../Middlewares/LVGL/GUI/lvgl/src/misc/lv_fs.c ****     uint32_t end = file_p->cache->end;
 482              		.loc 1 541 14 is_stmt 0 view .LVU144
 483 0012 1A68     		ldr	r2, [r3]
 484              	.LVL53:
 542:../../Middlewares/LVGL/GUI/lvgl/src/misc/lv_fs.c ****     char * buffer = file_p->cache->buffer;
 485              		.loc 1 542 5 is_stmt 1 view .LVU145
 542:../../Middlewares/LVGL/GUI/lvgl/src/misc/lv_fs.c ****     char * buffer = file_p->cache->buffer;
 486              		.loc 1 542 14 is_stmt 0 view .LVU146
 487 0014 5968     		ldr	r1, [r3, #4]
 488              	.LVL54:
 543:../../Middlewares/LVGL/GUI/lvgl/src/misc/lv_fs.c ****     uint32_t buffer_size = file_p->drv->cache_size;
 489              		.loc 1 543 5 is_stmt 1 view .LVU147
 543:../../Middlewares/LVGL/GUI/lvgl/src/misc/lv_fs.c ****     uint32_t buffer_size = file_p->drv->cache_size;
 490              		.loc 1 543 12 is_stmt 0 view .LVU148
 491 0016 D3F80C80 		ldr	r8, [r3, #12]
 492              	.LVL55:
 544:../../Middlewares/LVGL/GUI/lvgl/src/misc/lv_fs.c **** 
 493              		.loc 1 544 5 is_stmt 1 view .LVU149
 544:../../Middlewares/LVGL/GUI/lvgl/src/misc/lv_fs.c **** 
 494              		.loc 1 544 34 is_stmt 0 view .LVU150
 495 001a 4068     		ldr	r0, [r0, #4]
 496              	.LVL56:
 544:../../Middlewares/LVGL/GUI/lvgl/src/misc/lv_fs.c **** 
 497              		.loc 1 544 14 view .LVU151
 498 001c D0F804A0 		ldr	r10, [r0, #4]
 499              	.LVL57:
 546:../../Middlewares/LVGL/GUI/lvgl/src/misc/lv_fs.c ****         /* Data can be read from cache buffer */
 500              		.loc 1 546 5 is_stmt 1 view .LVU152
 546:../../Middlewares/LVGL/GUI/lvgl/src/misc/lv_fs.c ****         /* Data can be read from cache buffer */
 501              		.loc 1 546 31 is_stmt 0 view .LVU153
 502 0020 9642     		cmp	r6, r2
 503 0022 34BF     		ite	cc
 504 0024 0023     		movcc	r3, #0
 505 0026 0123     		movcs	r3, #1
 506 0028 8E42     		cmp	r6, r1
 507 002a 88BF     		it	hi
 508 002c 0023     		movhi	r3, #0
 546:../../Middlewares/LVGL/GUI/lvgl/src/misc/lv_fs.c ****         /* Data can be read from cache buffer */
 509              		.loc 1 546 7 view .LVU154
 510 002e 002B     		cmp	r3, #0
 511 0030 64D0     		beq	.L26
 512              	.LBB7:
 548:../../Middlewares/LVGL/GUI/lvgl/src/misc/lv_fs.c ****         uint32_t buffer_offset = (end - start) - buffer_remaining_length + 1;
 513              		.loc 1 548 9 is_stmt 1 view .LVU155
 548:../../Middlewares/LVGL/GUI/lvgl/src/misc/lv_fs.c ****         uint32_t buffer_offset = (end - start) - buffer_remaining_length + 1;
 514              		.loc 1 548 58 is_stmt 0 view .LVU156
 515 0032 8B1B     		subs	r3, r1, r6
 548:../../Middlewares/LVGL/GUI/lvgl/src/misc/lv_fs.c ****         uint32_t buffer_offset = (end - start) - buffer_remaining_length + 1;
 516              		.loc 1 548 18 view .LVU157
 517 0034 5E1C     		adds	r6, r3, #1
 518              	.LVL58:
ARM GAS  C:\Users\28576\AppData\Local\Temp\ccK3W8oA.s 			page 24


 549:../../Middlewares/LVGL/GUI/lvgl/src/misc/lv_fs.c **** 
 519              		.loc 1 549 9 is_stmt 1 view .LVU158
 549:../../Middlewares/LVGL/GUI/lvgl/src/misc/lv_fs.c **** 
 520              		.loc 1 549 39 is_stmt 0 view .LVU159
 521 0036 891A     		subs	r1, r1, r2
 522              	.LVL59:
 549:../../Middlewares/LVGL/GUI/lvgl/src/misc/lv_fs.c **** 
 523              		.loc 1 549 48 view .LVU160
 524 0038 891B     		subs	r1, r1, r6
 549:../../Middlewares/LVGL/GUI/lvgl/src/misc/lv_fs.c **** 
 525              		.loc 1 549 18 view .LVU161
 526 003a 0131     		adds	r1, r1, #1
 527              	.LVL60:
 552:../../Middlewares/LVGL/GUI/lvgl/src/misc/lv_fs.c ****             if(btr > buffer_remaining_length)
 528              		.loc 1 552 9 is_stmt 1 view .LVU162
 552:../../Middlewares/LVGL/GUI/lvgl/src/misc/lv_fs.c ****             if(btr > buffer_remaining_length)
 529              		.loc 1 552 11 is_stmt 0 view .LVU163
 530 003c BAF1FF3F 		cmp	r10, #-1
 531 0040 0AD0     		beq	.L39
 532              	.LVL61:
 533              	.L27:
 557:../../Middlewares/LVGL/GUI/lvgl/src/misc/lv_fs.c ****             /*Data is in cache buffer, and buffer end not reached, no need to read from FS*/
 534              		.loc 1 557 9 is_stmt 1 view .LVU164
 557:../../Middlewares/LVGL/GUI/lvgl/src/misc/lv_fs.c ****             /*Data is in cache buffer, and buffer end not reached, no need to read from FS*/
 535              		.loc 1 557 11 is_stmt 0 view .LVU165
 536 0042 B542     		cmp	r5, r6
 537 0044 0CD8     		bhi	.L28
 559:../../Middlewares/LVGL/GUI/lvgl/src/misc/lv_fs.c ****             *br = btr;
 538              		.loc 1 559 13 is_stmt 1 view .LVU166
 539 0046 2A46     		mov	r2, r5
 540              	.LVL62:
 559:../../Middlewares/LVGL/GUI/lvgl/src/misc/lv_fs.c ****             *br = btr;
 541              		.loc 1 559 13 is_stmt 0 view .LVU167
 542 0048 4144     		add	r1, r1, r8
 543              	.LVL63:
 559:../../Middlewares/LVGL/GUI/lvgl/src/misc/lv_fs.c ****             *br = btr;
 544              		.loc 1 559 13 view .LVU168
 545 004a 4846     		mov	r0, r9
 546 004c FFF7FEFF 		bl	lv_memcpy
 547              	.LVL64:
 560:../../Middlewares/LVGL/GUI/lvgl/src/misc/lv_fs.c ****         }
 548              		.loc 1 560 13 is_stmt 1 view .LVU169
 560:../../Middlewares/LVGL/GUI/lvgl/src/misc/lv_fs.c ****         }
 549              		.loc 1 560 17 is_stmt 0 view .LVU170
 550 0050 CBF80050 		str	r5, [fp]
 560:../../Middlewares/LVGL/GUI/lvgl/src/misc/lv_fs.c ****         }
 551              		.loc 1 560 17 view .LVU171
 552              	.LBE7:
 615:../../Middlewares/LVGL/GUI/lvgl/src/misc/lv_fs.c ****         file_p->cache->file_position += *br;
 553              		.loc 1 615 5 is_stmt 1 view .LVU172
 539:../../Middlewares/LVGL/GUI/lvgl/src/misc/lv_fs.c ****     uint32_t file_position = file_p->cache->file_position;
 554              		.loc 1 539 17 is_stmt 0 view .LVU173
 555 0054 0027     		movs	r7, #0
 556 0056 28E0     		b	.L29
 557              	.LVL65:
 558              	.L39:
 559              	.LBB11:
ARM GAS  C:\Users\28576\AppData\Local\Temp\ccK3W8oA.s 			page 25


 553:../../Middlewares/LVGL/GUI/lvgl/src/misc/lv_fs.c ****                 btr = buffer_remaining_length - 1;
 560              		.loc 1 553 13 is_stmt 1 view .LVU174
 553:../../Middlewares/LVGL/GUI/lvgl/src/misc/lv_fs.c ****                 btr = buffer_remaining_length - 1;
 561              		.loc 1 553 15 is_stmt 0 view .LVU175
 562 0058 B542     		cmp	r5, r6
 563 005a F2D9     		bls	.L27
 554:../../Middlewares/LVGL/GUI/lvgl/src/misc/lv_fs.c ****         }
 564              		.loc 1 554 21 view .LVU176
 565 005c 1D46     		mov	r5, r3
 566              	.LVL66:
 554:../../Middlewares/LVGL/GUI/lvgl/src/misc/lv_fs.c ****         }
 567              		.loc 1 554 21 view .LVU177
 568 005e F0E7     		b	.L27
 569              	.LVL67:
 570              	.L28:
 571              	.LBB8:
 564:../../Middlewares/LVGL/GUI/lvgl/src/misc/lv_fs.c **** 
 572              		.loc 1 564 13 is_stmt 1 view .LVU178
 573 0060 3246     		mov	r2, r6
 574              	.LVL68:
 564:../../Middlewares/LVGL/GUI/lvgl/src/misc/lv_fs.c **** 
 575              		.loc 1 564 13 is_stmt 0 view .LVU179
 576 0062 4144     		add	r1, r1, r8
 577              	.LVL69:
 564:../../Middlewares/LVGL/GUI/lvgl/src/misc/lv_fs.c **** 
 578              		.loc 1 564 13 view .LVU180
 579 0064 4846     		mov	r0, r9
 580 0066 FFF7FEFF 		bl	lv_memcpy
 581              	.LVL70:
 566:../../Middlewares/LVGL/GUI/lvgl/src/misc/lv_fs.c ****                                  LV_FS_SEEK_SET);
 582              		.loc 1 566 13 is_stmt 1 view .LVU181
 566:../../Middlewares/LVGL/GUI/lvgl/src/misc/lv_fs.c ****                                  LV_FS_SEEK_SET);
 583              		.loc 1 566 19 is_stmt 0 view .LVU182
 584 006a 6068     		ldr	r0, [r4, #4]
 566:../../Middlewares/LVGL/GUI/lvgl/src/misc/lv_fs.c ****                                  LV_FS_SEEK_SET);
 585              		.loc 1 566 24 view .LVU183
 586 006c C769     		ldr	r7, [r0, #28]
 566:../../Middlewares/LVGL/GUI/lvgl/src/misc/lv_fs.c ****                                  LV_FS_SEEK_SET);
 587              		.loc 1 566 69 view .LVU184
 588 006e A368     		ldr	r3, [r4, #8]
 566:../../Middlewares/LVGL/GUI/lvgl/src/misc/lv_fs.c ****                                  LV_FS_SEEK_SET);
 589              		.loc 1 566 76 view .LVU185
 590 0070 5A68     		ldr	r2, [r3, #4]
 566:../../Middlewares/LVGL/GUI/lvgl/src/misc/lv_fs.c ****                                  LV_FS_SEEK_SET);
 591              		.loc 1 566 13 view .LVU186
 592 0072 0023     		movs	r3, #0
 593 0074 0132     		adds	r2, r2, #1
 594 0076 2168     		ldr	r1, [r4]
 595 0078 B847     		blx	r7
 596              	.LVL71:
 569:../../Middlewares/LVGL/GUI/lvgl/src/misc/lv_fs.c ****             if(btr - buffer_remaining_length > buffer_size) {
 597              		.loc 1 569 13 is_stmt 1 view .LVU187
 569:../../Middlewares/LVGL/GUI/lvgl/src/misc/lv_fs.c ****             if(btr - buffer_remaining_length > buffer_size) {
 598              		.loc 1 569 22 is_stmt 0 view .LVU188
 599 007a 0023     		movs	r3, #0
 600 007c 0593     		str	r3, [sp, #20]
 570:../../Middlewares/LVGL/GUI/lvgl/src/misc/lv_fs.c ****                 /*If remaining data chuck is bigger than buffer size, then do not use cache, instea
ARM GAS  C:\Users\28576\AppData\Local\Temp\ccK3W8oA.s 			page 26


 601              		.loc 1 570 13 is_stmt 1 view .LVU189
 570:../../Middlewares/LVGL/GUI/lvgl/src/misc/lv_fs.c ****                 /*If remaining data chuck is bigger than buffer size, then do not use cache, instea
 602              		.loc 1 570 20 is_stmt 0 view .LVU190
 603 007e AA1B     		subs	r2, r5, r6
 604 0080 0392     		str	r2, [sp, #12]
 570:../../Middlewares/LVGL/GUI/lvgl/src/misc/lv_fs.c ****                 /*If remaining data chuck is bigger than buffer size, then do not use cache, instea
 605              		.loc 1 570 15 view .LVU191
 606 0082 5245     		cmp	r2, r10
 607 0084 1BD9     		bls	.L30
 572:../../Middlewares/LVGL/GUI/lvgl/src/misc/lv_fs.c ****                                            btr - buffer_remaining_length, &bytes_read_to_buffer);
 608              		.loc 1 572 17 is_stmt 1 view .LVU192
 572:../../Middlewares/LVGL/GUI/lvgl/src/misc/lv_fs.c ****                                            btr - buffer_remaining_length, &bytes_read_to_buffer);
 609              		.loc 1 572 29 is_stmt 0 view .LVU193
 610 0086 6068     		ldr	r0, [r4, #4]
 572:../../Middlewares/LVGL/GUI/lvgl/src/misc/lv_fs.c ****                                            btr - buffer_remaining_length, &bytes_read_to_buffer);
 611              		.loc 1 572 34 view .LVU194
 612 0088 4769     		ldr	r7, [r0, #20]
 572:../../Middlewares/LVGL/GUI/lvgl/src/misc/lv_fs.c ****                                            btr - buffer_remaining_length, &bytes_read_to_buffer);
 613              		.loc 1 572 23 view .LVU195
 614 008a 05AB     		add	r3, sp, #20
 615 008c 0093     		str	r3, [sp]
 616 008e 1346     		mov	r3, r2
 617 0090 4A46     		mov	r2, r9
 618 0092 3244     		add	r2, r2, r6
 619 0094 2168     		ldr	r1, [r4]
 620 0096 B847     		blx	r7
 621              	.LVL72:
 622 0098 0746     		mov	r7, r0
 623              	.LVL73:
 624              	.L31:
 584:../../Middlewares/LVGL/GUI/lvgl/src/misc/lv_fs.c ****         }
 625              		.loc 1 584 13 is_stmt 1 view .LVU196
 584:../../Middlewares/LVGL/GUI/lvgl/src/misc/lv_fs.c ****         }
 626              		.loc 1 584 19 is_stmt 0 view .LVU197
 627 009a 059B     		ldr	r3, [sp, #20]
 628 009c 1E44     		add	r6, r6, r3
 629              	.LVL74:
 584:../../Middlewares/LVGL/GUI/lvgl/src/misc/lv_fs.c ****         }
 630              		.loc 1 584 19 view .LVU198
 631 009e AE42     		cmp	r6, r5
 632 00a0 28BF     		it	cs
 633 00a2 2E46     		movcs	r6, r5
 584:../../Middlewares/LVGL/GUI/lvgl/src/misc/lv_fs.c ****         }
 634              		.loc 1 584 17 view .LVU199
 635 00a4 CBF80060 		str	r6, [fp]
 636              	.LVL75:
 637              	.L32:
 584:../../Middlewares/LVGL/GUI/lvgl/src/misc/lv_fs.c ****         }
 638              		.loc 1 584 17 view .LVU200
 639              	.LBE8:
 640              	.LBE11:
 615:../../Middlewares/LVGL/GUI/lvgl/src/misc/lv_fs.c ****         file_p->cache->file_position += *br;
 641              		.loc 1 615 5 is_stmt 1 view .LVU201
 615:../../Middlewares/LVGL/GUI/lvgl/src/misc/lv_fs.c ****         file_p->cache->file_position += *br;
 642              		.loc 1 615 7 is_stmt 0 view .LVU202
 643 00a8 2FB9     		cbnz	r7, .L36
 644              	.LVL76:
ARM GAS  C:\Users\28576\AppData\Local\Temp\ccK3W8oA.s 			page 27


 645              	.L29:
 616:../../Middlewares/LVGL/GUI/lvgl/src/misc/lv_fs.c ****     }
 646              		.loc 1 616 9 is_stmt 1 view .LVU203
 616:../../Middlewares/LVGL/GUI/lvgl/src/misc/lv_fs.c ****     }
 647              		.loc 1 616 15 is_stmt 0 view .LVU204
 648 00aa A268     		ldr	r2, [r4, #8]
 616:../../Middlewares/LVGL/GUI/lvgl/src/misc/lv_fs.c ****     }
 649              		.loc 1 616 22 view .LVU205
 650 00ac 9368     		ldr	r3, [r2, #8]
 616:../../Middlewares/LVGL/GUI/lvgl/src/misc/lv_fs.c ****     }
 651              		.loc 1 616 41 view .LVU206
 652 00ae DBF80010 		ldr	r1, [fp]
 616:../../Middlewares/LVGL/GUI/lvgl/src/misc/lv_fs.c ****     }
 653              		.loc 1 616 38 view .LVU207
 654 00b2 0B44     		add	r3, r3, r1
 655 00b4 9360     		str	r3, [r2, #8]
 656              	.L36:
 619:../../Middlewares/LVGL/GUI/lvgl/src/misc/lv_fs.c **** }
 657              		.loc 1 619 5 is_stmt 1 view .LVU208
 620:../../Middlewares/LVGL/GUI/lvgl/src/misc/lv_fs.c **** 
 658              		.loc 1 620 1 is_stmt 0 view .LVU209
 659 00b6 3846     		mov	r0, r7
 660 00b8 07B0     		add	sp, sp, #28
 661              	.LCFI10:
 662              		.cfi_remember_state
 663              		.cfi_def_cfa_offset 36
 664              		@ sp needed
 665 00ba BDE8F08F 		pop	{r4, r5, r6, r7, r8, r9, r10, fp, pc}
 666              	.LVL77:
 667              	.L30:
 668              	.LCFI11:
 669              		.cfi_restore_state
 670              	.LBB12:
 671              	.LBB10:
 672              	.LBB9:
 577:../../Middlewares/LVGL/GUI/lvgl/src/misc/lv_fs.c ****                 file_p->cache->start = file_p->cache->end + 1;
 673              		.loc 1 577 17 is_stmt 1 view .LVU210
 577:../../Middlewares/LVGL/GUI/lvgl/src/misc/lv_fs.c ****                 file_p->cache->start = file_p->cache->end + 1;
 674              		.loc 1 577 29 is_stmt 0 view .LVU211
 675 00be 6068     		ldr	r0, [r4, #4]
 577:../../Middlewares/LVGL/GUI/lvgl/src/misc/lv_fs.c ****                 file_p->cache->start = file_p->cache->end + 1;
 676              		.loc 1 577 34 view .LVU212
 677 00c0 4369     		ldr	r3, [r0, #20]
 678 00c2 1F46     		mov	r7, r3
 577:../../Middlewares/LVGL/GUI/lvgl/src/misc/lv_fs.c ****                 file_p->cache->start = file_p->cache->end + 1;
 679              		.loc 1 577 23 view .LVU213
 680 00c4 05AB     		add	r3, sp, #20
 681 00c6 0093     		str	r3, [sp]
 682 00c8 5346     		mov	r3, r10
 683 00ca 4246     		mov	r2, r8
 684 00cc 2168     		ldr	r1, [r4]
 685 00ce B847     		blx	r7
 686              	.LVL78:
 687 00d0 0746     		mov	r7, r0
 688              	.LVL79:
 578:../../Middlewares/LVGL/GUI/lvgl/src/misc/lv_fs.c ****                 file_p->cache->end = file_p->cache->start + bytes_read_to_buffer - 1;
 689              		.loc 1 578 17 is_stmt 1 view .LVU214
ARM GAS  C:\Users\28576\AppData\Local\Temp\ccK3W8oA.s 			page 28


 578:../../Middlewares/LVGL/GUI/lvgl/src/misc/lv_fs.c ****                 file_p->cache->end = file_p->cache->start + bytes_read_to_buffer - 1;
 690              		.loc 1 578 46 is_stmt 0 view .LVU215
 691 00d2 A268     		ldr	r2, [r4, #8]
 578:../../Middlewares/LVGL/GUI/lvgl/src/misc/lv_fs.c ****                 file_p->cache->end = file_p->cache->start + bytes_read_to_buffer - 1;
 692              		.loc 1 578 53 view .LVU216
 693 00d4 5368     		ldr	r3, [r2, #4]
 578:../../Middlewares/LVGL/GUI/lvgl/src/misc/lv_fs.c ****                 file_p->cache->end = file_p->cache->start + bytes_read_to_buffer - 1;
 694              		.loc 1 578 59 view .LVU217
 695 00d6 0133     		adds	r3, r3, #1
 578:../../Middlewares/LVGL/GUI/lvgl/src/misc/lv_fs.c ****                 file_p->cache->end = file_p->cache->start + bytes_read_to_buffer - 1;
 696              		.loc 1 578 38 view .LVU218
 697 00d8 1360     		str	r3, [r2]
 579:../../Middlewares/LVGL/GUI/lvgl/src/misc/lv_fs.c **** 
 698              		.loc 1 579 17 is_stmt 1 view .LVU219
 579:../../Middlewares/LVGL/GUI/lvgl/src/misc/lv_fs.c **** 
 699              		.loc 1 579 44 is_stmt 0 view .LVU220
 700 00da A168     		ldr	r1, [r4, #8]
 579:../../Middlewares/LVGL/GUI/lvgl/src/misc/lv_fs.c **** 
 701              		.loc 1 579 51 view .LVU221
 702 00dc 0B68     		ldr	r3, [r1]
 579:../../Middlewares/LVGL/GUI/lvgl/src/misc/lv_fs.c **** 
 703              		.loc 1 579 59 view .LVU222
 704 00de 059A     		ldr	r2, [sp, #20]
 705 00e0 1344     		add	r3, r3, r2
 579:../../Middlewares/LVGL/GUI/lvgl/src/misc/lv_fs.c **** 
 706              		.loc 1 579 82 view .LVU223
 707 00e2 013B     		subs	r3, r3, #1
 579:../../Middlewares/LVGL/GUI/lvgl/src/misc/lv_fs.c **** 
 708              		.loc 1 579 36 view .LVU224
 709 00e4 4B60     		str	r3, [r1, #4]
 581:../../Middlewares/LVGL/GUI/lvgl/src/misc/lv_fs.c ****                 lv_memcpy((char *)buf + buffer_remaining_length, buffer, data_chunk_remaining);
 710              		.loc 1 581 17 is_stmt 1 view .LVU225
 581:../../Middlewares/LVGL/GUI/lvgl/src/misc/lv_fs.c ****                 lv_memcpy((char *)buf + buffer_remaining_length, buffer, data_chunk_remaining);
 711              		.loc 1 581 49 is_stmt 0 view .LVU226
 712 00e6 039B     		ldr	r3, [sp, #12]
 713 00e8 9342     		cmp	r3, r2
 714 00ea 28BF     		it	cs
 715 00ec 1346     		movcs	r3, r2
 716              	.LVL80:
 582:../../Middlewares/LVGL/GUI/lvgl/src/misc/lv_fs.c ****             }
 717              		.loc 1 582 17 is_stmt 1 view .LVU227
 718 00ee 9AB2     		uxth	r2, r3
 719 00f0 4146     		mov	r1, r8
 720 00f2 4846     		mov	r0, r9
 721 00f4 3044     		add	r0, r0, r6
 722 00f6 FFF7FEFF 		bl	lv_memcpy
 723              	.LVL81:
 582:../../Middlewares/LVGL/GUI/lvgl/src/misc/lv_fs.c ****             }
 724              		.loc 1 582 17 is_stmt 0 view .LVU228
 725 00fa CEE7     		b	.L31
 726              	.LVL82:
 727              	.L26:
 582:../../Middlewares/LVGL/GUI/lvgl/src/misc/lv_fs.c ****             }
 728              		.loc 1 582 17 view .LVU229
 729              	.LBE9:
 730              	.LBE10:
 731              	.LBE12:
ARM GAS  C:\Users\28576\AppData\Local\Temp\ccK3W8oA.s 			page 29


 588:../../Middlewares/LVGL/GUI/lvgl/src/misc/lv_fs.c ****                              LV_FS_SEEK_SET);
 732              		.loc 1 588 9 is_stmt 1 view .LVU230
 588:../../Middlewares/LVGL/GUI/lvgl/src/misc/lv_fs.c ****                              LV_FS_SEEK_SET);
 733              		.loc 1 588 20 is_stmt 0 view .LVU231
 734 00fc C369     		ldr	r3, [r0, #28]
 735 00fe 1F46     		mov	r7, r3
 588:../../Middlewares/LVGL/GUI/lvgl/src/misc/lv_fs.c ****                              LV_FS_SEEK_SET);
 736              		.loc 1 588 9 view .LVU232
 737 0100 0023     		movs	r3, #0
 738 0102 3246     		mov	r2, r6
 739              	.LVL83:
 588:../../Middlewares/LVGL/GUI/lvgl/src/misc/lv_fs.c ****                              LV_FS_SEEK_SET);
 740              		.loc 1 588 9 view .LVU233
 741 0104 2168     		ldr	r1, [r4]
 742              	.LVL84:
 588:../../Middlewares/LVGL/GUI/lvgl/src/misc/lv_fs.c ****                              LV_FS_SEEK_SET);
 743              		.loc 1 588 9 view .LVU234
 744 0106 B847     		blx	r7
 745              	.LVL85:
 592:../../Middlewares/LVGL/GUI/lvgl/src/misc/lv_fs.c ****             /*If bigger data is requested, then do not use cache, instead read it directly*/
 746              		.loc 1 592 9 is_stmt 1 view .LVU235
 592:../../Middlewares/LVGL/GUI/lvgl/src/misc/lv_fs.c ****             /*If bigger data is requested, then do not use cache, instead read it directly*/
 747              		.loc 1 592 11 is_stmt 0 view .LVU236
 748 0108 AA45     		cmp	r10, r5
 749 010a 09D2     		bcs	.L33
 594:../../Middlewares/LVGL/GUI/lvgl/src/misc/lv_fs.c ****         }
 750              		.loc 1 594 13 is_stmt 1 view .LVU237
 594:../../Middlewares/LVGL/GUI/lvgl/src/misc/lv_fs.c ****         }
 751              		.loc 1 594 25 is_stmt 0 view .LVU238
 752 010c 6068     		ldr	r0, [r4, #4]
 594:../../Middlewares/LVGL/GUI/lvgl/src/misc/lv_fs.c ****         }
 753              		.loc 1 594 30 view .LVU239
 754 010e 4669     		ldr	r6, [r0, #20]
 755              	.LVL86:
 594:../../Middlewares/LVGL/GUI/lvgl/src/misc/lv_fs.c ****         }
 756              		.loc 1 594 19 view .LVU240
 757 0110 CDF800B0 		str	fp, [sp]
 758 0114 2B46     		mov	r3, r5
 759 0116 4A46     		mov	r2, r9
 760 0118 2168     		ldr	r1, [r4]
 761 011a B047     		blx	r6
 762              	.LVL87:
 763 011c 0746     		mov	r7, r0
 764              	.LVL88:
 594:../../Middlewares/LVGL/GUI/lvgl/src/misc/lv_fs.c ****         }
 765              		.loc 1 594 19 view .LVU241
 766 011e C3E7     		b	.L32
 767              	.LVL89:
 768              	.L33:
 769              	.LBB13:
 598:../../Middlewares/LVGL/GUI/lvgl/src/misc/lv_fs.c ****                 file_p->cache->buffer = lv_malloc(buffer_size);
 770              		.loc 1 598 13 is_stmt 1 view .LVU242
 598:../../Middlewares/LVGL/GUI/lvgl/src/misc/lv_fs.c ****                 file_p->cache->buffer = lv_malloc(buffer_size);
 771              		.loc 1 598 15 is_stmt 0 view .LVU243
 772 0120 B8F1000F 		cmp	r8, #0
 773 0124 1DD0     		beq	.L40
 774              	.LVL90:
ARM GAS  C:\Users\28576\AppData\Local\Temp\ccK3W8oA.s 			page 30


 775              	.L34:
 604:../../Middlewares/LVGL/GUI/lvgl/src/misc/lv_fs.c ****             res = file_p->drv->read_cb(file_p->drv, file_p->file_d, (void *)buffer, buffer_size, &b
 776              		.loc 1 604 13 is_stmt 1 view .LVU244
 604:../../Middlewares/LVGL/GUI/lvgl/src/misc/lv_fs.c ****             res = file_p->drv->read_cb(file_p->drv, file_p->file_d, (void *)buffer, buffer_size, &b
 777              		.loc 1 604 22 is_stmt 0 view .LVU245
 778 0126 0023     		movs	r3, #0
 779 0128 0593     		str	r3, [sp, #20]
 605:../../Middlewares/LVGL/GUI/lvgl/src/misc/lv_fs.c ****             file_p->cache->start = file_position;
 780              		.loc 1 605 13 is_stmt 1 view .LVU246
 605:../../Middlewares/LVGL/GUI/lvgl/src/misc/lv_fs.c ****             file_p->cache->start = file_position;
 781              		.loc 1 605 25 is_stmt 0 view .LVU247
 782 012a 6068     		ldr	r0, [r4, #4]
 605:../../Middlewares/LVGL/GUI/lvgl/src/misc/lv_fs.c ****             file_p->cache->start = file_position;
 783              		.loc 1 605 30 view .LVU248
 784 012c 4369     		ldr	r3, [r0, #20]
 785 012e 1F46     		mov	r7, r3
 605:../../Middlewares/LVGL/GUI/lvgl/src/misc/lv_fs.c ****             file_p->cache->start = file_position;
 786              		.loc 1 605 19 view .LVU249
 787 0130 05AB     		add	r3, sp, #20
 788 0132 0093     		str	r3, [sp]
 789 0134 5346     		mov	r3, r10
 790 0136 4246     		mov	r2, r8
 791 0138 2168     		ldr	r1, [r4]
 792 013a B847     		blx	r7
 793              	.LVL91:
 794 013c 0746     		mov	r7, r0
 795              	.LVL92:
 606:../../Middlewares/LVGL/GUI/lvgl/src/misc/lv_fs.c ****             file_p->cache->end = file_p->cache->start + bytes_read_to_buffer - 1;
 796              		.loc 1 606 13 is_stmt 1 view .LVU250
 606:../../Middlewares/LVGL/GUI/lvgl/src/misc/lv_fs.c ****             file_p->cache->end = file_p->cache->start + bytes_read_to_buffer - 1;
 797              		.loc 1 606 19 is_stmt 0 view .LVU251
 798 013e A368     		ldr	r3, [r4, #8]
 606:../../Middlewares/LVGL/GUI/lvgl/src/misc/lv_fs.c ****             file_p->cache->end = file_p->cache->start + bytes_read_to_buffer - 1;
 799              		.loc 1 606 34 view .LVU252
 800 0140 1E60     		str	r6, [r3]
 607:../../Middlewares/LVGL/GUI/lvgl/src/misc/lv_fs.c **** 
 801              		.loc 1 607 13 is_stmt 1 view .LVU253
 607:../../Middlewares/LVGL/GUI/lvgl/src/misc/lv_fs.c **** 
 802              		.loc 1 607 40 is_stmt 0 view .LVU254
 803 0142 A168     		ldr	r1, [r4, #8]
 607:../../Middlewares/LVGL/GUI/lvgl/src/misc/lv_fs.c **** 
 804              		.loc 1 607 47 view .LVU255
 805 0144 0B68     		ldr	r3, [r1]
 607:../../Middlewares/LVGL/GUI/lvgl/src/misc/lv_fs.c **** 
 806              		.loc 1 607 55 view .LVU256
 807 0146 059A     		ldr	r2, [sp, #20]
 808 0148 1344     		add	r3, r3, r2
 607:../../Middlewares/LVGL/GUI/lvgl/src/misc/lv_fs.c **** 
 809              		.loc 1 607 78 view .LVU257
 810 014a 013B     		subs	r3, r3, #1
 607:../../Middlewares/LVGL/GUI/lvgl/src/misc/lv_fs.c **** 
 811              		.loc 1 607 32 view .LVU258
 812 014c 4B60     		str	r3, [r1, #4]
 609:../../Middlewares/LVGL/GUI/lvgl/src/misc/lv_fs.c ****             lv_memcpy(buf, buffer, *br);
 813              		.loc 1 609 13 is_stmt 1 view .LVU259
 609:../../Middlewares/LVGL/GUI/lvgl/src/misc/lv_fs.c ****             lv_memcpy(buf, buffer, *br);
 814              		.loc 1 609 19 is_stmt 0 view .LVU260
ARM GAS  C:\Users\28576\AppData\Local\Temp\ccK3W8oA.s 			page 31


 815 014e AA42     		cmp	r2, r5
 816 0150 28BF     		it	cs
 817 0152 2A46     		movcs	r2, r5
 609:../../Middlewares/LVGL/GUI/lvgl/src/misc/lv_fs.c ****             lv_memcpy(buf, buffer, *br);
 818              		.loc 1 609 17 view .LVU261
 819 0154 CBF80020 		str	r2, [fp]
 610:../../Middlewares/LVGL/GUI/lvgl/src/misc/lv_fs.c **** 
 820              		.loc 1 610 13 is_stmt 1 view .LVU262
 821 0158 4146     		mov	r1, r8
 822 015a 4846     		mov	r0, r9
 823 015c FFF7FEFF 		bl	lv_memcpy
 824              	.LVL93:
 825 0160 A2E7     		b	.L32
 826              	.LVL94:
 827              	.L40:
 599:../../Middlewares/LVGL/GUI/lvgl/src/misc/lv_fs.c ****                 LV_ASSERT_MALLOC(file_p->cache->buffer);
 828              		.loc 1 599 17 view .LVU263
 599:../../Middlewares/LVGL/GUI/lvgl/src/misc/lv_fs.c ****                 LV_ASSERT_MALLOC(file_p->cache->buffer);
 829              		.loc 1 599 23 is_stmt 0 view .LVU264
 830 0162 D4F80880 		ldr	r8, [r4, #8]
 831              	.LVL95:
 599:../../Middlewares/LVGL/GUI/lvgl/src/misc/lv_fs.c ****                 LV_ASSERT_MALLOC(file_p->cache->buffer);
 832              		.loc 1 599 41 view .LVU265
 833 0166 5046     		mov	r0, r10
 834 0168 FFF7FEFF 		bl	lv_malloc
 835              	.LVL96:
 599:../../Middlewares/LVGL/GUI/lvgl/src/misc/lv_fs.c ****                 LV_ASSERT_MALLOC(file_p->cache->buffer);
 836              		.loc 1 599 39 discriminator 1 view .LVU266
 837 016c C8F80C00 		str	r0, [r8, #12]
 600:../../Middlewares/LVGL/GUI/lvgl/src/misc/lv_fs.c ****                 buffer = file_p->cache->buffer;
 838              		.loc 1 600 17 is_stmt 1 view .LVU267
 600:../../Middlewares/LVGL/GUI/lvgl/src/misc/lv_fs.c ****                 buffer = file_p->cache->buffer;
 839              		.loc 1 600 17 view .LVU268
 840 0170 A368     		ldr	r3, [r4, #8]
 841 0172 D3F80C80 		ldr	r8, [r3, #12]
 842 0176 B8F1000F 		cmp	r8, #0
 843 017a D4D1     		bne	.L34
 844              	.L35:
 600:../../Middlewares/LVGL/GUI/lvgl/src/misc/lv_fs.c ****                 buffer = file_p->cache->buffer;
 845              		.loc 1 600 17 view .LVU269
 600:../../Middlewares/LVGL/GUI/lvgl/src/misc/lv_fs.c ****                 buffer = file_p->cache->buffer;
 846              		.loc 1 600 17 view .LVU270
 600:../../Middlewares/LVGL/GUI/lvgl/src/misc/lv_fs.c ****                 buffer = file_p->cache->buffer;
 847              		.loc 1 600 17 view .LVU271
 600:../../Middlewares/LVGL/GUI/lvgl/src/misc/lv_fs.c ****                 buffer = file_p->cache->buffer;
 848              		.loc 1 600 17 view .LVU272
 600:../../Middlewares/LVGL/GUI/lvgl/src/misc/lv_fs.c ****                 buffer = file_p->cache->buffer;
 849              		.loc 1 600 17 view .LVU273
 850 017c FEE7     		b	.L35
 851              	.LBE13:
 852              		.cfi_endproc
 853              	.LFE208:
 855              		.section	.text.lv_fs_init,"ax",%progbits
 856              		.align	1
 857              		.global	lv_fs_init
 858              		.syntax unified
 859              		.thumb
ARM GAS  C:\Users\28576\AppData\Local\Temp\ccK3W8oA.s 			page 32


 860              		.thumb_func
 862              	lv_fs_init:
 863              	.LFB187:
  56:../../Middlewares/LVGL/GUI/lvgl/src/misc/lv_fs.c ****     lv_ll_init(fsdrv_ll_p, sizeof(lv_fs_drv_t *));
 864              		.loc 1 56 1 view -0
 865              		.cfi_startproc
 866              		@ args = 0, pretend = 0, frame = 0
 867              		@ frame_needed = 0, uses_anonymous_args = 0
 868 0000 08B5     		push	{r3, lr}
 869              	.LCFI12:
 870              		.cfi_def_cfa_offset 8
 871              		.cfi_offset 3, -8
 872              		.cfi_offset 14, -4
  57:../../Middlewares/LVGL/GUI/lvgl/src/misc/lv_fs.c **** }
 873              		.loc 1 57 5 view .LVU275
 874 0002 0421     		movs	r1, #4
 875 0004 0148     		ldr	r0, .L43
 876 0006 FFF7FEFF 		bl	lv_ll_init
 877              	.LVL97:
  58:../../Middlewares/LVGL/GUI/lvgl/src/misc/lv_fs.c **** 
 878              		.loc 1 58 1 is_stmt 0 view .LVU276
 879 000a 08BD     		pop	{r3, pc}
 880              	.L44:
 881              		.align	2
 882              	.L43:
 883 000c DC010000 		.word	lv_global+476
 884              		.cfi_endproc
 885              	.LFE187:
 887              		.section	.text.lv_fs_deinit,"ax",%progbits
 888              		.align	1
 889              		.global	lv_fs_deinit
 890              		.syntax unified
 891              		.thumb
 892              		.thumb_func
 894              	lv_fs_deinit:
 895              	.LFB188:
  61:../../Middlewares/LVGL/GUI/lvgl/src/misc/lv_fs.c ****     lv_ll_clear(fsdrv_ll_p);
 896              		.loc 1 61 1 is_stmt 1 view -0
 897              		.cfi_startproc
 898              		@ args = 0, pretend = 0, frame = 0
 899              		@ frame_needed = 0, uses_anonymous_args = 0
 900 0000 08B5     		push	{r3, lr}
 901              	.LCFI13:
 902              		.cfi_def_cfa_offset 8
 903              		.cfi_offset 3, -8
 904              		.cfi_offset 14, -4
  62:../../Middlewares/LVGL/GUI/lvgl/src/misc/lv_fs.c **** }
 905              		.loc 1 62 5 view .LVU278
 906 0002 0248     		ldr	r0, .L47
 907 0004 FFF7FEFF 		bl	lv_ll_clear
 908              	.LVL98:
  63:../../Middlewares/LVGL/GUI/lvgl/src/misc/lv_fs.c **** 
 909              		.loc 1 63 1 is_stmt 0 view .LVU279
 910 0008 08BD     		pop	{r3, pc}
 911              	.L48:
 912 000a 00BF     		.align	2
 913              	.L47:
ARM GAS  C:\Users\28576\AppData\Local\Temp\ccK3W8oA.s 			page 33


 914 000c DC010000 		.word	lv_global+476
 915              		.cfi_endproc
 916              	.LFE188:
 918              		.section	.text.lv_fs_make_path_from_buffer,"ax",%progbits
 919              		.align	1
 920              		.global	lv_fs_make_path_from_buffer
 921              		.syntax unified
 922              		.thumb
 923              		.thumb_func
 925              	lv_fs_make_path_from_buffer:
 926              	.LVL99:
 927              	.LFB191:
 146:../../Middlewares/LVGL/GUI/lvgl/src/misc/lv_fs.c ****     path->path[0] = letter;
 928              		.loc 1 146 1 is_stmt 1 view -0
 929              		.cfi_startproc
 930              		@ args = 0, pretend = 0, frame = 0
 931              		@ frame_needed = 0, uses_anonymous_args = 0
 932              		@ link register save eliminated.
 147:../../Middlewares/LVGL/GUI/lvgl/src/misc/lv_fs.c ****     path->path[1] = ':';
 933              		.loc 1 147 5 view .LVU281
 147:../../Middlewares/LVGL/GUI/lvgl/src/misc/lv_fs.c ****     path->path[1] = ':';
 934              		.loc 1 147 19 is_stmt 0 view .LVU282
 935 0000 0170     		strb	r1, [r0]
 148:../../Middlewares/LVGL/GUI/lvgl/src/misc/lv_fs.c ****     path->path[2] = 0;
 936              		.loc 1 148 5 is_stmt 1 view .LVU283
 148:../../Middlewares/LVGL/GUI/lvgl/src/misc/lv_fs.c ****     path->path[2] = 0;
 937              		.loc 1 148 19 is_stmt 0 view .LVU284
 938 0002 3A21     		movs	r1, #58
 939              	.LVL100:
 148:../../Middlewares/LVGL/GUI/lvgl/src/misc/lv_fs.c ****     path->path[2] = 0;
 940              		.loc 1 148 19 view .LVU285
 941 0004 4170     		strb	r1, [r0, #1]
 149:../../Middlewares/LVGL/GUI/lvgl/src/misc/lv_fs.c ****     path->buffer = buf;
 942              		.loc 1 149 5 is_stmt 1 view .LVU286
 149:../../Middlewares/LVGL/GUI/lvgl/src/misc/lv_fs.c ****     path->buffer = buf;
 943              		.loc 1 149 19 is_stmt 0 view .LVU287
 944 0006 0021     		movs	r1, #0
 945 0008 8170     		strb	r1, [r0, #2]
 150:../../Middlewares/LVGL/GUI/lvgl/src/misc/lv_fs.c ****     path->size = size;
 946              		.loc 1 150 5 is_stmt 1 view .LVU288
 150:../../Middlewares/LVGL/GUI/lvgl/src/misc/lv_fs.c ****     path->size = size;
 947              		.loc 1 150 18 is_stmt 0 view .LVU289
 948 000a 4260     		str	r2, [r0, #4]
 151:../../Middlewares/LVGL/GUI/lvgl/src/misc/lv_fs.c **** }
 949              		.loc 1 151 5 is_stmt 1 view .LVU290
 151:../../Middlewares/LVGL/GUI/lvgl/src/misc/lv_fs.c **** }
 950              		.loc 1 151 16 is_stmt 0 view .LVU291
 951 000c 8360     		str	r3, [r0, #8]
 152:../../Middlewares/LVGL/GUI/lvgl/src/misc/lv_fs.c **** 
 952              		.loc 1 152 1 view .LVU292
 953 000e 7047     		bx	lr
 954              		.cfi_endproc
 955              	.LFE191:
 957              		.section	.text.lv_fs_close,"ax",%progbits
 958              		.align	1
 959              		.global	lv_fs_close
 960              		.syntax unified
ARM GAS  C:\Users\28576\AppData\Local\Temp\ccK3W8oA.s 			page 34


 961              		.thumb
 962              		.thumb_func
 964              	lv_fs_close:
 965              	.LVL101:
 966              	.LFB192:
 155:../../Middlewares/LVGL/GUI/lvgl/src/misc/lv_fs.c ****     if(file_p->drv == NULL) {
 967              		.loc 1 155 1 is_stmt 1 view -0
 968              		.cfi_startproc
 969              		@ args = 0, pretend = 0, frame = 0
 970              		@ frame_needed = 0, uses_anonymous_args = 0
 155:../../Middlewares/LVGL/GUI/lvgl/src/misc/lv_fs.c ****     if(file_p->drv == NULL) {
 971              		.loc 1 155 1 is_stmt 0 view .LVU294
 972 0000 38B5     		push	{r3, r4, r5, lr}
 973              	.LCFI14:
 974              		.cfi_def_cfa_offset 16
 975              		.cfi_offset 3, -16
 976              		.cfi_offset 4, -12
 977              		.cfi_offset 5, -8
 978              		.cfi_offset 14, -4
 979 0002 0446     		mov	r4, r0
 156:../../Middlewares/LVGL/GUI/lvgl/src/misc/lv_fs.c ****         return LV_FS_RES_INV_PARAM;
 980              		.loc 1 156 5 is_stmt 1 view .LVU295
 156:../../Middlewares/LVGL/GUI/lvgl/src/misc/lv_fs.c ****         return LV_FS_RES_INV_PARAM;
 981              		.loc 1 156 14 is_stmt 0 view .LVU296
 982 0004 4068     		ldr	r0, [r0, #4]
 983              	.LVL102:
 156:../../Middlewares/LVGL/GUI/lvgl/src/misc/lv_fs.c ****         return LV_FS_RES_INV_PARAM;
 984              		.loc 1 156 7 view .LVU297
 985 0006 C8B1     		cbz	r0, .L54
 160:../../Middlewares/LVGL/GUI/lvgl/src/misc/lv_fs.c ****         return LV_FS_RES_NOT_IMP;
 986              		.loc 1 160 5 is_stmt 1 view .LVU298
 160:../../Middlewares/LVGL/GUI/lvgl/src/misc/lv_fs.c ****         return LV_FS_RES_NOT_IMP;
 987              		.loc 1 160 19 is_stmt 0 view .LVU299
 988 0008 0369     		ldr	r3, [r0, #16]
 160:../../Middlewares/LVGL/GUI/lvgl/src/misc/lv_fs.c ****         return LV_FS_RES_NOT_IMP;
 989              		.loc 1 160 7 view .LVU300
 990 000a D3B1     		cbz	r3, .L55
 164:../../Middlewares/LVGL/GUI/lvgl/src/misc/lv_fs.c **** 
 991              		.loc 1 164 25 is_stmt 1 view .LVU301
 166:../../Middlewares/LVGL/GUI/lvgl/src/misc/lv_fs.c **** 
 992              		.loc 1 166 5 view .LVU302
 166:../../Middlewares/LVGL/GUI/lvgl/src/misc/lv_fs.c **** 
 993              		.loc 1 166 23 is_stmt 0 view .LVU303
 994 000c 2168     		ldr	r1, [r4]
 995 000e 9847     		blx	r3
 996              	.LVL103:
 997 0010 0546     		mov	r5, r0
 998              	.LVL104:
 168:../../Middlewares/LVGL/GUI/lvgl/src/misc/lv_fs.c ****         /* Only free cache if it was pre-allocated (for memory-mapped files it is never allocated) 
 999              		.loc 1 168 5 is_stmt 1 view .LVU304
 168:../../Middlewares/LVGL/GUI/lvgl/src/misc/lv_fs.c ****         /* Only free cache if it was pre-allocated (for memory-mapped files it is never allocated) 
 1000              		.loc 1 168 14 is_stmt 0 view .LVU305
 1001 0012 6368     		ldr	r3, [r4, #4]
 168:../../Middlewares/LVGL/GUI/lvgl/src/misc/lv_fs.c ****         /* Only free cache if it was pre-allocated (for memory-mapped files it is never allocated) 
 1002              		.loc 1 168 19 view .LVU306
 1003 0014 5B68     		ldr	r3, [r3, #4]
 168:../../Middlewares/LVGL/GUI/lvgl/src/misc/lv_fs.c ****         /* Only free cache if it was pre-allocated (for memory-mapped files it is never allocated) 
ARM GAS  C:\Users\28576\AppData\Local\Temp\ccK3W8oA.s 			page 35


 1004              		.loc 1 168 7 view .LVU307
 1005 0016 5BB1     		cbz	r3, .L52
 168:../../Middlewares/LVGL/GUI/lvgl/src/misc/lv_fs.c ****         /* Only free cache if it was pre-allocated (for memory-mapped files it is never allocated) 
 1006              		.loc 1 168 41 discriminator 1 view .LVU308
 1007 0018 A268     		ldr	r2, [r4, #8]
 168:../../Middlewares/LVGL/GUI/lvgl/src/misc/lv_fs.c ****         /* Only free cache if it was pre-allocated (for memory-mapped files it is never allocated) 
 1008              		.loc 1 168 32 discriminator 1 view .LVU309
 1009 001a 4AB1     		cbz	r2, .L52
 170:../../Middlewares/LVGL/GUI/lvgl/src/misc/lv_fs.c ****             lv_free(file_p->cache->buffer);
 1010              		.loc 1 170 9 is_stmt 1 view .LVU310
 170:../../Middlewares/LVGL/GUI/lvgl/src/misc/lv_fs.c ****             lv_free(file_p->cache->buffer);
 1011              		.loc 1 170 11 is_stmt 0 view .LVU311
 1012 001c B3F1FF3F 		cmp	r3, #-1
 1013 0020 03D0     		beq	.L53
 170:../../Middlewares/LVGL/GUI/lvgl/src/misc/lv_fs.c ****             lv_free(file_p->cache->buffer);
 1014              		.loc 1 170 79 discriminator 1 view .LVU312
 1015 0022 D068     		ldr	r0, [r2, #12]
 170:../../Middlewares/LVGL/GUI/lvgl/src/misc/lv_fs.c ****             lv_free(file_p->cache->buffer);
 1016              		.loc 1 170 63 discriminator 1 view .LVU313
 1017 0024 08B1     		cbz	r0, .L53
 171:../../Middlewares/LVGL/GUI/lvgl/src/misc/lv_fs.c ****         }
 1018              		.loc 1 171 13 is_stmt 1 view .LVU314
 1019 0026 FFF7FEFF 		bl	lv_free
 1020              	.LVL105:
 1021              	.L53:
 174:../../Middlewares/LVGL/GUI/lvgl/src/misc/lv_fs.c ****     }
 1022              		.loc 1 174 9 view .LVU315
 1023 002a A068     		ldr	r0, [r4, #8]
 1024 002c FFF7FEFF 		bl	lv_free
 1025              	.LVL106:
 1026              	.L52:
 177:../../Middlewares/LVGL/GUI/lvgl/src/misc/lv_fs.c ****     file_p->drv    = NULL;
 1027              		.loc 1 177 5 view .LVU316
 177:../../Middlewares/LVGL/GUI/lvgl/src/misc/lv_fs.c ****     file_p->drv    = NULL;
 1028              		.loc 1 177 20 is_stmt 0 view .LVU317
 1029 0030 0023     		movs	r3, #0
 1030 0032 2360     		str	r3, [r4]
 178:../../Middlewares/LVGL/GUI/lvgl/src/misc/lv_fs.c ****     file_p->cache  = NULL;
 1031              		.loc 1 178 5 is_stmt 1 view .LVU318
 178:../../Middlewares/LVGL/GUI/lvgl/src/misc/lv_fs.c ****     file_p->cache  = NULL;
 1032              		.loc 1 178 20 is_stmt 0 view .LVU319
 1033 0034 6360     		str	r3, [r4, #4]
 179:../../Middlewares/LVGL/GUI/lvgl/src/misc/lv_fs.c **** 
 1034              		.loc 1 179 5 is_stmt 1 view .LVU320
 179:../../Middlewares/LVGL/GUI/lvgl/src/misc/lv_fs.c **** 
 1035              		.loc 1 179 20 is_stmt 0 view .LVU321
 1036 0036 A360     		str	r3, [r4, #8]
 181:../../Middlewares/LVGL/GUI/lvgl/src/misc/lv_fs.c **** 
 1037              		.loc 1 181 23 is_stmt 1 view .LVU322
 183:../../Middlewares/LVGL/GUI/lvgl/src/misc/lv_fs.c **** }
 1038              		.loc 1 183 5 view .LVU323
 1039              	.LVL107:
 1040              	.L51:
 184:../../Middlewares/LVGL/GUI/lvgl/src/misc/lv_fs.c **** 
 1041              		.loc 1 184 1 is_stmt 0 view .LVU324
 1042 0038 2846     		mov	r0, r5
 1043 003a 38BD     		pop	{r3, r4, r5, pc}
ARM GAS  C:\Users\28576\AppData\Local\Temp\ccK3W8oA.s 			page 36


 1044              	.LVL108:
 1045              	.L54:
 157:../../Middlewares/LVGL/GUI/lvgl/src/misc/lv_fs.c ****     }
 1046              		.loc 1 157 16 view .LVU325
 1047 003c 0B23     		movs	r3, #11
 1048 003e 1D46     		mov	r5, r3
 1049 0040 FAE7     		b	.L51
 1050              	.L55:
 161:../../Middlewares/LVGL/GUI/lvgl/src/misc/lv_fs.c ****     }
 1051              		.loc 1 161 16 view .LVU326
 1052 0042 0923     		movs	r3, #9
 1053 0044 1D46     		mov	r5, r3
 1054 0046 F7E7     		b	.L51
 1055              		.cfi_endproc
 1056              	.LFE192:
 1058              		.section	.text.lv_fs_read,"ax",%progbits
 1059              		.align	1
 1060              		.global	lv_fs_read
 1061              		.syntax unified
 1062              		.thumb
 1063              		.thumb_func
 1065              	lv_fs_read:
 1066              	.LVL109:
 1067              	.LFB193:
 187:../../Middlewares/LVGL/GUI/lvgl/src/misc/lv_fs.c ****     if(br != NULL) *br = 0;
 1068              		.loc 1 187 1 is_stmt 1 view -0
 1069              		.cfi_startproc
 1070              		@ args = 0, pretend = 0, frame = 8
 1071              		@ frame_needed = 0, uses_anonymous_args = 0
 187:../../Middlewares/LVGL/GUI/lvgl/src/misc/lv_fs.c ****     if(br != NULL) *br = 0;
 1072              		.loc 1 187 1 is_stmt 0 view .LVU328
 1073 0000 30B5     		push	{r4, r5, lr}
 1074              	.LCFI15:
 1075              		.cfi_def_cfa_offset 12
 1076              		.cfi_offset 4, -12
 1077              		.cfi_offset 5, -8
 1078              		.cfi_offset 14, -4
 1079 0002 85B0     		sub	sp, sp, #20
 1080              	.LCFI16:
 1081              		.cfi_def_cfa_offset 32
 1082 0004 8446     		mov	ip, r0
 188:../../Middlewares/LVGL/GUI/lvgl/src/misc/lv_fs.c ****     if(file_p->drv == NULL) return LV_FS_RES_INV_PARAM;
 1083              		.loc 1 188 5 is_stmt 1 view .LVU329
 188:../../Middlewares/LVGL/GUI/lvgl/src/misc/lv_fs.c ****     if(file_p->drv == NULL) return LV_FS_RES_INV_PARAM;
 1084              		.loc 1 188 7 is_stmt 0 view .LVU330
 1085 0006 1C46     		mov	r4, r3
 1086 0008 0BB1     		cbz	r3, .L58
 188:../../Middlewares/LVGL/GUI/lvgl/src/misc/lv_fs.c ****     if(file_p->drv == NULL) return LV_FS_RES_INV_PARAM;
 1087              		.loc 1 188 20 is_stmt 1 discriminator 1 view .LVU331
 188:../../Middlewares/LVGL/GUI/lvgl/src/misc/lv_fs.c ****     if(file_p->drv == NULL) return LV_FS_RES_INV_PARAM;
 1088              		.loc 1 188 24 is_stmt 0 discriminator 1 view .LVU332
 1089 000a 0023     		movs	r3, #0
 1090              	.LVL110:
 188:../../Middlewares/LVGL/GUI/lvgl/src/misc/lv_fs.c ****     if(file_p->drv == NULL) return LV_FS_RES_INV_PARAM;
 1091              		.loc 1 188 24 discriminator 1 view .LVU333
 1092 000c 2360     		str	r3, [r4]
 1093              	.L58:
ARM GAS  C:\Users\28576\AppData\Local\Temp\ccK3W8oA.s 			page 37


 189:../../Middlewares/LVGL/GUI/lvgl/src/misc/lv_fs.c **** 
 1094              		.loc 1 189 5 is_stmt 1 view .LVU334
 189:../../Middlewares/LVGL/GUI/lvgl/src/misc/lv_fs.c **** 
 1095              		.loc 1 189 14 is_stmt 0 view .LVU335
 1096 000e DCF80400 		ldr	r0, [ip, #4]
 1097              	.LVL111:
 189:../../Middlewares/LVGL/GUI/lvgl/src/misc/lv_fs.c **** 
 1098              		.loc 1 189 7 view .LVU336
 1099 0012 08B3     		cbz	r0, .L64
 191:../../Middlewares/LVGL/GUI/lvgl/src/misc/lv_fs.c ****         if(file_p->drv->read_cb == NULL || file_p->drv->seek_cb == NULL) return LV_FS_RES_NOT_IMP;
 1100              		.loc 1 191 5 is_stmt 1 view .LVU337
 191:../../Middlewares/LVGL/GUI/lvgl/src/misc/lv_fs.c ****         if(file_p->drv->read_cb == NULL || file_p->drv->seek_cb == NULL) return LV_FS_RES_NOT_IMP;
 1101              		.loc 1 191 19 is_stmt 0 view .LVU338
 1102 0014 4368     		ldr	r3, [r0, #4]
 191:../../Middlewares/LVGL/GUI/lvgl/src/misc/lv_fs.c ****         if(file_p->drv->read_cb == NULL || file_p->drv->seek_cb == NULL) return LV_FS_RES_NOT_IMP;
 1103              		.loc 1 191 7 view .LVU339
 1104 0016 2BB1     		cbz	r3, .L60
 192:../../Middlewares/LVGL/GUI/lvgl/src/misc/lv_fs.c ****     }
 1105              		.loc 1 192 9 is_stmt 1 view .LVU340
 192:../../Middlewares/LVGL/GUI/lvgl/src/misc/lv_fs.c ****     }
 1106              		.loc 1 192 11 is_stmt 0 view .LVU341
 1107 0018 4569     		ldr	r5, [r0, #20]
 1108 001a FDB1     		cbz	r5, .L65
 192:../../Middlewares/LVGL/GUI/lvgl/src/misc/lv_fs.c ****     }
 1109              		.loc 1 192 41 discriminator 2 view .LVU342
 1110 001c C569     		ldr	r5, [r0, #28]
 1111 001e 1DB9     		cbnz	r5, .L61
 192:../../Middlewares/LVGL/GUI/lvgl/src/misc/lv_fs.c ****     }
 1112              		.loc 1 192 81 discriminator 3 view .LVU343
 1113 0020 0920     		movs	r0, #9
 1114 0022 12E0     		b	.L59
 1115              	.L60:
 195:../../Middlewares/LVGL/GUI/lvgl/src/misc/lv_fs.c ****     }
 1116              		.loc 1 195 9 is_stmt 1 view .LVU344
 195:../../Middlewares/LVGL/GUI/lvgl/src/misc/lv_fs.c ****     }
 1117              		.loc 1 195 11 is_stmt 0 view .LVU345
 1118 0024 4569     		ldr	r5, [r0, #20]
 1119 0026 DDB1     		cbz	r5, .L67
 1120              	.L61:
 198:../../Middlewares/LVGL/GUI/lvgl/src/misc/lv_fs.c **** 
 1121              		.loc 1 198 25 is_stmt 1 view .LVU346
 200:../../Middlewares/LVGL/GUI/lvgl/src/misc/lv_fs.c ****     lv_fs_res_t res;
 1122              		.loc 1 200 5 view .LVU347
 200:../../Middlewares/LVGL/GUI/lvgl/src/misc/lv_fs.c ****     lv_fs_res_t res;
 1123              		.loc 1 200 14 is_stmt 0 view .LVU348
 1124 0028 4FF0000E 		mov	lr, #0
 1125 002c CDF80CE0 		str	lr, [sp, #12]
 201:../../Middlewares/LVGL/GUI/lvgl/src/misc/lv_fs.c **** 
 1126              		.loc 1 201 5 is_stmt 1 view .LVU349
 203:../../Middlewares/LVGL/GUI/lvgl/src/misc/lv_fs.c ****         res = lv_fs_read_cached(file_p, buf, btr, &br_tmp);
 1127              		.loc 1 203 5 view .LVU350
 203:../../Middlewares/LVGL/GUI/lvgl/src/misc/lv_fs.c ****         res = lv_fs_read_cached(file_p, buf, btr, &br_tmp);
 1128              		.loc 1 203 7 is_stmt 0 view .LVU351
 1129 0030 6BB9     		cbnz	r3, .L69
 207:../../Middlewares/LVGL/GUI/lvgl/src/misc/lv_fs.c ****     }
 1130              		.loc 1 207 9 is_stmt 1 view .LVU352
 207:../../Middlewares/LVGL/GUI/lvgl/src/misc/lv_fs.c ****     }
ARM GAS  C:\Users\28576\AppData\Local\Temp\ccK3W8oA.s 			page 38


 1131              		.loc 1 207 26 is_stmt 0 view .LVU353
 1132 0032 4369     		ldr	r3, [r0, #20]
 1133 0034 1D46     		mov	r5, r3
 207:../../Middlewares/LVGL/GUI/lvgl/src/misc/lv_fs.c ****     }
 1134              		.loc 1 207 15 view .LVU354
 1135 0036 03AB     		add	r3, sp, #12
 1136 0038 0093     		str	r3, [sp]
 1137 003a 1346     		mov	r3, r2
 1138 003c 0A46     		mov	r2, r1
 1139              	.LVL112:
 207:../../Middlewares/LVGL/GUI/lvgl/src/misc/lv_fs.c ****     }
 1140              		.loc 1 207 15 view .LVU355
 1141 003e DCF80010 		ldr	r1, [ip]
 1142              	.LVL113:
 207:../../Middlewares/LVGL/GUI/lvgl/src/misc/lv_fs.c ****     }
 1143              		.loc 1 207 15 view .LVU356
 1144 0042 A847     		blx	r5
 1145              	.LVL114:
 1146              	.L63:
 210:../../Middlewares/LVGL/GUI/lvgl/src/misc/lv_fs.c **** 
 1147              		.loc 1 210 5 is_stmt 1 view .LVU357
 210:../../Middlewares/LVGL/GUI/lvgl/src/misc/lv_fs.c **** 
 1148              		.loc 1 210 7 is_stmt 0 view .LVU358
 1149 0044 0CB1     		cbz	r4, .L59
 210:../../Middlewares/LVGL/GUI/lvgl/src/misc/lv_fs.c **** 
 1150              		.loc 1 210 20 is_stmt 1 discriminator 1 view .LVU359
 210:../../Middlewares/LVGL/GUI/lvgl/src/misc/lv_fs.c **** 
 1151              		.loc 1 210 24 is_stmt 0 discriminator 1 view .LVU360
 1152 0046 039B     		ldr	r3, [sp, #12]
 1153 0048 2360     		str	r3, [r4]
 1154              	.LVL115:
 1155              	.L59:
 215:../../Middlewares/LVGL/GUI/lvgl/src/misc/lv_fs.c **** 
 1156              		.loc 1 215 1 view .LVU361
 1157 004a 05B0     		add	sp, sp, #20
 1158              	.LCFI17:
 1159              		.cfi_remember_state
 1160              		.cfi_def_cfa_offset 12
 1161              		@ sp needed
 1162 004c 30BD     		pop	{r4, r5, pc}
 1163              	.LVL116:
 1164              	.L69:
 1165              	.LCFI18:
 1166              		.cfi_restore_state
 204:../../Middlewares/LVGL/GUI/lvgl/src/misc/lv_fs.c ****     }
 1167              		.loc 1 204 9 is_stmt 1 view .LVU362
 204:../../Middlewares/LVGL/GUI/lvgl/src/misc/lv_fs.c ****     }
 1168              		.loc 1 204 15 is_stmt 0 view .LVU363
 1169 004e 03AB     		add	r3, sp, #12
 1170 0050 6046     		mov	r0, ip
 1171 0052 FFF7FEFF 		bl	lv_fs_read_cached
 1172              	.LVL117:
 204:../../Middlewares/LVGL/GUI/lvgl/src/misc/lv_fs.c ****     }
 1173              		.loc 1 204 15 view .LVU364
 1174 0056 F5E7     		b	.L63
 1175              	.LVL118:
 1176              	.L64:
ARM GAS  C:\Users\28576\AppData\Local\Temp\ccK3W8oA.s 			page 39


 189:../../Middlewares/LVGL/GUI/lvgl/src/misc/lv_fs.c **** 
 1177              		.loc 1 189 36 discriminator 1 view .LVU365
 1178 0058 0B20     		movs	r0, #11
 1179 005a F6E7     		b	.L59
 1180              	.L65:
 192:../../Middlewares/LVGL/GUI/lvgl/src/misc/lv_fs.c ****     }
 1181              		.loc 1 192 81 discriminator 3 view .LVU366
 1182 005c 0920     		movs	r0, #9
 1183 005e F4E7     		b	.L59
 1184              	.L67:
 195:../../Middlewares/LVGL/GUI/lvgl/src/misc/lv_fs.c ****     }
 1185              		.loc 1 195 49 discriminator 1 view .LVU367
 1186 0060 0920     		movs	r0, #9
 1187 0062 F2E7     		b	.L59
 1188              		.cfi_endproc
 1189              	.LFE193:
 1191              		.section	.text.lv_fs_write,"ax",%progbits
 1192              		.align	1
 1193              		.global	lv_fs_write
 1194              		.syntax unified
 1195              		.thumb
 1196              		.thumb_func
 1198              	lv_fs_write:
 1199              	.LVL119:
 1200              	.LFB194:
 218:../../Middlewares/LVGL/GUI/lvgl/src/misc/lv_fs.c ****     if(bw != NULL) *bw = 0;
 1201              		.loc 1 218 1 is_stmt 1 view -0
 1202              		.cfi_startproc
 1203              		@ args = 0, pretend = 0, frame = 8
 1204              		@ frame_needed = 0, uses_anonymous_args = 0
 218:../../Middlewares/LVGL/GUI/lvgl/src/misc/lv_fs.c ****     if(bw != NULL) *bw = 0;
 1205              		.loc 1 218 1 is_stmt 0 view .LVU369
 1206 0000 30B5     		push	{r4, r5, lr}
 1207              	.LCFI19:
 1208              		.cfi_def_cfa_offset 12
 1209              		.cfi_offset 4, -12
 1210              		.cfi_offset 5, -8
 1211              		.cfi_offset 14, -4
 1212 0002 85B0     		sub	sp, sp, #20
 1213              	.LCFI20:
 1214              		.cfi_def_cfa_offset 32
 1215 0004 8446     		mov	ip, r0
 219:../../Middlewares/LVGL/GUI/lvgl/src/misc/lv_fs.c **** 
 1216              		.loc 1 219 5 is_stmt 1 view .LVU370
 219:../../Middlewares/LVGL/GUI/lvgl/src/misc/lv_fs.c **** 
 1217              		.loc 1 219 7 is_stmt 0 view .LVU371
 1218 0006 1C46     		mov	r4, r3
 1219 0008 0BB1     		cbz	r3, .L71
 219:../../Middlewares/LVGL/GUI/lvgl/src/misc/lv_fs.c **** 
 1220              		.loc 1 219 20 is_stmt 1 discriminator 1 view .LVU372
 219:../../Middlewares/LVGL/GUI/lvgl/src/misc/lv_fs.c **** 
 1221              		.loc 1 219 24 is_stmt 0 discriminator 1 view .LVU373
 1222 000a 0023     		movs	r3, #0
 1223              	.LVL120:
 219:../../Middlewares/LVGL/GUI/lvgl/src/misc/lv_fs.c **** 
 1224              		.loc 1 219 24 discriminator 1 view .LVU374
 1225 000c 2360     		str	r3, [r4]
ARM GAS  C:\Users\28576\AppData\Local\Temp\ccK3W8oA.s 			page 40


 1226              	.L71:
 221:../../Middlewares/LVGL/GUI/lvgl/src/misc/lv_fs.c ****         return LV_FS_RES_INV_PARAM;
 1227              		.loc 1 221 5 is_stmt 1 view .LVU375
 221:../../Middlewares/LVGL/GUI/lvgl/src/misc/lv_fs.c ****         return LV_FS_RES_INV_PARAM;
 1228              		.loc 1 221 14 is_stmt 0 view .LVU376
 1229 000e DCF80400 		ldr	r0, [ip, #4]
 1230              	.LVL121:
 221:../../Middlewares/LVGL/GUI/lvgl/src/misc/lv_fs.c ****         return LV_FS_RES_INV_PARAM;
 1231              		.loc 1 221 7 view .LVU377
 1232 0012 08B3     		cbz	r0, .L77
 225:../../Middlewares/LVGL/GUI/lvgl/src/misc/lv_fs.c ****         if(file_p->drv->write_cb == NULL || file_p->drv->seek_cb == NULL) return LV_FS_RES_NOT_IMP;
 1233              		.loc 1 225 5 is_stmt 1 view .LVU378
 225:../../Middlewares/LVGL/GUI/lvgl/src/misc/lv_fs.c ****         if(file_p->drv->write_cb == NULL || file_p->drv->seek_cb == NULL) return LV_FS_RES_NOT_IMP;
 1234              		.loc 1 225 19 is_stmt 0 view .LVU379
 1235 0014 4368     		ldr	r3, [r0, #4]
 225:../../Middlewares/LVGL/GUI/lvgl/src/misc/lv_fs.c ****         if(file_p->drv->write_cb == NULL || file_p->drv->seek_cb == NULL) return LV_FS_RES_NOT_IMP;
 1236              		.loc 1 225 7 view .LVU380
 1237 0016 2BB1     		cbz	r3, .L73
 226:../../Middlewares/LVGL/GUI/lvgl/src/misc/lv_fs.c ****     }
 1238              		.loc 1 226 9 is_stmt 1 view .LVU381
 226:../../Middlewares/LVGL/GUI/lvgl/src/misc/lv_fs.c ****     }
 1239              		.loc 1 226 11 is_stmt 0 view .LVU382
 1240 0018 8569     		ldr	r5, [r0, #24]
 1241 001a FDB1     		cbz	r5, .L78
 226:../../Middlewares/LVGL/GUI/lvgl/src/misc/lv_fs.c ****     }
 1242              		.loc 1 226 42 discriminator 2 view .LVU383
 1243 001c C569     		ldr	r5, [r0, #28]
 1244 001e 1DB9     		cbnz	r5, .L74
 226:../../Middlewares/LVGL/GUI/lvgl/src/misc/lv_fs.c ****     }
 1245              		.loc 1 226 82 discriminator 3 view .LVU384
 1246 0020 0920     		movs	r0, #9
 1247 0022 12E0     		b	.L72
 1248              	.L73:
 229:../../Middlewares/LVGL/GUI/lvgl/src/misc/lv_fs.c ****     }
 1249              		.loc 1 229 9 is_stmt 1 view .LVU385
 229:../../Middlewares/LVGL/GUI/lvgl/src/misc/lv_fs.c ****     }
 1250              		.loc 1 229 11 is_stmt 0 view .LVU386
 1251 0024 8569     		ldr	r5, [r0, #24]
 1252 0026 DDB1     		cbz	r5, .L80
 1253              	.L74:
 232:../../Middlewares/LVGL/GUI/lvgl/src/misc/lv_fs.c **** 
 1254              		.loc 1 232 25 is_stmt 1 view .LVU387
 234:../../Middlewares/LVGL/GUI/lvgl/src/misc/lv_fs.c ****     uint32_t bw_tmp = 0;
 1255              		.loc 1 234 5 view .LVU388
 235:../../Middlewares/LVGL/GUI/lvgl/src/misc/lv_fs.c ****     if(file_p->drv->cache_size) {
 1256              		.loc 1 235 5 view .LVU389
 235:../../Middlewares/LVGL/GUI/lvgl/src/misc/lv_fs.c ****     if(file_p->drv->cache_size) {
 1257              		.loc 1 235 14 is_stmt 0 view .LVU390
 1258 0028 4FF0000E 		mov	lr, #0
 1259 002c CDF80CE0 		str	lr, [sp, #12]
 236:../../Middlewares/LVGL/GUI/lvgl/src/misc/lv_fs.c ****         res = lv_fs_write_cached(file_p, buf, btw, &bw_tmp);
 1260              		.loc 1 236 5 is_stmt 1 view .LVU391
 236:../../Middlewares/LVGL/GUI/lvgl/src/misc/lv_fs.c ****         res = lv_fs_write_cached(file_p, buf, btw, &bw_tmp);
 1261              		.loc 1 236 7 is_stmt 0 view .LVU392
 1262 0030 6BB9     		cbnz	r3, .L82
 240:../../Middlewares/LVGL/GUI/lvgl/src/misc/lv_fs.c ****     }
 1263              		.loc 1 240 9 is_stmt 1 view .LVU393
ARM GAS  C:\Users\28576\AppData\Local\Temp\ccK3W8oA.s 			page 41


 240:../../Middlewares/LVGL/GUI/lvgl/src/misc/lv_fs.c ****     }
 1264              		.loc 1 240 26 is_stmt 0 view .LVU394
 1265 0032 8369     		ldr	r3, [r0, #24]
 1266 0034 1D46     		mov	r5, r3
 240:../../Middlewares/LVGL/GUI/lvgl/src/misc/lv_fs.c ****     }
 1267              		.loc 1 240 15 view .LVU395
 1268 0036 03AB     		add	r3, sp, #12
 1269 0038 0093     		str	r3, [sp]
 1270 003a 1346     		mov	r3, r2
 1271 003c 0A46     		mov	r2, r1
 1272              	.LVL122:
 240:../../Middlewares/LVGL/GUI/lvgl/src/misc/lv_fs.c ****     }
 1273              		.loc 1 240 15 view .LVU396
 1274 003e DCF80010 		ldr	r1, [ip]
 1275              	.LVL123:
 240:../../Middlewares/LVGL/GUI/lvgl/src/misc/lv_fs.c ****     }
 1276              		.loc 1 240 15 view .LVU397
 1277 0042 A847     		blx	r5
 1278              	.LVL124:
 1279              	.L76:
 242:../../Middlewares/LVGL/GUI/lvgl/src/misc/lv_fs.c **** 
 1280              		.loc 1 242 5 is_stmt 1 view .LVU398
 242:../../Middlewares/LVGL/GUI/lvgl/src/misc/lv_fs.c **** 
 1281              		.loc 1 242 7 is_stmt 0 view .LVU399
 1282 0044 0CB1     		cbz	r4, .L72
 242:../../Middlewares/LVGL/GUI/lvgl/src/misc/lv_fs.c **** 
 1283              		.loc 1 242 20 is_stmt 1 discriminator 1 view .LVU400
 242:../../Middlewares/LVGL/GUI/lvgl/src/misc/lv_fs.c **** 
 1284              		.loc 1 242 24 is_stmt 0 discriminator 1 view .LVU401
 1285 0046 039B     		ldr	r3, [sp, #12]
 1286 0048 2360     		str	r3, [r4]
 1287              	.LVL125:
 1288              	.L72:
 246:../../Middlewares/LVGL/GUI/lvgl/src/misc/lv_fs.c **** 
 1289              		.loc 1 246 1 view .LVU402
 1290 004a 05B0     		add	sp, sp, #20
 1291              	.LCFI21:
 1292              		.cfi_remember_state
 1293              		.cfi_def_cfa_offset 12
 1294              		@ sp needed
 1295 004c 30BD     		pop	{r4, r5, pc}
 1296              	.LVL126:
 1297              	.L82:
 1298              	.LCFI22:
 1299              		.cfi_restore_state
 237:../../Middlewares/LVGL/GUI/lvgl/src/misc/lv_fs.c ****     }
 1300              		.loc 1 237 9 is_stmt 1 view .LVU403
 237:../../Middlewares/LVGL/GUI/lvgl/src/misc/lv_fs.c ****     }
 1301              		.loc 1 237 15 is_stmt 0 view .LVU404
 1302 004e 03AB     		add	r3, sp, #12
 1303 0050 6046     		mov	r0, ip
 1304 0052 FFF7FEFF 		bl	lv_fs_write_cached
 1305              	.LVL127:
 237:../../Middlewares/LVGL/GUI/lvgl/src/misc/lv_fs.c ****     }
 1306              		.loc 1 237 15 view .LVU405
 1307 0056 F5E7     		b	.L76
 1308              	.LVL128:
ARM GAS  C:\Users\28576\AppData\Local\Temp\ccK3W8oA.s 			page 42


 1309              	.L77:
 222:../../Middlewares/LVGL/GUI/lvgl/src/misc/lv_fs.c ****     }
 1310              		.loc 1 222 16 view .LVU406
 1311 0058 0B20     		movs	r0, #11
 1312 005a F6E7     		b	.L72
 1313              	.L78:
 226:../../Middlewares/LVGL/GUI/lvgl/src/misc/lv_fs.c ****     }
 1314              		.loc 1 226 82 discriminator 3 view .LVU407
 1315 005c 0920     		movs	r0, #9
 1316 005e F4E7     		b	.L72
 1317              	.L80:
 229:../../Middlewares/LVGL/GUI/lvgl/src/misc/lv_fs.c ****     }
 1318              		.loc 1 229 50 discriminator 1 view .LVU408
 1319 0060 0920     		movs	r0, #9
 1320 0062 F2E7     		b	.L72
 1321              		.cfi_endproc
 1322              	.LFE194:
 1324              		.section	.text.lv_fs_seek,"ax",%progbits
 1325              		.align	1
 1326              		.global	lv_fs_seek
 1327              		.syntax unified
 1328              		.thumb
 1329              		.thumb_func
 1331              	lv_fs_seek:
 1332              	.LVL129:
 1333              	.LFB195:
 249:../../Middlewares/LVGL/GUI/lvgl/src/misc/lv_fs.c ****     if(file_p->drv == NULL) {
 1334              		.loc 1 249 1 is_stmt 1 view -0
 1335              		.cfi_startproc
 1336              		@ args = 0, pretend = 0, frame = 0
 1337              		@ frame_needed = 0, uses_anonymous_args = 0
 249:../../Middlewares/LVGL/GUI/lvgl/src/misc/lv_fs.c ****     if(file_p->drv == NULL) {
 1338              		.loc 1 249 1 is_stmt 0 view .LVU410
 1339 0000 8446     		mov	ip, r0
 250:../../Middlewares/LVGL/GUI/lvgl/src/misc/lv_fs.c ****         return LV_FS_RES_INV_PARAM;
 1340              		.loc 1 250 5 is_stmt 1 view .LVU411
 250:../../Middlewares/LVGL/GUI/lvgl/src/misc/lv_fs.c ****         return LV_FS_RES_INV_PARAM;
 1341              		.loc 1 250 14 is_stmt 0 view .LVU412
 1342 0002 4068     		ldr	r0, [r0, #4]
 1343              	.LVL130:
 250:../../Middlewares/LVGL/GUI/lvgl/src/misc/lv_fs.c ****         return LV_FS_RES_INV_PARAM;
 1344              		.loc 1 250 7 view .LVU413
 1345 0004 B8B1     		cbz	r0, .L88
 249:../../Middlewares/LVGL/GUI/lvgl/src/misc/lv_fs.c ****     if(file_p->drv == NULL) {
 1346              		.loc 1 249 1 view .LVU414
 1347 0006 10B5     		push	{r4, lr}
 1348              	.LCFI23:
 1349              		.cfi_def_cfa_offset 8
 1350              		.cfi_offset 4, -8
 1351              		.cfi_offset 14, -4
 254:../../Middlewares/LVGL/GUI/lvgl/src/misc/lv_fs.c ****         if(file_p->drv->seek_cb == NULL || file_p->drv->tell_cb == NULL) return LV_FS_RES_NOT_IMP;
 1352              		.loc 1 254 5 is_stmt 1 view .LVU415
 254:../../Middlewares/LVGL/GUI/lvgl/src/misc/lv_fs.c ****         if(file_p->drv->seek_cb == NULL || file_p->drv->tell_cb == NULL) return LV_FS_RES_NOT_IMP;
 1353              		.loc 1 254 19 is_stmt 0 view .LVU416
 1354 0008 4368     		ldr	r3, [r0, #4]
 254:../../Middlewares/LVGL/GUI/lvgl/src/misc/lv_fs.c ****         if(file_p->drv->seek_cb == NULL || file_p->drv->tell_cb == NULL) return LV_FS_RES_NOT_IMP;
 1355              		.loc 1 254 7 view .LVU417
ARM GAS  C:\Users\28576\AppData\Local\Temp\ccK3W8oA.s 			page 43


 1356 000a 2BB1     		cbz	r3, .L85
 255:../../Middlewares/LVGL/GUI/lvgl/src/misc/lv_fs.c ****     }
 1357              		.loc 1 255 9 is_stmt 1 view .LVU418
 255:../../Middlewares/LVGL/GUI/lvgl/src/misc/lv_fs.c ****     }
 1358              		.loc 1 255 11 is_stmt 0 view .LVU419
 1359 000c C469     		ldr	r4, [r0, #28]
 1360 000e A4B1     		cbz	r4, .L89
 255:../../Middlewares/LVGL/GUI/lvgl/src/misc/lv_fs.c ****     }
 1361              		.loc 1 255 41 discriminator 2 view .LVU420
 1362 0010 046A     		ldr	r4, [r0, #32]
 1363 0012 1CB9     		cbnz	r4, .L86
 255:../../Middlewares/LVGL/GUI/lvgl/src/misc/lv_fs.c ****     }
 1364              		.loc 1 255 81 discriminator 3 view .LVU421
 1365 0014 0920     		movs	r0, #9
 1366 0016 09E0     		b	.L84
 1367              	.L85:
 258:../../Middlewares/LVGL/GUI/lvgl/src/misc/lv_fs.c ****     }
 1368              		.loc 1 258 9 is_stmt 1 view .LVU422
 258:../../Middlewares/LVGL/GUI/lvgl/src/misc/lv_fs.c ****     }
 1369              		.loc 1 258 11 is_stmt 0 view .LVU423
 1370 0018 C469     		ldr	r4, [r0, #28]
 1371 001a 84B1     		cbz	r4, .L91
 1372              	.L86:
 261:../../Middlewares/LVGL/GUI/lvgl/src/misc/lv_fs.c **** 
 1373              		.loc 1 261 25 is_stmt 1 view .LVU424
 263:../../Middlewares/LVGL/GUI/lvgl/src/misc/lv_fs.c ****     if(file_p->drv->cache_size) {
 1374              		.loc 1 263 5 view .LVU425
 264:../../Middlewares/LVGL/GUI/lvgl/src/misc/lv_fs.c ****         res = lv_fs_seek_cached(file_p, pos, whence);
 1375              		.loc 1 264 5 view .LVU426
 264:../../Middlewares/LVGL/GUI/lvgl/src/misc/lv_fs.c ****         res = lv_fs_seek_cached(file_p, pos, whence);
 1376              		.loc 1 264 7 is_stmt 0 view .LVU427
 1377 001c 3BB9     		cbnz	r3, .L96
 268:../../Middlewares/LVGL/GUI/lvgl/src/misc/lv_fs.c ****     }
 1378              		.loc 1 268 9 is_stmt 1 view .LVU428
 268:../../Middlewares/LVGL/GUI/lvgl/src/misc/lv_fs.c ****     }
 1379              		.loc 1 268 26 is_stmt 0 view .LVU429
 1380 001e C369     		ldr	r3, [r0, #28]
 1381 0020 1C46     		mov	r4, r3
 268:../../Middlewares/LVGL/GUI/lvgl/src/misc/lv_fs.c ****     }
 1382              		.loc 1 268 15 view .LVU430
 1383 0022 1346     		mov	r3, r2
 1384 0024 0A46     		mov	r2, r1
 1385              	.LVL131:
 268:../../Middlewares/LVGL/GUI/lvgl/src/misc/lv_fs.c ****     }
 1386              		.loc 1 268 15 view .LVU431
 1387 0026 DCF80010 		ldr	r1, [ip]
 1388              	.LVL132:
 268:../../Middlewares/LVGL/GUI/lvgl/src/misc/lv_fs.c ****     }
 1389              		.loc 1 268 15 view .LVU432
 1390 002a A047     		blx	r4
 1391              	.LVL133:
 1392              	.L84:
 274:../../Middlewares/LVGL/GUI/lvgl/src/misc/lv_fs.c **** 
 1393              		.loc 1 274 1 view .LVU433
 1394 002c 10BD     		pop	{r4, pc}
 1395              	.LVL134:
 1396              	.L96:
ARM GAS  C:\Users\28576\AppData\Local\Temp\ccK3W8oA.s 			page 44


 265:../../Middlewares/LVGL/GUI/lvgl/src/misc/lv_fs.c ****     }
 1397              		.loc 1 265 9 is_stmt 1 view .LVU434
 265:../../Middlewares/LVGL/GUI/lvgl/src/misc/lv_fs.c ****     }
 1398              		.loc 1 265 15 is_stmt 0 view .LVU435
 1399 002e 6046     		mov	r0, ip
 1400 0030 FFF7FEFF 		bl	lv_fs_seek_cached
 1401              	.LVL135:
 265:../../Middlewares/LVGL/GUI/lvgl/src/misc/lv_fs.c ****     }
 1402              		.loc 1 265 15 view .LVU436
 1403 0034 FAE7     		b	.L84
 1404              	.LVL136:
 1405              	.L88:
 1406              	.LCFI24:
 1407              		.cfi_def_cfa_offset 0
 1408              		.cfi_restore 4
 1409              		.cfi_restore 14
 251:../../Middlewares/LVGL/GUI/lvgl/src/misc/lv_fs.c ****     }
 1410              		.loc 1 251 16 view .LVU437
 1411 0036 0B20     		movs	r0, #11
 274:../../Middlewares/LVGL/GUI/lvgl/src/misc/lv_fs.c **** 
 1412              		.loc 1 274 1 view .LVU438
 1413 0038 7047     		bx	lr
 1414              	.L89:
 1415              	.LCFI25:
 1416              		.cfi_def_cfa_offset 8
 1417              		.cfi_offset 4, -8
 1418              		.cfi_offset 14, -4
 255:../../Middlewares/LVGL/GUI/lvgl/src/misc/lv_fs.c ****     }
 1419              		.loc 1 255 81 discriminator 3 view .LVU439
 1420 003a 0920     		movs	r0, #9
 1421 003c F6E7     		b	.L84
 1422              	.L91:
 258:../../Middlewares/LVGL/GUI/lvgl/src/misc/lv_fs.c ****     }
 1423              		.loc 1 258 49 discriminator 1 view .LVU440
 1424 003e 0920     		movs	r0, #9
 1425 0040 F4E7     		b	.L84
 1426              		.cfi_endproc
 1427              	.LFE195:
 1429              		.section	.text.lv_fs_tell,"ax",%progbits
 1430              		.align	1
 1431              		.global	lv_fs_tell
 1432              		.syntax unified
 1433              		.thumb
 1434              		.thumb_func
 1436              	lv_fs_tell:
 1437              	.LVL137:
 1438              	.LFB196:
 277:../../Middlewares/LVGL/GUI/lvgl/src/misc/lv_fs.c ****     if(file_p->drv == NULL) {
 1439              		.loc 1 277 1 is_stmt 1 view -0
 1440              		.cfi_startproc
 1441              		@ args = 0, pretend = 0, frame = 0
 1442              		@ frame_needed = 0, uses_anonymous_args = 0
 277:../../Middlewares/LVGL/GUI/lvgl/src/misc/lv_fs.c ****     if(file_p->drv == NULL) {
 1443              		.loc 1 277 1 is_stmt 0 view .LVU442
 1444 0000 0346     		mov	r3, r0
 278:../../Middlewares/LVGL/GUI/lvgl/src/misc/lv_fs.c ****         *pos = 0;
 1445              		.loc 1 278 5 is_stmt 1 view .LVU443
ARM GAS  C:\Users\28576\AppData\Local\Temp\ccK3W8oA.s 			page 45


 278:../../Middlewares/LVGL/GUI/lvgl/src/misc/lv_fs.c ****         *pos = 0;
 1446              		.loc 1 278 14 is_stmt 0 view .LVU444
 1447 0002 4068     		ldr	r0, [r0, #4]
 1448              	.LVL138:
 278:../../Middlewares/LVGL/GUI/lvgl/src/misc/lv_fs.c ****         *pos = 0;
 1449              		.loc 1 278 7 view .LVU445
 1450 0004 50B1     		cbz	r0, .L105
 277:../../Middlewares/LVGL/GUI/lvgl/src/misc/lv_fs.c ****     if(file_p->drv == NULL) {
 1451              		.loc 1 277 1 view .LVU446
 1452 0006 10B5     		push	{r4, lr}
 1453              	.LCFI26:
 1454              		.cfi_def_cfa_offset 8
 1455              		.cfi_offset 4, -8
 1456              		.cfi_offset 14, -4
 283:../../Middlewares/LVGL/GUI/lvgl/src/misc/lv_fs.c ****         *pos = 0;
 1457              		.loc 1 283 5 is_stmt 1 view .LVU447
 283:../../Middlewares/LVGL/GUI/lvgl/src/misc/lv_fs.c ****         *pos = 0;
 1458              		.loc 1 283 19 is_stmt 0 view .LVU448
 1459 0008 4268     		ldr	r2, [r0, #4]
 283:../../Middlewares/LVGL/GUI/lvgl/src/misc/lv_fs.c ****         *pos = 0;
 1460              		.loc 1 283 7 view .LVU449
 1461 000a 0AB9     		cbnz	r2, .L100
 283:../../Middlewares/LVGL/GUI/lvgl/src/misc/lv_fs.c ****         *pos = 0;
 1462              		.loc 1 283 37 discriminator 1 view .LVU450
 1463 000c 046A     		ldr	r4, [r0, #32]
 1464 000e 44B1     		cbz	r4, .L106
 1465              	.L100:
 288:../../Middlewares/LVGL/GUI/lvgl/src/misc/lv_fs.c **** 
 1466              		.loc 1 288 25 is_stmt 1 view .LVU451
 290:../../Middlewares/LVGL/GUI/lvgl/src/misc/lv_fs.c ****     if(file_p->drv->cache_size) {
 1467              		.loc 1 290 5 view .LVU452
 291:../../Middlewares/LVGL/GUI/lvgl/src/misc/lv_fs.c ****         *pos = file_p->cache->file_position;
 1468              		.loc 1 291 5 view .LVU453
 291:../../Middlewares/LVGL/GUI/lvgl/src/misc/lv_fs.c ****         *pos = file_p->cache->file_position;
 1469              		.loc 1 291 7 is_stmt 0 view .LVU454
 1470 0010 52B1     		cbz	r2, .L101
 292:../../Middlewares/LVGL/GUI/lvgl/src/misc/lv_fs.c ****         res = LV_FS_RES_OK;
 1471              		.loc 1 292 9 is_stmt 1 view .LVU455
 292:../../Middlewares/LVGL/GUI/lvgl/src/misc/lv_fs.c ****         res = LV_FS_RES_OK;
 1472              		.loc 1 292 22 is_stmt 0 view .LVU456
 1473 0012 9B68     		ldr	r3, [r3, #8]
 1474              	.LVL139:
 292:../../Middlewares/LVGL/GUI/lvgl/src/misc/lv_fs.c ****         res = LV_FS_RES_OK;
 1475              		.loc 1 292 29 view .LVU457
 1476 0014 9B68     		ldr	r3, [r3, #8]
 292:../../Middlewares/LVGL/GUI/lvgl/src/misc/lv_fs.c ****         res = LV_FS_RES_OK;
 1477              		.loc 1 292 14 view .LVU458
 1478 0016 0B60     		str	r3, [r1]
 293:../../Middlewares/LVGL/GUI/lvgl/src/misc/lv_fs.c ****     }
 1479              		.loc 1 293 9 is_stmt 1 view .LVU459
 1480              	.LVL140:
 293:../../Middlewares/LVGL/GUI/lvgl/src/misc/lv_fs.c ****     }
 1481              		.loc 1 293 13 is_stmt 0 view .LVU460
 1482 0018 0020     		movs	r0, #0
 1483              	.LVL141:
 1484              	.L99:
 302:../../Middlewares/LVGL/GUI/lvgl/src/misc/lv_fs.c **** 
ARM GAS  C:\Users\28576\AppData\Local\Temp\ccK3W8oA.s 			page 46


 1485              		.loc 1 302 1 view .LVU461
 1486 001a 10BD     		pop	{r4, pc}
 1487              	.LVL142:
 1488              	.L105:
 1489              	.LCFI27:
 1490              		.cfi_def_cfa_offset 0
 1491              		.cfi_restore 4
 1492              		.cfi_restore 14
 279:../../Middlewares/LVGL/GUI/lvgl/src/misc/lv_fs.c ****         return LV_FS_RES_INV_PARAM;
 1493              		.loc 1 279 9 is_stmt 1 view .LVU462
 279:../../Middlewares/LVGL/GUI/lvgl/src/misc/lv_fs.c ****         return LV_FS_RES_INV_PARAM;
 1494              		.loc 1 279 14 is_stmt 0 view .LVU463
 1495 001c 0860     		str	r0, [r1]
 280:../../Middlewares/LVGL/GUI/lvgl/src/misc/lv_fs.c ****     }
 1496              		.loc 1 280 9 is_stmt 1 view .LVU464
 280:../../Middlewares/LVGL/GUI/lvgl/src/misc/lv_fs.c ****     }
 1497              		.loc 1 280 16 is_stmt 0 view .LVU465
 1498 001e 0B20     		movs	r0, #11
 302:../../Middlewares/LVGL/GUI/lvgl/src/misc/lv_fs.c **** 
 1499              		.loc 1 302 1 view .LVU466
 1500 0020 7047     		bx	lr
 1501              	.L106:
 1502              	.LCFI28:
 1503              		.cfi_def_cfa_offset 8
 1504              		.cfi_offset 4, -8
 1505              		.cfi_offset 14, -4
 284:../../Middlewares/LVGL/GUI/lvgl/src/misc/lv_fs.c ****         return LV_FS_RES_NOT_IMP;
 1506              		.loc 1 284 9 is_stmt 1 view .LVU467
 284:../../Middlewares/LVGL/GUI/lvgl/src/misc/lv_fs.c ****         return LV_FS_RES_NOT_IMP;
 1507              		.loc 1 284 14 is_stmt 0 view .LVU468
 1508 0022 0C60     		str	r4, [r1]
 285:../../Middlewares/LVGL/GUI/lvgl/src/misc/lv_fs.c ****     }
 1509              		.loc 1 285 9 is_stmt 1 view .LVU469
 285:../../Middlewares/LVGL/GUI/lvgl/src/misc/lv_fs.c ****     }
 1510              		.loc 1 285 16 is_stmt 0 view .LVU470
 1511 0024 0920     		movs	r0, #9
 1512 0026 F8E7     		b	.L99
 1513              	.L101:
 296:../../Middlewares/LVGL/GUI/lvgl/src/misc/lv_fs.c ****     }
 1514              		.loc 1 296 9 is_stmt 1 view .LVU471
 296:../../Middlewares/LVGL/GUI/lvgl/src/misc/lv_fs.c ****     }
 1515              		.loc 1 296 26 is_stmt 0 view .LVU472
 1516 0028 026A     		ldr	r2, [r0, #32]
 1517 002a 1446     		mov	r4, r2
 296:../../Middlewares/LVGL/GUI/lvgl/src/misc/lv_fs.c ****     }
 1518              		.loc 1 296 15 view .LVU473
 1519 002c 0A46     		mov	r2, r1
 1520 002e 1968     		ldr	r1, [r3]
 1521              	.LVL143:
 296:../../Middlewares/LVGL/GUI/lvgl/src/misc/lv_fs.c ****     }
 1522              		.loc 1 296 15 view .LVU474
 1523 0030 A047     		blx	r4
 1524              	.LVL144:
 296:../../Middlewares/LVGL/GUI/lvgl/src/misc/lv_fs.c ****     }
 1525              		.loc 1 296 15 view .LVU475
 1526 0032 F2E7     		b	.L99
 1527              		.cfi_endproc
ARM GAS  C:\Users\28576\AppData\Local\Temp\ccK3W8oA.s 			page 47


 1528              	.LFE196:
 1530              		.section	.text.lv_fs_dir_read,"ax",%progbits
 1531              		.align	1
 1532              		.global	lv_fs_dir_read
 1533              		.syntax unified
 1534              		.thumb
 1535              		.thumb_func
 1537              	lv_fs_dir_read:
 1538              	.LVL145:
 1539              	.LFB198:
 344:../../Middlewares/LVGL/GUI/lvgl/src/misc/lv_fs.c ****     if(fn_len == 0) {
 1540              		.loc 1 344 1 is_stmt 1 view -0
 1541              		.cfi_startproc
 1542              		@ args = 0, pretend = 0, frame = 0
 1543              		@ frame_needed = 0, uses_anonymous_args = 0
 345:../../Middlewares/LVGL/GUI/lvgl/src/misc/lv_fs.c ****         return LV_FS_RES_INV_PARAM;
 1544              		.loc 1 345 5 view .LVU477
 345:../../Middlewares/LVGL/GUI/lvgl/src/misc/lv_fs.c ****         return LV_FS_RES_INV_PARAM;
 1545              		.loc 1 345 7 is_stmt 0 view .LVU478
 1546 0000 BAB1     		cbz	r2, .L112
 1547 0002 8446     		mov	ip, r0
 1548 0004 1346     		mov	r3, r2
 349:../../Middlewares/LVGL/GUI/lvgl/src/misc/lv_fs.c ****         fn[0] = '\0';
 1549              		.loc 1 349 5 is_stmt 1 view .LVU479
 349:../../Middlewares/LVGL/GUI/lvgl/src/misc/lv_fs.c ****         fn[0] = '\0';
 1550              		.loc 1 349 15 is_stmt 0 view .LVU480
 1551 0006 4068     		ldr	r0, [r0, #4]
 1552              	.LVL146:
 349:../../Middlewares/LVGL/GUI/lvgl/src/misc/lv_fs.c ****         fn[0] = '\0';
 1553              		.loc 1 349 7 view .LVU481
 1554 0008 60B1     		cbz	r0, .L109
 349:../../Middlewares/LVGL/GUI/lvgl/src/misc/lv_fs.c ****         fn[0] = '\0';
 1555              		.loc 1 349 39 discriminator 1 view .LVU482
 1556 000a DCF800C0 		ldr	ip, [ip]
 1557              	.LVL147:
 349:../../Middlewares/LVGL/GUI/lvgl/src/misc/lv_fs.c ****         fn[0] = '\0';
 1558              		.loc 1 349 29 discriminator 1 view .LVU483
 1559 000e BCF1000F 		cmp	ip, #0
 1560 0012 07D0     		beq	.L109
 344:../../Middlewares/LVGL/GUI/lvgl/src/misc/lv_fs.c ****     if(fn_len == 0) {
 1561              		.loc 1 344 1 view .LVU484
 1562 0014 10B5     		push	{r4, lr}
 1563              	.LCFI29:
 1564              		.cfi_def_cfa_offset 8
 1565              		.cfi_offset 4, -8
 1566              		.cfi_offset 14, -4
 354:../../Middlewares/LVGL/GUI/lvgl/src/misc/lv_fs.c ****         fn[0] = '\0';
 1567              		.loc 1 354 5 is_stmt 1 view .LVU485
 354:../../Middlewares/LVGL/GUI/lvgl/src/misc/lv_fs.c ****         fn[0] = '\0';
 1568              		.loc 1 354 20 is_stmt 0 view .LVU486
 1569 0016 826A     		ldr	r2, [r0, #40]
 1570              	.LVL148:
 354:../../Middlewares/LVGL/GUI/lvgl/src/misc/lv_fs.c ****         fn[0] = '\0';
 1571              		.loc 1 354 20 view .LVU487
 1572 0018 1446     		mov	r4, r2
 354:../../Middlewares/LVGL/GUI/lvgl/src/misc/lv_fs.c ****         fn[0] = '\0';
 1573              		.loc 1 354 7 view .LVU488
ARM GAS  C:\Users\28576\AppData\Local\Temp\ccK3W8oA.s 			page 48


 1574 001a 3AB1     		cbz	r2, .L116
 359:../../Middlewares/LVGL/GUI/lvgl/src/misc/lv_fs.c **** 
 1575              		.loc 1 359 25 is_stmt 1 view .LVU489
 361:../../Middlewares/LVGL/GUI/lvgl/src/misc/lv_fs.c **** 
 1576              		.loc 1 361 5 view .LVU490
 361:../../Middlewares/LVGL/GUI/lvgl/src/misc/lv_fs.c **** 
 1577              		.loc 1 361 23 is_stmt 0 view .LVU491
 1578 001c 0A46     		mov	r2, r1
 1579 001e 6146     		mov	r1, ip
 1580              	.LVL149:
 361:../../Middlewares/LVGL/GUI/lvgl/src/misc/lv_fs.c **** 
 1581              		.loc 1 361 23 view .LVU492
 1582 0020 A047     		blx	r4
 1583              	.LVL150:
 363:../../Middlewares/LVGL/GUI/lvgl/src/misc/lv_fs.c **** 
 1584              		.loc 1 363 23 is_stmt 1 view .LVU493
 365:../../Middlewares/LVGL/GUI/lvgl/src/misc/lv_fs.c **** }
 1585              		.loc 1 365 5 view .LVU494
 1586              	.L108:
 366:../../Middlewares/LVGL/GUI/lvgl/src/misc/lv_fs.c **** 
 1587              		.loc 1 366 1 is_stmt 0 view .LVU495
 1588 0022 10BD     		pop	{r4, pc}
 1589              	.LVL151:
 1590              	.L109:
 1591              	.LCFI30:
 1592              		.cfi_def_cfa_offset 0
 1593              		.cfi_restore 4
 1594              		.cfi_restore 14
 350:../../Middlewares/LVGL/GUI/lvgl/src/misc/lv_fs.c ****         return LV_FS_RES_INV_PARAM;
 1595              		.loc 1 350 9 is_stmt 1 view .LVU496
 350:../../Middlewares/LVGL/GUI/lvgl/src/misc/lv_fs.c ****         return LV_FS_RES_INV_PARAM;
 1596              		.loc 1 350 15 is_stmt 0 view .LVU497
 1597 0024 0023     		movs	r3, #0
 1598 0026 0B70     		strb	r3, [r1]
 351:../../Middlewares/LVGL/GUI/lvgl/src/misc/lv_fs.c ****     }
 1599              		.loc 1 351 9 is_stmt 1 view .LVU498
 351:../../Middlewares/LVGL/GUI/lvgl/src/misc/lv_fs.c ****     }
 1600              		.loc 1 351 16 is_stmt 0 view .LVU499
 1601 0028 0B20     		movs	r0, #11
 1602 002a 7047     		bx	lr
 1603              	.LVL152:
 1604              	.L116:
 1605              	.LCFI31:
 1606              		.cfi_def_cfa_offset 8
 1607              		.cfi_offset 4, -8
 1608              		.cfi_offset 14, -4
 355:../../Middlewares/LVGL/GUI/lvgl/src/misc/lv_fs.c ****         return LV_FS_RES_NOT_IMP;
 1609              		.loc 1 355 9 is_stmt 1 view .LVU500
 355:../../Middlewares/LVGL/GUI/lvgl/src/misc/lv_fs.c ****         return LV_FS_RES_NOT_IMP;
 1610              		.loc 1 355 15 is_stmt 0 view .LVU501
 1611 002c 0A70     		strb	r2, [r1]
 356:../../Middlewares/LVGL/GUI/lvgl/src/misc/lv_fs.c ****     }
 1612              		.loc 1 356 9 is_stmt 1 view .LVU502
 356:../../Middlewares/LVGL/GUI/lvgl/src/misc/lv_fs.c ****     }
 1613              		.loc 1 356 16 is_stmt 0 view .LVU503
 1614 002e 0920     		movs	r0, #9
 1615 0030 F7E7     		b	.L108
ARM GAS  C:\Users\28576\AppData\Local\Temp\ccK3W8oA.s 			page 49


 1616              	.LVL153:
 1617              	.L112:
 1618              	.LCFI32:
 1619              		.cfi_def_cfa_offset 0
 1620              		.cfi_restore 4
 1621              		.cfi_restore 14
 346:../../Middlewares/LVGL/GUI/lvgl/src/misc/lv_fs.c ****     }
 1622              		.loc 1 346 16 view .LVU504
 1623 0032 0B20     		movs	r0, #11
 1624              	.LVL154:
 366:../../Middlewares/LVGL/GUI/lvgl/src/misc/lv_fs.c **** 
 1625              		.loc 1 366 1 view .LVU505
 1626 0034 7047     		bx	lr
 1627              		.cfi_endproc
 1628              	.LFE198:
 1630              		.section	.text.lv_fs_dir_close,"ax",%progbits
 1631              		.align	1
 1632              		.global	lv_fs_dir_close
 1633              		.syntax unified
 1634              		.thumb
 1635              		.thumb_func
 1637              	lv_fs_dir_close:
 1638              	.LVL155:
 1639              	.LFB199:
 369:../../Middlewares/LVGL/GUI/lvgl/src/misc/lv_fs.c ****     if(rddir_p->drv == NULL || rddir_p->dir_d == NULL) {
 1640              		.loc 1 369 1 is_stmt 1 view -0
 1641              		.cfi_startproc
 1642              		@ args = 0, pretend = 0, frame = 0
 1643              		@ frame_needed = 0, uses_anonymous_args = 0
 369:../../Middlewares/LVGL/GUI/lvgl/src/misc/lv_fs.c ****     if(rddir_p->drv == NULL || rddir_p->dir_d == NULL) {
 1644              		.loc 1 369 1 is_stmt 0 view .LVU507
 1645 0000 10B5     		push	{r4, lr}
 1646              	.LCFI33:
 1647              		.cfi_def_cfa_offset 8
 1648              		.cfi_offset 4, -8
 1649              		.cfi_offset 14, -4
 1650 0002 0446     		mov	r4, r0
 370:../../Middlewares/LVGL/GUI/lvgl/src/misc/lv_fs.c ****         return LV_FS_RES_INV_PARAM;
 1651              		.loc 1 370 5 is_stmt 1 view .LVU508
 370:../../Middlewares/LVGL/GUI/lvgl/src/misc/lv_fs.c ****         return LV_FS_RES_INV_PARAM;
 1652              		.loc 1 370 15 is_stmt 0 view .LVU509
 1653 0004 4068     		ldr	r0, [r0, #4]
 1654              	.LVL156:
 370:../../Middlewares/LVGL/GUI/lvgl/src/misc/lv_fs.c ****         return LV_FS_RES_INV_PARAM;
 1655              		.loc 1 370 7 view .LVU510
 1656 0006 40B1     		cbz	r0, .L119
 370:../../Middlewares/LVGL/GUI/lvgl/src/misc/lv_fs.c ****         return LV_FS_RES_INV_PARAM;
 1657              		.loc 1 370 39 discriminator 1 view .LVU511
 1658 0008 2168     		ldr	r1, [r4]
 370:../../Middlewares/LVGL/GUI/lvgl/src/misc/lv_fs.c ****         return LV_FS_RES_INV_PARAM;
 1659              		.loc 1 370 29 discriminator 1 view .LVU512
 1660 000a 41B1     		cbz	r1, .L120
 374:../../Middlewares/LVGL/GUI/lvgl/src/misc/lv_fs.c ****         return LV_FS_RES_NOT_IMP;
 1661              		.loc 1 374 5 is_stmt 1 view .LVU513
 374:../../Middlewares/LVGL/GUI/lvgl/src/misc/lv_fs.c ****         return LV_FS_RES_NOT_IMP;
 1662              		.loc 1 374 20 is_stmt 0 view .LVU514
 1663 000c C36A     		ldr	r3, [r0, #44]
ARM GAS  C:\Users\28576\AppData\Local\Temp\ccK3W8oA.s 			page 50


 374:../../Middlewares/LVGL/GUI/lvgl/src/misc/lv_fs.c ****         return LV_FS_RES_NOT_IMP;
 1664              		.loc 1 374 7 view .LVU515
 1665 000e 43B1     		cbz	r3, .L121
 378:../../Middlewares/LVGL/GUI/lvgl/src/misc/lv_fs.c **** 
 1666              		.loc 1 378 25 is_stmt 1 view .LVU516
 380:../../Middlewares/LVGL/GUI/lvgl/src/misc/lv_fs.c **** 
 1667              		.loc 1 380 5 view .LVU517
 380:../../Middlewares/LVGL/GUI/lvgl/src/misc/lv_fs.c **** 
 1668              		.loc 1 380 23 is_stmt 0 view .LVU518
 1669 0010 9847     		blx	r3
 1670              	.LVL157:
 382:../../Middlewares/LVGL/GUI/lvgl/src/misc/lv_fs.c ****     rddir_p->drv   = NULL;
 1671              		.loc 1 382 5 is_stmt 1 view .LVU519
 382:../../Middlewares/LVGL/GUI/lvgl/src/misc/lv_fs.c ****     rddir_p->drv   = NULL;
 1672              		.loc 1 382 20 is_stmt 0 view .LVU520
 1673 0012 0023     		movs	r3, #0
 1674 0014 2360     		str	r3, [r4]
 383:../../Middlewares/LVGL/GUI/lvgl/src/misc/lv_fs.c **** 
 1675              		.loc 1 383 5 is_stmt 1 view .LVU521
 383:../../Middlewares/LVGL/GUI/lvgl/src/misc/lv_fs.c **** 
 1676              		.loc 1 383 20 is_stmt 0 view .LVU522
 1677 0016 6360     		str	r3, [r4, #4]
 385:../../Middlewares/LVGL/GUI/lvgl/src/misc/lv_fs.c **** 
 1678              		.loc 1 385 23 is_stmt 1 view .LVU523
 387:../../Middlewares/LVGL/GUI/lvgl/src/misc/lv_fs.c **** }
 1679              		.loc 1 387 5 view .LVU524
 1680              	.LVL158:
 1681              	.L118:
 388:../../Middlewares/LVGL/GUI/lvgl/src/misc/lv_fs.c **** 
 1682              		.loc 1 388 1 is_stmt 0 view .LVU525
 1683 0018 10BD     		pop	{r4, pc}
 1684              	.LVL159:
 1685              	.L119:
 371:../../Middlewares/LVGL/GUI/lvgl/src/misc/lv_fs.c ****     }
 1686              		.loc 1 371 16 view .LVU526
 1687 001a 0B20     		movs	r0, #11
 1688 001c FCE7     		b	.L118
 1689              	.L120:
 1690 001e 0B20     		movs	r0, #11
 1691 0020 FAE7     		b	.L118
 1692              	.L121:
 375:../../Middlewares/LVGL/GUI/lvgl/src/misc/lv_fs.c ****     }
 1693              		.loc 1 375 16 view .LVU527
 1694 0022 0920     		movs	r0, #9
 1695 0024 F8E7     		b	.L118
 1696              		.cfi_endproc
 1697              	.LFE199:
 1699              		.section	.text.lv_fs_drv_init,"ax",%progbits
 1700              		.align	1
 1701              		.global	lv_fs_drv_init
 1702              		.syntax unified
 1703              		.thumb
 1704              		.thumb_func
 1706              	lv_fs_drv_init:
 1707              	.LVL160:
 1708              	.LFB200:
 391:../../Middlewares/LVGL/GUI/lvgl/src/misc/lv_fs.c ****     lv_memzero(drv, sizeof(lv_fs_drv_t));
ARM GAS  C:\Users\28576\AppData\Local\Temp\ccK3W8oA.s 			page 51


 1709              		.loc 1 391 1 is_stmt 1 view -0
 1710              		.cfi_startproc
 1711              		@ args = 0, pretend = 0, frame = 0
 1712              		@ frame_needed = 0, uses_anonymous_args = 0
 391:../../Middlewares/LVGL/GUI/lvgl/src/misc/lv_fs.c ****     lv_memzero(drv, sizeof(lv_fs_drv_t));
 1713              		.loc 1 391 1 is_stmt 0 view .LVU529
 1714 0000 08B5     		push	{r3, lr}
 1715              	.LCFI34:
 1716              		.cfi_def_cfa_offset 8
 1717              		.cfi_offset 3, -8
 1718              		.cfi_offset 14, -4
 392:../../Middlewares/LVGL/GUI/lvgl/src/misc/lv_fs.c **** }
 1719              		.loc 1 392 5 is_stmt 1 view .LVU530
 1720              	.LVL161:
 1721              	.LBB14:
 1722              	.LBI14:
 1723              		.file 2 "H:/STM32H7/RGB_LVGL/Middlewares/LVGL/GUI/lvgl/src/stdlib/lv_string.h"
   1:H:/STM32H7/RGB_LVGL/Middlewares/LVGL/GUI/lvgl/src/stdlib\lv_string.h **** /**
   2:H:/STM32H7/RGB_LVGL/Middlewares/LVGL/GUI/lvgl/src/stdlib\lv_string.h ****  * @file lv_string.h
   3:H:/STM32H7/RGB_LVGL/Middlewares/LVGL/GUI/lvgl/src/stdlib\lv_string.h ****  *
   4:H:/STM32H7/RGB_LVGL/Middlewares/LVGL/GUI/lvgl/src/stdlib\lv_string.h ****  */
   5:H:/STM32H7/RGB_LVGL/Middlewares/LVGL/GUI/lvgl/src/stdlib\lv_string.h **** 
   6:H:/STM32H7/RGB_LVGL/Middlewares/LVGL/GUI/lvgl/src/stdlib\lv_string.h **** #ifndef LV_STRING_H
   7:H:/STM32H7/RGB_LVGL/Middlewares/LVGL/GUI/lvgl/src/stdlib\lv_string.h **** #define LV_STRING_H
   8:H:/STM32H7/RGB_LVGL/Middlewares/LVGL/GUI/lvgl/src/stdlib\lv_string.h **** 
   9:H:/STM32H7/RGB_LVGL/Middlewares/LVGL/GUI/lvgl/src/stdlib\lv_string.h **** #ifdef __cplusplus
  10:H:/STM32H7/RGB_LVGL/Middlewares/LVGL/GUI/lvgl/src/stdlib\lv_string.h **** extern "C" {
  11:H:/STM32H7/RGB_LVGL/Middlewares/LVGL/GUI/lvgl/src/stdlib\lv_string.h **** #endif
  12:H:/STM32H7/RGB_LVGL/Middlewares/LVGL/GUI/lvgl/src/stdlib\lv_string.h **** 
  13:H:/STM32H7/RGB_LVGL/Middlewares/LVGL/GUI/lvgl/src/stdlib\lv_string.h **** /*********************
  14:H:/STM32H7/RGB_LVGL/Middlewares/LVGL/GUI/lvgl/src/stdlib\lv_string.h ****  *      INCLUDES
  15:H:/STM32H7/RGB_LVGL/Middlewares/LVGL/GUI/lvgl/src/stdlib\lv_string.h ****  *********************/
  16:H:/STM32H7/RGB_LVGL/Middlewares/LVGL/GUI/lvgl/src/stdlib\lv_string.h **** #include "../lv_conf_internal.h"
  17:H:/STM32H7/RGB_LVGL/Middlewares/LVGL/GUI/lvgl/src/stdlib\lv_string.h **** #include "../misc/lv_types.h"
  18:H:/STM32H7/RGB_LVGL/Middlewares/LVGL/GUI/lvgl/src/stdlib\lv_string.h **** 
  19:H:/STM32H7/RGB_LVGL/Middlewares/LVGL/GUI/lvgl/src/stdlib\lv_string.h **** /*********************
  20:H:/STM32H7/RGB_LVGL/Middlewares/LVGL/GUI/lvgl/src/stdlib\lv_string.h ****  *      DEFINES
  21:H:/STM32H7/RGB_LVGL/Middlewares/LVGL/GUI/lvgl/src/stdlib\lv_string.h ****  *********************/
  22:H:/STM32H7/RGB_LVGL/Middlewares/LVGL/GUI/lvgl/src/stdlib\lv_string.h **** 
  23:H:/STM32H7/RGB_LVGL/Middlewares/LVGL/GUI/lvgl/src/stdlib\lv_string.h **** /**********************
  24:H:/STM32H7/RGB_LVGL/Middlewares/LVGL/GUI/lvgl/src/stdlib\lv_string.h ****  *      TYPEDEFS
  25:H:/STM32H7/RGB_LVGL/Middlewares/LVGL/GUI/lvgl/src/stdlib\lv_string.h ****  **********************/
  26:H:/STM32H7/RGB_LVGL/Middlewares/LVGL/GUI/lvgl/src/stdlib\lv_string.h **** 
  27:H:/STM32H7/RGB_LVGL/Middlewares/LVGL/GUI/lvgl/src/stdlib\lv_string.h **** /**********************
  28:H:/STM32H7/RGB_LVGL/Middlewares/LVGL/GUI/lvgl/src/stdlib\lv_string.h ****  * GLOBAL PROTOTYPES
  29:H:/STM32H7/RGB_LVGL/Middlewares/LVGL/GUI/lvgl/src/stdlib\lv_string.h ****  **********************/
  30:H:/STM32H7/RGB_LVGL/Middlewares/LVGL/GUI/lvgl/src/stdlib\lv_string.h **** 
  31:H:/STM32H7/RGB_LVGL/Middlewares/LVGL/GUI/lvgl/src/stdlib\lv_string.h **** /**
  32:H:/STM32H7/RGB_LVGL/Middlewares/LVGL/GUI/lvgl/src/stdlib\lv_string.h ****  * @brief Copies a block of memory from a source address to a destination address.
  33:H:/STM32H7/RGB_LVGL/Middlewares/LVGL/GUI/lvgl/src/stdlib\lv_string.h ****  * @param dst Pointer to the destination array where the content is to be copied.
  34:H:/STM32H7/RGB_LVGL/Middlewares/LVGL/GUI/lvgl/src/stdlib\lv_string.h ****  * @param src Pointer to the source of data to be copied.
  35:H:/STM32H7/RGB_LVGL/Middlewares/LVGL/GUI/lvgl/src/stdlib\lv_string.h ****  * @param len Number of bytes to copy.
  36:H:/STM32H7/RGB_LVGL/Middlewares/LVGL/GUI/lvgl/src/stdlib\lv_string.h ****  * @return Pointer to the destination array.
  37:H:/STM32H7/RGB_LVGL/Middlewares/LVGL/GUI/lvgl/src/stdlib\lv_string.h ****  * @note The function does not check for any overlapping of the source and destination memory block
  38:H:/STM32H7/RGB_LVGL/Middlewares/LVGL/GUI/lvgl/src/stdlib\lv_string.h ****  */
  39:H:/STM32H7/RGB_LVGL/Middlewares/LVGL/GUI/lvgl/src/stdlib\lv_string.h **** void * lv_memcpy(void * dst, const void * src, size_t len);
  40:H:/STM32H7/RGB_LVGL/Middlewares/LVGL/GUI/lvgl/src/stdlib\lv_string.h **** 
ARM GAS  C:\Users\28576\AppData\Local\Temp\ccK3W8oA.s 			page 52


  41:H:/STM32H7/RGB_LVGL/Middlewares/LVGL/GUI/lvgl/src/stdlib\lv_string.h **** /**
  42:H:/STM32H7/RGB_LVGL/Middlewares/LVGL/GUI/lvgl/src/stdlib\lv_string.h ****  * @brief Fills a block of memory with a specified value.
  43:H:/STM32H7/RGB_LVGL/Middlewares/LVGL/GUI/lvgl/src/stdlib\lv_string.h ****  * @param dst Pointer to the destination array to fill with the specified value.
  44:H:/STM32H7/RGB_LVGL/Middlewares/LVGL/GUI/lvgl/src/stdlib\lv_string.h ****  * @param v Value to be set. The value is passed as an int, but the function fills
  45:H:/STM32H7/RGB_LVGL/Middlewares/LVGL/GUI/lvgl/src/stdlib\lv_string.h ****  *          the block of memory using the unsigned char conversion of this value.
  46:H:/STM32H7/RGB_LVGL/Middlewares/LVGL/GUI/lvgl/src/stdlib\lv_string.h ****  * @param len Number of bytes to be set to the value.
  47:H:/STM32H7/RGB_LVGL/Middlewares/LVGL/GUI/lvgl/src/stdlib\lv_string.h ****  */
  48:H:/STM32H7/RGB_LVGL/Middlewares/LVGL/GUI/lvgl/src/stdlib\lv_string.h **** void lv_memset(void * dst, uint8_t v, size_t len);
  49:H:/STM32H7/RGB_LVGL/Middlewares/LVGL/GUI/lvgl/src/stdlib\lv_string.h **** 
  50:H:/STM32H7/RGB_LVGL/Middlewares/LVGL/GUI/lvgl/src/stdlib\lv_string.h **** /**
  51:H:/STM32H7/RGB_LVGL/Middlewares/LVGL/GUI/lvgl/src/stdlib\lv_string.h ****  * @brief Move a block of memory from source to destination
  52:H:/STM32H7/RGB_LVGL/Middlewares/LVGL/GUI/lvgl/src/stdlib\lv_string.h ****  * @param dst Pointer to the destination array where the content is to be copied.
  53:H:/STM32H7/RGB_LVGL/Middlewares/LVGL/GUI/lvgl/src/stdlib\lv_string.h ****  * @param src Pointer to the source of data to be copied.
  54:H:/STM32H7/RGB_LVGL/Middlewares/LVGL/GUI/lvgl/src/stdlib\lv_string.h ****  * @param len Number of bytes to copy
  55:H:/STM32H7/RGB_LVGL/Middlewares/LVGL/GUI/lvgl/src/stdlib\lv_string.h ****  * @return Pointer to the destination array.
  56:H:/STM32H7/RGB_LVGL/Middlewares/LVGL/GUI/lvgl/src/stdlib\lv_string.h ****  */
  57:H:/STM32H7/RGB_LVGL/Middlewares/LVGL/GUI/lvgl/src/stdlib\lv_string.h **** void * lv_memmove(void * dst, const void * src, size_t len);
  58:H:/STM32H7/RGB_LVGL/Middlewares/LVGL/GUI/lvgl/src/stdlib\lv_string.h **** 
  59:H:/STM32H7/RGB_LVGL/Middlewares/LVGL/GUI/lvgl/src/stdlib\lv_string.h **** /**
  60:H:/STM32H7/RGB_LVGL/Middlewares/LVGL/GUI/lvgl/src/stdlib\lv_string.h ****  * @brief This function will compare two memory blocks
  61:H:/STM32H7/RGB_LVGL/Middlewares/LVGL/GUI/lvgl/src/stdlib\lv_string.h ****  * @param p1 Pointer to the first memory block
  62:H:/STM32H7/RGB_LVGL/Middlewares/LVGL/GUI/lvgl/src/stdlib\lv_string.h ****  * @param p2 Pointer to the second memory block
  63:H:/STM32H7/RGB_LVGL/Middlewares/LVGL/GUI/lvgl/src/stdlib\lv_string.h ****  * @param len Number of bytes to compare
  64:H:/STM32H7/RGB_LVGL/Middlewares/LVGL/GUI/lvgl/src/stdlib\lv_string.h ****  * @return The difference between the value of the first unmatching byte.
  65:H:/STM32H7/RGB_LVGL/Middlewares/LVGL/GUI/lvgl/src/stdlib\lv_string.h ****  */
  66:H:/STM32H7/RGB_LVGL/Middlewares/LVGL/GUI/lvgl/src/stdlib\lv_string.h **** int lv_memcmp(const void * p1, const void * p2, size_t len);
  67:H:/STM32H7/RGB_LVGL/Middlewares/LVGL/GUI/lvgl/src/stdlib\lv_string.h **** 
  68:H:/STM32H7/RGB_LVGL/Middlewares/LVGL/GUI/lvgl/src/stdlib\lv_string.h **** /**
  69:H:/STM32H7/RGB_LVGL/Middlewares/LVGL/GUI/lvgl/src/stdlib\lv_string.h ****  * Same as `memset(dst, 0x00, len)`.
  70:H:/STM32H7/RGB_LVGL/Middlewares/LVGL/GUI/lvgl/src/stdlib\lv_string.h ****  * @param dst pointer to the destination buffer
  71:H:/STM32H7/RGB_LVGL/Middlewares/LVGL/GUI/lvgl/src/stdlib\lv_string.h ****  * @param len number of byte to set
  72:H:/STM32H7/RGB_LVGL/Middlewares/LVGL/GUI/lvgl/src/stdlib\lv_string.h ****  */
  73:H:/STM32H7/RGB_LVGL/Middlewares/LVGL/GUI/lvgl/src/stdlib\lv_string.h **** static inline void lv_memzero(void * dst, size_t len)
 1724              		.loc 2 73 20 view .LVU531
 1725              	.LBB15:
  74:H:/STM32H7/RGB_LVGL/Middlewares/LVGL/GUI/lvgl/src/stdlib\lv_string.h **** {
  75:H:/STM32H7/RGB_LVGL/Middlewares/LVGL/GUI/lvgl/src/stdlib\lv_string.h ****     lv_memset(dst, 0x00, len);
 1726              		.loc 2 75 5 view .LVU532
 1727 0002 3422     		movs	r2, #52
 1728 0004 0021     		movs	r1, #0
 1729 0006 FFF7FEFF 		bl	lv_memset
 1730              	.LVL162:
 1731              		.loc 2 75 5 is_stmt 0 view .LVU533
 1732              	.LBE15:
 1733              	.LBE14:
 393:../../Middlewares/LVGL/GUI/lvgl/src/misc/lv_fs.c **** 
 1734              		.loc 1 393 1 view .LVU534
 1735 000a 08BD     		pop	{r3, pc}
 1736              		.cfi_endproc
 1737              	.LFE200:
 1739              		.section	.text.lv_fs_drv_register,"ax",%progbits
 1740              		.align	1
 1741              		.global	lv_fs_drv_register
 1742              		.syntax unified
 1743              		.thumb
 1744              		.thumb_func
 1746              	lv_fs_drv_register:
ARM GAS  C:\Users\28576\AppData\Local\Temp\ccK3W8oA.s 			page 53


 1747              	.LVL163:
 1748              	.LFB201:
 396:../../Middlewares/LVGL/GUI/lvgl/src/misc/lv_fs.c ****     /*Save the new driver*/
 1749              		.loc 1 396 1 is_stmt 1 view -0
 1750              		.cfi_startproc
 1751              		@ args = 0, pretend = 0, frame = 0
 1752              		@ frame_needed = 0, uses_anonymous_args = 0
 396:../../Middlewares/LVGL/GUI/lvgl/src/misc/lv_fs.c ****     /*Save the new driver*/
 1753              		.loc 1 396 1 is_stmt 0 view .LVU536
 1754 0000 10B5     		push	{r4, lr}
 1755              	.LCFI35:
 1756              		.cfi_def_cfa_offset 8
 1757              		.cfi_offset 4, -8
 1758              		.cfi_offset 14, -4
 1759 0002 0446     		mov	r4, r0
 398:../../Middlewares/LVGL/GUI/lvgl/src/misc/lv_fs.c ****     new_drv = lv_ll_ins_head(fsdrv_ll_p);
 1760              		.loc 1 398 5 is_stmt 1 view .LVU537
 399:../../Middlewares/LVGL/GUI/lvgl/src/misc/lv_fs.c ****     LV_ASSERT_MALLOC(new_drv);
 1761              		.loc 1 399 5 view .LVU538
 399:../../Middlewares/LVGL/GUI/lvgl/src/misc/lv_fs.c ****     LV_ASSERT_MALLOC(new_drv);
 1762              		.loc 1 399 15 is_stmt 0 view .LVU539
 1763 0004 0348     		ldr	r0, .L129
 1764              	.LVL164:
 399:../../Middlewares/LVGL/GUI/lvgl/src/misc/lv_fs.c ****     LV_ASSERT_MALLOC(new_drv);
 1765              		.loc 1 399 15 view .LVU540
 1766 0006 FFF7FEFF 		bl	lv_ll_ins_head
 1767              	.LVL165:
 400:../../Middlewares/LVGL/GUI/lvgl/src/misc/lv_fs.c ****     if(new_drv == NULL) return;
 1768              		.loc 1 400 5 is_stmt 1 view .LVU541
 400:../../Middlewares/LVGL/GUI/lvgl/src/misc/lv_fs.c ****     if(new_drv == NULL) return;
 1769              		.loc 1 400 5 view .LVU542
 1770 000a 08B1     		cbz	r0, .L127
 400:../../Middlewares/LVGL/GUI/lvgl/src/misc/lv_fs.c ****     if(new_drv == NULL) return;
 1771              		.loc 1 400 5 view .LVU543
 400:../../Middlewares/LVGL/GUI/lvgl/src/misc/lv_fs.c ****     if(new_drv == NULL) return;
 1772              		.loc 1 400 30 view .LVU544
 401:../../Middlewares/LVGL/GUI/lvgl/src/misc/lv_fs.c **** 
 1773              		.loc 1 401 5 view .LVU545
 403:../../Middlewares/LVGL/GUI/lvgl/src/misc/lv_fs.c **** }
 1774              		.loc 1 403 5 view .LVU546
 403:../../Middlewares/LVGL/GUI/lvgl/src/misc/lv_fs.c **** }
 1775              		.loc 1 403 14 is_stmt 0 view .LVU547
 1776 000c 0460     		str	r4, [r0]
 404:../../Middlewares/LVGL/GUI/lvgl/src/misc/lv_fs.c **** 
 1777              		.loc 1 404 1 view .LVU548
 1778 000e 10BD     		pop	{r4, pc}
 1779              	.LVL166:
 1780              	.L127:
 400:../../Middlewares/LVGL/GUI/lvgl/src/misc/lv_fs.c ****     if(new_drv == NULL) return;
 1781              		.loc 1 400 5 is_stmt 1 view .LVU549
 400:../../Middlewares/LVGL/GUI/lvgl/src/misc/lv_fs.c ****     if(new_drv == NULL) return;
 1782              		.loc 1 400 5 view .LVU550
 400:../../Middlewares/LVGL/GUI/lvgl/src/misc/lv_fs.c ****     if(new_drv == NULL) return;
 1783              		.loc 1 400 5 view .LVU551
 400:../../Middlewares/LVGL/GUI/lvgl/src/misc/lv_fs.c ****     if(new_drv == NULL) return;
 1784              		.loc 1 400 5 view .LVU552
 400:../../Middlewares/LVGL/GUI/lvgl/src/misc/lv_fs.c ****     if(new_drv == NULL) return;
ARM GAS  C:\Users\28576\AppData\Local\Temp\ccK3W8oA.s 			page 54


 1785              		.loc 1 400 5 view .LVU553
 1786 0010 FEE7     		b	.L127
 1787              	.L130:
 1788 0012 00BF     		.align	2
 1789              	.L129:
 1790 0014 DC010000 		.word	lv_global+476
 1791              		.cfi_endproc
 1792              	.LFE201:
 1794              		.section	.text.lv_fs_get_drv,"ax",%progbits
 1795              		.align	1
 1796              		.global	lv_fs_get_drv
 1797              		.syntax unified
 1798              		.thumb
 1799              		.thumb_func
 1801              	lv_fs_get_drv:
 1802              	.LVL167:
 1803              	.LFB202:
 407:../../Middlewares/LVGL/GUI/lvgl/src/misc/lv_fs.c ****     lv_fs_drv_t ** drv;
 1804              		.loc 1 407 1 view -0
 1805              		.cfi_startproc
 1806              		@ args = 0, pretend = 0, frame = 0
 1807              		@ frame_needed = 0, uses_anonymous_args = 0
 407:../../Middlewares/LVGL/GUI/lvgl/src/misc/lv_fs.c ****     lv_fs_drv_t ** drv;
 1808              		.loc 1 407 1 is_stmt 0 view .LVU555
 1809 0000 10B5     		push	{r4, lr}
 1810              	.LCFI36:
 1811              		.cfi_def_cfa_offset 8
 1812              		.cfi_offset 4, -8
 1813              		.cfi_offset 14, -4
 1814 0002 0446     		mov	r4, r0
 408:../../Middlewares/LVGL/GUI/lvgl/src/misc/lv_fs.c **** 
 1815              		.loc 1 408 5 is_stmt 1 view .LVU556
 410:../../Middlewares/LVGL/GUI/lvgl/src/misc/lv_fs.c ****         if((*drv)->letter == letter) {
 1816              		.loc 1 410 5 view .LVU557
 1817 0004 0848     		ldr	r0, .L138
 1818              	.LVL168:
 410:../../Middlewares/LVGL/GUI/lvgl/src/misc/lv_fs.c ****         if((*drv)->letter == letter) {
 1819              		.loc 1 410 5 is_stmt 0 view .LVU558
 1820 0006 FFF7FEFF 		bl	lv_ll_get_head
 1821              	.LVL169:
 1822 000a 0146     		mov	r1, r0
 1823              	.LVL170:
 410:../../Middlewares/LVGL/GUI/lvgl/src/misc/lv_fs.c ****         if((*drv)->letter == letter) {
 1824              		.loc 1 410 5 view .LVU559
 1825 000c 03E0     		b	.L132
 1826              	.LVL171:
 1827              	.L137:
 410:../../Middlewares/LVGL/GUI/lvgl/src/misc/lv_fs.c ****         if((*drv)->letter == letter) {
 1828              		.loc 1 410 5 is_stmt 1 discriminator 4 view .LVU560
 1829 000e 0648     		ldr	r0, .L138
 1830 0010 FFF7FEFF 		bl	lv_ll_get_next
 1831              	.LVL172:
 410:../../Middlewares/LVGL/GUI/lvgl/src/misc/lv_fs.c ****         if((*drv)->letter == letter) {
 1832              		.loc 1 410 5 is_stmt 0 discriminator 4 view .LVU561
 1833 0014 0146     		mov	r1, r0
 1834              	.LVL173:
 1835              	.L132:
ARM GAS  C:\Users\28576\AppData\Local\Temp\ccK3W8oA.s 			page 55


 410:../../Middlewares/LVGL/GUI/lvgl/src/misc/lv_fs.c ****         if((*drv)->letter == letter) {
 1836              		.loc 1 410 5 is_stmt 1 discriminator 2 view .LVU562
 1837 0016 21B1     		cbz	r1, .L131
 411:../../Middlewares/LVGL/GUI/lvgl/src/misc/lv_fs.c ****             return *drv;
 1838              		.loc 1 411 9 view .LVU563
 411:../../Middlewares/LVGL/GUI/lvgl/src/misc/lv_fs.c ****             return *drv;
 1839              		.loc 1 411 13 is_stmt 0 view .LVU564
 1840 0018 0B68     		ldr	r3, [r1]
 411:../../Middlewares/LVGL/GUI/lvgl/src/misc/lv_fs.c ****             return *drv;
 1841              		.loc 1 411 18 view .LVU565
 1842 001a 1A78     		ldrb	r2, [r3]	@ zero_extendqisi2
 411:../../Middlewares/LVGL/GUI/lvgl/src/misc/lv_fs.c ****             return *drv;
 1843              		.loc 1 411 11 view .LVU566
 1844 001c A242     		cmp	r2, r4
 1845 001e F6D1     		bne	.L137
 412:../../Middlewares/LVGL/GUI/lvgl/src/misc/lv_fs.c ****         }
 1846              		.loc 1 412 20 view .LVU567
 1847 0020 1946     		mov	r1, r3
 1848              	.LVL174:
 1849              	.L131:
 417:../../Middlewares/LVGL/GUI/lvgl/src/misc/lv_fs.c **** 
 1850              		.loc 1 417 1 view .LVU568
 1851 0022 0846     		mov	r0, r1
 1852 0024 10BD     		pop	{r4, pc}
 1853              	.LVL175:
 1854              	.L139:
 417:../../Middlewares/LVGL/GUI/lvgl/src/misc/lv_fs.c **** 
 1855              		.loc 1 417 1 view .LVU569
 1856 0026 00BF     		.align	2
 1857              	.L138:
 1858 0028 DC010000 		.word	lv_global+476
 1859              		.cfi_endproc
 1860              	.LFE202:
 1862              		.section	.text.lv_fs_is_ready,"ax",%progbits
 1863              		.align	1
 1864              		.global	lv_fs_is_ready
 1865              		.syntax unified
 1866              		.thumb
 1867              		.thumb_func
 1869              	lv_fs_is_ready:
 1870              	.LVL176:
 1871              	.LFB189:
  66:../../Middlewares/LVGL/GUI/lvgl/src/misc/lv_fs.c ****     lv_fs_drv_t * drv = lv_fs_get_drv(letter);
 1872              		.loc 1 66 1 is_stmt 1 view -0
 1873              		.cfi_startproc
 1874              		@ args = 0, pretend = 0, frame = 0
 1875              		@ frame_needed = 0, uses_anonymous_args = 0
  66:../../Middlewares/LVGL/GUI/lvgl/src/misc/lv_fs.c ****     lv_fs_drv_t * drv = lv_fs_get_drv(letter);
 1876              		.loc 1 66 1 is_stmt 0 view .LVU571
 1877 0000 08B5     		push	{r3, lr}
 1878              	.LCFI37:
 1879              		.cfi_def_cfa_offset 8
 1880              		.cfi_offset 3, -8
 1881              		.cfi_offset 14, -4
  67:../../Middlewares/LVGL/GUI/lvgl/src/misc/lv_fs.c **** 
 1882              		.loc 1 67 5 is_stmt 1 view .LVU572
  67:../../Middlewares/LVGL/GUI/lvgl/src/misc/lv_fs.c **** 
ARM GAS  C:\Users\28576\AppData\Local\Temp\ccK3W8oA.s 			page 56


 1883              		.loc 1 67 25 is_stmt 0 view .LVU573
 1884 0002 FFF7FEFF 		bl	lv_fs_get_drv
 1885              	.LVL177:
  69:../../Middlewares/LVGL/GUI/lvgl/src/misc/lv_fs.c **** 
 1886              		.loc 1 69 5 is_stmt 1 view .LVU574
  69:../../Middlewares/LVGL/GUI/lvgl/src/misc/lv_fs.c **** 
 1887              		.loc 1 69 7 is_stmt 0 view .LVU575
 1888 0006 10B1     		cbz	r0, .L141
  71:../../Middlewares/LVGL/GUI/lvgl/src/misc/lv_fs.c **** 
 1889              		.loc 1 71 5 is_stmt 1 view .LVU576
  71:../../Middlewares/LVGL/GUI/lvgl/src/misc/lv_fs.c **** 
 1890              		.loc 1 71 11 is_stmt 0 view .LVU577
 1891 0008 8268     		ldr	r2, [r0, #8]
  71:../../Middlewares/LVGL/GUI/lvgl/src/misc/lv_fs.c **** 
 1892              		.loc 1 71 7 view .LVU578
 1893 000a 0AB1     		cbz	r2, .L143
  73:../../Middlewares/LVGL/GUI/lvgl/src/misc/lv_fs.c **** }
 1894              		.loc 1 73 5 is_stmt 1 view .LVU579
  73:../../Middlewares/LVGL/GUI/lvgl/src/misc/lv_fs.c **** }
 1895              		.loc 1 73 12 is_stmt 0 view .LVU580
 1896 000c 9047     		blx	r2
 1897              	.LVL178:
 1898              	.L141:
  74:../../Middlewares/LVGL/GUI/lvgl/src/misc/lv_fs.c **** 
 1899              		.loc 1 74 1 view .LVU581
 1900 000e 08BD     		pop	{r3, pc}
 1901              	.LVL179:
 1902              	.L143:
  71:../../Middlewares/LVGL/GUI/lvgl/src/misc/lv_fs.c **** 
 1903              		.loc 1 71 38 discriminator 1 view .LVU582
 1904 0010 0120     		movs	r0, #1
 1905              	.LVL180:
  71:../../Middlewares/LVGL/GUI/lvgl/src/misc/lv_fs.c **** 
 1906              		.loc 1 71 38 discriminator 1 view .LVU583
 1907 0012 FCE7     		b	.L141
 1908              		.cfi_endproc
 1909              	.LFE189:
 1911              		.section	.text.lv_fs_open,"ax",%progbits
 1912              		.align	1
 1913              		.global	lv_fs_open
 1914              		.syntax unified
 1915              		.thumb
 1916              		.thumb_func
 1918              	lv_fs_open:
 1919              	.LVL181:
 1920              	.LFB190:
  77:../../Middlewares/LVGL/GUI/lvgl/src/misc/lv_fs.c ****     if(path == NULL) {
 1921              		.loc 1 77 1 is_stmt 1 view -0
 1922              		.cfi_startproc
 1923              		@ args = 0, pretend = 0, frame = 8
 1924              		@ frame_needed = 0, uses_anonymous_args = 0
  78:../../Middlewares/LVGL/GUI/lvgl/src/misc/lv_fs.c ****         LV_LOG_WARN("Can't open file: path is NULL");
 1925              		.loc 1 78 5 view .LVU585
  78:../../Middlewares/LVGL/GUI/lvgl/src/misc/lv_fs.c ****         LV_LOG_WARN("Can't open file: path is NULL");
 1926              		.loc 1 78 7 is_stmt 0 view .LVU586
 1927 0000 0029     		cmp	r1, #0
 1928 0002 4AD0     		beq	.L153
ARM GAS  C:\Users\28576\AppData\Local\Temp\ccK3W8oA.s 			page 57


  77:../../Middlewares/LVGL/GUI/lvgl/src/misc/lv_fs.c ****     if(path == NULL) {
 1929              		.loc 1 77 1 view .LVU587
 1930 0004 F0B5     		push	{r4, r5, r6, r7, lr}
 1931              	.LCFI38:
 1932              		.cfi_def_cfa_offset 20
 1933              		.cfi_offset 4, -20
 1934              		.cfi_offset 5, -16
 1935              		.cfi_offset 6, -12
 1936              		.cfi_offset 7, -8
 1937              		.cfi_offset 14, -4
 1938 0006 83B0     		sub	sp, sp, #12
 1939              	.LCFI39:
 1940              		.cfi_def_cfa_offset 32
 1941 0008 0546     		mov	r5, r0
 1942 000a 1646     		mov	r6, r2
 1943 000c 0F46     		mov	r7, r1
  83:../../Middlewares/LVGL/GUI/lvgl/src/misc/lv_fs.c **** 
 1944              		.loc 1 83 5 is_stmt 1 view .LVU588
  83:../../Middlewares/LVGL/GUI/lvgl/src/misc/lv_fs.c **** 
 1945              		.loc 1 83 37 is_stmt 0 view .LVU589
 1946 000e 6846     		mov	r0, sp
 1947              	.LVL182:
  83:../../Middlewares/LVGL/GUI/lvgl/src/misc/lv_fs.c **** 
 1948              		.loc 1 83 37 view .LVU590
 1949 0010 FFF7FEFF 		bl	lv_fs_resolve_path
 1950              	.LVL183:
  85:../../Middlewares/LVGL/GUI/lvgl/src/misc/lv_fs.c **** 
 1951              		.loc 1 85 5 is_stmt 1 view .LVU591
  85:../../Middlewares/LVGL/GUI/lvgl/src/misc/lv_fs.c **** 
 1952              		.loc 1 85 25 is_stmt 0 view .LVU592
 1953 0014 9DF80000 		ldrb	r0, [sp]	@ zero_extendqisi2
 1954 0018 FFF7FEFF 		bl	lv_fs_get_drv
 1955              	.LVL184:
  87:../../Middlewares/LVGL/GUI/lvgl/src/misc/lv_fs.c ****         LV_LOG_WARN("Can't open file (%s): unknown driver letter", path);
 1956              		.loc 1 87 5 is_stmt 1 view .LVU593
  87:../../Middlewares/LVGL/GUI/lvgl/src/misc/lv_fs.c ****         LV_LOG_WARN("Can't open file (%s): unknown driver letter", path);
 1957              		.loc 1 87 7 is_stmt 0 view .LVU594
 1958 001c 0446     		mov	r4, r0
 1959 001e 0028     		cmp	r0, #0
 1960 0020 3DD0     		beq	.L154
  92:../../Middlewares/LVGL/GUI/lvgl/src/misc/lv_fs.c ****         if(drv->ready_cb(drv) == false) {
 1961              		.loc 1 92 5 is_stmt 1 view .LVU595
  92:../../Middlewares/LVGL/GUI/lvgl/src/misc/lv_fs.c ****         if(drv->ready_cb(drv) == false) {
 1962              		.loc 1 92 11 is_stmt 0 view .LVU596
 1963 0022 8368     		ldr	r3, [r0, #8]
  92:../../Middlewares/LVGL/GUI/lvgl/src/misc/lv_fs.c ****         if(drv->ready_cb(drv) == false) {
 1964              		.loc 1 92 7 view .LVU597
 1965 0024 13B1     		cbz	r3, .L147
  93:../../Middlewares/LVGL/GUI/lvgl/src/misc/lv_fs.c ****             LV_LOG_WARN("Can't open file (%s): driver not ready", path);
 1966              		.loc 1 93 9 is_stmt 1 view .LVU598
  93:../../Middlewares/LVGL/GUI/lvgl/src/misc/lv_fs.c ****             LV_LOG_WARN("Can't open file (%s): driver not ready", path);
 1967              		.loc 1 93 12 is_stmt 0 view .LVU599
 1968 0026 9847     		blx	r3
 1969              	.LVL185:
  93:../../Middlewares/LVGL/GUI/lvgl/src/misc/lv_fs.c ****             LV_LOG_WARN("Can't open file (%s): driver not ready", path);
 1970              		.loc 1 93 11 discriminator 1 view .LVU600
 1971 0028 0028     		cmp	r0, #0
ARM GAS  C:\Users\28576\AppData\Local\Temp\ccK3W8oA.s 			page 58


 1972 002a 3AD0     		beq	.L155
 1973              	.L147:
  99:../../Middlewares/LVGL/GUI/lvgl/src/misc/lv_fs.c ****         LV_LOG_WARN("Can't open file (%s): open function not exists", path);
 1974              		.loc 1 99 5 is_stmt 1 view .LVU601
  99:../../Middlewares/LVGL/GUI/lvgl/src/misc/lv_fs.c ****         LV_LOG_WARN("Can't open file (%s): open function not exists", path);
 1975              		.loc 1 99 11 is_stmt 0 view .LVU602
 1976 002c E368     		ldr	r3, [r4, #12]
  99:../../Middlewares/LVGL/GUI/lvgl/src/misc/lv_fs.c ****         LV_LOG_WARN("Can't open file (%s): open function not exists", path);
 1977              		.loc 1 99 7 view .LVU603
 1978 002e 002B     		cmp	r3, #0
 1979 0030 39D0     		beq	.L156
 104:../../Middlewares/LVGL/GUI/lvgl/src/misc/lv_fs.c **** 
 1980              		.loc 1 104 25 is_stmt 1 view .LVU604
 106:../../Middlewares/LVGL/GUI/lvgl/src/misc/lv_fs.c **** 
 1981              		.loc 1 106 5 view .LVU605
 106:../../Middlewares/LVGL/GUI/lvgl/src/misc/lv_fs.c **** 
 1982              		.loc 1 106 17 is_stmt 0 view .LVU606
 1983 0032 6C60     		str	r4, [r5, #4]
 109:../../Middlewares/LVGL/GUI/lvgl/src/misc/lv_fs.c ****         file_p->file_d = file_p;
 1984              		.loc 1 109 5 is_stmt 1 view .LVU607
 109:../../Middlewares/LVGL/GUI/lvgl/src/misc/lv_fs.c ****         file_p->file_d = file_p;
 1985              		.loc 1 109 11 is_stmt 0 view .LVU608
 1986 0034 6368     		ldr	r3, [r4, #4]
 109:../../Middlewares/LVGL/GUI/lvgl/src/misc/lv_fs.c ****         file_p->file_d = file_p;
 1987              		.loc 1 109 7 view .LVU609
 1988 0036 B3F1FF3F 		cmp	r3, #-1
 1989 003a 0ED0     		beq	.L163
 1990              	.LBB16:
 113:../../Middlewares/LVGL/GUI/lvgl/src/misc/lv_fs.c ****         if(file_d == NULL || file_d == (void *)(-1)) {
 1991              		.loc 1 113 9 is_stmt 1 view .LVU610
 113:../../Middlewares/LVGL/GUI/lvgl/src/misc/lv_fs.c ****         if(file_d == NULL || file_d == (void *)(-1)) {
 1992              		.loc 1 113 28 is_stmt 0 view .LVU611
 1993 003c E368     		ldr	r3, [r4, #12]
 113:../../Middlewares/LVGL/GUI/lvgl/src/misc/lv_fs.c ****         if(file_d == NULL || file_d == (void *)(-1)) {
 1994              		.loc 1 113 25 view .LVU612
 1995 003e 3246     		mov	r2, r6
 1996 0040 0199     		ldr	r1, [sp, #4]
 1997 0042 2046     		mov	r0, r4
 1998 0044 9847     		blx	r3
 1999              	.LVL186:
 114:../../Middlewares/LVGL/GUI/lvgl/src/misc/lv_fs.c ****             LV_PROFILER_FS_END;
 2000              		.loc 1 114 9 is_stmt 1 view .LVU613
 114:../../Middlewares/LVGL/GUI/lvgl/src/misc/lv_fs.c ****             LV_PROFILER_FS_END;
 2001              		.loc 1 114 27 is_stmt 0 view .LVU614
 2002 0046 431E     		subs	r3, r0, #1
 114:../../Middlewares/LVGL/GUI/lvgl/src/misc/lv_fs.c ****             LV_PROFILER_FS_END;
 2003              		.loc 1 114 11 view .LVU615
 2004 0048 13F1030F 		cmn	r3, #3
 2005 004c 2DD8     		bhi	.L157
 118:../../Middlewares/LVGL/GUI/lvgl/src/misc/lv_fs.c ****     }
 2006              		.loc 1 118 9 is_stmt 1 view .LVU616
 118:../../Middlewares/LVGL/GUI/lvgl/src/misc/lv_fs.c ****     }
 2007              		.loc 1 118 24 is_stmt 0 view .LVU617
 2008 004e 2860     		str	r0, [r5]
 2009              	.LVL187:
 2010              	.L149:
 118:../../Middlewares/LVGL/GUI/lvgl/src/misc/lv_fs.c ****     }
ARM GAS  C:\Users\28576\AppData\Local\Temp\ccK3W8oA.s 			page 59


 2011              		.loc 1 118 24 view .LVU618
 2012              	.LBE16:
 121:../../Middlewares/LVGL/GUI/lvgl/src/misc/lv_fs.c ****         file_p->cache = lv_malloc_zeroed(sizeof(lv_fs_file_cache_t));
 2013              		.loc 1 121 5 is_stmt 1 view .LVU619
 121:../../Middlewares/LVGL/GUI/lvgl/src/misc/lv_fs.c ****         file_p->cache = lv_malloc_zeroed(sizeof(lv_fs_file_cache_t));
 2014              		.loc 1 121 11 is_stmt 0 view .LVU620
 2015 0050 6368     		ldr	r3, [r4, #4]
 121:../../Middlewares/LVGL/GUI/lvgl/src/misc/lv_fs.c ****         file_p->cache = lv_malloc_zeroed(sizeof(lv_fs_file_cache_t));
 2016              		.loc 1 121 7 view .LVU621
 2017 0052 23B9     		cbnz	r3, .L164
 142:../../Middlewares/LVGL/GUI/lvgl/src/misc/lv_fs.c **** }
 2018              		.loc 1 142 12 view .LVU622
 2019 0054 1846     		mov	r0, r3
 2020              	.L146:
 143:../../Middlewares/LVGL/GUI/lvgl/src/misc/lv_fs.c **** 
 2021              		.loc 1 143 1 view .LVU623
 2022 0056 03B0     		add	sp, sp, #12
 2023              	.LCFI40:
 2024              		.cfi_remember_state
 2025              		.cfi_def_cfa_offset 20
 2026              		@ sp needed
 2027 0058 F0BD     		pop	{r4, r5, r6, r7, pc}
 2028              	.LVL188:
 2029              	.L163:
 2030              	.LCFI41:
 2031              		.cfi_restore_state
 110:../../Middlewares/LVGL/GUI/lvgl/src/misc/lv_fs.c ****     }
 2032              		.loc 1 110 9 is_stmt 1 view .LVU624
 110:../../Middlewares/LVGL/GUI/lvgl/src/misc/lv_fs.c ****     }
 2033              		.loc 1 110 24 is_stmt 0 view .LVU625
 2034 005a 2D60     		str	r5, [r5]
 2035 005c F8E7     		b	.L149
 2036              	.L164:
 122:../../Middlewares/LVGL/GUI/lvgl/src/misc/lv_fs.c ****         LV_ASSERT_MALLOC(file_p->cache);
 2037              		.loc 1 122 9 is_stmt 1 view .LVU626
 122:../../Middlewares/LVGL/GUI/lvgl/src/misc/lv_fs.c ****         LV_ASSERT_MALLOC(file_p->cache);
 2038              		.loc 1 122 25 is_stmt 0 view .LVU627
 2039 005e 1020     		movs	r0, #16
 2040 0060 FFF7FEFF 		bl	lv_malloc_zeroed
 2041              	.LVL189:
 122:../../Middlewares/LVGL/GUI/lvgl/src/misc/lv_fs.c ****         LV_ASSERT_MALLOC(file_p->cache);
 2042              		.loc 1 122 23 discriminator 1 view .LVU628
 2043 0064 A860     		str	r0, [r5, #8]
 123:../../Middlewares/LVGL/GUI/lvgl/src/misc/lv_fs.c **** 
 2044              		.loc 1 123 9 is_stmt 1 view .LVU629
 123:../../Middlewares/LVGL/GUI/lvgl/src/misc/lv_fs.c **** 
 2045              		.loc 1 123 9 view .LVU630
 2046 0066 60B1     		cbz	r0, .L151
 123:../../Middlewares/LVGL/GUI/lvgl/src/misc/lv_fs.c **** 
 2047              		.loc 1 123 9 view .LVU631
 123:../../Middlewares/LVGL/GUI/lvgl/src/misc/lv_fs.c **** 
 2048              		.loc 1 123 40 view .LVU632
 126:../../Middlewares/LVGL/GUI/lvgl/src/misc/lv_fs.c ****             lv_fs_path_ex_t * path_ex = (lv_fs_path_ex_t *)path;
 2049              		.loc 1 126 9 view .LVU633
 126:../../Middlewares/LVGL/GUI/lvgl/src/misc/lv_fs.c ****             lv_fs_path_ex_t * path_ex = (lv_fs_path_ex_t *)path;
 2050              		.loc 1 126 15 is_stmt 0 view .LVU634
 2051 0068 6368     		ldr	r3, [r4, #4]
ARM GAS  C:\Users\28576\AppData\Local\Temp\ccK3W8oA.s 			page 60


 126:../../Middlewares/LVGL/GUI/lvgl/src/misc/lv_fs.c ****             lv_fs_path_ex_t * path_ex = (lv_fs_path_ex_t *)path;
 2052              		.loc 1 126 11 view .LVU635
 2053 006a B3F1FF3F 		cmp	r3, #-1
 2054 006e 09D0     		beq	.L165
 135:../../Middlewares/LVGL/GUI/lvgl/src/misc/lv_fs.c ****             file_p->cache->end = UINT32_MAX - 1;
 2055              		.loc 1 135 13 is_stmt 1 view .LVU636
 135:../../Middlewares/LVGL/GUI/lvgl/src/misc/lv_fs.c ****             file_p->cache->end = UINT32_MAX - 1;
 2056              		.loc 1 135 34 is_stmt 0 view .LVU637
 2057 0070 4FF0FF33 		mov	r3, #-1
 2058 0074 0360     		str	r3, [r0]
 136:../../Middlewares/LVGL/GUI/lvgl/src/misc/lv_fs.c ****         }
 2059              		.loc 1 136 13 is_stmt 1 view .LVU638
 136:../../Middlewares/LVGL/GUI/lvgl/src/misc/lv_fs.c ****         }
 2060              		.loc 1 136 19 is_stmt 0 view .LVU639
 2061 0076 AB68     		ldr	r3, [r5, #8]
 136:../../Middlewares/LVGL/GUI/lvgl/src/misc/lv_fs.c ****         }
 2062              		.loc 1 136 32 view .LVU640
 2063 0078 6FF00102 		mvn	r2, #1
 2064 007c 5A60     		str	r2, [r3, #4]
 142:../../Middlewares/LVGL/GUI/lvgl/src/misc/lv_fs.c **** }
 2065              		.loc 1 142 12 view .LVU641
 2066 007e 0020     		movs	r0, #0
 2067 0080 E9E7     		b	.L146
 2068              	.L151:
 123:../../Middlewares/LVGL/GUI/lvgl/src/misc/lv_fs.c **** 
 2069              		.loc 1 123 9 is_stmt 1 view .LVU642
 123:../../Middlewares/LVGL/GUI/lvgl/src/misc/lv_fs.c **** 
 2070              		.loc 1 123 9 view .LVU643
 123:../../Middlewares/LVGL/GUI/lvgl/src/misc/lv_fs.c **** 
 2071              		.loc 1 123 9 view .LVU644
 123:../../Middlewares/LVGL/GUI/lvgl/src/misc/lv_fs.c **** 
 2072              		.loc 1 123 9 view .LVU645
 123:../../Middlewares/LVGL/GUI/lvgl/src/misc/lv_fs.c **** 
 2073              		.loc 1 123 9 view .LVU646
 2074 0082 FEE7     		b	.L151
 2075              	.L165:
 2076              	.LBB17:
 127:../../Middlewares/LVGL/GUI/lvgl/src/misc/lv_fs.c ****             file_p->cache->buffer = (void *)path_ex->buffer;
 2077              		.loc 1 127 13 view .LVU647
 2078              	.LVL190:
 128:../../Middlewares/LVGL/GUI/lvgl/src/misc/lv_fs.c ****             file_p->cache->start = 0;
 2079              		.loc 1 128 13 view .LVU648
 128:../../Middlewares/LVGL/GUI/lvgl/src/misc/lv_fs.c ****             file_p->cache->start = 0;
 2080              		.loc 1 128 52 is_stmt 0 view .LVU649
 2081 0084 7B68     		ldr	r3, [r7, #4]
 128:../../Middlewares/LVGL/GUI/lvgl/src/misc/lv_fs.c ****             file_p->cache->start = 0;
 2082              		.loc 1 128 35 view .LVU650
 2083 0086 C360     		str	r3, [r0, #12]
 129:../../Middlewares/LVGL/GUI/lvgl/src/misc/lv_fs.c ****             file_p->cache->file_position = 0;
 2084              		.loc 1 129 13 is_stmt 1 view .LVU651
 129:../../Middlewares/LVGL/GUI/lvgl/src/misc/lv_fs.c ****             file_p->cache->file_position = 0;
 2085              		.loc 1 129 19 is_stmt 0 view .LVU652
 2086 0088 AB68     		ldr	r3, [r5, #8]
 129:../../Middlewares/LVGL/GUI/lvgl/src/misc/lv_fs.c ****             file_p->cache->file_position = 0;
 2087              		.loc 1 129 34 view .LVU653
 2088 008a 0020     		movs	r0, #0
 2089 008c 1860     		str	r0, [r3]
ARM GAS  C:\Users\28576\AppData\Local\Temp\ccK3W8oA.s 			page 61


 130:../../Middlewares/LVGL/GUI/lvgl/src/misc/lv_fs.c ****             file_p->cache->end = path_ex->size;
 2090              		.loc 1 130 13 is_stmt 1 view .LVU654
 130:../../Middlewares/LVGL/GUI/lvgl/src/misc/lv_fs.c ****             file_p->cache->end = path_ex->size;
 2091              		.loc 1 130 19 is_stmt 0 view .LVU655
 2092 008e AB68     		ldr	r3, [r5, #8]
 130:../../Middlewares/LVGL/GUI/lvgl/src/misc/lv_fs.c ****             file_p->cache->end = path_ex->size;
 2093              		.loc 1 130 42 view .LVU656
 2094 0090 9860     		str	r0, [r3, #8]
 131:../../Middlewares/LVGL/GUI/lvgl/src/misc/lv_fs.c ****         }
 2095              		.loc 1 131 13 is_stmt 1 view .LVU657
 131:../../Middlewares/LVGL/GUI/lvgl/src/misc/lv_fs.c ****         }
 2096              		.loc 1 131 19 is_stmt 0 view .LVU658
 2097 0092 AB68     		ldr	r3, [r5, #8]
 131:../../Middlewares/LVGL/GUI/lvgl/src/misc/lv_fs.c ****         }
 2098              		.loc 1 131 41 view .LVU659
 2099 0094 BA68     		ldr	r2, [r7, #8]
 131:../../Middlewares/LVGL/GUI/lvgl/src/misc/lv_fs.c ****         }
 2100              		.loc 1 131 32 view .LVU660
 2101 0096 5A60     		str	r2, [r3, #4]
 2102              	.LBE17:
 2103 0098 DDE7     		b	.L146
 2104              	.LVL191:
 2105              	.L153:
 2106              	.LCFI42:
 2107              		.cfi_def_cfa_offset 0
 2108              		.cfi_restore 4
 2109              		.cfi_restore 5
 2110              		.cfi_restore 6
 2111              		.cfi_restore 7
 2112              		.cfi_restore 14
  80:../../Middlewares/LVGL/GUI/lvgl/src/misc/lv_fs.c ****     }
 2113              		.loc 1 80 16 view .LVU661
 2114 009a 0B20     		movs	r0, #11
 2115              	.LVL192:
 143:../../Middlewares/LVGL/GUI/lvgl/src/misc/lv_fs.c **** 
 2116              		.loc 1 143 1 view .LVU662
 2117 009c 7047     		bx	lr
 2118              	.LVL193:
 2119              	.L154:
 2120              	.LCFI43:
 2121              		.cfi_def_cfa_offset 32
 2122              		.cfi_offset 4, -20
 2123              		.cfi_offset 5, -16
 2124              		.cfi_offset 6, -12
 2125              		.cfi_offset 7, -8
 2126              		.cfi_offset 14, -4
  89:../../Middlewares/LVGL/GUI/lvgl/src/misc/lv_fs.c ****     }
 2127              		.loc 1 89 16 view .LVU663
 2128 009e 0320     		movs	r0, #3
 2129              	.LVL194:
  89:../../Middlewares/LVGL/GUI/lvgl/src/misc/lv_fs.c ****     }
 2130              		.loc 1 89 16 view .LVU664
 2131 00a0 D9E7     		b	.L146
 2132              	.L155:
  95:../../Middlewares/LVGL/GUI/lvgl/src/misc/lv_fs.c ****         }
 2133              		.loc 1 95 20 view .LVU665
 2134 00a2 0120     		movs	r0, #1
ARM GAS  C:\Users\28576\AppData\Local\Temp\ccK3W8oA.s 			page 62


 2135 00a4 D7E7     		b	.L146
 2136              	.L156:
 101:../../Middlewares/LVGL/GUI/lvgl/src/misc/lv_fs.c ****     }
 2137              		.loc 1 101 16 view .LVU666
 2138 00a6 0920     		movs	r0, #9
 2139 00a8 D5E7     		b	.L146
 2140              	.LVL195:
 2141              	.L157:
 2142              	.LBB18:
 116:../../Middlewares/LVGL/GUI/lvgl/src/misc/lv_fs.c ****         }
 2143              		.loc 1 116 20 view .LVU667
 2144 00aa 0C20     		movs	r0, #12
 2145              	.LVL196:
 116:../../Middlewares/LVGL/GUI/lvgl/src/misc/lv_fs.c ****         }
 2146              		.loc 1 116 20 view .LVU668
 2147 00ac D3E7     		b	.L146
 2148              	.LBE18:
 2149              		.cfi_endproc
 2150              	.LFE190:
 2152              		.section	.text.lv_fs_dir_open,"ax",%progbits
 2153              		.align	1
 2154              		.global	lv_fs_dir_open
 2155              		.syntax unified
 2156              		.thumb
 2157              		.thumb_func
 2159              	lv_fs_dir_open:
 2160              	.LVL197:
 2161              	.LFB197:
 305:../../Middlewares/LVGL/GUI/lvgl/src/misc/lv_fs.c ****     if(path == NULL) return LV_FS_RES_INV_PARAM;
 2162              		.loc 1 305 1 is_stmt 1 view -0
 2163              		.cfi_startproc
 2164              		@ args = 0, pretend = 0, frame = 8
 2165              		@ frame_needed = 0, uses_anonymous_args = 0
 306:../../Middlewares/LVGL/GUI/lvgl/src/misc/lv_fs.c **** 
 2166              		.loc 1 306 5 view .LVU670
 306:../../Middlewares/LVGL/GUI/lvgl/src/misc/lv_fs.c **** 
 2167              		.loc 1 306 7 is_stmt 0 view .LVU671
 2168 0000 E9B1     		cbz	r1, .L169
 305:../../Middlewares/LVGL/GUI/lvgl/src/misc/lv_fs.c ****     if(path == NULL) return LV_FS_RES_INV_PARAM;
 2169              		.loc 1 305 1 view .LVU672
 2170 0002 30B5     		push	{r4, r5, lr}
 2171              	.LCFI44:
 2172              		.cfi_def_cfa_offset 12
 2173              		.cfi_offset 4, -12
 2174              		.cfi_offset 5, -8
 2175              		.cfi_offset 14, -4
 2176 0004 83B0     		sub	sp, sp, #12
 2177              	.LCFI45:
 2178              		.cfi_def_cfa_offset 24
 2179 0006 0546     		mov	r5, r0
 308:../../Middlewares/LVGL/GUI/lvgl/src/misc/lv_fs.c **** 
 2180              		.loc 1 308 5 is_stmt 1 view .LVU673
 308:../../Middlewares/LVGL/GUI/lvgl/src/misc/lv_fs.c **** 
 2181              		.loc 1 308 37 is_stmt 0 view .LVU674
 2182 0008 6846     		mov	r0, sp
 2183              	.LVL198:
 308:../../Middlewares/LVGL/GUI/lvgl/src/misc/lv_fs.c **** 
ARM GAS  C:\Users\28576\AppData\Local\Temp\ccK3W8oA.s 			page 63


 2184              		.loc 1 308 37 view .LVU675
 2185 000a FFF7FEFF 		bl	lv_fs_resolve_path
 2186              	.LVL199:
 310:../../Middlewares/LVGL/GUI/lvgl/src/misc/lv_fs.c **** 
 2187              		.loc 1 310 5 is_stmt 1 view .LVU676
 310:../../Middlewares/LVGL/GUI/lvgl/src/misc/lv_fs.c **** 
 2188              		.loc 1 310 25 is_stmt 0 view .LVU677
 2189 000e 9DF80000 		ldrb	r0, [sp]	@ zero_extendqisi2
 2190 0012 FFF7FEFF 		bl	lv_fs_get_drv
 2191              	.LVL200:
 312:../../Middlewares/LVGL/GUI/lvgl/src/misc/lv_fs.c ****         return LV_FS_RES_NOT_EX;
 2192              		.loc 1 312 5 is_stmt 1 view .LVU678
 312:../../Middlewares/LVGL/GUI/lvgl/src/misc/lv_fs.c ****         return LV_FS_RES_NOT_EX;
 2193              		.loc 1 312 7 is_stmt 0 view .LVU679
 2194 0016 0446     		mov	r4, r0
 2195 0018 98B1     		cbz	r0, .L170
 316:../../Middlewares/LVGL/GUI/lvgl/src/misc/lv_fs.c ****         if(drv->ready_cb(drv) == false) {
 2196              		.loc 1 316 5 is_stmt 1 view .LVU680
 316:../../Middlewares/LVGL/GUI/lvgl/src/misc/lv_fs.c ****         if(drv->ready_cb(drv) == false) {
 2197              		.loc 1 316 11 is_stmt 0 view .LVU681
 2198 001a 8368     		ldr	r3, [r0, #8]
 316:../../Middlewares/LVGL/GUI/lvgl/src/misc/lv_fs.c ****         if(drv->ready_cb(drv) == false) {
 2199              		.loc 1 316 7 view .LVU682
 2200 001c 0BB1     		cbz	r3, .L168
 317:../../Middlewares/LVGL/GUI/lvgl/src/misc/lv_fs.c ****             return LV_FS_RES_HW_ERR;
 2201              		.loc 1 317 9 is_stmt 1 view .LVU683
 317:../../Middlewares/LVGL/GUI/lvgl/src/misc/lv_fs.c ****             return LV_FS_RES_HW_ERR;
 2202              		.loc 1 317 12 is_stmt 0 view .LVU684
 2203 001e 9847     		blx	r3
 2204              	.LVL201:
 317:../../Middlewares/LVGL/GUI/lvgl/src/misc/lv_fs.c ****             return LV_FS_RES_HW_ERR;
 2205              		.loc 1 317 11 discriminator 1 view .LVU685
 2206 0020 88B1     		cbz	r0, .L171
 2207              	.L168:
 322:../../Middlewares/LVGL/GUI/lvgl/src/misc/lv_fs.c ****         return LV_FS_RES_NOT_IMP;
 2208              		.loc 1 322 5 is_stmt 1 view .LVU686
 322:../../Middlewares/LVGL/GUI/lvgl/src/misc/lv_fs.c ****         return LV_FS_RES_NOT_IMP;
 2209              		.loc 1 322 11 is_stmt 0 view .LVU687
 2210 0022 636A     		ldr	r3, [r4, #36]
 322:../../Middlewares/LVGL/GUI/lvgl/src/misc/lv_fs.c ****         return LV_FS_RES_NOT_IMP;
 2211              		.loc 1 322 7 view .LVU688
 2212 0024 8BB1     		cbz	r3, .L172
 326:../../Middlewares/LVGL/GUI/lvgl/src/misc/lv_fs.c **** 
 2213              		.loc 1 326 25 is_stmt 1 view .LVU689
 328:../../Middlewares/LVGL/GUI/lvgl/src/misc/lv_fs.c **** 
 2214              		.loc 1 328 5 view .LVU690
 328:../../Middlewares/LVGL/GUI/lvgl/src/misc/lv_fs.c **** 
 2215              		.loc 1 328 20 is_stmt 0 view .LVU691
 2216 0026 0199     		ldr	r1, [sp, #4]
 2217 0028 2046     		mov	r0, r4
 2218 002a 9847     		blx	r3
 2219              	.LVL202:
 330:../../Middlewares/LVGL/GUI/lvgl/src/misc/lv_fs.c ****         LV_PROFILER_FS_END;
 2220              		.loc 1 330 5 is_stmt 1 view .LVU692
 330:../../Middlewares/LVGL/GUI/lvgl/src/misc/lv_fs.c ****         LV_PROFILER_FS_END;
 2221              		.loc 1 330 22 is_stmt 0 view .LVU693
 2222 002c 421E     		subs	r2, r0, #1
ARM GAS  C:\Users\28576\AppData\Local\Temp\ccK3W8oA.s 			page 64


 330:../../Middlewares/LVGL/GUI/lvgl/src/misc/lv_fs.c ****         LV_PROFILER_FS_END;
 2223              		.loc 1 330 7 view .LVU694
 2224 002e 12F1030F 		cmn	r2, #3
 2225 0032 0CD8     		bhi	.L173
 335:../../Middlewares/LVGL/GUI/lvgl/src/misc/lv_fs.c ****     rddir_p->dir_d = dir_d;
 2226              		.loc 1 335 5 is_stmt 1 view .LVU695
 335:../../Middlewares/LVGL/GUI/lvgl/src/misc/lv_fs.c ****     rddir_p->dir_d = dir_d;
 2227              		.loc 1 335 18 is_stmt 0 view .LVU696
 2228 0034 6C60     		str	r4, [r5, #4]
 336:../../Middlewares/LVGL/GUI/lvgl/src/misc/lv_fs.c **** 
 2229              		.loc 1 336 5 is_stmt 1 view .LVU697
 336:../../Middlewares/LVGL/GUI/lvgl/src/misc/lv_fs.c **** 
 2230              		.loc 1 336 20 is_stmt 0 view .LVU698
 2231 0036 2860     		str	r0, [r5]
 338:../../Middlewares/LVGL/GUI/lvgl/src/misc/lv_fs.c **** 
 2232              		.loc 1 338 23 is_stmt 1 view .LVU699
 340:../../Middlewares/LVGL/GUI/lvgl/src/misc/lv_fs.c **** }
 2233              		.loc 1 340 5 view .LVU700
 340:../../Middlewares/LVGL/GUI/lvgl/src/misc/lv_fs.c **** }
 2234              		.loc 1 340 12 is_stmt 0 view .LVU701
 2235 0038 0020     		movs	r0, #0
 2236              	.LVL203:
 2237              	.L167:
 341:../../Middlewares/LVGL/GUI/lvgl/src/misc/lv_fs.c **** 
 2238              		.loc 1 341 1 view .LVU702
 2239 003a 03B0     		add	sp, sp, #12
 2240              	.LCFI46:
 2241              		.cfi_def_cfa_offset 12
 2242              		@ sp needed
 2243 003c 30BD     		pop	{r4, r5, pc}
 2244              	.LVL204:
 2245              	.L169:
 2246              	.LCFI47:
 2247              		.cfi_def_cfa_offset 0
 2248              		.cfi_restore 4
 2249              		.cfi_restore 5
 2250              		.cfi_restore 14
 306:../../Middlewares/LVGL/GUI/lvgl/src/misc/lv_fs.c **** 
 2251              		.loc 1 306 29 discriminator 1 view .LVU703
 2252 003e 0B20     		movs	r0, #11
 2253              	.LVL205:
 341:../../Middlewares/LVGL/GUI/lvgl/src/misc/lv_fs.c **** 
 2254              		.loc 1 341 1 view .LVU704
 2255 0040 7047     		bx	lr
 2256              	.LVL206:
 2257              	.L170:
 2258              	.LCFI48:
 2259              		.cfi_def_cfa_offset 24
 2260              		.cfi_offset 4, -12
 2261              		.cfi_offset 5, -8
 2262              		.cfi_offset 14, -4
 313:../../Middlewares/LVGL/GUI/lvgl/src/misc/lv_fs.c ****     }
 2263              		.loc 1 313 16 view .LVU705
 2264 0042 0320     		movs	r0, #3
 2265              	.LVL207:
 313:../../Middlewares/LVGL/GUI/lvgl/src/misc/lv_fs.c ****     }
 2266              		.loc 1 313 16 view .LVU706
ARM GAS  C:\Users\28576\AppData\Local\Temp\ccK3W8oA.s 			page 65


 2267 0044 F9E7     		b	.L167
 2268              	.L171:
 318:../../Middlewares/LVGL/GUI/lvgl/src/misc/lv_fs.c ****         }
 2269              		.loc 1 318 20 view .LVU707
 2270 0046 0120     		movs	r0, #1
 2271 0048 F7E7     		b	.L167
 2272              	.L172:
 323:../../Middlewares/LVGL/GUI/lvgl/src/misc/lv_fs.c ****     }
 2273              		.loc 1 323 16 view .LVU708
 2274 004a 0920     		movs	r0, #9
 2275 004c F5E7     		b	.L167
 2276              	.LVL208:
 2277              	.L173:
 332:../../Middlewares/LVGL/GUI/lvgl/src/misc/lv_fs.c ****     }
 2278              		.loc 1 332 16 view .LVU709
 2279 004e 0C20     		movs	r0, #12
 2280              	.LVL209:
 332:../../Middlewares/LVGL/GUI/lvgl/src/misc/lv_fs.c ****     }
 2281              		.loc 1 332 16 view .LVU710
 2282 0050 F3E7     		b	.L167
 2283              		.cfi_endproc
 2284              	.LFE197:
 2286              		.section	.text.lv_fs_get_letters,"ax",%progbits
 2287              		.align	1
 2288              		.global	lv_fs_get_letters
 2289              		.syntax unified
 2290              		.thumb
 2291              		.thumb_func
 2293              	lv_fs_get_letters:
 2294              	.LVL210:
 2295              	.LFB203:
 420:../../Middlewares/LVGL/GUI/lvgl/src/misc/lv_fs.c ****     lv_fs_drv_t ** drv;
 2296              		.loc 1 420 1 is_stmt 1 view -0
 2297              		.cfi_startproc
 2298              		@ args = 0, pretend = 0, frame = 0
 2299              		@ frame_needed = 0, uses_anonymous_args = 0
 420:../../Middlewares/LVGL/GUI/lvgl/src/misc/lv_fs.c ****     lv_fs_drv_t ** drv;
 2300              		.loc 1 420 1 is_stmt 0 view .LVU712
 2301 0000 38B5     		push	{r3, r4, r5, lr}
 2302              	.LCFI49:
 2303              		.cfi_def_cfa_offset 16
 2304              		.cfi_offset 3, -16
 2305              		.cfi_offset 4, -12
 2306              		.cfi_offset 5, -8
 2307              		.cfi_offset 14, -4
 2308 0002 0546     		mov	r5, r0
 421:../../Middlewares/LVGL/GUI/lvgl/src/misc/lv_fs.c ****     uint8_t i = 0;
 2309              		.loc 1 421 5 is_stmt 1 view .LVU713
 422:../../Middlewares/LVGL/GUI/lvgl/src/misc/lv_fs.c **** 
 2310              		.loc 1 422 5 view .LVU714
 2311              	.LVL211:
 424:../../Middlewares/LVGL/GUI/lvgl/src/misc/lv_fs.c ****         buf[i] = (*drv)->letter;
 2312              		.loc 1 424 5 view .LVU715
 2313 0004 0948     		ldr	r0, .L182
 2314              	.LVL212:
 424:../../Middlewares/LVGL/GUI/lvgl/src/misc/lv_fs.c ****         buf[i] = (*drv)->letter;
 2315              		.loc 1 424 5 is_stmt 0 view .LVU716
ARM GAS  C:\Users\28576\AppData\Local\Temp\ccK3W8oA.s 			page 66


 2316 0006 FFF7FEFF 		bl	lv_ll_get_head
 2317              	.LVL213:
 2318 000a 0146     		mov	r1, r0
 2319              	.LVL214:
 422:../../Middlewares/LVGL/GUI/lvgl/src/misc/lv_fs.c **** 
 2320              		.loc 1 422 13 view .LVU717
 2321 000c 0024     		movs	r4, #0
 424:../../Middlewares/LVGL/GUI/lvgl/src/misc/lv_fs.c ****         buf[i] = (*drv)->letter;
 2322              		.loc 1 424 5 view .LVU718
 2323 000e 08E0     		b	.L179
 2324              	.LVL215:
 2325              	.L180:
 425:../../Middlewares/LVGL/GUI/lvgl/src/misc/lv_fs.c ****         i++;
 2326              		.loc 1 425 9 is_stmt 1 view .LVU719
 425:../../Middlewares/LVGL/GUI/lvgl/src/misc/lv_fs.c ****         i++;
 2327              		.loc 1 425 19 is_stmt 0 view .LVU720
 2328 0010 0B68     		ldr	r3, [r1]
 425:../../Middlewares/LVGL/GUI/lvgl/src/misc/lv_fs.c ****         i++;
 2329              		.loc 1 425 24 view .LVU721
 2330 0012 1B78     		ldrb	r3, [r3]	@ zero_extendqisi2
 425:../../Middlewares/LVGL/GUI/lvgl/src/misc/lv_fs.c ****         i++;
 2331              		.loc 1 425 16 view .LVU722
 2332 0014 2B55     		strb	r3, [r5, r4]
 426:../../Middlewares/LVGL/GUI/lvgl/src/misc/lv_fs.c ****     }
 2333              		.loc 1 426 9 is_stmt 1 view .LVU723
 426:../../Middlewares/LVGL/GUI/lvgl/src/misc/lv_fs.c ****     }
 2334              		.loc 1 426 10 is_stmt 0 view .LVU724
 2335 0016 0134     		adds	r4, r4, #1
 2336              	.LVL216:
 426:../../Middlewares/LVGL/GUI/lvgl/src/misc/lv_fs.c ****     }
 2337              		.loc 1 426 10 view .LVU725
 2338 0018 E4B2     		uxtb	r4, r4
 2339              	.LVL217:
 424:../../Middlewares/LVGL/GUI/lvgl/src/misc/lv_fs.c ****         buf[i] = (*drv)->letter;
 2340              		.loc 1 424 5 is_stmt 1 discriminator 5 view .LVU726
 2341 001a 0448     		ldr	r0, .L182
 2342 001c FFF7FEFF 		bl	lv_ll_get_next
 2343              	.LVL218:
 424:../../Middlewares/LVGL/GUI/lvgl/src/misc/lv_fs.c ****         buf[i] = (*drv)->letter;
 2344              		.loc 1 424 5 is_stmt 0 discriminator 5 view .LVU727
 2345 0020 0146     		mov	r1, r0
 2346              	.LVL219:
 2347              	.L179:
 424:../../Middlewares/LVGL/GUI/lvgl/src/misc/lv_fs.c ****         buf[i] = (*drv)->letter;
 2348              		.loc 1 424 5 is_stmt 1 discriminator 2 view .LVU728
 2349 0022 0029     		cmp	r1, #0
 2350 0024 F4D1     		bne	.L180
 429:../../Middlewares/LVGL/GUI/lvgl/src/misc/lv_fs.c **** 
 2351              		.loc 1 429 5 view .LVU729
 429:../../Middlewares/LVGL/GUI/lvgl/src/misc/lv_fs.c **** 
 2352              		.loc 1 429 12 is_stmt 0 view .LVU730
 2353 0026 2955     		strb	r1, [r5, r4]
 431:../../Middlewares/LVGL/GUI/lvgl/src/misc/lv_fs.c **** }
 2354              		.loc 1 431 5 is_stmt 1 view .LVU731
 432:../../Middlewares/LVGL/GUI/lvgl/src/misc/lv_fs.c **** 
 2355              		.loc 1 432 1 is_stmt 0 view .LVU732
 2356 0028 2846     		mov	r0, r5
ARM GAS  C:\Users\28576\AppData\Local\Temp\ccK3W8oA.s 			page 67


 2357 002a 38BD     		pop	{r3, r4, r5, pc}
 2358              	.LVL220:
 2359              	.L183:
 432:../../Middlewares/LVGL/GUI/lvgl/src/misc/lv_fs.c **** 
 2360              		.loc 1 432 1 view .LVU733
 2361              		.align	2
 2362              	.L182:
 2363 002c DC010000 		.word	lv_global+476
 2364              		.cfi_endproc
 2365              	.LFE203:
 2367              		.section	.rodata.lv_fs_get_ext.str1.4,"aMS",%progbits,1
 2368              		.align	2
 2369              	.LC0:
 2370 0000 00       		.ascii	"\000"
 2371              		.section	.text.lv_fs_get_ext,"ax",%progbits
 2372              		.align	1
 2373              		.global	lv_fs_get_ext
 2374              		.syntax unified
 2375              		.thumb
 2376              		.thumb_func
 2378              	lv_fs_get_ext:
 2379              	.LVL221:
 2380              	.LFB204:
 435:../../Middlewares/LVGL/GUI/lvgl/src/misc/lv_fs.c ****     size_t i;
 2381              		.loc 1 435 1 is_stmt 1 view -0
 2382              		.cfi_startproc
 2383              		@ args = 0, pretend = 0, frame = 0
 2384              		@ frame_needed = 0, uses_anonymous_args = 0
 435:../../Middlewares/LVGL/GUI/lvgl/src/misc/lv_fs.c ****     size_t i;
 2385              		.loc 1 435 1 is_stmt 0 view .LVU735
 2386 0000 10B5     		push	{r4, lr}
 2387              	.LCFI50:
 2388              		.cfi_def_cfa_offset 8
 2389              		.cfi_offset 4, -8
 2390              		.cfi_offset 14, -4
 2391 0002 0446     		mov	r4, r0
 436:../../Middlewares/LVGL/GUI/lvgl/src/misc/lv_fs.c ****     for(i = lv_strlen(fn); i > 0; i--) {
 2392              		.loc 1 436 5 is_stmt 1 view .LVU736
 437:../../Middlewares/LVGL/GUI/lvgl/src/misc/lv_fs.c ****         if(fn[i] == '.') {
 2393              		.loc 1 437 5 view .LVU737
 437:../../Middlewares/LVGL/GUI/lvgl/src/misc/lv_fs.c ****         if(fn[i] == '.') {
 2394              		.loc 1 437 13 is_stmt 0 view .LVU738
 2395 0004 FFF7FEFF 		bl	lv_strlen
 2396              	.LVL222:
 437:../../Middlewares/LVGL/GUI/lvgl/src/misc/lv_fs.c ****         if(fn[i] == '.') {
 2397              		.loc 1 437 5 view .LVU739
 2398 0008 03E0     		b	.L185
 2399              	.L192:
 439:../../Middlewares/LVGL/GUI/lvgl/src/misc/lv_fs.c ****         }
 2400              		.loc 1 439 13 is_stmt 1 view .LVU740
 439:../../Middlewares/LVGL/GUI/lvgl/src/misc/lv_fs.c ****         }
 2401              		.loc 1 439 26 is_stmt 0 view .LVU741
 2402 000a 431C     		adds	r3, r0, #1
 439:../../Middlewares/LVGL/GUI/lvgl/src/misc/lv_fs.c ****         }
 2403              		.loc 1 439 20 view .LVU742
 2404 000c E018     		adds	r0, r4, r3
 2405              	.LVL223:
ARM GAS  C:\Users\28576\AppData\Local\Temp\ccK3W8oA.s 			page 68


 439:../../Middlewares/LVGL/GUI/lvgl/src/misc/lv_fs.c ****         }
 2406              		.loc 1 439 20 view .LVU743
 2407 000e 0BE0     		b	.L184
 2408              	.LVL224:
 2409              	.L193:
 437:../../Middlewares/LVGL/GUI/lvgl/src/misc/lv_fs.c ****         if(fn[i] == '.') {
 2410              		.loc 1 437 36 is_stmt 1 discriminator 3 view .LVU744
 2411 0010 0138     		subs	r0, r0, #1
 2412              	.LVL225:
 2413              	.L185:
 437:../../Middlewares/LVGL/GUI/lvgl/src/misc/lv_fs.c ****         if(fn[i] == '.') {
 2414              		.loc 1 437 30 discriminator 2 view .LVU745
 2415 0012 40B1     		cbz	r0, .L191
 438:../../Middlewares/LVGL/GUI/lvgl/src/misc/lv_fs.c ****             return &fn[i + 1];
 2416              		.loc 1 438 9 view .LVU746
 438:../../Middlewares/LVGL/GUI/lvgl/src/misc/lv_fs.c ****             return &fn[i + 1];
 2417              		.loc 1 438 14 is_stmt 0 view .LVU747
 2418 0014 235C     		ldrb	r3, [r4, r0]	@ zero_extendqisi2
 438:../../Middlewares/LVGL/GUI/lvgl/src/misc/lv_fs.c ****             return &fn[i + 1];
 2419              		.loc 1 438 11 view .LVU748
 2420 0016 2E2B     		cmp	r3, #46
 2421 0018 F7D0     		beq	.L192
 441:../../Middlewares/LVGL/GUI/lvgl/src/misc/lv_fs.c ****             return ""; /*No extension if a '\' or '/' found*/
 2422              		.loc 1 441 14 is_stmt 1 view .LVU749
 441:../../Middlewares/LVGL/GUI/lvgl/src/misc/lv_fs.c ****             return ""; /*No extension if a '\' or '/' found*/
 2423              		.loc 1 441 16 is_stmt 0 view .LVU750
 2424 001a 5C2B     		cmp	r3, #92
 2425 001c 18BF     		it	ne
 2426 001e 2F2B     		cmpne	r3, #47
 2427 0020 F6D1     		bne	.L193
 442:../../Middlewares/LVGL/GUI/lvgl/src/misc/lv_fs.c ****         }
 2428              		.loc 1 442 20 view .LVU751
 2429 0022 0248     		ldr	r0, .L194
 2430              	.LVL226:
 442:../../Middlewares/LVGL/GUI/lvgl/src/misc/lv_fs.c ****         }
 2431              		.loc 1 442 20 view .LVU752
 2432 0024 00E0     		b	.L184
 2433              	.LVL227:
 2434              	.L191:
 446:../../Middlewares/LVGL/GUI/lvgl/src/misc/lv_fs.c **** }
 2435              		.loc 1 446 12 view .LVU753
 2436 0026 0148     		ldr	r0, .L194
 2437              	.LVL228:
 2438              	.L184:
 447:../../Middlewares/LVGL/GUI/lvgl/src/misc/lv_fs.c **** 
 2439              		.loc 1 447 1 view .LVU754
 2440 0028 10BD     		pop	{r4, pc}
 2441              	.LVL229:
 2442              	.L195:
 447:../../Middlewares/LVGL/GUI/lvgl/src/misc/lv_fs.c **** 
 2443              		.loc 1 447 1 view .LVU755
 2444 002a 00BF     		.align	2
 2445              	.L194:
 2446 002c 00000000 		.word	.LC0
 2447              		.cfi_endproc
 2448              	.LFE204:
 2450              		.section	.text.lv_fs_up,"ax",%progbits
ARM GAS  C:\Users\28576\AppData\Local\Temp\ccK3W8oA.s 			page 69


 2451              		.align	1
 2452              		.global	lv_fs_up
 2453              		.syntax unified
 2454              		.thumb
 2455              		.thumb_func
 2457              	lv_fs_up:
 2458              	.LVL230:
 2459              	.LFB205:
 450:../../Middlewares/LVGL/GUI/lvgl/src/misc/lv_fs.c ****     size_t len = lv_strlen(path);
 2460              		.loc 1 450 1 is_stmt 1 view -0
 2461              		.cfi_startproc
 2462              		@ args = 0, pretend = 0, frame = 0
 2463              		@ frame_needed = 0, uses_anonymous_args = 0
 450:../../Middlewares/LVGL/GUI/lvgl/src/misc/lv_fs.c ****     size_t len = lv_strlen(path);
 2464              		.loc 1 450 1 is_stmt 0 view .LVU757
 2465 0000 10B5     		push	{r4, lr}
 2466              	.LCFI51:
 2467              		.cfi_def_cfa_offset 8
 2468              		.cfi_offset 4, -8
 2469              		.cfi_offset 14, -4
 2470 0002 0446     		mov	r4, r0
 451:../../Middlewares/LVGL/GUI/lvgl/src/misc/lv_fs.c ****     if(len == 0) return path;
 2471              		.loc 1 451 5 is_stmt 1 view .LVU758
 451:../../Middlewares/LVGL/GUI/lvgl/src/misc/lv_fs.c ****     if(len == 0) return path;
 2472              		.loc 1 451 18 is_stmt 0 view .LVU759
 2473 0004 FFF7FEFF 		bl	lv_strlen
 2474              	.LVL231:
 452:../../Middlewares/LVGL/GUI/lvgl/src/misc/lv_fs.c **** 
 2475              		.loc 1 452 5 is_stmt 1 view .LVU760
 452:../../Middlewares/LVGL/GUI/lvgl/src/misc/lv_fs.c **** 
 2476              		.loc 1 452 7 is_stmt 0 view .LVU761
 2477 0008 B0B1     		cbz	r0, .L197
 454:../../Middlewares/LVGL/GUI/lvgl/src/misc/lv_fs.c **** 
 2478              		.loc 1 454 5 is_stmt 1 view .LVU762
 454:../../Middlewares/LVGL/GUI/lvgl/src/misc/lv_fs.c **** 
 2479              		.loc 1 454 8 is_stmt 0 view .LVU763
 2480 000a 431E     		subs	r3, r0, #1
 2481              	.LVL232:
 457:../../Middlewares/LVGL/GUI/lvgl/src/misc/lv_fs.c ****         path[len] = '\0';
 2482              		.loc 1 457 5 is_stmt 1 view .LVU764
 457:../../Middlewares/LVGL/GUI/lvgl/src/misc/lv_fs.c ****         path[len] = '\0';
 2483              		.loc 1 457 10 is_stmt 0 view .LVU765
 2484 000c 03E0     		b	.L198
 2485              	.L199:
 458:../../Middlewares/LVGL/GUI/lvgl/src/misc/lv_fs.c ****         if(len > 0)
 2486              		.loc 1 458 9 is_stmt 1 view .LVU766
 458:../../Middlewares/LVGL/GUI/lvgl/src/misc/lv_fs.c ****         if(len > 0)
 2487              		.loc 1 458 19 is_stmt 0 view .LVU767
 2488 000e 0022     		movs	r2, #0
 2489 0010 0A70     		strb	r2, [r1]
 459:../../Middlewares/LVGL/GUI/lvgl/src/misc/lv_fs.c ****             len--;
 2490              		.loc 1 459 9 is_stmt 1 view .LVU768
 459:../../Middlewares/LVGL/GUI/lvgl/src/misc/lv_fs.c ****             len--;
 2491              		.loc 1 459 11 is_stmt 0 view .LVU769
 2492 0012 8BB1     		cbz	r3, .L197
 460:../../Middlewares/LVGL/GUI/lvgl/src/misc/lv_fs.c ****         else
 2493              		.loc 1 460 13 is_stmt 1 view .LVU770
ARM GAS  C:\Users\28576\AppData\Local\Temp\ccK3W8oA.s 			page 70


 460:../../Middlewares/LVGL/GUI/lvgl/src/misc/lv_fs.c ****         else
 2494              		.loc 1 460 16 is_stmt 0 view .LVU771
 2495 0014 013B     		subs	r3, r3, #1
 2496              	.LVL233:
 2497              	.L198:
 457:../../Middlewares/LVGL/GUI/lvgl/src/misc/lv_fs.c ****         path[len] = '\0';
 2498              		.loc 1 457 28 is_stmt 1 view .LVU772
 457:../../Middlewares/LVGL/GUI/lvgl/src/misc/lv_fs.c ****         path[len] = '\0';
 2499              		.loc 1 457 15 is_stmt 0 view .LVU773
 2500 0016 E118     		adds	r1, r4, r3
 2501 0018 E25C     		ldrb	r2, [r4, r3]	@ zero_extendqisi2
 457:../../Middlewares/LVGL/GUI/lvgl/src/misc/lv_fs.c ****         path[len] = '\0';
 2502              		.loc 1 457 28 view .LVU774
 2503 001a 2F2A     		cmp	r2, #47
 2504 001c F7D0     		beq	.L199
 2505 001e 5C2A     		cmp	r2, #92
 2506 0020 F5D0     		beq	.L199
 2507              	.LVL234:
 2508              	.L200:
 466:../../Middlewares/LVGL/GUI/lvgl/src/misc/lv_fs.c ****         if(path[i] == '/' || path[i] == '\\') break;
 2509              		.loc 1 466 20 is_stmt 1 discriminator 1 view .LVU775
 2510 0022 33B1     		cbz	r3, .L201
 467:../../Middlewares/LVGL/GUI/lvgl/src/misc/lv_fs.c ****     }
 2511              		.loc 1 467 9 view .LVU776
 467:../../Middlewares/LVGL/GUI/lvgl/src/misc/lv_fs.c ****     }
 2512              		.loc 1 467 16 is_stmt 0 view .LVU777
 2513 0024 E25C     		ldrb	r2, [r4, r3]	@ zero_extendqisi2
 467:../../Middlewares/LVGL/GUI/lvgl/src/misc/lv_fs.c ****     }
 2514              		.loc 1 467 11 view .LVU778
 2515 0026 5C2A     		cmp	r2, #92
 2516 0028 18BF     		it	ne
 2517 002a 2F2A     		cmpne	r2, #47
 2518 002c 01D0     		beq	.L201
 466:../../Middlewares/LVGL/GUI/lvgl/src/misc/lv_fs.c ****         if(path[i] == '/' || path[i] == '\\') break;
 2519              		.loc 1 466 26 is_stmt 1 discriminator 2 view .LVU779
 2520 002e 013B     		subs	r3, r3, #1
 2521              	.LVL235:
 466:../../Middlewares/LVGL/GUI/lvgl/src/misc/lv_fs.c ****         if(path[i] == '/' || path[i] == '\\') break;
 2522              		.loc 1 466 26 is_stmt 0 discriminator 2 view .LVU780
 2523 0030 F7E7     		b	.L200
 2524              	.LVL236:
 2525              	.L201:
 470:../../Middlewares/LVGL/GUI/lvgl/src/misc/lv_fs.c **** 
 2526              		.loc 1 470 5 is_stmt 1 view .LVU781
 470:../../Middlewares/LVGL/GUI/lvgl/src/misc/lv_fs.c **** 
 2527              		.loc 1 470 7 is_stmt 0 view .LVU782
 2528 0032 0BB1     		cbz	r3, .L197
 470:../../Middlewares/LVGL/GUI/lvgl/src/misc/lv_fs.c **** 
 2529              		.loc 1 470 15 is_stmt 1 discriminator 1 view .LVU783
 470:../../Middlewares/LVGL/GUI/lvgl/src/misc/lv_fs.c **** 
 2530              		.loc 1 470 23 is_stmt 0 discriminator 1 view .LVU784
 2531 0034 0022     		movs	r2, #0
 2532 0036 E254     		strb	r2, [r4, r3]
 2533              	.LVL237:
 2534              	.L197:
 473:../../Middlewares/LVGL/GUI/lvgl/src/misc/lv_fs.c **** 
 2535              		.loc 1 473 1 view .LVU785
ARM GAS  C:\Users\28576\AppData\Local\Temp\ccK3W8oA.s 			page 71


 2536 0038 2046     		mov	r0, r4
 2537 003a 10BD     		pop	{r4, pc}
 473:../../Middlewares/LVGL/GUI/lvgl/src/misc/lv_fs.c **** 
 2538              		.loc 1 473 1 view .LVU786
 2539              		.cfi_endproc
 2540              	.LFE205:
 2542              		.section	.text.lv_fs_get_last,"ax",%progbits
 2543              		.align	1
 2544              		.global	lv_fs_get_last
 2545              		.syntax unified
 2546              		.thumb
 2547              		.thumb_func
 2549              	lv_fs_get_last:
 2550              	.LVL238:
 2551              	.LFB206:
 476:../../Middlewares/LVGL/GUI/lvgl/src/misc/lv_fs.c ****     size_t len = lv_strlen(path);
 2552              		.loc 1 476 1 is_stmt 1 view -0
 2553              		.cfi_startproc
 2554              		@ args = 0, pretend = 0, frame = 0
 2555              		@ frame_needed = 0, uses_anonymous_args = 0
 476:../../Middlewares/LVGL/GUI/lvgl/src/misc/lv_fs.c ****     size_t len = lv_strlen(path);
 2556              		.loc 1 476 1 is_stmt 0 view .LVU788
 2557 0000 10B5     		push	{r4, lr}
 2558              	.LCFI52:
 2559              		.cfi_def_cfa_offset 8
 2560              		.cfi_offset 4, -8
 2561              		.cfi_offset 14, -4
 2562 0002 0446     		mov	r4, r0
 477:../../Middlewares/LVGL/GUI/lvgl/src/misc/lv_fs.c ****     if(len == 0) return path;
 2563              		.loc 1 477 5 is_stmt 1 view .LVU789
 477:../../Middlewares/LVGL/GUI/lvgl/src/misc/lv_fs.c ****     if(len == 0) return path;
 2564              		.loc 1 477 18 is_stmt 0 view .LVU790
 2565 0004 FFF7FEFF 		bl	lv_strlen
 2566              	.LVL239:
 478:../../Middlewares/LVGL/GUI/lvgl/src/misc/lv_fs.c **** 
 2567              		.loc 1 478 5 is_stmt 1 view .LVU791
 478:../../Middlewares/LVGL/GUI/lvgl/src/misc/lv_fs.c **** 
 2568              		.loc 1 478 7 is_stmt 0 view .LVU792
 2569 0008 98B1     		cbz	r0, .L205
 480:../../Middlewares/LVGL/GUI/lvgl/src/misc/lv_fs.c **** 
 2570              		.loc 1 480 5 is_stmt 1 view .LVU793
 480:../../Middlewares/LVGL/GUI/lvgl/src/misc/lv_fs.c **** 
 2571              		.loc 1 480 8 is_stmt 0 view .LVU794
 2572 000a 431E     		subs	r3, r0, #1
 2573              	.LVL240:
 483:../../Middlewares/LVGL/GUI/lvgl/src/misc/lv_fs.c ****         if(len > 0)
 2574              		.loc 1 483 5 is_stmt 1 view .LVU795
 483:../../Middlewares/LVGL/GUI/lvgl/src/misc/lv_fs.c ****         if(len > 0)
 2575              		.loc 1 483 10 is_stmt 0 view .LVU796
 2576 000c 01E0     		b	.L206
 2577              	.L207:
 484:../../Middlewares/LVGL/GUI/lvgl/src/misc/lv_fs.c ****             len--;
 2578              		.loc 1 484 9 is_stmt 1 view .LVU797
 484:../../Middlewares/LVGL/GUI/lvgl/src/misc/lv_fs.c ****             len--;
 2579              		.loc 1 484 11 is_stmt 0 view .LVU798
 2580 000e 83B1     		cbz	r3, .L205
 485:../../Middlewares/LVGL/GUI/lvgl/src/misc/lv_fs.c ****         else
ARM GAS  C:\Users\28576\AppData\Local\Temp\ccK3W8oA.s 			page 72


 2581              		.loc 1 485 13 is_stmt 1 view .LVU799
 485:../../Middlewares/LVGL/GUI/lvgl/src/misc/lv_fs.c ****         else
 2582              		.loc 1 485 16 is_stmt 0 view .LVU800
 2583 0010 013B     		subs	r3, r3, #1
 2584              	.LVL241:
 2585              	.L206:
 483:../../Middlewares/LVGL/GUI/lvgl/src/misc/lv_fs.c ****         if(len > 0)
 2586              		.loc 1 483 28 is_stmt 1 view .LVU801
 483:../../Middlewares/LVGL/GUI/lvgl/src/misc/lv_fs.c ****         if(len > 0)
 2587              		.loc 1 483 15 is_stmt 0 view .LVU802
 2588 0012 E25C     		ldrb	r2, [r4, r3]	@ zero_extendqisi2
 483:../../Middlewares/LVGL/GUI/lvgl/src/misc/lv_fs.c ****         if(len > 0)
 2589              		.loc 1 483 28 view .LVU803
 2590 0014 2F2A     		cmp	r2, #47
 2591 0016 FAD0     		beq	.L207
 2592 0018 5C2A     		cmp	r2, #92
 2593 001a F8D0     		beq	.L207
 2594              	.LVL242:
 2595              	.L208:
 491:../../Middlewares/LVGL/GUI/lvgl/src/misc/lv_fs.c ****         if(path[i] == '/' || path[i] == '\\') break;
 2596              		.loc 1 491 20 is_stmt 1 discriminator 1 view .LVU804
 2597 001c 33B1     		cbz	r3, .L209
 492:../../Middlewares/LVGL/GUI/lvgl/src/misc/lv_fs.c ****     }
 2598              		.loc 1 492 9 view .LVU805
 492:../../Middlewares/LVGL/GUI/lvgl/src/misc/lv_fs.c ****     }
 2599              		.loc 1 492 16 is_stmt 0 view .LVU806
 2600 001e E25C     		ldrb	r2, [r4, r3]	@ zero_extendqisi2
 492:../../Middlewares/LVGL/GUI/lvgl/src/misc/lv_fs.c ****     }
 2601              		.loc 1 492 11 view .LVU807
 2602 0020 5C2A     		cmp	r2, #92
 2603 0022 18BF     		it	ne
 2604 0024 2F2A     		cmpne	r2, #47
 2605 0026 01D0     		beq	.L209
 491:../../Middlewares/LVGL/GUI/lvgl/src/misc/lv_fs.c ****         if(path[i] == '/' || path[i] == '\\') break;
 2606              		.loc 1 491 26 is_stmt 1 discriminator 2 view .LVU808
 2607 0028 013B     		subs	r3, r3, #1
 2608              	.LVL243:
 491:../../Middlewares/LVGL/GUI/lvgl/src/misc/lv_fs.c ****         if(path[i] == '/' || path[i] == '\\') break;
 2609              		.loc 1 491 26 is_stmt 0 discriminator 2 view .LVU809
 2610 002a F7E7     		b	.L208
 2611              	.LVL244:
 2612              	.L209:
 496:../../Middlewares/LVGL/GUI/lvgl/src/misc/lv_fs.c **** 
 2613              		.loc 1 496 5 is_stmt 1 view .LVU810
 496:../../Middlewares/LVGL/GUI/lvgl/src/misc/lv_fs.c **** 
 2614              		.loc 1 496 7 is_stmt 0 view .LVU811
 2615 002c 0BB1     		cbz	r3, .L205
 498:../../Middlewares/LVGL/GUI/lvgl/src/misc/lv_fs.c **** }
 2616              		.loc 1 498 5 is_stmt 1 view .LVU812
 498:../../Middlewares/LVGL/GUI/lvgl/src/misc/lv_fs.c **** }
 2617              		.loc 1 498 20 is_stmt 0 view .LVU813
 2618 002e 0133     		adds	r3, r3, #1
 2619              	.LVL245:
 498:../../Middlewares/LVGL/GUI/lvgl/src/misc/lv_fs.c **** }
 2620              		.loc 1 498 12 view .LVU814
 2621 0030 1C44     		add	r4, r4, r3
 2622              	.LVL246:
ARM GAS  C:\Users\28576\AppData\Local\Temp\ccK3W8oA.s 			page 73


 2623              	.L205:
 499:../../Middlewares/LVGL/GUI/lvgl/src/misc/lv_fs.c **** /**********************
 2624              		.loc 1 499 1 view .LVU815
 2625 0032 2046     		mov	r0, r4
 2626 0034 10BD     		pop	{r4, pc}
 2627              		.cfi_endproc
 2628              	.LFE206:
 2630              		.text
 2631              	.Letext0:
 2632              		.file 3 "C:/Users/28576/AppData/Roaming/xPacks/@xpack-dev-tools/arm-none-eabi-gcc/15.2.1-1.1.1/.co
 2633              		.file 4 "C:/Users/28576/AppData/Roaming/xPacks/@xpack-dev-tools/arm-none-eabi-gcc/15.2.1-1.1.1/.co
 2634              		.file 5 "C:/Users/28576/AppData/Roaming/xPacks/@xpack-dev-tools/arm-none-eabi-gcc/15.2.1-1.1.1/.co
 2635              		.file 6 "../../Middlewares/LVGL/GUI/lvgl/src/misc/lv_types.h"
 2636              		.file 7 "H:/STM32H7/RGB_LVGL/Middlewares/LVGL/GUI/lvgl/src/draw/lv_draw.h"
 2637              		.file 8 "H:/STM32H7/RGB_LVGL/Middlewares/LVGL/GUI/lvgl/src/draw/lv_draw_private.h"
 2638              		.file 9 "H:/STM32H7/RGB_LVGL/Middlewares/LVGL/GUI/lvgl/src/misc/lv_timer_private.h"
 2639              		.file 10 "H:/STM32H7/RGB_LVGL/Middlewares/LVGL/GUI/lvgl/src/misc/cache/lv_cache_private.h"
 2640              		.file 11 "../../Middlewares/LVGL/GUI/lvgl/src/misc/lv_fs_private.h"
 2641              		.file 12 "H:/STM32H7/RGB_LVGL/Middlewares/LVGL/GUI/lvgl/src/draw/lv_draw_buf_private.h"
 2642              		.file 13 "H:/STM32H7/RGB_LVGL/Middlewares/LVGL/GUI/lvgl/src/draw/lv_draw_buf.h"
 2643              		.file 14 "../../Middlewares/LVGL/GUI/lvgl/src/misc/lv_fs.h"
 2644              		.file 15 "../../Middlewares/LVGL/GUI/lvgl/src/misc/lv_ll.h"
 2645              		.file 16 "H:/STM32H7/RGB_LVGL/Middlewares/LVGL/GUI/lvgl/src/misc/lv_area.h"
 2646              		.file 17 "H:/STM32H7/RGB_LVGL/Middlewares/LVGL/GUI/lvgl/src/misc/lv_color.h"
 2647              		.file 18 "H:/STM32H7/RGB_LVGL/Middlewares/LVGL/GUI/lvgl/src/draw/lv_image_dsc.h"
 2648              		.file 19 "H:/STM32H7/RGB_LVGL/Middlewares/LVGL/GUI/lvgl/src/tick/lv_tick.h"
 2649              		.file 20 "H:/STM32H7/RGB_LVGL/Middlewares/LVGL/GUI/lvgl/src/misc/lv_timer.h"
 2650              		.file 21 "H:/STM32H7/RGB_LVGL/Middlewares/LVGL/GUI/lvgl/src/layouts/lv_layout.h"
 2651              		.file 22 "H:/STM32H7/RGB_LVGL/Middlewares/LVGL/GUI/lvgl/src/osal/lv_os_none.h"
 2652              		.file 23 "H:/STM32H7/RGB_LVGL/Middlewares/LVGL/GUI/lvgl/src/stdlib/builtin/lv_tlsf.h"
 2653              		.file 24 "H:/STM32H7/RGB_LVGL/Middlewares/LVGL/GUI/lvgl/src/misc/lv_anim_private.h"
 2654              		.file 25 "H:/STM32H7/RGB_LVGL/Middlewares/LVGL/GUI/lvgl/src/tick/lv_tick_private.h"
 2655              		.file 26 "H:/STM32H7/RGB_LVGL/Middlewares/LVGL/GUI/lvgl/src/draw/sw/lv_draw_sw_mask_private.h"
 2656              		.file 27 "H:/STM32H7/RGB_LVGL/Middlewares/LVGL/GUI/lvgl/src/stdlib/builtin/lv_tlsf_private.h"
 2657              		.file 28 "H:/STM32H7/RGB_LVGL/Middlewares/LVGL/GUI/lvgl/src/layouts/lv_layout_private.h"
 2658              		.file 29 "../../Middlewares/LVGL/GUI/lvgl/src/misc/../core/lv_global.h"
 2659              		.file 30 "H:/STM32H7/RGB_LVGL/Middlewares/LVGL/GUI/lvgl/src/stdlib/lv_mem.h"
ARM GAS  C:\Users\28576\AppData\Local\Temp\ccK3W8oA.s 			page 74

