ARM GAS  C:\Users\28576\AppData\Local\Temp\ccrhsjx7.s 			page 1


   1              		.cpu cortex-m7
   2              		.arch armv7e-m
   3              		.fpu fpv5-d16
   4              		.eabi_attribute 28, 1
   5              		.eabi_attribute 20, 1
   6              		.eabi_attribute 21, 1
   7              		.eabi_attribute 23, 3
   8              		.eabi_attribute 24, 1
   9              		.eabi_attribute 25, 1
  10              		.eabi_attribute 26, 1
  11              		.eabi_attribute 30, 1
  12              		.eabi_attribute 34, 1
  13              		.eabi_attribute 18, 4
  14              		.file	"lv_imagebutton.c"
  15              		.text
  16              	.Ltext0:
  17              		.cfi_sections	.debug_frame
  18              		.file 1 "../../Middlewares/LVGL/GUI/lvgl/src/widgets/imagebutton/lv_imagebutton.c"
  19              		.section	.text.suggest_state,"ax",%progbits
  20              		.align	1
  21              		.syntax unified
  22              		.thumb
  23              		.thumb_func
  25              	suggest_state:
  26              	.LVL0:
  27              	.LFB197:
   1:../../Middlewares/LVGL/GUI/lvgl/src/widgets/imagebutton/lv_imagebutton.c **** /**
   2:../../Middlewares/LVGL/GUI/lvgl/src/widgets/imagebutton/lv_imagebutton.c ****  * @file lv_imagebutton.c
   3:../../Middlewares/LVGL/GUI/lvgl/src/widgets/imagebutton/lv_imagebutton.c ****  *
   4:../../Middlewares/LVGL/GUI/lvgl/src/widgets/imagebutton/lv_imagebutton.c ****  */
   5:../../Middlewares/LVGL/GUI/lvgl/src/widgets/imagebutton/lv_imagebutton.c **** 
   6:../../Middlewares/LVGL/GUI/lvgl/src/widgets/imagebutton/lv_imagebutton.c **** /*********************
   7:../../Middlewares/LVGL/GUI/lvgl/src/widgets/imagebutton/lv_imagebutton.c ****  *      INCLUDES
   8:../../Middlewares/LVGL/GUI/lvgl/src/widgets/imagebutton/lv_imagebutton.c ****  *********************/
   9:../../Middlewares/LVGL/GUI/lvgl/src/widgets/imagebutton/lv_imagebutton.c **** #include "lv_imagebutton_private.h"
  10:../../Middlewares/LVGL/GUI/lvgl/src/widgets/imagebutton/lv_imagebutton.c **** #include "../../misc/lv_area_private.h"
  11:../../Middlewares/LVGL/GUI/lvgl/src/widgets/imagebutton/lv_imagebutton.c **** #include "../../draw/lv_draw_private.h"
  12:../../Middlewares/LVGL/GUI/lvgl/src/widgets/imagebutton/lv_imagebutton.c **** #include "../../core/lv_obj_private.h"
  13:../../Middlewares/LVGL/GUI/lvgl/src/widgets/imagebutton/lv_imagebutton.c **** #include "../../core/lv_obj_event_private.h"
  14:../../Middlewares/LVGL/GUI/lvgl/src/widgets/imagebutton/lv_imagebutton.c **** #include "../../core/lv_obj_class_private.h"
  15:../../Middlewares/LVGL/GUI/lvgl/src/widgets/imagebutton/lv_imagebutton.c **** 
  16:../../Middlewares/LVGL/GUI/lvgl/src/widgets/imagebutton/lv_imagebutton.c **** 
  17:../../Middlewares/LVGL/GUI/lvgl/src/widgets/imagebutton/lv_imagebutton.c **** #if LV_USE_IMAGEBUTTON != 0
  18:../../Middlewares/LVGL/GUI/lvgl/src/widgets/imagebutton/lv_imagebutton.c **** 
  19:../../Middlewares/LVGL/GUI/lvgl/src/widgets/imagebutton/lv_imagebutton.c **** #include "../../stdlib/lv_string.h"
  20:../../Middlewares/LVGL/GUI/lvgl/src/widgets/imagebutton/lv_imagebutton.c **** 
  21:../../Middlewares/LVGL/GUI/lvgl/src/widgets/imagebutton/lv_imagebutton.c **** /*********************
  22:../../Middlewares/LVGL/GUI/lvgl/src/widgets/imagebutton/lv_imagebutton.c ****  *      DEFINES
  23:../../Middlewares/LVGL/GUI/lvgl/src/widgets/imagebutton/lv_imagebutton.c ****  *********************/
  24:../../Middlewares/LVGL/GUI/lvgl/src/widgets/imagebutton/lv_imagebutton.c **** #define MY_CLASS (&lv_imagebutton_class)
  25:../../Middlewares/LVGL/GUI/lvgl/src/widgets/imagebutton/lv_imagebutton.c **** 
  26:../../Middlewares/LVGL/GUI/lvgl/src/widgets/imagebutton/lv_imagebutton.c **** /**********************
  27:../../Middlewares/LVGL/GUI/lvgl/src/widgets/imagebutton/lv_imagebutton.c ****  *      TYPEDEFS
  28:../../Middlewares/LVGL/GUI/lvgl/src/widgets/imagebutton/lv_imagebutton.c ****  **********************/
  29:../../Middlewares/LVGL/GUI/lvgl/src/widgets/imagebutton/lv_imagebutton.c **** 
  30:../../Middlewares/LVGL/GUI/lvgl/src/widgets/imagebutton/lv_imagebutton.c **** /**********************
  31:../../Middlewares/LVGL/GUI/lvgl/src/widgets/imagebutton/lv_imagebutton.c ****  *  STATIC PROTOTYPES
ARM GAS  C:\Users\28576\AppData\Local\Temp\ccrhsjx7.s 			page 2


  32:../../Middlewares/LVGL/GUI/lvgl/src/widgets/imagebutton/lv_imagebutton.c ****  **********************/
  33:../../Middlewares/LVGL/GUI/lvgl/src/widgets/imagebutton/lv_imagebutton.c **** static void lv_imagebutton_constructor(const lv_obj_class_t * class_p, lv_obj_t * obj);
  34:../../Middlewares/LVGL/GUI/lvgl/src/widgets/imagebutton/lv_imagebutton.c **** static void draw_main(lv_event_t * e);
  35:../../Middlewares/LVGL/GUI/lvgl/src/widgets/imagebutton/lv_imagebutton.c **** static void lv_imagebutton_event(const lv_obj_class_t * class_p, lv_event_t * e);
  36:../../Middlewares/LVGL/GUI/lvgl/src/widgets/imagebutton/lv_imagebutton.c **** static void refr_image(lv_obj_t * imagebutton);
  37:../../Middlewares/LVGL/GUI/lvgl/src/widgets/imagebutton/lv_imagebutton.c **** static lv_imagebutton_state_t suggest_state(lv_obj_t * imagebutton, lv_imagebutton_state_t state);
  38:../../Middlewares/LVGL/GUI/lvgl/src/widgets/imagebutton/lv_imagebutton.c **** static lv_imagebutton_state_t get_state(const lv_obj_t * imagebutton);
  39:../../Middlewares/LVGL/GUI/lvgl/src/widgets/imagebutton/lv_imagebutton.c **** static void update_src_info(lv_imagebutton_src_info_t * info, const void * src);
  40:../../Middlewares/LVGL/GUI/lvgl/src/widgets/imagebutton/lv_imagebutton.c **** 
  41:../../Middlewares/LVGL/GUI/lvgl/src/widgets/imagebutton/lv_imagebutton.c **** /**********************
  42:../../Middlewares/LVGL/GUI/lvgl/src/widgets/imagebutton/lv_imagebutton.c ****  *  STATIC VARIABLES
  43:../../Middlewares/LVGL/GUI/lvgl/src/widgets/imagebutton/lv_imagebutton.c ****  **********************/
  44:../../Middlewares/LVGL/GUI/lvgl/src/widgets/imagebutton/lv_imagebutton.c **** 
  45:../../Middlewares/LVGL/GUI/lvgl/src/widgets/imagebutton/lv_imagebutton.c **** const lv_obj_class_t lv_imagebutton_class = {
  46:../../Middlewares/LVGL/GUI/lvgl/src/widgets/imagebutton/lv_imagebutton.c ****     .base_class = &lv_obj_class,
  47:../../Middlewares/LVGL/GUI/lvgl/src/widgets/imagebutton/lv_imagebutton.c ****     .width_def = LV_SIZE_CONTENT,
  48:../../Middlewares/LVGL/GUI/lvgl/src/widgets/imagebutton/lv_imagebutton.c ****     .height_def = LV_SIZE_CONTENT,
  49:../../Middlewares/LVGL/GUI/lvgl/src/widgets/imagebutton/lv_imagebutton.c ****     .instance_size = sizeof(lv_imagebutton_t),
  50:../../Middlewares/LVGL/GUI/lvgl/src/widgets/imagebutton/lv_imagebutton.c ****     .constructor_cb = lv_imagebutton_constructor,
  51:../../Middlewares/LVGL/GUI/lvgl/src/widgets/imagebutton/lv_imagebutton.c ****     .event_cb = lv_imagebutton_event,
  52:../../Middlewares/LVGL/GUI/lvgl/src/widgets/imagebutton/lv_imagebutton.c ****     .name = "lv_imagebutton",
  53:../../Middlewares/LVGL/GUI/lvgl/src/widgets/imagebutton/lv_imagebutton.c **** };
  54:../../Middlewares/LVGL/GUI/lvgl/src/widgets/imagebutton/lv_imagebutton.c **** 
  55:../../Middlewares/LVGL/GUI/lvgl/src/widgets/imagebutton/lv_imagebutton.c **** /**********************
  56:../../Middlewares/LVGL/GUI/lvgl/src/widgets/imagebutton/lv_imagebutton.c ****  *      MACROS
  57:../../Middlewares/LVGL/GUI/lvgl/src/widgets/imagebutton/lv_imagebutton.c ****  **********************/
  58:../../Middlewares/LVGL/GUI/lvgl/src/widgets/imagebutton/lv_imagebutton.c **** 
  59:../../Middlewares/LVGL/GUI/lvgl/src/widgets/imagebutton/lv_imagebutton.c **** /**********************
  60:../../Middlewares/LVGL/GUI/lvgl/src/widgets/imagebutton/lv_imagebutton.c ****  *   GLOBAL FUNCTIONS
  61:../../Middlewares/LVGL/GUI/lvgl/src/widgets/imagebutton/lv_imagebutton.c ****  **********************/
  62:../../Middlewares/LVGL/GUI/lvgl/src/widgets/imagebutton/lv_imagebutton.c **** 
  63:../../Middlewares/LVGL/GUI/lvgl/src/widgets/imagebutton/lv_imagebutton.c **** lv_obj_t * lv_imagebutton_create(lv_obj_t * parent)
  64:../../Middlewares/LVGL/GUI/lvgl/src/widgets/imagebutton/lv_imagebutton.c **** {
  65:../../Middlewares/LVGL/GUI/lvgl/src/widgets/imagebutton/lv_imagebutton.c ****     LV_LOG_INFO("begin");
  66:../../Middlewares/LVGL/GUI/lvgl/src/widgets/imagebutton/lv_imagebutton.c ****     lv_obj_t * obj = lv_obj_class_create_obj(MY_CLASS, parent);
  67:../../Middlewares/LVGL/GUI/lvgl/src/widgets/imagebutton/lv_imagebutton.c ****     lv_obj_class_init_obj(obj);
  68:../../Middlewares/LVGL/GUI/lvgl/src/widgets/imagebutton/lv_imagebutton.c ****     return obj;
  69:../../Middlewares/LVGL/GUI/lvgl/src/widgets/imagebutton/lv_imagebutton.c **** }
  70:../../Middlewares/LVGL/GUI/lvgl/src/widgets/imagebutton/lv_imagebutton.c **** 
  71:../../Middlewares/LVGL/GUI/lvgl/src/widgets/imagebutton/lv_imagebutton.c **** /*=====================
  72:../../Middlewares/LVGL/GUI/lvgl/src/widgets/imagebutton/lv_imagebutton.c ****  * Setter functions
  73:../../Middlewares/LVGL/GUI/lvgl/src/widgets/imagebutton/lv_imagebutton.c ****  *====================*/
  74:../../Middlewares/LVGL/GUI/lvgl/src/widgets/imagebutton/lv_imagebutton.c **** 
  75:../../Middlewares/LVGL/GUI/lvgl/src/widgets/imagebutton/lv_imagebutton.c **** void lv_imagebutton_set_src(lv_obj_t * obj, lv_imagebutton_state_t state, const void * src_left, co
  76:../../Middlewares/LVGL/GUI/lvgl/src/widgets/imagebutton/lv_imagebutton.c ****                             const void * src_right)
  77:../../Middlewares/LVGL/GUI/lvgl/src/widgets/imagebutton/lv_imagebutton.c **** {
  78:../../Middlewares/LVGL/GUI/lvgl/src/widgets/imagebutton/lv_imagebutton.c ****     LV_ASSERT_OBJ(obj, MY_CLASS);
  79:../../Middlewares/LVGL/GUI/lvgl/src/widgets/imagebutton/lv_imagebutton.c **** 
  80:../../Middlewares/LVGL/GUI/lvgl/src/widgets/imagebutton/lv_imagebutton.c ****     lv_imagebutton_t * imagebutton = (lv_imagebutton_t *)obj;
  81:../../Middlewares/LVGL/GUI/lvgl/src/widgets/imagebutton/lv_imagebutton.c **** 
  82:../../Middlewares/LVGL/GUI/lvgl/src/widgets/imagebutton/lv_imagebutton.c ****     if((src_left || src_right) && !src_mid) {
  83:../../Middlewares/LVGL/GUI/lvgl/src/widgets/imagebutton/lv_imagebutton.c ****         LV_LOG_WARN("middle image source is not set while left and/or right image sources are");
  84:../../Middlewares/LVGL/GUI/lvgl/src/widgets/imagebutton/lv_imagebutton.c ****     }
  85:../../Middlewares/LVGL/GUI/lvgl/src/widgets/imagebutton/lv_imagebutton.c **** 
  86:../../Middlewares/LVGL/GUI/lvgl/src/widgets/imagebutton/lv_imagebutton.c ****     update_src_info(&imagebutton->src_left[state], src_left);
  87:../../Middlewares/LVGL/GUI/lvgl/src/widgets/imagebutton/lv_imagebutton.c ****     update_src_info(&imagebutton->src_mid[state], src_mid);
  88:../../Middlewares/LVGL/GUI/lvgl/src/widgets/imagebutton/lv_imagebutton.c ****     update_src_info(&imagebutton->src_right[state], src_right);
ARM GAS  C:\Users\28576\AppData\Local\Temp\ccrhsjx7.s 			page 3


  89:../../Middlewares/LVGL/GUI/lvgl/src/widgets/imagebutton/lv_imagebutton.c **** 
  90:../../Middlewares/LVGL/GUI/lvgl/src/widgets/imagebutton/lv_imagebutton.c ****     refr_image(obj);
  91:../../Middlewares/LVGL/GUI/lvgl/src/widgets/imagebutton/lv_imagebutton.c **** }
  92:../../Middlewares/LVGL/GUI/lvgl/src/widgets/imagebutton/lv_imagebutton.c **** 
  93:../../Middlewares/LVGL/GUI/lvgl/src/widgets/imagebutton/lv_imagebutton.c **** void lv_imagebutton_set_state(lv_obj_t * obj, lv_imagebutton_state_t state)
  94:../../Middlewares/LVGL/GUI/lvgl/src/widgets/imagebutton/lv_imagebutton.c **** {
  95:../../Middlewares/LVGL/GUI/lvgl/src/widgets/imagebutton/lv_imagebutton.c ****     LV_ASSERT_OBJ(obj, MY_CLASS);
  96:../../Middlewares/LVGL/GUI/lvgl/src/widgets/imagebutton/lv_imagebutton.c **** 
  97:../../Middlewares/LVGL/GUI/lvgl/src/widgets/imagebutton/lv_imagebutton.c ****     lv_state_t obj_state = LV_STATE_DEFAULT;
  98:../../Middlewares/LVGL/GUI/lvgl/src/widgets/imagebutton/lv_imagebutton.c ****     if(state == LV_IMAGEBUTTON_STATE_PRESSED ||
  99:../../Middlewares/LVGL/GUI/lvgl/src/widgets/imagebutton/lv_imagebutton.c ****        state == LV_IMAGEBUTTON_STATE_CHECKED_PRESSED) obj_state |= LV_STATE_PRESSED;
 100:../../Middlewares/LVGL/GUI/lvgl/src/widgets/imagebutton/lv_imagebutton.c ****     if(state == LV_IMAGEBUTTON_STATE_DISABLED ||
 101:../../Middlewares/LVGL/GUI/lvgl/src/widgets/imagebutton/lv_imagebutton.c ****        state == LV_IMAGEBUTTON_STATE_CHECKED_DISABLED) obj_state |= LV_STATE_DISABLED;
 102:../../Middlewares/LVGL/GUI/lvgl/src/widgets/imagebutton/lv_imagebutton.c ****     if(state == LV_IMAGEBUTTON_STATE_CHECKED_DISABLED || state == LV_IMAGEBUTTON_STATE_CHECKED_PRES
 103:../../Middlewares/LVGL/GUI/lvgl/src/widgets/imagebutton/lv_imagebutton.c ****        state == LV_IMAGEBUTTON_STATE_CHECKED_RELEASED) {
 104:../../Middlewares/LVGL/GUI/lvgl/src/widgets/imagebutton/lv_imagebutton.c ****         obj_state |= LV_STATE_CHECKED;
 105:../../Middlewares/LVGL/GUI/lvgl/src/widgets/imagebutton/lv_imagebutton.c ****     }
 106:../../Middlewares/LVGL/GUI/lvgl/src/widgets/imagebutton/lv_imagebutton.c **** 
 107:../../Middlewares/LVGL/GUI/lvgl/src/widgets/imagebutton/lv_imagebutton.c ****     lv_obj_remove_state(obj, LV_STATE_CHECKED | LV_STATE_PRESSED | LV_STATE_DISABLED);
 108:../../Middlewares/LVGL/GUI/lvgl/src/widgets/imagebutton/lv_imagebutton.c ****     lv_obj_add_state(obj, obj_state);
 109:../../Middlewares/LVGL/GUI/lvgl/src/widgets/imagebutton/lv_imagebutton.c **** 
 110:../../Middlewares/LVGL/GUI/lvgl/src/widgets/imagebutton/lv_imagebutton.c ****     refr_image(obj);
 111:../../Middlewares/LVGL/GUI/lvgl/src/widgets/imagebutton/lv_imagebutton.c **** }
 112:../../Middlewares/LVGL/GUI/lvgl/src/widgets/imagebutton/lv_imagebutton.c **** 
 113:../../Middlewares/LVGL/GUI/lvgl/src/widgets/imagebutton/lv_imagebutton.c **** /*=====================
 114:../../Middlewares/LVGL/GUI/lvgl/src/widgets/imagebutton/lv_imagebutton.c ****  * Getter functions
 115:../../Middlewares/LVGL/GUI/lvgl/src/widgets/imagebutton/lv_imagebutton.c ****  *====================*/
 116:../../Middlewares/LVGL/GUI/lvgl/src/widgets/imagebutton/lv_imagebutton.c **** 
 117:../../Middlewares/LVGL/GUI/lvgl/src/widgets/imagebutton/lv_imagebutton.c **** const void * lv_imagebutton_get_src_left(lv_obj_t * obj, lv_imagebutton_state_t state)
 118:../../Middlewares/LVGL/GUI/lvgl/src/widgets/imagebutton/lv_imagebutton.c **** {
 119:../../Middlewares/LVGL/GUI/lvgl/src/widgets/imagebutton/lv_imagebutton.c ****     LV_ASSERT_OBJ(obj, MY_CLASS);
 120:../../Middlewares/LVGL/GUI/lvgl/src/widgets/imagebutton/lv_imagebutton.c **** 
 121:../../Middlewares/LVGL/GUI/lvgl/src/widgets/imagebutton/lv_imagebutton.c ****     lv_imagebutton_t * imagebutton = (lv_imagebutton_t *)obj;
 122:../../Middlewares/LVGL/GUI/lvgl/src/widgets/imagebutton/lv_imagebutton.c **** 
 123:../../Middlewares/LVGL/GUI/lvgl/src/widgets/imagebutton/lv_imagebutton.c ****     return imagebutton->src_left[state].img_src;
 124:../../Middlewares/LVGL/GUI/lvgl/src/widgets/imagebutton/lv_imagebutton.c **** }
 125:../../Middlewares/LVGL/GUI/lvgl/src/widgets/imagebutton/lv_imagebutton.c **** 
 126:../../Middlewares/LVGL/GUI/lvgl/src/widgets/imagebutton/lv_imagebutton.c **** const void * lv_imagebutton_get_src_middle(lv_obj_t * obj, lv_imagebutton_state_t state)
 127:../../Middlewares/LVGL/GUI/lvgl/src/widgets/imagebutton/lv_imagebutton.c **** {
 128:../../Middlewares/LVGL/GUI/lvgl/src/widgets/imagebutton/lv_imagebutton.c ****     LV_ASSERT_OBJ(obj, MY_CLASS);
 129:../../Middlewares/LVGL/GUI/lvgl/src/widgets/imagebutton/lv_imagebutton.c ****     lv_imagebutton_t * imagebutton = (lv_imagebutton_t *)obj;
 130:../../Middlewares/LVGL/GUI/lvgl/src/widgets/imagebutton/lv_imagebutton.c **** 
 131:../../Middlewares/LVGL/GUI/lvgl/src/widgets/imagebutton/lv_imagebutton.c ****     return imagebutton->src_mid[state].img_src;
 132:../../Middlewares/LVGL/GUI/lvgl/src/widgets/imagebutton/lv_imagebutton.c **** }
 133:../../Middlewares/LVGL/GUI/lvgl/src/widgets/imagebutton/lv_imagebutton.c **** 
 134:../../Middlewares/LVGL/GUI/lvgl/src/widgets/imagebutton/lv_imagebutton.c **** const void * lv_imagebutton_get_src_right(lv_obj_t * obj, lv_imagebutton_state_t state)
 135:../../Middlewares/LVGL/GUI/lvgl/src/widgets/imagebutton/lv_imagebutton.c **** {
 136:../../Middlewares/LVGL/GUI/lvgl/src/widgets/imagebutton/lv_imagebutton.c ****     LV_ASSERT_OBJ(obj, MY_CLASS);
 137:../../Middlewares/LVGL/GUI/lvgl/src/widgets/imagebutton/lv_imagebutton.c ****     lv_imagebutton_t * imagebutton = (lv_imagebutton_t *)obj;
 138:../../Middlewares/LVGL/GUI/lvgl/src/widgets/imagebutton/lv_imagebutton.c **** 
 139:../../Middlewares/LVGL/GUI/lvgl/src/widgets/imagebutton/lv_imagebutton.c ****     return imagebutton->src_right[state].img_src;
 140:../../Middlewares/LVGL/GUI/lvgl/src/widgets/imagebutton/lv_imagebutton.c **** }
 141:../../Middlewares/LVGL/GUI/lvgl/src/widgets/imagebutton/lv_imagebutton.c **** 
 142:../../Middlewares/LVGL/GUI/lvgl/src/widgets/imagebutton/lv_imagebutton.c **** /**********************
 143:../../Middlewares/LVGL/GUI/lvgl/src/widgets/imagebutton/lv_imagebutton.c ****  *   STATIC FUNCTIONS
 144:../../Middlewares/LVGL/GUI/lvgl/src/widgets/imagebutton/lv_imagebutton.c ****  **********************/
 145:../../Middlewares/LVGL/GUI/lvgl/src/widgets/imagebutton/lv_imagebutton.c **** 
ARM GAS  C:\Users\28576\AppData\Local\Temp\ccrhsjx7.s 			page 4


 146:../../Middlewares/LVGL/GUI/lvgl/src/widgets/imagebutton/lv_imagebutton.c **** static void lv_imagebutton_constructor(const lv_obj_class_t * class_p, lv_obj_t * obj)
 147:../../Middlewares/LVGL/GUI/lvgl/src/widgets/imagebutton/lv_imagebutton.c **** {
 148:../../Middlewares/LVGL/GUI/lvgl/src/widgets/imagebutton/lv_imagebutton.c ****     LV_UNUSED(class_p);
 149:../../Middlewares/LVGL/GUI/lvgl/src/widgets/imagebutton/lv_imagebutton.c ****     lv_imagebutton_t * imagebutton = (lv_imagebutton_t *)obj;
 150:../../Middlewares/LVGL/GUI/lvgl/src/widgets/imagebutton/lv_imagebutton.c ****     /*Initialize the allocated 'ext'*/
 151:../../Middlewares/LVGL/GUI/lvgl/src/widgets/imagebutton/lv_imagebutton.c **** 
 152:../../Middlewares/LVGL/GUI/lvgl/src/widgets/imagebutton/lv_imagebutton.c ****     lv_memzero(&imagebutton->src_mid, sizeof(imagebutton->src_mid));
 153:../../Middlewares/LVGL/GUI/lvgl/src/widgets/imagebutton/lv_imagebutton.c ****     lv_memzero(&imagebutton->src_left, sizeof(imagebutton->src_left));
 154:../../Middlewares/LVGL/GUI/lvgl/src/widgets/imagebutton/lv_imagebutton.c ****     lv_memzero(&imagebutton->src_right, sizeof(imagebutton->src_right));
 155:../../Middlewares/LVGL/GUI/lvgl/src/widgets/imagebutton/lv_imagebutton.c **** }
 156:../../Middlewares/LVGL/GUI/lvgl/src/widgets/imagebutton/lv_imagebutton.c **** 
 157:../../Middlewares/LVGL/GUI/lvgl/src/widgets/imagebutton/lv_imagebutton.c **** static void lv_imagebutton_event(const lv_obj_class_t * class_p, lv_event_t * e)
 158:../../Middlewares/LVGL/GUI/lvgl/src/widgets/imagebutton/lv_imagebutton.c **** {
 159:../../Middlewares/LVGL/GUI/lvgl/src/widgets/imagebutton/lv_imagebutton.c ****     LV_UNUSED(class_p);
 160:../../Middlewares/LVGL/GUI/lvgl/src/widgets/imagebutton/lv_imagebutton.c **** 
 161:../../Middlewares/LVGL/GUI/lvgl/src/widgets/imagebutton/lv_imagebutton.c ****     lv_result_t res = lv_obj_event_base(&lv_imagebutton_class, e);
 162:../../Middlewares/LVGL/GUI/lvgl/src/widgets/imagebutton/lv_imagebutton.c ****     if(res != LV_RESULT_OK) return;
 163:../../Middlewares/LVGL/GUI/lvgl/src/widgets/imagebutton/lv_imagebutton.c **** 
 164:../../Middlewares/LVGL/GUI/lvgl/src/widgets/imagebutton/lv_imagebutton.c ****     lv_event_code_t code = lv_event_get_code(e);
 165:../../Middlewares/LVGL/GUI/lvgl/src/widgets/imagebutton/lv_imagebutton.c ****     lv_obj_t * obj = lv_event_get_current_target(e);
 166:../../Middlewares/LVGL/GUI/lvgl/src/widgets/imagebutton/lv_imagebutton.c ****     if(code == LV_EVENT_PRESSED || code == LV_EVENT_RELEASED || code == LV_EVENT_PRESS_LOST) {
 167:../../Middlewares/LVGL/GUI/lvgl/src/widgets/imagebutton/lv_imagebutton.c ****         refr_image(obj);
 168:../../Middlewares/LVGL/GUI/lvgl/src/widgets/imagebutton/lv_imagebutton.c ****     }
 169:../../Middlewares/LVGL/GUI/lvgl/src/widgets/imagebutton/lv_imagebutton.c ****     else if(code == LV_EVENT_DRAW_MAIN) {
 170:../../Middlewares/LVGL/GUI/lvgl/src/widgets/imagebutton/lv_imagebutton.c ****         draw_main(e);
 171:../../Middlewares/LVGL/GUI/lvgl/src/widgets/imagebutton/lv_imagebutton.c ****     }
 172:../../Middlewares/LVGL/GUI/lvgl/src/widgets/imagebutton/lv_imagebutton.c ****     else if(code == LV_EVENT_COVER_CHECK) {
 173:../../Middlewares/LVGL/GUI/lvgl/src/widgets/imagebutton/lv_imagebutton.c ****         lv_cover_check_info_t * info = lv_event_get_param(e);
 174:../../Middlewares/LVGL/GUI/lvgl/src/widgets/imagebutton/lv_imagebutton.c ****         if(info->res != LV_COVER_RES_MASKED) info->res = LV_COVER_RES_NOT_COVER;
 175:../../Middlewares/LVGL/GUI/lvgl/src/widgets/imagebutton/lv_imagebutton.c ****     }
 176:../../Middlewares/LVGL/GUI/lvgl/src/widgets/imagebutton/lv_imagebutton.c ****     else if(code == LV_EVENT_GET_SELF_SIZE) {
 177:../../Middlewares/LVGL/GUI/lvgl/src/widgets/imagebutton/lv_imagebutton.c ****         lv_point_t * p = lv_event_get_self_size_info(e);
 178:../../Middlewares/LVGL/GUI/lvgl/src/widgets/imagebutton/lv_imagebutton.c ****         lv_imagebutton_t * imagebutton = (lv_imagebutton_t *)obj;
 179:../../Middlewares/LVGL/GUI/lvgl/src/widgets/imagebutton/lv_imagebutton.c ****         lv_imagebutton_state_t state  = suggest_state(obj, get_state(obj));
 180:../../Middlewares/LVGL/GUI/lvgl/src/widgets/imagebutton/lv_imagebutton.c ****         if(imagebutton->src_left[state].img_src == NULL &&
 181:../../Middlewares/LVGL/GUI/lvgl/src/widgets/imagebutton/lv_imagebutton.c ****            imagebutton->src_mid[state].img_src != NULL &&
 182:../../Middlewares/LVGL/GUI/lvgl/src/widgets/imagebutton/lv_imagebutton.c ****            imagebutton->src_right[state].img_src == NULL) {
 183:../../Middlewares/LVGL/GUI/lvgl/src/widgets/imagebutton/lv_imagebutton.c ****             p->x = LV_MAX(p->x, imagebutton->src_mid[state].header.w);
 184:../../Middlewares/LVGL/GUI/lvgl/src/widgets/imagebutton/lv_imagebutton.c ****         }
 185:../../Middlewares/LVGL/GUI/lvgl/src/widgets/imagebutton/lv_imagebutton.c ****     }
 186:../../Middlewares/LVGL/GUI/lvgl/src/widgets/imagebutton/lv_imagebutton.c **** }
 187:../../Middlewares/LVGL/GUI/lvgl/src/widgets/imagebutton/lv_imagebutton.c **** 
 188:../../Middlewares/LVGL/GUI/lvgl/src/widgets/imagebutton/lv_imagebutton.c **** static void draw_main(lv_event_t * e)
 189:../../Middlewares/LVGL/GUI/lvgl/src/widgets/imagebutton/lv_imagebutton.c **** {
 190:../../Middlewares/LVGL/GUI/lvgl/src/widgets/imagebutton/lv_imagebutton.c ****     lv_obj_t * obj = lv_event_get_current_target(e);
 191:../../Middlewares/LVGL/GUI/lvgl/src/widgets/imagebutton/lv_imagebutton.c ****     lv_imagebutton_t * imagebutton = (lv_imagebutton_t *)obj;
 192:../../Middlewares/LVGL/GUI/lvgl/src/widgets/imagebutton/lv_imagebutton.c ****     lv_layer_t * layer = lv_event_get_layer(e);
 193:../../Middlewares/LVGL/GUI/lvgl/src/widgets/imagebutton/lv_imagebutton.c **** 
 194:../../Middlewares/LVGL/GUI/lvgl/src/widgets/imagebutton/lv_imagebutton.c ****     /*Just draw_main an image*/
 195:../../Middlewares/LVGL/GUI/lvgl/src/widgets/imagebutton/lv_imagebutton.c ****     lv_imagebutton_state_t state  = suggest_state(obj, get_state(obj));
 196:../../Middlewares/LVGL/GUI/lvgl/src/widgets/imagebutton/lv_imagebutton.c **** 
 197:../../Middlewares/LVGL/GUI/lvgl/src/widgets/imagebutton/lv_imagebutton.c ****     /*Simply draw the middle src if no tiled*/
 198:../../Middlewares/LVGL/GUI/lvgl/src/widgets/imagebutton/lv_imagebutton.c ****     lv_imagebutton_src_info_t * src_info = &imagebutton->src_left[state];
 199:../../Middlewares/LVGL/GUI/lvgl/src/widgets/imagebutton/lv_imagebutton.c **** 
 200:../../Middlewares/LVGL/GUI/lvgl/src/widgets/imagebutton/lv_imagebutton.c ****     int32_t tw = lv_obj_get_style_transform_width(obj, LV_PART_MAIN);
 201:../../Middlewares/LVGL/GUI/lvgl/src/widgets/imagebutton/lv_imagebutton.c ****     int32_t th = lv_obj_get_style_transform_height(obj, LV_PART_MAIN);
 202:../../Middlewares/LVGL/GUI/lvgl/src/widgets/imagebutton/lv_imagebutton.c ****     lv_area_t coords;
ARM GAS  C:\Users\28576\AppData\Local\Temp\ccrhsjx7.s 			page 5


 203:../../Middlewares/LVGL/GUI/lvgl/src/widgets/imagebutton/lv_imagebutton.c ****     lv_area_copy(&coords, &obj->coords);
 204:../../Middlewares/LVGL/GUI/lvgl/src/widgets/imagebutton/lv_imagebutton.c ****     lv_area_increase(&coords, tw, th);
 205:../../Middlewares/LVGL/GUI/lvgl/src/widgets/imagebutton/lv_imagebutton.c **** 
 206:../../Middlewares/LVGL/GUI/lvgl/src/widgets/imagebutton/lv_imagebutton.c ****     lv_draw_image_dsc_t img_dsc;
 207:../../Middlewares/LVGL/GUI/lvgl/src/widgets/imagebutton/lv_imagebutton.c ****     lv_draw_image_dsc_init(&img_dsc);
 208:../../Middlewares/LVGL/GUI/lvgl/src/widgets/imagebutton/lv_imagebutton.c ****     img_dsc.base.layer = layer;
 209:../../Middlewares/LVGL/GUI/lvgl/src/widgets/imagebutton/lv_imagebutton.c ****     lv_obj_init_draw_image_dsc(obj, LV_PART_MAIN, &img_dsc);
 210:../../Middlewares/LVGL/GUI/lvgl/src/widgets/imagebutton/lv_imagebutton.c **** 
 211:../../Middlewares/LVGL/GUI/lvgl/src/widgets/imagebutton/lv_imagebutton.c ****     lv_area_t coords_part;
 212:../../Middlewares/LVGL/GUI/lvgl/src/widgets/imagebutton/lv_imagebutton.c ****     int32_t left_w = 0;
 213:../../Middlewares/LVGL/GUI/lvgl/src/widgets/imagebutton/lv_imagebutton.c ****     int32_t right_w = 0;
 214:../../Middlewares/LVGL/GUI/lvgl/src/widgets/imagebutton/lv_imagebutton.c **** 
 215:../../Middlewares/LVGL/GUI/lvgl/src/widgets/imagebutton/lv_imagebutton.c ****     if(src_info->img_src) {
 216:../../Middlewares/LVGL/GUI/lvgl/src/widgets/imagebutton/lv_imagebutton.c ****         left_w = src_info->header.w;
 217:../../Middlewares/LVGL/GUI/lvgl/src/widgets/imagebutton/lv_imagebutton.c ****         coords_part.x1 = coords.x1;
 218:../../Middlewares/LVGL/GUI/lvgl/src/widgets/imagebutton/lv_imagebutton.c ****         coords_part.y1 = coords.y1;
 219:../../Middlewares/LVGL/GUI/lvgl/src/widgets/imagebutton/lv_imagebutton.c ****         coords_part.x2 = coords.x1 + src_info->header.w - 1;
 220:../../Middlewares/LVGL/GUI/lvgl/src/widgets/imagebutton/lv_imagebutton.c ****         coords_part.y2 = coords.y1 + src_info->header.h - 1;
 221:../../Middlewares/LVGL/GUI/lvgl/src/widgets/imagebutton/lv_imagebutton.c ****         img_dsc.src = src_info->img_src;
 222:../../Middlewares/LVGL/GUI/lvgl/src/widgets/imagebutton/lv_imagebutton.c ****         lv_draw_image(layer, &img_dsc, &coords_part);
 223:../../Middlewares/LVGL/GUI/lvgl/src/widgets/imagebutton/lv_imagebutton.c ****     }
 224:../../Middlewares/LVGL/GUI/lvgl/src/widgets/imagebutton/lv_imagebutton.c **** 
 225:../../Middlewares/LVGL/GUI/lvgl/src/widgets/imagebutton/lv_imagebutton.c ****     src_info = &imagebutton->src_right[state];
 226:../../Middlewares/LVGL/GUI/lvgl/src/widgets/imagebutton/lv_imagebutton.c ****     if(src_info->img_src) {
 227:../../Middlewares/LVGL/GUI/lvgl/src/widgets/imagebutton/lv_imagebutton.c ****         right_w = src_info->header.w;
 228:../../Middlewares/LVGL/GUI/lvgl/src/widgets/imagebutton/lv_imagebutton.c ****         coords_part.x1 = coords.x2 - src_info->header.w + 1;
 229:../../Middlewares/LVGL/GUI/lvgl/src/widgets/imagebutton/lv_imagebutton.c ****         coords_part.y1 = coords.y1;
 230:../../Middlewares/LVGL/GUI/lvgl/src/widgets/imagebutton/lv_imagebutton.c ****         coords_part.x2 = coords.x2;
 231:../../Middlewares/LVGL/GUI/lvgl/src/widgets/imagebutton/lv_imagebutton.c ****         coords_part.y2 = coords.y1 + src_info->header.h - 1;
 232:../../Middlewares/LVGL/GUI/lvgl/src/widgets/imagebutton/lv_imagebutton.c ****         img_dsc.src = src_info->img_src;
 233:../../Middlewares/LVGL/GUI/lvgl/src/widgets/imagebutton/lv_imagebutton.c ****         lv_draw_image(layer, &img_dsc, &coords_part);
 234:../../Middlewares/LVGL/GUI/lvgl/src/widgets/imagebutton/lv_imagebutton.c ****     }
 235:../../Middlewares/LVGL/GUI/lvgl/src/widgets/imagebutton/lv_imagebutton.c **** 
 236:../../Middlewares/LVGL/GUI/lvgl/src/widgets/imagebutton/lv_imagebutton.c ****     src_info = &imagebutton->src_mid[state];
 237:../../Middlewares/LVGL/GUI/lvgl/src/widgets/imagebutton/lv_imagebutton.c ****     if(src_info->img_src) {
 238:../../Middlewares/LVGL/GUI/lvgl/src/widgets/imagebutton/lv_imagebutton.c ****         coords_part.x1 = coords.x1 + left_w;
 239:../../Middlewares/LVGL/GUI/lvgl/src/widgets/imagebutton/lv_imagebutton.c ****         coords_part.x2 = coords.x2 - right_w;
 240:../../Middlewares/LVGL/GUI/lvgl/src/widgets/imagebutton/lv_imagebutton.c ****         coords_part.y1 = coords.y1;
 241:../../Middlewares/LVGL/GUI/lvgl/src/widgets/imagebutton/lv_imagebutton.c ****         coords_part.y2 = coords.y2;
 242:../../Middlewares/LVGL/GUI/lvgl/src/widgets/imagebutton/lv_imagebutton.c **** 
 243:../../Middlewares/LVGL/GUI/lvgl/src/widgets/imagebutton/lv_imagebutton.c ****         lv_area_t clip_area_center;
 244:../../Middlewares/LVGL/GUI/lvgl/src/widgets/imagebutton/lv_imagebutton.c ****         if(lv_area_intersect(&clip_area_center, &coords_part, &layer->_clip_area)) {
 245:../../Middlewares/LVGL/GUI/lvgl/src/widgets/imagebutton/lv_imagebutton.c ****             lv_area_t clip_area_ori = layer->_clip_area;
 246:../../Middlewares/LVGL/GUI/lvgl/src/widgets/imagebutton/lv_imagebutton.c ****             layer->_clip_area = clip_area_center;
 247:../../Middlewares/LVGL/GUI/lvgl/src/widgets/imagebutton/lv_imagebutton.c ****             img_dsc.src = src_info->img_src;
 248:../../Middlewares/LVGL/GUI/lvgl/src/widgets/imagebutton/lv_imagebutton.c ****             img_dsc.tile = 1;
 249:../../Middlewares/LVGL/GUI/lvgl/src/widgets/imagebutton/lv_imagebutton.c ****             lv_draw_image(layer, &img_dsc, &coords_part);
 250:../../Middlewares/LVGL/GUI/lvgl/src/widgets/imagebutton/lv_imagebutton.c ****             layer->_clip_area = clip_area_ori;
 251:../../Middlewares/LVGL/GUI/lvgl/src/widgets/imagebutton/lv_imagebutton.c ****         }
 252:../../Middlewares/LVGL/GUI/lvgl/src/widgets/imagebutton/lv_imagebutton.c **** 
 253:../../Middlewares/LVGL/GUI/lvgl/src/widgets/imagebutton/lv_imagebutton.c ****     }
 254:../../Middlewares/LVGL/GUI/lvgl/src/widgets/imagebutton/lv_imagebutton.c **** }
 255:../../Middlewares/LVGL/GUI/lvgl/src/widgets/imagebutton/lv_imagebutton.c **** 
 256:../../Middlewares/LVGL/GUI/lvgl/src/widgets/imagebutton/lv_imagebutton.c **** static void refr_image(lv_obj_t * obj)
 257:../../Middlewares/LVGL/GUI/lvgl/src/widgets/imagebutton/lv_imagebutton.c **** {
 258:../../Middlewares/LVGL/GUI/lvgl/src/widgets/imagebutton/lv_imagebutton.c ****     lv_imagebutton_t * imagebutton = (lv_imagebutton_t *)obj;
 259:../../Middlewares/LVGL/GUI/lvgl/src/widgets/imagebutton/lv_imagebutton.c ****     lv_imagebutton_state_t state  = suggest_state(obj, get_state(obj));
ARM GAS  C:\Users\28576\AppData\Local\Temp\ccrhsjx7.s 			page 6


 260:../../Middlewares/LVGL/GUI/lvgl/src/widgets/imagebutton/lv_imagebutton.c **** 
 261:../../Middlewares/LVGL/GUI/lvgl/src/widgets/imagebutton/lv_imagebutton.c ****     const void * src = imagebutton->src_mid[state].img_src;
 262:../../Middlewares/LVGL/GUI/lvgl/src/widgets/imagebutton/lv_imagebutton.c ****     if(src == NULL) return;
 263:../../Middlewares/LVGL/GUI/lvgl/src/widgets/imagebutton/lv_imagebutton.c **** 
 264:../../Middlewares/LVGL/GUI/lvgl/src/widgets/imagebutton/lv_imagebutton.c ****     lv_obj_refresh_self_size(obj);
 265:../../Middlewares/LVGL/GUI/lvgl/src/widgets/imagebutton/lv_imagebutton.c ****     lv_obj_set_height(obj, imagebutton->src_mid[state].header.h); /*Keep the user defined width*/
 266:../../Middlewares/LVGL/GUI/lvgl/src/widgets/imagebutton/lv_imagebutton.c **** 
 267:../../Middlewares/LVGL/GUI/lvgl/src/widgets/imagebutton/lv_imagebutton.c ****     lv_obj_invalidate(obj);
 268:../../Middlewares/LVGL/GUI/lvgl/src/widgets/imagebutton/lv_imagebutton.c **** }
 269:../../Middlewares/LVGL/GUI/lvgl/src/widgets/imagebutton/lv_imagebutton.c **** 
 270:../../Middlewares/LVGL/GUI/lvgl/src/widgets/imagebutton/lv_imagebutton.c **** /**
 271:../../Middlewares/LVGL/GUI/lvgl/src/widgets/imagebutton/lv_imagebutton.c ****  * If `src` is not defined for the current state try to get a state which is related to the current
 272:../../Middlewares/LVGL/GUI/lvgl/src/widgets/imagebutton/lv_imagebutton.c ****  * E.g. if the PRESSED src is not set but the RELEASED does, use the RELEASED.
 273:../../Middlewares/LVGL/GUI/lvgl/src/widgets/imagebutton/lv_imagebutton.c ****  * @param imagebutton pointer to an image button
 274:../../Middlewares/LVGL/GUI/lvgl/src/widgets/imagebutton/lv_imagebutton.c ****  * @param state the state to convert
 275:../../Middlewares/LVGL/GUI/lvgl/src/widgets/imagebutton/lv_imagebutton.c ****  * @return the suggested state
 276:../../Middlewares/LVGL/GUI/lvgl/src/widgets/imagebutton/lv_imagebutton.c ****  */
 277:../../Middlewares/LVGL/GUI/lvgl/src/widgets/imagebutton/lv_imagebutton.c **** static lv_imagebutton_state_t suggest_state(lv_obj_t * obj, lv_imagebutton_state_t state)
 278:../../Middlewares/LVGL/GUI/lvgl/src/widgets/imagebutton/lv_imagebutton.c **** {
  28              		.loc 1 278 1 view -0
  29              		.cfi_startproc
  30              		@ args = 0, pretend = 0, frame = 0
  31              		@ frame_needed = 0, uses_anonymous_args = 0
  32              		@ link register save eliminated.
  33              		.loc 1 278 1 is_stmt 0 view .LVU1
  34 0000 0346     		mov	r3, r0
  35 0002 0846     		mov	r0, r1
  36              	.LVL1:
 279:../../Middlewares/LVGL/GUI/lvgl/src/widgets/imagebutton/lv_imagebutton.c ****     lv_imagebutton_t * imagebutton = (lv_imagebutton_t *)obj;
  37              		.loc 1 279 5 is_stmt 1 view .LVU2
 280:../../Middlewares/LVGL/GUI/lvgl/src/widgets/imagebutton/lv_imagebutton.c ****     if(imagebutton->src_mid[state].img_src == NULL) {
  38              		.loc 1 280 5 view .LVU3
  39              		.loc 1 280 35 is_stmt 0 view .LVU4
  40 0004 03EB0112 		add	r2, r3, r1, lsl #4
  41 0008 D26A     		ldr	r2, [r2, #44]
  42              		.loc 1 280 7 view .LVU5
  43 000a 02B1     		cbz	r2, .L17
  44              	.LVL2:
  45              	.L2:
 281:../../Middlewares/LVGL/GUI/lvgl/src/widgets/imagebutton/lv_imagebutton.c ****         switch(state) {
 282:../../Middlewares/LVGL/GUI/lvgl/src/widgets/imagebutton/lv_imagebutton.c ****             case LV_IMAGEBUTTON_STATE_PRESSED:
 283:../../Middlewares/LVGL/GUI/lvgl/src/widgets/imagebutton/lv_imagebutton.c ****                 if(imagebutton->src_mid[LV_IMAGEBUTTON_STATE_RELEASED].img_src) return LV_IMAGEBUTT
 284:../../Middlewares/LVGL/GUI/lvgl/src/widgets/imagebutton/lv_imagebutton.c ****                 break;
 285:../../Middlewares/LVGL/GUI/lvgl/src/widgets/imagebutton/lv_imagebutton.c ****             case LV_IMAGEBUTTON_STATE_CHECKED_RELEASED:
 286:../../Middlewares/LVGL/GUI/lvgl/src/widgets/imagebutton/lv_imagebutton.c ****                 if(imagebutton->src_mid[LV_IMAGEBUTTON_STATE_RELEASED].img_src) return LV_IMAGEBUTT
 287:../../Middlewares/LVGL/GUI/lvgl/src/widgets/imagebutton/lv_imagebutton.c ****                 break;
 288:../../Middlewares/LVGL/GUI/lvgl/src/widgets/imagebutton/lv_imagebutton.c ****             case LV_IMAGEBUTTON_STATE_CHECKED_PRESSED:
 289:../../Middlewares/LVGL/GUI/lvgl/src/widgets/imagebutton/lv_imagebutton.c ****                 if(imagebutton->src_mid[LV_IMAGEBUTTON_STATE_CHECKED_RELEASED].img_src) return LV_I
 290:../../Middlewares/LVGL/GUI/lvgl/src/widgets/imagebutton/lv_imagebutton.c ****                 if(imagebutton->src_mid[LV_IMAGEBUTTON_STATE_PRESSED].img_src) return LV_IMAGEBUTTO
 291:../../Middlewares/LVGL/GUI/lvgl/src/widgets/imagebutton/lv_imagebutton.c ****                 if(imagebutton->src_mid[LV_IMAGEBUTTON_STATE_RELEASED].img_src) return LV_IMAGEBUTT
 292:../../Middlewares/LVGL/GUI/lvgl/src/widgets/imagebutton/lv_imagebutton.c ****                 break;
 293:../../Middlewares/LVGL/GUI/lvgl/src/widgets/imagebutton/lv_imagebutton.c ****             case LV_IMAGEBUTTON_STATE_DISABLED:
 294:../../Middlewares/LVGL/GUI/lvgl/src/widgets/imagebutton/lv_imagebutton.c ****                 if(imagebutton->src_mid[LV_IMAGEBUTTON_STATE_RELEASED].img_src) return LV_IMAGEBUTT
 295:../../Middlewares/LVGL/GUI/lvgl/src/widgets/imagebutton/lv_imagebutton.c ****                 break;
 296:../../Middlewares/LVGL/GUI/lvgl/src/widgets/imagebutton/lv_imagebutton.c ****             case LV_IMAGEBUTTON_STATE_CHECKED_DISABLED:
 297:../../Middlewares/LVGL/GUI/lvgl/src/widgets/imagebutton/lv_imagebutton.c ****                 if(imagebutton->src_mid[LV_IMAGEBUTTON_STATE_CHECKED_RELEASED].img_src) return LV_I
 298:../../Middlewares/LVGL/GUI/lvgl/src/widgets/imagebutton/lv_imagebutton.c ****                 if(imagebutton->src_mid[LV_IMAGEBUTTON_STATE_RELEASED].img_src) return LV_IMAGEBUTT
ARM GAS  C:\Users\28576\AppData\Local\Temp\ccrhsjx7.s 			page 7


 299:../../Middlewares/LVGL/GUI/lvgl/src/widgets/imagebutton/lv_imagebutton.c ****                 break;
 300:../../Middlewares/LVGL/GUI/lvgl/src/widgets/imagebutton/lv_imagebutton.c ****             default:
 301:../../Middlewares/LVGL/GUI/lvgl/src/widgets/imagebutton/lv_imagebutton.c ****                 break;
 302:../../Middlewares/LVGL/GUI/lvgl/src/widgets/imagebutton/lv_imagebutton.c ****         }
 303:../../Middlewares/LVGL/GUI/lvgl/src/widgets/imagebutton/lv_imagebutton.c ****     }
 304:../../Middlewares/LVGL/GUI/lvgl/src/widgets/imagebutton/lv_imagebutton.c **** 
 305:../../Middlewares/LVGL/GUI/lvgl/src/widgets/imagebutton/lv_imagebutton.c ****     return state;
 306:../../Middlewares/LVGL/GUI/lvgl/src/widgets/imagebutton/lv_imagebutton.c **** }
  46              		.loc 1 306 1 view .LVU6
  47 000c 7047     		bx	lr
  48              	.LVL3:
  49              	.L17:
 281:../../Middlewares/LVGL/GUI/lvgl/src/widgets/imagebutton/lv_imagebutton.c ****         switch(state) {
  50              		.loc 1 281 9 is_stmt 1 view .LVU7
  51 000e 0329     		cmp	r1, #3
  52 0010 19D0     		beq	.L3
  53 0012 09D9     		bls	.L18
  54 0014 0429     		cmp	r1, #4
  55 0016 1BD0     		beq	.L7
  56 0018 0529     		cmp	r1, #5
  57 001a 0ED1     		bne	.L19
 297:../../Middlewares/LVGL/GUI/lvgl/src/widgets/imagebutton/lv_imagebutton.c ****                 if(imagebutton->src_mid[LV_IMAGEBUTTON_STATE_RELEASED].img_src) return LV_IMAGEBUTT
  58              		.loc 1 297 17 view .LVU8
 297:../../Middlewares/LVGL/GUI/lvgl/src/widgets/imagebutton/lv_imagebutton.c ****                 if(imagebutton->src_mid[LV_IMAGEBUTTON_STATE_RELEASED].img_src) return LV_IMAGEBUTT
  59              		.loc 1 297 79 is_stmt 0 view .LVU9
  60 001c DA6D     		ldr	r2, [r3, #92]
 297:../../Middlewares/LVGL/GUI/lvgl/src/widgets/imagebutton/lv_imagebutton.c ****                 if(imagebutton->src_mid[LV_IMAGEBUTTON_STATE_RELEASED].img_src) return LV_IMAGEBUTT
  61              		.loc 1 297 19 view .LVU10
  62 001e 32BB     		cbnz	r2, .L15
 298:../../Middlewares/LVGL/GUI/lvgl/src/widgets/imagebutton/lv_imagebutton.c ****                 break;
  63              		.loc 1 298 17 is_stmt 1 view .LVU11
 298:../../Middlewares/LVGL/GUI/lvgl/src/widgets/imagebutton/lv_imagebutton.c ****                 break;
  64              		.loc 1 298 71 is_stmt 0 view .LVU12
  65 0020 DB6A     		ldr	r3, [r3, #44]
  66              	.LVL4:
 298:../../Middlewares/LVGL/GUI/lvgl/src/widgets/imagebutton/lv_imagebutton.c ****                 break;
  67              		.loc 1 298 19 view .LVU13
  68 0022 0BB3     		cbz	r3, .L20
 298:../../Middlewares/LVGL/GUI/lvgl/src/widgets/imagebutton/lv_imagebutton.c ****                 break;
  69              		.loc 1 298 88 discriminator 1 view .LVU14
  70 0024 0020     		movs	r0, #0
  71 0026 F1E7     		b	.L2
  72              	.LVL5:
  73              	.L18:
 281:../../Middlewares/LVGL/GUI/lvgl/src/widgets/imagebutton/lv_imagebutton.c ****         switch(state) {
  74              		.loc 1 281 9 view .LVU15
  75 0028 0129     		cmp	r1, #1
  76 002a 07D0     		beq	.L5
  77 002c 0229     		cmp	r1, #2
  78 002e 03D1     		bne	.L21
 294:../../Middlewares/LVGL/GUI/lvgl/src/widgets/imagebutton/lv_imagebutton.c ****                 break;
  79              		.loc 1 294 17 is_stmt 1 view .LVU16
 294:../../Middlewares/LVGL/GUI/lvgl/src/widgets/imagebutton/lv_imagebutton.c ****                 break;
  80              		.loc 1 294 71 is_stmt 0 view .LVU17
  81 0030 DB6A     		ldr	r3, [r3, #44]
  82              	.LVL6:
 294:../../Middlewares/LVGL/GUI/lvgl/src/widgets/imagebutton/lv_imagebutton.c ****                 break;
ARM GAS  C:\Users\28576\AppData\Local\Temp\ccrhsjx7.s 			page 8


  83              		.loc 1 294 19 view .LVU18
  84 0032 C3B1     		cbz	r3, .L22
 294:../../Middlewares/LVGL/GUI/lvgl/src/widgets/imagebutton/lv_imagebutton.c ****                 break;
  85              		.loc 1 294 88 discriminator 1 view .LVU19
  86 0034 0020     		movs	r0, #0
  87 0036 7047     		bx	lr
  88              	.LVL7:
  89              	.L21:
 294:../../Middlewares/LVGL/GUI/lvgl/src/widgets/imagebutton/lv_imagebutton.c ****                 break;
  90              		.loc 1 294 88 discriminator 1 view .LVU20
  91 0038 7047     		bx	lr
  92              	.L19:
  93 003a 7047     		bx	lr
  94              	.L5:
 283:../../Middlewares/LVGL/GUI/lvgl/src/widgets/imagebutton/lv_imagebutton.c ****                 break;
  95              		.loc 1 283 17 is_stmt 1 view .LVU21
 283:../../Middlewares/LVGL/GUI/lvgl/src/widgets/imagebutton/lv_imagebutton.c ****                 break;
  96              		.loc 1 283 71 is_stmt 0 view .LVU22
  97 003c DB6A     		ldr	r3, [r3, #44]
  98              	.LVL8:
 283:../../Middlewares/LVGL/GUI/lvgl/src/widgets/imagebutton/lv_imagebutton.c ****                 break;
  99              		.loc 1 283 19 view .LVU23
 100 003e 0BB1     		cbz	r3, .L23
 283:../../Middlewares/LVGL/GUI/lvgl/src/widgets/imagebutton/lv_imagebutton.c ****                 break;
 101              		.loc 1 283 88 discriminator 1 view .LVU24
 102 0040 0020     		movs	r0, #0
 103 0042 7047     		bx	lr
 104              	.L23:
 105 0044 7047     		bx	lr
 106              	.LVL9:
 107              	.L3:
 286:../../Middlewares/LVGL/GUI/lvgl/src/widgets/imagebutton/lv_imagebutton.c ****                 break;
 108              		.loc 1 286 17 is_stmt 1 view .LVU25
 286:../../Middlewares/LVGL/GUI/lvgl/src/widgets/imagebutton/lv_imagebutton.c ****                 break;
 109              		.loc 1 286 71 is_stmt 0 view .LVU26
 110 0046 DB6A     		ldr	r3, [r3, #44]
 111              	.LVL10:
 286:../../Middlewares/LVGL/GUI/lvgl/src/widgets/imagebutton/lv_imagebutton.c ****                 break;
 112              		.loc 1 286 19 view .LVU27
 113 0048 0BB1     		cbz	r3, .L24
 286:../../Middlewares/LVGL/GUI/lvgl/src/widgets/imagebutton/lv_imagebutton.c ****                 break;
 114              		.loc 1 286 88 discriminator 1 view .LVU28
 115 004a 0020     		movs	r0, #0
 116 004c 7047     		bx	lr
 117              	.L24:
 118 004e 7047     		bx	lr
 119              	.LVL11:
 120              	.L7:
 289:../../Middlewares/LVGL/GUI/lvgl/src/widgets/imagebutton/lv_imagebutton.c ****                 if(imagebutton->src_mid[LV_IMAGEBUTTON_STATE_PRESSED].img_src) return LV_IMAGEBUTTO
 121              		.loc 1 289 17 is_stmt 1 view .LVU29
 289:../../Middlewares/LVGL/GUI/lvgl/src/widgets/imagebutton/lv_imagebutton.c ****                 if(imagebutton->src_mid[LV_IMAGEBUTTON_STATE_PRESSED].img_src) return LV_IMAGEBUTTO
 122              		.loc 1 289 79 is_stmt 0 view .LVU30
 123 0050 DA6D     		ldr	r2, [r3, #92]
 289:../../Middlewares/LVGL/GUI/lvgl/src/widgets/imagebutton/lv_imagebutton.c ****                 if(imagebutton->src_mid[LV_IMAGEBUTTON_STATE_PRESSED].img_src) return LV_IMAGEBUTTO
 124              		.loc 1 289 19 view .LVU31
 125 0052 52B9     		cbnz	r2, .L11
 290:../../Middlewares/LVGL/GUI/lvgl/src/widgets/imagebutton/lv_imagebutton.c ****                 if(imagebutton->src_mid[LV_IMAGEBUTTON_STATE_RELEASED].img_src) return LV_IMAGEBUTT
ARM GAS  C:\Users\28576\AppData\Local\Temp\ccrhsjx7.s 			page 9


 126              		.loc 1 290 17 is_stmt 1 view .LVU32
 290:../../Middlewares/LVGL/GUI/lvgl/src/widgets/imagebutton/lv_imagebutton.c ****                 if(imagebutton->src_mid[LV_IMAGEBUTTON_STATE_RELEASED].img_src) return LV_IMAGEBUTT
 127              		.loc 1 290 70 is_stmt 0 view .LVU33
 128 0054 DA6B     		ldr	r2, [r3, #60]
 290:../../Middlewares/LVGL/GUI/lvgl/src/widgets/imagebutton/lv_imagebutton.c ****                 if(imagebutton->src_mid[LV_IMAGEBUTTON_STATE_RELEASED].img_src) return LV_IMAGEBUTT
 129              		.loc 1 290 19 view .LVU34
 130 0056 0AB1     		cbz	r2, .L25
 290:../../Middlewares/LVGL/GUI/lvgl/src/widgets/imagebutton/lv_imagebutton.c ****                 if(imagebutton->src_mid[LV_IMAGEBUTTON_STATE_RELEASED].img_src) return LV_IMAGEBUTT
 131              		.loc 1 290 87 discriminator 1 view .LVU35
 132 0058 0120     		movs	r0, #1
 133 005a 7047     		bx	lr
 134              	.L25:
 291:../../Middlewares/LVGL/GUI/lvgl/src/widgets/imagebutton/lv_imagebutton.c ****                 break;
 135              		.loc 1 291 17 is_stmt 1 view .LVU36
 291:../../Middlewares/LVGL/GUI/lvgl/src/widgets/imagebutton/lv_imagebutton.c ****                 break;
 136              		.loc 1 291 71 is_stmt 0 view .LVU37
 137 005c DB6A     		ldr	r3, [r3, #44]
 138              	.LVL12:
 291:../../Middlewares/LVGL/GUI/lvgl/src/widgets/imagebutton/lv_imagebutton.c ****                 break;
 139              		.loc 1 291 19 view .LVU38
 140 005e 0BB1     		cbz	r3, .L26
 291:../../Middlewares/LVGL/GUI/lvgl/src/widgets/imagebutton/lv_imagebutton.c ****                 break;
 141              		.loc 1 291 88 discriminator 1 view .LVU39
 142 0060 0020     		movs	r0, #0
 143 0062 7047     		bx	lr
 144              	.L26:
 145 0064 7047     		bx	lr
 146              	.L22:
 291:../../Middlewares/LVGL/GUI/lvgl/src/widgets/imagebutton/lv_imagebutton.c ****                 break;
 147              		.loc 1 291 88 discriminator 1 view .LVU40
 148 0066 7047     		bx	lr
 149              	.L20:
 291:../../Middlewares/LVGL/GUI/lvgl/src/widgets/imagebutton/lv_imagebutton.c ****                 break;
 150              		.loc 1 291 88 discriminator 1 view .LVU41
 151 0068 7047     		bx	lr
 152              	.LVL13:
 153              	.L11:
 289:../../Middlewares/LVGL/GUI/lvgl/src/widgets/imagebutton/lv_imagebutton.c ****                 if(imagebutton->src_mid[LV_IMAGEBUTTON_STATE_PRESSED].img_src) return LV_IMAGEBUTTO
 154              		.loc 1 289 96 discriminator 1 view .LVU42
 155 006a 0320     		movs	r0, #3
 156 006c 7047     		bx	lr
 157              	.L15:
 297:../../Middlewares/LVGL/GUI/lvgl/src/widgets/imagebutton/lv_imagebutton.c ****                 if(imagebutton->src_mid[LV_IMAGEBUTTON_STATE_RELEASED].img_src) return LV_IMAGEBUTT
 158              		.loc 1 297 96 discriminator 1 view .LVU43
 159 006e 0320     		movs	r0, #3
 160 0070 7047     		bx	lr
 161              		.cfi_endproc
 162              	.LFE197:
 164              		.section	.text.get_state,"ax",%progbits
 165              		.align	1
 166              		.syntax unified
 167              		.thumb
 168              		.thumb_func
 170              	get_state:
 171              	.LVL14:
 172              	.LFB198:
 307:../../Middlewares/LVGL/GUI/lvgl/src/widgets/imagebutton/lv_imagebutton.c **** 
ARM GAS  C:\Users\28576\AppData\Local\Temp\ccrhsjx7.s 			page 10


 308:../../Middlewares/LVGL/GUI/lvgl/src/widgets/imagebutton/lv_imagebutton.c **** static lv_imagebutton_state_t get_state(const lv_obj_t * imagebutton)
 309:../../Middlewares/LVGL/GUI/lvgl/src/widgets/imagebutton/lv_imagebutton.c **** {
 173              		.loc 1 309 1 is_stmt 1 view -0
 174              		.cfi_startproc
 175              		@ args = 0, pretend = 0, frame = 0
 176              		@ frame_needed = 0, uses_anonymous_args = 0
 310:../../Middlewares/LVGL/GUI/lvgl/src/widgets/imagebutton/lv_imagebutton.c ****     LV_ASSERT_OBJ(imagebutton, MY_CLASS);
 177              		.loc 1 310 5 view .LVU45
 178              		.loc 1 310 5 view .LVU46
 179 0000 50B1     		cbz	r0, .L29
 309:../../Middlewares/LVGL/GUI/lvgl/src/widgets/imagebutton/lv_imagebutton.c ****     LV_ASSERT_OBJ(imagebutton, MY_CLASS);
 180              		.loc 1 309 1 is_stmt 0 view .LVU47
 181 0002 08B5     		push	{r3, lr}
 182              	.LCFI0:
 183              		.cfi_def_cfa_offset 8
 184              		.cfi_offset 3, -8
 185              		.cfi_offset 14, -4
 186              		.loc 1 310 5 is_stmt 1 view .LVU48
 187              		.loc 1 310 41 view .LVU49
 311:../../Middlewares/LVGL/GUI/lvgl/src/widgets/imagebutton/lv_imagebutton.c **** 
 312:../../Middlewares/LVGL/GUI/lvgl/src/widgets/imagebutton/lv_imagebutton.c ****     lv_state_t obj_state = lv_obj_get_state(imagebutton);
 188              		.loc 1 312 5 view .LVU50
 189              		.loc 1 312 28 is_stmt 0 view .LVU51
 190 0004 FFF7FEFF 		bl	lv_obj_get_state
 191              	.LVL15:
 313:../../Middlewares/LVGL/GUI/lvgl/src/widgets/imagebutton/lv_imagebutton.c **** 
 314:../../Middlewares/LVGL/GUI/lvgl/src/widgets/imagebutton/lv_imagebutton.c ****     if(obj_state & LV_STATE_DISABLED) {
 192              		.loc 1 314 5 is_stmt 1 view .LVU52
 193              		.loc 1 314 7 is_stmt 0 view .LVU53
 194 0008 10F0800F 		tst	r0, #128
 195 000c 05D0     		beq	.L30
 315:../../Middlewares/LVGL/GUI/lvgl/src/widgets/imagebutton/lv_imagebutton.c ****         if(obj_state & LV_STATE_CHECKED) return LV_IMAGEBUTTON_STATE_CHECKED_DISABLED;
 196              		.loc 1 315 9 is_stmt 1 view .LVU54
 197              		.loc 1 315 11 is_stmt 0 view .LVU55
 198 000e 10F0010F 		tst	r0, #1
 199 0012 0FD0     		beq	.L33
 200              		.loc 1 315 49 discriminator 1 view .LVU56
 201 0014 0520     		movs	r0, #5
 202              	.LVL16:
 203              	.L31:
 316:../../Middlewares/LVGL/GUI/lvgl/src/widgets/imagebutton/lv_imagebutton.c ****         else return LV_IMAGEBUTTON_STATE_DISABLED;
 317:../../Middlewares/LVGL/GUI/lvgl/src/widgets/imagebutton/lv_imagebutton.c ****     }
 318:../../Middlewares/LVGL/GUI/lvgl/src/widgets/imagebutton/lv_imagebutton.c **** 
 319:../../Middlewares/LVGL/GUI/lvgl/src/widgets/imagebutton/lv_imagebutton.c ****     if(obj_state & LV_STATE_CHECKED) {
 320:../../Middlewares/LVGL/GUI/lvgl/src/widgets/imagebutton/lv_imagebutton.c ****         if(obj_state & LV_STATE_PRESSED) return LV_IMAGEBUTTON_STATE_CHECKED_PRESSED;
 321:../../Middlewares/LVGL/GUI/lvgl/src/widgets/imagebutton/lv_imagebutton.c ****         else return LV_IMAGEBUTTON_STATE_CHECKED_RELEASED;
 322:../../Middlewares/LVGL/GUI/lvgl/src/widgets/imagebutton/lv_imagebutton.c ****     }
 323:../../Middlewares/LVGL/GUI/lvgl/src/widgets/imagebutton/lv_imagebutton.c ****     else {
 324:../../Middlewares/LVGL/GUI/lvgl/src/widgets/imagebutton/lv_imagebutton.c ****         if(obj_state & LV_STATE_PRESSED) return LV_IMAGEBUTTON_STATE_PRESSED;
 325:../../Middlewares/LVGL/GUI/lvgl/src/widgets/imagebutton/lv_imagebutton.c ****         else return LV_IMAGEBUTTON_STATE_RELEASED;
 326:../../Middlewares/LVGL/GUI/lvgl/src/widgets/imagebutton/lv_imagebutton.c ****     }
 327:../../Middlewares/LVGL/GUI/lvgl/src/widgets/imagebutton/lv_imagebutton.c **** }
 204              		.loc 1 327 1 view .LVU57
 205 0016 08BD     		pop	{r3, pc}
 206              	.LVL17:
 207              	.L29:
 208              	.LCFI1:
ARM GAS  C:\Users\28576\AppData\Local\Temp\ccrhsjx7.s 			page 11


 209              		.cfi_def_cfa_offset 0
 210              		.cfi_restore 3
 211              		.cfi_restore 14
 310:../../Middlewares/LVGL/GUI/lvgl/src/widgets/imagebutton/lv_imagebutton.c **** 
 212              		.loc 1 310 5 is_stmt 1 view .LVU58
 310:../../Middlewares/LVGL/GUI/lvgl/src/widgets/imagebutton/lv_imagebutton.c **** 
 213              		.loc 1 310 5 view .LVU59
 310:../../Middlewares/LVGL/GUI/lvgl/src/widgets/imagebutton/lv_imagebutton.c **** 
 214              		.loc 1 310 5 view .LVU60
 310:../../Middlewares/LVGL/GUI/lvgl/src/widgets/imagebutton/lv_imagebutton.c **** 
 215              		.loc 1 310 5 view .LVU61
 310:../../Middlewares/LVGL/GUI/lvgl/src/widgets/imagebutton/lv_imagebutton.c **** 
 216              		.loc 1 310 5 view .LVU62
 217 0018 FEE7     		b	.L29
 218              	.LVL18:
 219              	.L30:
 220              	.LCFI2:
 221              		.cfi_def_cfa_offset 8
 222              		.cfi_offset 3, -8
 223              		.cfi_offset 14, -4
 319:../../Middlewares/LVGL/GUI/lvgl/src/widgets/imagebutton/lv_imagebutton.c ****         if(obj_state & LV_STATE_PRESSED) return LV_IMAGEBUTTON_STATE_CHECKED_PRESSED;
 224              		.loc 1 319 5 view .LVU63
 319:../../Middlewares/LVGL/GUI/lvgl/src/widgets/imagebutton/lv_imagebutton.c ****         if(obj_state & LV_STATE_PRESSED) return LV_IMAGEBUTTON_STATE_CHECKED_PRESSED;
 225              		.loc 1 319 7 is_stmt 0 view .LVU64
 226 001a 10F0010F 		tst	r0, #1
 227 001e 04D0     		beq	.L32
 320:../../Middlewares/LVGL/GUI/lvgl/src/widgets/imagebutton/lv_imagebutton.c ****         else return LV_IMAGEBUTTON_STATE_CHECKED_RELEASED;
 228              		.loc 1 320 9 is_stmt 1 view .LVU65
 320:../../Middlewares/LVGL/GUI/lvgl/src/widgets/imagebutton/lv_imagebutton.c ****         else return LV_IMAGEBUTTON_STATE_CHECKED_RELEASED;
 229              		.loc 1 320 11 is_stmt 0 view .LVU66
 230 0020 10F0200F 		tst	r0, #32
 231 0024 08D0     		beq	.L34
 320:../../Middlewares/LVGL/GUI/lvgl/src/widgets/imagebutton/lv_imagebutton.c ****         else return LV_IMAGEBUTTON_STATE_CHECKED_RELEASED;
 232              		.loc 1 320 49 discriminator 1 view .LVU67
 233 0026 0420     		movs	r0, #4
 234              	.LVL19:
 320:../../Middlewares/LVGL/GUI/lvgl/src/widgets/imagebutton/lv_imagebutton.c ****         else return LV_IMAGEBUTTON_STATE_CHECKED_RELEASED;
 235              		.loc 1 320 49 discriminator 1 view .LVU68
 236 0028 F5E7     		b	.L31
 237              	.LVL20:
 238              	.L32:
 324:../../Middlewares/LVGL/GUI/lvgl/src/widgets/imagebutton/lv_imagebutton.c ****         else return LV_IMAGEBUTTON_STATE_RELEASED;
 239              		.loc 1 324 9 is_stmt 1 view .LVU69
 324:../../Middlewares/LVGL/GUI/lvgl/src/widgets/imagebutton/lv_imagebutton.c ****         else return LV_IMAGEBUTTON_STATE_RELEASED;
 240              		.loc 1 324 11 is_stmt 0 view .LVU70
 241 002a 10F0200F 		tst	r0, #32
 242 002e 05D0     		beq	.L35
 324:../../Middlewares/LVGL/GUI/lvgl/src/widgets/imagebutton/lv_imagebutton.c ****         else return LV_IMAGEBUTTON_STATE_RELEASED;
 243              		.loc 1 324 49 discriminator 1 view .LVU71
 244 0030 0120     		movs	r0, #1
 245              	.LVL21:
 324:../../Middlewares/LVGL/GUI/lvgl/src/widgets/imagebutton/lv_imagebutton.c ****         else return LV_IMAGEBUTTON_STATE_RELEASED;
 246              		.loc 1 324 49 discriminator 1 view .LVU72
 247 0032 F0E7     		b	.L31
 248              	.LVL22:
 249              	.L33:
 316:../../Middlewares/LVGL/GUI/lvgl/src/widgets/imagebutton/lv_imagebutton.c ****     }
ARM GAS  C:\Users\28576\AppData\Local\Temp\ccrhsjx7.s 			page 12


 250              		.loc 1 316 21 view .LVU73
 251 0034 0220     		movs	r0, #2
 252              	.LVL23:
 316:../../Middlewares/LVGL/GUI/lvgl/src/widgets/imagebutton/lv_imagebutton.c ****     }
 253              		.loc 1 316 21 view .LVU74
 254 0036 EEE7     		b	.L31
 255              	.LVL24:
 256              	.L34:
 321:../../Middlewares/LVGL/GUI/lvgl/src/widgets/imagebutton/lv_imagebutton.c ****     }
 257              		.loc 1 321 21 view .LVU75
 258 0038 0320     		movs	r0, #3
 259              	.LVL25:
 321:../../Middlewares/LVGL/GUI/lvgl/src/widgets/imagebutton/lv_imagebutton.c ****     }
 260              		.loc 1 321 21 view .LVU76
 261 003a ECE7     		b	.L31
 262              	.LVL26:
 263              	.L35:
 325:../../Middlewares/LVGL/GUI/lvgl/src/widgets/imagebutton/lv_imagebutton.c ****     }
 264              		.loc 1 325 21 view .LVU77
 265 003c 0020     		movs	r0, #0
 266              	.LVL27:
 325:../../Middlewares/LVGL/GUI/lvgl/src/widgets/imagebutton/lv_imagebutton.c ****     }
 267              		.loc 1 325 21 view .LVU78
 268 003e EAE7     		b	.L31
 269              		.cfi_endproc
 270              	.LFE198:
 272              		.section	.text.refr_image,"ax",%progbits
 273              		.align	1
 274              		.syntax unified
 275              		.thumb
 276              		.thumb_func
 278              	refr_image:
 279              	.LVL28:
 280              	.LFB196:
 257:../../Middlewares/LVGL/GUI/lvgl/src/widgets/imagebutton/lv_imagebutton.c ****     lv_imagebutton_t * imagebutton = (lv_imagebutton_t *)obj;
 281              		.loc 1 257 1 is_stmt 1 view -0
 282              		.cfi_startproc
 283              		@ args = 0, pretend = 0, frame = 0
 284              		@ frame_needed = 0, uses_anonymous_args = 0
 257:../../Middlewares/LVGL/GUI/lvgl/src/widgets/imagebutton/lv_imagebutton.c ****     lv_imagebutton_t * imagebutton = (lv_imagebutton_t *)obj;
 285              		.loc 1 257 1 is_stmt 0 view .LVU80
 286 0000 38B5     		push	{r3, r4, r5, lr}
 287              	.LCFI3:
 288              		.cfi_def_cfa_offset 16
 289              		.cfi_offset 3, -16
 290              		.cfi_offset 4, -12
 291              		.cfi_offset 5, -8
 292              		.cfi_offset 14, -4
 293 0002 0446     		mov	r4, r0
 258:../../Middlewares/LVGL/GUI/lvgl/src/widgets/imagebutton/lv_imagebutton.c ****     lv_imagebutton_state_t state  = suggest_state(obj, get_state(obj));
 294              		.loc 1 258 5 is_stmt 1 view .LVU81
 295              	.LVL29:
 259:../../Middlewares/LVGL/GUI/lvgl/src/widgets/imagebutton/lv_imagebutton.c **** 
 296              		.loc 1 259 5 view .LVU82
 259:../../Middlewares/LVGL/GUI/lvgl/src/widgets/imagebutton/lv_imagebutton.c **** 
 297              		.loc 1 259 37 is_stmt 0 view .LVU83
 298 0004 FFF7FEFF 		bl	get_state
ARM GAS  C:\Users\28576\AppData\Local\Temp\ccrhsjx7.s 			page 13


 299              	.LVL30:
 259:../../Middlewares/LVGL/GUI/lvgl/src/widgets/imagebutton/lv_imagebutton.c **** 
 300              		.loc 1 259 37 view .LVU84
 301 0008 0146     		mov	r1, r0
 259:../../Middlewares/LVGL/GUI/lvgl/src/widgets/imagebutton/lv_imagebutton.c **** 
 302              		.loc 1 259 37 discriminator 1 view .LVU85
 303 000a 2046     		mov	r0, r4
 304 000c FFF7FEFF 		bl	suggest_state
 305              	.LVL31:
 261:../../Middlewares/LVGL/GUI/lvgl/src/widgets/imagebutton/lv_imagebutton.c ****     if(src == NULL) return;
 306              		.loc 1 261 5 is_stmt 1 view .LVU86
 261:../../Middlewares/LVGL/GUI/lvgl/src/widgets/imagebutton/lv_imagebutton.c ****     if(src == NULL) return;
 307              		.loc 1 261 18 is_stmt 0 view .LVU87
 308 0010 04EB0013 		add	r3, r4, r0, lsl #4
 309 0014 DB6A     		ldr	r3, [r3, #44]
 310              	.LVL32:
 262:../../Middlewares/LVGL/GUI/lvgl/src/widgets/imagebutton/lv_imagebutton.c **** 
 311              		.loc 1 262 5 is_stmt 1 view .LVU88
 262:../../Middlewares/LVGL/GUI/lvgl/src/widgets/imagebutton/lv_imagebutton.c **** 
 312              		.loc 1 262 7 is_stmt 0 view .LVU89
 313 0016 63B1     		cbz	r3, .L38
 314 0018 0546     		mov	r5, r0
 264:../../Middlewares/LVGL/GUI/lvgl/src/widgets/imagebutton/lv_imagebutton.c ****     lv_obj_set_height(obj, imagebutton->src_mid[state].header.h); /*Keep the user defined width*/
 315              		.loc 1 264 5 is_stmt 1 view .LVU90
 316 001a 2046     		mov	r0, r4
 317              	.LVL33:
 264:../../Middlewares/LVGL/GUI/lvgl/src/widgets/imagebutton/lv_imagebutton.c ****     lv_obj_set_height(obj, imagebutton->src_mid[state].header.h); /*Keep the user defined width*/
 318              		.loc 1 264 5 is_stmt 0 view .LVU91
 319 001c FFF7FEFF 		bl	lv_obj_refresh_self_size
 320              	.LVL34:
 265:../../Middlewares/LVGL/GUI/lvgl/src/widgets/imagebutton/lv_imagebutton.c **** 
 321              		.loc 1 265 5 is_stmt 1 view .LVU92
 265:../../Middlewares/LVGL/GUI/lvgl/src/widgets/imagebutton/lv_imagebutton.c **** 
 322              		.loc 1 265 62 is_stmt 0 view .LVU93
 323 0020 04EB0510 		add	r0, r4, r5, lsl #4
 265:../../Middlewares/LVGL/GUI/lvgl/src/widgets/imagebutton/lv_imagebutton.c **** 
 324              		.loc 1 265 5 view .LVU94
 325 0024 C18E     		ldrh	r1, [r0, #54]
 326 0026 2046     		mov	r0, r4
 327 0028 FFF7FEFF 		bl	lv_obj_set_height
 328              	.LVL35:
 267:../../Middlewares/LVGL/GUI/lvgl/src/widgets/imagebutton/lv_imagebutton.c **** }
 329              		.loc 1 267 5 is_stmt 1 view .LVU95
 330 002c 2046     		mov	r0, r4
 331 002e FFF7FEFF 		bl	lv_obj_invalidate
 332              	.LVL36:
 333              	.L38:
 268:../../Middlewares/LVGL/GUI/lvgl/src/widgets/imagebutton/lv_imagebutton.c **** 
 334              		.loc 1 268 1 is_stmt 0 view .LVU96
 335 0032 38BD     		pop	{r3, r4, r5, pc}
 268:../../Middlewares/LVGL/GUI/lvgl/src/widgets/imagebutton/lv_imagebutton.c **** 
 336              		.loc 1 268 1 view .LVU97
 337              		.cfi_endproc
 338              	.LFE196:
 340              		.section	.text.draw_main,"ax",%progbits
 341              		.align	1
 342              		.syntax unified
ARM GAS  C:\Users\28576\AppData\Local\Temp\ccrhsjx7.s 			page 14


 343              		.thumb
 344              		.thumb_func
 346              	draw_main:
 347              	.LVL37:
 348              	.LFB195:
 189:../../Middlewares/LVGL/GUI/lvgl/src/widgets/imagebutton/lv_imagebutton.c ****     lv_obj_t * obj = lv_event_get_current_target(e);
 349              		.loc 1 189 1 is_stmt 1 view -0
 350              		.cfi_startproc
 351              		@ args = 0, pretend = 0, frame = 176
 352              		@ frame_needed = 0, uses_anonymous_args = 0
 189:../../Middlewares/LVGL/GUI/lvgl/src/widgets/imagebutton/lv_imagebutton.c ****     lv_obj_t * obj = lv_event_get_current_target(e);
 353              		.loc 1 189 1 is_stmt 0 view .LVU99
 354 0000 2DE9F041 		push	{r4, r5, r6, r7, r8, lr}
 355              	.LCFI4:
 356              		.cfi_def_cfa_offset 24
 357              		.cfi_offset 4, -24
 358              		.cfi_offset 5, -20
 359              		.cfi_offset 6, -16
 360              		.cfi_offset 7, -12
 361              		.cfi_offset 8, -8
 362              		.cfi_offset 14, -4
 363 0004 ACB0     		sub	sp, sp, #176
 364              	.LCFI5:
 365              		.cfi_def_cfa_offset 200
 366 0006 0546     		mov	r5, r0
 190:../../Middlewares/LVGL/GUI/lvgl/src/widgets/imagebutton/lv_imagebutton.c ****     lv_imagebutton_t * imagebutton = (lv_imagebutton_t *)obj;
 367              		.loc 1 190 5 is_stmt 1 view .LVU100
 190:../../Middlewares/LVGL/GUI/lvgl/src/widgets/imagebutton/lv_imagebutton.c ****     lv_imagebutton_t * imagebutton = (lv_imagebutton_t *)obj;
 368              		.loc 1 190 22 is_stmt 0 view .LVU101
 369 0008 FFF7FEFF 		bl	lv_event_get_current_target
 370              	.LVL38:
 190:../../Middlewares/LVGL/GUI/lvgl/src/widgets/imagebutton/lv_imagebutton.c ****     lv_imagebutton_t * imagebutton = (lv_imagebutton_t *)obj;
 371              		.loc 1 190 22 view .LVU102
 372 000c 0446     		mov	r4, r0
 373              	.LVL39:
 191:../../Middlewares/LVGL/GUI/lvgl/src/widgets/imagebutton/lv_imagebutton.c ****     lv_layer_t * layer = lv_event_get_layer(e);
 374              		.loc 1 191 5 is_stmt 1 view .LVU103
 192:../../Middlewares/LVGL/GUI/lvgl/src/widgets/imagebutton/lv_imagebutton.c **** 
 375              		.loc 1 192 5 view .LVU104
 192:../../Middlewares/LVGL/GUI/lvgl/src/widgets/imagebutton/lv_imagebutton.c **** 
 376              		.loc 1 192 26 is_stmt 0 view .LVU105
 377 000e 2846     		mov	r0, r5
 378              	.LVL40:
 192:../../Middlewares/LVGL/GUI/lvgl/src/widgets/imagebutton/lv_imagebutton.c **** 
 379              		.loc 1 192 26 view .LVU106
 380 0010 FFF7FEFF 		bl	lv_event_get_layer
 381              	.LVL41:
 382 0014 0646     		mov	r6, r0
 383              	.LVL42:
 195:../../Middlewares/LVGL/GUI/lvgl/src/widgets/imagebutton/lv_imagebutton.c **** 
 384              		.loc 1 195 5 is_stmt 1 view .LVU107
 195:../../Middlewares/LVGL/GUI/lvgl/src/widgets/imagebutton/lv_imagebutton.c **** 
 385              		.loc 1 195 37 is_stmt 0 view .LVU108
 386 0016 2046     		mov	r0, r4
 387              	.LVL43:
 195:../../Middlewares/LVGL/GUI/lvgl/src/widgets/imagebutton/lv_imagebutton.c **** 
 388              		.loc 1 195 37 view .LVU109
ARM GAS  C:\Users\28576\AppData\Local\Temp\ccrhsjx7.s 			page 15


 389 0018 FFF7FEFF 		bl	get_state
 390              	.LVL44:
 391 001c 0146     		mov	r1, r0
 195:../../Middlewares/LVGL/GUI/lvgl/src/widgets/imagebutton/lv_imagebutton.c **** 
 392              		.loc 1 195 37 discriminator 1 view .LVU110
 393 001e 2046     		mov	r0, r4
 394 0020 FFF7FEFF 		bl	suggest_state
 395              	.LVL45:
 396 0024 0546     		mov	r5, r0
 397              	.LVL46:
 198:../../Middlewares/LVGL/GUI/lvgl/src/widgets/imagebutton/lv_imagebutton.c **** 
 398              		.loc 1 198 5 is_stmt 1 view .LVU111
 200:../../Middlewares/LVGL/GUI/lvgl/src/widgets/imagebutton/lv_imagebutton.c ****     int32_t th = lv_obj_get_style_transform_height(obj, LV_PART_MAIN);
 399              		.loc 1 200 5 view .LVU112
 400              	.LBB18:
 401              	.LBI18:
 402              		.file 2 "H:/STM32H7/RGB_LVGL/Middlewares/LVGL/GUI/lvgl/src/core/lv_obj_style_gen.h"
   1:H:/STM32H7/RGB_LVGL/Middlewares/LVGL/GUI/lvgl/src/core\lv_obj_style_gen.h **** 
   2:H:/STM32H7/RGB_LVGL/Middlewares/LVGL/GUI/lvgl/src/core\lv_obj_style_gen.h **** /*
   3:H:/STM32H7/RGB_LVGL/Middlewares/LVGL/GUI/lvgl/src/core\lv_obj_style_gen.h ****  **********************************************************************
   4:H:/STM32H7/RGB_LVGL/Middlewares/LVGL/GUI/lvgl/src/core\lv_obj_style_gen.h ****  *                            DO NOT EDIT
   5:H:/STM32H7/RGB_LVGL/Middlewares/LVGL/GUI/lvgl/src/core\lv_obj_style_gen.h ****  * This file is automatically generated by "style_api_gen.py"
   6:H:/STM32H7/RGB_LVGL/Middlewares/LVGL/GUI/lvgl/src/core\lv_obj_style_gen.h ****  **********************************************************************
   7:H:/STM32H7/RGB_LVGL/Middlewares/LVGL/GUI/lvgl/src/core\lv_obj_style_gen.h ****  */
   8:H:/STM32H7/RGB_LVGL/Middlewares/LVGL/GUI/lvgl/src/core\lv_obj_style_gen.h **** 
   9:H:/STM32H7/RGB_LVGL/Middlewares/LVGL/GUI/lvgl/src/core\lv_obj_style_gen.h **** 
  10:H:/STM32H7/RGB_LVGL/Middlewares/LVGL/GUI/lvgl/src/core\lv_obj_style_gen.h **** #ifndef LV_OBJ_STYLE_GEN_H
  11:H:/STM32H7/RGB_LVGL/Middlewares/LVGL/GUI/lvgl/src/core\lv_obj_style_gen.h **** #define LV_OBJ_STYLE_GEN_H
  12:H:/STM32H7/RGB_LVGL/Middlewares/LVGL/GUI/lvgl/src/core\lv_obj_style_gen.h **** 
  13:H:/STM32H7/RGB_LVGL/Middlewares/LVGL/GUI/lvgl/src/core\lv_obj_style_gen.h **** #ifdef __cplusplus
  14:H:/STM32H7/RGB_LVGL/Middlewares/LVGL/GUI/lvgl/src/core\lv_obj_style_gen.h **** extern "C" {
  15:H:/STM32H7/RGB_LVGL/Middlewares/LVGL/GUI/lvgl/src/core\lv_obj_style_gen.h **** #endif
  16:H:/STM32H7/RGB_LVGL/Middlewares/LVGL/GUI/lvgl/src/core\lv_obj_style_gen.h **** 
  17:H:/STM32H7/RGB_LVGL/Middlewares/LVGL/GUI/lvgl/src/core\lv_obj_style_gen.h **** #include "../misc/lv_area.h"
  18:H:/STM32H7/RGB_LVGL/Middlewares/LVGL/GUI/lvgl/src/core\lv_obj_style_gen.h **** #include "../misc/lv_style.h"
  19:H:/STM32H7/RGB_LVGL/Middlewares/LVGL/GUI/lvgl/src/core\lv_obj_style_gen.h **** #include "../core/lv_obj_style.h"
  20:H:/STM32H7/RGB_LVGL/Middlewares/LVGL/GUI/lvgl/src/core\lv_obj_style_gen.h **** #include "../misc/lv_types.h"
  21:H:/STM32H7/RGB_LVGL/Middlewares/LVGL/GUI/lvgl/src/core\lv_obj_style_gen.h **** 
  22:H:/STM32H7/RGB_LVGL/Middlewares/LVGL/GUI/lvgl/src/core\lv_obj_style_gen.h **** static inline int32_t lv_obj_get_style_width(const lv_obj_t * obj, lv_part_t part)
  23:H:/STM32H7/RGB_LVGL/Middlewares/LVGL/GUI/lvgl/src/core\lv_obj_style_gen.h **** {
  24:H:/STM32H7/RGB_LVGL/Middlewares/LVGL/GUI/lvgl/src/core\lv_obj_style_gen.h ****     lv_style_value_t v = lv_obj_get_style_prop(obj, part, LV_STYLE_WIDTH);
  25:H:/STM32H7/RGB_LVGL/Middlewares/LVGL/GUI/lvgl/src/core\lv_obj_style_gen.h ****     return (int32_t)v.num;
  26:H:/STM32H7/RGB_LVGL/Middlewares/LVGL/GUI/lvgl/src/core\lv_obj_style_gen.h **** }
  27:H:/STM32H7/RGB_LVGL/Middlewares/LVGL/GUI/lvgl/src/core\lv_obj_style_gen.h **** 
  28:H:/STM32H7/RGB_LVGL/Middlewares/LVGL/GUI/lvgl/src/core\lv_obj_style_gen.h **** static inline int32_t lv_obj_get_style_min_width(const lv_obj_t * obj, lv_part_t part)
  29:H:/STM32H7/RGB_LVGL/Middlewares/LVGL/GUI/lvgl/src/core\lv_obj_style_gen.h **** {
  30:H:/STM32H7/RGB_LVGL/Middlewares/LVGL/GUI/lvgl/src/core\lv_obj_style_gen.h ****     lv_style_value_t v = lv_obj_get_style_prop(obj, part, LV_STYLE_MIN_WIDTH);
  31:H:/STM32H7/RGB_LVGL/Middlewares/LVGL/GUI/lvgl/src/core\lv_obj_style_gen.h ****     return (int32_t)v.num;
  32:H:/STM32H7/RGB_LVGL/Middlewares/LVGL/GUI/lvgl/src/core\lv_obj_style_gen.h **** }
  33:H:/STM32H7/RGB_LVGL/Middlewares/LVGL/GUI/lvgl/src/core\lv_obj_style_gen.h **** 
  34:H:/STM32H7/RGB_LVGL/Middlewares/LVGL/GUI/lvgl/src/core\lv_obj_style_gen.h **** static inline int32_t lv_obj_get_style_max_width(const lv_obj_t * obj, lv_part_t part)
  35:H:/STM32H7/RGB_LVGL/Middlewares/LVGL/GUI/lvgl/src/core\lv_obj_style_gen.h **** {
  36:H:/STM32H7/RGB_LVGL/Middlewares/LVGL/GUI/lvgl/src/core\lv_obj_style_gen.h ****     lv_style_value_t v = lv_obj_get_style_prop(obj, part, LV_STYLE_MAX_WIDTH);
  37:H:/STM32H7/RGB_LVGL/Middlewares/LVGL/GUI/lvgl/src/core\lv_obj_style_gen.h ****     return (int32_t)v.num;
  38:H:/STM32H7/RGB_LVGL/Middlewares/LVGL/GUI/lvgl/src/core\lv_obj_style_gen.h **** }
  39:H:/STM32H7/RGB_LVGL/Middlewares/LVGL/GUI/lvgl/src/core\lv_obj_style_gen.h **** 
  40:H:/STM32H7/RGB_LVGL/Middlewares/LVGL/GUI/lvgl/src/core\lv_obj_style_gen.h **** static inline int32_t lv_obj_get_style_height(const lv_obj_t * obj, lv_part_t part)
ARM GAS  C:\Users\28576\AppData\Local\Temp\ccrhsjx7.s 			page 16


  41:H:/STM32H7/RGB_LVGL/Middlewares/LVGL/GUI/lvgl/src/core\lv_obj_style_gen.h **** {
  42:H:/STM32H7/RGB_LVGL/Middlewares/LVGL/GUI/lvgl/src/core\lv_obj_style_gen.h ****     lv_style_value_t v = lv_obj_get_style_prop(obj, part, LV_STYLE_HEIGHT);
  43:H:/STM32H7/RGB_LVGL/Middlewares/LVGL/GUI/lvgl/src/core\lv_obj_style_gen.h ****     return (int32_t)v.num;
  44:H:/STM32H7/RGB_LVGL/Middlewares/LVGL/GUI/lvgl/src/core\lv_obj_style_gen.h **** }
  45:H:/STM32H7/RGB_LVGL/Middlewares/LVGL/GUI/lvgl/src/core\lv_obj_style_gen.h **** 
  46:H:/STM32H7/RGB_LVGL/Middlewares/LVGL/GUI/lvgl/src/core\lv_obj_style_gen.h **** static inline int32_t lv_obj_get_style_min_height(const lv_obj_t * obj, lv_part_t part)
  47:H:/STM32H7/RGB_LVGL/Middlewares/LVGL/GUI/lvgl/src/core\lv_obj_style_gen.h **** {
  48:H:/STM32H7/RGB_LVGL/Middlewares/LVGL/GUI/lvgl/src/core\lv_obj_style_gen.h ****     lv_style_value_t v = lv_obj_get_style_prop(obj, part, LV_STYLE_MIN_HEIGHT);
  49:H:/STM32H7/RGB_LVGL/Middlewares/LVGL/GUI/lvgl/src/core\lv_obj_style_gen.h ****     return (int32_t)v.num;
  50:H:/STM32H7/RGB_LVGL/Middlewares/LVGL/GUI/lvgl/src/core\lv_obj_style_gen.h **** }
  51:H:/STM32H7/RGB_LVGL/Middlewares/LVGL/GUI/lvgl/src/core\lv_obj_style_gen.h **** 
  52:H:/STM32H7/RGB_LVGL/Middlewares/LVGL/GUI/lvgl/src/core\lv_obj_style_gen.h **** static inline int32_t lv_obj_get_style_max_height(const lv_obj_t * obj, lv_part_t part)
  53:H:/STM32H7/RGB_LVGL/Middlewares/LVGL/GUI/lvgl/src/core\lv_obj_style_gen.h **** {
  54:H:/STM32H7/RGB_LVGL/Middlewares/LVGL/GUI/lvgl/src/core\lv_obj_style_gen.h ****     lv_style_value_t v = lv_obj_get_style_prop(obj, part, LV_STYLE_MAX_HEIGHT);
  55:H:/STM32H7/RGB_LVGL/Middlewares/LVGL/GUI/lvgl/src/core\lv_obj_style_gen.h ****     return (int32_t)v.num;
  56:H:/STM32H7/RGB_LVGL/Middlewares/LVGL/GUI/lvgl/src/core\lv_obj_style_gen.h **** }
  57:H:/STM32H7/RGB_LVGL/Middlewares/LVGL/GUI/lvgl/src/core\lv_obj_style_gen.h **** 
  58:H:/STM32H7/RGB_LVGL/Middlewares/LVGL/GUI/lvgl/src/core\lv_obj_style_gen.h **** static inline int32_t lv_obj_get_style_length(const lv_obj_t * obj, lv_part_t part)
  59:H:/STM32H7/RGB_LVGL/Middlewares/LVGL/GUI/lvgl/src/core\lv_obj_style_gen.h **** {
  60:H:/STM32H7/RGB_LVGL/Middlewares/LVGL/GUI/lvgl/src/core\lv_obj_style_gen.h ****     lv_style_value_t v = lv_obj_get_style_prop(obj, part, LV_STYLE_LENGTH);
  61:H:/STM32H7/RGB_LVGL/Middlewares/LVGL/GUI/lvgl/src/core\lv_obj_style_gen.h ****     return (int32_t)v.num;
  62:H:/STM32H7/RGB_LVGL/Middlewares/LVGL/GUI/lvgl/src/core\lv_obj_style_gen.h **** }
  63:H:/STM32H7/RGB_LVGL/Middlewares/LVGL/GUI/lvgl/src/core\lv_obj_style_gen.h **** 
  64:H:/STM32H7/RGB_LVGL/Middlewares/LVGL/GUI/lvgl/src/core\lv_obj_style_gen.h **** static inline int32_t lv_obj_get_style_x(const lv_obj_t * obj, lv_part_t part)
  65:H:/STM32H7/RGB_LVGL/Middlewares/LVGL/GUI/lvgl/src/core\lv_obj_style_gen.h **** {
  66:H:/STM32H7/RGB_LVGL/Middlewares/LVGL/GUI/lvgl/src/core\lv_obj_style_gen.h ****     lv_style_value_t v = lv_obj_get_style_prop(obj, part, LV_STYLE_X);
  67:H:/STM32H7/RGB_LVGL/Middlewares/LVGL/GUI/lvgl/src/core\lv_obj_style_gen.h ****     return (int32_t)v.num;
  68:H:/STM32H7/RGB_LVGL/Middlewares/LVGL/GUI/lvgl/src/core\lv_obj_style_gen.h **** }
  69:H:/STM32H7/RGB_LVGL/Middlewares/LVGL/GUI/lvgl/src/core\lv_obj_style_gen.h **** 
  70:H:/STM32H7/RGB_LVGL/Middlewares/LVGL/GUI/lvgl/src/core\lv_obj_style_gen.h **** static inline int32_t lv_obj_get_style_y(const lv_obj_t * obj, lv_part_t part)
  71:H:/STM32H7/RGB_LVGL/Middlewares/LVGL/GUI/lvgl/src/core\lv_obj_style_gen.h **** {
  72:H:/STM32H7/RGB_LVGL/Middlewares/LVGL/GUI/lvgl/src/core\lv_obj_style_gen.h ****     lv_style_value_t v = lv_obj_get_style_prop(obj, part, LV_STYLE_Y);
  73:H:/STM32H7/RGB_LVGL/Middlewares/LVGL/GUI/lvgl/src/core\lv_obj_style_gen.h ****     return (int32_t)v.num;
  74:H:/STM32H7/RGB_LVGL/Middlewares/LVGL/GUI/lvgl/src/core\lv_obj_style_gen.h **** }
  75:H:/STM32H7/RGB_LVGL/Middlewares/LVGL/GUI/lvgl/src/core\lv_obj_style_gen.h **** 
  76:H:/STM32H7/RGB_LVGL/Middlewares/LVGL/GUI/lvgl/src/core\lv_obj_style_gen.h **** static inline lv_align_t lv_obj_get_style_align(const lv_obj_t * obj, lv_part_t part)
  77:H:/STM32H7/RGB_LVGL/Middlewares/LVGL/GUI/lvgl/src/core\lv_obj_style_gen.h **** {
  78:H:/STM32H7/RGB_LVGL/Middlewares/LVGL/GUI/lvgl/src/core\lv_obj_style_gen.h ****     lv_style_value_t v = lv_obj_get_style_prop(obj, part, LV_STYLE_ALIGN);
  79:H:/STM32H7/RGB_LVGL/Middlewares/LVGL/GUI/lvgl/src/core\lv_obj_style_gen.h ****     return (lv_align_t)v.num;
  80:H:/STM32H7/RGB_LVGL/Middlewares/LVGL/GUI/lvgl/src/core\lv_obj_style_gen.h **** }
  81:H:/STM32H7/RGB_LVGL/Middlewares/LVGL/GUI/lvgl/src/core\lv_obj_style_gen.h **** 
  82:H:/STM32H7/RGB_LVGL/Middlewares/LVGL/GUI/lvgl/src/core\lv_obj_style_gen.h **** static inline int32_t lv_obj_get_style_transform_width(const lv_obj_t * obj, lv_part_t part)
 403              		.loc 2 82 23 view .LVU113
 404              	.LBB19:
  83:H:/STM32H7/RGB_LVGL/Middlewares/LVGL/GUI/lvgl/src/core\lv_obj_style_gen.h **** {
  84:H:/STM32H7/RGB_LVGL/Middlewares/LVGL/GUI/lvgl/src/core\lv_obj_style_gen.h ****     lv_style_value_t v = lv_obj_get_style_prop(obj, part, LV_STYLE_TRANSFORM_WIDTH);
 405              		.loc 2 84 5 view .LVU114
 406              		.loc 2 84 26 is_stmt 0 view .LVU115
 407 0026 6A22     		movs	r2, #106
 408 0028 0021     		movs	r1, #0
 409 002a 2046     		mov	r0, r4
 410              	.LVL47:
 411              		.loc 2 84 26 view .LVU116
 412 002c FFF7FEFF 		bl	lv_obj_get_style_prop
 413              	.LVL48:
 414 0030 0746     		mov	r7, r0
 415 0032 0590     		str	r0, [sp, #20]
ARM GAS  C:\Users\28576\AppData\Local\Temp\ccrhsjx7.s 			page 17


  85:H:/STM32H7/RGB_LVGL/Middlewares/LVGL/GUI/lvgl/src/core\lv_obj_style_gen.h ****     return (int32_t)v.num;
 416              		.loc 2 85 5 is_stmt 1 view .LVU117
 417              	.LVL49:
 418              		.loc 2 85 5 is_stmt 0 view .LVU118
 419              	.LBE19:
 420              	.LBE18:
 201:../../Middlewares/LVGL/GUI/lvgl/src/widgets/imagebutton/lv_imagebutton.c ****     lv_area_t coords;
 421              		.loc 1 201 5 is_stmt 1 view .LVU119
 422              	.LBB20:
 423              	.LBI20:
  86:H:/STM32H7/RGB_LVGL/Middlewares/LVGL/GUI/lvgl/src/core\lv_obj_style_gen.h **** }
  87:H:/STM32H7/RGB_LVGL/Middlewares/LVGL/GUI/lvgl/src/core\lv_obj_style_gen.h **** 
  88:H:/STM32H7/RGB_LVGL/Middlewares/LVGL/GUI/lvgl/src/core\lv_obj_style_gen.h **** static inline int32_t lv_obj_get_style_transform_height(const lv_obj_t * obj, lv_part_t part)
 424              		.loc 2 88 23 view .LVU120
 425              	.LBB21:
  89:H:/STM32H7/RGB_LVGL/Middlewares/LVGL/GUI/lvgl/src/core\lv_obj_style_gen.h **** {
  90:H:/STM32H7/RGB_LVGL/Middlewares/LVGL/GUI/lvgl/src/core\lv_obj_style_gen.h ****     lv_style_value_t v = lv_obj_get_style_prop(obj, part, LV_STYLE_TRANSFORM_HEIGHT);
 426              		.loc 2 90 5 view .LVU121
 427              		.loc 2 90 26 is_stmt 0 view .LVU122
 428 0034 6B22     		movs	r2, #107
 429 0036 0021     		movs	r1, #0
 430 0038 2046     		mov	r0, r4
 431              	.LVL50:
 432              		.loc 2 90 26 view .LVU123
 433 003a FFF7FEFF 		bl	lv_obj_get_style_prop
 434              	.LVL51:
 435 003e 0246     		mov	r2, r0
 436 0040 0590     		str	r0, [sp, #20]
  91:H:/STM32H7/RGB_LVGL/Middlewares/LVGL/GUI/lvgl/src/core\lv_obj_style_gen.h ****     return (int32_t)v.num;
 437              		.loc 2 91 5 is_stmt 1 view .LVU124
 438              	.LVL52:
 439              		.loc 2 91 5 is_stmt 0 view .LVU125
 440              	.LBE21:
 441              	.LBE20:
 202:../../Middlewares/LVGL/GUI/lvgl/src/widgets/imagebutton/lv_imagebutton.c ****     lv_area_copy(&coords, &obj->coords);
 442              		.loc 1 202 5 is_stmt 1 view .LVU126
 203:../../Middlewares/LVGL/GUI/lvgl/src/widgets/imagebutton/lv_imagebutton.c ****     lv_area_increase(&coords, tw, th);
 443              		.loc 1 203 5 view .LVU127
 444              	.LBB22:
 445              	.LBI22:
 446              		.file 3 "H:/STM32H7/RGB_LVGL/Middlewares/LVGL/GUI/lvgl/src/misc/lv_area.h"
   1:H:/STM32H7/RGB_LVGL/Middlewares/LVGL/GUI/lvgl/src/misc\lv_area.h **** /**
   2:H:/STM32H7/RGB_LVGL/Middlewares/LVGL/GUI/lvgl/src/misc\lv_area.h ****  * @file lv_area.h
   3:H:/STM32H7/RGB_LVGL/Middlewares/LVGL/GUI/lvgl/src/misc\lv_area.h ****  *
   4:H:/STM32H7/RGB_LVGL/Middlewares/LVGL/GUI/lvgl/src/misc\lv_area.h ****  */
   5:H:/STM32H7/RGB_LVGL/Middlewares/LVGL/GUI/lvgl/src/misc\lv_area.h **** 
   6:H:/STM32H7/RGB_LVGL/Middlewares/LVGL/GUI/lvgl/src/misc\lv_area.h **** #ifndef LV_AREA_H
   7:H:/STM32H7/RGB_LVGL/Middlewares/LVGL/GUI/lvgl/src/misc\lv_area.h **** #define LV_AREA_H
   8:H:/STM32H7/RGB_LVGL/Middlewares/LVGL/GUI/lvgl/src/misc\lv_area.h **** 
   9:H:/STM32H7/RGB_LVGL/Middlewares/LVGL/GUI/lvgl/src/misc\lv_area.h **** #ifdef __cplusplus
  10:H:/STM32H7/RGB_LVGL/Middlewares/LVGL/GUI/lvgl/src/misc\lv_area.h **** extern "C" {
  11:H:/STM32H7/RGB_LVGL/Middlewares/LVGL/GUI/lvgl/src/misc\lv_area.h **** #endif
  12:H:/STM32H7/RGB_LVGL/Middlewares/LVGL/GUI/lvgl/src/misc\lv_area.h **** 
  13:H:/STM32H7/RGB_LVGL/Middlewares/LVGL/GUI/lvgl/src/misc\lv_area.h **** /*********************
  14:H:/STM32H7/RGB_LVGL/Middlewares/LVGL/GUI/lvgl/src/misc\lv_area.h ****  *      INCLUDES
  15:H:/STM32H7/RGB_LVGL/Middlewares/LVGL/GUI/lvgl/src/misc\lv_area.h ****  *********************/
  16:H:/STM32H7/RGB_LVGL/Middlewares/LVGL/GUI/lvgl/src/misc\lv_area.h **** #include "../lv_conf_internal.h"
ARM GAS  C:\Users\28576\AppData\Local\Temp\ccrhsjx7.s 			page 18


  17:H:/STM32H7/RGB_LVGL/Middlewares/LVGL/GUI/lvgl/src/misc\lv_area.h **** #include "lv_types.h"
  18:H:/STM32H7/RGB_LVGL/Middlewares/LVGL/GUI/lvgl/src/misc\lv_area.h **** #include "lv_math.h"
  19:H:/STM32H7/RGB_LVGL/Middlewares/LVGL/GUI/lvgl/src/misc\lv_area.h **** 
  20:H:/STM32H7/RGB_LVGL/Middlewares/LVGL/GUI/lvgl/src/misc\lv_area.h **** /*********************
  21:H:/STM32H7/RGB_LVGL/Middlewares/LVGL/GUI/lvgl/src/misc\lv_area.h ****  *      DEFINES
  22:H:/STM32H7/RGB_LVGL/Middlewares/LVGL/GUI/lvgl/src/misc\lv_area.h ****  *********************/
  23:H:/STM32H7/RGB_LVGL/Middlewares/LVGL/GUI/lvgl/src/misc\lv_area.h **** 
  24:H:/STM32H7/RGB_LVGL/Middlewares/LVGL/GUI/lvgl/src/misc\lv_area.h **** /**********************
  25:H:/STM32H7/RGB_LVGL/Middlewares/LVGL/GUI/lvgl/src/misc\lv_area.h ****  *      TYPEDEFS
  26:H:/STM32H7/RGB_LVGL/Middlewares/LVGL/GUI/lvgl/src/misc\lv_area.h ****  **********************/
  27:H:/STM32H7/RGB_LVGL/Middlewares/LVGL/GUI/lvgl/src/misc\lv_area.h **** 
  28:H:/STM32H7/RGB_LVGL/Middlewares/LVGL/GUI/lvgl/src/misc\lv_area.h **** /**
  29:H:/STM32H7/RGB_LVGL/Middlewares/LVGL/GUI/lvgl/src/misc\lv_area.h ****  * Represents a point on the screen.
  30:H:/STM32H7/RGB_LVGL/Middlewares/LVGL/GUI/lvgl/src/misc\lv_area.h ****  */
  31:H:/STM32H7/RGB_LVGL/Middlewares/LVGL/GUI/lvgl/src/misc\lv_area.h **** typedef struct {
  32:H:/STM32H7/RGB_LVGL/Middlewares/LVGL/GUI/lvgl/src/misc\lv_area.h ****     int32_t x;
  33:H:/STM32H7/RGB_LVGL/Middlewares/LVGL/GUI/lvgl/src/misc\lv_area.h ****     int32_t y;
  34:H:/STM32H7/RGB_LVGL/Middlewares/LVGL/GUI/lvgl/src/misc\lv_area.h **** } lv_point_t;
  35:H:/STM32H7/RGB_LVGL/Middlewares/LVGL/GUI/lvgl/src/misc\lv_area.h **** 
  36:H:/STM32H7/RGB_LVGL/Middlewares/LVGL/GUI/lvgl/src/misc\lv_area.h **** typedef struct {
  37:H:/STM32H7/RGB_LVGL/Middlewares/LVGL/GUI/lvgl/src/misc\lv_area.h ****     lv_value_precise_t x;
  38:H:/STM32H7/RGB_LVGL/Middlewares/LVGL/GUI/lvgl/src/misc\lv_area.h ****     lv_value_precise_t y;
  39:H:/STM32H7/RGB_LVGL/Middlewares/LVGL/GUI/lvgl/src/misc\lv_area.h **** } lv_point_precise_t;
  40:H:/STM32H7/RGB_LVGL/Middlewares/LVGL/GUI/lvgl/src/misc\lv_area.h **** 
  41:H:/STM32H7/RGB_LVGL/Middlewares/LVGL/GUI/lvgl/src/misc\lv_area.h **** /** Represents an area of the screen.*/
  42:H:/STM32H7/RGB_LVGL/Middlewares/LVGL/GUI/lvgl/src/misc\lv_area.h **** typedef struct {
  43:H:/STM32H7/RGB_LVGL/Middlewares/LVGL/GUI/lvgl/src/misc\lv_area.h ****     int32_t x1;
  44:H:/STM32H7/RGB_LVGL/Middlewares/LVGL/GUI/lvgl/src/misc\lv_area.h ****     int32_t y1;
  45:H:/STM32H7/RGB_LVGL/Middlewares/LVGL/GUI/lvgl/src/misc\lv_area.h ****     int32_t x2;
  46:H:/STM32H7/RGB_LVGL/Middlewares/LVGL/GUI/lvgl/src/misc\lv_area.h ****     int32_t y2;
  47:H:/STM32H7/RGB_LVGL/Middlewares/LVGL/GUI/lvgl/src/misc\lv_area.h **** } lv_area_t;
  48:H:/STM32H7/RGB_LVGL/Middlewares/LVGL/GUI/lvgl/src/misc\lv_area.h **** 
  49:H:/STM32H7/RGB_LVGL/Middlewares/LVGL/GUI/lvgl/src/misc\lv_area.h **** /** Alignments*/
  50:H:/STM32H7/RGB_LVGL/Middlewares/LVGL/GUI/lvgl/src/misc\lv_area.h **** 
  51:H:/STM32H7/RGB_LVGL/Middlewares/LVGL/GUI/lvgl/src/misc\lv_area.h **** typedef enum {
  52:H:/STM32H7/RGB_LVGL/Middlewares/LVGL/GUI/lvgl/src/misc\lv_area.h ****     LV_ALIGN_DEFAULT = 0,
  53:H:/STM32H7/RGB_LVGL/Middlewares/LVGL/GUI/lvgl/src/misc\lv_area.h ****     LV_ALIGN_TOP_LEFT,
  54:H:/STM32H7/RGB_LVGL/Middlewares/LVGL/GUI/lvgl/src/misc\lv_area.h ****     LV_ALIGN_TOP_MID,
  55:H:/STM32H7/RGB_LVGL/Middlewares/LVGL/GUI/lvgl/src/misc\lv_area.h ****     LV_ALIGN_TOP_RIGHT,
  56:H:/STM32H7/RGB_LVGL/Middlewares/LVGL/GUI/lvgl/src/misc\lv_area.h ****     LV_ALIGN_BOTTOM_LEFT,
  57:H:/STM32H7/RGB_LVGL/Middlewares/LVGL/GUI/lvgl/src/misc\lv_area.h ****     LV_ALIGN_BOTTOM_MID,
  58:H:/STM32H7/RGB_LVGL/Middlewares/LVGL/GUI/lvgl/src/misc\lv_area.h ****     LV_ALIGN_BOTTOM_RIGHT,
  59:H:/STM32H7/RGB_LVGL/Middlewares/LVGL/GUI/lvgl/src/misc\lv_area.h ****     LV_ALIGN_LEFT_MID,
  60:H:/STM32H7/RGB_LVGL/Middlewares/LVGL/GUI/lvgl/src/misc\lv_area.h ****     LV_ALIGN_RIGHT_MID,
  61:H:/STM32H7/RGB_LVGL/Middlewares/LVGL/GUI/lvgl/src/misc\lv_area.h ****     LV_ALIGN_CENTER,
  62:H:/STM32H7/RGB_LVGL/Middlewares/LVGL/GUI/lvgl/src/misc\lv_area.h **** 
  63:H:/STM32H7/RGB_LVGL/Middlewares/LVGL/GUI/lvgl/src/misc\lv_area.h ****     LV_ALIGN_OUT_TOP_LEFT,
  64:H:/STM32H7/RGB_LVGL/Middlewares/LVGL/GUI/lvgl/src/misc\lv_area.h ****     LV_ALIGN_OUT_TOP_MID,
  65:H:/STM32H7/RGB_LVGL/Middlewares/LVGL/GUI/lvgl/src/misc\lv_area.h ****     LV_ALIGN_OUT_TOP_RIGHT,
  66:H:/STM32H7/RGB_LVGL/Middlewares/LVGL/GUI/lvgl/src/misc\lv_area.h ****     LV_ALIGN_OUT_BOTTOM_LEFT,
  67:H:/STM32H7/RGB_LVGL/Middlewares/LVGL/GUI/lvgl/src/misc\lv_area.h ****     LV_ALIGN_OUT_BOTTOM_MID,
  68:H:/STM32H7/RGB_LVGL/Middlewares/LVGL/GUI/lvgl/src/misc\lv_area.h ****     LV_ALIGN_OUT_BOTTOM_RIGHT,
  69:H:/STM32H7/RGB_LVGL/Middlewares/LVGL/GUI/lvgl/src/misc\lv_area.h ****     LV_ALIGN_OUT_LEFT_TOP,
  70:H:/STM32H7/RGB_LVGL/Middlewares/LVGL/GUI/lvgl/src/misc\lv_area.h ****     LV_ALIGN_OUT_LEFT_MID,
  71:H:/STM32H7/RGB_LVGL/Middlewares/LVGL/GUI/lvgl/src/misc\lv_area.h ****     LV_ALIGN_OUT_LEFT_BOTTOM,
  72:H:/STM32H7/RGB_LVGL/Middlewares/LVGL/GUI/lvgl/src/misc\lv_area.h ****     LV_ALIGN_OUT_RIGHT_TOP,
  73:H:/STM32H7/RGB_LVGL/Middlewares/LVGL/GUI/lvgl/src/misc\lv_area.h ****     LV_ALIGN_OUT_RIGHT_MID,
ARM GAS  C:\Users\28576\AppData\Local\Temp\ccrhsjx7.s 			page 19


  74:H:/STM32H7/RGB_LVGL/Middlewares/LVGL/GUI/lvgl/src/misc\lv_area.h ****     LV_ALIGN_OUT_RIGHT_BOTTOM,
  75:H:/STM32H7/RGB_LVGL/Middlewares/LVGL/GUI/lvgl/src/misc\lv_area.h **** } lv_align_t;
  76:H:/STM32H7/RGB_LVGL/Middlewares/LVGL/GUI/lvgl/src/misc\lv_area.h **** 
  77:H:/STM32H7/RGB_LVGL/Middlewares/LVGL/GUI/lvgl/src/misc\lv_area.h **** typedef enum {
  78:H:/STM32H7/RGB_LVGL/Middlewares/LVGL/GUI/lvgl/src/misc\lv_area.h ****     LV_DIR_NONE     = 0x00,
  79:H:/STM32H7/RGB_LVGL/Middlewares/LVGL/GUI/lvgl/src/misc\lv_area.h ****     LV_DIR_LEFT     = (1 << 0),
  80:H:/STM32H7/RGB_LVGL/Middlewares/LVGL/GUI/lvgl/src/misc\lv_area.h ****     LV_DIR_RIGHT    = (1 << 1),
  81:H:/STM32H7/RGB_LVGL/Middlewares/LVGL/GUI/lvgl/src/misc\lv_area.h ****     LV_DIR_TOP      = (1 << 2),
  82:H:/STM32H7/RGB_LVGL/Middlewares/LVGL/GUI/lvgl/src/misc\lv_area.h ****     LV_DIR_BOTTOM   = (1 << 3),
  83:H:/STM32H7/RGB_LVGL/Middlewares/LVGL/GUI/lvgl/src/misc\lv_area.h ****     LV_DIR_HOR      = LV_DIR_LEFT | LV_DIR_RIGHT,
  84:H:/STM32H7/RGB_LVGL/Middlewares/LVGL/GUI/lvgl/src/misc\lv_area.h ****     LV_DIR_VER      = LV_DIR_TOP | LV_DIR_BOTTOM,
  85:H:/STM32H7/RGB_LVGL/Middlewares/LVGL/GUI/lvgl/src/misc\lv_area.h ****     LV_DIR_ALL      = LV_DIR_HOR | LV_DIR_VER,
  86:H:/STM32H7/RGB_LVGL/Middlewares/LVGL/GUI/lvgl/src/misc\lv_area.h **** } lv_dir_t;
  87:H:/STM32H7/RGB_LVGL/Middlewares/LVGL/GUI/lvgl/src/misc\lv_area.h **** 
  88:H:/STM32H7/RGB_LVGL/Middlewares/LVGL/GUI/lvgl/src/misc\lv_area.h **** /**********************
  89:H:/STM32H7/RGB_LVGL/Middlewares/LVGL/GUI/lvgl/src/misc\lv_area.h ****  * GLOBAL PROTOTYPES
  90:H:/STM32H7/RGB_LVGL/Middlewares/LVGL/GUI/lvgl/src/misc\lv_area.h ****  **********************/
  91:H:/STM32H7/RGB_LVGL/Middlewares/LVGL/GUI/lvgl/src/misc\lv_area.h **** 
  92:H:/STM32H7/RGB_LVGL/Middlewares/LVGL/GUI/lvgl/src/misc\lv_area.h **** /**
  93:H:/STM32H7/RGB_LVGL/Middlewares/LVGL/GUI/lvgl/src/misc\lv_area.h ****  * Initialize an area
  94:H:/STM32H7/RGB_LVGL/Middlewares/LVGL/GUI/lvgl/src/misc\lv_area.h ****  * @param area_p pointer to an area
  95:H:/STM32H7/RGB_LVGL/Middlewares/LVGL/GUI/lvgl/src/misc\lv_area.h ****  * @param x1 left coordinate of the area
  96:H:/STM32H7/RGB_LVGL/Middlewares/LVGL/GUI/lvgl/src/misc\lv_area.h ****  * @param y1 top coordinate of the area
  97:H:/STM32H7/RGB_LVGL/Middlewares/LVGL/GUI/lvgl/src/misc\lv_area.h ****  * @param x2 right coordinate of the area
  98:H:/STM32H7/RGB_LVGL/Middlewares/LVGL/GUI/lvgl/src/misc\lv_area.h ****  * @param y2 bottom coordinate of the area
  99:H:/STM32H7/RGB_LVGL/Middlewares/LVGL/GUI/lvgl/src/misc\lv_area.h ****  */
 100:H:/STM32H7/RGB_LVGL/Middlewares/LVGL/GUI/lvgl/src/misc\lv_area.h **** void lv_area_set(lv_area_t * area_p, int32_t x1, int32_t y1, int32_t x2, int32_t y2);
 101:H:/STM32H7/RGB_LVGL/Middlewares/LVGL/GUI/lvgl/src/misc\lv_area.h **** 
 102:H:/STM32H7/RGB_LVGL/Middlewares/LVGL/GUI/lvgl/src/misc\lv_area.h **** /**
 103:H:/STM32H7/RGB_LVGL/Middlewares/LVGL/GUI/lvgl/src/misc\lv_area.h ****  * Copy an area
 104:H:/STM32H7/RGB_LVGL/Middlewares/LVGL/GUI/lvgl/src/misc\lv_area.h ****  * @param dest pointer to the destination area
 105:H:/STM32H7/RGB_LVGL/Middlewares/LVGL/GUI/lvgl/src/misc\lv_area.h ****  * @param src pointer to the source area
 106:H:/STM32H7/RGB_LVGL/Middlewares/LVGL/GUI/lvgl/src/misc\lv_area.h ****  */
 107:H:/STM32H7/RGB_LVGL/Middlewares/LVGL/GUI/lvgl/src/misc\lv_area.h **** inline static void lv_area_copy(lv_area_t * dest, const lv_area_t * src)
 447              		.loc 3 107 20 view .LVU128
 448              	.LBB23:
 108:H:/STM32H7/RGB_LVGL/Middlewares/LVGL/GUI/lvgl/src/misc\lv_area.h **** {
 109:H:/STM32H7/RGB_LVGL/Middlewares/LVGL/GUI/lvgl/src/misc\lv_area.h ****     dest->x1 = src->x1;
 449              		.loc 3 109 5 view .LVU129
 450              		.loc 3 109 19 is_stmt 0 view .LVU130
 451 0042 6369     		ldr	r3, [r4, #20]
 452              		.loc 3 109 14 view .LVU131
 453 0044 2893     		str	r3, [sp, #160]
 110:H:/STM32H7/RGB_LVGL/Middlewares/LVGL/GUI/lvgl/src/misc\lv_area.h ****     dest->y1 = src->y1;
 454              		.loc 3 110 5 is_stmt 1 view .LVU132
 455              		.loc 3 110 19 is_stmt 0 view .LVU133
 456 0046 A369     		ldr	r3, [r4, #24]
 457              		.loc 3 110 14 view .LVU134
 458 0048 2993     		str	r3, [sp, #164]
 111:H:/STM32H7/RGB_LVGL/Middlewares/LVGL/GUI/lvgl/src/misc\lv_area.h ****     dest->x2 = src->x2;
 459              		.loc 3 111 5 is_stmt 1 view .LVU135
 460              		.loc 3 111 19 is_stmt 0 view .LVU136
 461 004a E369     		ldr	r3, [r4, #28]
 462              		.loc 3 111 14 view .LVU137
 463 004c 2A93     		str	r3, [sp, #168]
 112:H:/STM32H7/RGB_LVGL/Middlewares/LVGL/GUI/lvgl/src/misc\lv_area.h ****     dest->y2 = src->y2;
 464              		.loc 3 112 5 is_stmt 1 view .LVU138
ARM GAS  C:\Users\28576\AppData\Local\Temp\ccrhsjx7.s 			page 20


 465              		.loc 3 112 19 is_stmt 0 view .LVU139
 466 004e 236A     		ldr	r3, [r4, #32]
 467              		.loc 3 112 14 view .LVU140
 468 0050 2B93     		str	r3, [sp, #172]
 469              	.LVL53:
 470              		.loc 3 112 14 view .LVU141
 471              	.LBE23:
 472              	.LBE22:
 204:../../Middlewares/LVGL/GUI/lvgl/src/widgets/imagebutton/lv_imagebutton.c **** 
 473              		.loc 1 204 5 is_stmt 1 view .LVU142
 474 0052 3946     		mov	r1, r7
 475 0054 28A8     		add	r0, sp, #160
 476              	.LVL54:
 204:../../Middlewares/LVGL/GUI/lvgl/src/widgets/imagebutton/lv_imagebutton.c **** 
 477              		.loc 1 204 5 is_stmt 0 view .LVU143
 478 0056 FFF7FEFF 		bl	lv_area_increase
 479              	.LVL55:
 206:../../Middlewares/LVGL/GUI/lvgl/src/widgets/imagebutton/lv_imagebutton.c ****     lv_draw_image_dsc_init(&img_dsc);
 480              		.loc 1 206 5 is_stmt 1 view .LVU144
 207:../../Middlewares/LVGL/GUI/lvgl/src/widgets/imagebutton/lv_imagebutton.c ****     img_dsc.base.layer = layer;
 481              		.loc 1 207 5 view .LVU145
 482 005a 0DAF     		add	r7, sp, #52
 483              	.LVL56:
 207:../../Middlewares/LVGL/GUI/lvgl/src/widgets/imagebutton/lv_imagebutton.c ****     img_dsc.base.layer = layer;
 484              		.loc 1 207 5 is_stmt 0 view .LVU146
 485 005c 3846     		mov	r0, r7
 486 005e FFF7FEFF 		bl	lv_draw_image_dsc_init
 487              	.LVL57:
 208:../../Middlewares/LVGL/GUI/lvgl/src/widgets/imagebutton/lv_imagebutton.c ****     lv_obj_init_draw_image_dsc(obj, LV_PART_MAIN, &img_dsc);
 488              		.loc 1 208 5 is_stmt 1 view .LVU147
 208:../../Middlewares/LVGL/GUI/lvgl/src/widgets/imagebutton/lv_imagebutton.c ****     lv_obj_init_draw_image_dsc(obj, LV_PART_MAIN, &img_dsc);
 489              		.loc 1 208 24 is_stmt 0 view .LVU148
 490 0062 1196     		str	r6, [sp, #68]
 209:../../Middlewares/LVGL/GUI/lvgl/src/widgets/imagebutton/lv_imagebutton.c **** 
 491              		.loc 1 209 5 is_stmt 1 view .LVU149
 492 0064 3A46     		mov	r2, r7
 493 0066 0021     		movs	r1, #0
 494 0068 2046     		mov	r0, r4
 495 006a FFF7FEFF 		bl	lv_obj_init_draw_image_dsc
 496              	.LVL58:
 211:../../Middlewares/LVGL/GUI/lvgl/src/widgets/imagebutton/lv_imagebutton.c ****     int32_t left_w = 0;
 497              		.loc 1 211 5 view .LVU150
 212:../../Middlewares/LVGL/GUI/lvgl/src/widgets/imagebutton/lv_imagebutton.c ****     int32_t right_w = 0;
 498              		.loc 1 212 5 view .LVU151
 213:../../Middlewares/LVGL/GUI/lvgl/src/widgets/imagebutton/lv_imagebutton.c **** 
 499              		.loc 1 213 5 view .LVU152
 215:../../Middlewares/LVGL/GUI/lvgl/src/widgets/imagebutton/lv_imagebutton.c ****         left_w = src_info->header.w;
 500              		.loc 1 215 5 view .LVU153
 215:../../Middlewares/LVGL/GUI/lvgl/src/widgets/imagebutton/lv_imagebutton.c ****         left_w = src_info->header.w;
 501              		.loc 1 215 16 is_stmt 0 view .LVU154
 502 006e 04EB0513 		add	r3, r4, r5, lsl #4
 503 0072 D3F88C10 		ldr	r1, [r3, #140]
 215:../../Middlewares/LVGL/GUI/lvgl/src/widgets/imagebutton/lv_imagebutton.c ****         left_w = src_info->header.w;
 504              		.loc 1 215 7 view .LVU155
 505 0076 0029     		cmp	r1, #0
 506 0078 49D0     		beq	.L46
 216:../../Middlewares/LVGL/GUI/lvgl/src/widgets/imagebutton/lv_imagebutton.c ****         coords_part.x1 = coords.x1;
ARM GAS  C:\Users\28576\AppData\Local\Temp\ccrhsjx7.s 			page 21


 507              		.loc 1 216 9 is_stmt 1 view .LVU156
 216:../../Middlewares/LVGL/GUI/lvgl/src/widgets/imagebutton/lv_imagebutton.c ****         coords_part.x1 = coords.x1;
 508              		.loc 1 216 34 is_stmt 0 view .LVU157
 509 007a 1846     		mov	r0, r3
 510 007c B3F89470 		ldrh	r7, [r3, #148]
 511              	.LVL59:
 217:../../Middlewares/LVGL/GUI/lvgl/src/widgets/imagebutton/lv_imagebutton.c ****         coords_part.y1 = coords.y1;
 512              		.loc 1 217 9 is_stmt 1 view .LVU158
 217:../../Middlewares/LVGL/GUI/lvgl/src/widgets/imagebutton/lv_imagebutton.c ****         coords_part.y1 = coords.y1;
 513              		.loc 1 217 32 is_stmt 0 view .LVU159
 514 0080 289A     		ldr	r2, [sp, #160]
 217:../../Middlewares/LVGL/GUI/lvgl/src/widgets/imagebutton/lv_imagebutton.c ****         coords_part.y1 = coords.y1;
 515              		.loc 1 217 24 view .LVU160
 516 0082 0992     		str	r2, [sp, #36]
 218:../../Middlewares/LVGL/GUI/lvgl/src/widgets/imagebutton/lv_imagebutton.c ****         coords_part.x2 = coords.x1 + src_info->header.w - 1;
 517              		.loc 1 218 9 is_stmt 1 view .LVU161
 218:../../Middlewares/LVGL/GUI/lvgl/src/widgets/imagebutton/lv_imagebutton.c ****         coords_part.x2 = coords.x1 + src_info->header.w - 1;
 518              		.loc 1 218 32 is_stmt 0 view .LVU162
 519 0084 299B     		ldr	r3, [sp, #164]
 218:../../Middlewares/LVGL/GUI/lvgl/src/widgets/imagebutton/lv_imagebutton.c ****         coords_part.x2 = coords.x1 + src_info->header.w - 1;
 520              		.loc 1 218 24 view .LVU163
 521 0086 0A93     		str	r3, [sp, #40]
 219:../../Middlewares/LVGL/GUI/lvgl/src/widgets/imagebutton/lv_imagebutton.c ****         coords_part.y2 = coords.y1 + src_info->header.h - 1;
 522              		.loc 1 219 9 is_stmt 1 view .LVU164
 219:../../Middlewares/LVGL/GUI/lvgl/src/widgets/imagebutton/lv_imagebutton.c ****         coords_part.y2 = coords.y1 + src_info->header.h - 1;
 523              		.loc 1 219 36 is_stmt 0 view .LVU165
 524 0088 3A44     		add	r2, r2, r7
 219:../../Middlewares/LVGL/GUI/lvgl/src/widgets/imagebutton/lv_imagebutton.c ****         coords_part.y2 = coords.y1 + src_info->header.h - 1;
 525              		.loc 1 219 57 view .LVU166
 526 008a 013A     		subs	r2, r2, #1
 219:../../Middlewares/LVGL/GUI/lvgl/src/widgets/imagebutton/lv_imagebutton.c ****         coords_part.y2 = coords.y1 + src_info->header.h - 1;
 527              		.loc 1 219 24 view .LVU167
 528 008c 0B92     		str	r2, [sp, #44]
 220:../../Middlewares/LVGL/GUI/lvgl/src/widgets/imagebutton/lv_imagebutton.c ****         img_dsc.src = src_info->img_src;
 529              		.loc 1 220 9 is_stmt 1 view .LVU168
 220:../../Middlewares/LVGL/GUI/lvgl/src/widgets/imagebutton/lv_imagebutton.c ****         img_dsc.src = src_info->img_src;
 530              		.loc 1 220 54 is_stmt 0 view .LVU169
 531 008e B0F89620 		ldrh	r2, [r0, #150]
 220:../../Middlewares/LVGL/GUI/lvgl/src/widgets/imagebutton/lv_imagebutton.c ****         img_dsc.src = src_info->img_src;
 532              		.loc 1 220 36 view .LVU170
 533 0092 1344     		add	r3, r3, r2
 220:../../Middlewares/LVGL/GUI/lvgl/src/widgets/imagebutton/lv_imagebutton.c ****         img_dsc.src = src_info->img_src;
 534              		.loc 1 220 57 view .LVU171
 535 0094 013B     		subs	r3, r3, #1
 220:../../Middlewares/LVGL/GUI/lvgl/src/widgets/imagebutton/lv_imagebutton.c ****         img_dsc.src = src_info->img_src;
 536              		.loc 1 220 24 view .LVU172
 537 0096 0C93     		str	r3, [sp, #48]
 221:../../Middlewares/LVGL/GUI/lvgl/src/widgets/imagebutton/lv_imagebutton.c ****         lv_draw_image(layer, &img_dsc, &coords_part);
 538              		.loc 1 221 9 is_stmt 1 view .LVU173
 221:../../Middlewares/LVGL/GUI/lvgl/src/widgets/imagebutton/lv_imagebutton.c ****         lv_draw_image(layer, &img_dsc, &coords_part);
 539              		.loc 1 221 21 is_stmt 0 view .LVU174
 540 0098 1491     		str	r1, [sp, #80]
 222:../../Middlewares/LVGL/GUI/lvgl/src/widgets/imagebutton/lv_imagebutton.c ****     }
 541              		.loc 1 222 9 is_stmt 1 view .LVU175
 542 009a 09AA     		add	r2, sp, #36
 543 009c 0DA9     		add	r1, sp, #52
 544 009e 3046     		mov	r0, r6
ARM GAS  C:\Users\28576\AppData\Local\Temp\ccrhsjx7.s 			page 22


 545 00a0 FFF7FEFF 		bl	lv_draw_image
 546              	.LVL60:
 547              	.L42:
 225:../../Middlewares/LVGL/GUI/lvgl/src/widgets/imagebutton/lv_imagebutton.c ****     if(src_info->img_src) {
 548              		.loc 1 225 5 view .LVU176
 226:../../Middlewares/LVGL/GUI/lvgl/src/widgets/imagebutton/lv_imagebutton.c ****         right_w = src_info->header.w;
 549              		.loc 1 226 5 view .LVU177
 226:../../Middlewares/LVGL/GUI/lvgl/src/widgets/imagebutton/lv_imagebutton.c ****         right_w = src_info->header.w;
 550              		.loc 1 226 16 is_stmt 0 view .LVU178
 551 00a4 04EB0513 		add	r3, r4, r5, lsl #4
 552 00a8 D3F8EC20 		ldr	r2, [r3, #236]
 226:../../Middlewares/LVGL/GUI/lvgl/src/widgets/imagebutton/lv_imagebutton.c ****         right_w = src_info->header.w;
 553              		.loc 1 226 7 view .LVU179
 554 00ac 002A     		cmp	r2, #0
 555 00ae 30D0     		beq	.L47
 227:../../Middlewares/LVGL/GUI/lvgl/src/widgets/imagebutton/lv_imagebutton.c ****         coords_part.x1 = coords.x2 - src_info->header.w + 1;
 556              		.loc 1 227 9 is_stmt 1 view .LVU180
 227:../../Middlewares/LVGL/GUI/lvgl/src/widgets/imagebutton/lv_imagebutton.c ****         coords_part.x1 = coords.x2 - src_info->header.w + 1;
 557              		.loc 1 227 35 is_stmt 0 view .LVU181
 558 00b0 1946     		mov	r1, r3
 559 00b2 B3F8F430 		ldrh	r3, [r3, #244]
 560 00b6 9846     		mov	r8, r3
 561              	.LVL61:
 228:../../Middlewares/LVGL/GUI/lvgl/src/widgets/imagebutton/lv_imagebutton.c ****         coords_part.y1 = coords.y1;
 562              		.loc 1 228 9 is_stmt 1 view .LVU182
 228:../../Middlewares/LVGL/GUI/lvgl/src/widgets/imagebutton/lv_imagebutton.c ****         coords_part.y1 = coords.y1;
 563              		.loc 1 228 32 is_stmt 0 view .LVU183
 564 00b8 2A98     		ldr	r0, [sp, #168]
 228:../../Middlewares/LVGL/GUI/lvgl/src/widgets/imagebutton/lv_imagebutton.c ****         coords_part.y1 = coords.y1;
 565              		.loc 1 228 36 view .LVU184
 566 00ba C31A     		subs	r3, r0, r3
 567              	.LVL62:
 228:../../Middlewares/LVGL/GUI/lvgl/src/widgets/imagebutton/lv_imagebutton.c ****         coords_part.y1 = coords.y1;
 568              		.loc 1 228 57 view .LVU185
 569 00bc 0133     		adds	r3, r3, #1
 228:../../Middlewares/LVGL/GUI/lvgl/src/widgets/imagebutton/lv_imagebutton.c ****         coords_part.y1 = coords.y1;
 570              		.loc 1 228 24 view .LVU186
 571 00be 0993     		str	r3, [sp, #36]
 229:../../Middlewares/LVGL/GUI/lvgl/src/widgets/imagebutton/lv_imagebutton.c ****         coords_part.x2 = coords.x2;
 572              		.loc 1 229 9 is_stmt 1 view .LVU187
 229:../../Middlewares/LVGL/GUI/lvgl/src/widgets/imagebutton/lv_imagebutton.c ****         coords_part.x2 = coords.x2;
 573              		.loc 1 229 32 is_stmt 0 view .LVU188
 574 00c0 299B     		ldr	r3, [sp, #164]
 229:../../Middlewares/LVGL/GUI/lvgl/src/widgets/imagebutton/lv_imagebutton.c ****         coords_part.x2 = coords.x2;
 575              		.loc 1 229 24 view .LVU189
 576 00c2 0A93     		str	r3, [sp, #40]
 230:../../Middlewares/LVGL/GUI/lvgl/src/widgets/imagebutton/lv_imagebutton.c ****         coords_part.y2 = coords.y1 + src_info->header.h - 1;
 577              		.loc 1 230 9 is_stmt 1 view .LVU190
 230:../../Middlewares/LVGL/GUI/lvgl/src/widgets/imagebutton/lv_imagebutton.c ****         coords_part.y2 = coords.y1 + src_info->header.h - 1;
 578              		.loc 1 230 24 is_stmt 0 view .LVU191
 579 00c4 0B90     		str	r0, [sp, #44]
 231:../../Middlewares/LVGL/GUI/lvgl/src/widgets/imagebutton/lv_imagebutton.c ****         img_dsc.src = src_info->img_src;
 580              		.loc 1 231 9 is_stmt 1 view .LVU192
 231:../../Middlewares/LVGL/GUI/lvgl/src/widgets/imagebutton/lv_imagebutton.c ****         img_dsc.src = src_info->img_src;
 581              		.loc 1 231 54 is_stmt 0 view .LVU193
 582 00c6 B1F8F610 		ldrh	r1, [r1, #246]
 231:../../Middlewares/LVGL/GUI/lvgl/src/widgets/imagebutton/lv_imagebutton.c ****         img_dsc.src = src_info->img_src;
ARM GAS  C:\Users\28576\AppData\Local\Temp\ccrhsjx7.s 			page 23


 583              		.loc 1 231 36 view .LVU194
 584 00ca 0B44     		add	r3, r3, r1
 231:../../Middlewares/LVGL/GUI/lvgl/src/widgets/imagebutton/lv_imagebutton.c ****         img_dsc.src = src_info->img_src;
 585              		.loc 1 231 57 view .LVU195
 586 00cc 013B     		subs	r3, r3, #1
 231:../../Middlewares/LVGL/GUI/lvgl/src/widgets/imagebutton/lv_imagebutton.c ****         img_dsc.src = src_info->img_src;
 587              		.loc 1 231 24 view .LVU196
 588 00ce 0C93     		str	r3, [sp, #48]
 232:../../Middlewares/LVGL/GUI/lvgl/src/widgets/imagebutton/lv_imagebutton.c ****         lv_draw_image(layer, &img_dsc, &coords_part);
 589              		.loc 1 232 9 is_stmt 1 view .LVU197
 232:../../Middlewares/LVGL/GUI/lvgl/src/widgets/imagebutton/lv_imagebutton.c ****         lv_draw_image(layer, &img_dsc, &coords_part);
 590              		.loc 1 232 21 is_stmt 0 view .LVU198
 591 00d0 1492     		str	r2, [sp, #80]
 233:../../Middlewares/LVGL/GUI/lvgl/src/widgets/imagebutton/lv_imagebutton.c ****     }
 592              		.loc 1 233 9 is_stmt 1 view .LVU199
 593 00d2 09AA     		add	r2, sp, #36
 594 00d4 0DA9     		add	r1, sp, #52
 595 00d6 3046     		mov	r0, r6
 596 00d8 FFF7FEFF 		bl	lv_draw_image
 597              	.LVL63:
 598              	.L43:
 236:../../Middlewares/LVGL/GUI/lvgl/src/widgets/imagebutton/lv_imagebutton.c ****     if(src_info->img_src) {
 599              		.loc 1 236 5 view .LVU200
 237:../../Middlewares/LVGL/GUI/lvgl/src/widgets/imagebutton/lv_imagebutton.c ****         coords_part.x1 = coords.x1 + left_w;
 600              		.loc 1 237 5 view .LVU201
 237:../../Middlewares/LVGL/GUI/lvgl/src/widgets/imagebutton/lv_imagebutton.c ****         coords_part.x1 = coords.x1 + left_w;
 601              		.loc 1 237 16 is_stmt 0 view .LVU202
 602 00dc 04EB0513 		add	r3, r4, r5, lsl #4
 603 00e0 DB6A     		ldr	r3, [r3, #44]
 237:../../Middlewares/LVGL/GUI/lvgl/src/widgets/imagebutton/lv_imagebutton.c ****         coords_part.x1 = coords.x1 + left_w;
 604              		.loc 1 237 7 view .LVU203
 605 00e2 8BB1     		cbz	r3, .L41
 606              	.LBB24:
 238:../../Middlewares/LVGL/GUI/lvgl/src/widgets/imagebutton/lv_imagebutton.c ****         coords_part.x2 = coords.x2 - right_w;
 607              		.loc 1 238 9 is_stmt 1 view .LVU204
 238:../../Middlewares/LVGL/GUI/lvgl/src/widgets/imagebutton/lv_imagebutton.c ****         coords_part.x2 = coords.x2 - right_w;
 608              		.loc 1 238 32 is_stmt 0 view .LVU205
 609 00e4 289B     		ldr	r3, [sp, #160]
 238:../../Middlewares/LVGL/GUI/lvgl/src/widgets/imagebutton/lv_imagebutton.c ****         coords_part.x2 = coords.x2 - right_w;
 610              		.loc 1 238 36 view .LVU206
 611 00e6 3B44     		add	r3, r3, r7
 238:../../Middlewares/LVGL/GUI/lvgl/src/widgets/imagebutton/lv_imagebutton.c ****         coords_part.x2 = coords.x2 - right_w;
 612              		.loc 1 238 24 view .LVU207
 613 00e8 0993     		str	r3, [sp, #36]
 239:../../Middlewares/LVGL/GUI/lvgl/src/widgets/imagebutton/lv_imagebutton.c ****         coords_part.y1 = coords.y1;
 614              		.loc 1 239 9 is_stmt 1 view .LVU208
 239:../../Middlewares/LVGL/GUI/lvgl/src/widgets/imagebutton/lv_imagebutton.c ****         coords_part.y1 = coords.y1;
 615              		.loc 1 239 32 is_stmt 0 view .LVU209
 616 00ea 2A9B     		ldr	r3, [sp, #168]
 239:../../Middlewares/LVGL/GUI/lvgl/src/widgets/imagebutton/lv_imagebutton.c ****         coords_part.y1 = coords.y1;
 617              		.loc 1 239 36 view .LVU210
 618 00ec 4246     		mov	r2, r8
 619 00ee 9B1A     		subs	r3, r3, r2
 239:../../Middlewares/LVGL/GUI/lvgl/src/widgets/imagebutton/lv_imagebutton.c ****         coords_part.y1 = coords.y1;
 620              		.loc 1 239 24 view .LVU211
 621 00f0 0B93     		str	r3, [sp, #44]
 240:../../Middlewares/LVGL/GUI/lvgl/src/widgets/imagebutton/lv_imagebutton.c ****         coords_part.y2 = coords.y2;
ARM GAS  C:\Users\28576\AppData\Local\Temp\ccrhsjx7.s 			page 24


 622              		.loc 1 240 9 is_stmt 1 view .LVU212
 240:../../Middlewares/LVGL/GUI/lvgl/src/widgets/imagebutton/lv_imagebutton.c ****         coords_part.y2 = coords.y2;
 623              		.loc 1 240 32 is_stmt 0 view .LVU213
 624 00f2 299B     		ldr	r3, [sp, #164]
 240:../../Middlewares/LVGL/GUI/lvgl/src/widgets/imagebutton/lv_imagebutton.c ****         coords_part.y2 = coords.y2;
 625              		.loc 1 240 24 view .LVU214
 626 00f4 0A93     		str	r3, [sp, #40]
 241:../../Middlewares/LVGL/GUI/lvgl/src/widgets/imagebutton/lv_imagebutton.c **** 
 627              		.loc 1 241 9 is_stmt 1 view .LVU215
 241:../../Middlewares/LVGL/GUI/lvgl/src/widgets/imagebutton/lv_imagebutton.c **** 
 628              		.loc 1 241 32 is_stmt 0 view .LVU216
 629 00f6 2B9B     		ldr	r3, [sp, #172]
 241:../../Middlewares/LVGL/GUI/lvgl/src/widgets/imagebutton/lv_imagebutton.c **** 
 630              		.loc 1 241 24 view .LVU217
 631 00f8 0C93     		str	r3, [sp, #48]
 243:../../Middlewares/LVGL/GUI/lvgl/src/widgets/imagebutton/lv_imagebutton.c ****         if(lv_area_intersect(&clip_area_center, &coords_part, &layer->_clip_area)) {
 632              		.loc 1 243 9 is_stmt 1 view .LVU218
 244:../../Middlewares/LVGL/GUI/lvgl/src/widgets/imagebutton/lv_imagebutton.c ****             lv_area_t clip_area_ori = layer->_clip_area;
 633              		.loc 1 244 9 view .LVU219
 244:../../Middlewares/LVGL/GUI/lvgl/src/widgets/imagebutton/lv_imagebutton.c ****             lv_area_t clip_area_ori = layer->_clip_area;
 634              		.loc 1 244 12 is_stmt 0 view .LVU220
 635 00fa 06F11802 		add	r2, r6, #24
 636 00fe 09A9     		add	r1, sp, #36
 637 0100 01A8     		add	r0, sp, #4
 638 0102 FFF7FEFF 		bl	lv_area_intersect
 639              	.LVL64:
 244:../../Middlewares/LVGL/GUI/lvgl/src/widgets/imagebutton/lv_imagebutton.c ****             lv_area_t clip_area_ori = layer->_clip_area;
 640              		.loc 1 244 11 discriminator 1 view .LVU221
 641 0106 30B9     		cbnz	r0, .L49
 642              	.LVL65:
 643              	.L41:
 244:../../Middlewares/LVGL/GUI/lvgl/src/widgets/imagebutton/lv_imagebutton.c ****             lv_area_t clip_area_ori = layer->_clip_area;
 644              		.loc 1 244 11 discriminator 1 view .LVU222
 645              	.LBE24:
 254:../../Middlewares/LVGL/GUI/lvgl/src/widgets/imagebutton/lv_imagebutton.c **** 
 646              		.loc 1 254 1 view .LVU223
 647 0108 2CB0     		add	sp, sp, #176
 648              	.LCFI6:
 649              		.cfi_remember_state
 650              		.cfi_def_cfa_offset 24
 651              		@ sp needed
 652 010a BDE8F081 		pop	{r4, r5, r6, r7, r8, pc}
 653              	.LVL66:
 654              	.L46:
 655              	.LCFI7:
 656              		.cfi_restore_state
 212:../../Middlewares/LVGL/GUI/lvgl/src/widgets/imagebutton/lv_imagebutton.c ****     int32_t right_w = 0;
 657              		.loc 1 212 13 view .LVU224
 658 010e 0F46     		mov	r7, r1
 659 0110 C8E7     		b	.L42
 660              	.LVL67:
 661              	.L47:
 213:../../Middlewares/LVGL/GUI/lvgl/src/widgets/imagebutton/lv_imagebutton.c **** 
 662              		.loc 1 213 13 view .LVU225
 663 0112 9046     		mov	r8, r2
 664 0114 E2E7     		b	.L43
 665              	.LVL68:
ARM GAS  C:\Users\28576\AppData\Local\Temp\ccrhsjx7.s 			page 25


 666              	.L49:
 667              	.LBB26:
 668              	.LBB25:
 245:../../Middlewares/LVGL/GUI/lvgl/src/widgets/imagebutton/lv_imagebutton.c ****             layer->_clip_area = clip_area_center;
 669              		.loc 1 245 13 is_stmt 1 view .LVU226
 245:../../Middlewares/LVGL/GUI/lvgl/src/widgets/imagebutton/lv_imagebutton.c ****             layer->_clip_area = clip_area_center;
 670              		.loc 1 245 23 is_stmt 0 view .LVU227
 671 0116 06F11807 		add	r7, r6, #24
 672              	.LVL69:
 245:../../Middlewares/LVGL/GUI/lvgl/src/widgets/imagebutton/lv_imagebutton.c ****             layer->_clip_area = clip_area_center;
 673              		.loc 1 245 23 view .LVU228
 674 011a 97E80F00 		ldm	r7, {r0, r1, r2, r3}
 675 011e 0DF1140C 		add	ip, sp, #20
 676 0122 8CE80F00 		stm	ip, {r0, r1, r2, r3}
 246:../../Middlewares/LVGL/GUI/lvgl/src/widgets/imagebutton/lv_imagebutton.c ****             img_dsc.src = src_info->img_src;
 677              		.loc 1 246 13 is_stmt 1 view .LVU229
 246:../../Middlewares/LVGL/GUI/lvgl/src/widgets/imagebutton/lv_imagebutton.c ****             img_dsc.src = src_info->img_src;
 678              		.loc 1 246 31 is_stmt 0 view .LVU230
 679 0126 01AB     		add	r3, sp, #4
 680 0128 0FCB     		ldm	r3, {r0, r1, r2, r3}
 681 012a 87E80F00 		stm	r7, {r0, r1, r2, r3}
 247:../../Middlewares/LVGL/GUI/lvgl/src/widgets/imagebutton/lv_imagebutton.c ****             img_dsc.tile = 1;
 682              		.loc 1 247 13 is_stmt 1 view .LVU231
 247:../../Middlewares/LVGL/GUI/lvgl/src/widgets/imagebutton/lv_imagebutton.c ****             img_dsc.tile = 1;
 683              		.loc 1 247 35 is_stmt 0 view .LVU232
 684 012e 04EB0514 		add	r4, r4, r5, lsl #4
 685              	.LVL70:
 247:../../Middlewares/LVGL/GUI/lvgl/src/widgets/imagebutton/lv_imagebutton.c ****             img_dsc.tile = 1;
 686              		.loc 1 247 35 view .LVU233
 687 0132 E36A     		ldr	r3, [r4, #44]
 247:../../Middlewares/LVGL/GUI/lvgl/src/widgets/imagebutton/lv_imagebutton.c ****             img_dsc.tile = 1;
 688              		.loc 1 247 25 view .LVU234
 689 0134 1493     		str	r3, [sp, #80]
 248:../../Middlewares/LVGL/GUI/lvgl/src/widgets/imagebutton/lv_imagebutton.c ****             lv_draw_image(layer, &img_dsc, &coords_part);
 690              		.loc 1 248 13 is_stmt 1 view .LVU235
 248:../../Middlewares/LVGL/GUI/lvgl/src/widgets/imagebutton/lv_imagebutton.c ****             lv_draw_image(layer, &img_dsc, &coords_part);
 691              		.loc 1 248 26 is_stmt 0 view .LVU236
 692 0136 9DF88530 		ldrb	r3, [sp, #133]	@ zero_extendqisi2
 693 013a 43F02003 		orr	r3, r3, #32
 694 013e 8DF88530 		strb	r3, [sp, #133]
 249:../../Middlewares/LVGL/GUI/lvgl/src/widgets/imagebutton/lv_imagebutton.c ****             layer->_clip_area = clip_area_ori;
 695              		.loc 1 249 13 is_stmt 1 view .LVU237
 696 0142 09AA     		add	r2, sp, #36
 697 0144 0DA9     		add	r1, sp, #52
 698 0146 3046     		mov	r0, r6
 699 0148 FFF7FEFF 		bl	lv_draw_image
 700              	.LVL71:
 250:../../Middlewares/LVGL/GUI/lvgl/src/widgets/imagebutton/lv_imagebutton.c ****         }
 701              		.loc 1 250 13 view .LVU238
 250:../../Middlewares/LVGL/GUI/lvgl/src/widgets/imagebutton/lv_imagebutton.c ****         }
 702              		.loc 1 250 31 is_stmt 0 view .LVU239
 703 014c 05AB     		add	r3, sp, #20
 704 014e 0FCB     		ldm	r3, {r0, r1, r2, r3}
 705 0150 87E80F00 		stm	r7, {r0, r1, r2, r3}
 706              	.LBE25:
 707              	.LBE26:
 254:../../Middlewares/LVGL/GUI/lvgl/src/widgets/imagebutton/lv_imagebutton.c **** 
ARM GAS  C:\Users\28576\AppData\Local\Temp\ccrhsjx7.s 			page 26


 708              		.loc 1 254 1 view .LVU240
 709 0154 D8E7     		b	.L41
 710              		.cfi_endproc
 711              	.LFE195:
 713              		.section	.text.lv_imagebutton_event,"ax",%progbits
 714              		.align	1
 715              		.syntax unified
 716              		.thumb
 717              		.thumb_func
 719              	lv_imagebutton_event:
 720              	.LVL72:
 721              	.LFB194:
 158:../../Middlewares/LVGL/GUI/lvgl/src/widgets/imagebutton/lv_imagebutton.c ****     LV_UNUSED(class_p);
 722              		.loc 1 158 1 is_stmt 1 view -0
 723              		.cfi_startproc
 724              		@ args = 0, pretend = 0, frame = 0
 725              		@ frame_needed = 0, uses_anonymous_args = 0
 158:../../Middlewares/LVGL/GUI/lvgl/src/widgets/imagebutton/lv_imagebutton.c ****     LV_UNUSED(class_p);
 726              		.loc 1 158 1 is_stmt 0 view .LVU242
 727 0000 70B5     		push	{r4, r5, r6, lr}
 728              	.LCFI8:
 729              		.cfi_def_cfa_offset 16
 730              		.cfi_offset 4, -16
 731              		.cfi_offset 5, -12
 732              		.cfi_offset 6, -8
 733              		.cfi_offset 14, -4
 734 0002 0D46     		mov	r5, r1
 159:../../Middlewares/LVGL/GUI/lvgl/src/widgets/imagebutton/lv_imagebutton.c **** 
 735              		.loc 1 159 5 is_stmt 1 view .LVU243
 161:../../Middlewares/LVGL/GUI/lvgl/src/widgets/imagebutton/lv_imagebutton.c ****     if(res != LV_RESULT_OK) return;
 736              		.loc 1 161 5 view .LVU244
 161:../../Middlewares/LVGL/GUI/lvgl/src/widgets/imagebutton/lv_imagebutton.c ****     if(res != LV_RESULT_OK) return;
 737              		.loc 1 161 23 is_stmt 0 view .LVU245
 738 0004 2748     		ldr	r0, .L60
 739              	.LVL73:
 161:../../Middlewares/LVGL/GUI/lvgl/src/widgets/imagebutton/lv_imagebutton.c ****     if(res != LV_RESULT_OK) return;
 740              		.loc 1 161 23 view .LVU246
 741 0006 FFF7FEFF 		bl	lv_obj_event_base
 742              	.LVL74:
 162:../../Middlewares/LVGL/GUI/lvgl/src/widgets/imagebutton/lv_imagebutton.c **** 
 743              		.loc 1 162 5 is_stmt 1 view .LVU247
 162:../../Middlewares/LVGL/GUI/lvgl/src/widgets/imagebutton/lv_imagebutton.c **** 
 744              		.loc 1 162 7 is_stmt 0 view .LVU248
 745 000a 0128     		cmp	r0, #1
 746 000c 00D0     		beq	.L57
 747              	.LVL75:
 748              	.L50:
 186:../../Middlewares/LVGL/GUI/lvgl/src/widgets/imagebutton/lv_imagebutton.c **** 
 749              		.loc 1 186 1 view .LVU249
 750 000e 70BD     		pop	{r4, r5, r6, pc}
 751              	.LVL76:
 752              	.L57:
 164:../../Middlewares/LVGL/GUI/lvgl/src/widgets/imagebutton/lv_imagebutton.c ****     lv_obj_t * obj = lv_event_get_current_target(e);
 753              		.loc 1 164 5 is_stmt 1 view .LVU250
 164:../../Middlewares/LVGL/GUI/lvgl/src/widgets/imagebutton/lv_imagebutton.c ****     lv_obj_t * obj = lv_event_get_current_target(e);
 754              		.loc 1 164 28 is_stmt 0 view .LVU251
 755 0010 2846     		mov	r0, r5
ARM GAS  C:\Users\28576\AppData\Local\Temp\ccrhsjx7.s 			page 27


 756              	.LVL77:
 164:../../Middlewares/LVGL/GUI/lvgl/src/widgets/imagebutton/lv_imagebutton.c ****     lv_obj_t * obj = lv_event_get_current_target(e);
 757              		.loc 1 164 28 view .LVU252
 758 0012 FFF7FEFF 		bl	lv_event_get_code
 759              	.LVL78:
 760 0016 0446     		mov	r4, r0
 761              	.LVL79:
 165:../../Middlewares/LVGL/GUI/lvgl/src/widgets/imagebutton/lv_imagebutton.c ****     if(code == LV_EVENT_PRESSED || code == LV_EVENT_RELEASED || code == LV_EVENT_PRESS_LOST) {
 762              		.loc 1 165 5 is_stmt 1 view .LVU253
 165:../../Middlewares/LVGL/GUI/lvgl/src/widgets/imagebutton/lv_imagebutton.c ****     if(code == LV_EVENT_PRESSED || code == LV_EVENT_RELEASED || code == LV_EVENT_PRESS_LOST) {
 763              		.loc 1 165 22 is_stmt 0 view .LVU254
 764 0018 2846     		mov	r0, r5
 765              	.LVL80:
 165:../../Middlewares/LVGL/GUI/lvgl/src/widgets/imagebutton/lv_imagebutton.c ****     if(code == LV_EVENT_PRESSED || code == LV_EVENT_RELEASED || code == LV_EVENT_PRESS_LOST) {
 766              		.loc 1 165 22 view .LVU255
 767 001a FFF7FEFF 		bl	lv_event_get_current_target
 768              	.LVL81:
 769 001e 0646     		mov	r6, r0
 770              	.LVL82:
 166:../../Middlewares/LVGL/GUI/lvgl/src/widgets/imagebutton/lv_imagebutton.c ****         refr_image(obj);
 771              		.loc 1 166 5 is_stmt 1 view .LVU256
 166:../../Middlewares/LVGL/GUI/lvgl/src/widgets/imagebutton/lv_imagebutton.c ****         refr_image(obj);
 772              		.loc 1 166 7 is_stmt 0 view .LVU257
 773 0020 0B2C     		cmp	r4, #11
 774 0022 18BF     		it	ne
 775 0024 012C     		cmpne	r4, #1
 776 0026 2CD0     		beq	.L52
 166:../../Middlewares/LVGL/GUI/lvgl/src/widgets/imagebutton/lv_imagebutton.c ****         refr_image(obj);
 777              		.loc 1 166 62 discriminator 1 view .LVU258
 778 0028 032C     		cmp	r4, #3
 779 002a 2AD0     		beq	.L52
 169:../../Middlewares/LVGL/GUI/lvgl/src/widgets/imagebutton/lv_imagebutton.c ****         draw_main(e);
 780              		.loc 1 169 10 is_stmt 1 view .LVU259
 169:../../Middlewares/LVGL/GUI/lvgl/src/widgets/imagebutton/lv_imagebutton.c ****         draw_main(e);
 781              		.loc 1 169 12 is_stmt 0 view .LVU260
 782 002c 1D2C     		cmp	r4, #29
 783 002e 2CD0     		beq	.L58
 172:../../Middlewares/LVGL/GUI/lvgl/src/widgets/imagebutton/lv_imagebutton.c ****         lv_cover_check_info_t * info = lv_event_get_param(e);
 784              		.loc 1 172 10 is_stmt 1 view .LVU261
 172:../../Middlewares/LVGL/GUI/lvgl/src/widgets/imagebutton/lv_imagebutton.c ****         lv_cover_check_info_t * info = lv_event_get_param(e);
 785              		.loc 1 172 12 is_stmt 0 view .LVU262
 786 0030 1A2C     		cmp	r4, #26
 787 0032 2ED0     		beq	.L59
 176:../../Middlewares/LVGL/GUI/lvgl/src/widgets/imagebutton/lv_imagebutton.c ****         lv_point_t * p = lv_event_get_self_size_info(e);
 788              		.loc 1 176 10 is_stmt 1 view .LVU263
 176:../../Middlewares/LVGL/GUI/lvgl/src/widgets/imagebutton/lv_imagebutton.c ****         lv_point_t * p = lv_event_get_self_size_info(e);
 789              		.loc 1 176 12 is_stmt 0 view .LVU264
 790 0034 342C     		cmp	r4, #52
 791 0036 EAD1     		bne	.L50
 792              	.LBB27:
 177:../../Middlewares/LVGL/GUI/lvgl/src/widgets/imagebutton/lv_imagebutton.c ****         lv_imagebutton_t * imagebutton = (lv_imagebutton_t *)obj;
 793              		.loc 1 177 9 is_stmt 1 view .LVU265
 177:../../Middlewares/LVGL/GUI/lvgl/src/widgets/imagebutton/lv_imagebutton.c ****         lv_imagebutton_t * imagebutton = (lv_imagebutton_t *)obj;
 794              		.loc 1 177 26 is_stmt 0 view .LVU266
 795 0038 2846     		mov	r0, r5
 796              	.LVL83:
 177:../../Middlewares/LVGL/GUI/lvgl/src/widgets/imagebutton/lv_imagebutton.c ****         lv_imagebutton_t * imagebutton = (lv_imagebutton_t *)obj;
ARM GAS  C:\Users\28576\AppData\Local\Temp\ccrhsjx7.s 			page 28


 797              		.loc 1 177 26 view .LVU267
 798 003a FFF7FEFF 		bl	lv_event_get_self_size_info
 799              	.LVL84:
 800 003e 0546     		mov	r5, r0
 801              	.LVL85:
 178:../../Middlewares/LVGL/GUI/lvgl/src/widgets/imagebutton/lv_imagebutton.c ****         lv_imagebutton_state_t state  = suggest_state(obj, get_state(obj));
 802              		.loc 1 178 9 is_stmt 1 view .LVU268
 179:../../Middlewares/LVGL/GUI/lvgl/src/widgets/imagebutton/lv_imagebutton.c ****         if(imagebutton->src_left[state].img_src == NULL &&
 803              		.loc 1 179 9 view .LVU269
 179:../../Middlewares/LVGL/GUI/lvgl/src/widgets/imagebutton/lv_imagebutton.c ****         if(imagebutton->src_left[state].img_src == NULL &&
 804              		.loc 1 179 41 is_stmt 0 view .LVU270
 805 0040 3046     		mov	r0, r6
 806              	.LVL86:
 179:../../Middlewares/LVGL/GUI/lvgl/src/widgets/imagebutton/lv_imagebutton.c ****         if(imagebutton->src_left[state].img_src == NULL &&
 807              		.loc 1 179 41 view .LVU271
 808 0042 FFF7FEFF 		bl	get_state
 809              	.LVL87:
 810 0046 0146     		mov	r1, r0
 179:../../Middlewares/LVGL/GUI/lvgl/src/widgets/imagebutton/lv_imagebutton.c ****         if(imagebutton->src_left[state].img_src == NULL &&
 811              		.loc 1 179 41 discriminator 1 view .LVU272
 812 0048 3046     		mov	r0, r6
 813 004a FFF7FEFF 		bl	suggest_state
 814              	.LVL88:
 180:../../Middlewares/LVGL/GUI/lvgl/src/widgets/imagebutton/lv_imagebutton.c ****            imagebutton->src_mid[state].img_src != NULL &&
 815              		.loc 1 180 9 is_stmt 1 view .LVU273
 180:../../Middlewares/LVGL/GUI/lvgl/src/widgets/imagebutton/lv_imagebutton.c ****            imagebutton->src_mid[state].img_src != NULL &&
 816              		.loc 1 180 40 is_stmt 0 view .LVU274
 817 004e 06EB0013 		add	r3, r6, r0, lsl #4
 818 0052 D3F88C30 		ldr	r3, [r3, #140]
 180:../../Middlewares/LVGL/GUI/lvgl/src/widgets/imagebutton/lv_imagebutton.c ****            imagebutton->src_mid[state].img_src != NULL &&
 819              		.loc 1 180 11 view .LVU275
 820 0056 002B     		cmp	r3, #0
 821 0058 D9D1     		bne	.L50
 181:../../Middlewares/LVGL/GUI/lvgl/src/widgets/imagebutton/lv_imagebutton.c ****            imagebutton->src_right[state].img_src == NULL) {
 822              		.loc 1 181 39 view .LVU276
 823 005a 06EB0013 		add	r3, r6, r0, lsl #4
 824 005e DB6A     		ldr	r3, [r3, #44]
 180:../../Middlewares/LVGL/GUI/lvgl/src/widgets/imagebutton/lv_imagebutton.c ****            imagebutton->src_mid[state].img_src != NULL &&
 825              		.loc 1 180 57 discriminator 1 view .LVU277
 826 0060 002B     		cmp	r3, #0
 827 0062 D4D0     		beq	.L50
 182:../../Middlewares/LVGL/GUI/lvgl/src/widgets/imagebutton/lv_imagebutton.c ****             p->x = LV_MAX(p->x, imagebutton->src_mid[state].header.w);
 828              		.loc 1 182 41 view .LVU278
 829 0064 06EB0013 		add	r3, r6, r0, lsl #4
 830 0068 D3F8EC30 		ldr	r3, [r3, #236]
 181:../../Middlewares/LVGL/GUI/lvgl/src/widgets/imagebutton/lv_imagebutton.c ****            imagebutton->src_right[state].img_src == NULL) {
 831              		.loc 1 181 56 view .LVU279
 832 006c 002B     		cmp	r3, #0
 833 006e CED1     		bne	.L50
 183:../../Middlewares/LVGL/GUI/lvgl/src/widgets/imagebutton/lv_imagebutton.c ****         }
 834              		.loc 1 183 13 is_stmt 1 view .LVU280
 183:../../Middlewares/LVGL/GUI/lvgl/src/widgets/imagebutton/lv_imagebutton.c ****         }
 835              		.loc 1 183 20 is_stmt 0 view .LVU281
 836 0070 06EB0013 		add	r3, r6, r0, lsl #4
 837 0074 9B8E     		ldrh	r3, [r3, #52]
 838 0076 2A68     		ldr	r2, [r5]
 839 0078 9342     		cmp	r3, r2
ARM GAS  C:\Users\28576\AppData\Local\Temp\ccrhsjx7.s 			page 29


 840 007a B8BF     		it	lt
 841 007c 1346     		movlt	r3, r2
 183:../../Middlewares/LVGL/GUI/lvgl/src/widgets/imagebutton/lv_imagebutton.c ****         }
 842              		.loc 1 183 18 view .LVU282
 843 007e 2B60     		str	r3, [r5]
 844 0080 C5E7     		b	.L50
 845              	.LVL89:
 846              	.L52:
 183:../../Middlewares/LVGL/GUI/lvgl/src/widgets/imagebutton/lv_imagebutton.c ****         }
 847              		.loc 1 183 18 view .LVU283
 848              	.LBE27:
 167:../../Middlewares/LVGL/GUI/lvgl/src/widgets/imagebutton/lv_imagebutton.c ****     }
 849              		.loc 1 167 9 is_stmt 1 view .LVU284
 850 0082 3046     		mov	r0, r6
 851              	.LVL90:
 167:../../Middlewares/LVGL/GUI/lvgl/src/widgets/imagebutton/lv_imagebutton.c ****     }
 852              		.loc 1 167 9 is_stmt 0 view .LVU285
 853 0084 FFF7FEFF 		bl	refr_image
 854              	.LVL91:
 855 0088 C1E7     		b	.L50
 856              	.LVL92:
 857              	.L58:
 170:../../Middlewares/LVGL/GUI/lvgl/src/widgets/imagebutton/lv_imagebutton.c ****     }
 858              		.loc 1 170 9 is_stmt 1 view .LVU286
 859 008a 2846     		mov	r0, r5
 860              	.LVL93:
 170:../../Middlewares/LVGL/GUI/lvgl/src/widgets/imagebutton/lv_imagebutton.c ****     }
 861              		.loc 1 170 9 is_stmt 0 view .LVU287
 862 008c FFF7FEFF 		bl	draw_main
 863              	.LVL94:
 864 0090 BDE7     		b	.L50
 865              	.LVL95:
 866              	.L59:
 867              	.LBB28:
 173:../../Middlewares/LVGL/GUI/lvgl/src/widgets/imagebutton/lv_imagebutton.c ****         if(info->res != LV_COVER_RES_MASKED) info->res = LV_COVER_RES_NOT_COVER;
 868              		.loc 1 173 9 is_stmt 1 view .LVU288
 173:../../Middlewares/LVGL/GUI/lvgl/src/widgets/imagebutton/lv_imagebutton.c ****         if(info->res != LV_COVER_RES_MASKED) info->res = LV_COVER_RES_NOT_COVER;
 869              		.loc 1 173 40 is_stmt 0 view .LVU289
 870 0092 2846     		mov	r0, r5
 871              	.LVL96:
 173:../../Middlewares/LVGL/GUI/lvgl/src/widgets/imagebutton/lv_imagebutton.c ****         if(info->res != LV_COVER_RES_MASKED) info->res = LV_COVER_RES_NOT_COVER;
 872              		.loc 1 173 40 view .LVU290
 873 0094 FFF7FEFF 		bl	lv_event_get_param
 874              	.LVL97:
 174:../../Middlewares/LVGL/GUI/lvgl/src/widgets/imagebutton/lv_imagebutton.c ****     }
 875              		.loc 1 174 9 is_stmt 1 view .LVU291
 174:../../Middlewares/LVGL/GUI/lvgl/src/widgets/imagebutton/lv_imagebutton.c ****     }
 876              		.loc 1 174 16 is_stmt 0 view .LVU292
 877 0098 0378     		ldrb	r3, [r0]	@ zero_extendqisi2
 174:../../Middlewares/LVGL/GUI/lvgl/src/widgets/imagebutton/lv_imagebutton.c ****     }
 878              		.loc 1 174 11 view .LVU293
 879 009a 022B     		cmp	r3, #2
 880 009c B7D0     		beq	.L50
 174:../../Middlewares/LVGL/GUI/lvgl/src/widgets/imagebutton/lv_imagebutton.c ****     }
 881              		.loc 1 174 46 is_stmt 1 discriminator 1 view .LVU294
 174:../../Middlewares/LVGL/GUI/lvgl/src/widgets/imagebutton/lv_imagebutton.c ****     }
 882              		.loc 1 174 56 is_stmt 0 discriminator 1 view .LVU295
ARM GAS  C:\Users\28576\AppData\Local\Temp\ccrhsjx7.s 			page 30


 883 009e 0123     		movs	r3, #1
 884 00a0 0370     		strb	r3, [r0]
 885 00a2 B4E7     		b	.L50
 886              	.L61:
 887              		.align	2
 888              	.L60:
 889 00a4 00000000 		.word	lv_imagebutton_class
 890              	.LBE28:
 891              		.cfi_endproc
 892              	.LFE194:
 894              		.section	.text.lv_imagebutton_constructor,"ax",%progbits
 895              		.align	1
 896              		.syntax unified
 897              		.thumb
 898              		.thumb_func
 900              	lv_imagebutton_constructor:
 901              	.LVL98:
 902              	.LFB193:
 147:../../Middlewares/LVGL/GUI/lvgl/src/widgets/imagebutton/lv_imagebutton.c ****     LV_UNUSED(class_p);
 903              		.loc 1 147 1 is_stmt 1 view -0
 904              		.cfi_startproc
 905              		@ args = 0, pretend = 0, frame = 0
 906              		@ frame_needed = 0, uses_anonymous_args = 0
 147:../../Middlewares/LVGL/GUI/lvgl/src/widgets/imagebutton/lv_imagebutton.c ****     LV_UNUSED(class_p);
 907              		.loc 1 147 1 is_stmt 0 view .LVU297
 908 0000 10B5     		push	{r4, lr}
 909              	.LCFI9:
 910              		.cfi_def_cfa_offset 8
 911              		.cfi_offset 4, -8
 912              		.cfi_offset 14, -4
 913 0002 0C46     		mov	r4, r1
 148:../../Middlewares/LVGL/GUI/lvgl/src/widgets/imagebutton/lv_imagebutton.c ****     lv_imagebutton_t * imagebutton = (lv_imagebutton_t *)obj;
 914              		.loc 1 148 5 is_stmt 1 view .LVU298
 149:../../Middlewares/LVGL/GUI/lvgl/src/widgets/imagebutton/lv_imagebutton.c ****     /*Initialize the allocated 'ext'*/
 915              		.loc 1 149 5 view .LVU299
 916              	.LVL99:
 152:../../Middlewares/LVGL/GUI/lvgl/src/widgets/imagebutton/lv_imagebutton.c ****     lv_memzero(&imagebutton->src_left, sizeof(imagebutton->src_left));
 917              		.loc 1 152 5 view .LVU300
 918              	.LBB29:
 919              	.LBI29:
 920              		.file 4 "H:/STM32H7/RGB_LVGL/Middlewares/LVGL/GUI/lvgl/src/stdlib/lv_string.h"
   1:H:/STM32H7/RGB_LVGL/Middlewares/LVGL/GUI/lvgl/src/stdlib\lv_string.h **** /**
   2:H:/STM32H7/RGB_LVGL/Middlewares/LVGL/GUI/lvgl/src/stdlib\lv_string.h ****  * @file lv_string.h
   3:H:/STM32H7/RGB_LVGL/Middlewares/LVGL/GUI/lvgl/src/stdlib\lv_string.h ****  *
   4:H:/STM32H7/RGB_LVGL/Middlewares/LVGL/GUI/lvgl/src/stdlib\lv_string.h ****  */
   5:H:/STM32H7/RGB_LVGL/Middlewares/LVGL/GUI/lvgl/src/stdlib\lv_string.h **** 
   6:H:/STM32H7/RGB_LVGL/Middlewares/LVGL/GUI/lvgl/src/stdlib\lv_string.h **** #ifndef LV_STRING_H
   7:H:/STM32H7/RGB_LVGL/Middlewares/LVGL/GUI/lvgl/src/stdlib\lv_string.h **** #define LV_STRING_H
   8:H:/STM32H7/RGB_LVGL/Middlewares/LVGL/GUI/lvgl/src/stdlib\lv_string.h **** 
   9:H:/STM32H7/RGB_LVGL/Middlewares/LVGL/GUI/lvgl/src/stdlib\lv_string.h **** #ifdef __cplusplus
  10:H:/STM32H7/RGB_LVGL/Middlewares/LVGL/GUI/lvgl/src/stdlib\lv_string.h **** extern "C" {
  11:H:/STM32H7/RGB_LVGL/Middlewares/LVGL/GUI/lvgl/src/stdlib\lv_string.h **** #endif
  12:H:/STM32H7/RGB_LVGL/Middlewares/LVGL/GUI/lvgl/src/stdlib\lv_string.h **** 
  13:H:/STM32H7/RGB_LVGL/Middlewares/LVGL/GUI/lvgl/src/stdlib\lv_string.h **** /*********************
  14:H:/STM32H7/RGB_LVGL/Middlewares/LVGL/GUI/lvgl/src/stdlib\lv_string.h ****  *      INCLUDES
  15:H:/STM32H7/RGB_LVGL/Middlewares/LVGL/GUI/lvgl/src/stdlib\lv_string.h ****  *********************/
  16:H:/STM32H7/RGB_LVGL/Middlewares/LVGL/GUI/lvgl/src/stdlib\lv_string.h **** #include "../lv_conf_internal.h"
ARM GAS  C:\Users\28576\AppData\Local\Temp\ccrhsjx7.s 			page 31


  17:H:/STM32H7/RGB_LVGL/Middlewares/LVGL/GUI/lvgl/src/stdlib\lv_string.h **** #include "../misc/lv_types.h"
  18:H:/STM32H7/RGB_LVGL/Middlewares/LVGL/GUI/lvgl/src/stdlib\lv_string.h **** 
  19:H:/STM32H7/RGB_LVGL/Middlewares/LVGL/GUI/lvgl/src/stdlib\lv_string.h **** /*********************
  20:H:/STM32H7/RGB_LVGL/Middlewares/LVGL/GUI/lvgl/src/stdlib\lv_string.h ****  *      DEFINES
  21:H:/STM32H7/RGB_LVGL/Middlewares/LVGL/GUI/lvgl/src/stdlib\lv_string.h ****  *********************/
  22:H:/STM32H7/RGB_LVGL/Middlewares/LVGL/GUI/lvgl/src/stdlib\lv_string.h **** 
  23:H:/STM32H7/RGB_LVGL/Middlewares/LVGL/GUI/lvgl/src/stdlib\lv_string.h **** /**********************
  24:H:/STM32H7/RGB_LVGL/Middlewares/LVGL/GUI/lvgl/src/stdlib\lv_string.h ****  *      TYPEDEFS
  25:H:/STM32H7/RGB_LVGL/Middlewares/LVGL/GUI/lvgl/src/stdlib\lv_string.h ****  **********************/
  26:H:/STM32H7/RGB_LVGL/Middlewares/LVGL/GUI/lvgl/src/stdlib\lv_string.h **** 
  27:H:/STM32H7/RGB_LVGL/Middlewares/LVGL/GUI/lvgl/src/stdlib\lv_string.h **** /**********************
  28:H:/STM32H7/RGB_LVGL/Middlewares/LVGL/GUI/lvgl/src/stdlib\lv_string.h ****  * GLOBAL PROTOTYPES
  29:H:/STM32H7/RGB_LVGL/Middlewares/LVGL/GUI/lvgl/src/stdlib\lv_string.h ****  **********************/
  30:H:/STM32H7/RGB_LVGL/Middlewares/LVGL/GUI/lvgl/src/stdlib\lv_string.h **** 
  31:H:/STM32H7/RGB_LVGL/Middlewares/LVGL/GUI/lvgl/src/stdlib\lv_string.h **** /**
  32:H:/STM32H7/RGB_LVGL/Middlewares/LVGL/GUI/lvgl/src/stdlib\lv_string.h ****  * @brief Copies a block of memory from a source address to a destination address.
  33:H:/STM32H7/RGB_LVGL/Middlewares/LVGL/GUI/lvgl/src/stdlib\lv_string.h ****  * @param dst Pointer to the destination array where the content is to be copied.
  34:H:/STM32H7/RGB_LVGL/Middlewares/LVGL/GUI/lvgl/src/stdlib\lv_string.h ****  * @param src Pointer to the source of data to be copied.
  35:H:/STM32H7/RGB_LVGL/Middlewares/LVGL/GUI/lvgl/src/stdlib\lv_string.h ****  * @param len Number of bytes to copy.
  36:H:/STM32H7/RGB_LVGL/Middlewares/LVGL/GUI/lvgl/src/stdlib\lv_string.h ****  * @return Pointer to the destination array.
  37:H:/STM32H7/RGB_LVGL/Middlewares/LVGL/GUI/lvgl/src/stdlib\lv_string.h ****  * @note The function does not check for any overlapping of the source and destination memory block
  38:H:/STM32H7/RGB_LVGL/Middlewares/LVGL/GUI/lvgl/src/stdlib\lv_string.h ****  */
  39:H:/STM32H7/RGB_LVGL/Middlewares/LVGL/GUI/lvgl/src/stdlib\lv_string.h **** void * lv_memcpy(void * dst, const void * src, size_t len);
  40:H:/STM32H7/RGB_LVGL/Middlewares/LVGL/GUI/lvgl/src/stdlib\lv_string.h **** 
  41:H:/STM32H7/RGB_LVGL/Middlewares/LVGL/GUI/lvgl/src/stdlib\lv_string.h **** /**
  42:H:/STM32H7/RGB_LVGL/Middlewares/LVGL/GUI/lvgl/src/stdlib\lv_string.h ****  * @brief Fills a block of memory with a specified value.
  43:H:/STM32H7/RGB_LVGL/Middlewares/LVGL/GUI/lvgl/src/stdlib\lv_string.h ****  * @param dst Pointer to the destination array to fill with the specified value.
  44:H:/STM32H7/RGB_LVGL/Middlewares/LVGL/GUI/lvgl/src/stdlib\lv_string.h ****  * @param v Value to be set. The value is passed as an int, but the function fills
  45:H:/STM32H7/RGB_LVGL/Middlewares/LVGL/GUI/lvgl/src/stdlib\lv_string.h ****  *          the block of memory using the unsigned char conversion of this value.
  46:H:/STM32H7/RGB_LVGL/Middlewares/LVGL/GUI/lvgl/src/stdlib\lv_string.h ****  * @param len Number of bytes to be set to the value.
  47:H:/STM32H7/RGB_LVGL/Middlewares/LVGL/GUI/lvgl/src/stdlib\lv_string.h ****  */
  48:H:/STM32H7/RGB_LVGL/Middlewares/LVGL/GUI/lvgl/src/stdlib\lv_string.h **** void lv_memset(void * dst, uint8_t v, size_t len);
  49:H:/STM32H7/RGB_LVGL/Middlewares/LVGL/GUI/lvgl/src/stdlib\lv_string.h **** 
  50:H:/STM32H7/RGB_LVGL/Middlewares/LVGL/GUI/lvgl/src/stdlib\lv_string.h **** /**
  51:H:/STM32H7/RGB_LVGL/Middlewares/LVGL/GUI/lvgl/src/stdlib\lv_string.h ****  * @brief Move a block of memory from source to destination
  52:H:/STM32H7/RGB_LVGL/Middlewares/LVGL/GUI/lvgl/src/stdlib\lv_string.h ****  * @param dst Pointer to the destination array where the content is to be copied.
  53:H:/STM32H7/RGB_LVGL/Middlewares/LVGL/GUI/lvgl/src/stdlib\lv_string.h ****  * @param src Pointer to the source of data to be copied.
  54:H:/STM32H7/RGB_LVGL/Middlewares/LVGL/GUI/lvgl/src/stdlib\lv_string.h ****  * @param len Number of bytes to copy
  55:H:/STM32H7/RGB_LVGL/Middlewares/LVGL/GUI/lvgl/src/stdlib\lv_string.h ****  * @return Pointer to the destination array.
  56:H:/STM32H7/RGB_LVGL/Middlewares/LVGL/GUI/lvgl/src/stdlib\lv_string.h ****  */
  57:H:/STM32H7/RGB_LVGL/Middlewares/LVGL/GUI/lvgl/src/stdlib\lv_string.h **** void * lv_memmove(void * dst, const void * src, size_t len);
  58:H:/STM32H7/RGB_LVGL/Middlewares/LVGL/GUI/lvgl/src/stdlib\lv_string.h **** 
  59:H:/STM32H7/RGB_LVGL/Middlewares/LVGL/GUI/lvgl/src/stdlib\lv_string.h **** /**
  60:H:/STM32H7/RGB_LVGL/Middlewares/LVGL/GUI/lvgl/src/stdlib\lv_string.h ****  * @brief This function will compare two memory blocks
  61:H:/STM32H7/RGB_LVGL/Middlewares/LVGL/GUI/lvgl/src/stdlib\lv_string.h ****  * @param p1 Pointer to the first memory block
  62:H:/STM32H7/RGB_LVGL/Middlewares/LVGL/GUI/lvgl/src/stdlib\lv_string.h ****  * @param p2 Pointer to the second memory block
  63:H:/STM32H7/RGB_LVGL/Middlewares/LVGL/GUI/lvgl/src/stdlib\lv_string.h ****  * @param len Number of bytes to compare
  64:H:/STM32H7/RGB_LVGL/Middlewares/LVGL/GUI/lvgl/src/stdlib\lv_string.h ****  * @return The difference between the value of the first unmatching byte.
  65:H:/STM32H7/RGB_LVGL/Middlewares/LVGL/GUI/lvgl/src/stdlib\lv_string.h ****  */
  66:H:/STM32H7/RGB_LVGL/Middlewares/LVGL/GUI/lvgl/src/stdlib\lv_string.h **** int lv_memcmp(const void * p1, const void * p2, size_t len);
  67:H:/STM32H7/RGB_LVGL/Middlewares/LVGL/GUI/lvgl/src/stdlib\lv_string.h **** 
  68:H:/STM32H7/RGB_LVGL/Middlewares/LVGL/GUI/lvgl/src/stdlib\lv_string.h **** /**
  69:H:/STM32H7/RGB_LVGL/Middlewares/LVGL/GUI/lvgl/src/stdlib\lv_string.h ****  * Same as `memset(dst, 0x00, len)`.
  70:H:/STM32H7/RGB_LVGL/Middlewares/LVGL/GUI/lvgl/src/stdlib\lv_string.h ****  * @param dst pointer to the destination buffer
  71:H:/STM32H7/RGB_LVGL/Middlewares/LVGL/GUI/lvgl/src/stdlib\lv_string.h ****  * @param len number of byte to set
  72:H:/STM32H7/RGB_LVGL/Middlewares/LVGL/GUI/lvgl/src/stdlib\lv_string.h ****  */
  73:H:/STM32H7/RGB_LVGL/Middlewares/LVGL/GUI/lvgl/src/stdlib\lv_string.h **** static inline void lv_memzero(void * dst, size_t len)
ARM GAS  C:\Users\28576\AppData\Local\Temp\ccrhsjx7.s 			page 32


 921              		.loc 4 73 20 view .LVU301
 922              	.LBB30:
  74:H:/STM32H7/RGB_LVGL/Middlewares/LVGL/GUI/lvgl/src/stdlib\lv_string.h **** {
  75:H:/STM32H7/RGB_LVGL/Middlewares/LVGL/GUI/lvgl/src/stdlib\lv_string.h ****     lv_memset(dst, 0x00, len);
 923              		.loc 4 75 5 view .LVU302
 924 0004 6022     		movs	r2, #96
 925 0006 0021     		movs	r1, #0
 926              	.LVL100:
 927              		.loc 4 75 5 is_stmt 0 view .LVU303
 928 0008 04F12C00 		add	r0, r4, #44
 929              	.LVL101:
 930              		.loc 4 75 5 view .LVU304
 931 000c FFF7FEFF 		bl	lv_memset
 932              	.LVL102:
 933              		.loc 4 75 5 view .LVU305
 934              	.LBE30:
 935              	.LBE29:
 153:../../Middlewares/LVGL/GUI/lvgl/src/widgets/imagebutton/lv_imagebutton.c ****     lv_memzero(&imagebutton->src_right, sizeof(imagebutton->src_right));
 936              		.loc 1 153 5 is_stmt 1 view .LVU306
 937              	.LBB31:
 938              	.LBI31:
  73:H:/STM32H7/RGB_LVGL/Middlewares/LVGL/GUI/lvgl/src/stdlib\lv_string.h **** {
 939              		.loc 4 73 20 view .LVU307
 940              	.LBB32:
 941              		.loc 4 75 5 view .LVU308
 942 0010 6022     		movs	r2, #96
 943 0012 0021     		movs	r1, #0
 944 0014 04F18C00 		add	r0, r4, #140
 945              	.LVL103:
 946              		.loc 4 75 5 is_stmt 0 view .LVU309
 947 0018 FFF7FEFF 		bl	lv_memset
 948              	.LVL104:
 949              		.loc 4 75 5 view .LVU310
 950              	.LBE32:
 951              	.LBE31:
 154:../../Middlewares/LVGL/GUI/lvgl/src/widgets/imagebutton/lv_imagebutton.c **** }
 952              		.loc 1 154 5 is_stmt 1 view .LVU311
 953              	.LBB33:
 954              	.LBI33:
  73:H:/STM32H7/RGB_LVGL/Middlewares/LVGL/GUI/lvgl/src/stdlib\lv_string.h **** {
 955              		.loc 4 73 20 view .LVU312
 956              	.LBB34:
 957              		.loc 4 75 5 view .LVU313
 958 001c 6022     		movs	r2, #96
 959 001e 0021     		movs	r1, #0
 960 0020 04F1EC00 		add	r0, r4, #236
 961              	.LVL105:
 962              		.loc 4 75 5 is_stmt 0 view .LVU314
 963 0024 FFF7FEFF 		bl	lv_memset
 964              	.LVL106:
 965              		.loc 4 75 5 view .LVU315
 966              	.LBE34:
 967              	.LBE33:
 155:../../Middlewares/LVGL/GUI/lvgl/src/widgets/imagebutton/lv_imagebutton.c **** 
 968              		.loc 1 155 1 view .LVU316
 969 0028 10BD     		pop	{r4, pc}
 155:../../Middlewares/LVGL/GUI/lvgl/src/widgets/imagebutton/lv_imagebutton.c **** 
ARM GAS  C:\Users\28576\AppData\Local\Temp\ccrhsjx7.s 			page 33


 970              		.loc 1 155 1 view .LVU317
 971              		.cfi_endproc
 972              	.LFE193:
 974              		.section	.text.update_src_info,"ax",%progbits
 975              		.align	1
 976              		.syntax unified
 977              		.thumb
 978              		.thumb_func
 980              	update_src_info:
 981              	.LVL107:
 982              	.LFB199:
 328:../../Middlewares/LVGL/GUI/lvgl/src/widgets/imagebutton/lv_imagebutton.c **** 
 329:../../Middlewares/LVGL/GUI/lvgl/src/widgets/imagebutton/lv_imagebutton.c **** static void update_src_info(lv_imagebutton_src_info_t * info, const void * src)
 330:../../Middlewares/LVGL/GUI/lvgl/src/widgets/imagebutton/lv_imagebutton.c **** {
 983              		.loc 1 330 1 is_stmt 1 view -0
 984              		.cfi_startproc
 985              		@ args = 0, pretend = 0, frame = 0
 986              		@ frame_needed = 0, uses_anonymous_args = 0
 987              		.loc 1 330 1 is_stmt 0 view .LVU319
 988 0000 38B5     		push	{r3, r4, r5, lr}
 989              	.LCFI10:
 990              		.cfi_def_cfa_offset 16
 991              		.cfi_offset 3, -16
 992              		.cfi_offset 4, -12
 993              		.cfi_offset 5, -8
 994              		.cfi_offset 14, -4
 331:../../Middlewares/LVGL/GUI/lvgl/src/widgets/imagebutton/lv_imagebutton.c ****     if(!src) {
 995              		.loc 1 331 5 is_stmt 1 view .LVU320
 996              		.loc 1 331 7 is_stmt 0 view .LVU321
 997 0002 51B1     		cbz	r1, .L68
 998 0004 0A46     		mov	r2, r1
 332:../../Middlewares/LVGL/GUI/lvgl/src/widgets/imagebutton/lv_imagebutton.c ****         lv_memzero(info, sizeof(lv_imagebutton_src_info_t));
 333:../../Middlewares/LVGL/GUI/lvgl/src/widgets/imagebutton/lv_imagebutton.c ****         return;
 334:../../Middlewares/LVGL/GUI/lvgl/src/widgets/imagebutton/lv_imagebutton.c ****     }
 335:../../Middlewares/LVGL/GUI/lvgl/src/widgets/imagebutton/lv_imagebutton.c **** 
 336:../../Middlewares/LVGL/GUI/lvgl/src/widgets/imagebutton/lv_imagebutton.c ****     lv_result_t res = lv_image_decoder_get_info(src, &info->header);
 999              		.loc 1 336 5 is_stmt 1 view .LVU322
 1000              		.loc 1 336 23 is_stmt 0 view .LVU323
 1001 0006 0446     		mov	r4, r0
 1002 0008 011D     		adds	r1, r0, #4
 1003              	.LVL108:
 1004              		.loc 1 336 23 view .LVU324
 1005 000a 1546     		mov	r5, r2
 1006 000c 1046     		mov	r0, r2
 1007              	.LVL109:
 1008              		.loc 1 336 23 view .LVU325
 1009 000e FFF7FEFF 		bl	lv_image_decoder_get_info
 1010              	.LVL110:
 337:../../Middlewares/LVGL/GUI/lvgl/src/widgets/imagebutton/lv_imagebutton.c ****     if(res != LV_RESULT_OK) {
 1011              		.loc 1 337 5 is_stmt 1 view .LVU326
 1012              		.loc 1 337 7 is_stmt 0 view .LVU327
 1013 0012 0128     		cmp	r0, #1
 1014 0014 00D1     		bne	.L64
 338:../../Middlewares/LVGL/GUI/lvgl/src/widgets/imagebutton/lv_imagebutton.c ****         LV_LOG_WARN("can't get info");
 339:../../Middlewares/LVGL/GUI/lvgl/src/widgets/imagebutton/lv_imagebutton.c ****         return;
 340:../../Middlewares/LVGL/GUI/lvgl/src/widgets/imagebutton/lv_imagebutton.c ****     }
 341:../../Middlewares/LVGL/GUI/lvgl/src/widgets/imagebutton/lv_imagebutton.c **** 
ARM GAS  C:\Users\28576\AppData\Local\Temp\ccrhsjx7.s 			page 34


 342:../../Middlewares/LVGL/GUI/lvgl/src/widgets/imagebutton/lv_imagebutton.c ****     info->img_src = src;
 1015              		.loc 1 342 5 is_stmt 1 view .LVU328
 1016              		.loc 1 342 19 is_stmt 0 view .LVU329
 1017 0016 2560     		str	r5, [r4]
 1018              	.LVL111:
 1019              	.L64:
 343:../../Middlewares/LVGL/GUI/lvgl/src/widgets/imagebutton/lv_imagebutton.c **** }
 1020              		.loc 1 343 1 view .LVU330
 1021 0018 38BD     		pop	{r3, r4, r5, pc}
 1022              	.LVL112:
 1023              	.L68:
 332:../../Middlewares/LVGL/GUI/lvgl/src/widgets/imagebutton/lv_imagebutton.c ****         return;
 1024              		.loc 1 332 9 is_stmt 1 view .LVU331
 1025              	.LBB35:
 1026              	.LBI35:
  73:H:/STM32H7/RGB_LVGL/Middlewares/LVGL/GUI/lvgl/src/stdlib\lv_string.h **** {
 1027              		.loc 4 73 20 view .LVU332
 1028              	.LBB36:
 1029              		.loc 4 75 5 view .LVU333
 1030 001a 1022     		movs	r2, #16
 1031 001c FFF7FEFF 		bl	lv_memset
 1032              	.LVL113:
 1033              		.loc 4 75 5 is_stmt 0 view .LVU334
 1034              	.LBE36:
 1035              	.LBE35:
 333:../../Middlewares/LVGL/GUI/lvgl/src/widgets/imagebutton/lv_imagebutton.c ****     }
 1036              		.loc 1 333 9 is_stmt 1 view .LVU335
 1037 0020 FAE7     		b	.L64
 1038              		.cfi_endproc
 1039              	.LFE199:
 1041              		.section	.text.lv_imagebutton_create,"ax",%progbits
 1042              		.align	1
 1043              		.global	lv_imagebutton_create
 1044              		.syntax unified
 1045              		.thumb
 1046              		.thumb_func
 1048              	lv_imagebutton_create:
 1049              	.LVL114:
 1050              	.LFB187:
  64:../../Middlewares/LVGL/GUI/lvgl/src/widgets/imagebutton/lv_imagebutton.c ****     LV_LOG_INFO("begin");
 1051              		.loc 1 64 1 view -0
 1052              		.cfi_startproc
 1053              		@ args = 0, pretend = 0, frame = 0
 1054              		@ frame_needed = 0, uses_anonymous_args = 0
  64:../../Middlewares/LVGL/GUI/lvgl/src/widgets/imagebutton/lv_imagebutton.c ****     LV_LOG_INFO("begin");
 1055              		.loc 1 64 1 is_stmt 0 view .LVU337
 1056 0000 10B5     		push	{r4, lr}
 1057              	.LCFI11:
 1058              		.cfi_def_cfa_offset 8
 1059              		.cfi_offset 4, -8
 1060              		.cfi_offset 14, -4
 1061 0002 0146     		mov	r1, r0
  65:../../Middlewares/LVGL/GUI/lvgl/src/widgets/imagebutton/lv_imagebutton.c ****     lv_obj_t * obj = lv_obj_class_create_obj(MY_CLASS, parent);
 1062              		.loc 1 65 5 is_stmt 1 view .LVU338
  65:../../Middlewares/LVGL/GUI/lvgl/src/widgets/imagebutton/lv_imagebutton.c ****     lv_obj_t * obj = lv_obj_class_create_obj(MY_CLASS, parent);
 1063              		.loc 1 65 5 view .LVU339
  65:../../Middlewares/LVGL/GUI/lvgl/src/widgets/imagebutton/lv_imagebutton.c ****     lv_obj_t * obj = lv_obj_class_create_obj(MY_CLASS, parent);
ARM GAS  C:\Users\28576\AppData\Local\Temp\ccrhsjx7.s 			page 35


 1064              		.loc 1 65 5 view .LVU340
  66:../../Middlewares/LVGL/GUI/lvgl/src/widgets/imagebutton/lv_imagebutton.c ****     lv_obj_class_init_obj(obj);
 1065              		.loc 1 66 5 view .LVU341
  66:../../Middlewares/LVGL/GUI/lvgl/src/widgets/imagebutton/lv_imagebutton.c ****     lv_obj_class_init_obj(obj);
 1066              		.loc 1 66 22 is_stmt 0 view .LVU342
 1067 0004 0348     		ldr	r0, .L71
 1068              	.LVL115:
  66:../../Middlewares/LVGL/GUI/lvgl/src/widgets/imagebutton/lv_imagebutton.c ****     lv_obj_class_init_obj(obj);
 1069              		.loc 1 66 22 view .LVU343
 1070 0006 FFF7FEFF 		bl	lv_obj_class_create_obj
 1071              	.LVL116:
  66:../../Middlewares/LVGL/GUI/lvgl/src/widgets/imagebutton/lv_imagebutton.c ****     lv_obj_class_init_obj(obj);
 1072              		.loc 1 66 22 view .LVU344
 1073 000a 0446     		mov	r4, r0
 1074              	.LVL117:
  67:../../Middlewares/LVGL/GUI/lvgl/src/widgets/imagebutton/lv_imagebutton.c ****     return obj;
 1075              		.loc 1 67 5 is_stmt 1 view .LVU345
 1076 000c FFF7FEFF 		bl	lv_obj_class_init_obj
 1077              	.LVL118:
  68:../../Middlewares/LVGL/GUI/lvgl/src/widgets/imagebutton/lv_imagebutton.c **** }
 1078              		.loc 1 68 5 view .LVU346
  69:../../Middlewares/LVGL/GUI/lvgl/src/widgets/imagebutton/lv_imagebutton.c **** 
 1079              		.loc 1 69 1 is_stmt 0 view .LVU347
 1080 0010 2046     		mov	r0, r4
 1081 0012 10BD     		pop	{r4, pc}
 1082              	.LVL119:
 1083              	.L72:
  69:../../Middlewares/LVGL/GUI/lvgl/src/widgets/imagebutton/lv_imagebutton.c **** 
 1084              		.loc 1 69 1 view .LVU348
 1085              		.align	2
 1086              	.L71:
 1087 0014 00000000 		.word	lv_imagebutton_class
 1088              		.cfi_endproc
 1089              	.LFE187:
 1091              		.section	.text.lv_imagebutton_set_src,"ax",%progbits
 1092              		.align	1
 1093              		.global	lv_imagebutton_set_src
 1094              		.syntax unified
 1095              		.thumb
 1096              		.thumb_func
 1098              	lv_imagebutton_set_src:
 1099              	.LVL120:
 1100              	.LFB188:
  77:../../Middlewares/LVGL/GUI/lvgl/src/widgets/imagebutton/lv_imagebutton.c ****     LV_ASSERT_OBJ(obj, MY_CLASS);
 1101              		.loc 1 77 1 is_stmt 1 view -0
 1102              		.cfi_startproc
 1103              		@ args = 4, pretend = 0, frame = 0
 1104              		@ frame_needed = 0, uses_anonymous_args = 0
  78:../../Middlewares/LVGL/GUI/lvgl/src/widgets/imagebutton/lv_imagebutton.c **** 
 1105              		.loc 1 78 5 view .LVU350
  78:../../Middlewares/LVGL/GUI/lvgl/src/widgets/imagebutton/lv_imagebutton.c **** 
 1106              		.loc 1 78 5 view .LVU351
 1107 0000 E8B1     		cbz	r0, .L75
  77:../../Middlewares/LVGL/GUI/lvgl/src/widgets/imagebutton/lv_imagebutton.c ****     LV_ASSERT_OBJ(obj, MY_CLASS);
 1108              		.loc 1 77 1 is_stmt 0 view .LVU352
 1109 0002 70B5     		push	{r4, r5, r6, lr}
 1110              	.LCFI12:
ARM GAS  C:\Users\28576\AppData\Local\Temp\ccrhsjx7.s 			page 36


 1111              		.cfi_def_cfa_offset 16
 1112              		.cfi_offset 4, -16
 1113              		.cfi_offset 5, -12
 1114              		.cfi_offset 6, -8
 1115              		.cfi_offset 14, -4
 1116 0004 0C46     		mov	r4, r1
 1117 0006 1146     		mov	r1, r2
 1118              	.LVL121:
  77:../../Middlewares/LVGL/GUI/lvgl/src/widgets/imagebutton/lv_imagebutton.c ****     LV_ASSERT_OBJ(obj, MY_CLASS);
 1119              		.loc 1 77 1 view .LVU353
 1120 0008 1E46     		mov	r6, r3
 1121 000a 0546     		mov	r5, r0
  78:../../Middlewares/LVGL/GUI/lvgl/src/widgets/imagebutton/lv_imagebutton.c **** 
 1122              		.loc 1 78 5 is_stmt 1 view .LVU354
  78:../../Middlewares/LVGL/GUI/lvgl/src/widgets/imagebutton/lv_imagebutton.c **** 
 1123              		.loc 1 78 33 view .LVU355
  80:../../Middlewares/LVGL/GUI/lvgl/src/widgets/imagebutton/lv_imagebutton.c **** 
 1124              		.loc 1 80 5 view .LVU356
 1125              	.LVL122:
  82:../../Middlewares/LVGL/GUI/lvgl/src/widgets/imagebutton/lv_imagebutton.c ****         LV_LOG_WARN("middle image source is not set while left and/or right image sources are");
 1126              		.loc 1 82 5 view .LVU357
  83:../../Middlewares/LVGL/GUI/lvgl/src/widgets/imagebutton/lv_imagebutton.c ****     }
 1127              		.loc 1 83 9 view .LVU358
  83:../../Middlewares/LVGL/GUI/lvgl/src/widgets/imagebutton/lv_imagebutton.c ****     }
 1128              		.loc 1 83 9 view .LVU359
  83:../../Middlewares/LVGL/GUI/lvgl/src/widgets/imagebutton/lv_imagebutton.c ****     }
 1129              		.loc 1 83 9 view .LVU360
  86:../../Middlewares/LVGL/GUI/lvgl/src/widgets/imagebutton/lv_imagebutton.c ****     update_src_info(&imagebutton->src_mid[state], src_mid);
 1130              		.loc 1 86 5 view .LVU361
 1131 000c 2401     		lsls	r4, r4, #4
 1132              	.LVL123:
  86:../../Middlewares/LVGL/GUI/lvgl/src/widgets/imagebutton/lv_imagebutton.c ****     update_src_info(&imagebutton->src_mid[state], src_mid);
 1133              		.loc 1 86 5 is_stmt 0 view .LVU362
 1134 000e 04F18800 		add	r0, r4, #136
 1135              	.LVL124:
  86:../../Middlewares/LVGL/GUI/lvgl/src/widgets/imagebutton/lv_imagebutton.c ****     update_src_info(&imagebutton->src_mid[state], src_mid);
 1136              		.loc 1 86 5 view .LVU363
 1137 0012 2844     		add	r0, r0, r5
 1138 0014 0430     		adds	r0, r0, #4
 1139 0016 FFF7FEFF 		bl	update_src_info
 1140              	.LVL125:
  87:../../Middlewares/LVGL/GUI/lvgl/src/widgets/imagebutton/lv_imagebutton.c ****     update_src_info(&imagebutton->src_right[state], src_right);
 1141              		.loc 1 87 5 is_stmt 1 view .LVU364
 1142 001a 04F12800 		add	r0, r4, #40
 1143 001e 2844     		add	r0, r0, r5
 1144 0020 3146     		mov	r1, r6
 1145 0022 0430     		adds	r0, r0, #4
 1146 0024 FFF7FEFF 		bl	update_src_info
 1147              	.LVL126:
  88:../../Middlewares/LVGL/GUI/lvgl/src/widgets/imagebutton/lv_imagebutton.c **** 
 1148              		.loc 1 88 5 view .LVU365
 1149 0028 04F1E800 		add	r0, r4, #232
 1150 002c 2844     		add	r0, r0, r5
 1151 002e 0499     		ldr	r1, [sp, #16]
 1152 0030 0430     		adds	r0, r0, #4
 1153 0032 FFF7FEFF 		bl	update_src_info
 1154              	.LVL127:
ARM GAS  C:\Users\28576\AppData\Local\Temp\ccrhsjx7.s 			page 37


  90:../../Middlewares/LVGL/GUI/lvgl/src/widgets/imagebutton/lv_imagebutton.c **** }
 1155              		.loc 1 90 5 view .LVU366
 1156 0036 2846     		mov	r0, r5
 1157 0038 FFF7FEFF 		bl	refr_image
 1158              	.LVL128:
  91:../../Middlewares/LVGL/GUI/lvgl/src/widgets/imagebutton/lv_imagebutton.c **** 
 1159              		.loc 1 91 1 is_stmt 0 view .LVU367
 1160 003c 70BD     		pop	{r4, r5, r6, pc}
 1161              	.LVL129:
 1162              	.L75:
 1163              	.LCFI13:
 1164              		.cfi_def_cfa_offset 0
 1165              		.cfi_restore 4
 1166              		.cfi_restore 5
 1167              		.cfi_restore 6
 1168              		.cfi_restore 14
  78:../../Middlewares/LVGL/GUI/lvgl/src/widgets/imagebutton/lv_imagebutton.c **** 
 1169              		.loc 1 78 5 is_stmt 1 view .LVU368
  78:../../Middlewares/LVGL/GUI/lvgl/src/widgets/imagebutton/lv_imagebutton.c **** 
 1170              		.loc 1 78 5 view .LVU369
  78:../../Middlewares/LVGL/GUI/lvgl/src/widgets/imagebutton/lv_imagebutton.c **** 
 1171              		.loc 1 78 5 view .LVU370
  78:../../Middlewares/LVGL/GUI/lvgl/src/widgets/imagebutton/lv_imagebutton.c **** 
 1172              		.loc 1 78 5 view .LVU371
  78:../../Middlewares/LVGL/GUI/lvgl/src/widgets/imagebutton/lv_imagebutton.c **** 
 1173              		.loc 1 78 5 view .LVU372
 1174 003e FEE7     		b	.L75
 1175              		.cfi_endproc
 1176              	.LFE188:
 1178              		.section	.text.lv_imagebutton_set_state,"ax",%progbits
 1179              		.align	1
 1180              		.global	lv_imagebutton_set_state
 1181              		.syntax unified
 1182              		.thumb
 1183              		.thumb_func
 1185              	lv_imagebutton_set_state:
 1186              	.LVL130:
 1187              	.LFB189:
  94:../../Middlewares/LVGL/GUI/lvgl/src/widgets/imagebutton/lv_imagebutton.c ****     LV_ASSERT_OBJ(obj, MY_CLASS);
 1188              		.loc 1 94 1 view -0
 1189              		.cfi_startproc
 1190              		@ args = 0, pretend = 0, frame = 0
 1191              		@ frame_needed = 0, uses_anonymous_args = 0
  95:../../Middlewares/LVGL/GUI/lvgl/src/widgets/imagebutton/lv_imagebutton.c **** 
 1192              		.loc 1 95 5 view .LVU374
  95:../../Middlewares/LVGL/GUI/lvgl/src/widgets/imagebutton/lv_imagebutton.c **** 
 1193              		.loc 1 95 5 view .LVU375
 1194 0000 F0B1     		cbz	r0, .L80
  94:../../Middlewares/LVGL/GUI/lvgl/src/widgets/imagebutton/lv_imagebutton.c ****     LV_ASSERT_OBJ(obj, MY_CLASS);
 1195              		.loc 1 94 1 is_stmt 0 view .LVU376
 1196 0002 38B5     		push	{r3, r4, r5, lr}
 1197              	.LCFI14:
 1198              		.cfi_def_cfa_offset 16
 1199              		.cfi_offset 3, -16
 1200              		.cfi_offset 4, -12
 1201              		.cfi_offset 5, -8
 1202              		.cfi_offset 14, -4
ARM GAS  C:\Users\28576\AppData\Local\Temp\ccrhsjx7.s 			page 38


 1203 0004 0446     		mov	r4, r0
  95:../../Middlewares/LVGL/GUI/lvgl/src/widgets/imagebutton/lv_imagebutton.c **** 
 1204              		.loc 1 95 5 is_stmt 1 view .LVU377
  95:../../Middlewares/LVGL/GUI/lvgl/src/widgets/imagebutton/lv_imagebutton.c **** 
 1205              		.loc 1 95 33 view .LVU378
  97:../../Middlewares/LVGL/GUI/lvgl/src/widgets/imagebutton/lv_imagebutton.c ****     if(state == LV_IMAGEBUTTON_STATE_PRESSED ||
 1206              		.loc 1 97 5 view .LVU379
 1207              	.LVL131:
  98:../../Middlewares/LVGL/GUI/lvgl/src/widgets/imagebutton/lv_imagebutton.c ****        state == LV_IMAGEBUTTON_STATE_CHECKED_PRESSED) obj_state |= LV_STATE_PRESSED;
 1208              		.loc 1 98 5 view .LVU380
  98:../../Middlewares/LVGL/GUI/lvgl/src/widgets/imagebutton/lv_imagebutton.c ****        state == LV_IMAGEBUTTON_STATE_CHECKED_PRESSED) obj_state |= LV_STATE_PRESSED;
 1209              		.loc 1 98 7 is_stmt 0 view .LVU381
 1210 0006 0429     		cmp	r1, #4
 1211 0008 18BF     		it	ne
 1212 000a 0129     		cmpne	r1, #1
 1213 000c 19D0     		beq	.L84
  97:../../Middlewares/LVGL/GUI/lvgl/src/widgets/imagebutton/lv_imagebutton.c ****     if(state == LV_IMAGEBUTTON_STATE_PRESSED ||
 1214              		.loc 1 97 16 view .LVU382
 1215 000e 0025     		movs	r5, #0
 1216              	.L81:
 1217              	.LVL132:
 100:../../Middlewares/LVGL/GUI/lvgl/src/widgets/imagebutton/lv_imagebutton.c ****        state == LV_IMAGEBUTTON_STATE_CHECKED_DISABLED) obj_state |= LV_STATE_DISABLED;
 1218              		.loc 1 100 5 is_stmt 1 view .LVU383
 100:../../Middlewares/LVGL/GUI/lvgl/src/widgets/imagebutton/lv_imagebutton.c ****        state == LV_IMAGEBUTTON_STATE_CHECKED_DISABLED) obj_state |= LV_STATE_DISABLED;
 1219              		.loc 1 100 7 is_stmt 0 view .LVU384
 1220 0010 0529     		cmp	r1, #5
 1221 0012 18BF     		it	ne
 1222 0014 0229     		cmpne	r1, #2
 1223 0016 01D1     		bne	.L82
 101:../../Middlewares/LVGL/GUI/lvgl/src/widgets/imagebutton/lv_imagebutton.c ****     if(state == LV_IMAGEBUTTON_STATE_CHECKED_DISABLED || state == LV_IMAGEBUTTON_STATE_CHECKED_PRES
 1224              		.loc 1 101 56 is_stmt 1 view .LVU385
 101:../../Middlewares/LVGL/GUI/lvgl/src/widgets/imagebutton/lv_imagebutton.c ****     if(state == LV_IMAGEBUTTON_STATE_CHECKED_DISABLED || state == LV_IMAGEBUTTON_STATE_CHECKED_PRES
 1225              		.loc 1 101 66 is_stmt 0 view .LVU386
 1226 0018 45F08005 		orr	r5, r5, #128
 1227              	.LVL133:
 1228              	.L82:
 102:../../Middlewares/LVGL/GUI/lvgl/src/widgets/imagebutton/lv_imagebutton.c ****        state == LV_IMAGEBUTTON_STATE_CHECKED_RELEASED) {
 1229              		.loc 1 102 5 is_stmt 1 view .LVU387
 102:../../Middlewares/LVGL/GUI/lvgl/src/widgets/imagebutton/lv_imagebutton.c ****        state == LV_IMAGEBUTTON_STATE_CHECKED_RELEASED) {
 1230              		.loc 1 102 104 is_stmt 0 view .LVU388
 1231 001c 0339     		subs	r1, r1, #3
 1232              	.LVL134:
 102:../../Middlewares/LVGL/GUI/lvgl/src/widgets/imagebutton/lv_imagebutton.c ****        state == LV_IMAGEBUTTON_STATE_CHECKED_RELEASED) {
 1233              		.loc 1 102 104 view .LVU389
 1234 001e C9B2     		uxtb	r1, r1
 102:../../Middlewares/LVGL/GUI/lvgl/src/widgets/imagebutton/lv_imagebutton.c ****        state == LV_IMAGEBUTTON_STATE_CHECKED_RELEASED) {
 1235              		.loc 1 102 7 view .LVU390
 1236 0020 0229     		cmp	r1, #2
 1237 0022 01D8     		bhi	.L83
 104:../../Middlewares/LVGL/GUI/lvgl/src/widgets/imagebutton/lv_imagebutton.c ****     }
 1238              		.loc 1 104 9 is_stmt 1 view .LVU391
 104:../../Middlewares/LVGL/GUI/lvgl/src/widgets/imagebutton/lv_imagebutton.c ****     }
 1239              		.loc 1 104 19 is_stmt 0 view .LVU392
 1240 0024 45F00105 		orr	r5, r5, #1
 1241              	.LVL135:
 1242              	.L83:
 107:../../Middlewares/LVGL/GUI/lvgl/src/widgets/imagebutton/lv_imagebutton.c ****     lv_obj_add_state(obj, obj_state);
ARM GAS  C:\Users\28576\AppData\Local\Temp\ccrhsjx7.s 			page 39


 1243              		.loc 1 107 5 is_stmt 1 view .LVU393
 1244 0028 A121     		movs	r1, #161
 1245 002a 2046     		mov	r0, r4
 1246              	.LVL136:
 107:../../Middlewares/LVGL/GUI/lvgl/src/widgets/imagebutton/lv_imagebutton.c ****     lv_obj_add_state(obj, obj_state);
 1247              		.loc 1 107 5 is_stmt 0 view .LVU394
 1248 002c FFF7FEFF 		bl	lv_obj_remove_state
 1249              	.LVL137:
 108:../../Middlewares/LVGL/GUI/lvgl/src/widgets/imagebutton/lv_imagebutton.c **** 
 1250              		.loc 1 108 5 is_stmt 1 view .LVU395
 1251 0030 2946     		mov	r1, r5
 1252 0032 2046     		mov	r0, r4
 1253 0034 FFF7FEFF 		bl	lv_obj_add_state
 1254              	.LVL138:
 110:../../Middlewares/LVGL/GUI/lvgl/src/widgets/imagebutton/lv_imagebutton.c **** }
 1255              		.loc 1 110 5 view .LVU396
 1256 0038 2046     		mov	r0, r4
 1257 003a FFF7FEFF 		bl	refr_image
 1258              	.LVL139:
 111:../../Middlewares/LVGL/GUI/lvgl/src/widgets/imagebutton/lv_imagebutton.c **** 
 1259              		.loc 1 111 1 is_stmt 0 view .LVU397
 1260 003e 38BD     		pop	{r3, r4, r5, pc}
 1261              	.LVL140:
 1262              	.L80:
 1263              	.LCFI15:
 1264              		.cfi_def_cfa_offset 0
 1265              		.cfi_restore 3
 1266              		.cfi_restore 4
 1267              		.cfi_restore 5
 1268              		.cfi_restore 14
  95:../../Middlewares/LVGL/GUI/lvgl/src/widgets/imagebutton/lv_imagebutton.c **** 
 1269              		.loc 1 95 5 is_stmt 1 view .LVU398
  95:../../Middlewares/LVGL/GUI/lvgl/src/widgets/imagebutton/lv_imagebutton.c **** 
 1270              		.loc 1 95 5 view .LVU399
  95:../../Middlewares/LVGL/GUI/lvgl/src/widgets/imagebutton/lv_imagebutton.c **** 
 1271              		.loc 1 95 5 view .LVU400
  95:../../Middlewares/LVGL/GUI/lvgl/src/widgets/imagebutton/lv_imagebutton.c **** 
 1272              		.loc 1 95 5 view .LVU401
  95:../../Middlewares/LVGL/GUI/lvgl/src/widgets/imagebutton/lv_imagebutton.c **** 
 1273              		.loc 1 95 5 view .LVU402
 1274 0040 FEE7     		b	.L80
 1275              	.LVL141:
 1276              	.L84:
 1277              	.LCFI16:
 1278              		.cfi_def_cfa_offset 16
 1279              		.cfi_offset 3, -16
 1280              		.cfi_offset 4, -12
 1281              		.cfi_offset 5, -8
 1282              		.cfi_offset 14, -4
  99:../../Middlewares/LVGL/GUI/lvgl/src/widgets/imagebutton/lv_imagebutton.c ****     if(state == LV_IMAGEBUTTON_STATE_DISABLED ||
 1283              		.loc 1 99 65 is_stmt 0 view .LVU403
 1284 0042 2025     		movs	r5, #32
 1285 0044 E4E7     		b	.L81
 1286              		.cfi_endproc
 1287              	.LFE189:
 1289              		.section	.text.lv_imagebutton_get_src_left,"ax",%progbits
 1290              		.align	1
ARM GAS  C:\Users\28576\AppData\Local\Temp\ccrhsjx7.s 			page 40


 1291              		.global	lv_imagebutton_get_src_left
 1292              		.syntax unified
 1293              		.thumb
 1294              		.thumb_func
 1296              	lv_imagebutton_get_src_left:
 1297              	.LVL142:
 1298              	.LFB190:
 118:../../Middlewares/LVGL/GUI/lvgl/src/widgets/imagebutton/lv_imagebutton.c ****     LV_ASSERT_OBJ(obj, MY_CLASS);
 1299              		.loc 1 118 1 is_stmt 1 view -0
 1300              		.cfi_startproc
 1301              		@ args = 0, pretend = 0, frame = 0
 1302              		@ frame_needed = 0, uses_anonymous_args = 0
 1303              		@ link register save eliminated.
 119:../../Middlewares/LVGL/GUI/lvgl/src/widgets/imagebutton/lv_imagebutton.c **** 
 1304              		.loc 1 119 5 view .LVU405
 119:../../Middlewares/LVGL/GUI/lvgl/src/widgets/imagebutton/lv_imagebutton.c **** 
 1305              		.loc 1 119 5 view .LVU406
 1306 0000 20B1     		cbz	r0, .L89
 119:../../Middlewares/LVGL/GUI/lvgl/src/widgets/imagebutton/lv_imagebutton.c **** 
 1307              		.loc 1 119 5 view .LVU407
 119:../../Middlewares/LVGL/GUI/lvgl/src/widgets/imagebutton/lv_imagebutton.c **** 
 1308              		.loc 1 119 33 view .LVU408
 121:../../Middlewares/LVGL/GUI/lvgl/src/widgets/imagebutton/lv_imagebutton.c **** 
 1309              		.loc 1 121 5 view .LVU409
 1310              	.LVL143:
 123:../../Middlewares/LVGL/GUI/lvgl/src/widgets/imagebutton/lv_imagebutton.c **** }
 1311              		.loc 1 123 5 view .LVU410
 123:../../Middlewares/LVGL/GUI/lvgl/src/widgets/imagebutton/lv_imagebutton.c **** }
 1312              		.loc 1 123 40 is_stmt 0 view .LVU411
 1313 0002 00EB0113 		add	r3, r0, r1, lsl #4
 124:../../Middlewares/LVGL/GUI/lvgl/src/widgets/imagebutton/lv_imagebutton.c **** 
 1314              		.loc 1 124 1 view .LVU412
 1315 0006 D3F88C00 		ldr	r0, [r3, #140]
 1316              	.LVL144:
 124:../../Middlewares/LVGL/GUI/lvgl/src/widgets/imagebutton/lv_imagebutton.c **** 
 1317              		.loc 1 124 1 view .LVU413
 1318 000a 7047     		bx	lr
 1319              	.LVL145:
 1320              	.L89:
 119:../../Middlewares/LVGL/GUI/lvgl/src/widgets/imagebutton/lv_imagebutton.c **** 
 1321              		.loc 1 119 5 is_stmt 1 view .LVU414
 119:../../Middlewares/LVGL/GUI/lvgl/src/widgets/imagebutton/lv_imagebutton.c **** 
 1322              		.loc 1 119 5 view .LVU415
 119:../../Middlewares/LVGL/GUI/lvgl/src/widgets/imagebutton/lv_imagebutton.c **** 
 1323              		.loc 1 119 5 view .LVU416
 119:../../Middlewares/LVGL/GUI/lvgl/src/widgets/imagebutton/lv_imagebutton.c **** 
 1324              		.loc 1 119 5 view .LVU417
 119:../../Middlewares/LVGL/GUI/lvgl/src/widgets/imagebutton/lv_imagebutton.c **** 
 1325              		.loc 1 119 5 view .LVU418
 1326 000c FEE7     		b	.L89
 1327              		.cfi_endproc
 1328              	.LFE190:
 1330              		.section	.text.lv_imagebutton_get_src_middle,"ax",%progbits
 1331              		.align	1
 1332              		.global	lv_imagebutton_get_src_middle
 1333              		.syntax unified
 1334              		.thumb
ARM GAS  C:\Users\28576\AppData\Local\Temp\ccrhsjx7.s 			page 41


 1335              		.thumb_func
 1337              	lv_imagebutton_get_src_middle:
 1338              	.LVL146:
 1339              	.LFB191:
 127:../../Middlewares/LVGL/GUI/lvgl/src/widgets/imagebutton/lv_imagebutton.c ****     LV_ASSERT_OBJ(obj, MY_CLASS);
 1340              		.loc 1 127 1 view -0
 1341              		.cfi_startproc
 1342              		@ args = 0, pretend = 0, frame = 0
 1343              		@ frame_needed = 0, uses_anonymous_args = 0
 1344              		@ link register save eliminated.
 128:../../Middlewares/LVGL/GUI/lvgl/src/widgets/imagebutton/lv_imagebutton.c ****     lv_imagebutton_t * imagebutton = (lv_imagebutton_t *)obj;
 1345              		.loc 1 128 5 view .LVU420
 128:../../Middlewares/LVGL/GUI/lvgl/src/widgets/imagebutton/lv_imagebutton.c ****     lv_imagebutton_t * imagebutton = (lv_imagebutton_t *)obj;
 1346              		.loc 1 128 5 view .LVU421
 1347 0000 18B1     		cbz	r0, .L92
 128:../../Middlewares/LVGL/GUI/lvgl/src/widgets/imagebutton/lv_imagebutton.c ****     lv_imagebutton_t * imagebutton = (lv_imagebutton_t *)obj;
 1348              		.loc 1 128 5 view .LVU422
 128:../../Middlewares/LVGL/GUI/lvgl/src/widgets/imagebutton/lv_imagebutton.c ****     lv_imagebutton_t * imagebutton = (lv_imagebutton_t *)obj;
 1349              		.loc 1 128 33 view .LVU423
 129:../../Middlewares/LVGL/GUI/lvgl/src/widgets/imagebutton/lv_imagebutton.c **** 
 1350              		.loc 1 129 5 view .LVU424
 1351              	.LVL147:
 131:../../Middlewares/LVGL/GUI/lvgl/src/widgets/imagebutton/lv_imagebutton.c **** }
 1352              		.loc 1 131 5 view .LVU425
 131:../../Middlewares/LVGL/GUI/lvgl/src/widgets/imagebutton/lv_imagebutton.c **** }
 1353              		.loc 1 131 39 is_stmt 0 view .LVU426
 1354 0002 00EB0113 		add	r3, r0, r1, lsl #4
 132:../../Middlewares/LVGL/GUI/lvgl/src/widgets/imagebutton/lv_imagebutton.c **** 
 1355              		.loc 1 132 1 view .LVU427
 1356 0006 D86A     		ldr	r0, [r3, #44]
 1357              	.LVL148:
 132:../../Middlewares/LVGL/GUI/lvgl/src/widgets/imagebutton/lv_imagebutton.c **** 
 1358              		.loc 1 132 1 view .LVU428
 1359 0008 7047     		bx	lr
 1360              	.LVL149:
 1361              	.L92:
 128:../../Middlewares/LVGL/GUI/lvgl/src/widgets/imagebutton/lv_imagebutton.c ****     lv_imagebutton_t * imagebutton = (lv_imagebutton_t *)obj;
 1362              		.loc 1 128 5 is_stmt 1 view .LVU429
 128:../../Middlewares/LVGL/GUI/lvgl/src/widgets/imagebutton/lv_imagebutton.c ****     lv_imagebutton_t * imagebutton = (lv_imagebutton_t *)obj;
 1363              		.loc 1 128 5 view .LVU430
 128:../../Middlewares/LVGL/GUI/lvgl/src/widgets/imagebutton/lv_imagebutton.c ****     lv_imagebutton_t * imagebutton = (lv_imagebutton_t *)obj;
 1364              		.loc 1 128 5 view .LVU431
 128:../../Middlewares/LVGL/GUI/lvgl/src/widgets/imagebutton/lv_imagebutton.c ****     lv_imagebutton_t * imagebutton = (lv_imagebutton_t *)obj;
 1365              		.loc 1 128 5 view .LVU432
 128:../../Middlewares/LVGL/GUI/lvgl/src/widgets/imagebutton/lv_imagebutton.c ****     lv_imagebutton_t * imagebutton = (lv_imagebutton_t *)obj;
 1366              		.loc 1 128 5 view .LVU433
 1367 000a FEE7     		b	.L92
 1368              		.cfi_endproc
 1369              	.LFE191:
 1371              		.section	.text.lv_imagebutton_get_src_right,"ax",%progbits
 1372              		.align	1
 1373              		.global	lv_imagebutton_get_src_right
 1374              		.syntax unified
 1375              		.thumb
 1376              		.thumb_func
 1378              	lv_imagebutton_get_src_right:
 1379              	.LVL150:
ARM GAS  C:\Users\28576\AppData\Local\Temp\ccrhsjx7.s 			page 42


 1380              	.LFB192:
 135:../../Middlewares/LVGL/GUI/lvgl/src/widgets/imagebutton/lv_imagebutton.c ****     LV_ASSERT_OBJ(obj, MY_CLASS);
 1381              		.loc 1 135 1 view -0
 1382              		.cfi_startproc
 1383              		@ args = 0, pretend = 0, frame = 0
 1384              		@ frame_needed = 0, uses_anonymous_args = 0
 1385              		@ link register save eliminated.
 136:../../Middlewares/LVGL/GUI/lvgl/src/widgets/imagebutton/lv_imagebutton.c ****     lv_imagebutton_t * imagebutton = (lv_imagebutton_t *)obj;
 1386              		.loc 1 136 5 view .LVU435
 136:../../Middlewares/LVGL/GUI/lvgl/src/widgets/imagebutton/lv_imagebutton.c ****     lv_imagebutton_t * imagebutton = (lv_imagebutton_t *)obj;
 1387              		.loc 1 136 5 view .LVU436
 1388 0000 20B1     		cbz	r0, .L95
 136:../../Middlewares/LVGL/GUI/lvgl/src/widgets/imagebutton/lv_imagebutton.c ****     lv_imagebutton_t * imagebutton = (lv_imagebutton_t *)obj;
 1389              		.loc 1 136 5 view .LVU437
 136:../../Middlewares/LVGL/GUI/lvgl/src/widgets/imagebutton/lv_imagebutton.c ****     lv_imagebutton_t * imagebutton = (lv_imagebutton_t *)obj;
 1390              		.loc 1 136 33 view .LVU438
 137:../../Middlewares/LVGL/GUI/lvgl/src/widgets/imagebutton/lv_imagebutton.c **** 
 1391              		.loc 1 137 5 view .LVU439
 1392              	.LVL151:
 139:../../Middlewares/LVGL/GUI/lvgl/src/widgets/imagebutton/lv_imagebutton.c **** }
 1393              		.loc 1 139 5 view .LVU440
 139:../../Middlewares/LVGL/GUI/lvgl/src/widgets/imagebutton/lv_imagebutton.c **** }
 1394              		.loc 1 139 41 is_stmt 0 view .LVU441
 1395 0002 00EB0113 		add	r3, r0, r1, lsl #4
 140:../../Middlewares/LVGL/GUI/lvgl/src/widgets/imagebutton/lv_imagebutton.c **** 
 1396              		.loc 1 140 1 view .LVU442
 1397 0006 D3F8EC00 		ldr	r0, [r3, #236]
 1398              	.LVL152:
 140:../../Middlewares/LVGL/GUI/lvgl/src/widgets/imagebutton/lv_imagebutton.c **** 
 1399              		.loc 1 140 1 view .LVU443
 1400 000a 7047     		bx	lr
 1401              	.LVL153:
 1402              	.L95:
 136:../../Middlewares/LVGL/GUI/lvgl/src/widgets/imagebutton/lv_imagebutton.c ****     lv_imagebutton_t * imagebutton = (lv_imagebutton_t *)obj;
 1403              		.loc 1 136 5 is_stmt 1 view .LVU444
 136:../../Middlewares/LVGL/GUI/lvgl/src/widgets/imagebutton/lv_imagebutton.c ****     lv_imagebutton_t * imagebutton = (lv_imagebutton_t *)obj;
 1404              		.loc 1 136 5 view .LVU445
 136:../../Middlewares/LVGL/GUI/lvgl/src/widgets/imagebutton/lv_imagebutton.c ****     lv_imagebutton_t * imagebutton = (lv_imagebutton_t *)obj;
 1405              		.loc 1 136 5 view .LVU446
 136:../../Middlewares/LVGL/GUI/lvgl/src/widgets/imagebutton/lv_imagebutton.c ****     lv_imagebutton_t * imagebutton = (lv_imagebutton_t *)obj;
 1406              		.loc 1 136 5 view .LVU447
 136:../../Middlewares/LVGL/GUI/lvgl/src/widgets/imagebutton/lv_imagebutton.c ****     lv_imagebutton_t * imagebutton = (lv_imagebutton_t *)obj;
 1407              		.loc 1 136 5 view .LVU448
 1408 000c FEE7     		b	.L95
 1409              		.cfi_endproc
 1410              	.LFE192:
 1412              		.global	lv_imagebutton_class
 1413              		.section	.rodata.str1.4,"aMS",%progbits,1
 1414              		.align	2
 1415              	.LC0:
 1416 0000 6C765F69 		.ascii	"lv_imagebutton\000"
 1416      6D616765 
 1416      62757474 
 1416      6F6E00
 1417              		.section	.rodata.lv_imagebutton_class,"a"
 1418              		.align	2
 1421              	lv_imagebutton_class:
ARM GAS  C:\Users\28576\AppData\Local\Temp\ccrhsjx7.s 			page 43


 1422 0000 00000000 		.word	lv_obj_class
 1423 0004 00000000 		.word	lv_imagebutton_constructor
 1424 0008 00000000 		.space	4
 1425 000c 00000000 		.word	lv_imagebutton_event
 1426 0010 00000000 		.space	4
 1427 0014 00000000 		.word	.LC0
 1428 0018 FFFFFF3F 		.word	1073741823
 1429 001c FFFFFF3F 		.word	1073741823
 1430 0020 C0       		.byte	192
 1431 0021 14       		.byte	20
 1432 0022 00       		.byte	0
 1433 0023 00       		.space	1
 1434              		.text
 1435              	.Letext0:
 1436              		.file 5 "C:/Users/28576/AppData/Roaming/xPacks/@xpack-dev-tools/arm-none-eabi-gcc/15.2.1-1.1.1/.co
 1437              		.file 6 "C:/Users/28576/AppData/Roaming/xPacks/@xpack-dev-tools/arm-none-eabi-gcc/15.2.1-1.1.1/.co
 1438              		.file 7 "C:/Users/28576/AppData/Roaming/xPacks/@xpack-dev-tools/arm-none-eabi-gcc/15.2.1-1.1.1/.co
 1439              		.file 8 "H:/STM32H7/RGB_LVGL/Middlewares/LVGL/GUI/lvgl/src/misc/lv_types.h"
 1440              		.file 9 "H:/STM32H7/RGB_LVGL/Middlewares/LVGL/GUI/lvgl/src/core/lv_obj_private.h"
 1441              		.file 10 "H:/STM32H7/RGB_LVGL/Middlewares/LVGL/GUI/lvgl/src/core/lv_obj_class_private.h"
 1442              		.file 11 "H:/STM32H7/RGB_LVGL/Middlewares/LVGL/GUI/lvgl/src/draw/lv_draw.h"
 1443              		.file 12 "H:/STM32H7/RGB_LVGL/Middlewares/LVGL/GUI/lvgl/src/draw/lv_draw_private.h"
 1444              		.file 13 "H:/STM32H7/RGB_LVGL/Middlewares/LVGL/GUI/lvgl/src/draw/lv_draw_image.h"
 1445              		.file 14 "H:/STM32H7/RGB_LVGL/Middlewares/LVGL/GUI/lvgl/src/core/lv_obj_event_private.h"
 1446              		.file 15 "../../Middlewares/LVGL/GUI/lvgl/src/widgets/imagebutton/lv_imagebutton_private.h"
 1447              		.file 16 "H:/STM32H7/RGB_LVGL/Middlewares/LVGL/GUI/lvgl/src/misc/lv_array.h"
 1448              		.file 17 "H:/STM32H7/RGB_LVGL/Middlewares/LVGL/GUI/lvgl/src/draw/lv_draw_buf.h"
 1449              		.file 18 "H:/STM32H7/RGB_LVGL/Middlewares/LVGL/GUI/lvgl/src/misc/lv_color.h"
 1450              		.file 19 "H:/STM32H7/RGB_LVGL/Middlewares/LVGL/GUI/lvgl/src/draw/lv_image_dsc.h"
 1451              		.file 20 "H:/STM32H7/RGB_LVGL/Middlewares/LVGL/GUI/lvgl/src/misc/lv_style.h"
 1452              		.file 21 "H:/STM32H7/RGB_LVGL/Middlewares/LVGL/GUI/lvgl/src/misc/lv_event.h"
 1453              		.file 22 "H:/STM32H7/RGB_LVGL/Middlewares/LVGL/GUI/lvgl/src/indev/lv_indev.h"
 1454              		.file 23 "H:/STM32H7/RGB_LVGL/Middlewares/LVGL/GUI/lvgl/src/core/lv_obj_event.h"
 1455              		.file 24 "H:/STM32H7/RGB_LVGL/Middlewares/LVGL/GUI/lvgl/src/core/lv_obj.h"
 1456              		.file 25 "../../Middlewares/LVGL/GUI/lvgl/src/widgets/imagebutton/lv_imagebutton.h"
 1457              		.file 26 "H:/STM32H7/RGB_LVGL/Middlewares/LVGL/GUI/lvgl/src/core/lv_obj_class.h"
 1458              		.file 27 "H:/STM32H7/RGB_LVGL/Middlewares/LVGL/GUI/lvgl/src/draw/lv_image_decoder.h"
 1459              		.file 28 "H:/STM32H7/RGB_LVGL/Middlewares/LVGL/GUI/lvgl/src/core/lv_obj_style.h"
 1460              		.file 29 "H:/STM32H7/RGB_LVGL/Middlewares/LVGL/GUI/lvgl/src/misc/lv_area_private.h"
 1461              		.file 30 "H:/STM32H7/RGB_LVGL/Middlewares/LVGL/GUI/lvgl/src/core/lv_obj_draw.h"
 1462              		.file 31 "H:/STM32H7/RGB_LVGL/Middlewares/LVGL/GUI/lvgl/src/core/lv_obj_pos.h"
ARM GAS  C:\Users\28576\AppData\Local\Temp\ccrhsjx7.s 			page 44

