ARM GAS  C:\Users\28576\AppData\Local\Temp\cc8hT1yr.s 			page 1


   1              		.cpu cortex-m7
   2              		.arch armv7e-m
   3              		.fpu fpv5-d16
   4              		.eabi_attribute 28, 1
   5              		.eabi_attribute 20, 1
   6              		.eabi_attribute 21, 1
   7              		.eabi_attribute 23, 3
   8              		.eabi_attribute 24, 1
   9              		.eabi_attribute 25, 1
  10              		.eabi_attribute 26, 1
  11              		.eabi_attribute 30, 1
  12              		.eabi_attribute 34, 1
  13              		.eabi_attribute 18, 4
  14              		.file	"lv_image_header_cache.c"
  15              		.text
  16              	.Ltext0:
  17              		.cfi_sections	.debug_frame
  18              		.file 1 "../../Middlewares/LVGL/GUI/lvgl/src/misc/cache/instance/lv_image_header_cache.c"
  19              		.section	.text.image_header_cache_free_cb,"ax",%progbits
  20              		.align	1
  21              		.syntax unified
  22              		.thumb
  23              		.thumb_func
  25              	image_header_cache_free_cb:
  26              	.LVL0:
  27              	.LFB195:
   1:../../Middlewares/LVGL/GUI/lvgl/src/misc/cache/instance/lv_image_header_cache.c **** /**
   2:../../Middlewares/LVGL/GUI/lvgl/src/misc/cache/instance/lv_image_header_cache.c **** * @file lv_image_header_cache.c
   3:../../Middlewares/LVGL/GUI/lvgl/src/misc/cache/instance/lv_image_header_cache.c **** *
   4:../../Middlewares/LVGL/GUI/lvgl/src/misc/cache/instance/lv_image_header_cache.c ****  */
   5:../../Middlewares/LVGL/GUI/lvgl/src/misc/cache/instance/lv_image_header_cache.c **** 
   6:../../Middlewares/LVGL/GUI/lvgl/src/misc/cache/instance/lv_image_header_cache.c **** /*********************
   7:../../Middlewares/LVGL/GUI/lvgl/src/misc/cache/instance/lv_image_header_cache.c ****  *      INCLUDES
   8:../../Middlewares/LVGL/GUI/lvgl/src/misc/cache/instance/lv_image_header_cache.c ****  *********************/
   9:../../Middlewares/LVGL/GUI/lvgl/src/misc/cache/instance/lv_image_header_cache.c **** 
  10:../../Middlewares/LVGL/GUI/lvgl/src/misc/cache/instance/lv_image_header_cache.c **** #include "../../../draw/lv_image_decoder_private.h"
  11:../../Middlewares/LVGL/GUI/lvgl/src/misc/cache/instance/lv_image_header_cache.c **** #include "../../lv_assert.h"
  12:../../Middlewares/LVGL/GUI/lvgl/src/misc/cache/instance/lv_image_header_cache.c **** #include "../../../core/lv_global.h"
  13:../../Middlewares/LVGL/GUI/lvgl/src/misc/cache/instance/lv_image_header_cache.c **** 
  14:../../Middlewares/LVGL/GUI/lvgl/src/misc/cache/instance/lv_image_header_cache.c **** #include "lv_image_header_cache.h"
  15:../../Middlewares/LVGL/GUI/lvgl/src/misc/cache/instance/lv_image_header_cache.c **** #include "../../lv_iter.h"
  16:../../Middlewares/LVGL/GUI/lvgl/src/misc/cache/instance/lv_image_header_cache.c **** 
  17:../../Middlewares/LVGL/GUI/lvgl/src/misc/cache/instance/lv_image_header_cache.c **** /*********************
  18:../../Middlewares/LVGL/GUI/lvgl/src/misc/cache/instance/lv_image_header_cache.c ****  *      DEFINES
  19:../../Middlewares/LVGL/GUI/lvgl/src/misc/cache/instance/lv_image_header_cache.c ****  *********************/
  20:../../Middlewares/LVGL/GUI/lvgl/src/misc/cache/instance/lv_image_header_cache.c **** 
  21:../../Middlewares/LVGL/GUI/lvgl/src/misc/cache/instance/lv_image_header_cache.c **** #define CACHE_NAME  "IMAGE_HEADER"
  22:../../Middlewares/LVGL/GUI/lvgl/src/misc/cache/instance/lv_image_header_cache.c **** 
  23:../../Middlewares/LVGL/GUI/lvgl/src/misc/cache/instance/lv_image_header_cache.c **** #define img_header_cache_p (LV_GLOBAL_DEFAULT()->img_header_cache)
  24:../../Middlewares/LVGL/GUI/lvgl/src/misc/cache/instance/lv_image_header_cache.c **** 
  25:../../Middlewares/LVGL/GUI/lvgl/src/misc/cache/instance/lv_image_header_cache.c **** /**********************
  26:../../Middlewares/LVGL/GUI/lvgl/src/misc/cache/instance/lv_image_header_cache.c ****  *      TYPEDEFS
  27:../../Middlewares/LVGL/GUI/lvgl/src/misc/cache/instance/lv_image_header_cache.c ****  **********************/
  28:../../Middlewares/LVGL/GUI/lvgl/src/misc/cache/instance/lv_image_header_cache.c **** 
  29:../../Middlewares/LVGL/GUI/lvgl/src/misc/cache/instance/lv_image_header_cache.c **** /**********************
  30:../../Middlewares/LVGL/GUI/lvgl/src/misc/cache/instance/lv_image_header_cache.c ****  *  STATIC PROTOTYPES
  31:../../Middlewares/LVGL/GUI/lvgl/src/misc/cache/instance/lv_image_header_cache.c ****  **********************/
ARM GAS  C:\Users\28576\AppData\Local\Temp\cc8hT1yr.s 			page 2


  32:../../Middlewares/LVGL/GUI/lvgl/src/misc/cache/instance/lv_image_header_cache.c **** 
  33:../../Middlewares/LVGL/GUI/lvgl/src/misc/cache/instance/lv_image_header_cache.c **** static lv_cache_compare_res_t image_header_cache_compare_cb(const lv_image_header_cache_data_t * lh
  34:../../Middlewares/LVGL/GUI/lvgl/src/misc/cache/instance/lv_image_header_cache.c ****                                                             const lv_image_header_cache_data_t * rh
  35:../../Middlewares/LVGL/GUI/lvgl/src/misc/cache/instance/lv_image_header_cache.c **** static void image_header_cache_free_cb(lv_image_header_cache_data_t * entry, void * user_data);
  36:../../Middlewares/LVGL/GUI/lvgl/src/misc/cache/instance/lv_image_header_cache.c **** static void iter_inspect_cb(void * elem);
  37:../../Middlewares/LVGL/GUI/lvgl/src/misc/cache/instance/lv_image_header_cache.c **** 
  38:../../Middlewares/LVGL/GUI/lvgl/src/misc/cache/instance/lv_image_header_cache.c **** /**********************
  39:../../Middlewares/LVGL/GUI/lvgl/src/misc/cache/instance/lv_image_header_cache.c ****  *  GLOBAL VARIABLES
  40:../../Middlewares/LVGL/GUI/lvgl/src/misc/cache/instance/lv_image_header_cache.c ****  **********************/
  41:../../Middlewares/LVGL/GUI/lvgl/src/misc/cache/instance/lv_image_header_cache.c **** 
  42:../../Middlewares/LVGL/GUI/lvgl/src/misc/cache/instance/lv_image_header_cache.c **** /**********************
  43:../../Middlewares/LVGL/GUI/lvgl/src/misc/cache/instance/lv_image_header_cache.c ****  *  STATIC VARIABLES
  44:../../Middlewares/LVGL/GUI/lvgl/src/misc/cache/instance/lv_image_header_cache.c ****  **********************/
  45:../../Middlewares/LVGL/GUI/lvgl/src/misc/cache/instance/lv_image_header_cache.c **** 
  46:../../Middlewares/LVGL/GUI/lvgl/src/misc/cache/instance/lv_image_header_cache.c **** /**********************
  47:../../Middlewares/LVGL/GUI/lvgl/src/misc/cache/instance/lv_image_header_cache.c ****  *      MACROS
  48:../../Middlewares/LVGL/GUI/lvgl/src/misc/cache/instance/lv_image_header_cache.c ****  **********************/
  49:../../Middlewares/LVGL/GUI/lvgl/src/misc/cache/instance/lv_image_header_cache.c **** 
  50:../../Middlewares/LVGL/GUI/lvgl/src/misc/cache/instance/lv_image_header_cache.c **** /**********************
  51:../../Middlewares/LVGL/GUI/lvgl/src/misc/cache/instance/lv_image_header_cache.c ****  *   GLOBAL FUNCTIONS
  52:../../Middlewares/LVGL/GUI/lvgl/src/misc/cache/instance/lv_image_header_cache.c ****  **********************/
  53:../../Middlewares/LVGL/GUI/lvgl/src/misc/cache/instance/lv_image_header_cache.c **** 
  54:../../Middlewares/LVGL/GUI/lvgl/src/misc/cache/instance/lv_image_header_cache.c **** lv_result_t lv_image_header_cache_init(uint32_t count)
  55:../../Middlewares/LVGL/GUI/lvgl/src/misc/cache/instance/lv_image_header_cache.c **** {
  56:../../Middlewares/LVGL/GUI/lvgl/src/misc/cache/instance/lv_image_header_cache.c ****     if(img_header_cache_p != NULL) {
  57:../../Middlewares/LVGL/GUI/lvgl/src/misc/cache/instance/lv_image_header_cache.c ****         return LV_RESULT_OK;
  58:../../Middlewares/LVGL/GUI/lvgl/src/misc/cache/instance/lv_image_header_cache.c ****     }
  59:../../Middlewares/LVGL/GUI/lvgl/src/misc/cache/instance/lv_image_header_cache.c **** 
  60:../../Middlewares/LVGL/GUI/lvgl/src/misc/cache/instance/lv_image_header_cache.c ****     img_header_cache_p = lv_cache_create(&lv_cache_class_lru_rb_count,
  61:../../Middlewares/LVGL/GUI/lvgl/src/misc/cache/instance/lv_image_header_cache.c ****     sizeof(lv_image_header_cache_data_t), count, (lv_cache_ops_t) {
  62:../../Middlewares/LVGL/GUI/lvgl/src/misc/cache/instance/lv_image_header_cache.c ****         .compare_cb = (lv_cache_compare_cb_t) image_header_cache_compare_cb,
  63:../../Middlewares/LVGL/GUI/lvgl/src/misc/cache/instance/lv_image_header_cache.c ****         .create_cb = NULL,
  64:../../Middlewares/LVGL/GUI/lvgl/src/misc/cache/instance/lv_image_header_cache.c ****         .free_cb = (lv_cache_free_cb_t) image_header_cache_free_cb
  65:../../Middlewares/LVGL/GUI/lvgl/src/misc/cache/instance/lv_image_header_cache.c ****     });
  66:../../Middlewares/LVGL/GUI/lvgl/src/misc/cache/instance/lv_image_header_cache.c **** 
  67:../../Middlewares/LVGL/GUI/lvgl/src/misc/cache/instance/lv_image_header_cache.c ****     lv_cache_set_name(img_header_cache_p, CACHE_NAME);
  68:../../Middlewares/LVGL/GUI/lvgl/src/misc/cache/instance/lv_image_header_cache.c ****     return img_header_cache_p != NULL ? LV_RESULT_OK : LV_RESULT_INVALID;
  69:../../Middlewares/LVGL/GUI/lvgl/src/misc/cache/instance/lv_image_header_cache.c **** }
  70:../../Middlewares/LVGL/GUI/lvgl/src/misc/cache/instance/lv_image_header_cache.c **** 
  71:../../Middlewares/LVGL/GUI/lvgl/src/misc/cache/instance/lv_image_header_cache.c **** void lv_image_header_cache_resize(uint32_t count, bool evict_now)
  72:../../Middlewares/LVGL/GUI/lvgl/src/misc/cache/instance/lv_image_header_cache.c **** {
  73:../../Middlewares/LVGL/GUI/lvgl/src/misc/cache/instance/lv_image_header_cache.c ****     lv_cache_set_max_size(img_header_cache_p, count, NULL);
  74:../../Middlewares/LVGL/GUI/lvgl/src/misc/cache/instance/lv_image_header_cache.c ****     if(evict_now) {
  75:../../Middlewares/LVGL/GUI/lvgl/src/misc/cache/instance/lv_image_header_cache.c ****         lv_cache_reserve(img_header_cache_p, count, NULL);
  76:../../Middlewares/LVGL/GUI/lvgl/src/misc/cache/instance/lv_image_header_cache.c ****     }
  77:../../Middlewares/LVGL/GUI/lvgl/src/misc/cache/instance/lv_image_header_cache.c **** }
  78:../../Middlewares/LVGL/GUI/lvgl/src/misc/cache/instance/lv_image_header_cache.c **** 
  79:../../Middlewares/LVGL/GUI/lvgl/src/misc/cache/instance/lv_image_header_cache.c **** void lv_image_header_cache_drop(const void * src)
  80:../../Middlewares/LVGL/GUI/lvgl/src/misc/cache/instance/lv_image_header_cache.c **** {
  81:../../Middlewares/LVGL/GUI/lvgl/src/misc/cache/instance/lv_image_header_cache.c ****     if(src == NULL) {
  82:../../Middlewares/LVGL/GUI/lvgl/src/misc/cache/instance/lv_image_header_cache.c ****         lv_cache_drop_all(img_header_cache_p, NULL);
  83:../../Middlewares/LVGL/GUI/lvgl/src/misc/cache/instance/lv_image_header_cache.c ****         return;
  84:../../Middlewares/LVGL/GUI/lvgl/src/misc/cache/instance/lv_image_header_cache.c ****     }
  85:../../Middlewares/LVGL/GUI/lvgl/src/misc/cache/instance/lv_image_header_cache.c **** 
  86:../../Middlewares/LVGL/GUI/lvgl/src/misc/cache/instance/lv_image_header_cache.c ****     lv_image_header_cache_data_t search_key = {
  87:../../Middlewares/LVGL/GUI/lvgl/src/misc/cache/instance/lv_image_header_cache.c ****         .src = src,
  88:../../Middlewares/LVGL/GUI/lvgl/src/misc/cache/instance/lv_image_header_cache.c ****         .src_type = lv_image_src_get_type(src),
ARM GAS  C:\Users\28576\AppData\Local\Temp\cc8hT1yr.s 			page 3


  89:../../Middlewares/LVGL/GUI/lvgl/src/misc/cache/instance/lv_image_header_cache.c ****     };
  90:../../Middlewares/LVGL/GUI/lvgl/src/misc/cache/instance/lv_image_header_cache.c **** 
  91:../../Middlewares/LVGL/GUI/lvgl/src/misc/cache/instance/lv_image_header_cache.c ****     lv_cache_drop(img_header_cache_p, &search_key, NULL);
  92:../../Middlewares/LVGL/GUI/lvgl/src/misc/cache/instance/lv_image_header_cache.c **** }
  93:../../Middlewares/LVGL/GUI/lvgl/src/misc/cache/instance/lv_image_header_cache.c **** 
  94:../../Middlewares/LVGL/GUI/lvgl/src/misc/cache/instance/lv_image_header_cache.c **** bool lv_image_header_cache_is_enabled(void)
  95:../../Middlewares/LVGL/GUI/lvgl/src/misc/cache/instance/lv_image_header_cache.c **** {
  96:../../Middlewares/LVGL/GUI/lvgl/src/misc/cache/instance/lv_image_header_cache.c ****     return lv_cache_is_enabled(img_header_cache_p);
  97:../../Middlewares/LVGL/GUI/lvgl/src/misc/cache/instance/lv_image_header_cache.c **** }
  98:../../Middlewares/LVGL/GUI/lvgl/src/misc/cache/instance/lv_image_header_cache.c **** 
  99:../../Middlewares/LVGL/GUI/lvgl/src/misc/cache/instance/lv_image_header_cache.c **** lv_iter_t * lv_image_header_cache_iter_create(void)
 100:../../Middlewares/LVGL/GUI/lvgl/src/misc/cache/instance/lv_image_header_cache.c **** {
 101:../../Middlewares/LVGL/GUI/lvgl/src/misc/cache/instance/lv_image_header_cache.c ****     return lv_cache_iter_create(img_header_cache_p);
 102:../../Middlewares/LVGL/GUI/lvgl/src/misc/cache/instance/lv_image_header_cache.c **** }
 103:../../Middlewares/LVGL/GUI/lvgl/src/misc/cache/instance/lv_image_header_cache.c **** 
 104:../../Middlewares/LVGL/GUI/lvgl/src/misc/cache/instance/lv_image_header_cache.c **** void lv_image_header_cache_dump(void)
 105:../../Middlewares/LVGL/GUI/lvgl/src/misc/cache/instance/lv_image_header_cache.c **** {
 106:../../Middlewares/LVGL/GUI/lvgl/src/misc/cache/instance/lv_image_header_cache.c ****     lv_iter_t * iter = lv_image_cache_iter_create();
 107:../../Middlewares/LVGL/GUI/lvgl/src/misc/cache/instance/lv_image_header_cache.c ****     if(iter == NULL) return;
 108:../../Middlewares/LVGL/GUI/lvgl/src/misc/cache/instance/lv_image_header_cache.c **** 
 109:../../Middlewares/LVGL/GUI/lvgl/src/misc/cache/instance/lv_image_header_cache.c ****     LV_LOG_USER("Image cache dump:");
 110:../../Middlewares/LVGL/GUI/lvgl/src/misc/cache/instance/lv_image_header_cache.c ****     LV_LOG_USER("\tsize\tdata_size\tcf\trc\ttype\tdecoded\t\t\tsrc");
 111:../../Middlewares/LVGL/GUI/lvgl/src/misc/cache/instance/lv_image_header_cache.c ****     lv_iter_inspect(iter, iter_inspect_cb);
 112:../../Middlewares/LVGL/GUI/lvgl/src/misc/cache/instance/lv_image_header_cache.c **** }
 113:../../Middlewares/LVGL/GUI/lvgl/src/misc/cache/instance/lv_image_header_cache.c **** 
 114:../../Middlewares/LVGL/GUI/lvgl/src/misc/cache/instance/lv_image_header_cache.c **** /**********************
 115:../../Middlewares/LVGL/GUI/lvgl/src/misc/cache/instance/lv_image_header_cache.c ****  *   STATIC FUNCTIONS
 116:../../Middlewares/LVGL/GUI/lvgl/src/misc/cache/instance/lv_image_header_cache.c ****  **********************/
 117:../../Middlewares/LVGL/GUI/lvgl/src/misc/cache/instance/lv_image_header_cache.c **** 
 118:../../Middlewares/LVGL/GUI/lvgl/src/misc/cache/instance/lv_image_header_cache.c **** inline static lv_cache_compare_res_t image_cache_common_compare(const void * lhs_src, lv_image_src_
 119:../../Middlewares/LVGL/GUI/lvgl/src/misc/cache/instance/lv_image_header_cache.c ****                                                                 const void * rhs_src, lv_image_src_
 120:../../Middlewares/LVGL/GUI/lvgl/src/misc/cache/instance/lv_image_header_cache.c **** {
 121:../../Middlewares/LVGL/GUI/lvgl/src/misc/cache/instance/lv_image_header_cache.c ****     if(lhs_src_type == rhs_src_type) {
 122:../../Middlewares/LVGL/GUI/lvgl/src/misc/cache/instance/lv_image_header_cache.c ****         if(lhs_src_type == LV_IMAGE_SRC_FILE) {
 123:../../Middlewares/LVGL/GUI/lvgl/src/misc/cache/instance/lv_image_header_cache.c ****             int32_t cmp_res = lv_strcmp(lhs_src, rhs_src);
 124:../../Middlewares/LVGL/GUI/lvgl/src/misc/cache/instance/lv_image_header_cache.c ****             if(cmp_res != 0) {
 125:../../Middlewares/LVGL/GUI/lvgl/src/misc/cache/instance/lv_image_header_cache.c ****                 return cmp_res > 0 ? 1 : -1;
 126:../../Middlewares/LVGL/GUI/lvgl/src/misc/cache/instance/lv_image_header_cache.c ****             }
 127:../../Middlewares/LVGL/GUI/lvgl/src/misc/cache/instance/lv_image_header_cache.c ****         }
 128:../../Middlewares/LVGL/GUI/lvgl/src/misc/cache/instance/lv_image_header_cache.c ****         else if(lhs_src_type == LV_IMAGE_SRC_VARIABLE) {
 129:../../Middlewares/LVGL/GUI/lvgl/src/misc/cache/instance/lv_image_header_cache.c ****             if(lhs_src != rhs_src) {
 130:../../Middlewares/LVGL/GUI/lvgl/src/misc/cache/instance/lv_image_header_cache.c ****                 return lhs_src > rhs_src ? 1 : -1;
 131:../../Middlewares/LVGL/GUI/lvgl/src/misc/cache/instance/lv_image_header_cache.c ****             }
 132:../../Middlewares/LVGL/GUI/lvgl/src/misc/cache/instance/lv_image_header_cache.c ****         }
 133:../../Middlewares/LVGL/GUI/lvgl/src/misc/cache/instance/lv_image_header_cache.c ****         return 0;
 134:../../Middlewares/LVGL/GUI/lvgl/src/misc/cache/instance/lv_image_header_cache.c ****     }
 135:../../Middlewares/LVGL/GUI/lvgl/src/misc/cache/instance/lv_image_header_cache.c ****     return lhs_src_type > rhs_src_type ? 1 : -1;
 136:../../Middlewares/LVGL/GUI/lvgl/src/misc/cache/instance/lv_image_header_cache.c **** }
 137:../../Middlewares/LVGL/GUI/lvgl/src/misc/cache/instance/lv_image_header_cache.c **** 
 138:../../Middlewares/LVGL/GUI/lvgl/src/misc/cache/instance/lv_image_header_cache.c **** static lv_cache_compare_res_t image_header_cache_compare_cb(
 139:../../Middlewares/LVGL/GUI/lvgl/src/misc/cache/instance/lv_image_header_cache.c ****     const lv_image_header_cache_data_t * lhs,
 140:../../Middlewares/LVGL/GUI/lvgl/src/misc/cache/instance/lv_image_header_cache.c ****     const lv_image_header_cache_data_t * rhs)
 141:../../Middlewares/LVGL/GUI/lvgl/src/misc/cache/instance/lv_image_header_cache.c **** {
 142:../../Middlewares/LVGL/GUI/lvgl/src/misc/cache/instance/lv_image_header_cache.c ****     return image_cache_common_compare(lhs->src, lhs->src_type, rhs->src, rhs->src_type);
 143:../../Middlewares/LVGL/GUI/lvgl/src/misc/cache/instance/lv_image_header_cache.c **** }
 144:../../Middlewares/LVGL/GUI/lvgl/src/misc/cache/instance/lv_image_header_cache.c **** 
 145:../../Middlewares/LVGL/GUI/lvgl/src/misc/cache/instance/lv_image_header_cache.c **** static void image_header_cache_free_cb(lv_image_header_cache_data_t * entry, void * user_data)
ARM GAS  C:\Users\28576\AppData\Local\Temp\cc8hT1yr.s 			page 4


 146:../../Middlewares/LVGL/GUI/lvgl/src/misc/cache/instance/lv_image_header_cache.c **** {
  28              		.loc 1 146 1 view -0
  29              		.cfi_startproc
  30              		@ args = 0, pretend = 0, frame = 0
  31              		@ frame_needed = 0, uses_anonymous_args = 0
  32              		.loc 1 146 1 is_stmt 0 view .LVU1
  33 0000 08B5     		push	{r3, lr}
  34              	.LCFI0:
  35              		.cfi_def_cfa_offset 8
  36              		.cfi_offset 3, -8
  37              		.cfi_offset 14, -4
 147:../../Middlewares/LVGL/GUI/lvgl/src/misc/cache/instance/lv_image_header_cache.c ****     LV_UNUSED(user_data); /*Unused*/
  38              		.loc 1 147 5 is_stmt 1 view .LVU2
 148:../../Middlewares/LVGL/GUI/lvgl/src/misc/cache/instance/lv_image_header_cache.c **** 
 149:../../Middlewares/LVGL/GUI/lvgl/src/misc/cache/instance/lv_image_header_cache.c ****     if(entry->src_type == LV_IMAGE_SRC_FILE) lv_free((void *)entry->src);
  39              		.loc 1 149 5 view .LVU3
  40              		.loc 1 149 13 is_stmt 0 view .LVU4
  41 0002 0379     		ldrb	r3, [r0, #4]	@ zero_extendqisi2
  42              		.loc 1 149 7 view .LVU5
  43 0004 012B     		cmp	r3, #1
  44 0006 00D0     		beq	.L4
  45              	.LVL1:
  46              	.L1:
 150:../../Middlewares/LVGL/GUI/lvgl/src/misc/cache/instance/lv_image_header_cache.c **** }
  47              		.loc 1 150 1 view .LVU6
  48 0008 08BD     		pop	{r3, pc}
  49              	.LVL2:
  50              	.L4:
 149:../../Middlewares/LVGL/GUI/lvgl/src/misc/cache/instance/lv_image_header_cache.c **** }
  51              		.loc 1 149 46 is_stmt 1 discriminator 1 view .LVU7
  52 000a 0068     		ldr	r0, [r0]
  53              	.LVL3:
 149:../../Middlewares/LVGL/GUI/lvgl/src/misc/cache/instance/lv_image_header_cache.c **** }
  54              		.loc 1 149 46 is_stmt 0 discriminator 1 view .LVU8
  55 000c FFF7FEFF 		bl	lv_free
  56              	.LVL4:
  57              		.loc 1 150 1 view .LVU9
  58 0010 FAE7     		b	.L1
  59              		.cfi_endproc
  60              	.LFE195:
  62              		.section	.text.image_cache_common_compare,"ax",%progbits
  63              		.align	1
  64              		.syntax unified
  65              		.thumb
  66              		.thumb_func
  68              	image_cache_common_compare:
  69              	.LVL5:
  70              	.LFB193:
 120:../../Middlewares/LVGL/GUI/lvgl/src/misc/cache/instance/lv_image_header_cache.c ****     if(lhs_src_type == rhs_src_type) {
  71              		.loc 1 120 1 is_stmt 1 view -0
  72              		.cfi_startproc
  73              		@ args = 0, pretend = 0, frame = 0
  74              		@ frame_needed = 0, uses_anonymous_args = 0
 121:../../Middlewares/LVGL/GUI/lvgl/src/misc/cache/instance/lv_image_header_cache.c ****         if(lhs_src_type == LV_IMAGE_SRC_FILE) {
  75              		.loc 1 121 5 view .LVU11
 121:../../Middlewares/LVGL/GUI/lvgl/src/misc/cache/instance/lv_image_header_cache.c ****         if(lhs_src_type == LV_IMAGE_SRC_FILE) {
  76              		.loc 1 121 7 is_stmt 0 view .LVU12
ARM GAS  C:\Users\28576\AppData\Local\Temp\cc8hT1yr.s 			page 5


  77 0000 9942     		cmp	r1, r3
  78 0002 03D0     		beq	.L20
 135:../../Middlewares/LVGL/GUI/lvgl/src/misc/cache/instance/lv_image_header_cache.c **** }
  79              		.loc 1 135 5 is_stmt 1 view .LVU13
 135:../../Middlewares/LVGL/GUI/lvgl/src/misc/cache/instance/lv_image_header_cache.c **** }
  80              		.loc 1 135 44 is_stmt 0 view .LVU14
  81 0004 9942     		cmp	r1, r3
  82 0006 1AD9     		bls	.L14
 135:../../Middlewares/LVGL/GUI/lvgl/src/misc/cache/instance/lv_image_header_cache.c **** }
  83              		.loc 1 135 44 discriminator 1 view .LVU15
  84 0008 0120     		movs	r0, #1
  85              	.LVL6:
 135:../../Middlewares/LVGL/GUI/lvgl/src/misc/cache/instance/lv_image_header_cache.c **** }
  86              		.loc 1 135 44 discriminator 1 view .LVU16
  87 000a 7047     		bx	lr
  88              	.LVL7:
  89              	.L20:
 122:../../Middlewares/LVGL/GUI/lvgl/src/misc/cache/instance/lv_image_header_cache.c ****             int32_t cmp_res = lv_strcmp(lhs_src, rhs_src);
  90              		.loc 1 122 9 is_stmt 1 view .LVU17
 122:../../Middlewares/LVGL/GUI/lvgl/src/misc/cache/instance/lv_image_header_cache.c ****             int32_t cmp_res = lv_strcmp(lhs_src, rhs_src);
  91              		.loc 1 122 11 is_stmt 0 view .LVU18
  92 000c 0129     		cmp	r1, #1
  93 000e 05D0     		beq	.L21
 128:../../Middlewares/LVGL/GUI/lvgl/src/misc/cache/instance/lv_image_header_cache.c ****             if(lhs_src != rhs_src) {
  94              		.loc 1 128 14 is_stmt 1 view .LVU19
 128:../../Middlewares/LVGL/GUI/lvgl/src/misc/cache/instance/lv_image_header_cache.c ****             if(lhs_src != rhs_src) {
  95              		.loc 1 128 16 is_stmt 0 view .LVU20
  96 0010 C1B9     		cbnz	r1, .L16
 129:../../Middlewares/LVGL/GUI/lvgl/src/misc/cache/instance/lv_image_header_cache.c ****                 return lhs_src > rhs_src ? 1 : -1;
  97              		.loc 1 129 13 is_stmt 1 view .LVU21
 129:../../Middlewares/LVGL/GUI/lvgl/src/misc/cache/instance/lv_image_header_cache.c ****                 return lhs_src > rhs_src ? 1 : -1;
  98              		.loc 1 129 15 is_stmt 0 view .LVU22
  99 0012 9042     		cmp	r0, r2
 100 0014 16D0     		beq	.L16
 130:../../Middlewares/LVGL/GUI/lvgl/src/misc/cache/instance/lv_image_header_cache.c ****             }
 101              		.loc 1 130 17 is_stmt 1 view .LVU23
 130:../../Middlewares/LVGL/GUI/lvgl/src/misc/cache/instance/lv_image_header_cache.c ****             }
 102              		.loc 1 130 46 is_stmt 0 view .LVU24
 103 0016 0DD9     		bls	.L13
 130:../../Middlewares/LVGL/GUI/lvgl/src/misc/cache/instance/lv_image_header_cache.c ****             }
 104              		.loc 1 130 46 discriminator 1 view .LVU25
 105 0018 0120     		movs	r0, #1
 106              	.LVL8:
 130:../../Middlewares/LVGL/GUI/lvgl/src/misc/cache/instance/lv_image_header_cache.c ****             }
 107              		.loc 1 130 46 discriminator 1 view .LVU26
 108 001a 7047     		bx	lr
 109              	.LVL9:
 110              	.L21:
 120:../../Middlewares/LVGL/GUI/lvgl/src/misc/cache/instance/lv_image_header_cache.c ****     if(lhs_src_type == rhs_src_type) {
 111              		.loc 1 120 1 view .LVU27
 112 001c 08B5     		push	{r3, lr}
 113              	.LCFI1:
 114              		.cfi_def_cfa_offset 8
 115              		.cfi_offset 3, -8
 116              		.cfi_offset 14, -4
 117              	.LBB2:
 123:../../Middlewares/LVGL/GUI/lvgl/src/misc/cache/instance/lv_image_header_cache.c ****             if(cmp_res != 0) {
ARM GAS  C:\Users\28576\AppData\Local\Temp\cc8hT1yr.s 			page 6


 118              		.loc 1 123 13 is_stmt 1 view .LVU28
 123:../../Middlewares/LVGL/GUI/lvgl/src/misc/cache/instance/lv_image_header_cache.c ****             if(cmp_res != 0) {
 119              		.loc 1 123 31 is_stmt 0 view .LVU29
 120 001e 1146     		mov	r1, r2
 121              	.LVL10:
 123:../../Middlewares/LVGL/GUI/lvgl/src/misc/cache/instance/lv_image_header_cache.c ****             if(cmp_res != 0) {
 122              		.loc 1 123 31 view .LVU30
 123 0020 FFF7FEFF 		bl	lv_strcmp
 124              	.LVL11:
 124:../../Middlewares/LVGL/GUI/lvgl/src/misc/cache/instance/lv_image_header_cache.c ****                 return cmp_res > 0 ? 1 : -1;
 125              		.loc 1 124 13 is_stmt 1 view .LVU31
 124:../../Middlewares/LVGL/GUI/lvgl/src/misc/cache/instance/lv_image_header_cache.c ****                 return cmp_res > 0 ? 1 : -1;
 126              		.loc 1 124 15 is_stmt 0 view .LVU32
 127 0024 48B1     		cbz	r0, .L8
 125:../../Middlewares/LVGL/GUI/lvgl/src/misc/cache/instance/lv_image_header_cache.c ****             }
 128              		.loc 1 125 17 is_stmt 1 view .LVU33
 125:../../Middlewares/LVGL/GUI/lvgl/src/misc/cache/instance/lv_image_header_cache.c ****             }
 129              		.loc 1 125 40 is_stmt 0 view .LVU34
 130 0026 0028     		cmp	r0, #0
 131 0028 01DD     		ble	.L12
 125:../../Middlewares/LVGL/GUI/lvgl/src/misc/cache/instance/lv_image_header_cache.c ****             }
 132              		.loc 1 125 40 discriminator 1 view .LVU35
 133 002a 0120     		movs	r0, #1
 134              	.LVL12:
 125:../../Middlewares/LVGL/GUI/lvgl/src/misc/cache/instance/lv_image_header_cache.c ****             }
 135              		.loc 1 125 40 discriminator 1 view .LVU36
 136 002c 06E0     		b	.L10
 137              	.LVL13:
 138              	.L12:
 125:../../Middlewares/LVGL/GUI/lvgl/src/misc/cache/instance/lv_image_header_cache.c ****             }
 139              		.loc 1 125 40 discriminator 2 view .LVU37
 140 002e 4FF0FF30 		mov	r0, #-1
 141              	.LVL14:
 125:../../Middlewares/LVGL/GUI/lvgl/src/misc/cache/instance/lv_image_header_cache.c ****             }
 142              		.loc 1 125 40 view .LVU38
 143 0032 03E0     		b	.L10
 144              	.LVL15:
 145              	.L13:
 146              	.LCFI2:
 147              		.cfi_def_cfa_offset 0
 148              		.cfi_restore 3
 149              		.cfi_restore 14
 125:../../Middlewares/LVGL/GUI/lvgl/src/misc/cache/instance/lv_image_header_cache.c ****             }
 150              		.loc 1 125 40 view .LVU39
 151              	.LBE2:
 130:../../Middlewares/LVGL/GUI/lvgl/src/misc/cache/instance/lv_image_header_cache.c ****             }
 152              		.loc 1 130 46 discriminator 2 view .LVU40
 153 0034 4FF0FF30 		mov	r0, #-1
 154              	.LVL16:
 130:../../Middlewares/LVGL/GUI/lvgl/src/misc/cache/instance/lv_image_header_cache.c ****             }
 155              		.loc 1 130 46 view .LVU41
 156 0038 7047     		bx	lr
 157              	.LVL17:
 158              	.L8:
 159              	.LCFI3:
 160              		.cfi_def_cfa_offset 8
 161              		.cfi_offset 3, -8
ARM GAS  C:\Users\28576\AppData\Local\Temp\cc8hT1yr.s 			page 7


 162              		.cfi_offset 14, -4
 133:../../Middlewares/LVGL/GUI/lvgl/src/misc/cache/instance/lv_image_header_cache.c ****     }
 163              		.loc 1 133 9 is_stmt 1 view .LVU42
 133:../../Middlewares/LVGL/GUI/lvgl/src/misc/cache/instance/lv_image_header_cache.c ****     }
 164              		.loc 1 133 16 is_stmt 0 view .LVU43
 165 003a 0020     		movs	r0, #0
 166              	.LVL18:
 167              	.L10:
 136:../../Middlewares/LVGL/GUI/lvgl/src/misc/cache/instance/lv_image_header_cache.c **** 
 168              		.loc 1 136 1 view .LVU44
 169 003c 08BD     		pop	{r3, pc}
 170              	.LVL19:
 171              	.L14:
 172              	.LCFI4:
 173              		.cfi_def_cfa_offset 0
 174              		.cfi_restore 3
 175              		.cfi_restore 14
 135:../../Middlewares/LVGL/GUI/lvgl/src/misc/cache/instance/lv_image_header_cache.c **** }
 176              		.loc 1 135 44 discriminator 2 view .LVU45
 177 003e 4FF0FF30 		mov	r0, #-1
 178              	.LVL20:
 135:../../Middlewares/LVGL/GUI/lvgl/src/misc/cache/instance/lv_image_header_cache.c **** }
 179              		.loc 1 135 44 discriminator 2 view .LVU46
 180 0042 7047     		bx	lr
 181              	.LVL21:
 182              	.L16:
 133:../../Middlewares/LVGL/GUI/lvgl/src/misc/cache/instance/lv_image_header_cache.c ****     }
 183              		.loc 1 133 9 is_stmt 1 view .LVU47
 133:../../Middlewares/LVGL/GUI/lvgl/src/misc/cache/instance/lv_image_header_cache.c ****     }
 184              		.loc 1 133 16 is_stmt 0 view .LVU48
 185 0044 0020     		movs	r0, #0
 186              	.LVL22:
 136:../../Middlewares/LVGL/GUI/lvgl/src/misc/cache/instance/lv_image_header_cache.c **** 
 187              		.loc 1 136 1 view .LVU49
 188 0046 7047     		bx	lr
 189              		.cfi_endproc
 190              	.LFE193:
 192              		.section	.text.image_header_cache_compare_cb,"ax",%progbits
 193              		.align	1
 194              		.syntax unified
 195              		.thumb
 196              		.thumb_func
 198              	image_header_cache_compare_cb:
 199              	.LVL23:
 200              	.LFB194:
 141:../../Middlewares/LVGL/GUI/lvgl/src/misc/cache/instance/lv_image_header_cache.c ****     return image_cache_common_compare(lhs->src, lhs->src_type, rhs->src, rhs->src_type);
 201              		.loc 1 141 1 is_stmt 1 view -0
 202              		.cfi_startproc
 203              		@ args = 0, pretend = 0, frame = 0
 204              		@ frame_needed = 0, uses_anonymous_args = 0
 141:../../Middlewares/LVGL/GUI/lvgl/src/misc/cache/instance/lv_image_header_cache.c ****     return image_cache_common_compare(lhs->src, lhs->src_type, rhs->src, rhs->src_type);
 205              		.loc 1 141 1 is_stmt 0 view .LVU51
 206 0000 08B5     		push	{r3, lr}
 207              	.LCFI5:
 208              		.cfi_def_cfa_offset 8
 209              		.cfi_offset 3, -8
 210              		.cfi_offset 14, -4
ARM GAS  C:\Users\28576\AppData\Local\Temp\cc8hT1yr.s 			page 8


 142:../../Middlewares/LVGL/GUI/lvgl/src/misc/cache/instance/lv_image_header_cache.c **** }
 211              		.loc 1 142 5 is_stmt 1 view .LVU52
 142:../../Middlewares/LVGL/GUI/lvgl/src/misc/cache/instance/lv_image_header_cache.c **** }
 212              		.loc 1 142 12 is_stmt 0 view .LVU53
 213 0002 0B79     		ldrb	r3, [r1, #4]	@ zero_extendqisi2
 214 0004 0A68     		ldr	r2, [r1]
 215 0006 0179     		ldrb	r1, [r0, #4]	@ zero_extendqisi2
 216              	.LVL24:
 142:../../Middlewares/LVGL/GUI/lvgl/src/misc/cache/instance/lv_image_header_cache.c **** }
 217              		.loc 1 142 12 view .LVU54
 218 0008 0068     		ldr	r0, [r0]
 219              	.LVL25:
 142:../../Middlewares/LVGL/GUI/lvgl/src/misc/cache/instance/lv_image_header_cache.c **** }
 220              		.loc 1 142 12 view .LVU55
 221 000a FFF7FEFF 		bl	image_cache_common_compare
 222              	.LVL26:
 143:../../Middlewares/LVGL/GUI/lvgl/src/misc/cache/instance/lv_image_header_cache.c **** 
 223              		.loc 1 143 1 view .LVU56
 224 000e 08BD     		pop	{r3, pc}
 225              		.cfi_endproc
 226              	.LFE194:
 228              		.section	.text.iter_inspect_cb,"ax",%progbits
 229              		.align	1
 230              		.syntax unified
 231              		.thumb
 232              		.thumb_func
 234              	iter_inspect_cb:
 235              	.LVL27:
 236              	.LFB196:
 151:../../Middlewares/LVGL/GUI/lvgl/src/misc/cache/instance/lv_image_header_cache.c **** 
 152:../../Middlewares/LVGL/GUI/lvgl/src/misc/cache/instance/lv_image_header_cache.c **** static void iter_inspect_cb(void * elem)
 153:../../Middlewares/LVGL/GUI/lvgl/src/misc/cache/instance/lv_image_header_cache.c **** {
 237              		.loc 1 153 1 is_stmt 1 view -0
 238              		.cfi_startproc
 239              		@ args = 0, pretend = 0, frame = 0
 240              		@ frame_needed = 0, uses_anonymous_args = 0
 241              		.loc 1 153 1 is_stmt 0 view .LVU58
 242 0000 08B5     		push	{r3, lr}
 243              	.LCFI6:
 244              		.cfi_def_cfa_offset 8
 245              		.cfi_offset 3, -8
 246              		.cfi_offset 14, -4
 154:../../Middlewares/LVGL/GUI/lvgl/src/misc/cache/instance/lv_image_header_cache.c ****     lv_image_cache_data_t * data = (lv_image_cache_data_t *)elem;
 247              		.loc 1 154 5 is_stmt 1 view .LVU59
 248              	.LVL28:
 155:../../Middlewares/LVGL/GUI/lvgl/src/misc/cache/instance/lv_image_header_cache.c ****     lv_draw_buf_t * decoded = (lv_draw_buf_t *)data->decoded;
 249              		.loc 1 155 5 view .LVU60
 156:../../Middlewares/LVGL/GUI/lvgl/src/misc/cache/instance/lv_image_header_cache.c ****     lv_image_header_t * header = &decoded->header;
 250              		.loc 1 156 5 view .LVU61
 157:../../Middlewares/LVGL/GUI/lvgl/src/misc/cache/instance/lv_image_header_cache.c ****     lv_cache_entry_t * entry = lv_cache_entry_get_entry(data, img_header_cache_p->node_size);
 251              		.loc 1 157 5 view .LVU62
 252              		.loc 1 157 63 is_stmt 0 view .LVU63
 253 0002 034B     		ldr	r3, .L26
 254 0004 D3F82031 		ldr	r3, [r3, #288]
 255              		.loc 1 157 32 view .LVU64
 256 0008 5968     		ldr	r1, [r3, #4]
 257 000a FFF7FEFF 		bl	lv_cache_entry_get_entry
ARM GAS  C:\Users\28576\AppData\Local\Temp\cc8hT1yr.s 			page 9


 258              	.LVL29:
 158:../../Middlewares/LVGL/GUI/lvgl/src/misc/cache/instance/lv_image_header_cache.c **** 
 159:../../Middlewares/LVGL/GUI/lvgl/src/misc/cache/instance/lv_image_header_cache.c ****     LV_UNUSED(decoded);
 259              		.loc 1 159 5 is_stmt 1 view .LVU65
 160:../../Middlewares/LVGL/GUI/lvgl/src/misc/cache/instance/lv_image_header_cache.c ****     LV_UNUSED(header);
 260              		.loc 1 160 5 view .LVU66
 161:../../Middlewares/LVGL/GUI/lvgl/src/misc/cache/instance/lv_image_header_cache.c ****     LV_UNUSED(entry);
 261              		.loc 1 161 5 view .LVU67
 162:../../Middlewares/LVGL/GUI/lvgl/src/misc/cache/instance/lv_image_header_cache.c **** 
 163:../../Middlewares/LVGL/GUI/lvgl/src/misc/cache/instance/lv_image_header_cache.c ****     /*  size    data_size   cf  rc  type    decoded         src*/
 164:../../Middlewares/LVGL/GUI/lvgl/src/misc/cache/instance/lv_image_header_cache.c **** #define IMAGE_CACHE_DUMP_FORMAT "	%4dx%-4d	%9"LV_PRIu32"	%d	%" LV_PRId32 "	"
 165:../../Middlewares/LVGL/GUI/lvgl/src/misc/cache/instance/lv_image_header_cache.c ****     switch(data->src_type) {
 262              		.loc 1 165 5 view .LVU68
 166:../../Middlewares/LVGL/GUI/lvgl/src/misc/cache/instance/lv_image_header_cache.c ****         case LV_IMAGE_SRC_FILE:
 167:../../Middlewares/LVGL/GUI/lvgl/src/misc/cache/instance/lv_image_header_cache.c ****             LV_LOG_USER(IMAGE_CACHE_DUMP_FORMAT "file\t%-12p\t%s", header->w, header->h, decoded->d
 168:../../Middlewares/LVGL/GUI/lvgl/src/misc/cache/instance/lv_image_header_cache.c ****                         lv_cache_entry_get_ref(entry), (void *)data->decoded, (char *)data->src);
 169:../../Middlewares/LVGL/GUI/lvgl/src/misc/cache/instance/lv_image_header_cache.c ****             break;
 170:../../Middlewares/LVGL/GUI/lvgl/src/misc/cache/instance/lv_image_header_cache.c ****         case LV_IMAGE_SRC_VARIABLE:
 171:../../Middlewares/LVGL/GUI/lvgl/src/misc/cache/instance/lv_image_header_cache.c ****             LV_LOG_USER(IMAGE_CACHE_DUMP_FORMAT "var \t%-12p\t%p", header->w, header->h, decoded->d
 172:../../Middlewares/LVGL/GUI/lvgl/src/misc/cache/instance/lv_image_header_cache.c ****                         lv_cache_entry_get_ref(entry), (void *)data->decoded, data->src);
 173:../../Middlewares/LVGL/GUI/lvgl/src/misc/cache/instance/lv_image_header_cache.c ****             break;
 174:../../Middlewares/LVGL/GUI/lvgl/src/misc/cache/instance/lv_image_header_cache.c ****         default:
 175:../../Middlewares/LVGL/GUI/lvgl/src/misc/cache/instance/lv_image_header_cache.c ****             LV_LOG_USER(IMAGE_CACHE_DUMP_FORMAT "unkn\t%-12p\t%p", header->w, header->h, decoded->d
 263              		.loc 1 175 13 view .LVU69
 264              		.loc 1 175 13 view .LVU70
 265              		.loc 1 175 13 view .LVU71
 176:../../Middlewares/LVGL/GUI/lvgl/src/misc/cache/instance/lv_image_header_cache.c ****                         lv_cache_entry_get_ref(entry), (void *)data->decoded, data->src);
 177:../../Middlewares/LVGL/GUI/lvgl/src/misc/cache/instance/lv_image_header_cache.c ****             break;
 266              		.loc 1 177 13 view .LVU72
 178:../../Middlewares/LVGL/GUI/lvgl/src/misc/cache/instance/lv_image_header_cache.c ****     }
 179:../../Middlewares/LVGL/GUI/lvgl/src/misc/cache/instance/lv_image_header_cache.c **** }
 267              		.loc 1 179 1 is_stmt 0 view .LVU73
 268 000e 08BD     		pop	{r3, pc}
 269              	.L27:
 270              		.align	2
 271              	.L26:
 272 0010 00000000 		.word	lv_global
 273              		.cfi_endproc
 274              	.LFE196:
 276              		.section	.rodata.lv_image_header_cache_init.str1.4,"aMS",%progbits,1
 277              		.align	2
 278              	.LC2:
 279 0000 494D4147 		.ascii	"IMAGE_HEADER\000"
 279      455F4845 
 279      41444552 
 279      00
 280              		.section	.text.lv_image_header_cache_init,"ax",%progbits
 281              		.align	1
 282              		.global	lv_image_header_cache_init
 283              		.syntax unified
 284              		.thumb
 285              		.thumb_func
 287              	lv_image_header_cache_init:
 288              	.LVL30:
 289              	.LFB187:
  55:../../Middlewares/LVGL/GUI/lvgl/src/misc/cache/instance/lv_image_header_cache.c ****     if(img_header_cache_p != NULL) {
 290              		.loc 1 55 1 is_stmt 1 view -0
ARM GAS  C:\Users\28576\AppData\Local\Temp\cc8hT1yr.s 			page 10


 291              		.cfi_startproc
 292              		@ args = 0, pretend = 0, frame = 16
 293              		@ frame_needed = 0, uses_anonymous_args = 0
  56:../../Middlewares/LVGL/GUI/lvgl/src/misc/cache/instance/lv_image_header_cache.c ****         return LV_RESULT_OK;
 294              		.loc 1 56 5 view .LVU75
  56:../../Middlewares/LVGL/GUI/lvgl/src/misc/cache/instance/lv_image_header_cache.c ****         return LV_RESULT_OK;
 295              		.loc 1 56 8 is_stmt 0 view .LVU76
 296 0000 134B     		ldr	r3, .L36
 297 0002 D3F82031 		ldr	r3, [r3, #288]
  56:../../Middlewares/LVGL/GUI/lvgl/src/misc/cache/instance/lv_image_header_cache.c ****         return LV_RESULT_OK;
 298              		.loc 1 56 7 view .LVU77
 299 0006 0BB1     		cbz	r3, .L35
  57:../../Middlewares/LVGL/GUI/lvgl/src/misc/cache/instance/lv_image_header_cache.c ****     }
 300              		.loc 1 57 16 view .LVU78
 301 0008 0120     		movs	r0, #1
 302              	.LVL31:
  69:../../Middlewares/LVGL/GUI/lvgl/src/misc/cache/instance/lv_image_header_cache.c **** 
 303              		.loc 1 69 1 view .LVU79
 304 000a 7047     		bx	lr
 305              	.LVL32:
 306              	.L35:
  55:../../Middlewares/LVGL/GUI/lvgl/src/misc/cache/instance/lv_image_header_cache.c ****     if(img_header_cache_p != NULL) {
 307              		.loc 1 55 1 view .LVU80
 308 000c 10B5     		push	{r4, lr}
 309              	.LCFI7:
 310              		.cfi_def_cfa_offset 8
 311              		.cfi_offset 4, -8
 312              		.cfi_offset 14, -4
 313 000e 86B0     		sub	sp, sp, #24
 314              	.LCFI8:
 315              		.cfi_def_cfa_offset 32
 316 0010 8446     		mov	ip, r0
  60:../../Middlewares/LVGL/GUI/lvgl/src/misc/cache/instance/lv_image_header_cache.c ****     sizeof(lv_image_header_cache_data_t), count, (lv_cache_ops_t) {
 317              		.loc 1 60 5 is_stmt 1 view .LVU81
  61:../../Middlewares/LVGL/GUI/lvgl/src/misc/cache/instance/lv_image_header_cache.c ****         .compare_cb = (lv_cache_compare_cb_t) image_header_cache_compare_cb,
 318              		.loc 1 61 67 is_stmt 0 view .LVU82
 319 0012 104B     		ldr	r3, .L36+4
 320 0014 93E80700 		ldm	r3, {r0, r1, r2}
 321              	.LVL33:
  61:../../Middlewares/LVGL/GUI/lvgl/src/misc/cache/instance/lv_image_header_cache.c ****         .compare_cb = (lv_cache_compare_cb_t) image_header_cache_compare_cb,
 322              		.loc 1 61 67 view .LVU83
 323 0018 06AB     		add	r3, sp, #24
 324 001a 03E90700 		stmdb	r3, {r0, r1, r2}
  60:../../Middlewares/LVGL/GUI/lvgl/src/misc/cache/instance/lv_image_header_cache.c ****     sizeof(lv_image_header_cache_data_t), count, (lv_cache_ops_t) {
 325              		.loc 1 60 26 view .LVU84
 326 001e 13E90300 		ldmdb	r3, {r0, r1}
 327 0022 8DE80300 		stm	sp, {r0, r1}
 328 0026 039B     		ldr	r3, [sp, #12]
 329 0028 6246     		mov	r2, ip
 330 002a 1821     		movs	r1, #24
 331 002c 0A48     		ldr	r0, .L36+8
 332 002e FFF7FEFF 		bl	lv_cache_create
 333              	.LVL34:
  60:../../Middlewares/LVGL/GUI/lvgl/src/misc/cache/instance/lv_image_header_cache.c ****     sizeof(lv_image_header_cache_data_t), count, (lv_cache_ops_t) {
 334              		.loc 1 60 24 discriminator 1 view .LVU85
 335 0032 074B     		ldr	r3, .L36
 336 0034 1C46     		mov	r4, r3
ARM GAS  C:\Users\28576\AppData\Local\Temp\cc8hT1yr.s 			page 11


 337 0036 C3F82001 		str	r0, [r3, #288]
  67:../../Middlewares/LVGL/GUI/lvgl/src/misc/cache/instance/lv_image_header_cache.c ****     return img_header_cache_p != NULL ? LV_RESULT_OK : LV_RESULT_INVALID;
 338              		.loc 1 67 5 is_stmt 1 view .LVU86
 339 003a 0849     		ldr	r1, .L36+12
 340 003c FFF7FEFF 		bl	lv_cache_set_name
 341              	.LVL35:
  68:../../Middlewares/LVGL/GUI/lvgl/src/misc/cache/instance/lv_image_header_cache.c **** }
 342              		.loc 1 68 5 view .LVU87
  68:../../Middlewares/LVGL/GUI/lvgl/src/misc/cache/instance/lv_image_header_cache.c **** }
 343              		.loc 1 68 12 is_stmt 0 view .LVU88
 344 0040 D4F82001 		ldr	r0, [r4, #288]
  68:../../Middlewares/LVGL/GUI/lvgl/src/misc/cache/instance/lv_image_header_cache.c **** }
 345              		.loc 1 68 54 view .LVU89
 346 0044 0038     		subs	r0, r0, #0
 347 0046 18BF     		it	ne
 348 0048 0120     		movne	r0, #1
  69:../../Middlewares/LVGL/GUI/lvgl/src/misc/cache/instance/lv_image_header_cache.c **** 
 349              		.loc 1 69 1 view .LVU90
 350 004a 06B0     		add	sp, sp, #24
 351              	.LCFI9:
 352              		.cfi_def_cfa_offset 8
 353              		@ sp needed
 354 004c 10BD     		pop	{r4, pc}
 355              	.L37:
 356 004e 00BF     		.align	2
 357              	.L36:
 358 0050 00000000 		.word	lv_global
 359 0054 00000000 		.word	.LANCHOR0
 360 0058 00000000 		.word	lv_cache_class_lru_rb_count
 361 005c 00000000 		.word	.LC2
 362              		.cfi_endproc
 363              	.LFE187:
 365              		.section	.text.lv_image_header_cache_resize,"ax",%progbits
 366              		.align	1
 367              		.global	lv_image_header_cache_resize
 368              		.syntax unified
 369              		.thumb
 370              		.thumb_func
 372              	lv_image_header_cache_resize:
 373              	.LVL36:
 374              	.LFB188:
  72:../../Middlewares/LVGL/GUI/lvgl/src/misc/cache/instance/lv_image_header_cache.c ****     lv_cache_set_max_size(img_header_cache_p, count, NULL);
 375              		.loc 1 72 1 is_stmt 1 view -0
 376              		.cfi_startproc
 377              		@ args = 0, pretend = 0, frame = 0
 378              		@ frame_needed = 0, uses_anonymous_args = 0
  72:../../Middlewares/LVGL/GUI/lvgl/src/misc/cache/instance/lv_image_header_cache.c ****     lv_cache_set_max_size(img_header_cache_p, count, NULL);
 379              		.loc 1 72 1 is_stmt 0 view .LVU92
 380 0000 38B5     		push	{r3, r4, r5, lr}
 381              	.LCFI10:
 382              		.cfi_def_cfa_offset 16
 383              		.cfi_offset 3, -16
 384              		.cfi_offset 4, -12
 385              		.cfi_offset 5, -8
 386              		.cfi_offset 14, -4
 387 0002 0546     		mov	r5, r0
 388 0004 0C46     		mov	r4, r1
ARM GAS  C:\Users\28576\AppData\Local\Temp\cc8hT1yr.s 			page 12


  73:../../Middlewares/LVGL/GUI/lvgl/src/misc/cache/instance/lv_image_header_cache.c ****     if(evict_now) {
 389              		.loc 1 73 5 is_stmt 1 view .LVU93
 390 0006 0022     		movs	r2, #0
 391 0008 0146     		mov	r1, r0
 392              	.LVL37:
  73:../../Middlewares/LVGL/GUI/lvgl/src/misc/cache/instance/lv_image_header_cache.c ****     if(evict_now) {
 393              		.loc 1 73 5 is_stmt 0 view .LVU94
 394 000a 074B     		ldr	r3, .L42
 395 000c D3F82001 		ldr	r0, [r3, #288]
 396              	.LVL38:
  73:../../Middlewares/LVGL/GUI/lvgl/src/misc/cache/instance/lv_image_header_cache.c ****     if(evict_now) {
 397              		.loc 1 73 5 view .LVU95
 398 0010 FFF7FEFF 		bl	lv_cache_set_max_size
 399              	.LVL39:
  74:../../Middlewares/LVGL/GUI/lvgl/src/misc/cache/instance/lv_image_header_cache.c ****         lv_cache_reserve(img_header_cache_p, count, NULL);
 400              		.loc 1 74 5 is_stmt 1 view .LVU96
  74:../../Middlewares/LVGL/GUI/lvgl/src/misc/cache/instance/lv_image_header_cache.c ****         lv_cache_reserve(img_header_cache_p, count, NULL);
 401              		.loc 1 74 7 is_stmt 0 view .LVU97
 402 0014 04B9     		cbnz	r4, .L41
 403              	.L38:
  77:../../Middlewares/LVGL/GUI/lvgl/src/misc/cache/instance/lv_image_header_cache.c **** 
 404              		.loc 1 77 1 view .LVU98
 405 0016 38BD     		pop	{r3, r4, r5, pc}
 406              	.LVL40:
 407              	.L41:
  75:../../Middlewares/LVGL/GUI/lvgl/src/misc/cache/instance/lv_image_header_cache.c ****     }
 408              		.loc 1 75 9 is_stmt 1 view .LVU99
 409 0018 0022     		movs	r2, #0
 410 001a 2946     		mov	r1, r5
 411 001c 024B     		ldr	r3, .L42
 412 001e D3F82001 		ldr	r0, [r3, #288]
 413 0022 FFF7FEFF 		bl	lv_cache_reserve
 414              	.LVL41:
  77:../../Middlewares/LVGL/GUI/lvgl/src/misc/cache/instance/lv_image_header_cache.c **** 
 415              		.loc 1 77 1 is_stmt 0 view .LVU100
 416 0026 F6E7     		b	.L38
 417              	.L43:
 418              		.align	2
 419              	.L42:
 420 0028 00000000 		.word	lv_global
 421              		.cfi_endproc
 422              	.LFE188:
 424              		.section	.text.lv_image_header_cache_drop,"ax",%progbits
 425              		.align	1
 426              		.global	lv_image_header_cache_drop
 427              		.syntax unified
 428              		.thumb
 429              		.thumb_func
 431              	lv_image_header_cache_drop:
 432              	.LVL42:
 433              	.LFB189:
  80:../../Middlewares/LVGL/GUI/lvgl/src/misc/cache/instance/lv_image_header_cache.c ****     if(src == NULL) {
 434              		.loc 1 80 1 is_stmt 1 view -0
 435              		.cfi_startproc
 436              		@ args = 0, pretend = 0, frame = 24
 437              		@ frame_needed = 0, uses_anonymous_args = 0
  80:../../Middlewares/LVGL/GUI/lvgl/src/misc/cache/instance/lv_image_header_cache.c ****     if(src == NULL) {
ARM GAS  C:\Users\28576\AppData\Local\Temp\cc8hT1yr.s 			page 13


 438              		.loc 1 80 1 is_stmt 0 view .LVU102
 439 0000 30B5     		push	{r4, r5, lr}
 440              	.LCFI11:
 441              		.cfi_def_cfa_offset 12
 442              		.cfi_offset 4, -12
 443              		.cfi_offset 5, -8
 444              		.cfi_offset 14, -4
 445 0002 87B0     		sub	sp, sp, #28
 446              	.LCFI12:
 447              		.cfi_def_cfa_offset 40
  81:../../Middlewares/LVGL/GUI/lvgl/src/misc/cache/instance/lv_image_header_cache.c ****         lv_cache_drop_all(img_header_cache_p, NULL);
 448              		.loc 1 81 5 is_stmt 1 view .LVU103
  81:../../Middlewares/LVGL/GUI/lvgl/src/misc/cache/instance/lv_image_header_cache.c ****         lv_cache_drop_all(img_header_cache_p, NULL);
 449              		.loc 1 81 7 is_stmt 0 view .LVU104
 450 0004 A0B1     		cbz	r0, .L48
  86:../../Middlewares/LVGL/GUI/lvgl/src/misc/cache/instance/lv_image_header_cache.c ****         .src = src,
 451              		.loc 1 86 5 is_stmt 1 view .LVU105
  86:../../Middlewares/LVGL/GUI/lvgl/src/misc/cache/instance/lv_image_header_cache.c ****         .src = src,
 452              		.loc 1 86 34 is_stmt 0 view .LVU106
 453 0006 0024     		movs	r4, #0
 454 0008 0094     		str	r4, [sp]
 455 000a 0194     		str	r4, [sp, #4]
 456 000c 0294     		str	r4, [sp, #8]
 457 000e 0394     		str	r4, [sp, #12]
 458 0010 0494     		str	r4, [sp, #16]
 459 0012 0594     		str	r4, [sp, #20]
 460 0014 0090     		str	r0, [sp]
  88:../../Middlewares/LVGL/GUI/lvgl/src/misc/cache/instance/lv_image_header_cache.c ****     };
 461              		.loc 1 88 21 view .LVU107
 462 0016 FFF7FEFF 		bl	lv_image_src_get_type
 463              	.LVL43:
  86:../../Middlewares/LVGL/GUI/lvgl/src/misc/cache/instance/lv_image_header_cache.c ****         .src = src,
 464              		.loc 1 86 34 view .LVU108
 465 001a 8DF80400 		strb	r0, [sp, #4]
  91:../../Middlewares/LVGL/GUI/lvgl/src/misc/cache/instance/lv_image_header_cache.c **** }
 466              		.loc 1 91 5 is_stmt 1 view .LVU109
 467 001e 2246     		mov	r2, r4
 468 0020 6946     		mov	r1, sp
 469 0022 074B     		ldr	r3, .L49
 470 0024 D3F82001 		ldr	r0, [r3, #288]
 471 0028 FFF7FEFF 		bl	lv_cache_drop
 472              	.LVL44:
 473              	.L44:
  92:../../Middlewares/LVGL/GUI/lvgl/src/misc/cache/instance/lv_image_header_cache.c **** 
 474              		.loc 1 92 1 is_stmt 0 view .LVU110
 475 002c 07B0     		add	sp, sp, #28
 476              	.LCFI13:
 477              		.cfi_remember_state
 478              		.cfi_def_cfa_offset 12
 479              		@ sp needed
 480 002e 30BD     		pop	{r4, r5, pc}
 481              	.LVL45:
 482              	.L48:
 483              	.LCFI14:
 484              		.cfi_restore_state
  82:../../Middlewares/LVGL/GUI/lvgl/src/misc/cache/instance/lv_image_header_cache.c ****         return;
 485              		.loc 1 82 9 is_stmt 1 view .LVU111
ARM GAS  C:\Users\28576\AppData\Local\Temp\cc8hT1yr.s 			page 14


 486 0030 0146     		mov	r1, r0
 487 0032 034B     		ldr	r3, .L49
 488 0034 D3F82001 		ldr	r0, [r3, #288]
 489              	.LVL46:
  82:../../Middlewares/LVGL/GUI/lvgl/src/misc/cache/instance/lv_image_header_cache.c ****         return;
 490              		.loc 1 82 9 is_stmt 0 view .LVU112
 491 0038 FFF7FEFF 		bl	lv_cache_drop_all
 492              	.LVL47:
  83:../../Middlewares/LVGL/GUI/lvgl/src/misc/cache/instance/lv_image_header_cache.c ****     }
 493              		.loc 1 83 9 is_stmt 1 view .LVU113
 494 003c F6E7     		b	.L44
 495              	.L50:
 496 003e 00BF     		.align	2
 497              	.L49:
 498 0040 00000000 		.word	lv_global
 499              		.cfi_endproc
 500              	.LFE189:
 502              		.section	.text.lv_image_header_cache_is_enabled,"ax",%progbits
 503              		.align	1
 504              		.global	lv_image_header_cache_is_enabled
 505              		.syntax unified
 506              		.thumb
 507              		.thumb_func
 509              	lv_image_header_cache_is_enabled:
 510              	.LFB190:
  95:../../Middlewares/LVGL/GUI/lvgl/src/misc/cache/instance/lv_image_header_cache.c ****     return lv_cache_is_enabled(img_header_cache_p);
 511              		.loc 1 95 1 view -0
 512              		.cfi_startproc
 513              		@ args = 0, pretend = 0, frame = 0
 514              		@ frame_needed = 0, uses_anonymous_args = 0
 515 0000 08B5     		push	{r3, lr}
 516              	.LCFI15:
 517              		.cfi_def_cfa_offset 8
 518              		.cfi_offset 3, -8
 519              		.cfi_offset 14, -4
  96:../../Middlewares/LVGL/GUI/lvgl/src/misc/cache/instance/lv_image_header_cache.c **** }
 520              		.loc 1 96 5 view .LVU115
  96:../../Middlewares/LVGL/GUI/lvgl/src/misc/cache/instance/lv_image_header_cache.c **** }
 521              		.loc 1 96 12 is_stmt 0 view .LVU116
 522 0002 034B     		ldr	r3, .L53
 523 0004 D3F82001 		ldr	r0, [r3, #288]
 524 0008 FFF7FEFF 		bl	lv_cache_is_enabled
 525              	.LVL48:
  97:../../Middlewares/LVGL/GUI/lvgl/src/misc/cache/instance/lv_image_header_cache.c **** 
 526              		.loc 1 97 1 view .LVU117
 527 000c 08BD     		pop	{r3, pc}
 528              	.L54:
 529 000e 00BF     		.align	2
 530              	.L53:
 531 0010 00000000 		.word	lv_global
 532              		.cfi_endproc
 533              	.LFE190:
 535              		.section	.text.lv_image_header_cache_iter_create,"ax",%progbits
 536              		.align	1
 537              		.global	lv_image_header_cache_iter_create
 538              		.syntax unified
 539              		.thumb
ARM GAS  C:\Users\28576\AppData\Local\Temp\cc8hT1yr.s 			page 15


 540              		.thumb_func
 542              	lv_image_header_cache_iter_create:
 543              	.LFB191:
 100:../../Middlewares/LVGL/GUI/lvgl/src/misc/cache/instance/lv_image_header_cache.c ****     return lv_cache_iter_create(img_header_cache_p);
 544              		.loc 1 100 1 is_stmt 1 view -0
 545              		.cfi_startproc
 546              		@ args = 0, pretend = 0, frame = 0
 547              		@ frame_needed = 0, uses_anonymous_args = 0
 548 0000 08B5     		push	{r3, lr}
 549              	.LCFI16:
 550              		.cfi_def_cfa_offset 8
 551              		.cfi_offset 3, -8
 552              		.cfi_offset 14, -4
 101:../../Middlewares/LVGL/GUI/lvgl/src/misc/cache/instance/lv_image_header_cache.c **** }
 553              		.loc 1 101 5 view .LVU119
 101:../../Middlewares/LVGL/GUI/lvgl/src/misc/cache/instance/lv_image_header_cache.c **** }
 554              		.loc 1 101 12 is_stmt 0 view .LVU120
 555 0002 034B     		ldr	r3, .L57
 556 0004 D3F82001 		ldr	r0, [r3, #288]
 557 0008 FFF7FEFF 		bl	lv_cache_iter_create
 558              	.LVL49:
 102:../../Middlewares/LVGL/GUI/lvgl/src/misc/cache/instance/lv_image_header_cache.c **** 
 559              		.loc 1 102 1 view .LVU121
 560 000c 08BD     		pop	{r3, pc}
 561              	.L58:
 562 000e 00BF     		.align	2
 563              	.L57:
 564 0010 00000000 		.word	lv_global
 565              		.cfi_endproc
 566              	.LFE191:
 568              		.section	.text.lv_image_header_cache_dump,"ax",%progbits
 569              		.align	1
 570              		.global	lv_image_header_cache_dump
 571              		.syntax unified
 572              		.thumb
 573              		.thumb_func
 575              	lv_image_header_cache_dump:
 576              	.LFB192:
 105:../../Middlewares/LVGL/GUI/lvgl/src/misc/cache/instance/lv_image_header_cache.c ****     lv_iter_t * iter = lv_image_cache_iter_create();
 577              		.loc 1 105 1 is_stmt 1 view -0
 578              		.cfi_startproc
 579              		@ args = 0, pretend = 0, frame = 0
 580              		@ frame_needed = 0, uses_anonymous_args = 0
 581 0000 08B5     		push	{r3, lr}
 582              	.LCFI17:
 583              		.cfi_def_cfa_offset 8
 584              		.cfi_offset 3, -8
 585              		.cfi_offset 14, -4
 106:../../Middlewares/LVGL/GUI/lvgl/src/misc/cache/instance/lv_image_header_cache.c ****     if(iter == NULL) return;
 586              		.loc 1 106 5 view .LVU123
 106:../../Middlewares/LVGL/GUI/lvgl/src/misc/cache/instance/lv_image_header_cache.c ****     if(iter == NULL) return;
 587              		.loc 1 106 24 is_stmt 0 view .LVU124
 588 0002 FFF7FEFF 		bl	lv_image_cache_iter_create
 589              	.LVL50:
 107:../../Middlewares/LVGL/GUI/lvgl/src/misc/cache/instance/lv_image_header_cache.c **** 
 590              		.loc 1 107 5 is_stmt 1 view .LVU125
 107:../../Middlewares/LVGL/GUI/lvgl/src/misc/cache/instance/lv_image_header_cache.c **** 
ARM GAS  C:\Users\28576\AppData\Local\Temp\cc8hT1yr.s 			page 16


 591              		.loc 1 107 7 is_stmt 0 view .LVU126
 592 0006 10B1     		cbz	r0, .L59
 109:../../Middlewares/LVGL/GUI/lvgl/src/misc/cache/instance/lv_image_header_cache.c ****     LV_LOG_USER("\tsize\tdata_size\tcf\trc\ttype\tdecoded\t\t\tsrc");
 593              		.loc 1 109 5 is_stmt 1 view .LVU127
 109:../../Middlewares/LVGL/GUI/lvgl/src/misc/cache/instance/lv_image_header_cache.c ****     LV_LOG_USER("\tsize\tdata_size\tcf\trc\ttype\tdecoded\t\t\tsrc");
 594              		.loc 1 109 5 view .LVU128
 109:../../Middlewares/LVGL/GUI/lvgl/src/misc/cache/instance/lv_image_header_cache.c ****     LV_LOG_USER("\tsize\tdata_size\tcf\trc\ttype\tdecoded\t\t\tsrc");
 595              		.loc 1 109 5 view .LVU129
 110:../../Middlewares/LVGL/GUI/lvgl/src/misc/cache/instance/lv_image_header_cache.c ****     lv_iter_inspect(iter, iter_inspect_cb);
 596              		.loc 1 110 5 view .LVU130
 110:../../Middlewares/LVGL/GUI/lvgl/src/misc/cache/instance/lv_image_header_cache.c ****     lv_iter_inspect(iter, iter_inspect_cb);
 597              		.loc 1 110 5 view .LVU131
 110:../../Middlewares/LVGL/GUI/lvgl/src/misc/cache/instance/lv_image_header_cache.c ****     lv_iter_inspect(iter, iter_inspect_cb);
 598              		.loc 1 110 5 view .LVU132
 111:../../Middlewares/LVGL/GUI/lvgl/src/misc/cache/instance/lv_image_header_cache.c **** }
 599              		.loc 1 111 5 view .LVU133
 600 0008 0149     		ldr	r1, .L62
 601 000a FFF7FEFF 		bl	lv_iter_inspect
 602              	.LVL51:
 603              	.L59:
 112:../../Middlewares/LVGL/GUI/lvgl/src/misc/cache/instance/lv_image_header_cache.c **** 
 604              		.loc 1 112 1 is_stmt 0 view .LVU134
 605 000e 08BD     		pop	{r3, pc}
 606              	.L63:
 607              		.align	2
 608              	.L62:
 609 0010 00000000 		.word	iter_inspect_cb
 610              		.cfi_endproc
 611              	.LFE192:
 613              		.section	.rodata
 614              		.align	2
 615              		.set	.LANCHOR0,. + 0
 616              	.LC1:
 617 0000 00000000 		.word	image_header_cache_compare_cb
 618 0004 00000000 		.word	0
 619 0008 00000000 		.word	image_header_cache_free_cb
 620              		.text
 621              	.Letext0:
 622              		.file 2 "C:/Users/28576/AppData/Roaming/xPacks/@xpack-dev-tools/arm-none-eabi-gcc/15.2.1-1.1.1/.co
 623              		.file 3 "C:/Users/28576/AppData/Roaming/xPacks/@xpack-dev-tools/arm-none-eabi-gcc/15.2.1-1.1.1/.co
 624              		.file 4 "C:/Users/28576/AppData/Roaming/xPacks/@xpack-dev-tools/arm-none-eabi-gcc/15.2.1-1.1.1/.co
 625              		.file 5 "H:/STM32H7/RGB_LVGL/Middlewares/LVGL/GUI/lvgl/src/misc/lv_types.h"
 626              		.file 6 "H:/STM32H7/RGB_LVGL/Middlewares/LVGL/GUI/lvgl/src/draw/lv_draw.h"
 627              		.file 7 "H:/STM32H7/RGB_LVGL/Middlewares/LVGL/GUI/lvgl/src/draw/lv_draw_private.h"
 628              		.file 8 "H:/STM32H7/RGB_LVGL/Middlewares/LVGL/GUI/lvgl/src/misc/lv_timer_private.h"
 629              		.file 9 "H:/STM32H7/RGB_LVGL/Middlewares/LVGL/GUI/lvgl/src/draw/lv_image_decoder_private.h"
 630              		.file 10 "H:/STM32H7/RGB_LVGL/Middlewares/LVGL/GUI/lvgl/src/draw/lv_draw_image.h"
 631              		.file 11 "H:/STM32H7/RGB_LVGL/Middlewares/LVGL/GUI/lvgl/src/misc/cache/lv_cache_private.h"
 632              		.file 12 "H:/STM32H7/RGB_LVGL/Middlewares/LVGL/GUI/lvgl/src/draw/lv_draw_buf_private.h"
 633              		.file 13 "H:/STM32H7/RGB_LVGL/Middlewares/LVGL/GUI/lvgl/src/draw/lv_draw_buf.h"
 634              		.file 14 "H:/STM32H7/RGB_LVGL/Middlewares/LVGL/GUI/lvgl/src/misc/lv_area.h"
 635              		.file 15 "H:/STM32H7/RGB_LVGL/Middlewares/LVGL/GUI/lvgl/src/misc/lv_color.h"
 636              		.file 16 "H:/STM32H7/RGB_LVGL/Middlewares/LVGL/GUI/lvgl/src/draw/lv_image_dsc.h"
 637              		.file 17 "H:/STM32H7/RGB_LVGL/Middlewares/LVGL/GUI/lvgl/src/misc/lv_fs.h"
 638              		.file 18 "H:/STM32H7/RGB_LVGL/Middlewares/LVGL/GUI/lvgl/src/draw/lv_image_decoder.h"
 639              		.file 19 "H:/STM32H7/RGB_LVGL/Middlewares/LVGL/GUI/lvgl/src/osal/lv_os_none.h"
 640              		.file 20 "H:/STM32H7/RGB_LVGL/Middlewares/LVGL/GUI/lvgl/src/tick/lv_tick.h"
ARM GAS  C:\Users\28576\AppData\Local\Temp\cc8hT1yr.s 			page 17


 641              		.file 21 "H:/STM32H7/RGB_LVGL/Middlewares/LVGL/GUI/lvgl/src/misc/lv_ll.h"
 642              		.file 22 "H:/STM32H7/RGB_LVGL/Middlewares/LVGL/GUI/lvgl/src/misc/lv_timer.h"
 643              		.file 23 "H:/STM32H7/RGB_LVGL/Middlewares/LVGL/GUI/lvgl/src/layouts/lv_layout.h"
 644              		.file 24 "H:/STM32H7/RGB_LVGL/Middlewares/LVGL/GUI/lvgl/src/misc/lv_style.h"
 645              		.file 25 "H:/STM32H7/RGB_LVGL/Middlewares/LVGL/GUI/lvgl/src/stdlib/builtin/lv_tlsf.h"
 646              		.file 26 "H:/STM32H7/RGB_LVGL/Middlewares/LVGL/GUI/lvgl/src/misc/lv_anim_private.h"
 647              		.file 27 "H:/STM32H7/RGB_LVGL/Middlewares/LVGL/GUI/lvgl/src/tick/lv_tick_private.h"
 648              		.file 28 "H:/STM32H7/RGB_LVGL/Middlewares/LVGL/GUI/lvgl/src/draw/sw/lv_draw_sw_mask_private.h"
 649              		.file 29 "H:/STM32H7/RGB_LVGL/Middlewares/LVGL/GUI/lvgl/src/stdlib/builtin/lv_tlsf_private.h"
 650              		.file 30 "H:/STM32H7/RGB_LVGL/Middlewares/LVGL/GUI/lvgl/src/layouts/lv_layout_private.h"
 651              		.file 31 "H:/STM32H7/RGB_LVGL/Middlewares/LVGL/GUI/lvgl/src/core/lv_global.h"
 652              		.file 32 "H:/STM32H7/RGB_LVGL/Middlewares/LVGL/GUI/lvgl/src/misc/cache/class/lv_cache_lru_rb.h"
 653              		.file 33 "H:/STM32H7/RGB_LVGL/Middlewares/LVGL/GUI/lvgl/src/misc/lv_iter.h"
 654              		.file 34 "H:/STM32H7/RGB_LVGL/Middlewares/LVGL/GUI/lvgl/src/misc/cache/lv_cache_entry.h"
 655              		.file 35 "H:/STM32H7/RGB_LVGL/Middlewares/LVGL/GUI/lvgl/src/misc/cache/lv_cache.h"
 656              		.file 36 "H:/STM32H7/RGB_LVGL/Middlewares/LVGL/GUI/lvgl/src/stdlib/lv_string.h"
 657              		.file 37 "H:/STM32H7/RGB_LVGL/Middlewares/LVGL/GUI/lvgl/src/stdlib/lv_mem.h"
 658              		.file 38 "H:/STM32H7/RGB_LVGL/Middlewares/LVGL/GUI/lvgl/src/misc/cache/instance/lv_image_cache.h"
ARM GAS  C:\Users\28576\AppData\Local\Temp\cc8hT1yr.s 			page 18

