ARM GAS  C:\Users\28576\AppData\Local\Temp\ccAP2L0b.s 			page 1


   1              		.cpu cortex-m7
   2              		.arch armv7e-m
   3              		.fpu fpv5-d16
   4              		.eabi_attribute 28, 1
   5              		.eabi_attribute 20, 1
   6              		.eabi_attribute 21, 1
   7              		.eabi_attribute 23, 3
   8              		.eabi_attribute 24, 1
   9              		.eabi_attribute 25, 1
  10              		.eabi_attribute 26, 1
  11              		.eabi_attribute 30, 1
  12              		.eabi_attribute 34, 1
  13              		.eabi_attribute 18, 4
  14              		.file	"lv_menu.c"
  15              		.text
  16              	.Ltext0:
  17              		.cfi_sections	.debug_frame
  18              		.file 1 "../../Middlewares/LVGL/GUI/lvgl/src/widgets/menu/lv_menu.c"
  19              		.section	.text.lv_menu_destructor,"ax",%progbits
  20              		.align	1
  21              		.syntax unified
  22              		.thumb
  23              		.thumb_func
  25              	lv_menu_destructor:
  26              	.LVL0:
  27              	.LFB194:
   1:../../Middlewares/LVGL/GUI/lvgl/src/widgets/menu/lv_menu.c **** /**
   2:../../Middlewares/LVGL/GUI/lvgl/src/widgets/menu/lv_menu.c ****  * @file lv_menu.c
   3:../../Middlewares/LVGL/GUI/lvgl/src/widgets/menu/lv_menu.c ****  *
   4:../../Middlewares/LVGL/GUI/lvgl/src/widgets/menu/lv_menu.c ****  */
   5:../../Middlewares/LVGL/GUI/lvgl/src/widgets/menu/lv_menu.c **** 
   6:../../Middlewares/LVGL/GUI/lvgl/src/widgets/menu/lv_menu.c **** /*********************
   7:../../Middlewares/LVGL/GUI/lvgl/src/widgets/menu/lv_menu.c ****  *      INCLUDES
   8:../../Middlewares/LVGL/GUI/lvgl/src/widgets/menu/lv_menu.c ****  *********************/
   9:../../Middlewares/LVGL/GUI/lvgl/src/widgets/menu/lv_menu.c **** #include "lv_menu_private.h"
  10:../../Middlewares/LVGL/GUI/lvgl/src/widgets/menu/lv_menu.c **** #include "../../core/lv_obj_class_private.h"
  11:../../Middlewares/LVGL/GUI/lvgl/src/widgets/menu/lv_menu.c **** 
  12:../../Middlewares/LVGL/GUI/lvgl/src/widgets/menu/lv_menu.c **** #if LV_USE_MENU
  13:../../Middlewares/LVGL/GUI/lvgl/src/widgets/menu/lv_menu.c **** 
  14:../../Middlewares/LVGL/GUI/lvgl/src/widgets/menu/lv_menu.c **** /*********************
  15:../../Middlewares/LVGL/GUI/lvgl/src/widgets/menu/lv_menu.c ****  *      DEFINES
  16:../../Middlewares/LVGL/GUI/lvgl/src/widgets/menu/lv_menu.c ****  *********************/
  17:../../Middlewares/LVGL/GUI/lvgl/src/widgets/menu/lv_menu.c **** #define MY_CLASS (&lv_menu_class)
  18:../../Middlewares/LVGL/GUI/lvgl/src/widgets/menu/lv_menu.c **** 
  19:../../Middlewares/LVGL/GUI/lvgl/src/widgets/menu/lv_menu.c **** #include "../../core/lv_obj_private.h"
  20:../../Middlewares/LVGL/GUI/lvgl/src/widgets/menu/lv_menu.c **** #include "../../layouts/lv_layout.h"
  21:../../Middlewares/LVGL/GUI/lvgl/src/widgets/menu/lv_menu.c **** #include "../../stdlib/lv_string.h"
  22:../../Middlewares/LVGL/GUI/lvgl/src/widgets/menu/lv_menu.c **** #include "../label/lv_label.h"
  23:../../Middlewares/LVGL/GUI/lvgl/src/widgets/menu/lv_menu.c **** #include "../button/lv_button.h"
  24:../../Middlewares/LVGL/GUI/lvgl/src/widgets/menu/lv_menu.c **** #include "../image/lv_image.h"
  25:../../Middlewares/LVGL/GUI/lvgl/src/widgets/menu/lv_menu.c **** 
  26:../../Middlewares/LVGL/GUI/lvgl/src/widgets/menu/lv_menu.c **** /**********************
  27:../../Middlewares/LVGL/GUI/lvgl/src/widgets/menu/lv_menu.c ****  *      TYPEDEFS
  28:../../Middlewares/LVGL/GUI/lvgl/src/widgets/menu/lv_menu.c ****  **********************/
  29:../../Middlewares/LVGL/GUI/lvgl/src/widgets/menu/lv_menu.c **** 
  30:../../Middlewares/LVGL/GUI/lvgl/src/widgets/menu/lv_menu.c **** /**********************
  31:../../Middlewares/LVGL/GUI/lvgl/src/widgets/menu/lv_menu.c ****  *  STATIC PROTOTYPES
ARM GAS  C:\Users\28576\AppData\Local\Temp\ccAP2L0b.s 			page 2


  32:../../Middlewares/LVGL/GUI/lvgl/src/widgets/menu/lv_menu.c ****  **********************/
  33:../../Middlewares/LVGL/GUI/lvgl/src/widgets/menu/lv_menu.c **** static void lv_menu_constructor(const lv_obj_class_t * class_p, lv_obj_t * obj);
  34:../../Middlewares/LVGL/GUI/lvgl/src/widgets/menu/lv_menu.c **** static void lv_menu_destructor(const lv_obj_class_t * class_p, lv_obj_t * obj);
  35:../../Middlewares/LVGL/GUI/lvgl/src/widgets/menu/lv_menu.c **** static void lv_menu_page_constructor(const lv_obj_class_t * class_p, lv_obj_t * obj);
  36:../../Middlewares/LVGL/GUI/lvgl/src/widgets/menu/lv_menu.c **** static void lv_menu_page_destructor(const lv_obj_class_t * class_p, lv_obj_t * obj);
  37:../../Middlewares/LVGL/GUI/lvgl/src/widgets/menu/lv_menu.c **** static void lv_menu_cont_constructor(const lv_obj_class_t * class_p, lv_obj_t * obj);
  38:../../Middlewares/LVGL/GUI/lvgl/src/widgets/menu/lv_menu.c **** static void lv_menu_section_constructor(const lv_obj_class_t * class_p, lv_obj_t * obj);
  39:../../Middlewares/LVGL/GUI/lvgl/src/widgets/menu/lv_menu.c **** 
  40:../../Middlewares/LVGL/GUI/lvgl/src/widgets/menu/lv_menu.c **** const lv_obj_class_t lv_menu_class = {
  41:../../Middlewares/LVGL/GUI/lvgl/src/widgets/menu/lv_menu.c ****     .constructor_cb = lv_menu_constructor,
  42:../../Middlewares/LVGL/GUI/lvgl/src/widgets/menu/lv_menu.c ****     .destructor_cb = lv_menu_destructor,
  43:../../Middlewares/LVGL/GUI/lvgl/src/widgets/menu/lv_menu.c ****     .base_class = &lv_obj_class,
  44:../../Middlewares/LVGL/GUI/lvgl/src/widgets/menu/lv_menu.c ****     .width_def = (LV_DPI_DEF * 3) / 2,
  45:../../Middlewares/LVGL/GUI/lvgl/src/widgets/menu/lv_menu.c ****     .height_def = LV_DPI_DEF * 2,
  46:../../Middlewares/LVGL/GUI/lvgl/src/widgets/menu/lv_menu.c ****     .instance_size = sizeof(lv_menu_t),
  47:../../Middlewares/LVGL/GUI/lvgl/src/widgets/menu/lv_menu.c ****     .name = "lv_menu",
  48:../../Middlewares/LVGL/GUI/lvgl/src/widgets/menu/lv_menu.c **** };
  49:../../Middlewares/LVGL/GUI/lvgl/src/widgets/menu/lv_menu.c **** const lv_obj_class_t lv_menu_page_class = {
  50:../../Middlewares/LVGL/GUI/lvgl/src/widgets/menu/lv_menu.c ****     .constructor_cb = lv_menu_page_constructor,
  51:../../Middlewares/LVGL/GUI/lvgl/src/widgets/menu/lv_menu.c ****     .destructor_cb = lv_menu_page_destructor,
  52:../../Middlewares/LVGL/GUI/lvgl/src/widgets/menu/lv_menu.c ****     .base_class = &lv_obj_class,
  53:../../Middlewares/LVGL/GUI/lvgl/src/widgets/menu/lv_menu.c ****     .width_def = LV_PCT(100),
  54:../../Middlewares/LVGL/GUI/lvgl/src/widgets/menu/lv_menu.c ****     .height_def = LV_SIZE_CONTENT,
  55:../../Middlewares/LVGL/GUI/lvgl/src/widgets/menu/lv_menu.c ****     .instance_size = sizeof(lv_menu_page_t),
  56:../../Middlewares/LVGL/GUI/lvgl/src/widgets/menu/lv_menu.c ****     .name = "lv_menu_page",
  57:../../Middlewares/LVGL/GUI/lvgl/src/widgets/menu/lv_menu.c **** };
  58:../../Middlewares/LVGL/GUI/lvgl/src/widgets/menu/lv_menu.c **** 
  59:../../Middlewares/LVGL/GUI/lvgl/src/widgets/menu/lv_menu.c **** const lv_obj_class_t lv_menu_cont_class = {
  60:../../Middlewares/LVGL/GUI/lvgl/src/widgets/menu/lv_menu.c ****     .constructor_cb = lv_menu_cont_constructor,
  61:../../Middlewares/LVGL/GUI/lvgl/src/widgets/menu/lv_menu.c ****     .base_class = &lv_obj_class,
  62:../../Middlewares/LVGL/GUI/lvgl/src/widgets/menu/lv_menu.c ****     .width_def = LV_PCT(100),
  63:../../Middlewares/LVGL/GUI/lvgl/src/widgets/menu/lv_menu.c ****     .height_def = LV_SIZE_CONTENT,
  64:../../Middlewares/LVGL/GUI/lvgl/src/widgets/menu/lv_menu.c ****     .name = "lv_menu_cont",
  65:../../Middlewares/LVGL/GUI/lvgl/src/widgets/menu/lv_menu.c **** };
  66:../../Middlewares/LVGL/GUI/lvgl/src/widgets/menu/lv_menu.c **** 
  67:../../Middlewares/LVGL/GUI/lvgl/src/widgets/menu/lv_menu.c **** const lv_obj_class_t lv_menu_section_class = {
  68:../../Middlewares/LVGL/GUI/lvgl/src/widgets/menu/lv_menu.c ****     .constructor_cb = lv_menu_section_constructor,
  69:../../Middlewares/LVGL/GUI/lvgl/src/widgets/menu/lv_menu.c ****     .base_class = &lv_obj_class,
  70:../../Middlewares/LVGL/GUI/lvgl/src/widgets/menu/lv_menu.c ****     .width_def = LV_PCT(100),
  71:../../Middlewares/LVGL/GUI/lvgl/src/widgets/menu/lv_menu.c ****     .height_def = LV_SIZE_CONTENT,
  72:../../Middlewares/LVGL/GUI/lvgl/src/widgets/menu/lv_menu.c ****     .name = "lv_menu_section",
  73:../../Middlewares/LVGL/GUI/lvgl/src/widgets/menu/lv_menu.c **** };
  74:../../Middlewares/LVGL/GUI/lvgl/src/widgets/menu/lv_menu.c **** 
  75:../../Middlewares/LVGL/GUI/lvgl/src/widgets/menu/lv_menu.c **** const lv_obj_class_t lv_menu_separator_class = {
  76:../../Middlewares/LVGL/GUI/lvgl/src/widgets/menu/lv_menu.c ****     .base_class = &lv_obj_class,
  77:../../Middlewares/LVGL/GUI/lvgl/src/widgets/menu/lv_menu.c ****     .width_def = LV_SIZE_CONTENT,
  78:../../Middlewares/LVGL/GUI/lvgl/src/widgets/menu/lv_menu.c ****     .height_def = LV_SIZE_CONTENT,
  79:../../Middlewares/LVGL/GUI/lvgl/src/widgets/menu/lv_menu.c ****     .name = "lv_menu_separator",
  80:../../Middlewares/LVGL/GUI/lvgl/src/widgets/menu/lv_menu.c **** };
  81:../../Middlewares/LVGL/GUI/lvgl/src/widgets/menu/lv_menu.c **** 
  82:../../Middlewares/LVGL/GUI/lvgl/src/widgets/menu/lv_menu.c **** const lv_obj_class_t lv_menu_sidebar_cont_class = {
  83:../../Middlewares/LVGL/GUI/lvgl/src/widgets/menu/lv_menu.c ****     .base_class = &lv_obj_class,
  84:../../Middlewares/LVGL/GUI/lvgl/src/widgets/menu/lv_menu.c **** };
  85:../../Middlewares/LVGL/GUI/lvgl/src/widgets/menu/lv_menu.c **** 
  86:../../Middlewares/LVGL/GUI/lvgl/src/widgets/menu/lv_menu.c **** const lv_obj_class_t lv_menu_main_cont_class = {
  87:../../Middlewares/LVGL/GUI/lvgl/src/widgets/menu/lv_menu.c ****     .base_class = &lv_obj_class,
  88:../../Middlewares/LVGL/GUI/lvgl/src/widgets/menu/lv_menu.c **** };
ARM GAS  C:\Users\28576\AppData\Local\Temp\ccAP2L0b.s 			page 3


  89:../../Middlewares/LVGL/GUI/lvgl/src/widgets/menu/lv_menu.c **** 
  90:../../Middlewares/LVGL/GUI/lvgl/src/widgets/menu/lv_menu.c **** const lv_obj_class_t lv_menu_main_header_cont_class = {
  91:../../Middlewares/LVGL/GUI/lvgl/src/widgets/menu/lv_menu.c ****     .base_class = &lv_obj_class,
  92:../../Middlewares/LVGL/GUI/lvgl/src/widgets/menu/lv_menu.c **** };
  93:../../Middlewares/LVGL/GUI/lvgl/src/widgets/menu/lv_menu.c **** 
  94:../../Middlewares/LVGL/GUI/lvgl/src/widgets/menu/lv_menu.c **** const lv_obj_class_t lv_menu_sidebar_header_cont_class = {
  95:../../Middlewares/LVGL/GUI/lvgl/src/widgets/menu/lv_menu.c ****     .base_class = &lv_obj_class,
  96:../../Middlewares/LVGL/GUI/lvgl/src/widgets/menu/lv_menu.c **** };
  97:../../Middlewares/LVGL/GUI/lvgl/src/widgets/menu/lv_menu.c **** 
  98:../../Middlewares/LVGL/GUI/lvgl/src/widgets/menu/lv_menu.c **** static void lv_menu_refr(lv_obj_t * obj);
  99:../../Middlewares/LVGL/GUI/lvgl/src/widgets/menu/lv_menu.c **** static void lv_menu_refr_sidebar_header_mode(lv_obj_t * obj);
 100:../../Middlewares/LVGL/GUI/lvgl/src/widgets/menu/lv_menu.c **** static void lv_menu_refr_main_header_mode(lv_obj_t * obj);
 101:../../Middlewares/LVGL/GUI/lvgl/src/widgets/menu/lv_menu.c **** static void lv_menu_load_page_event_cb(lv_event_t * e);
 102:../../Middlewares/LVGL/GUI/lvgl/src/widgets/menu/lv_menu.c **** static void lv_menu_obj_delete_event_cb(lv_event_t * e);
 103:../../Middlewares/LVGL/GUI/lvgl/src/widgets/menu/lv_menu.c **** static void lv_menu_back_event_cb(lv_event_t * e);
 104:../../Middlewares/LVGL/GUI/lvgl/src/widgets/menu/lv_menu.c **** static void lv_menu_value_changed_event_cb(lv_event_t * e);
 105:../../Middlewares/LVGL/GUI/lvgl/src/widgets/menu/lv_menu.c **** /**********************
 106:../../Middlewares/LVGL/GUI/lvgl/src/widgets/menu/lv_menu.c ****  *  STATIC VARIABLES
 107:../../Middlewares/LVGL/GUI/lvgl/src/widgets/menu/lv_menu.c ****  **********************/
 108:../../Middlewares/LVGL/GUI/lvgl/src/widgets/menu/lv_menu.c **** 
 109:../../Middlewares/LVGL/GUI/lvgl/src/widgets/menu/lv_menu.c **** /**********************
 110:../../Middlewares/LVGL/GUI/lvgl/src/widgets/menu/lv_menu.c ****  *      MACROS
 111:../../Middlewares/LVGL/GUI/lvgl/src/widgets/menu/lv_menu.c ****  **********************/
 112:../../Middlewares/LVGL/GUI/lvgl/src/widgets/menu/lv_menu.c **** 
 113:../../Middlewares/LVGL/GUI/lvgl/src/widgets/menu/lv_menu.c **** /**********************
 114:../../Middlewares/LVGL/GUI/lvgl/src/widgets/menu/lv_menu.c ****  *   GLOBAL FUNCTIONS
 115:../../Middlewares/LVGL/GUI/lvgl/src/widgets/menu/lv_menu.c ****  **********************/
 116:../../Middlewares/LVGL/GUI/lvgl/src/widgets/menu/lv_menu.c **** void lv_menu_clear_history(lv_obj_t * obj);
 117:../../Middlewares/LVGL/GUI/lvgl/src/widgets/menu/lv_menu.c **** 
 118:../../Middlewares/LVGL/GUI/lvgl/src/widgets/menu/lv_menu.c **** lv_obj_t * lv_menu_create(lv_obj_t * parent)
 119:../../Middlewares/LVGL/GUI/lvgl/src/widgets/menu/lv_menu.c **** {
 120:../../Middlewares/LVGL/GUI/lvgl/src/widgets/menu/lv_menu.c ****     LV_LOG_INFO("begin");
 121:../../Middlewares/LVGL/GUI/lvgl/src/widgets/menu/lv_menu.c ****     lv_obj_t * obj = lv_obj_class_create_obj(MY_CLASS, parent);
 122:../../Middlewares/LVGL/GUI/lvgl/src/widgets/menu/lv_menu.c ****     lv_obj_class_init_obj(obj);
 123:../../Middlewares/LVGL/GUI/lvgl/src/widgets/menu/lv_menu.c ****     return obj;
 124:../../Middlewares/LVGL/GUI/lvgl/src/widgets/menu/lv_menu.c **** }
 125:../../Middlewares/LVGL/GUI/lvgl/src/widgets/menu/lv_menu.c **** 
 126:../../Middlewares/LVGL/GUI/lvgl/src/widgets/menu/lv_menu.c **** lv_obj_t * lv_menu_page_create(lv_obj_t * menu, char const * const title)
 127:../../Middlewares/LVGL/GUI/lvgl/src/widgets/menu/lv_menu.c **** {
 128:../../Middlewares/LVGL/GUI/lvgl/src/widgets/menu/lv_menu.c ****     LV_ASSERT_OBJ(menu, MY_CLASS);
 129:../../Middlewares/LVGL/GUI/lvgl/src/widgets/menu/lv_menu.c **** 
 130:../../Middlewares/LVGL/GUI/lvgl/src/widgets/menu/lv_menu.c ****     LV_LOG_INFO("begin");
 131:../../Middlewares/LVGL/GUI/lvgl/src/widgets/menu/lv_menu.c ****     lv_obj_t * obj = lv_obj_class_create_obj(&lv_menu_page_class, menu);
 132:../../Middlewares/LVGL/GUI/lvgl/src/widgets/menu/lv_menu.c ****     lv_obj_class_init_obj(obj);
 133:../../Middlewares/LVGL/GUI/lvgl/src/widgets/menu/lv_menu.c **** 
 134:../../Middlewares/LVGL/GUI/lvgl/src/widgets/menu/lv_menu.c ****     lv_menu_page_t * page = (lv_menu_page_t *)obj;
 135:../../Middlewares/LVGL/GUI/lvgl/src/widgets/menu/lv_menu.c ****     /* Initialise the object */
 136:../../Middlewares/LVGL/GUI/lvgl/src/widgets/menu/lv_menu.c ****     page->title        = NULL;
 137:../../Middlewares/LVGL/GUI/lvgl/src/widgets/menu/lv_menu.c ****     page->static_title = false;
 138:../../Middlewares/LVGL/GUI/lvgl/src/widgets/menu/lv_menu.c ****     lv_menu_set_page_title(obj, title);
 139:../../Middlewares/LVGL/GUI/lvgl/src/widgets/menu/lv_menu.c **** 
 140:../../Middlewares/LVGL/GUI/lvgl/src/widgets/menu/lv_menu.c ****     return obj;
 141:../../Middlewares/LVGL/GUI/lvgl/src/widgets/menu/lv_menu.c **** }
 142:../../Middlewares/LVGL/GUI/lvgl/src/widgets/menu/lv_menu.c **** 
 143:../../Middlewares/LVGL/GUI/lvgl/src/widgets/menu/lv_menu.c **** lv_obj_t * lv_menu_cont_create(lv_obj_t * parent)
 144:../../Middlewares/LVGL/GUI/lvgl/src/widgets/menu/lv_menu.c **** {
 145:../../Middlewares/LVGL/GUI/lvgl/src/widgets/menu/lv_menu.c ****     LV_ASSERT_OBJ(parent, &lv_menu_page_class);
ARM GAS  C:\Users\28576\AppData\Local\Temp\ccAP2L0b.s 			page 4


 146:../../Middlewares/LVGL/GUI/lvgl/src/widgets/menu/lv_menu.c **** 
 147:../../Middlewares/LVGL/GUI/lvgl/src/widgets/menu/lv_menu.c ****     LV_LOG_INFO("begin");
 148:../../Middlewares/LVGL/GUI/lvgl/src/widgets/menu/lv_menu.c ****     lv_obj_t * obj = lv_obj_class_create_obj(&lv_menu_cont_class, parent);
 149:../../Middlewares/LVGL/GUI/lvgl/src/widgets/menu/lv_menu.c ****     lv_obj_class_init_obj(obj);
 150:../../Middlewares/LVGL/GUI/lvgl/src/widgets/menu/lv_menu.c ****     return obj;
 151:../../Middlewares/LVGL/GUI/lvgl/src/widgets/menu/lv_menu.c **** }
 152:../../Middlewares/LVGL/GUI/lvgl/src/widgets/menu/lv_menu.c **** 
 153:../../Middlewares/LVGL/GUI/lvgl/src/widgets/menu/lv_menu.c **** lv_obj_t * lv_menu_section_create(lv_obj_t * parent)
 154:../../Middlewares/LVGL/GUI/lvgl/src/widgets/menu/lv_menu.c **** {
 155:../../Middlewares/LVGL/GUI/lvgl/src/widgets/menu/lv_menu.c ****     LV_ASSERT_OBJ(parent, &lv_menu_page_class);
 156:../../Middlewares/LVGL/GUI/lvgl/src/widgets/menu/lv_menu.c **** 
 157:../../Middlewares/LVGL/GUI/lvgl/src/widgets/menu/lv_menu.c ****     LV_LOG_INFO("begin");
 158:../../Middlewares/LVGL/GUI/lvgl/src/widgets/menu/lv_menu.c ****     lv_obj_t * obj = lv_obj_class_create_obj(&lv_menu_section_class, parent);
 159:../../Middlewares/LVGL/GUI/lvgl/src/widgets/menu/lv_menu.c ****     lv_obj_class_init_obj(obj);
 160:../../Middlewares/LVGL/GUI/lvgl/src/widgets/menu/lv_menu.c ****     return obj;
 161:../../Middlewares/LVGL/GUI/lvgl/src/widgets/menu/lv_menu.c **** }
 162:../../Middlewares/LVGL/GUI/lvgl/src/widgets/menu/lv_menu.c **** 
 163:../../Middlewares/LVGL/GUI/lvgl/src/widgets/menu/lv_menu.c **** lv_obj_t * lv_menu_separator_create(lv_obj_t * parent)
 164:../../Middlewares/LVGL/GUI/lvgl/src/widgets/menu/lv_menu.c **** {
 165:../../Middlewares/LVGL/GUI/lvgl/src/widgets/menu/lv_menu.c ****     LV_ASSERT_OBJ(parent, &lv_menu_page_class);
 166:../../Middlewares/LVGL/GUI/lvgl/src/widgets/menu/lv_menu.c **** 
 167:../../Middlewares/LVGL/GUI/lvgl/src/widgets/menu/lv_menu.c ****     LV_LOG_INFO("begin");
 168:../../Middlewares/LVGL/GUI/lvgl/src/widgets/menu/lv_menu.c ****     lv_obj_t * obj = lv_obj_class_create_obj(&lv_menu_separator_class, parent);
 169:../../Middlewares/LVGL/GUI/lvgl/src/widgets/menu/lv_menu.c ****     lv_obj_class_init_obj(obj);
 170:../../Middlewares/LVGL/GUI/lvgl/src/widgets/menu/lv_menu.c ****     return obj;
 171:../../Middlewares/LVGL/GUI/lvgl/src/widgets/menu/lv_menu.c **** }
 172:../../Middlewares/LVGL/GUI/lvgl/src/widgets/menu/lv_menu.c **** 
 173:../../Middlewares/LVGL/GUI/lvgl/src/widgets/menu/lv_menu.c **** void lv_menu_refr(lv_obj_t * obj)
 174:../../Middlewares/LVGL/GUI/lvgl/src/widgets/menu/lv_menu.c **** {
 175:../../Middlewares/LVGL/GUI/lvgl/src/widgets/menu/lv_menu.c ****     LV_ASSERT_OBJ(obj, MY_CLASS);
 176:../../Middlewares/LVGL/GUI/lvgl/src/widgets/menu/lv_menu.c **** 
 177:../../Middlewares/LVGL/GUI/lvgl/src/widgets/menu/lv_menu.c ****     lv_menu_t * menu = (lv_menu_t *)obj;
 178:../../Middlewares/LVGL/GUI/lvgl/src/widgets/menu/lv_menu.c ****     lv_ll_t * history_ll = &(menu->history_ll);
 179:../../Middlewares/LVGL/GUI/lvgl/src/widgets/menu/lv_menu.c **** 
 180:../../Middlewares/LVGL/GUI/lvgl/src/widgets/menu/lv_menu.c ****     /* The current menu */
 181:../../Middlewares/LVGL/GUI/lvgl/src/widgets/menu/lv_menu.c ****     lv_menu_history_t * act_hist = lv_ll_get_head(history_ll);
 182:../../Middlewares/LVGL/GUI/lvgl/src/widgets/menu/lv_menu.c **** 
 183:../../Middlewares/LVGL/GUI/lvgl/src/widgets/menu/lv_menu.c ****     lv_obj_t * page = NULL;
 184:../../Middlewares/LVGL/GUI/lvgl/src/widgets/menu/lv_menu.c **** 
 185:../../Middlewares/LVGL/GUI/lvgl/src/widgets/menu/lv_menu.c ****     if(act_hist != NULL) {
 186:../../Middlewares/LVGL/GUI/lvgl/src/widgets/menu/lv_menu.c ****         page = act_hist->page;
 187:../../Middlewares/LVGL/GUI/lvgl/src/widgets/menu/lv_menu.c ****         /* Delete the current item from the history */
 188:../../Middlewares/LVGL/GUI/lvgl/src/widgets/menu/lv_menu.c ****         lv_ll_remove(history_ll, act_hist);
 189:../../Middlewares/LVGL/GUI/lvgl/src/widgets/menu/lv_menu.c ****         lv_free(act_hist);
 190:../../Middlewares/LVGL/GUI/lvgl/src/widgets/menu/lv_menu.c ****         menu->cur_depth--;
 191:../../Middlewares/LVGL/GUI/lvgl/src/widgets/menu/lv_menu.c ****     }
 192:../../Middlewares/LVGL/GUI/lvgl/src/widgets/menu/lv_menu.c **** 
 193:../../Middlewares/LVGL/GUI/lvgl/src/widgets/menu/lv_menu.c ****     /* Set it */
 194:../../Middlewares/LVGL/GUI/lvgl/src/widgets/menu/lv_menu.c ****     lv_menu_set_page(obj, page);
 195:../../Middlewares/LVGL/GUI/lvgl/src/widgets/menu/lv_menu.c **** }
 196:../../Middlewares/LVGL/GUI/lvgl/src/widgets/menu/lv_menu.c **** 
 197:../../Middlewares/LVGL/GUI/lvgl/src/widgets/menu/lv_menu.c **** /*=====================
 198:../../Middlewares/LVGL/GUI/lvgl/src/widgets/menu/lv_menu.c ****  * Setter functions
 199:../../Middlewares/LVGL/GUI/lvgl/src/widgets/menu/lv_menu.c ****  *====================*/
 200:../../Middlewares/LVGL/GUI/lvgl/src/widgets/menu/lv_menu.c **** 
 201:../../Middlewares/LVGL/GUI/lvgl/src/widgets/menu/lv_menu.c **** void lv_menu_set_page(lv_obj_t * obj, lv_obj_t * page)
 202:../../Middlewares/LVGL/GUI/lvgl/src/widgets/menu/lv_menu.c **** {
ARM GAS  C:\Users\28576\AppData\Local\Temp\ccAP2L0b.s 			page 5


 203:../../Middlewares/LVGL/GUI/lvgl/src/widgets/menu/lv_menu.c ****     LV_ASSERT_OBJ(obj, MY_CLASS);
 204:../../Middlewares/LVGL/GUI/lvgl/src/widgets/menu/lv_menu.c **** 
 205:../../Middlewares/LVGL/GUI/lvgl/src/widgets/menu/lv_menu.c ****     lv_menu_t * menu = (lv_menu_t *)obj;
 206:../../Middlewares/LVGL/GUI/lvgl/src/widgets/menu/lv_menu.c **** 
 207:../../Middlewares/LVGL/GUI/lvgl/src/widgets/menu/lv_menu.c ****     /* Hide previous page */
 208:../../Middlewares/LVGL/GUI/lvgl/src/widgets/menu/lv_menu.c ****     if(menu->main_page != NULL) {
 209:../../Middlewares/LVGL/GUI/lvgl/src/widgets/menu/lv_menu.c ****         lv_obj_set_parent(menu->main_page, menu->storage);
 210:../../Middlewares/LVGL/GUI/lvgl/src/widgets/menu/lv_menu.c ****     }
 211:../../Middlewares/LVGL/GUI/lvgl/src/widgets/menu/lv_menu.c **** 
 212:../../Middlewares/LVGL/GUI/lvgl/src/widgets/menu/lv_menu.c ****     if(page != NULL) {
 213:../../Middlewares/LVGL/GUI/lvgl/src/widgets/menu/lv_menu.c ****         /* Add a new node */
 214:../../Middlewares/LVGL/GUI/lvgl/src/widgets/menu/lv_menu.c ****         lv_ll_t * history_ll = &(menu->history_ll);
 215:../../Middlewares/LVGL/GUI/lvgl/src/widgets/menu/lv_menu.c ****         lv_menu_history_t * new_node = lv_ll_ins_head(history_ll);
 216:../../Middlewares/LVGL/GUI/lvgl/src/widgets/menu/lv_menu.c ****         LV_ASSERT_MALLOC(new_node);
 217:../../Middlewares/LVGL/GUI/lvgl/src/widgets/menu/lv_menu.c ****         new_node->page = page;
 218:../../Middlewares/LVGL/GUI/lvgl/src/widgets/menu/lv_menu.c ****         menu->cur_depth++;
 219:../../Middlewares/LVGL/GUI/lvgl/src/widgets/menu/lv_menu.c **** 
 220:../../Middlewares/LVGL/GUI/lvgl/src/widgets/menu/lv_menu.c ****         /* Place page in main */
 221:../../Middlewares/LVGL/GUI/lvgl/src/widgets/menu/lv_menu.c ****         lv_obj_set_parent(page, menu->main);
 222:../../Middlewares/LVGL/GUI/lvgl/src/widgets/menu/lv_menu.c ****     }
 223:../../Middlewares/LVGL/GUI/lvgl/src/widgets/menu/lv_menu.c ****     else {
 224:../../Middlewares/LVGL/GUI/lvgl/src/widgets/menu/lv_menu.c ****         /* Empty page, clear history */
 225:../../Middlewares/LVGL/GUI/lvgl/src/widgets/menu/lv_menu.c ****         lv_menu_clear_history(obj);
 226:../../Middlewares/LVGL/GUI/lvgl/src/widgets/menu/lv_menu.c ****     }
 227:../../Middlewares/LVGL/GUI/lvgl/src/widgets/menu/lv_menu.c **** 
 228:../../Middlewares/LVGL/GUI/lvgl/src/widgets/menu/lv_menu.c ****     menu->main_page = page;
 229:../../Middlewares/LVGL/GUI/lvgl/src/widgets/menu/lv_menu.c **** 
 230:../../Middlewares/LVGL/GUI/lvgl/src/widgets/menu/lv_menu.c ****     /* If there is a selected tab, update checked state */
 231:../../Middlewares/LVGL/GUI/lvgl/src/widgets/menu/lv_menu.c ****     if(menu->selected_tab != NULL) {
 232:../../Middlewares/LVGL/GUI/lvgl/src/widgets/menu/lv_menu.c ****         if(menu->sidebar_page != NULL) {
 233:../../Middlewares/LVGL/GUI/lvgl/src/widgets/menu/lv_menu.c ****             lv_obj_add_state(menu->selected_tab, LV_STATE_CHECKED);
 234:../../Middlewares/LVGL/GUI/lvgl/src/widgets/menu/lv_menu.c ****         }
 235:../../Middlewares/LVGL/GUI/lvgl/src/widgets/menu/lv_menu.c ****         else {
 236:../../Middlewares/LVGL/GUI/lvgl/src/widgets/menu/lv_menu.c ****             lv_obj_remove_state(menu->selected_tab, LV_STATE_CHECKED);
 237:../../Middlewares/LVGL/GUI/lvgl/src/widgets/menu/lv_menu.c ****         }
 238:../../Middlewares/LVGL/GUI/lvgl/src/widgets/menu/lv_menu.c ****     }
 239:../../Middlewares/LVGL/GUI/lvgl/src/widgets/menu/lv_menu.c **** 
 240:../../Middlewares/LVGL/GUI/lvgl/src/widgets/menu/lv_menu.c ****     /* Back btn management */
 241:../../Middlewares/LVGL/GUI/lvgl/src/widgets/menu/lv_menu.c ****     if(menu->sidebar_page != NULL) {
 242:../../Middlewares/LVGL/GUI/lvgl/src/widgets/menu/lv_menu.c ****         /* With sidebar enabled */
 243:../../Middlewares/LVGL/GUI/lvgl/src/widgets/menu/lv_menu.c ****         if(menu->sidebar_generated) {
 244:../../Middlewares/LVGL/GUI/lvgl/src/widgets/menu/lv_menu.c ****             if(menu->mode_root_back_btn == LV_MENU_ROOT_BACK_BUTTON_ENABLED) {
 245:../../Middlewares/LVGL/GUI/lvgl/src/widgets/menu/lv_menu.c ****                 /* Root back btn is always shown if enabled*/
 246:../../Middlewares/LVGL/GUI/lvgl/src/widgets/menu/lv_menu.c ****                 lv_obj_remove_flag(menu->sidebar_header_back_btn, LV_OBJ_FLAG_HIDDEN);
 247:../../Middlewares/LVGL/GUI/lvgl/src/widgets/menu/lv_menu.c ****                 lv_obj_add_flag(menu->sidebar_header_back_btn, LV_OBJ_FLAG_CLICKABLE);
 248:../../Middlewares/LVGL/GUI/lvgl/src/widgets/menu/lv_menu.c ****             }
 249:../../Middlewares/LVGL/GUI/lvgl/src/widgets/menu/lv_menu.c ****             else {
 250:../../Middlewares/LVGL/GUI/lvgl/src/widgets/menu/lv_menu.c ****                 lv_obj_add_flag(menu->sidebar_header_back_btn, LV_OBJ_FLAG_HIDDEN);
 251:../../Middlewares/LVGL/GUI/lvgl/src/widgets/menu/lv_menu.c ****                 lv_obj_remove_flag(menu->sidebar_header_back_btn, LV_OBJ_FLAG_CLICKABLE);
 252:../../Middlewares/LVGL/GUI/lvgl/src/widgets/menu/lv_menu.c ****             }
 253:../../Middlewares/LVGL/GUI/lvgl/src/widgets/menu/lv_menu.c ****         }
 254:../../Middlewares/LVGL/GUI/lvgl/src/widgets/menu/lv_menu.c **** 
 255:../../Middlewares/LVGL/GUI/lvgl/src/widgets/menu/lv_menu.c ****         if(menu->cur_depth >= 2) {
 256:../../Middlewares/LVGL/GUI/lvgl/src/widgets/menu/lv_menu.c ****             lv_obj_remove_flag(menu->main_header_back_btn, LV_OBJ_FLAG_HIDDEN);
 257:../../Middlewares/LVGL/GUI/lvgl/src/widgets/menu/lv_menu.c ****             lv_obj_add_flag(menu->main_header_back_btn, LV_OBJ_FLAG_CLICKABLE);
 258:../../Middlewares/LVGL/GUI/lvgl/src/widgets/menu/lv_menu.c ****         }
 259:../../Middlewares/LVGL/GUI/lvgl/src/widgets/menu/lv_menu.c ****         else {
ARM GAS  C:\Users\28576\AppData\Local\Temp\ccAP2L0b.s 			page 6


 260:../../Middlewares/LVGL/GUI/lvgl/src/widgets/menu/lv_menu.c ****             lv_obj_add_flag(menu->main_header_back_btn, LV_OBJ_FLAG_HIDDEN);
 261:../../Middlewares/LVGL/GUI/lvgl/src/widgets/menu/lv_menu.c ****             lv_obj_remove_flag(menu->main_header_back_btn, LV_OBJ_FLAG_CLICKABLE);
 262:../../Middlewares/LVGL/GUI/lvgl/src/widgets/menu/lv_menu.c ****         }
 263:../../Middlewares/LVGL/GUI/lvgl/src/widgets/menu/lv_menu.c ****     }
 264:../../Middlewares/LVGL/GUI/lvgl/src/widgets/menu/lv_menu.c ****     else {
 265:../../Middlewares/LVGL/GUI/lvgl/src/widgets/menu/lv_menu.c ****         /* With sidebar disabled */
 266:../../Middlewares/LVGL/GUI/lvgl/src/widgets/menu/lv_menu.c ****         if(menu->cur_depth >= 2 || menu->mode_root_back_btn == LV_MENU_ROOT_BACK_BUTTON_ENABLED) {
 267:../../Middlewares/LVGL/GUI/lvgl/src/widgets/menu/lv_menu.c ****             lv_obj_remove_flag(menu->main_header_back_btn, LV_OBJ_FLAG_HIDDEN);
 268:../../Middlewares/LVGL/GUI/lvgl/src/widgets/menu/lv_menu.c ****             lv_obj_add_flag(menu->main_header_back_btn, LV_OBJ_FLAG_CLICKABLE);
 269:../../Middlewares/LVGL/GUI/lvgl/src/widgets/menu/lv_menu.c ****         }
 270:../../Middlewares/LVGL/GUI/lvgl/src/widgets/menu/lv_menu.c ****         else {
 271:../../Middlewares/LVGL/GUI/lvgl/src/widgets/menu/lv_menu.c ****             lv_obj_add_flag(menu->main_header_back_btn, LV_OBJ_FLAG_HIDDEN);
 272:../../Middlewares/LVGL/GUI/lvgl/src/widgets/menu/lv_menu.c ****             lv_obj_remove_flag(menu->main_header_back_btn, LV_OBJ_FLAG_CLICKABLE);
 273:../../Middlewares/LVGL/GUI/lvgl/src/widgets/menu/lv_menu.c ****         }
 274:../../Middlewares/LVGL/GUI/lvgl/src/widgets/menu/lv_menu.c ****     }
 275:../../Middlewares/LVGL/GUI/lvgl/src/widgets/menu/lv_menu.c **** 
 276:../../Middlewares/LVGL/GUI/lvgl/src/widgets/menu/lv_menu.c ****     lv_obj_send_event((lv_obj_t *)menu, LV_EVENT_VALUE_CHANGED, NULL);
 277:../../Middlewares/LVGL/GUI/lvgl/src/widgets/menu/lv_menu.c **** 
 278:../../Middlewares/LVGL/GUI/lvgl/src/widgets/menu/lv_menu.c ****     lv_menu_refr_main_header_mode(obj);
 279:../../Middlewares/LVGL/GUI/lvgl/src/widgets/menu/lv_menu.c **** }
 280:../../Middlewares/LVGL/GUI/lvgl/src/widgets/menu/lv_menu.c **** 
 281:../../Middlewares/LVGL/GUI/lvgl/src/widgets/menu/lv_menu.c **** void lv_menu_set_sidebar_page(lv_obj_t * obj, lv_obj_t * page)
 282:../../Middlewares/LVGL/GUI/lvgl/src/widgets/menu/lv_menu.c **** {
 283:../../Middlewares/LVGL/GUI/lvgl/src/widgets/menu/lv_menu.c ****     LV_ASSERT_OBJ(obj, MY_CLASS);
 284:../../Middlewares/LVGL/GUI/lvgl/src/widgets/menu/lv_menu.c **** 
 285:../../Middlewares/LVGL/GUI/lvgl/src/widgets/menu/lv_menu.c ****     lv_menu_t * menu = (lv_menu_t *)obj;
 286:../../Middlewares/LVGL/GUI/lvgl/src/widgets/menu/lv_menu.c **** 
 287:../../Middlewares/LVGL/GUI/lvgl/src/widgets/menu/lv_menu.c ****     /* Sidebar management*/
 288:../../Middlewares/LVGL/GUI/lvgl/src/widgets/menu/lv_menu.c ****     if(page != NULL) {
 289:../../Middlewares/LVGL/GUI/lvgl/src/widgets/menu/lv_menu.c ****         /* Sidebar should be enabled */
 290:../../Middlewares/LVGL/GUI/lvgl/src/widgets/menu/lv_menu.c ****         if(!menu->sidebar_generated) {
 291:../../Middlewares/LVGL/GUI/lvgl/src/widgets/menu/lv_menu.c ****             /* Create sidebar */
 292:../../Middlewares/LVGL/GUI/lvgl/src/widgets/menu/lv_menu.c ****             lv_obj_t * sidebar_cont = lv_obj_class_create_obj(&lv_menu_sidebar_cont_class, obj);
 293:../../Middlewares/LVGL/GUI/lvgl/src/widgets/menu/lv_menu.c ****             lv_obj_class_init_obj(sidebar_cont);
 294:../../Middlewares/LVGL/GUI/lvgl/src/widgets/menu/lv_menu.c ****             lv_obj_move_to_index(sidebar_cont, 1);
 295:../../Middlewares/LVGL/GUI/lvgl/src/widgets/menu/lv_menu.c ****             lv_obj_set_size(sidebar_cont, LV_PCT(30), LV_PCT(100));
 296:../../Middlewares/LVGL/GUI/lvgl/src/widgets/menu/lv_menu.c ****             lv_obj_set_flex_flow(sidebar_cont, LV_FLEX_FLOW_COLUMN);
 297:../../Middlewares/LVGL/GUI/lvgl/src/widgets/menu/lv_menu.c ****             lv_obj_add_flag(sidebar_cont, LV_OBJ_FLAG_EVENT_BUBBLE);
 298:../../Middlewares/LVGL/GUI/lvgl/src/widgets/menu/lv_menu.c ****             lv_obj_remove_flag(sidebar_cont, LV_OBJ_FLAG_CLICKABLE);
 299:../../Middlewares/LVGL/GUI/lvgl/src/widgets/menu/lv_menu.c ****             menu->sidebar = sidebar_cont;
 300:../../Middlewares/LVGL/GUI/lvgl/src/widgets/menu/lv_menu.c **** 
 301:../../Middlewares/LVGL/GUI/lvgl/src/widgets/menu/lv_menu.c ****             lv_obj_t * sidebar_header = lv_obj_class_create_obj(&lv_menu_sidebar_header_cont_class,
 302:../../Middlewares/LVGL/GUI/lvgl/src/widgets/menu/lv_menu.c ****             lv_obj_class_init_obj(sidebar_header);
 303:../../Middlewares/LVGL/GUI/lvgl/src/widgets/menu/lv_menu.c ****             lv_obj_set_size(sidebar_header, LV_PCT(100), LV_SIZE_CONTENT);
 304:../../Middlewares/LVGL/GUI/lvgl/src/widgets/menu/lv_menu.c ****             lv_obj_set_flex_flow(sidebar_header, LV_FLEX_FLOW_ROW);
 305:../../Middlewares/LVGL/GUI/lvgl/src/widgets/menu/lv_menu.c ****             lv_obj_set_flex_align(sidebar_header, LV_FLEX_ALIGN_START, LV_FLEX_ALIGN_CENTER, LV_FLE
 306:../../Middlewares/LVGL/GUI/lvgl/src/widgets/menu/lv_menu.c ****             lv_obj_remove_flag(sidebar_header, LV_OBJ_FLAG_CLICKABLE);
 307:../../Middlewares/LVGL/GUI/lvgl/src/widgets/menu/lv_menu.c ****             lv_obj_add_flag(sidebar_header, LV_OBJ_FLAG_EVENT_BUBBLE);
 308:../../Middlewares/LVGL/GUI/lvgl/src/widgets/menu/lv_menu.c ****             menu->sidebar_header = sidebar_header;
 309:../../Middlewares/LVGL/GUI/lvgl/src/widgets/menu/lv_menu.c **** 
 310:../../Middlewares/LVGL/GUI/lvgl/src/widgets/menu/lv_menu.c ****             lv_obj_t * sidebar_header_back_btn = lv_button_create(menu->sidebar_header);
 311:../../Middlewares/LVGL/GUI/lvgl/src/widgets/menu/lv_menu.c ****             lv_obj_add_event_cb(sidebar_header_back_btn, lv_menu_back_event_cb, LV_EVENT_CLICKED, m
 312:../../Middlewares/LVGL/GUI/lvgl/src/widgets/menu/lv_menu.c ****             lv_obj_add_flag(sidebar_header_back_btn, LV_OBJ_FLAG_EVENT_BUBBLE);
 313:../../Middlewares/LVGL/GUI/lvgl/src/widgets/menu/lv_menu.c ****             lv_obj_set_flex_flow(sidebar_header_back_btn, LV_FLEX_FLOW_ROW);
 314:../../Middlewares/LVGL/GUI/lvgl/src/widgets/menu/lv_menu.c ****             menu->sidebar_header_back_btn = sidebar_header_back_btn;
 315:../../Middlewares/LVGL/GUI/lvgl/src/widgets/menu/lv_menu.c **** 
 316:../../Middlewares/LVGL/GUI/lvgl/src/widgets/menu/lv_menu.c ****             lv_obj_t * sidebar_header_back_icon = lv_image_create(menu->sidebar_header_back_btn);
ARM GAS  C:\Users\28576\AppData\Local\Temp\ccAP2L0b.s 			page 7


 317:../../Middlewares/LVGL/GUI/lvgl/src/widgets/menu/lv_menu.c ****             lv_image_set_src(sidebar_header_back_icon, LV_SYMBOL_LEFT);
 318:../../Middlewares/LVGL/GUI/lvgl/src/widgets/menu/lv_menu.c **** 
 319:../../Middlewares/LVGL/GUI/lvgl/src/widgets/menu/lv_menu.c ****             lv_obj_t * sidebar_header_title = lv_label_create(menu->sidebar_header);
 320:../../Middlewares/LVGL/GUI/lvgl/src/widgets/menu/lv_menu.c ****             lv_obj_add_flag(sidebar_header_title, LV_OBJ_FLAG_HIDDEN);
 321:../../Middlewares/LVGL/GUI/lvgl/src/widgets/menu/lv_menu.c ****             menu->sidebar_header_title = sidebar_header_title;
 322:../../Middlewares/LVGL/GUI/lvgl/src/widgets/menu/lv_menu.c **** 
 323:../../Middlewares/LVGL/GUI/lvgl/src/widgets/menu/lv_menu.c ****             menu->sidebar_generated = true;
 324:../../Middlewares/LVGL/GUI/lvgl/src/widgets/menu/lv_menu.c ****         }
 325:../../Middlewares/LVGL/GUI/lvgl/src/widgets/menu/lv_menu.c **** 
 326:../../Middlewares/LVGL/GUI/lvgl/src/widgets/menu/lv_menu.c ****         lv_obj_set_parent(page, menu->sidebar);
 327:../../Middlewares/LVGL/GUI/lvgl/src/widgets/menu/lv_menu.c **** 
 328:../../Middlewares/LVGL/GUI/lvgl/src/widgets/menu/lv_menu.c ****         lv_menu_refr_sidebar_header_mode(obj);
 329:../../Middlewares/LVGL/GUI/lvgl/src/widgets/menu/lv_menu.c ****     }
 330:../../Middlewares/LVGL/GUI/lvgl/src/widgets/menu/lv_menu.c ****     else {
 331:../../Middlewares/LVGL/GUI/lvgl/src/widgets/menu/lv_menu.c ****         /* Sidebar should be disabled */
 332:../../Middlewares/LVGL/GUI/lvgl/src/widgets/menu/lv_menu.c ****         if(menu->sidebar_generated) {
 333:../../Middlewares/LVGL/GUI/lvgl/src/widgets/menu/lv_menu.c ****             lv_obj_set_parent(menu->sidebar_page, menu->storage);
 334:../../Middlewares/LVGL/GUI/lvgl/src/widgets/menu/lv_menu.c ****             lv_obj_delete(menu->sidebar);
 335:../../Middlewares/LVGL/GUI/lvgl/src/widgets/menu/lv_menu.c **** 
 336:../../Middlewares/LVGL/GUI/lvgl/src/widgets/menu/lv_menu.c ****             menu->sidebar_generated = false;
 337:../../Middlewares/LVGL/GUI/lvgl/src/widgets/menu/lv_menu.c ****         }
 338:../../Middlewares/LVGL/GUI/lvgl/src/widgets/menu/lv_menu.c ****     }
 339:../../Middlewares/LVGL/GUI/lvgl/src/widgets/menu/lv_menu.c **** 
 340:../../Middlewares/LVGL/GUI/lvgl/src/widgets/menu/lv_menu.c ****     menu->sidebar_page = page;
 341:../../Middlewares/LVGL/GUI/lvgl/src/widgets/menu/lv_menu.c ****     lv_menu_refr(obj);
 342:../../Middlewares/LVGL/GUI/lvgl/src/widgets/menu/lv_menu.c **** }
 343:../../Middlewares/LVGL/GUI/lvgl/src/widgets/menu/lv_menu.c **** 
 344:../../Middlewares/LVGL/GUI/lvgl/src/widgets/menu/lv_menu.c **** void lv_menu_set_mode_header(lv_obj_t * obj, lv_menu_mode_header_t mode)
 345:../../Middlewares/LVGL/GUI/lvgl/src/widgets/menu/lv_menu.c **** {
 346:../../Middlewares/LVGL/GUI/lvgl/src/widgets/menu/lv_menu.c ****     LV_ASSERT_OBJ(obj, MY_CLASS);
 347:../../Middlewares/LVGL/GUI/lvgl/src/widgets/menu/lv_menu.c **** 
 348:../../Middlewares/LVGL/GUI/lvgl/src/widgets/menu/lv_menu.c ****     lv_menu_t * menu = (lv_menu_t *)obj;
 349:../../Middlewares/LVGL/GUI/lvgl/src/widgets/menu/lv_menu.c **** 
 350:../../Middlewares/LVGL/GUI/lvgl/src/widgets/menu/lv_menu.c ****     if(menu->mode_header != mode) {
 351:../../Middlewares/LVGL/GUI/lvgl/src/widgets/menu/lv_menu.c ****         menu->mode_header = mode;
 352:../../Middlewares/LVGL/GUI/lvgl/src/widgets/menu/lv_menu.c ****         lv_menu_refr_main_header_mode(obj);
 353:../../Middlewares/LVGL/GUI/lvgl/src/widgets/menu/lv_menu.c ****         if(menu->sidebar_generated) lv_menu_refr_sidebar_header_mode(obj);
 354:../../Middlewares/LVGL/GUI/lvgl/src/widgets/menu/lv_menu.c ****     }
 355:../../Middlewares/LVGL/GUI/lvgl/src/widgets/menu/lv_menu.c **** }
 356:../../Middlewares/LVGL/GUI/lvgl/src/widgets/menu/lv_menu.c **** 
 357:../../Middlewares/LVGL/GUI/lvgl/src/widgets/menu/lv_menu.c **** void lv_menu_set_mode_root_back_button(lv_obj_t * obj, lv_menu_mode_root_back_button_t mode)
 358:../../Middlewares/LVGL/GUI/lvgl/src/widgets/menu/lv_menu.c **** {
 359:../../Middlewares/LVGL/GUI/lvgl/src/widgets/menu/lv_menu.c ****     LV_ASSERT_OBJ(obj, MY_CLASS);
 360:../../Middlewares/LVGL/GUI/lvgl/src/widgets/menu/lv_menu.c **** 
 361:../../Middlewares/LVGL/GUI/lvgl/src/widgets/menu/lv_menu.c ****     lv_menu_t * menu = (lv_menu_t *)obj;
 362:../../Middlewares/LVGL/GUI/lvgl/src/widgets/menu/lv_menu.c **** 
 363:../../Middlewares/LVGL/GUI/lvgl/src/widgets/menu/lv_menu.c ****     if(menu->mode_root_back_btn != mode) {
 364:../../Middlewares/LVGL/GUI/lvgl/src/widgets/menu/lv_menu.c ****         menu->mode_root_back_btn = mode;
 365:../../Middlewares/LVGL/GUI/lvgl/src/widgets/menu/lv_menu.c ****         lv_menu_refr(obj);
 366:../../Middlewares/LVGL/GUI/lvgl/src/widgets/menu/lv_menu.c ****     }
 367:../../Middlewares/LVGL/GUI/lvgl/src/widgets/menu/lv_menu.c **** }
 368:../../Middlewares/LVGL/GUI/lvgl/src/widgets/menu/lv_menu.c **** 
 369:../../Middlewares/LVGL/GUI/lvgl/src/widgets/menu/lv_menu.c **** void lv_menu_set_load_page_event(lv_obj_t * menu, lv_obj_t * obj, lv_obj_t * page)
 370:../../Middlewares/LVGL/GUI/lvgl/src/widgets/menu/lv_menu.c **** {
 371:../../Middlewares/LVGL/GUI/lvgl/src/widgets/menu/lv_menu.c ****     LV_ASSERT_OBJ(menu, MY_CLASS);
 372:../../Middlewares/LVGL/GUI/lvgl/src/widgets/menu/lv_menu.c **** 
 373:../../Middlewares/LVGL/GUI/lvgl/src/widgets/menu/lv_menu.c ****     lv_obj_add_flag(obj, LV_OBJ_FLAG_CLICKABLE);
ARM GAS  C:\Users\28576\AppData\Local\Temp\ccAP2L0b.s 			page 8


 374:../../Middlewares/LVGL/GUI/lvgl/src/widgets/menu/lv_menu.c ****     lv_obj_remove_flag(obj, LV_OBJ_FLAG_SCROLLABLE);
 375:../../Middlewares/LVGL/GUI/lvgl/src/widgets/menu/lv_menu.c ****     lv_obj_add_flag(obj, LV_OBJ_FLAG_SCROLL_ON_FOCUS);
 376:../../Middlewares/LVGL/GUI/lvgl/src/widgets/menu/lv_menu.c **** 
 377:../../Middlewares/LVGL/GUI/lvgl/src/widgets/menu/lv_menu.c ****     /* Remove old event */
 378:../../Middlewares/LVGL/GUI/lvgl/src/widgets/menu/lv_menu.c ****     uint32_t i;
 379:../../Middlewares/LVGL/GUI/lvgl/src/widgets/menu/lv_menu.c ****     uint32_t event_cnt = lv_obj_get_event_count(obj);
 380:../../Middlewares/LVGL/GUI/lvgl/src/widgets/menu/lv_menu.c ****     for(i = 0; i < event_cnt; i++) {
 381:../../Middlewares/LVGL/GUI/lvgl/src/widgets/menu/lv_menu.c ****         lv_event_dsc_t * event_dsc = lv_obj_get_event_dsc(obj, i);
 382:../../Middlewares/LVGL/GUI/lvgl/src/widgets/menu/lv_menu.c ****         if(lv_event_dsc_get_cb(event_dsc) == lv_menu_load_page_event_cb) {
 383:../../Middlewares/LVGL/GUI/lvgl/src/widgets/menu/lv_menu.c ****             lv_obj_send_event(obj, LV_EVENT_DELETE, NULL);
 384:../../Middlewares/LVGL/GUI/lvgl/src/widgets/menu/lv_menu.c ****             lv_obj_remove_event(obj, i);
 385:../../Middlewares/LVGL/GUI/lvgl/src/widgets/menu/lv_menu.c ****             break;
 386:../../Middlewares/LVGL/GUI/lvgl/src/widgets/menu/lv_menu.c ****         }
 387:../../Middlewares/LVGL/GUI/lvgl/src/widgets/menu/lv_menu.c ****     }
 388:../../Middlewares/LVGL/GUI/lvgl/src/widgets/menu/lv_menu.c **** 
 389:../../Middlewares/LVGL/GUI/lvgl/src/widgets/menu/lv_menu.c ****     lv_menu_load_page_event_data_t * event_data = lv_malloc(sizeof(lv_menu_load_page_event_data_t))
 390:../../Middlewares/LVGL/GUI/lvgl/src/widgets/menu/lv_menu.c ****     event_data->menu = menu;
 391:../../Middlewares/LVGL/GUI/lvgl/src/widgets/menu/lv_menu.c ****     event_data->page = page;
 392:../../Middlewares/LVGL/GUI/lvgl/src/widgets/menu/lv_menu.c **** 
 393:../../Middlewares/LVGL/GUI/lvgl/src/widgets/menu/lv_menu.c ****     lv_obj_add_event_cb(obj, lv_menu_load_page_event_cb, LV_EVENT_CLICKED, event_data);
 394:../../Middlewares/LVGL/GUI/lvgl/src/widgets/menu/lv_menu.c ****     lv_obj_add_event_cb(obj, lv_menu_obj_delete_event_cb, LV_EVENT_DELETE, event_data);
 395:../../Middlewares/LVGL/GUI/lvgl/src/widgets/menu/lv_menu.c **** }
 396:../../Middlewares/LVGL/GUI/lvgl/src/widgets/menu/lv_menu.c **** 
 397:../../Middlewares/LVGL/GUI/lvgl/src/widgets/menu/lv_menu.c **** void lv_menu_set_page_title(lv_obj_t * page_obj, char const * const title)
 398:../../Middlewares/LVGL/GUI/lvgl/src/widgets/menu/lv_menu.c **** {
 399:../../Middlewares/LVGL/GUI/lvgl/src/widgets/menu/lv_menu.c ****     LV_ASSERT_OBJ(page_obj, &lv_menu_page_class);
 400:../../Middlewares/LVGL/GUI/lvgl/src/widgets/menu/lv_menu.c **** 
 401:../../Middlewares/LVGL/GUI/lvgl/src/widgets/menu/lv_menu.c ****     LV_LOG_INFO("begin");
 402:../../Middlewares/LVGL/GUI/lvgl/src/widgets/menu/lv_menu.c ****     lv_menu_page_t * page = (lv_menu_page_t *)page_obj;
 403:../../Middlewares/LVGL/GUI/lvgl/src/widgets/menu/lv_menu.c **** 
 404:../../Middlewares/LVGL/GUI/lvgl/src/widgets/menu/lv_menu.c ****     /* Cleanup any previous set titles */
 405:../../Middlewares/LVGL/GUI/lvgl/src/widgets/menu/lv_menu.c ****     if((!page->static_title) && page->title) {
 406:../../Middlewares/LVGL/GUI/lvgl/src/widgets/menu/lv_menu.c ****         lv_free(page->title);
 407:../../Middlewares/LVGL/GUI/lvgl/src/widgets/menu/lv_menu.c ****         page->title = NULL;
 408:../../Middlewares/LVGL/GUI/lvgl/src/widgets/menu/lv_menu.c ****     }
 409:../../Middlewares/LVGL/GUI/lvgl/src/widgets/menu/lv_menu.c **** 
 410:../../Middlewares/LVGL/GUI/lvgl/src/widgets/menu/lv_menu.c ****     if(title) {
 411:../../Middlewares/LVGL/GUI/lvgl/src/widgets/menu/lv_menu.c ****         page->static_title = false;
 412:../../Middlewares/LVGL/GUI/lvgl/src/widgets/menu/lv_menu.c ****         page->title = lv_strdup(title);
 413:../../Middlewares/LVGL/GUI/lvgl/src/widgets/menu/lv_menu.c ****         LV_ASSERT_MALLOC(page->title);
 414:../../Middlewares/LVGL/GUI/lvgl/src/widgets/menu/lv_menu.c ****         if(page->title == NULL) {
 415:../../Middlewares/LVGL/GUI/lvgl/src/widgets/menu/lv_menu.c ****             return;
 416:../../Middlewares/LVGL/GUI/lvgl/src/widgets/menu/lv_menu.c ****         }
 417:../../Middlewares/LVGL/GUI/lvgl/src/widgets/menu/lv_menu.c ****     }
 418:../../Middlewares/LVGL/GUI/lvgl/src/widgets/menu/lv_menu.c ****     else {
 419:../../Middlewares/LVGL/GUI/lvgl/src/widgets/menu/lv_menu.c ****         page->title        = NULL;
 420:../../Middlewares/LVGL/GUI/lvgl/src/widgets/menu/lv_menu.c ****         page->static_title = false;
 421:../../Middlewares/LVGL/GUI/lvgl/src/widgets/menu/lv_menu.c ****     }
 422:../../Middlewares/LVGL/GUI/lvgl/src/widgets/menu/lv_menu.c **** }
 423:../../Middlewares/LVGL/GUI/lvgl/src/widgets/menu/lv_menu.c **** 
 424:../../Middlewares/LVGL/GUI/lvgl/src/widgets/menu/lv_menu.c **** void lv_menu_set_page_title_static(lv_obj_t * page_obj, char const * const title)
 425:../../Middlewares/LVGL/GUI/lvgl/src/widgets/menu/lv_menu.c **** {
 426:../../Middlewares/LVGL/GUI/lvgl/src/widgets/menu/lv_menu.c ****     LV_ASSERT_OBJ(page_obj, &lv_menu_page_class);
 427:../../Middlewares/LVGL/GUI/lvgl/src/widgets/menu/lv_menu.c **** 
 428:../../Middlewares/LVGL/GUI/lvgl/src/widgets/menu/lv_menu.c ****     LV_LOG_INFO("begin");
 429:../../Middlewares/LVGL/GUI/lvgl/src/widgets/menu/lv_menu.c ****     lv_menu_page_t * page = (lv_menu_page_t *)page_obj;
 430:../../Middlewares/LVGL/GUI/lvgl/src/widgets/menu/lv_menu.c **** 
ARM GAS  C:\Users\28576\AppData\Local\Temp\ccAP2L0b.s 			page 9


 431:../../Middlewares/LVGL/GUI/lvgl/src/widgets/menu/lv_menu.c ****     /* Cleanup any previous set titles */
 432:../../Middlewares/LVGL/GUI/lvgl/src/widgets/menu/lv_menu.c ****     if((!page->static_title) && page->title) {
 433:../../Middlewares/LVGL/GUI/lvgl/src/widgets/menu/lv_menu.c ****         lv_free(page->title);
 434:../../Middlewares/LVGL/GUI/lvgl/src/widgets/menu/lv_menu.c ****         page->title = NULL;
 435:../../Middlewares/LVGL/GUI/lvgl/src/widgets/menu/lv_menu.c ****     }
 436:../../Middlewares/LVGL/GUI/lvgl/src/widgets/menu/lv_menu.c **** 
 437:../../Middlewares/LVGL/GUI/lvgl/src/widgets/menu/lv_menu.c ****     /* Set or clear the static title text */
 438:../../Middlewares/LVGL/GUI/lvgl/src/widgets/menu/lv_menu.c ****     if(title) {
 439:../../Middlewares/LVGL/GUI/lvgl/src/widgets/menu/lv_menu.c ****         page->title        = (char *) title;
 440:../../Middlewares/LVGL/GUI/lvgl/src/widgets/menu/lv_menu.c ****         page->static_title = true;
 441:../../Middlewares/LVGL/GUI/lvgl/src/widgets/menu/lv_menu.c ****     }
 442:../../Middlewares/LVGL/GUI/lvgl/src/widgets/menu/lv_menu.c ****     else {
 443:../../Middlewares/LVGL/GUI/lvgl/src/widgets/menu/lv_menu.c ****         page->title        = NULL;
 444:../../Middlewares/LVGL/GUI/lvgl/src/widgets/menu/lv_menu.c ****         page->static_title = false;
 445:../../Middlewares/LVGL/GUI/lvgl/src/widgets/menu/lv_menu.c ****     }
 446:../../Middlewares/LVGL/GUI/lvgl/src/widgets/menu/lv_menu.c **** }
 447:../../Middlewares/LVGL/GUI/lvgl/src/widgets/menu/lv_menu.c **** 
 448:../../Middlewares/LVGL/GUI/lvgl/src/widgets/menu/lv_menu.c **** /*=====================
 449:../../Middlewares/LVGL/GUI/lvgl/src/widgets/menu/lv_menu.c ****  * Getter functions
 450:../../Middlewares/LVGL/GUI/lvgl/src/widgets/menu/lv_menu.c ****  *====================*/
 451:../../Middlewares/LVGL/GUI/lvgl/src/widgets/menu/lv_menu.c **** lv_obj_t * lv_menu_get_cur_main_page(lv_obj_t * obj)
 452:../../Middlewares/LVGL/GUI/lvgl/src/widgets/menu/lv_menu.c **** {
 453:../../Middlewares/LVGL/GUI/lvgl/src/widgets/menu/lv_menu.c ****     LV_ASSERT_OBJ(obj, MY_CLASS);
 454:../../Middlewares/LVGL/GUI/lvgl/src/widgets/menu/lv_menu.c **** 
 455:../../Middlewares/LVGL/GUI/lvgl/src/widgets/menu/lv_menu.c ****     lv_menu_t * menu = (lv_menu_t *)obj;
 456:../../Middlewares/LVGL/GUI/lvgl/src/widgets/menu/lv_menu.c ****     return menu->main_page;
 457:../../Middlewares/LVGL/GUI/lvgl/src/widgets/menu/lv_menu.c **** }
 458:../../Middlewares/LVGL/GUI/lvgl/src/widgets/menu/lv_menu.c **** 
 459:../../Middlewares/LVGL/GUI/lvgl/src/widgets/menu/lv_menu.c **** lv_obj_t * lv_menu_get_cur_sidebar_page(lv_obj_t * obj)
 460:../../Middlewares/LVGL/GUI/lvgl/src/widgets/menu/lv_menu.c **** {
 461:../../Middlewares/LVGL/GUI/lvgl/src/widgets/menu/lv_menu.c ****     LV_ASSERT_OBJ(obj, MY_CLASS);
 462:../../Middlewares/LVGL/GUI/lvgl/src/widgets/menu/lv_menu.c **** 
 463:../../Middlewares/LVGL/GUI/lvgl/src/widgets/menu/lv_menu.c ****     lv_menu_t * menu = (lv_menu_t *)obj;
 464:../../Middlewares/LVGL/GUI/lvgl/src/widgets/menu/lv_menu.c ****     return menu->sidebar_page;
 465:../../Middlewares/LVGL/GUI/lvgl/src/widgets/menu/lv_menu.c **** }
 466:../../Middlewares/LVGL/GUI/lvgl/src/widgets/menu/lv_menu.c **** 
 467:../../Middlewares/LVGL/GUI/lvgl/src/widgets/menu/lv_menu.c **** lv_obj_t * lv_menu_get_main_header(lv_obj_t * obj)
 468:../../Middlewares/LVGL/GUI/lvgl/src/widgets/menu/lv_menu.c **** {
 469:../../Middlewares/LVGL/GUI/lvgl/src/widgets/menu/lv_menu.c ****     LV_ASSERT_OBJ(obj, MY_CLASS);
 470:../../Middlewares/LVGL/GUI/lvgl/src/widgets/menu/lv_menu.c **** 
 471:../../Middlewares/LVGL/GUI/lvgl/src/widgets/menu/lv_menu.c ****     lv_menu_t * menu = (lv_menu_t *)obj;
 472:../../Middlewares/LVGL/GUI/lvgl/src/widgets/menu/lv_menu.c ****     return menu->main_header;
 473:../../Middlewares/LVGL/GUI/lvgl/src/widgets/menu/lv_menu.c **** }
 474:../../Middlewares/LVGL/GUI/lvgl/src/widgets/menu/lv_menu.c **** 
 475:../../Middlewares/LVGL/GUI/lvgl/src/widgets/menu/lv_menu.c **** lv_obj_t * lv_menu_get_main_header_back_button(lv_obj_t * obj)
 476:../../Middlewares/LVGL/GUI/lvgl/src/widgets/menu/lv_menu.c **** {
 477:../../Middlewares/LVGL/GUI/lvgl/src/widgets/menu/lv_menu.c ****     LV_ASSERT_OBJ(obj, MY_CLASS);
 478:../../Middlewares/LVGL/GUI/lvgl/src/widgets/menu/lv_menu.c **** 
 479:../../Middlewares/LVGL/GUI/lvgl/src/widgets/menu/lv_menu.c ****     lv_menu_t * menu = (lv_menu_t *)obj;
 480:../../Middlewares/LVGL/GUI/lvgl/src/widgets/menu/lv_menu.c ****     return menu->main_header_back_btn;
 481:../../Middlewares/LVGL/GUI/lvgl/src/widgets/menu/lv_menu.c **** }
 482:../../Middlewares/LVGL/GUI/lvgl/src/widgets/menu/lv_menu.c **** 
 483:../../Middlewares/LVGL/GUI/lvgl/src/widgets/menu/lv_menu.c **** lv_obj_t * lv_menu_get_sidebar_header(lv_obj_t * obj)
 484:../../Middlewares/LVGL/GUI/lvgl/src/widgets/menu/lv_menu.c **** {
 485:../../Middlewares/LVGL/GUI/lvgl/src/widgets/menu/lv_menu.c ****     LV_ASSERT_OBJ(obj, MY_CLASS);
 486:../../Middlewares/LVGL/GUI/lvgl/src/widgets/menu/lv_menu.c **** 
 487:../../Middlewares/LVGL/GUI/lvgl/src/widgets/menu/lv_menu.c ****     lv_menu_t * menu = (lv_menu_t *)obj;
ARM GAS  C:\Users\28576\AppData\Local\Temp\ccAP2L0b.s 			page 10


 488:../../Middlewares/LVGL/GUI/lvgl/src/widgets/menu/lv_menu.c ****     return menu->sidebar_header;
 489:../../Middlewares/LVGL/GUI/lvgl/src/widgets/menu/lv_menu.c **** }
 490:../../Middlewares/LVGL/GUI/lvgl/src/widgets/menu/lv_menu.c **** 
 491:../../Middlewares/LVGL/GUI/lvgl/src/widgets/menu/lv_menu.c **** lv_obj_t * lv_menu_get_sidebar_header_back_button(lv_obj_t * obj)
 492:../../Middlewares/LVGL/GUI/lvgl/src/widgets/menu/lv_menu.c **** {
 493:../../Middlewares/LVGL/GUI/lvgl/src/widgets/menu/lv_menu.c ****     LV_ASSERT_OBJ(obj, MY_CLASS);
 494:../../Middlewares/LVGL/GUI/lvgl/src/widgets/menu/lv_menu.c **** 
 495:../../Middlewares/LVGL/GUI/lvgl/src/widgets/menu/lv_menu.c ****     lv_menu_t * menu = (lv_menu_t *)obj;
 496:../../Middlewares/LVGL/GUI/lvgl/src/widgets/menu/lv_menu.c ****     return menu->sidebar_header_back_btn;
 497:../../Middlewares/LVGL/GUI/lvgl/src/widgets/menu/lv_menu.c **** }
 498:../../Middlewares/LVGL/GUI/lvgl/src/widgets/menu/lv_menu.c **** 
 499:../../Middlewares/LVGL/GUI/lvgl/src/widgets/menu/lv_menu.c **** bool lv_menu_back_button_is_root(lv_obj_t * menu, lv_obj_t * obj)
 500:../../Middlewares/LVGL/GUI/lvgl/src/widgets/menu/lv_menu.c **** {
 501:../../Middlewares/LVGL/GUI/lvgl/src/widgets/menu/lv_menu.c ****     LV_ASSERT_OBJ(menu, MY_CLASS);
 502:../../Middlewares/LVGL/GUI/lvgl/src/widgets/menu/lv_menu.c **** 
 503:../../Middlewares/LVGL/GUI/lvgl/src/widgets/menu/lv_menu.c ****     if(obj == ((lv_menu_t *)menu)->sidebar_header_back_btn) {
 504:../../Middlewares/LVGL/GUI/lvgl/src/widgets/menu/lv_menu.c ****         return true;
 505:../../Middlewares/LVGL/GUI/lvgl/src/widgets/menu/lv_menu.c ****     }
 506:../../Middlewares/LVGL/GUI/lvgl/src/widgets/menu/lv_menu.c **** 
 507:../../Middlewares/LVGL/GUI/lvgl/src/widgets/menu/lv_menu.c ****     if(obj == ((lv_menu_t *)menu)->main_header_back_btn && ((lv_menu_t *)menu)->prev_depth <= 1) {
 508:../../Middlewares/LVGL/GUI/lvgl/src/widgets/menu/lv_menu.c ****         return true;
 509:../../Middlewares/LVGL/GUI/lvgl/src/widgets/menu/lv_menu.c ****     }
 510:../../Middlewares/LVGL/GUI/lvgl/src/widgets/menu/lv_menu.c **** 
 511:../../Middlewares/LVGL/GUI/lvgl/src/widgets/menu/lv_menu.c ****     return false;
 512:../../Middlewares/LVGL/GUI/lvgl/src/widgets/menu/lv_menu.c **** }
 513:../../Middlewares/LVGL/GUI/lvgl/src/widgets/menu/lv_menu.c **** 
 514:../../Middlewares/LVGL/GUI/lvgl/src/widgets/menu/lv_menu.c **** void lv_menu_clear_history(lv_obj_t * obj)
 515:../../Middlewares/LVGL/GUI/lvgl/src/widgets/menu/lv_menu.c **** {
 516:../../Middlewares/LVGL/GUI/lvgl/src/widgets/menu/lv_menu.c ****     LV_ASSERT_OBJ(obj, MY_CLASS);
 517:../../Middlewares/LVGL/GUI/lvgl/src/widgets/menu/lv_menu.c **** 
 518:../../Middlewares/LVGL/GUI/lvgl/src/widgets/menu/lv_menu.c ****     lv_menu_t * menu = (lv_menu_t *)obj;
 519:../../Middlewares/LVGL/GUI/lvgl/src/widgets/menu/lv_menu.c ****     lv_ll_t * history_ll = &(menu->history_ll);
 520:../../Middlewares/LVGL/GUI/lvgl/src/widgets/menu/lv_menu.c **** 
 521:../../Middlewares/LVGL/GUI/lvgl/src/widgets/menu/lv_menu.c ****     lv_ll_clear(history_ll);
 522:../../Middlewares/LVGL/GUI/lvgl/src/widgets/menu/lv_menu.c **** 
 523:../../Middlewares/LVGL/GUI/lvgl/src/widgets/menu/lv_menu.c ****     menu->cur_depth = 0;
 524:../../Middlewares/LVGL/GUI/lvgl/src/widgets/menu/lv_menu.c **** }
 525:../../Middlewares/LVGL/GUI/lvgl/src/widgets/menu/lv_menu.c **** 
 526:../../Middlewares/LVGL/GUI/lvgl/src/widgets/menu/lv_menu.c **** /**********************
 527:../../Middlewares/LVGL/GUI/lvgl/src/widgets/menu/lv_menu.c ****  *   STATIC FUNCTIONS
 528:../../Middlewares/LVGL/GUI/lvgl/src/widgets/menu/lv_menu.c ****  **********************/
 529:../../Middlewares/LVGL/GUI/lvgl/src/widgets/menu/lv_menu.c **** 
 530:../../Middlewares/LVGL/GUI/lvgl/src/widgets/menu/lv_menu.c **** static void lv_menu_constructor(const lv_obj_class_t * class_p, lv_obj_t * obj)
 531:../../Middlewares/LVGL/GUI/lvgl/src/widgets/menu/lv_menu.c **** {
 532:../../Middlewares/LVGL/GUI/lvgl/src/widgets/menu/lv_menu.c ****     LV_UNUSED(class_p);
 533:../../Middlewares/LVGL/GUI/lvgl/src/widgets/menu/lv_menu.c ****     LV_TRACE_OBJ_CREATE("begin");
 534:../../Middlewares/LVGL/GUI/lvgl/src/widgets/menu/lv_menu.c **** 
 535:../../Middlewares/LVGL/GUI/lvgl/src/widgets/menu/lv_menu.c ****     lv_obj_set_layout(obj, LV_LAYOUT_FLEX);
 536:../../Middlewares/LVGL/GUI/lvgl/src/widgets/menu/lv_menu.c ****     lv_obj_set_flex_flow(obj, LV_FLEX_FLOW_ROW);
 537:../../Middlewares/LVGL/GUI/lvgl/src/widgets/menu/lv_menu.c **** 
 538:../../Middlewares/LVGL/GUI/lvgl/src/widgets/menu/lv_menu.c ****     lv_menu_t * menu = (lv_menu_t *)obj;
 539:../../Middlewares/LVGL/GUI/lvgl/src/widgets/menu/lv_menu.c **** 
 540:../../Middlewares/LVGL/GUI/lvgl/src/widgets/menu/lv_menu.c ****     menu->mode_header = LV_MENU_HEADER_TOP_FIXED;
 541:../../Middlewares/LVGL/GUI/lvgl/src/widgets/menu/lv_menu.c ****     menu->mode_root_back_btn = LV_MENU_ROOT_BACK_BUTTON_DISABLED;
 542:../../Middlewares/LVGL/GUI/lvgl/src/widgets/menu/lv_menu.c ****     menu->cur_depth = 0;
 543:../../Middlewares/LVGL/GUI/lvgl/src/widgets/menu/lv_menu.c ****     menu->prev_depth = 0;
 544:../../Middlewares/LVGL/GUI/lvgl/src/widgets/menu/lv_menu.c ****     menu->sidebar_generated = false;
ARM GAS  C:\Users\28576\AppData\Local\Temp\ccAP2L0b.s 			page 11


 545:../../Middlewares/LVGL/GUI/lvgl/src/widgets/menu/lv_menu.c **** 
 546:../../Middlewares/LVGL/GUI/lvgl/src/widgets/menu/lv_menu.c ****     lv_ll_init(&(menu->history_ll), sizeof(lv_menu_history_t));
 547:../../Middlewares/LVGL/GUI/lvgl/src/widgets/menu/lv_menu.c **** 
 548:../../Middlewares/LVGL/GUI/lvgl/src/widgets/menu/lv_menu.c ****     menu->storage = lv_obj_create(obj);
 549:../../Middlewares/LVGL/GUI/lvgl/src/widgets/menu/lv_menu.c ****     lv_obj_add_flag(menu->storage, LV_OBJ_FLAG_HIDDEN);
 550:../../Middlewares/LVGL/GUI/lvgl/src/widgets/menu/lv_menu.c **** 
 551:../../Middlewares/LVGL/GUI/lvgl/src/widgets/menu/lv_menu.c ****     menu->sidebar = NULL;
 552:../../Middlewares/LVGL/GUI/lvgl/src/widgets/menu/lv_menu.c ****     menu->sidebar_header = NULL;
 553:../../Middlewares/LVGL/GUI/lvgl/src/widgets/menu/lv_menu.c ****     menu->sidebar_header_back_btn = NULL;
 554:../../Middlewares/LVGL/GUI/lvgl/src/widgets/menu/lv_menu.c ****     menu->sidebar_header_title = NULL;
 555:../../Middlewares/LVGL/GUI/lvgl/src/widgets/menu/lv_menu.c ****     menu->sidebar_page = NULL;
 556:../../Middlewares/LVGL/GUI/lvgl/src/widgets/menu/lv_menu.c **** 
 557:../../Middlewares/LVGL/GUI/lvgl/src/widgets/menu/lv_menu.c ****     lv_obj_t * main_cont = lv_obj_class_create_obj(&lv_menu_main_cont_class, obj);
 558:../../Middlewares/LVGL/GUI/lvgl/src/widgets/menu/lv_menu.c ****     lv_obj_class_init_obj(main_cont);
 559:../../Middlewares/LVGL/GUI/lvgl/src/widgets/menu/lv_menu.c ****     lv_obj_set_height(main_cont, LV_PCT(100));
 560:../../Middlewares/LVGL/GUI/lvgl/src/widgets/menu/lv_menu.c ****     lv_obj_set_flex_grow(main_cont, 1);
 561:../../Middlewares/LVGL/GUI/lvgl/src/widgets/menu/lv_menu.c ****     lv_obj_set_flex_flow(main_cont, LV_FLEX_FLOW_COLUMN);
 562:../../Middlewares/LVGL/GUI/lvgl/src/widgets/menu/lv_menu.c ****     lv_obj_add_flag(main_cont, LV_OBJ_FLAG_EVENT_BUBBLE);
 563:../../Middlewares/LVGL/GUI/lvgl/src/widgets/menu/lv_menu.c ****     lv_obj_remove_flag(main_cont, LV_OBJ_FLAG_CLICKABLE);
 564:../../Middlewares/LVGL/GUI/lvgl/src/widgets/menu/lv_menu.c ****     menu->main = main_cont;
 565:../../Middlewares/LVGL/GUI/lvgl/src/widgets/menu/lv_menu.c **** 
 566:../../Middlewares/LVGL/GUI/lvgl/src/widgets/menu/lv_menu.c ****     lv_obj_t * main_header = lv_obj_class_create_obj(&lv_menu_main_header_cont_class, main_cont);
 567:../../Middlewares/LVGL/GUI/lvgl/src/widgets/menu/lv_menu.c ****     lv_obj_class_init_obj(main_header);
 568:../../Middlewares/LVGL/GUI/lvgl/src/widgets/menu/lv_menu.c ****     lv_obj_set_size(main_header, LV_PCT(100), LV_SIZE_CONTENT);
 569:../../Middlewares/LVGL/GUI/lvgl/src/widgets/menu/lv_menu.c ****     lv_obj_set_flex_flow(main_header, LV_FLEX_FLOW_ROW);
 570:../../Middlewares/LVGL/GUI/lvgl/src/widgets/menu/lv_menu.c ****     lv_obj_set_flex_align(main_header, LV_FLEX_ALIGN_START, LV_FLEX_ALIGN_CENTER, LV_FLEX_ALIGN_CEN
 571:../../Middlewares/LVGL/GUI/lvgl/src/widgets/menu/lv_menu.c ****     lv_obj_remove_flag(main_header, LV_OBJ_FLAG_CLICKABLE);
 572:../../Middlewares/LVGL/GUI/lvgl/src/widgets/menu/lv_menu.c ****     lv_obj_add_flag(main_header, LV_OBJ_FLAG_EVENT_BUBBLE);
 573:../../Middlewares/LVGL/GUI/lvgl/src/widgets/menu/lv_menu.c ****     menu->main_header = main_header;
 574:../../Middlewares/LVGL/GUI/lvgl/src/widgets/menu/lv_menu.c **** 
 575:../../Middlewares/LVGL/GUI/lvgl/src/widgets/menu/lv_menu.c ****     /* Create the default simple back btn and title */
 576:../../Middlewares/LVGL/GUI/lvgl/src/widgets/menu/lv_menu.c ****     lv_obj_t * main_header_back_btn = lv_button_create(menu->main_header);
 577:../../Middlewares/LVGL/GUI/lvgl/src/widgets/menu/lv_menu.c ****     lv_obj_add_event_cb(main_header_back_btn, lv_menu_back_event_cb, LV_EVENT_CLICKED, menu);
 578:../../Middlewares/LVGL/GUI/lvgl/src/widgets/menu/lv_menu.c ****     lv_obj_add_flag(main_header_back_btn, LV_OBJ_FLAG_EVENT_BUBBLE);
 579:../../Middlewares/LVGL/GUI/lvgl/src/widgets/menu/lv_menu.c ****     lv_obj_set_flex_flow(main_header_back_btn, LV_FLEX_FLOW_ROW);
 580:../../Middlewares/LVGL/GUI/lvgl/src/widgets/menu/lv_menu.c ****     menu->main_header_back_btn = main_header_back_btn;
 581:../../Middlewares/LVGL/GUI/lvgl/src/widgets/menu/lv_menu.c **** 
 582:../../Middlewares/LVGL/GUI/lvgl/src/widgets/menu/lv_menu.c ****     lv_obj_t * main_header_back_icon = lv_image_create(menu->main_header_back_btn);
 583:../../Middlewares/LVGL/GUI/lvgl/src/widgets/menu/lv_menu.c ****     lv_image_set_src(main_header_back_icon, LV_SYMBOL_LEFT);
 584:../../Middlewares/LVGL/GUI/lvgl/src/widgets/menu/lv_menu.c **** 
 585:../../Middlewares/LVGL/GUI/lvgl/src/widgets/menu/lv_menu.c ****     lv_obj_t * main_header_title = lv_label_create(menu->main_header);
 586:../../Middlewares/LVGL/GUI/lvgl/src/widgets/menu/lv_menu.c ****     lv_obj_add_flag(main_header_title, LV_OBJ_FLAG_HIDDEN);
 587:../../Middlewares/LVGL/GUI/lvgl/src/widgets/menu/lv_menu.c ****     menu->main_header_title = main_header_title;
 588:../../Middlewares/LVGL/GUI/lvgl/src/widgets/menu/lv_menu.c **** 
 589:../../Middlewares/LVGL/GUI/lvgl/src/widgets/menu/lv_menu.c ****     menu->main_page = NULL;
 590:../../Middlewares/LVGL/GUI/lvgl/src/widgets/menu/lv_menu.c ****     menu->selected_tab = NULL;
 591:../../Middlewares/LVGL/GUI/lvgl/src/widgets/menu/lv_menu.c **** 
 592:../../Middlewares/LVGL/GUI/lvgl/src/widgets/menu/lv_menu.c ****     lv_obj_add_event_cb(obj, lv_menu_value_changed_event_cb, LV_EVENT_VALUE_CHANGED, menu);
 593:../../Middlewares/LVGL/GUI/lvgl/src/widgets/menu/lv_menu.c **** 
 594:../../Middlewares/LVGL/GUI/lvgl/src/widgets/menu/lv_menu.c ****     LV_TRACE_OBJ_CREATE("finished");
 595:../../Middlewares/LVGL/GUI/lvgl/src/widgets/menu/lv_menu.c **** }
 596:../../Middlewares/LVGL/GUI/lvgl/src/widgets/menu/lv_menu.c **** 
 597:../../Middlewares/LVGL/GUI/lvgl/src/widgets/menu/lv_menu.c **** static void lv_menu_destructor(const lv_obj_class_t * class_p, lv_obj_t * obj)
 598:../../Middlewares/LVGL/GUI/lvgl/src/widgets/menu/lv_menu.c **** {
  28              		.loc 1 598 1 view -0
  29              		.cfi_startproc
  30              		@ args = 0, pretend = 0, frame = 0
ARM GAS  C:\Users\28576\AppData\Local\Temp\ccAP2L0b.s 			page 12


  31              		@ frame_needed = 0, uses_anonymous_args = 0
  32              		.loc 1 598 1 is_stmt 0 view .LVU1
  33 0000 08B5     		push	{r3, lr}
  34              	.LCFI0:
  35              		.cfi_def_cfa_offset 8
  36              		.cfi_offset 3, -8
  37              		.cfi_offset 14, -4
 599:../../Middlewares/LVGL/GUI/lvgl/src/widgets/menu/lv_menu.c ****     LV_UNUSED(class_p);
  38              		.loc 1 599 5 is_stmt 1 view .LVU2
 600:../../Middlewares/LVGL/GUI/lvgl/src/widgets/menu/lv_menu.c ****     LV_TRACE_OBJ_CREATE("begin");
  39              		.loc 1 600 33 view .LVU3
 601:../../Middlewares/LVGL/GUI/lvgl/src/widgets/menu/lv_menu.c **** 
 602:../../Middlewares/LVGL/GUI/lvgl/src/widgets/menu/lv_menu.c ****     lv_menu_t * menu = (lv_menu_t *)obj;
  40              		.loc 1 602 5 view .LVU4
  41              	.LVL1:
 603:../../Middlewares/LVGL/GUI/lvgl/src/widgets/menu/lv_menu.c ****     lv_ll_t * history_ll = &(menu->history_ll);
  42              		.loc 1 603 5 view .LVU5
 604:../../Middlewares/LVGL/GUI/lvgl/src/widgets/menu/lv_menu.c **** 
 605:../../Middlewares/LVGL/GUI/lvgl/src/widgets/menu/lv_menu.c ****     lv_ll_clear(history_ll);
  43              		.loc 1 605 5 view .LVU6
  44 0002 01F15C00 		add	r0, r1, #92
  45              	.LVL2:
  46              		.loc 1 605 5 is_stmt 0 view .LVU7
  47 0006 FFF7FEFF 		bl	lv_ll_clear
  48              	.LVL3:
 606:../../Middlewares/LVGL/GUI/lvgl/src/widgets/menu/lv_menu.c **** 
 607:../../Middlewares/LVGL/GUI/lvgl/src/widgets/menu/lv_menu.c ****     LV_TRACE_OBJ_CREATE("finished");
  49              		.loc 1 607 36 is_stmt 1 view .LVU8
 608:../../Middlewares/LVGL/GUI/lvgl/src/widgets/menu/lv_menu.c **** }
  50              		.loc 1 608 1 is_stmt 0 view .LVU9
  51 000a 08BD     		pop	{r3, pc}
  52              		.cfi_endproc
  53              	.LFE194:
  55              		.section	.text.lv_menu_section_constructor,"ax",%progbits
  56              		.align	1
  57              		.syntax unified
  58              		.thumb
  59              		.thumb_func
  61              	lv_menu_section_constructor:
  62              	.LVL4:
  63              	.LFB198:
 609:../../Middlewares/LVGL/GUI/lvgl/src/widgets/menu/lv_menu.c **** 
 610:../../Middlewares/LVGL/GUI/lvgl/src/widgets/menu/lv_menu.c **** static void lv_menu_page_constructor(const lv_obj_class_t * class_p, lv_obj_t * obj)
 611:../../Middlewares/LVGL/GUI/lvgl/src/widgets/menu/lv_menu.c **** {
 612:../../Middlewares/LVGL/GUI/lvgl/src/widgets/menu/lv_menu.c ****     LV_UNUSED(class_p);
 613:../../Middlewares/LVGL/GUI/lvgl/src/widgets/menu/lv_menu.c **** 
 614:../../Middlewares/LVGL/GUI/lvgl/src/widgets/menu/lv_menu.c ****     lv_menu_t * menu = (lv_menu_t *)lv_obj_get_parent(obj);
 615:../../Middlewares/LVGL/GUI/lvgl/src/widgets/menu/lv_menu.c **** 
 616:../../Middlewares/LVGL/GUI/lvgl/src/widgets/menu/lv_menu.c ****     lv_obj_set_parent(obj, ((lv_menu_t *)menu)->storage);
 617:../../Middlewares/LVGL/GUI/lvgl/src/widgets/menu/lv_menu.c ****     lv_obj_set_flex_flow(obj, LV_FLEX_FLOW_COLUMN);
 618:../../Middlewares/LVGL/GUI/lvgl/src/widgets/menu/lv_menu.c ****     lv_obj_set_flex_align(obj, LV_FLEX_ALIGN_START, LV_FLEX_ALIGN_CENTER, LV_FLEX_ALIGN_CENTER);
 619:../../Middlewares/LVGL/GUI/lvgl/src/widgets/menu/lv_menu.c ****     lv_obj_add_flag(obj, LV_OBJ_FLAG_EVENT_BUBBLE);
 620:../../Middlewares/LVGL/GUI/lvgl/src/widgets/menu/lv_menu.c **** }
 621:../../Middlewares/LVGL/GUI/lvgl/src/widgets/menu/lv_menu.c **** 
 622:../../Middlewares/LVGL/GUI/lvgl/src/widgets/menu/lv_menu.c **** static void lv_menu_page_destructor(const lv_obj_class_t * class_p, lv_obj_t * obj)
 623:../../Middlewares/LVGL/GUI/lvgl/src/widgets/menu/lv_menu.c **** {
 624:../../Middlewares/LVGL/GUI/lvgl/src/widgets/menu/lv_menu.c ****     LV_UNUSED(class_p);
ARM GAS  C:\Users\28576\AppData\Local\Temp\ccAP2L0b.s 			page 13


 625:../../Middlewares/LVGL/GUI/lvgl/src/widgets/menu/lv_menu.c **** 
 626:../../Middlewares/LVGL/GUI/lvgl/src/widgets/menu/lv_menu.c ****     lv_menu_page_t * page = (lv_menu_page_t *)obj;
 627:../../Middlewares/LVGL/GUI/lvgl/src/widgets/menu/lv_menu.c **** 
 628:../../Middlewares/LVGL/GUI/lvgl/src/widgets/menu/lv_menu.c ****     if((!page->static_title) && page->title != NULL) {
 629:../../Middlewares/LVGL/GUI/lvgl/src/widgets/menu/lv_menu.c ****         lv_free(page->title);
 630:../../Middlewares/LVGL/GUI/lvgl/src/widgets/menu/lv_menu.c ****     }
 631:../../Middlewares/LVGL/GUI/lvgl/src/widgets/menu/lv_menu.c ****     page->title        = NULL;
 632:../../Middlewares/LVGL/GUI/lvgl/src/widgets/menu/lv_menu.c ****     page->static_title = false;
 633:../../Middlewares/LVGL/GUI/lvgl/src/widgets/menu/lv_menu.c **** }
 634:../../Middlewares/LVGL/GUI/lvgl/src/widgets/menu/lv_menu.c **** 
 635:../../Middlewares/LVGL/GUI/lvgl/src/widgets/menu/lv_menu.c **** static void lv_menu_cont_constructor(const lv_obj_class_t * class_p, lv_obj_t * obj)
 636:../../Middlewares/LVGL/GUI/lvgl/src/widgets/menu/lv_menu.c **** {
 637:../../Middlewares/LVGL/GUI/lvgl/src/widgets/menu/lv_menu.c ****     LV_UNUSED(class_p);
 638:../../Middlewares/LVGL/GUI/lvgl/src/widgets/menu/lv_menu.c ****     lv_obj_set_flex_flow(obj, LV_FLEX_FLOW_ROW);
 639:../../Middlewares/LVGL/GUI/lvgl/src/widgets/menu/lv_menu.c ****     lv_obj_set_flex_align(obj, LV_FLEX_ALIGN_START, LV_FLEX_ALIGN_CENTER, LV_FLEX_ALIGN_CENTER);
 640:../../Middlewares/LVGL/GUI/lvgl/src/widgets/menu/lv_menu.c ****     lv_obj_remove_flag(obj, LV_OBJ_FLAG_CLICKABLE);
 641:../../Middlewares/LVGL/GUI/lvgl/src/widgets/menu/lv_menu.c **** }
 642:../../Middlewares/LVGL/GUI/lvgl/src/widgets/menu/lv_menu.c **** 
 643:../../Middlewares/LVGL/GUI/lvgl/src/widgets/menu/lv_menu.c **** static void lv_menu_section_constructor(const lv_obj_class_t * class_p, lv_obj_t * obj)
 644:../../Middlewares/LVGL/GUI/lvgl/src/widgets/menu/lv_menu.c **** {
  64              		.loc 1 644 1 is_stmt 1 view -0
  65              		.cfi_startproc
  66              		@ args = 0, pretend = 0, frame = 0
  67              		@ frame_needed = 0, uses_anonymous_args = 0
  68              		.loc 1 644 1 is_stmt 0 view .LVU11
  69 0000 10B5     		push	{r4, lr}
  70              	.LCFI1:
  71              		.cfi_def_cfa_offset 8
  72              		.cfi_offset 4, -8
  73              		.cfi_offset 14, -4
  74 0002 0C46     		mov	r4, r1
 645:../../Middlewares/LVGL/GUI/lvgl/src/widgets/menu/lv_menu.c ****     LV_UNUSED(class_p);
  75              		.loc 1 645 5 is_stmt 1 view .LVU12
 646:../../Middlewares/LVGL/GUI/lvgl/src/widgets/menu/lv_menu.c ****     lv_obj_set_flex_flow(obj, LV_FLEX_FLOW_COLUMN);
  76              		.loc 1 646 5 view .LVU13
  77 0004 0121     		movs	r1, #1
  78              	.LVL5:
  79              		.loc 1 646 5 is_stmt 0 view .LVU14
  80 0006 2046     		mov	r0, r4
  81              	.LVL6:
  82              		.loc 1 646 5 view .LVU15
  83 0008 FFF7FEFF 		bl	lv_obj_set_flex_flow
  84              	.LVL7:
 647:../../Middlewares/LVGL/GUI/lvgl/src/widgets/menu/lv_menu.c ****     lv_obj_remove_flag(obj, LV_OBJ_FLAG_CLICKABLE);
  85              		.loc 1 647 5 is_stmt 1 view .LVU16
  86 000c 0221     		movs	r1, #2
  87 000e 2046     		mov	r0, r4
  88 0010 FFF7FEFF 		bl	lv_obj_remove_flag
  89              	.LVL8:
 648:../../Middlewares/LVGL/GUI/lvgl/src/widgets/menu/lv_menu.c **** }
  90              		.loc 1 648 1 is_stmt 0 view .LVU17
  91 0014 10BD     		pop	{r4, pc}
  92              		.loc 1 648 1 view .LVU18
  93              		.cfi_endproc
  94              	.LFE198:
  96              		.section	.text.lv_menu_cont_constructor,"ax",%progbits
  97              		.align	1
ARM GAS  C:\Users\28576\AppData\Local\Temp\ccAP2L0b.s 			page 14


  98              		.syntax unified
  99              		.thumb
 100              		.thumb_func
 102              	lv_menu_cont_constructor:
 103              	.LVL9:
 104              	.LFB197:
 636:../../Middlewares/LVGL/GUI/lvgl/src/widgets/menu/lv_menu.c ****     LV_UNUSED(class_p);
 105              		.loc 1 636 1 is_stmt 1 view -0
 106              		.cfi_startproc
 107              		@ args = 0, pretend = 0, frame = 0
 108              		@ frame_needed = 0, uses_anonymous_args = 0
 636:../../Middlewares/LVGL/GUI/lvgl/src/widgets/menu/lv_menu.c ****     LV_UNUSED(class_p);
 109              		.loc 1 636 1 is_stmt 0 view .LVU20
 110 0000 10B5     		push	{r4, lr}
 111              	.LCFI2:
 112              		.cfi_def_cfa_offset 8
 113              		.cfi_offset 4, -8
 114              		.cfi_offset 14, -4
 115 0002 0C46     		mov	r4, r1
 637:../../Middlewares/LVGL/GUI/lvgl/src/widgets/menu/lv_menu.c ****     lv_obj_set_flex_flow(obj, LV_FLEX_FLOW_ROW);
 116              		.loc 1 637 5 is_stmt 1 view .LVU21
 638:../../Middlewares/LVGL/GUI/lvgl/src/widgets/menu/lv_menu.c ****     lv_obj_set_flex_align(obj, LV_FLEX_ALIGN_START, LV_FLEX_ALIGN_CENTER, LV_FLEX_ALIGN_CENTER);
 117              		.loc 1 638 5 view .LVU22
 118 0004 0021     		movs	r1, #0
 119              	.LVL10:
 638:../../Middlewares/LVGL/GUI/lvgl/src/widgets/menu/lv_menu.c ****     lv_obj_set_flex_align(obj, LV_FLEX_ALIGN_START, LV_FLEX_ALIGN_CENTER, LV_FLEX_ALIGN_CENTER);
 120              		.loc 1 638 5 is_stmt 0 view .LVU23
 121 0006 2046     		mov	r0, r4
 122              	.LVL11:
 638:../../Middlewares/LVGL/GUI/lvgl/src/widgets/menu/lv_menu.c ****     lv_obj_set_flex_align(obj, LV_FLEX_ALIGN_START, LV_FLEX_ALIGN_CENTER, LV_FLEX_ALIGN_CENTER);
 123              		.loc 1 638 5 view .LVU24
 124 0008 FFF7FEFF 		bl	lv_obj_set_flex_flow
 125              	.LVL12:
 639:../../Middlewares/LVGL/GUI/lvgl/src/widgets/menu/lv_menu.c ****     lv_obj_remove_flag(obj, LV_OBJ_FLAG_CLICKABLE);
 126              		.loc 1 639 5 is_stmt 1 view .LVU25
 127 000c 0223     		movs	r3, #2
 128 000e 1A46     		mov	r2, r3
 129 0010 0021     		movs	r1, #0
 130 0012 2046     		mov	r0, r4
 131 0014 FFF7FEFF 		bl	lv_obj_set_flex_align
 132              	.LVL13:
 640:../../Middlewares/LVGL/GUI/lvgl/src/widgets/menu/lv_menu.c **** }
 133              		.loc 1 640 5 view .LVU26
 134 0018 0221     		movs	r1, #2
 135 001a 2046     		mov	r0, r4
 136 001c FFF7FEFF 		bl	lv_obj_remove_flag
 137              	.LVL14:
 641:../../Middlewares/LVGL/GUI/lvgl/src/widgets/menu/lv_menu.c **** 
 138              		.loc 1 641 1 is_stmt 0 view .LVU27
 139 0020 10BD     		pop	{r4, pc}
 641:../../Middlewares/LVGL/GUI/lvgl/src/widgets/menu/lv_menu.c **** 
 140              		.loc 1 641 1 view .LVU28
 141              		.cfi_endproc
 142              	.LFE197:
 144              		.section	.rodata.lv_menu_constructor.str1.4,"aMS",%progbits,1
 145              		.align	2
 146              	.LC0:
ARM GAS  C:\Users\28576\AppData\Local\Temp\ccAP2L0b.s 			page 15


 147 0000 EF819300 		.ascii	"\357\201\223\000"
 148              		.section	.text.lv_menu_constructor,"ax",%progbits
 149              		.align	1
 150              		.syntax unified
 151              		.thumb
 152              		.thumb_func
 154              	lv_menu_constructor:
 155              	.LVL15:
 156              	.LFB193:
 531:../../Middlewares/LVGL/GUI/lvgl/src/widgets/menu/lv_menu.c ****     LV_UNUSED(class_p);
 157              		.loc 1 531 1 is_stmt 1 view -0
 158              		.cfi_startproc
 159              		@ args = 0, pretend = 0, frame = 0
 160              		@ frame_needed = 0, uses_anonymous_args = 0
 531:../../Middlewares/LVGL/GUI/lvgl/src/widgets/menu/lv_menu.c ****     LV_UNUSED(class_p);
 161              		.loc 1 531 1 is_stmt 0 view .LVU30
 162 0000 F8B5     		push	{r3, r4, r5, r6, r7, lr}
 163              	.LCFI3:
 164              		.cfi_def_cfa_offset 24
 165              		.cfi_offset 3, -24
 166              		.cfi_offset 4, -20
 167              		.cfi_offset 5, -16
 168              		.cfi_offset 6, -12
 169              		.cfi_offset 7, -8
 170              		.cfi_offset 14, -4
 171 0002 0C46     		mov	r4, r1
 532:../../Middlewares/LVGL/GUI/lvgl/src/widgets/menu/lv_menu.c ****     LV_TRACE_OBJ_CREATE("begin");
 172              		.loc 1 532 5 is_stmt 1 view .LVU31
 533:../../Middlewares/LVGL/GUI/lvgl/src/widgets/menu/lv_menu.c **** 
 173              		.loc 1 533 33 view .LVU32
 535:../../Middlewares/LVGL/GUI/lvgl/src/widgets/menu/lv_menu.c ****     lv_obj_set_flex_flow(obj, LV_FLEX_FLOW_ROW);
 174              		.loc 1 535 5 view .LVU33
 175 0004 0121     		movs	r1, #1
 176              	.LVL16:
 535:../../Middlewares/LVGL/GUI/lvgl/src/widgets/menu/lv_menu.c ****     lv_obj_set_flex_flow(obj, LV_FLEX_FLOW_ROW);
 177              		.loc 1 535 5 is_stmt 0 view .LVU34
 178 0006 2046     		mov	r0, r4
 179              	.LVL17:
 535:../../Middlewares/LVGL/GUI/lvgl/src/widgets/menu/lv_menu.c ****     lv_obj_set_flex_flow(obj, LV_FLEX_FLOW_ROW);
 180              		.loc 1 535 5 view .LVU35
 181 0008 FFF7FEFF 		bl	lv_obj_set_layout
 182              	.LVL18:
 536:../../Middlewares/LVGL/GUI/lvgl/src/widgets/menu/lv_menu.c **** 
 183              		.loc 1 536 5 is_stmt 1 view .LVU36
 184 000c 0021     		movs	r1, #0
 185 000e 2046     		mov	r0, r4
 186 0010 FFF7FEFF 		bl	lv_obj_set_flex_flow
 187              	.LVL19:
 538:../../Middlewares/LVGL/GUI/lvgl/src/widgets/menu/lv_menu.c **** 
 188              		.loc 1 538 5 view .LVU37
 540:../../Middlewares/LVGL/GUI/lvgl/src/widgets/menu/lv_menu.c ****     menu->mode_root_back_btn = LV_MENU_ROOT_BACK_BUTTON_DISABLED;
 189              		.loc 1 540 5 view .LVU38
 540:../../Middlewares/LVGL/GUI/lvgl/src/widgets/menu/lv_menu.c ****     menu->mode_root_back_btn = LV_MENU_ROOT_BACK_BUTTON_DISABLED;
 190              		.loc 1 540 23 is_stmt 0 view .LVU39
 191 0014 94F86A30 		ldrb	r3, [r4, #106]	@ zero_extendqisi2
 192 0018 23F00E03 		bic	r3, r3, #14
 193 001c 84F86A30 		strb	r3, [r4, #106]
ARM GAS  C:\Users\28576\AppData\Local\Temp\ccAP2L0b.s 			page 16


 541:../../Middlewares/LVGL/GUI/lvgl/src/widgets/menu/lv_menu.c ****     menu->cur_depth = 0;
 194              		.loc 1 541 5 is_stmt 1 view .LVU40
 541:../../Middlewares/LVGL/GUI/lvgl/src/widgets/menu/lv_menu.c ****     menu->cur_depth = 0;
 195              		.loc 1 541 30 is_stmt 0 view .LVU41
 196 0020 DBB2     		uxtb	r3, r3
 197 0022 23F01003 		bic	r3, r3, #16
 198 0026 84F86A30 		strb	r3, [r4, #106]
 542:../../Middlewares/LVGL/GUI/lvgl/src/widgets/menu/lv_menu.c ****     menu->prev_depth = 0;
 199              		.loc 1 542 5 is_stmt 1 view .LVU42
 542:../../Middlewares/LVGL/GUI/lvgl/src/widgets/menu/lv_menu.c ****     menu->prev_depth = 0;
 200              		.loc 1 542 21 is_stmt 0 view .LVU43
 201 002a 0025     		movs	r5, #0
 202 002c 84F86850 		strb	r5, [r4, #104]
 543:../../Middlewares/LVGL/GUI/lvgl/src/widgets/menu/lv_menu.c ****     menu->sidebar_generated = false;
 203              		.loc 1 543 5 is_stmt 1 view .LVU44
 543:../../Middlewares/LVGL/GUI/lvgl/src/widgets/menu/lv_menu.c ****     menu->sidebar_generated = false;
 204              		.loc 1 543 22 is_stmt 0 view .LVU45
 205 0030 84F86950 		strb	r5, [r4, #105]
 544:../../Middlewares/LVGL/GUI/lvgl/src/widgets/menu/lv_menu.c **** 
 206              		.loc 1 544 5 is_stmt 1 view .LVU46
 544:../../Middlewares/LVGL/GUI/lvgl/src/widgets/menu/lv_menu.c **** 
 207              		.loc 1 544 29 is_stmt 0 view .LVU47
 208 0034 DBB2     		uxtb	r3, r3
 209 0036 23F00103 		bic	r3, r3, #1
 210 003a 84F86A30 		strb	r3, [r4, #106]
 546:../../Middlewares/LVGL/GUI/lvgl/src/widgets/menu/lv_menu.c **** 
 211              		.loc 1 546 5 is_stmt 1 view .LVU48
 212 003e 0421     		movs	r1, #4
 213 0040 04F15C00 		add	r0, r4, #92
 214 0044 FFF7FEFF 		bl	lv_ll_init
 215              	.LVL20:
 548:../../Middlewares/LVGL/GUI/lvgl/src/widgets/menu/lv_menu.c ****     lv_obj_add_flag(menu->storage, LV_OBJ_FLAG_HIDDEN);
 216              		.loc 1 548 5 view .LVU49
 548:../../Middlewares/LVGL/GUI/lvgl/src/widgets/menu/lv_menu.c ****     lv_obj_add_flag(menu->storage, LV_OBJ_FLAG_HIDDEN);
 217              		.loc 1 548 21 is_stmt 0 view .LVU50
 218 0048 2046     		mov	r0, r4
 219 004a FFF7FEFF 		bl	lv_obj_create
 220              	.LVL21:
 548:../../Middlewares/LVGL/GUI/lvgl/src/widgets/menu/lv_menu.c ****     lv_obj_add_flag(menu->storage, LV_OBJ_FLAG_HIDDEN);
 221              		.loc 1 548 19 discriminator 1 view .LVU51
 222 004e E062     		str	r0, [r4, #44]
 549:../../Middlewares/LVGL/GUI/lvgl/src/widgets/menu/lv_menu.c **** 
 223              		.loc 1 549 5 is_stmt 1 view .LVU52
 224 0050 0121     		movs	r1, #1
 225 0052 FFF7FEFF 		bl	lv_obj_add_flag
 226              	.LVL22:
 551:../../Middlewares/LVGL/GUI/lvgl/src/widgets/menu/lv_menu.c ****     menu->sidebar_header = NULL;
 227              		.loc 1 551 5 view .LVU53
 551:../../Middlewares/LVGL/GUI/lvgl/src/widgets/menu/lv_menu.c ****     menu->sidebar_header = NULL;
 228              		.loc 1 551 19 is_stmt 0 view .LVU54
 229 0056 6564     		str	r5, [r4, #68]
 552:../../Middlewares/LVGL/GUI/lvgl/src/widgets/menu/lv_menu.c ****     menu->sidebar_header_back_btn = NULL;
 230              		.loc 1 552 5 is_stmt 1 view .LVU55
 552:../../Middlewares/LVGL/GUI/lvgl/src/widgets/menu/lv_menu.c ****     menu->sidebar_header_back_btn = NULL;
 231              		.loc 1 552 26 is_stmt 0 view .LVU56
 232 0058 E564     		str	r5, [r4, #76]
 553:../../Middlewares/LVGL/GUI/lvgl/src/widgets/menu/lv_menu.c ****     menu->sidebar_header_title = NULL;
ARM GAS  C:\Users\28576\AppData\Local\Temp\ccAP2L0b.s 			page 17


 233              		.loc 1 553 5 is_stmt 1 view .LVU57
 553:../../Middlewares/LVGL/GUI/lvgl/src/widgets/menu/lv_menu.c ****     menu->sidebar_header_title = NULL;
 234              		.loc 1 553 35 is_stmt 0 view .LVU58
 235 005a 2565     		str	r5, [r4, #80]
 554:../../Middlewares/LVGL/GUI/lvgl/src/widgets/menu/lv_menu.c ****     menu->sidebar_page = NULL;
 236              		.loc 1 554 5 is_stmt 1 view .LVU59
 554:../../Middlewares/LVGL/GUI/lvgl/src/widgets/menu/lv_menu.c ****     menu->sidebar_page = NULL;
 237              		.loc 1 554 32 is_stmt 0 view .LVU60
 238 005c 6565     		str	r5, [r4, #84]
 555:../../Middlewares/LVGL/GUI/lvgl/src/widgets/menu/lv_menu.c **** 
 239              		.loc 1 555 5 is_stmt 1 view .LVU61
 555:../../Middlewares/LVGL/GUI/lvgl/src/widgets/menu/lv_menu.c **** 
 240              		.loc 1 555 24 is_stmt 0 view .LVU62
 241 005e A564     		str	r5, [r4, #72]
 557:../../Middlewares/LVGL/GUI/lvgl/src/widgets/menu/lv_menu.c ****     lv_obj_class_init_obj(main_cont);
 242              		.loc 1 557 5 is_stmt 1 view .LVU63
 557:../../Middlewares/LVGL/GUI/lvgl/src/widgets/menu/lv_menu.c ****     lv_obj_class_init_obj(main_cont);
 243              		.loc 1 557 28 is_stmt 0 view .LVU64
 244 0060 2146     		mov	r1, r4
 245 0062 3448     		ldr	r0, .L9
 246 0064 FFF7FEFF 		bl	lv_obj_class_create_obj
 247              	.LVL23:
 248 0068 0646     		mov	r6, r0
 249              	.LVL24:
 558:../../Middlewares/LVGL/GUI/lvgl/src/widgets/menu/lv_menu.c ****     lv_obj_set_height(main_cont, LV_PCT(100));
 250              		.loc 1 558 5 is_stmt 1 view .LVU65
 251 006a FFF7FEFF 		bl	lv_obj_class_init_obj
 252              	.LVL25:
 559:../../Middlewares/LVGL/GUI/lvgl/src/widgets/menu/lv_menu.c ****     lv_obj_set_flex_grow(main_cont, 1);
 253              		.loc 1 559 5 view .LVU66
 254 006e 324F     		ldr	r7, .L9+4
 255 0070 3946     		mov	r1, r7
 256 0072 3046     		mov	r0, r6
 257 0074 FFF7FEFF 		bl	lv_obj_set_height
 258              	.LVL26:
 560:../../Middlewares/LVGL/GUI/lvgl/src/widgets/menu/lv_menu.c ****     lv_obj_set_flex_flow(main_cont, LV_FLEX_FLOW_COLUMN);
 259              		.loc 1 560 5 view .LVU67
 260 0078 0121     		movs	r1, #1
 261 007a 3046     		mov	r0, r6
 262 007c FFF7FEFF 		bl	lv_obj_set_flex_grow
 263              	.LVL27:
 561:../../Middlewares/LVGL/GUI/lvgl/src/widgets/menu/lv_menu.c ****     lv_obj_add_flag(main_cont, LV_OBJ_FLAG_EVENT_BUBBLE);
 264              		.loc 1 561 5 view .LVU68
 265 0080 0121     		movs	r1, #1
 266 0082 3046     		mov	r0, r6
 267 0084 FFF7FEFF 		bl	lv_obj_set_flex_flow
 268              	.LVL28:
 562:../../Middlewares/LVGL/GUI/lvgl/src/widgets/menu/lv_menu.c ****     lv_obj_remove_flag(main_cont, LV_OBJ_FLAG_CLICKABLE);
 269              		.loc 1 562 5 view .LVU69
 270 0088 4FF48041 		mov	r1, #16384
 271 008c 3046     		mov	r0, r6
 272 008e FFF7FEFF 		bl	lv_obj_add_flag
 273              	.LVL29:
 563:../../Middlewares/LVGL/GUI/lvgl/src/widgets/menu/lv_menu.c ****     menu->main = main_cont;
 274              		.loc 1 563 5 view .LVU70
 275 0092 0221     		movs	r1, #2
 276 0094 3046     		mov	r0, r6
ARM GAS  C:\Users\28576\AppData\Local\Temp\ccAP2L0b.s 			page 18


 277 0096 FFF7FEFF 		bl	lv_obj_remove_flag
 278              	.LVL30:
 564:../../Middlewares/LVGL/GUI/lvgl/src/widgets/menu/lv_menu.c **** 
 279              		.loc 1 564 5 view .LVU71
 564:../../Middlewares/LVGL/GUI/lvgl/src/widgets/menu/lv_menu.c **** 
 280              		.loc 1 564 16 is_stmt 0 view .LVU72
 281 009a 2663     		str	r6, [r4, #48]
 566:../../Middlewares/LVGL/GUI/lvgl/src/widgets/menu/lv_menu.c ****     lv_obj_class_init_obj(main_header);
 282              		.loc 1 566 5 is_stmt 1 view .LVU73
 566:../../Middlewares/LVGL/GUI/lvgl/src/widgets/menu/lv_menu.c ****     lv_obj_class_init_obj(main_header);
 283              		.loc 1 566 30 is_stmt 0 view .LVU74
 284 009c 3146     		mov	r1, r6
 285 009e 2748     		ldr	r0, .L9+8
 286 00a0 FFF7FEFF 		bl	lv_obj_class_create_obj
 287              	.LVL31:
 288 00a4 0646     		mov	r6, r0
 289              	.LVL32:
 567:../../Middlewares/LVGL/GUI/lvgl/src/widgets/menu/lv_menu.c ****     lv_obj_set_size(main_header, LV_PCT(100), LV_SIZE_CONTENT);
 290              		.loc 1 567 5 is_stmt 1 view .LVU75
 291 00a6 FFF7FEFF 		bl	lv_obj_class_init_obj
 292              	.LVL33:
 568:../../Middlewares/LVGL/GUI/lvgl/src/widgets/menu/lv_menu.c ****     lv_obj_set_flex_flow(main_header, LV_FLEX_FLOW_ROW);
 293              		.loc 1 568 5 view .LVU76
 294 00aa 6FF04042 		mvn	r2, #-1073741824
 295 00ae 3946     		mov	r1, r7
 296 00b0 3046     		mov	r0, r6
 297 00b2 FFF7FEFF 		bl	lv_obj_set_size
 298              	.LVL34:
 569:../../Middlewares/LVGL/GUI/lvgl/src/widgets/menu/lv_menu.c ****     lv_obj_set_flex_align(main_header, LV_FLEX_ALIGN_START, LV_FLEX_ALIGN_CENTER, LV_FLEX_ALIGN_CEN
 299              		.loc 1 569 5 view .LVU77
 300 00b6 2946     		mov	r1, r5
 301 00b8 3046     		mov	r0, r6
 302 00ba FFF7FEFF 		bl	lv_obj_set_flex_flow
 303              	.LVL35:
 570:../../Middlewares/LVGL/GUI/lvgl/src/widgets/menu/lv_menu.c ****     lv_obj_remove_flag(main_header, LV_OBJ_FLAG_CLICKABLE);
 304              		.loc 1 570 5 view .LVU78
 305 00be 0223     		movs	r3, #2
 306 00c0 1A46     		mov	r2, r3
 307 00c2 2946     		mov	r1, r5
 308 00c4 3046     		mov	r0, r6
 309 00c6 FFF7FEFF 		bl	lv_obj_set_flex_align
 310              	.LVL36:
 571:../../Middlewares/LVGL/GUI/lvgl/src/widgets/menu/lv_menu.c ****     lv_obj_add_flag(main_header, LV_OBJ_FLAG_EVENT_BUBBLE);
 311              		.loc 1 571 5 view .LVU79
 312 00ca 0221     		movs	r1, #2
 313 00cc 3046     		mov	r0, r6
 314 00ce FFF7FEFF 		bl	lv_obj_remove_flag
 315              	.LVL37:
 572:../../Middlewares/LVGL/GUI/lvgl/src/widgets/menu/lv_menu.c ****     menu->main_header = main_header;
 316              		.loc 1 572 5 view .LVU80
 317 00d2 4FF48041 		mov	r1, #16384
 318 00d6 3046     		mov	r0, r6
 319 00d8 FFF7FEFF 		bl	lv_obj_add_flag
 320              	.LVL38:
 573:../../Middlewares/LVGL/GUI/lvgl/src/widgets/menu/lv_menu.c **** 
 321              		.loc 1 573 5 view .LVU81
 573:../../Middlewares/LVGL/GUI/lvgl/src/widgets/menu/lv_menu.c **** 
ARM GAS  C:\Users\28576\AppData\Local\Temp\ccAP2L0b.s 			page 19


 322              		.loc 1 573 23 is_stmt 0 view .LVU82
 323 00dc A663     		str	r6, [r4, #56]
 576:../../Middlewares/LVGL/GUI/lvgl/src/widgets/menu/lv_menu.c ****     lv_obj_add_event_cb(main_header_back_btn, lv_menu_back_event_cb, LV_EVENT_CLICKED, menu);
 324              		.loc 1 576 5 is_stmt 1 view .LVU83
 576:../../Middlewares/LVGL/GUI/lvgl/src/widgets/menu/lv_menu.c ****     lv_obj_add_event_cb(main_header_back_btn, lv_menu_back_event_cb, LV_EVENT_CLICKED, menu);
 325              		.loc 1 576 39 is_stmt 0 view .LVU84
 326 00de 3046     		mov	r0, r6
 327 00e0 FFF7FEFF 		bl	lv_button_create
 328              	.LVL39:
 329 00e4 0646     		mov	r6, r0
 330              	.LVL40:
 577:../../Middlewares/LVGL/GUI/lvgl/src/widgets/menu/lv_menu.c ****     lv_obj_add_flag(main_header_back_btn, LV_OBJ_FLAG_EVENT_BUBBLE);
 331              		.loc 1 577 5 is_stmt 1 view .LVU85
 332 00e6 2346     		mov	r3, r4
 333 00e8 0A22     		movs	r2, #10
 334 00ea 1549     		ldr	r1, .L9+12
 335 00ec FFF7FEFF 		bl	lv_obj_add_event_cb
 336              	.LVL41:
 578:../../Middlewares/LVGL/GUI/lvgl/src/widgets/menu/lv_menu.c ****     lv_obj_set_flex_flow(main_header_back_btn, LV_FLEX_FLOW_ROW);
 337              		.loc 1 578 5 view .LVU86
 338 00f0 4FF48041 		mov	r1, #16384
 339 00f4 3046     		mov	r0, r6
 340 00f6 FFF7FEFF 		bl	lv_obj_add_flag
 341              	.LVL42:
 579:../../Middlewares/LVGL/GUI/lvgl/src/widgets/menu/lv_menu.c ****     menu->main_header_back_btn = main_header_back_btn;
 342              		.loc 1 579 5 view .LVU87
 343 00fa 2946     		mov	r1, r5
 344 00fc 3046     		mov	r0, r6
 345 00fe FFF7FEFF 		bl	lv_obj_set_flex_flow
 346              	.LVL43:
 580:../../Middlewares/LVGL/GUI/lvgl/src/widgets/menu/lv_menu.c **** 
 347              		.loc 1 580 5 view .LVU88
 580:../../Middlewares/LVGL/GUI/lvgl/src/widgets/menu/lv_menu.c **** 
 348              		.loc 1 580 32 is_stmt 0 view .LVU89
 349 0102 E663     		str	r6, [r4, #60]
 582:../../Middlewares/LVGL/GUI/lvgl/src/widgets/menu/lv_menu.c ****     lv_image_set_src(main_header_back_icon, LV_SYMBOL_LEFT);
 350              		.loc 1 582 5 is_stmt 1 view .LVU90
 582:../../Middlewares/LVGL/GUI/lvgl/src/widgets/menu/lv_menu.c ****     lv_image_set_src(main_header_back_icon, LV_SYMBOL_LEFT);
 351              		.loc 1 582 40 is_stmt 0 view .LVU91
 352 0104 3046     		mov	r0, r6
 353 0106 FFF7FEFF 		bl	lv_image_create
 354              	.LVL44:
 583:../../Middlewares/LVGL/GUI/lvgl/src/widgets/menu/lv_menu.c **** 
 355              		.loc 1 583 5 is_stmt 1 view .LVU92
 356 010a 0E49     		ldr	r1, .L9+16
 357 010c FFF7FEFF 		bl	lv_image_set_src
 358              	.LVL45:
 585:../../Middlewares/LVGL/GUI/lvgl/src/widgets/menu/lv_menu.c ****     lv_obj_add_flag(main_header_title, LV_OBJ_FLAG_HIDDEN);
 359              		.loc 1 585 5 view .LVU93
 585:../../Middlewares/LVGL/GUI/lvgl/src/widgets/menu/lv_menu.c ****     lv_obj_add_flag(main_header_title, LV_OBJ_FLAG_HIDDEN);
 360              		.loc 1 585 36 is_stmt 0 view .LVU94
 361 0110 A06B     		ldr	r0, [r4, #56]
 362 0112 FFF7FEFF 		bl	lv_label_create
 363              	.LVL46:
 364 0116 0646     		mov	r6, r0
 365              	.LVL47:
 586:../../Middlewares/LVGL/GUI/lvgl/src/widgets/menu/lv_menu.c ****     menu->main_header_title = main_header_title;
ARM GAS  C:\Users\28576\AppData\Local\Temp\ccAP2L0b.s 			page 20


 366              		.loc 1 586 5 is_stmt 1 view .LVU95
 367 0118 0121     		movs	r1, #1
 368 011a FFF7FEFF 		bl	lv_obj_add_flag
 369              	.LVL48:
 587:../../Middlewares/LVGL/GUI/lvgl/src/widgets/menu/lv_menu.c **** 
 370              		.loc 1 587 5 view .LVU96
 587:../../Middlewares/LVGL/GUI/lvgl/src/widgets/menu/lv_menu.c **** 
 371              		.loc 1 587 29 is_stmt 0 view .LVU97
 372 011e 2664     		str	r6, [r4, #64]
 589:../../Middlewares/LVGL/GUI/lvgl/src/widgets/menu/lv_menu.c ****     menu->selected_tab = NULL;
 373              		.loc 1 589 5 is_stmt 1 view .LVU98
 589:../../Middlewares/LVGL/GUI/lvgl/src/widgets/menu/lv_menu.c ****     menu->selected_tab = NULL;
 374              		.loc 1 589 21 is_stmt 0 view .LVU99
 375 0120 6563     		str	r5, [r4, #52]
 590:../../Middlewares/LVGL/GUI/lvgl/src/widgets/menu/lv_menu.c **** 
 376              		.loc 1 590 5 is_stmt 1 view .LVU100
 590:../../Middlewares/LVGL/GUI/lvgl/src/widgets/menu/lv_menu.c **** 
 377              		.loc 1 590 24 is_stmt 0 view .LVU101
 378 0122 A565     		str	r5, [r4, #88]
 592:../../Middlewares/LVGL/GUI/lvgl/src/widgets/menu/lv_menu.c **** 
 379              		.loc 1 592 5 is_stmt 1 view .LVU102
 380 0124 2346     		mov	r3, r4
 381 0126 2322     		movs	r2, #35
 382 0128 0749     		ldr	r1, .L9+20
 383 012a 2046     		mov	r0, r4
 384 012c FFF7FEFF 		bl	lv_obj_add_event_cb
 385              	.LVL49:
 594:../../Middlewares/LVGL/GUI/lvgl/src/widgets/menu/lv_menu.c **** }
 386              		.loc 1 594 36 view .LVU103
 595:../../Middlewares/LVGL/GUI/lvgl/src/widgets/menu/lv_menu.c **** 
 387              		.loc 1 595 1 is_stmt 0 view .LVU104
 388 0130 F8BD     		pop	{r3, r4, r5, r6, r7, pc}
 389              	.LVL50:
 390              	.L10:
 595:../../Middlewares/LVGL/GUI/lvgl/src/widgets/menu/lv_menu.c **** 
 391              		.loc 1 595 1 view .LVU105
 392 0132 00BF     		.align	2
 393              	.L9:
 394 0134 00000000 		.word	lv_menu_main_cont_class
 395 0138 64000020 		.word	536871012
 396 013c 00000000 		.word	lv_menu_main_header_cont_class
 397 0140 00000000 		.word	lv_menu_back_event_cb
 398 0144 00000000 		.word	.LC0
 399 0148 00000000 		.word	lv_menu_value_changed_event_cb
 400              		.cfi_endproc
 401              	.LFE193:
 403              		.section	.text.lv_menu_page_destructor,"ax",%progbits
 404              		.align	1
 405              		.syntax unified
 406              		.thumb
 407              		.thumb_func
 409              	lv_menu_page_destructor:
 410              	.LVL51:
 411              	.LFB196:
 623:../../Middlewares/LVGL/GUI/lvgl/src/widgets/menu/lv_menu.c ****     LV_UNUSED(class_p);
 412              		.loc 1 623 1 is_stmt 1 view -0
 413              		.cfi_startproc
ARM GAS  C:\Users\28576\AppData\Local\Temp\ccAP2L0b.s 			page 21


 414              		@ args = 0, pretend = 0, frame = 0
 415              		@ frame_needed = 0, uses_anonymous_args = 0
 623:../../Middlewares/LVGL/GUI/lvgl/src/widgets/menu/lv_menu.c ****     LV_UNUSED(class_p);
 416              		.loc 1 623 1 is_stmt 0 view .LVU107
 417 0000 10B5     		push	{r4, lr}
 418              	.LCFI4:
 419              		.cfi_def_cfa_offset 8
 420              		.cfi_offset 4, -8
 421              		.cfi_offset 14, -4
 422 0002 0C46     		mov	r4, r1
 624:../../Middlewares/LVGL/GUI/lvgl/src/widgets/menu/lv_menu.c **** 
 423              		.loc 1 624 5 is_stmt 1 view .LVU108
 626:../../Middlewares/LVGL/GUI/lvgl/src/widgets/menu/lv_menu.c **** 
 424              		.loc 1 626 5 view .LVU109
 425              	.LVL52:
 628:../../Middlewares/LVGL/GUI/lvgl/src/widgets/menu/lv_menu.c ****         lv_free(page->title);
 426              		.loc 1 628 5 view .LVU110
 628:../../Middlewares/LVGL/GUI/lvgl/src/widgets/menu/lv_menu.c ****         lv_free(page->title);
 427              		.loc 1 628 14 is_stmt 0 view .LVU111
 428 0004 91F83030 		ldrb	r3, [r1, #48]	@ zero_extendqisi2
 628:../../Middlewares/LVGL/GUI/lvgl/src/widgets/menu/lv_menu.c ****         lv_free(page->title);
 429              		.loc 1 628 7 view .LVU112
 430 0008 1BB9     		cbnz	r3, .L12
 628:../../Middlewares/LVGL/GUI/lvgl/src/widgets/menu/lv_menu.c ****         lv_free(page->title);
 431              		.loc 1 628 37 discriminator 1 view .LVU113
 432 000a C86A     		ldr	r0, [r1, #44]
 433              	.LVL53:
 628:../../Middlewares/LVGL/GUI/lvgl/src/widgets/menu/lv_menu.c ****         lv_free(page->title);
 434              		.loc 1 628 30 discriminator 1 view .LVU114
 435 000c 08B1     		cbz	r0, .L12
 629:../../Middlewares/LVGL/GUI/lvgl/src/widgets/menu/lv_menu.c ****     }
 436              		.loc 1 629 9 is_stmt 1 view .LVU115
 437 000e FFF7FEFF 		bl	lv_free
 438              	.LVL54:
 439              	.L12:
 631:../../Middlewares/LVGL/GUI/lvgl/src/widgets/menu/lv_menu.c ****     page->static_title = false;
 440              		.loc 1 631 5 view .LVU116
 631:../../Middlewares/LVGL/GUI/lvgl/src/widgets/menu/lv_menu.c ****     page->static_title = false;
 441              		.loc 1 631 24 is_stmt 0 view .LVU117
 442 0012 0023     		movs	r3, #0
 443 0014 E362     		str	r3, [r4, #44]
 632:../../Middlewares/LVGL/GUI/lvgl/src/widgets/menu/lv_menu.c **** }
 444              		.loc 1 632 5 is_stmt 1 view .LVU118
 632:../../Middlewares/LVGL/GUI/lvgl/src/widgets/menu/lv_menu.c **** }
 445              		.loc 1 632 24 is_stmt 0 view .LVU119
 446 0016 84F83030 		strb	r3, [r4, #48]
 633:../../Middlewares/LVGL/GUI/lvgl/src/widgets/menu/lv_menu.c **** 
 447              		.loc 1 633 1 view .LVU120
 448 001a 10BD     		pop	{r4, pc}
 633:../../Middlewares/LVGL/GUI/lvgl/src/widgets/menu/lv_menu.c **** 
 449              		.loc 1 633 1 view .LVU121
 450              		.cfi_endproc
 451              	.LFE196:
 453              		.section	.text.lv_menu_obj_delete_event_cb,"ax",%progbits
 454              		.align	1
 455              		.syntax unified
 456              		.thumb
ARM GAS  C:\Users\28576\AppData\Local\Temp\ccAP2L0b.s 			page 22


 457              		.thumb_func
 459              	lv_menu_obj_delete_event_cb:
 460              	.LVL55:
 461              	.LFB202:
 649:../../Middlewares/LVGL/GUI/lvgl/src/widgets/menu/lv_menu.c **** 
 650:../../Middlewares/LVGL/GUI/lvgl/src/widgets/menu/lv_menu.c **** static void lv_menu_refr_sidebar_header_mode(lv_obj_t * obj)
 651:../../Middlewares/LVGL/GUI/lvgl/src/widgets/menu/lv_menu.c **** {
 652:../../Middlewares/LVGL/GUI/lvgl/src/widgets/menu/lv_menu.c ****     LV_ASSERT_OBJ(obj, MY_CLASS);
 653:../../Middlewares/LVGL/GUI/lvgl/src/widgets/menu/lv_menu.c **** 
 654:../../Middlewares/LVGL/GUI/lvgl/src/widgets/menu/lv_menu.c ****     lv_menu_t * menu = (lv_menu_t *)obj;
 655:../../Middlewares/LVGL/GUI/lvgl/src/widgets/menu/lv_menu.c **** 
 656:../../Middlewares/LVGL/GUI/lvgl/src/widgets/menu/lv_menu.c ****     if(menu->sidebar_header == NULL || menu->sidebar_page == NULL) return;
 657:../../Middlewares/LVGL/GUI/lvgl/src/widgets/menu/lv_menu.c **** 
 658:../../Middlewares/LVGL/GUI/lvgl/src/widgets/menu/lv_menu.c ****     switch(menu->mode_header) {
 659:../../Middlewares/LVGL/GUI/lvgl/src/widgets/menu/lv_menu.c ****         case LV_MENU_HEADER_TOP_FIXED:
 660:../../Middlewares/LVGL/GUI/lvgl/src/widgets/menu/lv_menu.c ****             /* Content should fill the remaining space */
 661:../../Middlewares/LVGL/GUI/lvgl/src/widgets/menu/lv_menu.c ****             lv_obj_move_to_index(menu->sidebar_header, 0);
 662:../../Middlewares/LVGL/GUI/lvgl/src/widgets/menu/lv_menu.c ****             lv_obj_set_flex_grow(menu->sidebar_page, 1);
 663:../../Middlewares/LVGL/GUI/lvgl/src/widgets/menu/lv_menu.c ****             break;
 664:../../Middlewares/LVGL/GUI/lvgl/src/widgets/menu/lv_menu.c ****         case LV_MENU_HEADER_TOP_UNFIXED:
 665:../../Middlewares/LVGL/GUI/lvgl/src/widgets/menu/lv_menu.c ****             lv_obj_move_to_index(menu->sidebar_header, 0);
 666:../../Middlewares/LVGL/GUI/lvgl/src/widgets/menu/lv_menu.c ****             lv_obj_set_flex_grow(menu->sidebar_page, 0);
 667:../../Middlewares/LVGL/GUI/lvgl/src/widgets/menu/lv_menu.c ****             break;
 668:../../Middlewares/LVGL/GUI/lvgl/src/widgets/menu/lv_menu.c ****         case LV_MENU_HEADER_BOTTOM_FIXED:
 669:../../Middlewares/LVGL/GUI/lvgl/src/widgets/menu/lv_menu.c ****             lv_obj_move_to_index(menu->sidebar_header, 1);
 670:../../Middlewares/LVGL/GUI/lvgl/src/widgets/menu/lv_menu.c ****             lv_obj_set_flex_grow(menu->sidebar_page, 1);
 671:../../Middlewares/LVGL/GUI/lvgl/src/widgets/menu/lv_menu.c ****             break;
 672:../../Middlewares/LVGL/GUI/lvgl/src/widgets/menu/lv_menu.c ****     }
 673:../../Middlewares/LVGL/GUI/lvgl/src/widgets/menu/lv_menu.c **** 
 674:../../Middlewares/LVGL/GUI/lvgl/src/widgets/menu/lv_menu.c ****     lv_obj_refr_size(menu->sidebar_header);
 675:../../Middlewares/LVGL/GUI/lvgl/src/widgets/menu/lv_menu.c ****     lv_obj_refr_size(menu->sidebar_page);
 676:../../Middlewares/LVGL/GUI/lvgl/src/widgets/menu/lv_menu.c **** 
 677:../../Middlewares/LVGL/GUI/lvgl/src/widgets/menu/lv_menu.c ****     if(lv_obj_get_content_height(menu->sidebar_header) == 0) {
 678:../../Middlewares/LVGL/GUI/lvgl/src/widgets/menu/lv_menu.c ****         lv_obj_add_flag(menu->sidebar_header, LV_OBJ_FLAG_HIDDEN);
 679:../../Middlewares/LVGL/GUI/lvgl/src/widgets/menu/lv_menu.c ****     }
 680:../../Middlewares/LVGL/GUI/lvgl/src/widgets/menu/lv_menu.c ****     else {
 681:../../Middlewares/LVGL/GUI/lvgl/src/widgets/menu/lv_menu.c ****         lv_obj_remove_flag(menu->sidebar_header, LV_OBJ_FLAG_HIDDEN);
 682:../../Middlewares/LVGL/GUI/lvgl/src/widgets/menu/lv_menu.c ****     }
 683:../../Middlewares/LVGL/GUI/lvgl/src/widgets/menu/lv_menu.c **** }
 684:../../Middlewares/LVGL/GUI/lvgl/src/widgets/menu/lv_menu.c **** 
 685:../../Middlewares/LVGL/GUI/lvgl/src/widgets/menu/lv_menu.c **** static void lv_menu_refr_main_header_mode(lv_obj_t * obj)
 686:../../Middlewares/LVGL/GUI/lvgl/src/widgets/menu/lv_menu.c **** {
 687:../../Middlewares/LVGL/GUI/lvgl/src/widgets/menu/lv_menu.c ****     LV_ASSERT_OBJ(obj, MY_CLASS);
 688:../../Middlewares/LVGL/GUI/lvgl/src/widgets/menu/lv_menu.c **** 
 689:../../Middlewares/LVGL/GUI/lvgl/src/widgets/menu/lv_menu.c ****     lv_menu_t * menu = (lv_menu_t *)obj;
 690:../../Middlewares/LVGL/GUI/lvgl/src/widgets/menu/lv_menu.c **** 
 691:../../Middlewares/LVGL/GUI/lvgl/src/widgets/menu/lv_menu.c ****     if(menu->main_header == NULL || menu->main_page == NULL) return;
 692:../../Middlewares/LVGL/GUI/lvgl/src/widgets/menu/lv_menu.c **** 
 693:../../Middlewares/LVGL/GUI/lvgl/src/widgets/menu/lv_menu.c ****     switch(menu->mode_header) {
 694:../../Middlewares/LVGL/GUI/lvgl/src/widgets/menu/lv_menu.c ****         case LV_MENU_HEADER_TOP_FIXED:
 695:../../Middlewares/LVGL/GUI/lvgl/src/widgets/menu/lv_menu.c ****             /* Content should fill the remaining space */
 696:../../Middlewares/LVGL/GUI/lvgl/src/widgets/menu/lv_menu.c ****             lv_obj_move_to_index(menu->main_header, 0);
 697:../../Middlewares/LVGL/GUI/lvgl/src/widgets/menu/lv_menu.c ****             lv_obj_set_flex_grow(menu->main_page, 1);
 698:../../Middlewares/LVGL/GUI/lvgl/src/widgets/menu/lv_menu.c ****             break;
 699:../../Middlewares/LVGL/GUI/lvgl/src/widgets/menu/lv_menu.c ****         case LV_MENU_HEADER_TOP_UNFIXED:
 700:../../Middlewares/LVGL/GUI/lvgl/src/widgets/menu/lv_menu.c ****             lv_obj_move_to_index(menu->main_header, 0);
 701:../../Middlewares/LVGL/GUI/lvgl/src/widgets/menu/lv_menu.c ****             lv_obj_set_flex_grow(menu->main_page, 0);
ARM GAS  C:\Users\28576\AppData\Local\Temp\ccAP2L0b.s 			page 23


 702:../../Middlewares/LVGL/GUI/lvgl/src/widgets/menu/lv_menu.c ****             break;
 703:../../Middlewares/LVGL/GUI/lvgl/src/widgets/menu/lv_menu.c ****         case LV_MENU_HEADER_BOTTOM_FIXED:
 704:../../Middlewares/LVGL/GUI/lvgl/src/widgets/menu/lv_menu.c ****             lv_obj_move_to_index(menu->main_header, 1);
 705:../../Middlewares/LVGL/GUI/lvgl/src/widgets/menu/lv_menu.c ****             lv_obj_set_flex_grow(menu->main_page, 1);
 706:../../Middlewares/LVGL/GUI/lvgl/src/widgets/menu/lv_menu.c ****             break;
 707:../../Middlewares/LVGL/GUI/lvgl/src/widgets/menu/lv_menu.c ****     }
 708:../../Middlewares/LVGL/GUI/lvgl/src/widgets/menu/lv_menu.c **** 
 709:../../Middlewares/LVGL/GUI/lvgl/src/widgets/menu/lv_menu.c ****     lv_obj_refr_size(menu->main_header);
 710:../../Middlewares/LVGL/GUI/lvgl/src/widgets/menu/lv_menu.c ****     lv_obj_refr_size(menu->main_page);
 711:../../Middlewares/LVGL/GUI/lvgl/src/widgets/menu/lv_menu.c ****     lv_obj_update_layout(menu->main_header);
 712:../../Middlewares/LVGL/GUI/lvgl/src/widgets/menu/lv_menu.c **** 
 713:../../Middlewares/LVGL/GUI/lvgl/src/widgets/menu/lv_menu.c ****     if(lv_obj_get_content_height(menu->main_header) == 0) {
 714:../../Middlewares/LVGL/GUI/lvgl/src/widgets/menu/lv_menu.c ****         lv_obj_add_flag(menu->main_header, LV_OBJ_FLAG_HIDDEN);
 715:../../Middlewares/LVGL/GUI/lvgl/src/widgets/menu/lv_menu.c ****     }
 716:../../Middlewares/LVGL/GUI/lvgl/src/widgets/menu/lv_menu.c ****     else {
 717:../../Middlewares/LVGL/GUI/lvgl/src/widgets/menu/lv_menu.c ****         lv_obj_remove_flag(menu->main_header, LV_OBJ_FLAG_HIDDEN);
 718:../../Middlewares/LVGL/GUI/lvgl/src/widgets/menu/lv_menu.c ****     }
 719:../../Middlewares/LVGL/GUI/lvgl/src/widgets/menu/lv_menu.c **** }
 720:../../Middlewares/LVGL/GUI/lvgl/src/widgets/menu/lv_menu.c **** 
 721:../../Middlewares/LVGL/GUI/lvgl/src/widgets/menu/lv_menu.c **** static void lv_menu_load_page_event_cb(lv_event_t * e)
 722:../../Middlewares/LVGL/GUI/lvgl/src/widgets/menu/lv_menu.c **** {
 723:../../Middlewares/LVGL/GUI/lvgl/src/widgets/menu/lv_menu.c ****     lv_obj_t * obj = lv_event_get_current_target(e);
 724:../../Middlewares/LVGL/GUI/lvgl/src/widgets/menu/lv_menu.c ****     lv_menu_load_page_event_data_t * event_data = lv_event_get_user_data(e);
 725:../../Middlewares/LVGL/GUI/lvgl/src/widgets/menu/lv_menu.c ****     lv_menu_t * menu = (lv_menu_t *)(event_data->menu);
 726:../../Middlewares/LVGL/GUI/lvgl/src/widgets/menu/lv_menu.c ****     lv_obj_t * page = event_data->page;
 727:../../Middlewares/LVGL/GUI/lvgl/src/widgets/menu/lv_menu.c **** 
 728:../../Middlewares/LVGL/GUI/lvgl/src/widgets/menu/lv_menu.c ****     if(menu->sidebar_page != NULL) {
 729:../../Middlewares/LVGL/GUI/lvgl/src/widgets/menu/lv_menu.c ****         /* Check if clicked obj is in the sidebar */
 730:../../Middlewares/LVGL/GUI/lvgl/src/widgets/menu/lv_menu.c ****         bool sidebar = false;
 731:../../Middlewares/LVGL/GUI/lvgl/src/widgets/menu/lv_menu.c ****         lv_obj_t * parent = obj;
 732:../../Middlewares/LVGL/GUI/lvgl/src/widgets/menu/lv_menu.c **** 
 733:../../Middlewares/LVGL/GUI/lvgl/src/widgets/menu/lv_menu.c ****         while(parent) {
 734:../../Middlewares/LVGL/GUI/lvgl/src/widgets/menu/lv_menu.c ****             if(parent == (lv_obj_t *)menu) break;
 735:../../Middlewares/LVGL/GUI/lvgl/src/widgets/menu/lv_menu.c ****             if(parent == menu->sidebar) {
 736:../../Middlewares/LVGL/GUI/lvgl/src/widgets/menu/lv_menu.c ****                 sidebar = true;
 737:../../Middlewares/LVGL/GUI/lvgl/src/widgets/menu/lv_menu.c ****                 break;
 738:../../Middlewares/LVGL/GUI/lvgl/src/widgets/menu/lv_menu.c ****             }
 739:../../Middlewares/LVGL/GUI/lvgl/src/widgets/menu/lv_menu.c ****             parent = lv_obj_get_parent(parent);
 740:../../Middlewares/LVGL/GUI/lvgl/src/widgets/menu/lv_menu.c ****         }
 741:../../Middlewares/LVGL/GUI/lvgl/src/widgets/menu/lv_menu.c **** 
 742:../../Middlewares/LVGL/GUI/lvgl/src/widgets/menu/lv_menu.c ****         if(sidebar) {
 743:../../Middlewares/LVGL/GUI/lvgl/src/widgets/menu/lv_menu.c ****             /* Clear checked state of previous obj */
 744:../../Middlewares/LVGL/GUI/lvgl/src/widgets/menu/lv_menu.c ****             if(menu->selected_tab != obj && menu->selected_tab != NULL) {
 745:../../Middlewares/LVGL/GUI/lvgl/src/widgets/menu/lv_menu.c ****                 lv_obj_remove_state(menu->selected_tab, LV_STATE_CHECKED);
 746:../../Middlewares/LVGL/GUI/lvgl/src/widgets/menu/lv_menu.c ****             }
 747:../../Middlewares/LVGL/GUI/lvgl/src/widgets/menu/lv_menu.c **** 
 748:../../Middlewares/LVGL/GUI/lvgl/src/widgets/menu/lv_menu.c ****             lv_menu_clear_history((lv_obj_t *)menu);
 749:../../Middlewares/LVGL/GUI/lvgl/src/widgets/menu/lv_menu.c **** 
 750:../../Middlewares/LVGL/GUI/lvgl/src/widgets/menu/lv_menu.c ****             menu->selected_tab = obj;
 751:../../Middlewares/LVGL/GUI/lvgl/src/widgets/menu/lv_menu.c ****         }
 752:../../Middlewares/LVGL/GUI/lvgl/src/widgets/menu/lv_menu.c ****     }
 753:../../Middlewares/LVGL/GUI/lvgl/src/widgets/menu/lv_menu.c **** 
 754:../../Middlewares/LVGL/GUI/lvgl/src/widgets/menu/lv_menu.c ****     lv_menu_set_page((lv_obj_t *)menu, page);
 755:../../Middlewares/LVGL/GUI/lvgl/src/widgets/menu/lv_menu.c **** 
 756:../../Middlewares/LVGL/GUI/lvgl/src/widgets/menu/lv_menu.c ****     if(lv_group_get_default() != NULL && menu->sidebar_page == NULL) {
 757:../../Middlewares/LVGL/GUI/lvgl/src/widgets/menu/lv_menu.c ****         /* Sidebar is not supported for now*/
 758:../../Middlewares/LVGL/GUI/lvgl/src/widgets/menu/lv_menu.c ****         lv_group_focus_next(lv_group_get_default());
ARM GAS  C:\Users\28576\AppData\Local\Temp\ccAP2L0b.s 			page 24


 759:../../Middlewares/LVGL/GUI/lvgl/src/widgets/menu/lv_menu.c ****     }
 760:../../Middlewares/LVGL/GUI/lvgl/src/widgets/menu/lv_menu.c **** }
 761:../../Middlewares/LVGL/GUI/lvgl/src/widgets/menu/lv_menu.c **** 
 762:../../Middlewares/LVGL/GUI/lvgl/src/widgets/menu/lv_menu.c **** static void lv_menu_obj_delete_event_cb(lv_event_t * e)
 763:../../Middlewares/LVGL/GUI/lvgl/src/widgets/menu/lv_menu.c **** {
 462              		.loc 1 763 1 is_stmt 1 view -0
 463              		.cfi_startproc
 464              		@ args = 0, pretend = 0, frame = 0
 465              		@ frame_needed = 0, uses_anonymous_args = 0
 466              		.loc 1 763 1 is_stmt 0 view .LVU123
 467 0000 08B5     		push	{r3, lr}
 468              	.LCFI5:
 469              		.cfi_def_cfa_offset 8
 470              		.cfi_offset 3, -8
 471              		.cfi_offset 14, -4
 764:../../Middlewares/LVGL/GUI/lvgl/src/widgets/menu/lv_menu.c ****     lv_menu_load_page_event_data_t * event_data = lv_event_get_user_data(e);
 472              		.loc 1 764 5 is_stmt 1 view .LVU124
 473              		.loc 1 764 51 is_stmt 0 view .LVU125
 474 0002 FFF7FEFF 		bl	lv_event_get_user_data
 475              	.LVL56:
 765:../../Middlewares/LVGL/GUI/lvgl/src/widgets/menu/lv_menu.c ****     lv_free(event_data);
 476              		.loc 1 765 5 is_stmt 1 view .LVU126
 477 0006 FFF7FEFF 		bl	lv_free
 478              	.LVL57:
 766:../../Middlewares/LVGL/GUI/lvgl/src/widgets/menu/lv_menu.c **** }
 479              		.loc 1 766 1 is_stmt 0 view .LVU127
 480 000a 08BD     		pop	{r3, pc}
 481              		.cfi_endproc
 482              	.LFE202:
 484              		.section	.text.lv_menu_page_constructor,"ax",%progbits
 485              		.align	1
 486              		.syntax unified
 487              		.thumb
 488              		.thumb_func
 490              	lv_menu_page_constructor:
 491              	.LVL58:
 492              	.LFB195:
 611:../../Middlewares/LVGL/GUI/lvgl/src/widgets/menu/lv_menu.c ****     LV_UNUSED(class_p);
 493              		.loc 1 611 1 is_stmt 1 view -0
 494              		.cfi_startproc
 495              		@ args = 0, pretend = 0, frame = 0
 496              		@ frame_needed = 0, uses_anonymous_args = 0
 611:../../Middlewares/LVGL/GUI/lvgl/src/widgets/menu/lv_menu.c ****     LV_UNUSED(class_p);
 497              		.loc 1 611 1 is_stmt 0 view .LVU129
 498 0000 10B5     		push	{r4, lr}
 499              	.LCFI6:
 500              		.cfi_def_cfa_offset 8
 501              		.cfi_offset 4, -8
 502              		.cfi_offset 14, -4
 503 0002 0C46     		mov	r4, r1
 612:../../Middlewares/LVGL/GUI/lvgl/src/widgets/menu/lv_menu.c **** 
 504              		.loc 1 612 5 is_stmt 1 view .LVU130
 614:../../Middlewares/LVGL/GUI/lvgl/src/widgets/menu/lv_menu.c **** 
 505              		.loc 1 614 5 view .LVU131
 614:../../Middlewares/LVGL/GUI/lvgl/src/widgets/menu/lv_menu.c **** 
 506              		.loc 1 614 37 is_stmt 0 view .LVU132
 507 0004 0846     		mov	r0, r1
ARM GAS  C:\Users\28576\AppData\Local\Temp\ccAP2L0b.s 			page 25


 508              	.LVL59:
 614:../../Middlewares/LVGL/GUI/lvgl/src/widgets/menu/lv_menu.c **** 
 509              		.loc 1 614 37 view .LVU133
 510 0006 FFF7FEFF 		bl	lv_obj_get_parent
 511              	.LVL60:
 616:../../Middlewares/LVGL/GUI/lvgl/src/widgets/menu/lv_menu.c ****     lv_obj_set_flex_flow(obj, LV_FLEX_FLOW_COLUMN);
 512              		.loc 1 616 5 is_stmt 1 view .LVU134
 513 000a C16A     		ldr	r1, [r0, #44]
 514 000c 2046     		mov	r0, r4
 515              	.LVL61:
 616:../../Middlewares/LVGL/GUI/lvgl/src/widgets/menu/lv_menu.c ****     lv_obj_set_flex_flow(obj, LV_FLEX_FLOW_COLUMN);
 516              		.loc 1 616 5 is_stmt 0 view .LVU135
 517 000e FFF7FEFF 		bl	lv_obj_set_parent
 518              	.LVL62:
 617:../../Middlewares/LVGL/GUI/lvgl/src/widgets/menu/lv_menu.c ****     lv_obj_set_flex_align(obj, LV_FLEX_ALIGN_START, LV_FLEX_ALIGN_CENTER, LV_FLEX_ALIGN_CENTER);
 519              		.loc 1 617 5 is_stmt 1 view .LVU136
 520 0012 0121     		movs	r1, #1
 521 0014 2046     		mov	r0, r4
 522 0016 FFF7FEFF 		bl	lv_obj_set_flex_flow
 523              	.LVL63:
 618:../../Middlewares/LVGL/GUI/lvgl/src/widgets/menu/lv_menu.c ****     lv_obj_add_flag(obj, LV_OBJ_FLAG_EVENT_BUBBLE);
 524              		.loc 1 618 5 view .LVU137
 525 001a 0223     		movs	r3, #2
 526 001c 1A46     		mov	r2, r3
 527 001e 0021     		movs	r1, #0
 528 0020 2046     		mov	r0, r4
 529 0022 FFF7FEFF 		bl	lv_obj_set_flex_align
 530              	.LVL64:
 619:../../Middlewares/LVGL/GUI/lvgl/src/widgets/menu/lv_menu.c **** }
 531              		.loc 1 619 5 view .LVU138
 532 0026 4FF48041 		mov	r1, #16384
 533 002a 2046     		mov	r0, r4
 534 002c FFF7FEFF 		bl	lv_obj_add_flag
 535              	.LVL65:
 620:../../Middlewares/LVGL/GUI/lvgl/src/widgets/menu/lv_menu.c **** 
 536              		.loc 1 620 1 is_stmt 0 view .LVU139
 537 0030 10BD     		pop	{r4, pc}
 620:../../Middlewares/LVGL/GUI/lvgl/src/widgets/menu/lv_menu.c **** 
 538              		.loc 1 620 1 view .LVU140
 539              		.cfi_endproc
 540              	.LFE195:
 542              		.section	.text.lv_menu_refr_main_header_mode,"ax",%progbits
 543              		.align	1
 544              		.syntax unified
 545              		.thumb
 546              		.thumb_func
 548              	lv_menu_refr_main_header_mode:
 549              	.LVL66:
 550              	.LFB200:
 686:../../Middlewares/LVGL/GUI/lvgl/src/widgets/menu/lv_menu.c ****     LV_ASSERT_OBJ(obj, MY_CLASS);
 551              		.loc 1 686 1 is_stmt 1 view -0
 552              		.cfi_startproc
 553              		@ args = 0, pretend = 0, frame = 0
 554              		@ frame_needed = 0, uses_anonymous_args = 0
 687:../../Middlewares/LVGL/GUI/lvgl/src/widgets/menu/lv_menu.c **** 
 555              		.loc 1 687 5 view .LVU142
 687:../../Middlewares/LVGL/GUI/lvgl/src/widgets/menu/lv_menu.c **** 
ARM GAS  C:\Users\28576\AppData\Local\Temp\ccAP2L0b.s 			page 26


 556              		.loc 1 687 5 view .LVU143
 557 0000 38B3     		cbz	r0, .L20
 686:../../Middlewares/LVGL/GUI/lvgl/src/widgets/menu/lv_menu.c ****     LV_ASSERT_OBJ(obj, MY_CLASS);
 558              		.loc 1 686 1 is_stmt 0 view .LVU144
 559 0002 10B5     		push	{r4, lr}
 560              	.LCFI7:
 561              		.cfi_def_cfa_offset 8
 562              		.cfi_offset 4, -8
 563              		.cfi_offset 14, -4
 564 0004 0446     		mov	r4, r0
 687:../../Middlewares/LVGL/GUI/lvgl/src/widgets/menu/lv_menu.c **** 
 565              		.loc 1 687 5 is_stmt 1 view .LVU145
 687:../../Middlewares/LVGL/GUI/lvgl/src/widgets/menu/lv_menu.c **** 
 566              		.loc 1 687 33 view .LVU146
 689:../../Middlewares/LVGL/GUI/lvgl/src/widgets/menu/lv_menu.c **** 
 567              		.loc 1 689 5 view .LVU147
 568              	.LVL67:
 691:../../Middlewares/LVGL/GUI/lvgl/src/widgets/menu/lv_menu.c **** 
 569              		.loc 1 691 5 view .LVU148
 691:../../Middlewares/LVGL/GUI/lvgl/src/widgets/menu/lv_menu.c **** 
 570              		.loc 1 691 12 is_stmt 0 view .LVU149
 571 0006 806B     		ldr	r0, [r0, #56]
 572              	.LVL68:
 691:../../Middlewares/LVGL/GUI/lvgl/src/widgets/menu/lv_menu.c **** 
 573              		.loc 1 691 7 view .LVU150
 574 0008 10B3     		cbz	r0, .L18
 691:../../Middlewares/LVGL/GUI/lvgl/src/widgets/menu/lv_menu.c **** 
 575              		.loc 1 691 41 discriminator 2 view .LVU151
 576 000a 636B     		ldr	r3, [r4, #52]
 691:../../Middlewares/LVGL/GUI/lvgl/src/widgets/menu/lv_menu.c **** 
 577              		.loc 1 691 34 discriminator 2 view .LVU152
 578 000c 03B3     		cbz	r3, .L18
 693:../../Middlewares/LVGL/GUI/lvgl/src/widgets/menu/lv_menu.c ****         case LV_MENU_HEADER_TOP_FIXED:
 579              		.loc 1 693 5 is_stmt 1 view .LVU153
 693:../../Middlewares/LVGL/GUI/lvgl/src/widgets/menu/lv_menu.c ****         case LV_MENU_HEADER_TOP_FIXED:
 580              		.loc 1 693 16 is_stmt 0 view .LVU154
 581 000e 94F86A30 		ldrb	r3, [r4, #106]	@ zero_extendqisi2
 582 0012 C3F34203 		ubfx	r3, r3, #1, #3
 693:../../Middlewares/LVGL/GUI/lvgl/src/widgets/menu/lv_menu.c ****         case LV_MENU_HEADER_TOP_FIXED:
 583              		.loc 1 693 5 view .LVU155
 584 0016 012B     		cmp	r3, #1
 585 0018 1CD0     		beq	.L22
 586 001a 022B     		cmp	r3, #2
 587 001c 22D0     		beq	.L23
 588 001e 33B9     		cbnz	r3, .L24
 696:../../Middlewares/LVGL/GUI/lvgl/src/widgets/menu/lv_menu.c ****             lv_obj_set_flex_grow(menu->main_page, 1);
 589              		.loc 1 696 13 is_stmt 1 view .LVU156
 590 0020 1946     		mov	r1, r3
 591 0022 FFF7FEFF 		bl	lv_obj_move_to_index
 592              	.LVL69:
 697:../../Middlewares/LVGL/GUI/lvgl/src/widgets/menu/lv_menu.c ****             break;
 593              		.loc 1 697 13 view .LVU157
 594 0026 0121     		movs	r1, #1
 595 0028 606B     		ldr	r0, [r4, #52]
 596 002a FFF7FEFF 		bl	lv_obj_set_flex_grow
 597              	.LVL70:
 698:../../Middlewares/LVGL/GUI/lvgl/src/widgets/menu/lv_menu.c ****         case LV_MENU_HEADER_TOP_UNFIXED:
ARM GAS  C:\Users\28576\AppData\Local\Temp\ccAP2L0b.s 			page 27


 598              		.loc 1 698 13 view .LVU158
 599              	.L24:
 709:../../Middlewares/LVGL/GUI/lvgl/src/widgets/menu/lv_menu.c ****     lv_obj_refr_size(menu->main_page);
 600              		.loc 1 709 5 view .LVU159
 601 002e A06B     		ldr	r0, [r4, #56]
 602 0030 FFF7FEFF 		bl	lv_obj_refr_size
 603              	.LVL71:
 710:../../Middlewares/LVGL/GUI/lvgl/src/widgets/menu/lv_menu.c ****     lv_obj_update_layout(menu->main_header);
 604              		.loc 1 710 5 view .LVU160
 605 0034 606B     		ldr	r0, [r4, #52]
 606 0036 FFF7FEFF 		bl	lv_obj_refr_size
 607              	.LVL72:
 711:../../Middlewares/LVGL/GUI/lvgl/src/widgets/menu/lv_menu.c **** 
 608              		.loc 1 711 5 view .LVU161
 609 003a A06B     		ldr	r0, [r4, #56]
 610 003c FFF7FEFF 		bl	lv_obj_update_layout
 611              	.LVL73:
 713:../../Middlewares/LVGL/GUI/lvgl/src/widgets/menu/lv_menu.c ****         lv_obj_add_flag(menu->main_header, LV_OBJ_FLAG_HIDDEN);
 612              		.loc 1 713 5 view .LVU162
 713:../../Middlewares/LVGL/GUI/lvgl/src/widgets/menu/lv_menu.c ****         lv_obj_add_flag(menu->main_header, LV_OBJ_FLAG_HIDDEN);
 613              		.loc 1 713 8 is_stmt 0 view .LVU163
 614 0040 A06B     		ldr	r0, [r4, #56]
 615 0042 FFF7FEFF 		bl	lv_obj_get_content_height
 616              	.LVL74:
 713:../../Middlewares/LVGL/GUI/lvgl/src/widgets/menu/lv_menu.c ****         lv_obj_add_flag(menu->main_header, LV_OBJ_FLAG_HIDDEN);
 617              		.loc 1 713 7 discriminator 1 view .LVU164
 618 0046 A8B9     		cbnz	r0, .L25
 714:../../Middlewares/LVGL/GUI/lvgl/src/widgets/menu/lv_menu.c ****     }
 619              		.loc 1 714 9 is_stmt 1 view .LVU165
 620 0048 0121     		movs	r1, #1
 621 004a A06B     		ldr	r0, [r4, #56]
 622 004c FFF7FEFF 		bl	lv_obj_add_flag
 623              	.LVL75:
 624              	.L18:
 719:../../Middlewares/LVGL/GUI/lvgl/src/widgets/menu/lv_menu.c **** 
 625              		.loc 1 719 1 is_stmt 0 view .LVU166
 626 0050 10BD     		pop	{r4, pc}
 627              	.LVL76:
 628              	.L20:
 629              	.LCFI8:
 630              		.cfi_def_cfa_offset 0
 631              		.cfi_restore 4
 632              		.cfi_restore 14
 687:../../Middlewares/LVGL/GUI/lvgl/src/widgets/menu/lv_menu.c **** 
 633              		.loc 1 687 5 is_stmt 1 view .LVU167
 687:../../Middlewares/LVGL/GUI/lvgl/src/widgets/menu/lv_menu.c **** 
 634              		.loc 1 687 5 view .LVU168
 687:../../Middlewares/LVGL/GUI/lvgl/src/widgets/menu/lv_menu.c **** 
 635              		.loc 1 687 5 view .LVU169
 687:../../Middlewares/LVGL/GUI/lvgl/src/widgets/menu/lv_menu.c **** 
 636              		.loc 1 687 5 view .LVU170
 687:../../Middlewares/LVGL/GUI/lvgl/src/widgets/menu/lv_menu.c **** 
 637              		.loc 1 687 5 view .LVU171
 638 0052 FEE7     		b	.L20
 639              	.LVL77:
 640              	.L22:
 641              	.LCFI9:
ARM GAS  C:\Users\28576\AppData\Local\Temp\ccAP2L0b.s 			page 28


 642              		.cfi_def_cfa_offset 8
 643              		.cfi_offset 4, -8
 644              		.cfi_offset 14, -4
 700:../../Middlewares/LVGL/GUI/lvgl/src/widgets/menu/lv_menu.c ****             lv_obj_set_flex_grow(menu->main_page, 0);
 645              		.loc 1 700 13 view .LVU172
 646 0054 0021     		movs	r1, #0
 647 0056 FFF7FEFF 		bl	lv_obj_move_to_index
 648              	.LVL78:
 701:../../Middlewares/LVGL/GUI/lvgl/src/widgets/menu/lv_menu.c ****             break;
 649              		.loc 1 701 13 view .LVU173
 650 005a 0021     		movs	r1, #0
 651 005c 606B     		ldr	r0, [r4, #52]
 652 005e FFF7FEFF 		bl	lv_obj_set_flex_grow
 653              	.LVL79:
 702:../../Middlewares/LVGL/GUI/lvgl/src/widgets/menu/lv_menu.c ****         case LV_MENU_HEADER_BOTTOM_FIXED:
 654              		.loc 1 702 13 view .LVU174
 655 0062 E4E7     		b	.L24
 656              	.L23:
 704:../../Middlewares/LVGL/GUI/lvgl/src/widgets/menu/lv_menu.c ****             lv_obj_set_flex_grow(menu->main_page, 1);
 657              		.loc 1 704 13 view .LVU175
 658 0064 0121     		movs	r1, #1
 659 0066 FFF7FEFF 		bl	lv_obj_move_to_index
 660              	.LVL80:
 705:../../Middlewares/LVGL/GUI/lvgl/src/widgets/menu/lv_menu.c ****             break;
 661              		.loc 1 705 13 view .LVU176
 662 006a 0121     		movs	r1, #1
 663 006c 606B     		ldr	r0, [r4, #52]
 664 006e FFF7FEFF 		bl	lv_obj_set_flex_grow
 665              	.LVL81:
 706:../../Middlewares/LVGL/GUI/lvgl/src/widgets/menu/lv_menu.c ****     }
 666              		.loc 1 706 13 view .LVU177
 667 0072 DCE7     		b	.L24
 668              	.L25:
 717:../../Middlewares/LVGL/GUI/lvgl/src/widgets/menu/lv_menu.c ****     }
 669              		.loc 1 717 9 view .LVU178
 670 0074 0121     		movs	r1, #1
 671 0076 A06B     		ldr	r0, [r4, #56]
 672 0078 FFF7FEFF 		bl	lv_obj_remove_flag
 673              	.LVL82:
 674 007c E8E7     		b	.L18
 675              		.cfi_endproc
 676              	.LFE200:
 678              		.section	.text.lv_menu_refr_sidebar_header_mode,"ax",%progbits
 679              		.align	1
 680              		.syntax unified
 681              		.thumb
 682              		.thumb_func
 684              	lv_menu_refr_sidebar_header_mode:
 685              	.LVL83:
 686              	.LFB199:
 651:../../Middlewares/LVGL/GUI/lvgl/src/widgets/menu/lv_menu.c ****     LV_ASSERT_OBJ(obj, MY_CLASS);
 687              		.loc 1 651 1 view -0
 688              		.cfi_startproc
 689              		@ args = 0, pretend = 0, frame = 0
 690              		@ frame_needed = 0, uses_anonymous_args = 0
 652:../../Middlewares/LVGL/GUI/lvgl/src/widgets/menu/lv_menu.c **** 
 691              		.loc 1 652 5 view .LVU180
ARM GAS  C:\Users\28576\AppData\Local\Temp\ccAP2L0b.s 			page 29


 652:../../Middlewares/LVGL/GUI/lvgl/src/widgets/menu/lv_menu.c **** 
 692              		.loc 1 652 5 view .LVU181
 693 0000 20B3     		cbz	r0, .L30
 651:../../Middlewares/LVGL/GUI/lvgl/src/widgets/menu/lv_menu.c ****     LV_ASSERT_OBJ(obj, MY_CLASS);
 694              		.loc 1 651 1 is_stmt 0 view .LVU182
 695 0002 10B5     		push	{r4, lr}
 696              	.LCFI10:
 697              		.cfi_def_cfa_offset 8
 698              		.cfi_offset 4, -8
 699              		.cfi_offset 14, -4
 700 0004 0446     		mov	r4, r0
 652:../../Middlewares/LVGL/GUI/lvgl/src/widgets/menu/lv_menu.c **** 
 701              		.loc 1 652 5 is_stmt 1 view .LVU183
 652:../../Middlewares/LVGL/GUI/lvgl/src/widgets/menu/lv_menu.c **** 
 702              		.loc 1 652 33 view .LVU184
 654:../../Middlewares/LVGL/GUI/lvgl/src/widgets/menu/lv_menu.c **** 
 703              		.loc 1 654 5 view .LVU185
 704              	.LVL84:
 656:../../Middlewares/LVGL/GUI/lvgl/src/widgets/menu/lv_menu.c **** 
 705              		.loc 1 656 5 view .LVU186
 656:../../Middlewares/LVGL/GUI/lvgl/src/widgets/menu/lv_menu.c **** 
 706              		.loc 1 656 12 is_stmt 0 view .LVU187
 707 0006 C06C     		ldr	r0, [r0, #76]
 708              	.LVL85:
 656:../../Middlewares/LVGL/GUI/lvgl/src/widgets/menu/lv_menu.c **** 
 709              		.loc 1 656 7 view .LVU188
 710 0008 F8B1     		cbz	r0, .L28
 656:../../Middlewares/LVGL/GUI/lvgl/src/widgets/menu/lv_menu.c **** 
 711              		.loc 1 656 44 discriminator 2 view .LVU189
 712 000a A36C     		ldr	r3, [r4, #72]
 656:../../Middlewares/LVGL/GUI/lvgl/src/widgets/menu/lv_menu.c **** 
 713              		.loc 1 656 37 discriminator 2 view .LVU190
 714 000c EBB1     		cbz	r3, .L28
 658:../../Middlewares/LVGL/GUI/lvgl/src/widgets/menu/lv_menu.c ****         case LV_MENU_HEADER_TOP_FIXED:
 715              		.loc 1 658 5 is_stmt 1 view .LVU191
 658:../../Middlewares/LVGL/GUI/lvgl/src/widgets/menu/lv_menu.c ****         case LV_MENU_HEADER_TOP_FIXED:
 716              		.loc 1 658 16 is_stmt 0 view .LVU192
 717 000e 94F86A30 		ldrb	r3, [r4, #106]	@ zero_extendqisi2
 718 0012 C3F34203 		ubfx	r3, r3, #1, #3
 658:../../Middlewares/LVGL/GUI/lvgl/src/widgets/menu/lv_menu.c ****         case LV_MENU_HEADER_TOP_FIXED:
 719              		.loc 1 658 5 view .LVU193
 720 0016 012B     		cmp	r3, #1
 721 0018 19D0     		beq	.L32
 722 001a 022B     		cmp	r3, #2
 723 001c 1FD0     		beq	.L33
 724 001e 33B9     		cbnz	r3, .L34
 661:../../Middlewares/LVGL/GUI/lvgl/src/widgets/menu/lv_menu.c ****             lv_obj_set_flex_grow(menu->sidebar_page, 1);
 725              		.loc 1 661 13 is_stmt 1 view .LVU194
 726 0020 1946     		mov	r1, r3
 727 0022 FFF7FEFF 		bl	lv_obj_move_to_index
 728              	.LVL86:
 662:../../Middlewares/LVGL/GUI/lvgl/src/widgets/menu/lv_menu.c ****             break;
 729              		.loc 1 662 13 view .LVU195
 730 0026 0121     		movs	r1, #1
 731 0028 A06C     		ldr	r0, [r4, #72]
 732 002a FFF7FEFF 		bl	lv_obj_set_flex_grow
 733              	.LVL87:
ARM GAS  C:\Users\28576\AppData\Local\Temp\ccAP2L0b.s 			page 30


 663:../../Middlewares/LVGL/GUI/lvgl/src/widgets/menu/lv_menu.c ****         case LV_MENU_HEADER_TOP_UNFIXED:
 734              		.loc 1 663 13 view .LVU196
 735              	.L34:
 674:../../Middlewares/LVGL/GUI/lvgl/src/widgets/menu/lv_menu.c ****     lv_obj_refr_size(menu->sidebar_page);
 736              		.loc 1 674 5 view .LVU197
 737 002e E06C     		ldr	r0, [r4, #76]
 738 0030 FFF7FEFF 		bl	lv_obj_refr_size
 739              	.LVL88:
 675:../../Middlewares/LVGL/GUI/lvgl/src/widgets/menu/lv_menu.c **** 
 740              		.loc 1 675 5 view .LVU198
 741 0034 A06C     		ldr	r0, [r4, #72]
 742 0036 FFF7FEFF 		bl	lv_obj_refr_size
 743              	.LVL89:
 677:../../Middlewares/LVGL/GUI/lvgl/src/widgets/menu/lv_menu.c ****         lv_obj_add_flag(menu->sidebar_header, LV_OBJ_FLAG_HIDDEN);
 744              		.loc 1 677 5 view .LVU199
 677:../../Middlewares/LVGL/GUI/lvgl/src/widgets/menu/lv_menu.c ****         lv_obj_add_flag(menu->sidebar_header, LV_OBJ_FLAG_HIDDEN);
 745              		.loc 1 677 8 is_stmt 0 view .LVU200
 746 003a E06C     		ldr	r0, [r4, #76]
 747 003c FFF7FEFF 		bl	lv_obj_get_content_height
 748              	.LVL90:
 677:../../Middlewares/LVGL/GUI/lvgl/src/widgets/menu/lv_menu.c ****         lv_obj_add_flag(menu->sidebar_header, LV_OBJ_FLAG_HIDDEN);
 749              		.loc 1 677 7 discriminator 1 view .LVU201
 750 0040 A8B9     		cbnz	r0, .L35
 678:../../Middlewares/LVGL/GUI/lvgl/src/widgets/menu/lv_menu.c ****     }
 751              		.loc 1 678 9 is_stmt 1 view .LVU202
 752 0042 0121     		movs	r1, #1
 753 0044 E06C     		ldr	r0, [r4, #76]
 754 0046 FFF7FEFF 		bl	lv_obj_add_flag
 755              	.LVL91:
 756              	.L28:
 683:../../Middlewares/LVGL/GUI/lvgl/src/widgets/menu/lv_menu.c **** 
 757              		.loc 1 683 1 is_stmt 0 view .LVU203
 758 004a 10BD     		pop	{r4, pc}
 759              	.LVL92:
 760              	.L30:
 761              	.LCFI11:
 762              		.cfi_def_cfa_offset 0
 763              		.cfi_restore 4
 764              		.cfi_restore 14
 652:../../Middlewares/LVGL/GUI/lvgl/src/widgets/menu/lv_menu.c **** 
 765              		.loc 1 652 5 is_stmt 1 view .LVU204
 652:../../Middlewares/LVGL/GUI/lvgl/src/widgets/menu/lv_menu.c **** 
 766              		.loc 1 652 5 view .LVU205
 652:../../Middlewares/LVGL/GUI/lvgl/src/widgets/menu/lv_menu.c **** 
 767              		.loc 1 652 5 view .LVU206
 652:../../Middlewares/LVGL/GUI/lvgl/src/widgets/menu/lv_menu.c **** 
 768              		.loc 1 652 5 view .LVU207
 652:../../Middlewares/LVGL/GUI/lvgl/src/widgets/menu/lv_menu.c **** 
 769              		.loc 1 652 5 view .LVU208
 770 004c FEE7     		b	.L30
 771              	.LVL93:
 772              	.L32:
 773              	.LCFI12:
 774              		.cfi_def_cfa_offset 8
 775              		.cfi_offset 4, -8
 776              		.cfi_offset 14, -4
 665:../../Middlewares/LVGL/GUI/lvgl/src/widgets/menu/lv_menu.c ****             lv_obj_set_flex_grow(menu->sidebar_page, 0);
ARM GAS  C:\Users\28576\AppData\Local\Temp\ccAP2L0b.s 			page 31


 777              		.loc 1 665 13 view .LVU209
 778 004e 0021     		movs	r1, #0
 779 0050 FFF7FEFF 		bl	lv_obj_move_to_index
 780              	.LVL94:
 666:../../Middlewares/LVGL/GUI/lvgl/src/widgets/menu/lv_menu.c ****             break;
 781              		.loc 1 666 13 view .LVU210
 782 0054 0021     		movs	r1, #0
 783 0056 A06C     		ldr	r0, [r4, #72]
 784 0058 FFF7FEFF 		bl	lv_obj_set_flex_grow
 785              	.LVL95:
 667:../../Middlewares/LVGL/GUI/lvgl/src/widgets/menu/lv_menu.c ****         case LV_MENU_HEADER_BOTTOM_FIXED:
 786              		.loc 1 667 13 view .LVU211
 787 005c E7E7     		b	.L34
 788              	.L33:
 669:../../Middlewares/LVGL/GUI/lvgl/src/widgets/menu/lv_menu.c ****             lv_obj_set_flex_grow(menu->sidebar_page, 1);
 789              		.loc 1 669 13 view .LVU212
 790 005e 0121     		movs	r1, #1
 791 0060 FFF7FEFF 		bl	lv_obj_move_to_index
 792              	.LVL96:
 670:../../Middlewares/LVGL/GUI/lvgl/src/widgets/menu/lv_menu.c ****             break;
 793              		.loc 1 670 13 view .LVU213
 794 0064 0121     		movs	r1, #1
 795 0066 A06C     		ldr	r0, [r4, #72]
 796 0068 FFF7FEFF 		bl	lv_obj_set_flex_grow
 797              	.LVL97:
 671:../../Middlewares/LVGL/GUI/lvgl/src/widgets/menu/lv_menu.c ****     }
 798              		.loc 1 671 13 view .LVU214
 799 006c DFE7     		b	.L34
 800              	.L35:
 681:../../Middlewares/LVGL/GUI/lvgl/src/widgets/menu/lv_menu.c ****     }
 801              		.loc 1 681 9 view .LVU215
 802 006e 0121     		movs	r1, #1
 803 0070 E06C     		ldr	r0, [r4, #76]
 804 0072 FFF7FEFF 		bl	lv_obj_remove_flag
 805              	.LVL98:
 806 0076 E8E7     		b	.L28
 807              		.cfi_endproc
 808              	.LFE199:
 810              		.section	.text.lv_menu_create,"ax",%progbits
 811              		.align	1
 812              		.global	lv_menu_create
 813              		.syntax unified
 814              		.thumb
 815              		.thumb_func
 817              	lv_menu_create:
 818              	.LVL99:
 819              	.LFB172:
 119:../../Middlewares/LVGL/GUI/lvgl/src/widgets/menu/lv_menu.c ****     LV_LOG_INFO("begin");
 820              		.loc 1 119 1 view -0
 821              		.cfi_startproc
 822              		@ args = 0, pretend = 0, frame = 0
 823              		@ frame_needed = 0, uses_anonymous_args = 0
 119:../../Middlewares/LVGL/GUI/lvgl/src/widgets/menu/lv_menu.c ****     LV_LOG_INFO("begin");
 824              		.loc 1 119 1 is_stmt 0 view .LVU217
 825 0000 10B5     		push	{r4, lr}
 826              	.LCFI13:
 827              		.cfi_def_cfa_offset 8
ARM GAS  C:\Users\28576\AppData\Local\Temp\ccAP2L0b.s 			page 32


 828              		.cfi_offset 4, -8
 829              		.cfi_offset 14, -4
 830 0002 0146     		mov	r1, r0
 120:../../Middlewares/LVGL/GUI/lvgl/src/widgets/menu/lv_menu.c ****     lv_obj_t * obj = lv_obj_class_create_obj(MY_CLASS, parent);
 831              		.loc 1 120 5 is_stmt 1 view .LVU218
 120:../../Middlewares/LVGL/GUI/lvgl/src/widgets/menu/lv_menu.c ****     lv_obj_t * obj = lv_obj_class_create_obj(MY_CLASS, parent);
 832              		.loc 1 120 5 view .LVU219
 120:../../Middlewares/LVGL/GUI/lvgl/src/widgets/menu/lv_menu.c ****     lv_obj_t * obj = lv_obj_class_create_obj(MY_CLASS, parent);
 833              		.loc 1 120 5 view .LVU220
 121:../../Middlewares/LVGL/GUI/lvgl/src/widgets/menu/lv_menu.c ****     lv_obj_class_init_obj(obj);
 834              		.loc 1 121 5 view .LVU221
 121:../../Middlewares/LVGL/GUI/lvgl/src/widgets/menu/lv_menu.c ****     lv_obj_class_init_obj(obj);
 835              		.loc 1 121 22 is_stmt 0 view .LVU222
 836 0004 0348     		ldr	r0, .L40
 837              	.LVL100:
 121:../../Middlewares/LVGL/GUI/lvgl/src/widgets/menu/lv_menu.c ****     lv_obj_class_init_obj(obj);
 838              		.loc 1 121 22 view .LVU223
 839 0006 FFF7FEFF 		bl	lv_obj_class_create_obj
 840              	.LVL101:
 121:../../Middlewares/LVGL/GUI/lvgl/src/widgets/menu/lv_menu.c ****     lv_obj_class_init_obj(obj);
 841              		.loc 1 121 22 view .LVU224
 842 000a 0446     		mov	r4, r0
 843              	.LVL102:
 122:../../Middlewares/LVGL/GUI/lvgl/src/widgets/menu/lv_menu.c ****     return obj;
 844              		.loc 1 122 5 is_stmt 1 view .LVU225
 845 000c FFF7FEFF 		bl	lv_obj_class_init_obj
 846              	.LVL103:
 123:../../Middlewares/LVGL/GUI/lvgl/src/widgets/menu/lv_menu.c **** }
 847              		.loc 1 123 5 view .LVU226
 124:../../Middlewares/LVGL/GUI/lvgl/src/widgets/menu/lv_menu.c **** 
 848              		.loc 1 124 1 is_stmt 0 view .LVU227
 849 0010 2046     		mov	r0, r4
 850 0012 10BD     		pop	{r4, pc}
 851              	.LVL104:
 852              	.L41:
 124:../../Middlewares/LVGL/GUI/lvgl/src/widgets/menu/lv_menu.c **** 
 853              		.loc 1 124 1 view .LVU228
 854              		.align	2
 855              	.L40:
 856 0014 00000000 		.word	lv_menu_class
 857              		.cfi_endproc
 858              	.LFE172:
 860              		.section	.text.lv_menu_cont_create,"ax",%progbits
 861              		.align	1
 862              		.global	lv_menu_cont_create
 863              		.syntax unified
 864              		.thumb
 865              		.thumb_func
 867              	lv_menu_cont_create:
 868              	.LVL105:
 869              	.LFB174:
 144:../../Middlewares/LVGL/GUI/lvgl/src/widgets/menu/lv_menu.c ****     LV_ASSERT_OBJ(parent, &lv_menu_page_class);
 870              		.loc 1 144 1 is_stmt 1 view -0
 871              		.cfi_startproc
 872              		@ args = 0, pretend = 0, frame = 0
 873              		@ frame_needed = 0, uses_anonymous_args = 0
 145:../../Middlewares/LVGL/GUI/lvgl/src/widgets/menu/lv_menu.c **** 
ARM GAS  C:\Users\28576\AppData\Local\Temp\ccAP2L0b.s 			page 33


 874              		.loc 1 145 5 view .LVU230
 145:../../Middlewares/LVGL/GUI/lvgl/src/widgets/menu/lv_menu.c **** 
 875              		.loc 1 145 5 view .LVU231
 876 0000 48B1     		cbz	r0, .L44
 144:../../Middlewares/LVGL/GUI/lvgl/src/widgets/menu/lv_menu.c ****     LV_ASSERT_OBJ(parent, &lv_menu_page_class);
 877              		.loc 1 144 1 is_stmt 0 view .LVU232
 878 0002 10B5     		push	{r4, lr}
 879              	.LCFI14:
 880              		.cfi_def_cfa_offset 8
 881              		.cfi_offset 4, -8
 882              		.cfi_offset 14, -4
 883 0004 0146     		mov	r1, r0
 145:../../Middlewares/LVGL/GUI/lvgl/src/widgets/menu/lv_menu.c **** 
 884              		.loc 1 145 5 is_stmt 1 view .LVU233
 145:../../Middlewares/LVGL/GUI/lvgl/src/widgets/menu/lv_menu.c **** 
 885              		.loc 1 145 47 view .LVU234
 147:../../Middlewares/LVGL/GUI/lvgl/src/widgets/menu/lv_menu.c ****     lv_obj_t * obj = lv_obj_class_create_obj(&lv_menu_cont_class, parent);
 886              		.loc 1 147 5 view .LVU235
 147:../../Middlewares/LVGL/GUI/lvgl/src/widgets/menu/lv_menu.c ****     lv_obj_t * obj = lv_obj_class_create_obj(&lv_menu_cont_class, parent);
 887              		.loc 1 147 5 view .LVU236
 147:../../Middlewares/LVGL/GUI/lvgl/src/widgets/menu/lv_menu.c ****     lv_obj_t * obj = lv_obj_class_create_obj(&lv_menu_cont_class, parent);
 888              		.loc 1 147 5 view .LVU237
 148:../../Middlewares/LVGL/GUI/lvgl/src/widgets/menu/lv_menu.c ****     lv_obj_class_init_obj(obj);
 889              		.loc 1 148 5 view .LVU238
 148:../../Middlewares/LVGL/GUI/lvgl/src/widgets/menu/lv_menu.c ****     lv_obj_class_init_obj(obj);
 890              		.loc 1 148 22 is_stmt 0 view .LVU239
 891 0006 0448     		ldr	r0, .L47
 892              	.LVL106:
 148:../../Middlewares/LVGL/GUI/lvgl/src/widgets/menu/lv_menu.c ****     lv_obj_class_init_obj(obj);
 893              		.loc 1 148 22 view .LVU240
 894 0008 FFF7FEFF 		bl	lv_obj_class_create_obj
 895              	.LVL107:
 148:../../Middlewares/LVGL/GUI/lvgl/src/widgets/menu/lv_menu.c ****     lv_obj_class_init_obj(obj);
 896              		.loc 1 148 22 view .LVU241
 897 000c 0446     		mov	r4, r0
 898              	.LVL108:
 149:../../Middlewares/LVGL/GUI/lvgl/src/widgets/menu/lv_menu.c ****     return obj;
 899              		.loc 1 149 5 is_stmt 1 view .LVU242
 900 000e FFF7FEFF 		bl	lv_obj_class_init_obj
 901              	.LVL109:
 150:../../Middlewares/LVGL/GUI/lvgl/src/widgets/menu/lv_menu.c **** }
 902              		.loc 1 150 5 view .LVU243
 151:../../Middlewares/LVGL/GUI/lvgl/src/widgets/menu/lv_menu.c **** 
 903              		.loc 1 151 1 is_stmt 0 view .LVU244
 904 0012 2046     		mov	r0, r4
 905 0014 10BD     		pop	{r4, pc}
 906              	.LVL110:
 907              	.L44:
 908              	.LCFI15:
 909              		.cfi_def_cfa_offset 0
 910              		.cfi_restore 4
 911              		.cfi_restore 14
 145:../../Middlewares/LVGL/GUI/lvgl/src/widgets/menu/lv_menu.c **** 
 912              		.loc 1 145 5 is_stmt 1 view .LVU245
 145:../../Middlewares/LVGL/GUI/lvgl/src/widgets/menu/lv_menu.c **** 
 913              		.loc 1 145 5 view .LVU246
 145:../../Middlewares/LVGL/GUI/lvgl/src/widgets/menu/lv_menu.c **** 
ARM GAS  C:\Users\28576\AppData\Local\Temp\ccAP2L0b.s 			page 34


 914              		.loc 1 145 5 view .LVU247
 145:../../Middlewares/LVGL/GUI/lvgl/src/widgets/menu/lv_menu.c **** 
 915              		.loc 1 145 5 view .LVU248
 145:../../Middlewares/LVGL/GUI/lvgl/src/widgets/menu/lv_menu.c **** 
 916              		.loc 1 145 5 view .LVU249
 917 0016 FEE7     		b	.L44
 918              	.L48:
 919              		.align	2
 920              	.L47:
 921 0018 00000000 		.word	lv_menu_cont_class
 922              		.cfi_endproc
 923              	.LFE174:
 925              		.section	.text.lv_menu_section_create,"ax",%progbits
 926              		.align	1
 927              		.global	lv_menu_section_create
 928              		.syntax unified
 929              		.thumb
 930              		.thumb_func
 932              	lv_menu_section_create:
 933              	.LVL111:
 934              	.LFB175:
 154:../../Middlewares/LVGL/GUI/lvgl/src/widgets/menu/lv_menu.c ****     LV_ASSERT_OBJ(parent, &lv_menu_page_class);
 935              		.loc 1 154 1 view -0
 936              		.cfi_startproc
 937              		@ args = 0, pretend = 0, frame = 0
 938              		@ frame_needed = 0, uses_anonymous_args = 0
 155:../../Middlewares/LVGL/GUI/lvgl/src/widgets/menu/lv_menu.c **** 
 939              		.loc 1 155 5 view .LVU251
 155:../../Middlewares/LVGL/GUI/lvgl/src/widgets/menu/lv_menu.c **** 
 940              		.loc 1 155 5 view .LVU252
 941 0000 48B1     		cbz	r0, .L51
 154:../../Middlewares/LVGL/GUI/lvgl/src/widgets/menu/lv_menu.c ****     LV_ASSERT_OBJ(parent, &lv_menu_page_class);
 942              		.loc 1 154 1 is_stmt 0 view .LVU253
 943 0002 10B5     		push	{r4, lr}
 944              	.LCFI16:
 945              		.cfi_def_cfa_offset 8
 946              		.cfi_offset 4, -8
 947              		.cfi_offset 14, -4
 948 0004 0146     		mov	r1, r0
 155:../../Middlewares/LVGL/GUI/lvgl/src/widgets/menu/lv_menu.c **** 
 949              		.loc 1 155 5 is_stmt 1 view .LVU254
 155:../../Middlewares/LVGL/GUI/lvgl/src/widgets/menu/lv_menu.c **** 
 950              		.loc 1 155 47 view .LVU255
 157:../../Middlewares/LVGL/GUI/lvgl/src/widgets/menu/lv_menu.c ****     lv_obj_t * obj = lv_obj_class_create_obj(&lv_menu_section_class, parent);
 951              		.loc 1 157 5 view .LVU256
 157:../../Middlewares/LVGL/GUI/lvgl/src/widgets/menu/lv_menu.c ****     lv_obj_t * obj = lv_obj_class_create_obj(&lv_menu_section_class, parent);
 952              		.loc 1 157 5 view .LVU257
 157:../../Middlewares/LVGL/GUI/lvgl/src/widgets/menu/lv_menu.c ****     lv_obj_t * obj = lv_obj_class_create_obj(&lv_menu_section_class, parent);
 953              		.loc 1 157 5 view .LVU258
 158:../../Middlewares/LVGL/GUI/lvgl/src/widgets/menu/lv_menu.c ****     lv_obj_class_init_obj(obj);
 954              		.loc 1 158 5 view .LVU259
 158:../../Middlewares/LVGL/GUI/lvgl/src/widgets/menu/lv_menu.c ****     lv_obj_class_init_obj(obj);
 955              		.loc 1 158 22 is_stmt 0 view .LVU260
 956 0006 0448     		ldr	r0, .L54
 957              	.LVL112:
 158:../../Middlewares/LVGL/GUI/lvgl/src/widgets/menu/lv_menu.c ****     lv_obj_class_init_obj(obj);
 958              		.loc 1 158 22 view .LVU261
ARM GAS  C:\Users\28576\AppData\Local\Temp\ccAP2L0b.s 			page 35


 959 0008 FFF7FEFF 		bl	lv_obj_class_create_obj
 960              	.LVL113:
 158:../../Middlewares/LVGL/GUI/lvgl/src/widgets/menu/lv_menu.c ****     lv_obj_class_init_obj(obj);
 961              		.loc 1 158 22 view .LVU262
 962 000c 0446     		mov	r4, r0
 963              	.LVL114:
 159:../../Middlewares/LVGL/GUI/lvgl/src/widgets/menu/lv_menu.c ****     return obj;
 964              		.loc 1 159 5 is_stmt 1 view .LVU263
 965 000e FFF7FEFF 		bl	lv_obj_class_init_obj
 966              	.LVL115:
 160:../../Middlewares/LVGL/GUI/lvgl/src/widgets/menu/lv_menu.c **** }
 967              		.loc 1 160 5 view .LVU264
 161:../../Middlewares/LVGL/GUI/lvgl/src/widgets/menu/lv_menu.c **** 
 968              		.loc 1 161 1 is_stmt 0 view .LVU265
 969 0012 2046     		mov	r0, r4
 970 0014 10BD     		pop	{r4, pc}
 971              	.LVL116:
 972              	.L51:
 973              	.LCFI17:
 974              		.cfi_def_cfa_offset 0
 975              		.cfi_restore 4
 976              		.cfi_restore 14
 155:../../Middlewares/LVGL/GUI/lvgl/src/widgets/menu/lv_menu.c **** 
 977              		.loc 1 155 5 is_stmt 1 view .LVU266
 155:../../Middlewares/LVGL/GUI/lvgl/src/widgets/menu/lv_menu.c **** 
 978              		.loc 1 155 5 view .LVU267
 155:../../Middlewares/LVGL/GUI/lvgl/src/widgets/menu/lv_menu.c **** 
 979              		.loc 1 155 5 view .LVU268
 155:../../Middlewares/LVGL/GUI/lvgl/src/widgets/menu/lv_menu.c **** 
 980              		.loc 1 155 5 view .LVU269
 155:../../Middlewares/LVGL/GUI/lvgl/src/widgets/menu/lv_menu.c **** 
 981              		.loc 1 155 5 view .LVU270
 982 0016 FEE7     		b	.L51
 983              	.L55:
 984              		.align	2
 985              	.L54:
 986 0018 00000000 		.word	lv_menu_section_class
 987              		.cfi_endproc
 988              	.LFE175:
 990              		.section	.text.lv_menu_separator_create,"ax",%progbits
 991              		.align	1
 992              		.global	lv_menu_separator_create
 993              		.syntax unified
 994              		.thumb
 995              		.thumb_func
 997              	lv_menu_separator_create:
 998              	.LVL117:
 999              	.LFB176:
 164:../../Middlewares/LVGL/GUI/lvgl/src/widgets/menu/lv_menu.c ****     LV_ASSERT_OBJ(parent, &lv_menu_page_class);
 1000              		.loc 1 164 1 view -0
 1001              		.cfi_startproc
 1002              		@ args = 0, pretend = 0, frame = 0
 1003              		@ frame_needed = 0, uses_anonymous_args = 0
 165:../../Middlewares/LVGL/GUI/lvgl/src/widgets/menu/lv_menu.c **** 
 1004              		.loc 1 165 5 view .LVU272
 165:../../Middlewares/LVGL/GUI/lvgl/src/widgets/menu/lv_menu.c **** 
 1005              		.loc 1 165 5 view .LVU273
ARM GAS  C:\Users\28576\AppData\Local\Temp\ccAP2L0b.s 			page 36


 1006 0000 48B1     		cbz	r0, .L58
 164:../../Middlewares/LVGL/GUI/lvgl/src/widgets/menu/lv_menu.c ****     LV_ASSERT_OBJ(parent, &lv_menu_page_class);
 1007              		.loc 1 164 1 is_stmt 0 view .LVU274
 1008 0002 10B5     		push	{r4, lr}
 1009              	.LCFI18:
 1010              		.cfi_def_cfa_offset 8
 1011              		.cfi_offset 4, -8
 1012              		.cfi_offset 14, -4
 1013 0004 0146     		mov	r1, r0
 165:../../Middlewares/LVGL/GUI/lvgl/src/widgets/menu/lv_menu.c **** 
 1014              		.loc 1 165 5 is_stmt 1 view .LVU275
 165:../../Middlewares/LVGL/GUI/lvgl/src/widgets/menu/lv_menu.c **** 
 1015              		.loc 1 165 47 view .LVU276
 167:../../Middlewares/LVGL/GUI/lvgl/src/widgets/menu/lv_menu.c ****     lv_obj_t * obj = lv_obj_class_create_obj(&lv_menu_separator_class, parent);
 1016              		.loc 1 167 5 view .LVU277
 167:../../Middlewares/LVGL/GUI/lvgl/src/widgets/menu/lv_menu.c ****     lv_obj_t * obj = lv_obj_class_create_obj(&lv_menu_separator_class, parent);
 1017              		.loc 1 167 5 view .LVU278
 167:../../Middlewares/LVGL/GUI/lvgl/src/widgets/menu/lv_menu.c ****     lv_obj_t * obj = lv_obj_class_create_obj(&lv_menu_separator_class, parent);
 1018              		.loc 1 167 5 view .LVU279
 168:../../Middlewares/LVGL/GUI/lvgl/src/widgets/menu/lv_menu.c ****     lv_obj_class_init_obj(obj);
 1019              		.loc 1 168 5 view .LVU280
 168:../../Middlewares/LVGL/GUI/lvgl/src/widgets/menu/lv_menu.c ****     lv_obj_class_init_obj(obj);
 1020              		.loc 1 168 22 is_stmt 0 view .LVU281
 1021 0006 0448     		ldr	r0, .L61
 1022              	.LVL118:
 168:../../Middlewares/LVGL/GUI/lvgl/src/widgets/menu/lv_menu.c ****     lv_obj_class_init_obj(obj);
 1023              		.loc 1 168 22 view .LVU282
 1024 0008 FFF7FEFF 		bl	lv_obj_class_create_obj
 1025              	.LVL119:
 168:../../Middlewares/LVGL/GUI/lvgl/src/widgets/menu/lv_menu.c ****     lv_obj_class_init_obj(obj);
 1026              		.loc 1 168 22 view .LVU283
 1027 000c 0446     		mov	r4, r0
 1028              	.LVL120:
 169:../../Middlewares/LVGL/GUI/lvgl/src/widgets/menu/lv_menu.c ****     return obj;
 1029              		.loc 1 169 5 is_stmt 1 view .LVU284
 1030 000e FFF7FEFF 		bl	lv_obj_class_init_obj
 1031              	.LVL121:
 170:../../Middlewares/LVGL/GUI/lvgl/src/widgets/menu/lv_menu.c **** }
 1032              		.loc 1 170 5 view .LVU285
 171:../../Middlewares/LVGL/GUI/lvgl/src/widgets/menu/lv_menu.c **** 
 1033              		.loc 1 171 1 is_stmt 0 view .LVU286
 1034 0012 2046     		mov	r0, r4
 1035 0014 10BD     		pop	{r4, pc}
 1036              	.LVL122:
 1037              	.L58:
 1038              	.LCFI19:
 1039              		.cfi_def_cfa_offset 0
 1040              		.cfi_restore 4
 1041              		.cfi_restore 14
 165:../../Middlewares/LVGL/GUI/lvgl/src/widgets/menu/lv_menu.c **** 
 1042              		.loc 1 165 5 is_stmt 1 view .LVU287
 165:../../Middlewares/LVGL/GUI/lvgl/src/widgets/menu/lv_menu.c **** 
 1043              		.loc 1 165 5 view .LVU288
 165:../../Middlewares/LVGL/GUI/lvgl/src/widgets/menu/lv_menu.c **** 
 1044              		.loc 1 165 5 view .LVU289
 165:../../Middlewares/LVGL/GUI/lvgl/src/widgets/menu/lv_menu.c **** 
 1045              		.loc 1 165 5 view .LVU290
ARM GAS  C:\Users\28576\AppData\Local\Temp\ccAP2L0b.s 			page 37


 165:../../Middlewares/LVGL/GUI/lvgl/src/widgets/menu/lv_menu.c **** 
 1046              		.loc 1 165 5 view .LVU291
 1047 0016 FEE7     		b	.L58
 1048              	.L62:
 1049              		.align	2
 1050              	.L61:
 1051 0018 00000000 		.word	lv_menu_separator_class
 1052              		.cfi_endproc
 1053              	.LFE176:
 1055              		.section	.text.lv_menu_set_mode_header,"ax",%progbits
 1056              		.align	1
 1057              		.global	lv_menu_set_mode_header
 1058              		.syntax unified
 1059              		.thumb
 1060              		.thumb_func
 1062              	lv_menu_set_mode_header:
 1063              	.LVL123:
 1064              	.LFB180:
 345:../../Middlewares/LVGL/GUI/lvgl/src/widgets/menu/lv_menu.c ****     LV_ASSERT_OBJ(obj, MY_CLASS);
 1065              		.loc 1 345 1 view -0
 1066              		.cfi_startproc
 1067              		@ args = 0, pretend = 0, frame = 0
 1068              		@ frame_needed = 0, uses_anonymous_args = 0
 346:../../Middlewares/LVGL/GUI/lvgl/src/widgets/menu/lv_menu.c **** 
 1069              		.loc 1 346 5 view .LVU293
 346:../../Middlewares/LVGL/GUI/lvgl/src/widgets/menu/lv_menu.c **** 
 1070              		.loc 1 346 5 view .LVU294
 1071 0000 40B1     		cbz	r0, .L65
 345:../../Middlewares/LVGL/GUI/lvgl/src/widgets/menu/lv_menu.c ****     LV_ASSERT_OBJ(obj, MY_CLASS);
 1072              		.loc 1 345 1 is_stmt 0 view .LVU295
 1073 0002 10B5     		push	{r4, lr}
 1074              	.LCFI20:
 1075              		.cfi_def_cfa_offset 8
 1076              		.cfi_offset 4, -8
 1077              		.cfi_offset 14, -4
 1078 0004 0446     		mov	r4, r0
 346:../../Middlewares/LVGL/GUI/lvgl/src/widgets/menu/lv_menu.c **** 
 1079              		.loc 1 346 5 is_stmt 1 view .LVU296
 346:../../Middlewares/LVGL/GUI/lvgl/src/widgets/menu/lv_menu.c **** 
 1080              		.loc 1 346 33 view .LVU297
 348:../../Middlewares/LVGL/GUI/lvgl/src/widgets/menu/lv_menu.c **** 
 1081              		.loc 1 348 5 view .LVU298
 1082              	.LVL124:
 350:../../Middlewares/LVGL/GUI/lvgl/src/widgets/menu/lv_menu.c ****         menu->mode_header = mode;
 1083              		.loc 1 350 5 view .LVU299
 350:../../Middlewares/LVGL/GUI/lvgl/src/widgets/menu/lv_menu.c ****         menu->mode_header = mode;
 1084              		.loc 1 350 12 is_stmt 0 view .LVU300
 1085 0006 90F86A30 		ldrb	r3, [r0, #106]	@ zero_extendqisi2
 1086 000a C3F34203 		ubfx	r3, r3, #1, #3
 350:../../Middlewares/LVGL/GUI/lvgl/src/widgets/menu/lv_menu.c ****         menu->mode_header = mode;
 1087              		.loc 1 350 7 view .LVU301
 1088 000e 8B42     		cmp	r3, r1
 1089 0010 01D1     		bne	.L69
 1090              	.LVL125:
 1091              	.L63:
 355:../../Middlewares/LVGL/GUI/lvgl/src/widgets/menu/lv_menu.c **** 
 1092              		.loc 1 355 1 view .LVU302
ARM GAS  C:\Users\28576\AppData\Local\Temp\ccAP2L0b.s 			page 38


 1093 0012 10BD     		pop	{r4, pc}
 1094              	.LVL126:
 1095              	.L65:
 1096              	.LCFI21:
 1097              		.cfi_def_cfa_offset 0
 1098              		.cfi_restore 4
 1099              		.cfi_restore 14
 346:../../Middlewares/LVGL/GUI/lvgl/src/widgets/menu/lv_menu.c **** 
 1100              		.loc 1 346 5 is_stmt 1 view .LVU303
 346:../../Middlewares/LVGL/GUI/lvgl/src/widgets/menu/lv_menu.c **** 
 1101              		.loc 1 346 5 view .LVU304
 346:../../Middlewares/LVGL/GUI/lvgl/src/widgets/menu/lv_menu.c **** 
 1102              		.loc 1 346 5 view .LVU305
 346:../../Middlewares/LVGL/GUI/lvgl/src/widgets/menu/lv_menu.c **** 
 1103              		.loc 1 346 5 view .LVU306
 346:../../Middlewares/LVGL/GUI/lvgl/src/widgets/menu/lv_menu.c **** 
 1104              		.loc 1 346 5 view .LVU307
 1105 0014 FEE7     		b	.L65
 1106              	.LVL127:
 1107              	.L69:
 1108              	.LCFI22:
 1109              		.cfi_def_cfa_offset 8
 1110              		.cfi_offset 4, -8
 1111              		.cfi_offset 14, -4
 351:../../Middlewares/LVGL/GUI/lvgl/src/widgets/menu/lv_menu.c ****         lv_menu_refr_main_header_mode(obj);
 1112              		.loc 1 351 9 view .LVU308
 351:../../Middlewares/LVGL/GUI/lvgl/src/widgets/menu/lv_menu.c ****         lv_menu_refr_main_header_mode(obj);
 1113              		.loc 1 351 27 is_stmt 0 view .LVU309
 1114 0016 90F86A30 		ldrb	r3, [r0, #106]	@ zero_extendqisi2
 1115 001a 61F34303 		bfi	r3, r1, #1, #3
 1116 001e 80F86A30 		strb	r3, [r0, #106]
 352:../../Middlewares/LVGL/GUI/lvgl/src/widgets/menu/lv_menu.c ****         if(menu->sidebar_generated) lv_menu_refr_sidebar_header_mode(obj);
 1117              		.loc 1 352 9 is_stmt 1 view .LVU310
 1118 0022 FFF7FEFF 		bl	lv_menu_refr_main_header_mode
 1119              	.LVL128:
 353:../../Middlewares/LVGL/GUI/lvgl/src/widgets/menu/lv_menu.c ****     }
 1120              		.loc 1 353 9 view .LVU311
 353:../../Middlewares/LVGL/GUI/lvgl/src/widgets/menu/lv_menu.c ****     }
 1121              		.loc 1 353 12 is_stmt 0 view .LVU312
 1122 0026 94F86A30 		ldrb	r3, [r4, #106]	@ zero_extendqisi2
 353:../../Middlewares/LVGL/GUI/lvgl/src/widgets/menu/lv_menu.c ****     }
 1123              		.loc 1 353 11 view .LVU313
 1124 002a 13F0010F 		tst	r3, #1
 1125 002e F0D0     		beq	.L63
 353:../../Middlewares/LVGL/GUI/lvgl/src/widgets/menu/lv_menu.c ****     }
 1126              		.loc 1 353 37 is_stmt 1 discriminator 1 view .LVU314
 1127 0030 2046     		mov	r0, r4
 1128 0032 FFF7FEFF 		bl	lv_menu_refr_sidebar_header_mode
 1129              	.LVL129:
 355:../../Middlewares/LVGL/GUI/lvgl/src/widgets/menu/lv_menu.c **** 
 1130              		.loc 1 355 1 is_stmt 0 view .LVU315
 1131 0036 ECE7     		b	.L63
 1132              		.cfi_endproc
 1133              	.LFE180:
 1135              		.section	.text.lv_menu_set_load_page_event,"ax",%progbits
 1136              		.align	1
 1137              		.global	lv_menu_set_load_page_event
ARM GAS  C:\Users\28576\AppData\Local\Temp\ccAP2L0b.s 			page 39


 1138              		.syntax unified
 1139              		.thumb
 1140              		.thumb_func
 1142              	lv_menu_set_load_page_event:
 1143              	.LVL130:
 1144              	.LFB182:
 370:../../Middlewares/LVGL/GUI/lvgl/src/widgets/menu/lv_menu.c ****     LV_ASSERT_OBJ(menu, MY_CLASS);
 1145              		.loc 1 370 1 is_stmt 1 view -0
 1146              		.cfi_startproc
 1147              		@ args = 0, pretend = 0, frame = 0
 1148              		@ frame_needed = 0, uses_anonymous_args = 0
 371:../../Middlewares/LVGL/GUI/lvgl/src/widgets/menu/lv_menu.c **** 
 1149              		.loc 1 371 5 view .LVU317
 371:../../Middlewares/LVGL/GUI/lvgl/src/widgets/menu/lv_menu.c **** 
 1150              		.loc 1 371 5 view .LVU318
 1151 0000 18B3     		cbz	r0, .L72
 370:../../Middlewares/LVGL/GUI/lvgl/src/widgets/menu/lv_menu.c ****     LV_ASSERT_OBJ(menu, MY_CLASS);
 1152              		.loc 1 370 1 is_stmt 0 view .LVU319
 1153 0002 2DE9F041 		push	{r4, r5, r6, r7, r8, lr}
 1154              	.LCFI23:
 1155              		.cfi_def_cfa_offset 24
 1156              		.cfi_offset 4, -24
 1157              		.cfi_offset 5, -20
 1158              		.cfi_offset 6, -16
 1159              		.cfi_offset 7, -12
 1160              		.cfi_offset 8, -8
 1161              		.cfi_offset 14, -4
 1162 0006 0D46     		mov	r5, r1
 1163 0008 9046     		mov	r8, r2
 1164 000a 0746     		mov	r7, r0
 371:../../Middlewares/LVGL/GUI/lvgl/src/widgets/menu/lv_menu.c **** 
 1165              		.loc 1 371 5 is_stmt 1 view .LVU320
 371:../../Middlewares/LVGL/GUI/lvgl/src/widgets/menu/lv_menu.c **** 
 1166              		.loc 1 371 34 view .LVU321
 373:../../Middlewares/LVGL/GUI/lvgl/src/widgets/menu/lv_menu.c ****     lv_obj_remove_flag(obj, LV_OBJ_FLAG_SCROLLABLE);
 1167              		.loc 1 373 5 view .LVU322
 1168 000c 0221     		movs	r1, #2
 1169              	.LVL131:
 373:../../Middlewares/LVGL/GUI/lvgl/src/widgets/menu/lv_menu.c ****     lv_obj_remove_flag(obj, LV_OBJ_FLAG_SCROLLABLE);
 1170              		.loc 1 373 5 is_stmt 0 view .LVU323
 1171 000e 2846     		mov	r0, r5
 1172              	.LVL132:
 373:../../Middlewares/LVGL/GUI/lvgl/src/widgets/menu/lv_menu.c ****     lv_obj_remove_flag(obj, LV_OBJ_FLAG_SCROLLABLE);
 1173              		.loc 1 373 5 view .LVU324
 1174 0010 FFF7FEFF 		bl	lv_obj_add_flag
 1175              	.LVL133:
 374:../../Middlewares/LVGL/GUI/lvgl/src/widgets/menu/lv_menu.c ****     lv_obj_add_flag(obj, LV_OBJ_FLAG_SCROLL_ON_FOCUS);
 1176              		.loc 1 374 5 is_stmt 1 view .LVU325
 1177 0014 1021     		movs	r1, #16
 1178 0016 2846     		mov	r0, r5
 1179 0018 FFF7FEFF 		bl	lv_obj_remove_flag
 1180              	.LVL134:
 375:../../Middlewares/LVGL/GUI/lvgl/src/widgets/menu/lv_menu.c **** 
 1181              		.loc 1 375 5 view .LVU326
 1182 001c 4FF48061 		mov	r1, #1024
 1183 0020 2846     		mov	r0, r5
 1184 0022 FFF7FEFF 		bl	lv_obj_add_flag
ARM GAS  C:\Users\28576\AppData\Local\Temp\ccAP2L0b.s 			page 40


 1185              	.LVL135:
 378:../../Middlewares/LVGL/GUI/lvgl/src/widgets/menu/lv_menu.c ****     uint32_t event_cnt = lv_obj_get_event_count(obj);
 1186              		.loc 1 378 5 view .LVU327
 379:../../Middlewares/LVGL/GUI/lvgl/src/widgets/menu/lv_menu.c ****     for(i = 0; i < event_cnt; i++) {
 1187              		.loc 1 379 5 view .LVU328
 379:../../Middlewares/LVGL/GUI/lvgl/src/widgets/menu/lv_menu.c ****     for(i = 0; i < event_cnt; i++) {
 1188              		.loc 1 379 26 is_stmt 0 view .LVU329
 1189 0026 2846     		mov	r0, r5
 1190 0028 FFF7FEFF 		bl	lv_obj_get_event_count
 1191              	.LVL136:
 1192 002c 0646     		mov	r6, r0
 1193              	.LVL137:
 380:../../Middlewares/LVGL/GUI/lvgl/src/widgets/menu/lv_menu.c ****         lv_event_dsc_t * event_dsc = lv_obj_get_event_dsc(obj, i);
 1194              		.loc 1 380 5 is_stmt 1 view .LVU330
 380:../../Middlewares/LVGL/GUI/lvgl/src/widgets/menu/lv_menu.c ****         lv_event_dsc_t * event_dsc = lv_obj_get_event_dsc(obj, i);
 1195              		.loc 1 380 11 is_stmt 0 view .LVU331
 1196 002e 0024     		movs	r4, #0
 1197              	.LVL138:
 1198              	.L73:
 380:../../Middlewares/LVGL/GUI/lvgl/src/widgets/menu/lv_menu.c ****         lv_event_dsc_t * event_dsc = lv_obj_get_event_dsc(obj, i);
 1199              		.loc 1 380 18 is_stmt 1 discriminator 1 view .LVU332
 1200 0030 B442     		cmp	r4, r6
 1201 0032 14D2     		bcs	.L75
 1202              	.LBB2:
 381:../../Middlewares/LVGL/GUI/lvgl/src/widgets/menu/lv_menu.c ****         if(lv_event_dsc_get_cb(event_dsc) == lv_menu_load_page_event_cb) {
 1203              		.loc 1 381 9 view .LVU333
 381:../../Middlewares/LVGL/GUI/lvgl/src/widgets/menu/lv_menu.c ****         if(lv_event_dsc_get_cb(event_dsc) == lv_menu_load_page_event_cb) {
 1204              		.loc 1 381 38 is_stmt 0 view .LVU334
 1205 0034 2146     		mov	r1, r4
 1206 0036 2846     		mov	r0, r5
 1207 0038 FFF7FEFF 		bl	lv_obj_get_event_dsc
 1208              	.LVL139:
 382:../../Middlewares/LVGL/GUI/lvgl/src/widgets/menu/lv_menu.c ****             lv_obj_send_event(obj, LV_EVENT_DELETE, NULL);
 1209              		.loc 1 382 9 is_stmt 1 view .LVU335
 382:../../Middlewares/LVGL/GUI/lvgl/src/widgets/menu/lv_menu.c ****             lv_obj_send_event(obj, LV_EVENT_DELETE, NULL);
 1210              		.loc 1 382 12 is_stmt 0 view .LVU336
 1211 003c FFF7FEFF 		bl	lv_event_dsc_get_cb
 1212              	.LVL140:
 382:../../Middlewares/LVGL/GUI/lvgl/src/widgets/menu/lv_menu.c ****             lv_obj_send_event(obj, LV_EVENT_DELETE, NULL);
 1213              		.loc 1 382 11 discriminator 1 view .LVU337
 1214 0040 114B     		ldr	r3, .L80
 1215 0042 9842     		cmp	r0, r3
 1216 0044 02D0     		beq	.L79
 1217              	.LBE2:
 380:../../Middlewares/LVGL/GUI/lvgl/src/widgets/menu/lv_menu.c ****         lv_event_dsc_t * event_dsc = lv_obj_get_event_dsc(obj, i);
 1218              		.loc 1 380 32 is_stmt 1 discriminator 2 view .LVU338
 1219 0046 0134     		adds	r4, r4, #1
 1220              	.LVL141:
 380:../../Middlewares/LVGL/GUI/lvgl/src/widgets/menu/lv_menu.c ****         lv_event_dsc_t * event_dsc = lv_obj_get_event_dsc(obj, i);
 1221              		.loc 1 380 32 is_stmt 0 discriminator 2 view .LVU339
 1222 0048 F2E7     		b	.L73
 1223              	.LVL142:
 1224              	.L72:
 1225              	.LCFI24:
 1226              		.cfi_def_cfa_offset 0
 1227              		.cfi_restore 4
 1228              		.cfi_restore 5
ARM GAS  C:\Users\28576\AppData\Local\Temp\ccAP2L0b.s 			page 41


 1229              		.cfi_restore 6
 1230              		.cfi_restore 7
 1231              		.cfi_restore 8
 1232              		.cfi_restore 14
 371:../../Middlewares/LVGL/GUI/lvgl/src/widgets/menu/lv_menu.c **** 
 1233              		.loc 1 371 5 is_stmt 1 view .LVU340
 371:../../Middlewares/LVGL/GUI/lvgl/src/widgets/menu/lv_menu.c **** 
 1234              		.loc 1 371 5 view .LVU341
 371:../../Middlewares/LVGL/GUI/lvgl/src/widgets/menu/lv_menu.c **** 
 1235              		.loc 1 371 5 view .LVU342
 371:../../Middlewares/LVGL/GUI/lvgl/src/widgets/menu/lv_menu.c **** 
 1236              		.loc 1 371 5 view .LVU343
 371:../../Middlewares/LVGL/GUI/lvgl/src/widgets/menu/lv_menu.c **** 
 1237              		.loc 1 371 5 view .LVU344
 1238 004a FEE7     		b	.L72
 1239              	.LVL143:
 1240              	.L79:
 1241              	.LCFI25:
 1242              		.cfi_def_cfa_offset 24
 1243              		.cfi_offset 4, -24
 1244              		.cfi_offset 5, -20
 1245              		.cfi_offset 6, -16
 1246              		.cfi_offset 7, -12
 1247              		.cfi_offset 8, -8
 1248              		.cfi_offset 14, -4
 1249              	.LBB3:
 383:../../Middlewares/LVGL/GUI/lvgl/src/widgets/menu/lv_menu.c ****             lv_obj_remove_event(obj, i);
 1250              		.loc 1 383 13 view .LVU345
 1251 004c 0022     		movs	r2, #0
 1252 004e 2921     		movs	r1, #41
 1253 0050 2846     		mov	r0, r5
 1254 0052 FFF7FEFF 		bl	lv_obj_send_event
 1255              	.LVL144:
 384:../../Middlewares/LVGL/GUI/lvgl/src/widgets/menu/lv_menu.c ****             break;
 1256              		.loc 1 384 13 view .LVU346
 1257 0056 2146     		mov	r1, r4
 1258 0058 2846     		mov	r0, r5
 1259 005a FFF7FEFF 		bl	lv_obj_remove_event
 1260              	.LVL145:
 385:../../Middlewares/LVGL/GUI/lvgl/src/widgets/menu/lv_menu.c ****         }
 1261              		.loc 1 385 13 view .LVU347
 1262              	.L75:
 385:../../Middlewares/LVGL/GUI/lvgl/src/widgets/menu/lv_menu.c ****         }
 1263              		.loc 1 385 13 is_stmt 0 view .LVU348
 1264              	.LBE3:
 389:../../Middlewares/LVGL/GUI/lvgl/src/widgets/menu/lv_menu.c ****     event_data->menu = menu;
 1265              		.loc 1 389 5 is_stmt 1 view .LVU349
 389:../../Middlewares/LVGL/GUI/lvgl/src/widgets/menu/lv_menu.c ****     event_data->menu = menu;
 1266              		.loc 1 389 51 is_stmt 0 view .LVU350
 1267 005e 0820     		movs	r0, #8
 1268 0060 FFF7FEFF 		bl	lv_malloc
 1269              	.LVL146:
 1270 0064 0446     		mov	r4, r0
 1271              	.LVL147:
 390:../../Middlewares/LVGL/GUI/lvgl/src/widgets/menu/lv_menu.c ****     event_data->page = page;
 1272              		.loc 1 390 5 is_stmt 1 view .LVU351
 390:../../Middlewares/LVGL/GUI/lvgl/src/widgets/menu/lv_menu.c ****     event_data->page = page;
ARM GAS  C:\Users\28576\AppData\Local\Temp\ccAP2L0b.s 			page 42


 1273              		.loc 1 390 22 is_stmt 0 view .LVU352
 1274 0066 0760     		str	r7, [r0]
 391:../../Middlewares/LVGL/GUI/lvgl/src/widgets/menu/lv_menu.c **** 
 1275              		.loc 1 391 5 is_stmt 1 view .LVU353
 391:../../Middlewares/LVGL/GUI/lvgl/src/widgets/menu/lv_menu.c **** 
 1276              		.loc 1 391 22 is_stmt 0 view .LVU354
 1277 0068 C0F80480 		str	r8, [r0, #4]
 393:../../Middlewares/LVGL/GUI/lvgl/src/widgets/menu/lv_menu.c ****     lv_obj_add_event_cb(obj, lv_menu_obj_delete_event_cb, LV_EVENT_DELETE, event_data);
 1278              		.loc 1 393 5 is_stmt 1 view .LVU355
 1279 006c 0346     		mov	r3, r0
 1280 006e 0A22     		movs	r2, #10
 1281 0070 0549     		ldr	r1, .L80
 1282 0072 2846     		mov	r0, r5
 1283              	.LVL148:
 393:../../Middlewares/LVGL/GUI/lvgl/src/widgets/menu/lv_menu.c ****     lv_obj_add_event_cb(obj, lv_menu_obj_delete_event_cb, LV_EVENT_DELETE, event_data);
 1284              		.loc 1 393 5 is_stmt 0 view .LVU356
 1285 0074 FFF7FEFF 		bl	lv_obj_add_event_cb
 1286              	.LVL149:
 394:../../Middlewares/LVGL/GUI/lvgl/src/widgets/menu/lv_menu.c **** }
 1287              		.loc 1 394 5 is_stmt 1 view .LVU357
 1288 0078 2346     		mov	r3, r4
 1289 007a 2922     		movs	r2, #41
 1290 007c 0349     		ldr	r1, .L80+4
 1291 007e 2846     		mov	r0, r5
 1292 0080 FFF7FEFF 		bl	lv_obj_add_event_cb
 1293              	.LVL150:
 395:../../Middlewares/LVGL/GUI/lvgl/src/widgets/menu/lv_menu.c **** 
 1294              		.loc 1 395 1 is_stmt 0 view .LVU358
 1295 0084 BDE8F081 		pop	{r4, r5, r6, r7, r8, pc}
 1296              	.LVL151:
 1297              	.L81:
 395:../../Middlewares/LVGL/GUI/lvgl/src/widgets/menu/lv_menu.c **** 
 1298              		.loc 1 395 1 view .LVU359
 1299              		.align	2
 1300              	.L80:
 1301 0088 00000000 		.word	lv_menu_load_page_event_cb
 1302 008c 00000000 		.word	lv_menu_obj_delete_event_cb
 1303              		.cfi_endproc
 1304              	.LFE182:
 1306              		.section	.text.lv_menu_set_page_title,"ax",%progbits
 1307              		.align	1
 1308              		.global	lv_menu_set_page_title
 1309              		.syntax unified
 1310              		.thumb
 1311              		.thumb_func
 1313              	lv_menu_set_page_title:
 1314              	.LVL152:
 1315              	.LFB183:
 398:../../Middlewares/LVGL/GUI/lvgl/src/widgets/menu/lv_menu.c ****     LV_ASSERT_OBJ(page_obj, &lv_menu_page_class);
 1316              		.loc 1 398 1 is_stmt 1 view -0
 1317              		.cfi_startproc
 1318              		@ args = 0, pretend = 0, frame = 0
 1319              		@ frame_needed = 0, uses_anonymous_args = 0
 399:../../Middlewares/LVGL/GUI/lvgl/src/widgets/menu/lv_menu.c **** 
 1320              		.loc 1 399 5 view .LVU361
 399:../../Middlewares/LVGL/GUI/lvgl/src/widgets/menu/lv_menu.c **** 
 1321              		.loc 1 399 5 view .LVU362
ARM GAS  C:\Users\28576\AppData\Local\Temp\ccAP2L0b.s 			page 43


 1322 0000 A8B1     		cbz	r0, .L84
 398:../../Middlewares/LVGL/GUI/lvgl/src/widgets/menu/lv_menu.c ****     LV_ASSERT_OBJ(page_obj, &lv_menu_page_class);
 1323              		.loc 1 398 1 is_stmt 0 view .LVU363
 1324 0002 38B5     		push	{r3, r4, r5, lr}
 1325              	.LCFI26:
 1326              		.cfi_def_cfa_offset 16
 1327              		.cfi_offset 3, -16
 1328              		.cfi_offset 4, -12
 1329              		.cfi_offset 5, -8
 1330              		.cfi_offset 14, -4
 1331 0004 0D46     		mov	r5, r1
 1332 0006 0446     		mov	r4, r0
 399:../../Middlewares/LVGL/GUI/lvgl/src/widgets/menu/lv_menu.c **** 
 1333              		.loc 1 399 5 is_stmt 1 view .LVU364
 399:../../Middlewares/LVGL/GUI/lvgl/src/widgets/menu/lv_menu.c **** 
 1334              		.loc 1 399 49 view .LVU365
 401:../../Middlewares/LVGL/GUI/lvgl/src/widgets/menu/lv_menu.c ****     lv_menu_page_t * page = (lv_menu_page_t *)page_obj;
 1335              		.loc 1 401 5 view .LVU366
 401:../../Middlewares/LVGL/GUI/lvgl/src/widgets/menu/lv_menu.c ****     lv_menu_page_t * page = (lv_menu_page_t *)page_obj;
 1336              		.loc 1 401 5 view .LVU367
 401:../../Middlewares/LVGL/GUI/lvgl/src/widgets/menu/lv_menu.c ****     lv_menu_page_t * page = (lv_menu_page_t *)page_obj;
 1337              		.loc 1 401 5 view .LVU368
 402:../../Middlewares/LVGL/GUI/lvgl/src/widgets/menu/lv_menu.c **** 
 1338              		.loc 1 402 5 view .LVU369
 1339              	.LVL153:
 405:../../Middlewares/LVGL/GUI/lvgl/src/widgets/menu/lv_menu.c ****         lv_free(page->title);
 1340              		.loc 1 405 5 view .LVU370
 405:../../Middlewares/LVGL/GUI/lvgl/src/widgets/menu/lv_menu.c ****         lv_free(page->title);
 1341              		.loc 1 405 14 is_stmt 0 view .LVU371
 1342 0008 90F83030 		ldrb	r3, [r0, #48]	@ zero_extendqisi2
 405:../../Middlewares/LVGL/GUI/lvgl/src/widgets/menu/lv_menu.c ****         lv_free(page->title);
 1343              		.loc 1 405 7 view .LVU372
 1344 000c 2BB9     		cbnz	r3, .L85
 405:../../Middlewares/LVGL/GUI/lvgl/src/widgets/menu/lv_menu.c ****         lv_free(page->title);
 1345              		.loc 1 405 37 discriminator 1 view .LVU373
 1346 000e C06A     		ldr	r0, [r0, #44]
 1347              	.LVL154:
 405:../../Middlewares/LVGL/GUI/lvgl/src/widgets/menu/lv_menu.c ****         lv_free(page->title);
 1348              		.loc 1 405 30 discriminator 1 view .LVU374
 1349 0010 18B1     		cbz	r0, .L85
 406:../../Middlewares/LVGL/GUI/lvgl/src/widgets/menu/lv_menu.c ****         page->title = NULL;
 1350              		.loc 1 406 9 is_stmt 1 view .LVU375
 1351 0012 FFF7FEFF 		bl	lv_free
 1352              	.LVL155:
 407:../../Middlewares/LVGL/GUI/lvgl/src/widgets/menu/lv_menu.c ****     }
 1353              		.loc 1 407 9 view .LVU376
 407:../../Middlewares/LVGL/GUI/lvgl/src/widgets/menu/lv_menu.c ****     }
 1354              		.loc 1 407 21 is_stmt 0 view .LVU377
 1355 0016 0023     		movs	r3, #0
 1356 0018 E362     		str	r3, [r4, #44]
 1357              	.L85:
 410:../../Middlewares/LVGL/GUI/lvgl/src/widgets/menu/lv_menu.c ****         page->static_title = false;
 1358              		.loc 1 410 5 is_stmt 1 view .LVU378
 410:../../Middlewares/LVGL/GUI/lvgl/src/widgets/menu/lv_menu.c ****         page->static_title = false;
 1359              		.loc 1 410 7 is_stmt 0 view .LVU379
 1360 001a 2846     		mov	r0, r5
 1361 001c 45B1     		cbz	r5, .L86
ARM GAS  C:\Users\28576\AppData\Local\Temp\ccAP2L0b.s 			page 44


 1362              	.LVL156:
 411:../../Middlewares/LVGL/GUI/lvgl/src/widgets/menu/lv_menu.c ****         page->title = lv_strdup(title);
 1363              		.loc 1 411 9 is_stmt 1 view .LVU380
 411:../../Middlewares/LVGL/GUI/lvgl/src/widgets/menu/lv_menu.c ****         page->title = lv_strdup(title);
 1364              		.loc 1 411 28 is_stmt 0 view .LVU381
 1365 001e 0023     		movs	r3, #0
 1366 0020 84F83030 		strb	r3, [r4, #48]
 412:../../Middlewares/LVGL/GUI/lvgl/src/widgets/menu/lv_menu.c ****         LV_ASSERT_MALLOC(page->title);
 1367              		.loc 1 412 9 is_stmt 1 view .LVU382
 412:../../Middlewares/LVGL/GUI/lvgl/src/widgets/menu/lv_menu.c ****         LV_ASSERT_MALLOC(page->title);
 1368              		.loc 1 412 23 is_stmt 0 view .LVU383
 1369 0024 FFF7FEFF 		bl	lv_strdup
 1370              	.LVL157:
 412:../../Middlewares/LVGL/GUI/lvgl/src/widgets/menu/lv_menu.c ****         LV_ASSERT_MALLOC(page->title);
 1371              		.loc 1 412 21 discriminator 1 view .LVU384
 1372 0028 E062     		str	r0, [r4, #44]
 413:../../Middlewares/LVGL/GUI/lvgl/src/widgets/menu/lv_menu.c ****         if(page->title == NULL) {
 1373              		.loc 1 413 9 is_stmt 1 view .LVU385
 413:../../Middlewares/LVGL/GUI/lvgl/src/widgets/menu/lv_menu.c ****         if(page->title == NULL) {
 1374              		.loc 1 413 9 view .LVU386
 1375 002a 20B9     		cbnz	r0, .L82
 1376              	.L88:
 413:../../Middlewares/LVGL/GUI/lvgl/src/widgets/menu/lv_menu.c ****         if(page->title == NULL) {
 1377              		.loc 1 413 9 view .LVU387
 413:../../Middlewares/LVGL/GUI/lvgl/src/widgets/menu/lv_menu.c ****         if(page->title == NULL) {
 1378              		.loc 1 413 9 view .LVU388
 413:../../Middlewares/LVGL/GUI/lvgl/src/widgets/menu/lv_menu.c ****         if(page->title == NULL) {
 1379              		.loc 1 413 9 view .LVU389
 413:../../Middlewares/LVGL/GUI/lvgl/src/widgets/menu/lv_menu.c ****         if(page->title == NULL) {
 1380              		.loc 1 413 9 view .LVU390
 413:../../Middlewares/LVGL/GUI/lvgl/src/widgets/menu/lv_menu.c ****         if(page->title == NULL) {
 1381              		.loc 1 413 9 view .LVU391
 1382 002c FEE7     		b	.L88
 1383              	.LVL158:
 1384              	.L84:
 1385              	.LCFI27:
 1386              		.cfi_def_cfa_offset 0
 1387              		.cfi_restore 3
 1388              		.cfi_restore 4
 1389              		.cfi_restore 5
 1390              		.cfi_restore 14
 399:../../Middlewares/LVGL/GUI/lvgl/src/widgets/menu/lv_menu.c **** 
 1391              		.loc 1 399 5 view .LVU392
 399:../../Middlewares/LVGL/GUI/lvgl/src/widgets/menu/lv_menu.c **** 
 1392              		.loc 1 399 5 view .LVU393
 399:../../Middlewares/LVGL/GUI/lvgl/src/widgets/menu/lv_menu.c **** 
 1393              		.loc 1 399 5 view .LVU394
 399:../../Middlewares/LVGL/GUI/lvgl/src/widgets/menu/lv_menu.c **** 
 1394              		.loc 1 399 5 view .LVU395
 399:../../Middlewares/LVGL/GUI/lvgl/src/widgets/menu/lv_menu.c **** 
 1395              		.loc 1 399 5 view .LVU396
 1396 002e FEE7     		b	.L84
 1397              	.LVL159:
 1398              	.L86:
 1399              	.LCFI28:
 1400              		.cfi_def_cfa_offset 16
 1401              		.cfi_offset 3, -16
ARM GAS  C:\Users\28576\AppData\Local\Temp\ccAP2L0b.s 			page 45


 1402              		.cfi_offset 4, -12
 1403              		.cfi_offset 5, -8
 1404              		.cfi_offset 14, -4
 419:../../Middlewares/LVGL/GUI/lvgl/src/widgets/menu/lv_menu.c ****         page->static_title = false;
 1405              		.loc 1 419 9 view .LVU397
 419:../../Middlewares/LVGL/GUI/lvgl/src/widgets/menu/lv_menu.c ****         page->static_title = false;
 1406              		.loc 1 419 28 is_stmt 0 view .LVU398
 1407 0030 E562     		str	r5, [r4, #44]
 420:../../Middlewares/LVGL/GUI/lvgl/src/widgets/menu/lv_menu.c ****     }
 1408              		.loc 1 420 9 is_stmt 1 view .LVU399
 420:../../Middlewares/LVGL/GUI/lvgl/src/widgets/menu/lv_menu.c ****     }
 1409              		.loc 1 420 28 is_stmt 0 view .LVU400
 1410 0032 84F83050 		strb	r5, [r4, #48]
 1411              	.LVL160:
 1412              	.L82:
 422:../../Middlewares/LVGL/GUI/lvgl/src/widgets/menu/lv_menu.c **** 
 1413              		.loc 1 422 1 view .LVU401
 1414 0036 38BD     		pop	{r3, r4, r5, pc}
 422:../../Middlewares/LVGL/GUI/lvgl/src/widgets/menu/lv_menu.c **** 
 1415              		.loc 1 422 1 view .LVU402
 1416              		.cfi_endproc
 1417              	.LFE183:
 1419              		.section	.text.lv_menu_page_create,"ax",%progbits
 1420              		.align	1
 1421              		.global	lv_menu_page_create
 1422              		.syntax unified
 1423              		.thumb
 1424              		.thumb_func
 1426              	lv_menu_page_create:
 1427              	.LVL161:
 1428              	.LFB173:
 127:../../Middlewares/LVGL/GUI/lvgl/src/widgets/menu/lv_menu.c ****     LV_ASSERT_OBJ(menu, MY_CLASS);
 1429              		.loc 1 127 1 is_stmt 1 view -0
 1430              		.cfi_startproc
 1431              		@ args = 0, pretend = 0, frame = 0
 1432              		@ frame_needed = 0, uses_anonymous_args = 0
 128:../../Middlewares/LVGL/GUI/lvgl/src/widgets/menu/lv_menu.c **** 
 1433              		.loc 1 128 5 view .LVU404
 128:../../Middlewares/LVGL/GUI/lvgl/src/widgets/menu/lv_menu.c **** 
 1434              		.loc 1 128 5 view .LVU405
 1435 0000 90B1     		cbz	r0, .L93
 127:../../Middlewares/LVGL/GUI/lvgl/src/widgets/menu/lv_menu.c ****     LV_ASSERT_OBJ(menu, MY_CLASS);
 1436              		.loc 1 127 1 is_stmt 0 view .LVU406
 1437 0002 38B5     		push	{r3, r4, r5, lr}
 1438              	.LCFI29:
 1439              		.cfi_def_cfa_offset 16
 1440              		.cfi_offset 3, -16
 1441              		.cfi_offset 4, -12
 1442              		.cfi_offset 5, -8
 1443              		.cfi_offset 14, -4
 1444 0004 0D46     		mov	r5, r1
 1445 0006 0146     		mov	r1, r0
 1446              	.LVL162:
 128:../../Middlewares/LVGL/GUI/lvgl/src/widgets/menu/lv_menu.c **** 
 1447              		.loc 1 128 5 is_stmt 1 view .LVU407
 128:../../Middlewares/LVGL/GUI/lvgl/src/widgets/menu/lv_menu.c **** 
 1448              		.loc 1 128 34 view .LVU408
ARM GAS  C:\Users\28576\AppData\Local\Temp\ccAP2L0b.s 			page 46


 130:../../Middlewares/LVGL/GUI/lvgl/src/widgets/menu/lv_menu.c ****     lv_obj_t * obj = lv_obj_class_create_obj(&lv_menu_page_class, menu);
 1449              		.loc 1 130 5 view .LVU409
 130:../../Middlewares/LVGL/GUI/lvgl/src/widgets/menu/lv_menu.c ****     lv_obj_t * obj = lv_obj_class_create_obj(&lv_menu_page_class, menu);
 1450              		.loc 1 130 5 view .LVU410
 130:../../Middlewares/LVGL/GUI/lvgl/src/widgets/menu/lv_menu.c ****     lv_obj_t * obj = lv_obj_class_create_obj(&lv_menu_page_class, menu);
 1451              		.loc 1 130 5 view .LVU411
 131:../../Middlewares/LVGL/GUI/lvgl/src/widgets/menu/lv_menu.c ****     lv_obj_class_init_obj(obj);
 1452              		.loc 1 131 5 view .LVU412
 131:../../Middlewares/LVGL/GUI/lvgl/src/widgets/menu/lv_menu.c ****     lv_obj_class_init_obj(obj);
 1453              		.loc 1 131 22 is_stmt 0 view .LVU413
 1454 0008 0848     		ldr	r0, .L96
 1455              	.LVL163:
 131:../../Middlewares/LVGL/GUI/lvgl/src/widgets/menu/lv_menu.c ****     lv_obj_class_init_obj(obj);
 1456              		.loc 1 131 22 view .LVU414
 1457 000a FFF7FEFF 		bl	lv_obj_class_create_obj
 1458              	.LVL164:
 131:../../Middlewares/LVGL/GUI/lvgl/src/widgets/menu/lv_menu.c ****     lv_obj_class_init_obj(obj);
 1459              		.loc 1 131 22 view .LVU415
 1460 000e 0446     		mov	r4, r0
 1461              	.LVL165:
 132:../../Middlewares/LVGL/GUI/lvgl/src/widgets/menu/lv_menu.c **** 
 1462              		.loc 1 132 5 is_stmt 1 view .LVU416
 1463 0010 FFF7FEFF 		bl	lv_obj_class_init_obj
 1464              	.LVL166:
 134:../../Middlewares/LVGL/GUI/lvgl/src/widgets/menu/lv_menu.c ****     /* Initialise the object */
 1465              		.loc 1 134 5 view .LVU417
 136:../../Middlewares/LVGL/GUI/lvgl/src/widgets/menu/lv_menu.c ****     page->static_title = false;
 1466              		.loc 1 136 5 view .LVU418
 136:../../Middlewares/LVGL/GUI/lvgl/src/widgets/menu/lv_menu.c ****     page->static_title = false;
 1467              		.loc 1 136 24 is_stmt 0 view .LVU419
 1468 0014 0023     		movs	r3, #0
 1469 0016 E362     		str	r3, [r4, #44]
 137:../../Middlewares/LVGL/GUI/lvgl/src/widgets/menu/lv_menu.c ****     lv_menu_set_page_title(obj, title);
 1470              		.loc 1 137 5 is_stmt 1 view .LVU420
 137:../../Middlewares/LVGL/GUI/lvgl/src/widgets/menu/lv_menu.c ****     lv_menu_set_page_title(obj, title);
 1471              		.loc 1 137 24 is_stmt 0 view .LVU421
 1472 0018 84F83030 		strb	r3, [r4, #48]
 138:../../Middlewares/LVGL/GUI/lvgl/src/widgets/menu/lv_menu.c **** 
 1473              		.loc 1 138 5 is_stmt 1 view .LVU422
 1474 001c 2946     		mov	r1, r5
 1475 001e 2046     		mov	r0, r4
 1476 0020 FFF7FEFF 		bl	lv_menu_set_page_title
 1477              	.LVL167:
 140:../../Middlewares/LVGL/GUI/lvgl/src/widgets/menu/lv_menu.c **** }
 1478              		.loc 1 140 5 view .LVU423
 141:../../Middlewares/LVGL/GUI/lvgl/src/widgets/menu/lv_menu.c **** 
 1479              		.loc 1 141 1 is_stmt 0 view .LVU424
 1480 0024 2046     		mov	r0, r4
 1481 0026 38BD     		pop	{r3, r4, r5, pc}
 1482              	.LVL168:
 1483              	.L93:
 1484              	.LCFI30:
 1485              		.cfi_def_cfa_offset 0
 1486              		.cfi_restore 3
 1487              		.cfi_restore 4
 1488              		.cfi_restore 5
 1489              		.cfi_restore 14
ARM GAS  C:\Users\28576\AppData\Local\Temp\ccAP2L0b.s 			page 47


 128:../../Middlewares/LVGL/GUI/lvgl/src/widgets/menu/lv_menu.c **** 
 1490              		.loc 1 128 5 is_stmt 1 view .LVU425
 128:../../Middlewares/LVGL/GUI/lvgl/src/widgets/menu/lv_menu.c **** 
 1491              		.loc 1 128 5 view .LVU426
 128:../../Middlewares/LVGL/GUI/lvgl/src/widgets/menu/lv_menu.c **** 
 1492              		.loc 1 128 5 view .LVU427
 128:../../Middlewares/LVGL/GUI/lvgl/src/widgets/menu/lv_menu.c **** 
 1493              		.loc 1 128 5 view .LVU428
 128:../../Middlewares/LVGL/GUI/lvgl/src/widgets/menu/lv_menu.c **** 
 1494              		.loc 1 128 5 view .LVU429
 1495 0028 FEE7     		b	.L93
 1496              	.L97:
 1497 002a 00BF     		.align	2
 1498              	.L96:
 1499 002c 00000000 		.word	lv_menu_page_class
 1500              		.cfi_endproc
 1501              	.LFE173:
 1503              		.section	.text.lv_menu_set_page_title_static,"ax",%progbits
 1504              		.align	1
 1505              		.global	lv_menu_set_page_title_static
 1506              		.syntax unified
 1507              		.thumb
 1508              		.thumb_func
 1510              	lv_menu_set_page_title_static:
 1511              	.LVL169:
 1512              	.LFB184:
 425:../../Middlewares/LVGL/GUI/lvgl/src/widgets/menu/lv_menu.c ****     LV_ASSERT_OBJ(page_obj, &lv_menu_page_class);
 1513              		.loc 1 425 1 view -0
 1514              		.cfi_startproc
 1515              		@ args = 0, pretend = 0, frame = 0
 1516              		@ frame_needed = 0, uses_anonymous_args = 0
 426:../../Middlewares/LVGL/GUI/lvgl/src/widgets/menu/lv_menu.c **** 
 1517              		.loc 1 426 5 view .LVU431
 426:../../Middlewares/LVGL/GUI/lvgl/src/widgets/menu/lv_menu.c **** 
 1518              		.loc 1 426 5 view .LVU432
 1519 0000 88B1     		cbz	r0, .L100
 425:../../Middlewares/LVGL/GUI/lvgl/src/widgets/menu/lv_menu.c ****     LV_ASSERT_OBJ(page_obj, &lv_menu_page_class);
 1520              		.loc 1 425 1 is_stmt 0 view .LVU433
 1521 0002 38B5     		push	{r3, r4, r5, lr}
 1522              	.LCFI31:
 1523              		.cfi_def_cfa_offset 16
 1524              		.cfi_offset 3, -16
 1525              		.cfi_offset 4, -12
 1526              		.cfi_offset 5, -8
 1527              		.cfi_offset 14, -4
 1528 0004 0D46     		mov	r5, r1
 1529 0006 0446     		mov	r4, r0
 426:../../Middlewares/LVGL/GUI/lvgl/src/widgets/menu/lv_menu.c **** 
 1530              		.loc 1 426 5 is_stmt 1 view .LVU434
 426:../../Middlewares/LVGL/GUI/lvgl/src/widgets/menu/lv_menu.c **** 
 1531              		.loc 1 426 49 view .LVU435
 428:../../Middlewares/LVGL/GUI/lvgl/src/widgets/menu/lv_menu.c ****     lv_menu_page_t * page = (lv_menu_page_t *)page_obj;
 1532              		.loc 1 428 5 view .LVU436
 428:../../Middlewares/LVGL/GUI/lvgl/src/widgets/menu/lv_menu.c ****     lv_menu_page_t * page = (lv_menu_page_t *)page_obj;
 1533              		.loc 1 428 5 view .LVU437
 428:../../Middlewares/LVGL/GUI/lvgl/src/widgets/menu/lv_menu.c ****     lv_menu_page_t * page = (lv_menu_page_t *)page_obj;
 1534              		.loc 1 428 5 view .LVU438
ARM GAS  C:\Users\28576\AppData\Local\Temp\ccAP2L0b.s 			page 48


 429:../../Middlewares/LVGL/GUI/lvgl/src/widgets/menu/lv_menu.c **** 
 1535              		.loc 1 429 5 view .LVU439
 1536              	.LVL170:
 432:../../Middlewares/LVGL/GUI/lvgl/src/widgets/menu/lv_menu.c ****         lv_free(page->title);
 1537              		.loc 1 432 5 view .LVU440
 432:../../Middlewares/LVGL/GUI/lvgl/src/widgets/menu/lv_menu.c ****         lv_free(page->title);
 1538              		.loc 1 432 14 is_stmt 0 view .LVU441
 1539 0008 90F83030 		ldrb	r3, [r0, #48]	@ zero_extendqisi2
 432:../../Middlewares/LVGL/GUI/lvgl/src/widgets/menu/lv_menu.c ****         lv_free(page->title);
 1540              		.loc 1 432 7 view .LVU442
 1541 000c 2BB9     		cbnz	r3, .L101
 432:../../Middlewares/LVGL/GUI/lvgl/src/widgets/menu/lv_menu.c ****         lv_free(page->title);
 1542              		.loc 1 432 37 discriminator 1 view .LVU443
 1543 000e C06A     		ldr	r0, [r0, #44]
 1544              	.LVL171:
 432:../../Middlewares/LVGL/GUI/lvgl/src/widgets/menu/lv_menu.c ****         lv_free(page->title);
 1545              		.loc 1 432 30 discriminator 1 view .LVU444
 1546 0010 18B1     		cbz	r0, .L101
 433:../../Middlewares/LVGL/GUI/lvgl/src/widgets/menu/lv_menu.c ****         page->title = NULL;
 1547              		.loc 1 433 9 is_stmt 1 view .LVU445
 1548 0012 FFF7FEFF 		bl	lv_free
 1549              	.LVL172:
 434:../../Middlewares/LVGL/GUI/lvgl/src/widgets/menu/lv_menu.c ****     }
 1550              		.loc 1 434 9 view .LVU446
 434:../../Middlewares/LVGL/GUI/lvgl/src/widgets/menu/lv_menu.c ****     }
 1551              		.loc 1 434 21 is_stmt 0 view .LVU447
 1552 0016 0023     		movs	r3, #0
 1553 0018 E362     		str	r3, [r4, #44]
 1554              	.L101:
 438:../../Middlewares/LVGL/GUI/lvgl/src/widgets/menu/lv_menu.c ****         page->title        = (char *) title;
 1555              		.loc 1 438 5 is_stmt 1 view .LVU448
 438:../../Middlewares/LVGL/GUI/lvgl/src/widgets/menu/lv_menu.c ****         page->title        = (char *) title;
 1556              		.loc 1 438 7 is_stmt 0 view .LVU449
 1557 001a 2DB1     		cbz	r5, .L102
 439:../../Middlewares/LVGL/GUI/lvgl/src/widgets/menu/lv_menu.c ****         page->static_title = true;
 1558              		.loc 1 439 9 is_stmt 1 view .LVU450
 439:../../Middlewares/LVGL/GUI/lvgl/src/widgets/menu/lv_menu.c ****         page->static_title = true;
 1559              		.loc 1 439 28 is_stmt 0 view .LVU451
 1560 001c E562     		str	r5, [r4, #44]
 440:../../Middlewares/LVGL/GUI/lvgl/src/widgets/menu/lv_menu.c ****     }
 1561              		.loc 1 440 9 is_stmt 1 view .LVU452
 440:../../Middlewares/LVGL/GUI/lvgl/src/widgets/menu/lv_menu.c ****     }
 1562              		.loc 1 440 28 is_stmt 0 view .LVU453
 1563 001e 0123     		movs	r3, #1
 1564 0020 84F83030 		strb	r3, [r4, #48]
 1565              	.L98:
 446:../../Middlewares/LVGL/GUI/lvgl/src/widgets/menu/lv_menu.c **** 
 1566              		.loc 1 446 1 view .LVU454
 1567 0024 38BD     		pop	{r3, r4, r5, pc}
 1568              	.LVL173:
 1569              	.L100:
 1570              	.LCFI32:
 1571              		.cfi_def_cfa_offset 0
 1572              		.cfi_restore 3
 1573              		.cfi_restore 4
 1574              		.cfi_restore 5
 1575              		.cfi_restore 14
ARM GAS  C:\Users\28576\AppData\Local\Temp\ccAP2L0b.s 			page 49


 426:../../Middlewares/LVGL/GUI/lvgl/src/widgets/menu/lv_menu.c **** 
 1576              		.loc 1 426 5 is_stmt 1 view .LVU455
 426:../../Middlewares/LVGL/GUI/lvgl/src/widgets/menu/lv_menu.c **** 
 1577              		.loc 1 426 5 view .LVU456
 426:../../Middlewares/LVGL/GUI/lvgl/src/widgets/menu/lv_menu.c **** 
 1578              		.loc 1 426 5 view .LVU457
 426:../../Middlewares/LVGL/GUI/lvgl/src/widgets/menu/lv_menu.c **** 
 1579              		.loc 1 426 5 view .LVU458
 426:../../Middlewares/LVGL/GUI/lvgl/src/widgets/menu/lv_menu.c **** 
 1580              		.loc 1 426 5 view .LVU459
 1581 0026 FEE7     		b	.L100
 1582              	.LVL174:
 1583              	.L102:
 1584              	.LCFI33:
 1585              		.cfi_def_cfa_offset 16
 1586              		.cfi_offset 3, -16
 1587              		.cfi_offset 4, -12
 1588              		.cfi_offset 5, -8
 1589              		.cfi_offset 14, -4
 443:../../Middlewares/LVGL/GUI/lvgl/src/widgets/menu/lv_menu.c ****         page->static_title = false;
 1590              		.loc 1 443 9 view .LVU460
 443:../../Middlewares/LVGL/GUI/lvgl/src/widgets/menu/lv_menu.c ****         page->static_title = false;
 1591              		.loc 1 443 28 is_stmt 0 view .LVU461
 1592 0028 E562     		str	r5, [r4, #44]
 444:../../Middlewares/LVGL/GUI/lvgl/src/widgets/menu/lv_menu.c ****     }
 1593              		.loc 1 444 9 is_stmt 1 view .LVU462
 444:../../Middlewares/LVGL/GUI/lvgl/src/widgets/menu/lv_menu.c ****     }
 1594              		.loc 1 444 28 is_stmt 0 view .LVU463
 1595 002a 84F83050 		strb	r5, [r4, #48]
 446:../../Middlewares/LVGL/GUI/lvgl/src/widgets/menu/lv_menu.c **** 
 1596              		.loc 1 446 1 view .LVU464
 1597 002e F9E7     		b	.L98
 1598              		.cfi_endproc
 1599              	.LFE184:
 1601              		.section	.text.lv_menu_get_cur_main_page,"ax",%progbits
 1602              		.align	1
 1603              		.global	lv_menu_get_cur_main_page
 1604              		.syntax unified
 1605              		.thumb
 1606              		.thumb_func
 1608              	lv_menu_get_cur_main_page:
 1609              	.LVL175:
 1610              	.LFB185:
 452:../../Middlewares/LVGL/GUI/lvgl/src/widgets/menu/lv_menu.c ****     LV_ASSERT_OBJ(obj, MY_CLASS);
 1611              		.loc 1 452 1 is_stmt 1 view -0
 1612              		.cfi_startproc
 1613              		@ args = 0, pretend = 0, frame = 0
 1614              		@ frame_needed = 0, uses_anonymous_args = 0
 1615              		@ link register save eliminated.
 453:../../Middlewares/LVGL/GUI/lvgl/src/widgets/menu/lv_menu.c **** 
 1616              		.loc 1 453 5 view .LVU466
 453:../../Middlewares/LVGL/GUI/lvgl/src/widgets/menu/lv_menu.c **** 
 1617              		.loc 1 453 5 view .LVU467
 1618 0000 08B1     		cbz	r0, .L108
 453:../../Middlewares/LVGL/GUI/lvgl/src/widgets/menu/lv_menu.c **** 
 1619              		.loc 1 453 5 view .LVU468
 453:../../Middlewares/LVGL/GUI/lvgl/src/widgets/menu/lv_menu.c **** 
ARM GAS  C:\Users\28576\AppData\Local\Temp\ccAP2L0b.s 			page 50


 1620              		.loc 1 453 33 view .LVU469
 455:../../Middlewares/LVGL/GUI/lvgl/src/widgets/menu/lv_menu.c ****     return menu->main_page;
 1621              		.loc 1 455 5 view .LVU470
 1622              	.LVL176:
 456:../../Middlewares/LVGL/GUI/lvgl/src/widgets/menu/lv_menu.c **** }
 1623              		.loc 1 456 5 view .LVU471
 457:../../Middlewares/LVGL/GUI/lvgl/src/widgets/menu/lv_menu.c **** 
 1624              		.loc 1 457 1 is_stmt 0 view .LVU472
 1625 0002 406B     		ldr	r0, [r0, #52]
 1626              	.LVL177:
 457:../../Middlewares/LVGL/GUI/lvgl/src/widgets/menu/lv_menu.c **** 
 1627              		.loc 1 457 1 view .LVU473
 1628 0004 7047     		bx	lr
 1629              	.LVL178:
 1630              	.L108:
 453:../../Middlewares/LVGL/GUI/lvgl/src/widgets/menu/lv_menu.c **** 
 1631              		.loc 1 453 5 is_stmt 1 view .LVU474
 453:../../Middlewares/LVGL/GUI/lvgl/src/widgets/menu/lv_menu.c **** 
 1632              		.loc 1 453 5 view .LVU475
 453:../../Middlewares/LVGL/GUI/lvgl/src/widgets/menu/lv_menu.c **** 
 1633              		.loc 1 453 5 view .LVU476
 453:../../Middlewares/LVGL/GUI/lvgl/src/widgets/menu/lv_menu.c **** 
 1634              		.loc 1 453 5 view .LVU477
 453:../../Middlewares/LVGL/GUI/lvgl/src/widgets/menu/lv_menu.c **** 
 1635              		.loc 1 453 5 view .LVU478
 1636 0006 FEE7     		b	.L108
 1637              		.cfi_endproc
 1638              	.LFE185:
 1640              		.section	.text.lv_menu_get_cur_sidebar_page,"ax",%progbits
 1641              		.align	1
 1642              		.global	lv_menu_get_cur_sidebar_page
 1643              		.syntax unified
 1644              		.thumb
 1645              		.thumb_func
 1647              	lv_menu_get_cur_sidebar_page:
 1648              	.LVL179:
 1649              	.LFB186:
 460:../../Middlewares/LVGL/GUI/lvgl/src/widgets/menu/lv_menu.c ****     LV_ASSERT_OBJ(obj, MY_CLASS);
 1650              		.loc 1 460 1 view -0
 1651              		.cfi_startproc
 1652              		@ args = 0, pretend = 0, frame = 0
 1653              		@ frame_needed = 0, uses_anonymous_args = 0
 1654              		@ link register save eliminated.
 461:../../Middlewares/LVGL/GUI/lvgl/src/widgets/menu/lv_menu.c **** 
 1655              		.loc 1 461 5 view .LVU480
 461:../../Middlewares/LVGL/GUI/lvgl/src/widgets/menu/lv_menu.c **** 
 1656              		.loc 1 461 5 view .LVU481
 1657 0000 08B1     		cbz	r0, .L111
 461:../../Middlewares/LVGL/GUI/lvgl/src/widgets/menu/lv_menu.c **** 
 1658              		.loc 1 461 5 view .LVU482
 461:../../Middlewares/LVGL/GUI/lvgl/src/widgets/menu/lv_menu.c **** 
 1659              		.loc 1 461 33 view .LVU483
 463:../../Middlewares/LVGL/GUI/lvgl/src/widgets/menu/lv_menu.c ****     return menu->sidebar_page;
 1660              		.loc 1 463 5 view .LVU484
 1661              	.LVL180:
 464:../../Middlewares/LVGL/GUI/lvgl/src/widgets/menu/lv_menu.c **** }
 1662              		.loc 1 464 5 view .LVU485
ARM GAS  C:\Users\28576\AppData\Local\Temp\ccAP2L0b.s 			page 51


 465:../../Middlewares/LVGL/GUI/lvgl/src/widgets/menu/lv_menu.c **** 
 1663              		.loc 1 465 1 is_stmt 0 view .LVU486
 1664 0002 806C     		ldr	r0, [r0, #72]
 1665              	.LVL181:
 465:../../Middlewares/LVGL/GUI/lvgl/src/widgets/menu/lv_menu.c **** 
 1666              		.loc 1 465 1 view .LVU487
 1667 0004 7047     		bx	lr
 1668              	.LVL182:
 1669              	.L111:
 461:../../Middlewares/LVGL/GUI/lvgl/src/widgets/menu/lv_menu.c **** 
 1670              		.loc 1 461 5 is_stmt 1 view .LVU488
 461:../../Middlewares/LVGL/GUI/lvgl/src/widgets/menu/lv_menu.c **** 
 1671              		.loc 1 461 5 view .LVU489
 461:../../Middlewares/LVGL/GUI/lvgl/src/widgets/menu/lv_menu.c **** 
 1672              		.loc 1 461 5 view .LVU490
 461:../../Middlewares/LVGL/GUI/lvgl/src/widgets/menu/lv_menu.c **** 
 1673              		.loc 1 461 5 view .LVU491
 461:../../Middlewares/LVGL/GUI/lvgl/src/widgets/menu/lv_menu.c **** 
 1674              		.loc 1 461 5 view .LVU492
 1675 0006 FEE7     		b	.L111
 1676              		.cfi_endproc
 1677              	.LFE186:
 1679              		.section	.text.lv_menu_value_changed_event_cb,"ax",%progbits
 1680              		.align	1
 1681              		.syntax unified
 1682              		.thumb
 1683              		.thumb_func
 1685              	lv_menu_value_changed_event_cb:
 1686              	.LVL183:
 1687              	.LFB204:
 767:../../Middlewares/LVGL/GUI/lvgl/src/widgets/menu/lv_menu.c **** 
 768:../../Middlewares/LVGL/GUI/lvgl/src/widgets/menu/lv_menu.c **** static void lv_menu_back_event_cb(lv_event_t * e)
 769:../../Middlewares/LVGL/GUI/lvgl/src/widgets/menu/lv_menu.c **** {
 770:../../Middlewares/LVGL/GUI/lvgl/src/widgets/menu/lv_menu.c ****     lv_event_code_t code = lv_event_get_code(e);
 771:../../Middlewares/LVGL/GUI/lvgl/src/widgets/menu/lv_menu.c ****     /* LV_EVENT_CLICKED */
 772:../../Middlewares/LVGL/GUI/lvgl/src/widgets/menu/lv_menu.c ****     if(code == LV_EVENT_CLICKED) {
 773:../../Middlewares/LVGL/GUI/lvgl/src/widgets/menu/lv_menu.c ****         lv_obj_t * obj = lv_event_get_current_target(e);
 774:../../Middlewares/LVGL/GUI/lvgl/src/widgets/menu/lv_menu.c ****         lv_menu_t * menu = (lv_menu_t *)lv_event_get_user_data(e);
 775:../../Middlewares/LVGL/GUI/lvgl/src/widgets/menu/lv_menu.c **** 
 776:../../Middlewares/LVGL/GUI/lvgl/src/widgets/menu/lv_menu.c ****         if(!(obj == menu->main_header_back_btn || obj == menu->sidebar_header_back_btn)) return;
 777:../../Middlewares/LVGL/GUI/lvgl/src/widgets/menu/lv_menu.c **** 
 778:../../Middlewares/LVGL/GUI/lvgl/src/widgets/menu/lv_menu.c ****         menu->prev_depth = menu->cur_depth; /* Save the previous value for user event handler */
 779:../../Middlewares/LVGL/GUI/lvgl/src/widgets/menu/lv_menu.c **** 
 780:../../Middlewares/LVGL/GUI/lvgl/src/widgets/menu/lv_menu.c ****         if(lv_menu_back_button_is_root((lv_obj_t *)menu, obj)) return;
 781:../../Middlewares/LVGL/GUI/lvgl/src/widgets/menu/lv_menu.c **** 
 782:../../Middlewares/LVGL/GUI/lvgl/src/widgets/menu/lv_menu.c ****         lv_ll_t * history_ll = &(menu->history_ll);
 783:../../Middlewares/LVGL/GUI/lvgl/src/widgets/menu/lv_menu.c **** 
 784:../../Middlewares/LVGL/GUI/lvgl/src/widgets/menu/lv_menu.c ****         /* The current menu */
 785:../../Middlewares/LVGL/GUI/lvgl/src/widgets/menu/lv_menu.c ****         lv_menu_history_t * act_hist = lv_ll_get_head(history_ll);
 786:../../Middlewares/LVGL/GUI/lvgl/src/widgets/menu/lv_menu.c **** 
 787:../../Middlewares/LVGL/GUI/lvgl/src/widgets/menu/lv_menu.c ****         /* The previous menu */
 788:../../Middlewares/LVGL/GUI/lvgl/src/widgets/menu/lv_menu.c ****         lv_menu_history_t * prev_hist = lv_ll_get_next(history_ll, act_hist);
 789:../../Middlewares/LVGL/GUI/lvgl/src/widgets/menu/lv_menu.c **** 
 790:../../Middlewares/LVGL/GUI/lvgl/src/widgets/menu/lv_menu.c ****         if(prev_hist != NULL) {
 791:../../Middlewares/LVGL/GUI/lvgl/src/widgets/menu/lv_menu.c ****             /* Previous menu exists */
 792:../../Middlewares/LVGL/GUI/lvgl/src/widgets/menu/lv_menu.c ****             /* Delete the current item from the history */
 793:../../Middlewares/LVGL/GUI/lvgl/src/widgets/menu/lv_menu.c ****             lv_ll_remove(history_ll, act_hist);
ARM GAS  C:\Users\28576\AppData\Local\Temp\ccAP2L0b.s 			page 52


 794:../../Middlewares/LVGL/GUI/lvgl/src/widgets/menu/lv_menu.c ****             lv_free(act_hist);
 795:../../Middlewares/LVGL/GUI/lvgl/src/widgets/menu/lv_menu.c ****             menu->cur_depth--;
 796:../../Middlewares/LVGL/GUI/lvgl/src/widgets/menu/lv_menu.c ****             /* Create the previous menu.
 797:../../Middlewares/LVGL/GUI/lvgl/src/widgets/menu/lv_menu.c ****             *  Remove it from the history because `lv_menu_set_page` will add it again */
 798:../../Middlewares/LVGL/GUI/lvgl/src/widgets/menu/lv_menu.c ****             lv_ll_remove(history_ll, prev_hist);
 799:../../Middlewares/LVGL/GUI/lvgl/src/widgets/menu/lv_menu.c ****             menu->cur_depth--;
 800:../../Middlewares/LVGL/GUI/lvgl/src/widgets/menu/lv_menu.c ****             lv_menu_set_page(&(menu->obj), prev_hist->page);
 801:../../Middlewares/LVGL/GUI/lvgl/src/widgets/menu/lv_menu.c **** 
 802:../../Middlewares/LVGL/GUI/lvgl/src/widgets/menu/lv_menu.c ****             lv_free(prev_hist);
 803:../../Middlewares/LVGL/GUI/lvgl/src/widgets/menu/lv_menu.c ****         }
 804:../../Middlewares/LVGL/GUI/lvgl/src/widgets/menu/lv_menu.c ****     }
 805:../../Middlewares/LVGL/GUI/lvgl/src/widgets/menu/lv_menu.c **** }
 806:../../Middlewares/LVGL/GUI/lvgl/src/widgets/menu/lv_menu.c **** 
 807:../../Middlewares/LVGL/GUI/lvgl/src/widgets/menu/lv_menu.c **** static void lv_menu_value_changed_event_cb(lv_event_t * e)
 808:../../Middlewares/LVGL/GUI/lvgl/src/widgets/menu/lv_menu.c **** {
 1688              		.loc 1 808 1 view -0
 1689              		.cfi_startproc
 1690              		@ args = 0, pretend = 0, frame = 0
 1691              		@ frame_needed = 0, uses_anonymous_args = 0
 1692              		.loc 1 808 1 is_stmt 0 view .LVU494
 1693 0000 10B5     		push	{r4, lr}
 1694              	.LCFI34:
 1695              		.cfi_def_cfa_offset 8
 1696              		.cfi_offset 4, -8
 1697              		.cfi_offset 14, -4
 809:../../Middlewares/LVGL/GUI/lvgl/src/widgets/menu/lv_menu.c ****     lv_obj_t * obj = lv_event_get_user_data(e);
 1698              		.loc 1 809 5 is_stmt 1 view .LVU495
 1699              		.loc 1 809 22 is_stmt 0 view .LVU496
 1700 0002 FFF7FEFF 		bl	lv_event_get_user_data
 1701              	.LVL184:
 1702              		.loc 1 809 22 view .LVU497
 1703 0006 0446     		mov	r4, r0
 1704              	.LVL185:
 810:../../Middlewares/LVGL/GUI/lvgl/src/widgets/menu/lv_menu.c ****     lv_menu_t * menu = (lv_menu_t *)obj;
 1705              		.loc 1 810 5 is_stmt 1 view .LVU498
 811:../../Middlewares/LVGL/GUI/lvgl/src/widgets/menu/lv_menu.c **** 
 812:../../Middlewares/LVGL/GUI/lvgl/src/widgets/menu/lv_menu.c ****     lv_menu_page_t * main_page = (lv_menu_page_t *)lv_menu_get_cur_main_page(obj);
 1706              		.loc 1 812 5 view .LVU499
 1707              		.loc 1 812 52 is_stmt 0 view .LVU500
 1708 0008 FFF7FEFF 		bl	lv_menu_get_cur_main_page
 1709              	.LVL186:
 813:../../Middlewares/LVGL/GUI/lvgl/src/widgets/menu/lv_menu.c ****     if(main_page != NULL && menu->main_header_title != NULL) {
 1710              		.loc 1 813 5 is_stmt 1 view .LVU501
 1711              		.loc 1 813 7 is_stmt 0 view .LVU502
 1712 000c 50B1     		cbz	r0, .L113
 1713 000e 0346     		mov	r3, r0
 1714              		.loc 1 813 33 discriminator 1 view .LVU503
 1715 0010 206C     		ldr	r0, [r4, #64]
 1716              	.LVL187:
 1717              		.loc 1 813 26 discriminator 1 view .LVU504
 1718 0012 38B1     		cbz	r0, .L113
 814:../../Middlewares/LVGL/GUI/lvgl/src/widgets/menu/lv_menu.c ****         if(main_page->title != NULL) {
 1719              		.loc 1 814 9 is_stmt 1 view .LVU505
 1720              		.loc 1 814 21 is_stmt 0 view .LVU506
 1721 0014 D96A     		ldr	r1, [r3, #44]
 1722              		.loc 1 814 11 view .LVU507
 1723 0016 A9B1     		cbz	r1, .L114
ARM GAS  C:\Users\28576\AppData\Local\Temp\ccAP2L0b.s 			page 53


 815:../../Middlewares/LVGL/GUI/lvgl/src/widgets/menu/lv_menu.c ****             lv_label_set_text(menu->main_header_title, main_page->title);
 1724              		.loc 1 815 13 is_stmt 1 view .LVU508
 1725 0018 FFF7FEFF 		bl	lv_label_set_text
 1726              	.LVL188:
 816:../../Middlewares/LVGL/GUI/lvgl/src/widgets/menu/lv_menu.c ****             lv_obj_remove_flag(menu->main_header_title, LV_OBJ_FLAG_HIDDEN);
 1727              		.loc 1 816 13 view .LVU509
 1728 001c 0121     		movs	r1, #1
 1729 001e 206C     		ldr	r0, [r4, #64]
 1730 0020 FFF7FEFF 		bl	lv_obj_remove_flag
 1731              	.LVL189:
 1732              	.L113:
 817:../../Middlewares/LVGL/GUI/lvgl/src/widgets/menu/lv_menu.c ****         }
 818:../../Middlewares/LVGL/GUI/lvgl/src/widgets/menu/lv_menu.c ****         else {
 819:../../Middlewares/LVGL/GUI/lvgl/src/widgets/menu/lv_menu.c ****             lv_obj_add_flag(menu->main_header_title, LV_OBJ_FLAG_HIDDEN);
 820:../../Middlewares/LVGL/GUI/lvgl/src/widgets/menu/lv_menu.c ****         }
 821:../../Middlewares/LVGL/GUI/lvgl/src/widgets/menu/lv_menu.c ****     }
 822:../../Middlewares/LVGL/GUI/lvgl/src/widgets/menu/lv_menu.c **** 
 823:../../Middlewares/LVGL/GUI/lvgl/src/widgets/menu/lv_menu.c ****     lv_menu_page_t * sidebar_page = (lv_menu_page_t *)lv_menu_get_cur_sidebar_page(obj);
 1733              		.loc 1 823 5 view .LVU510
 1734              		.loc 1 823 55 is_stmt 0 view .LVU511
 1735 0024 2046     		mov	r0, r4
 1736 0026 FFF7FEFF 		bl	lv_menu_get_cur_sidebar_page
 1737              	.LVL190:
 824:../../Middlewares/LVGL/GUI/lvgl/src/widgets/menu/lv_menu.c ****     if(sidebar_page != NULL && menu->sidebar_header_title != NULL) {
 1738              		.loc 1 824 5 is_stmt 1 view .LVU512
 1739              		.loc 1 824 7 is_stmt 0 view .LVU513
 1740 002a 0346     		mov	r3, r0
 1741 002c 48B1     		cbz	r0, .L112
 1742              		.loc 1 824 36 discriminator 1 view .LVU514
 1743 002e 606D     		ldr	r0, [r4, #84]
 1744              	.LVL191:
 1745              		.loc 1 824 29 discriminator 1 view .LVU515
 1746 0030 38B1     		cbz	r0, .L112
 825:../../Middlewares/LVGL/GUI/lvgl/src/widgets/menu/lv_menu.c ****         if(sidebar_page->title != NULL) {
 1747              		.loc 1 825 9 is_stmt 1 view .LVU516
 1748              		.loc 1 825 24 is_stmt 0 view .LVU517
 1749 0032 D96A     		ldr	r1, [r3, #44]
 1750              		.loc 1 825 11 view .LVU518
 1751 0034 51B1     		cbz	r1, .L116
 826:../../Middlewares/LVGL/GUI/lvgl/src/widgets/menu/lv_menu.c ****             lv_label_set_text(menu->sidebar_header_title, sidebar_page->title);
 1752              		.loc 1 826 13 is_stmt 1 view .LVU519
 1753 0036 FFF7FEFF 		bl	lv_label_set_text
 1754              	.LVL192:
 827:../../Middlewares/LVGL/GUI/lvgl/src/widgets/menu/lv_menu.c ****             lv_obj_remove_flag(menu->sidebar_header_title, LV_OBJ_FLAG_HIDDEN);
 1755              		.loc 1 827 13 view .LVU520
 1756 003a 0121     		movs	r1, #1
 1757 003c 606D     		ldr	r0, [r4, #84]
 1758 003e FFF7FEFF 		bl	lv_obj_remove_flag
 1759              	.LVL193:
 1760              	.L112:
 828:../../Middlewares/LVGL/GUI/lvgl/src/widgets/menu/lv_menu.c ****         }
 829:../../Middlewares/LVGL/GUI/lvgl/src/widgets/menu/lv_menu.c ****         else {
 830:../../Middlewares/LVGL/GUI/lvgl/src/widgets/menu/lv_menu.c ****             lv_obj_add_flag(menu->sidebar_header_title, LV_OBJ_FLAG_HIDDEN);
 831:../../Middlewares/LVGL/GUI/lvgl/src/widgets/menu/lv_menu.c ****         }
 832:../../Middlewares/LVGL/GUI/lvgl/src/widgets/menu/lv_menu.c ****     }
 833:../../Middlewares/LVGL/GUI/lvgl/src/widgets/menu/lv_menu.c **** }
 1761              		.loc 1 833 1 is_stmt 0 view .LVU521
ARM GAS  C:\Users\28576\AppData\Local\Temp\ccAP2L0b.s 			page 54


 1762 0042 10BD     		pop	{r4, pc}
 1763              	.LVL194:
 1764              	.L114:
 819:../../Middlewares/LVGL/GUI/lvgl/src/widgets/menu/lv_menu.c ****         }
 1765              		.loc 1 819 13 is_stmt 1 view .LVU522
 1766 0044 0121     		movs	r1, #1
 1767 0046 FFF7FEFF 		bl	lv_obj_add_flag
 1768              	.LVL195:
 819:../../Middlewares/LVGL/GUI/lvgl/src/widgets/menu/lv_menu.c ****         }
 1769              		.loc 1 819 13 is_stmt 0 view .LVU523
 1770 004a EBE7     		b	.L113
 1771              	.LVL196:
 1772              	.L116:
 830:../../Middlewares/LVGL/GUI/lvgl/src/widgets/menu/lv_menu.c ****         }
 1773              		.loc 1 830 13 is_stmt 1 view .LVU524
 1774 004c 0121     		movs	r1, #1
 1775 004e FFF7FEFF 		bl	lv_obj_add_flag
 1776              	.LVL197:
 1777              		.loc 1 833 1 is_stmt 0 view .LVU525
 1778 0052 F6E7     		b	.L112
 1779              		.cfi_endproc
 1780              	.LFE204:
 1782              		.section	.text.lv_menu_get_main_header,"ax",%progbits
 1783              		.align	1
 1784              		.global	lv_menu_get_main_header
 1785              		.syntax unified
 1786              		.thumb
 1787              		.thumb_func
 1789              	lv_menu_get_main_header:
 1790              	.LVL198:
 1791              	.LFB187:
 468:../../Middlewares/LVGL/GUI/lvgl/src/widgets/menu/lv_menu.c ****     LV_ASSERT_OBJ(obj, MY_CLASS);
 1792              		.loc 1 468 1 is_stmt 1 view -0
 1793              		.cfi_startproc
 1794              		@ args = 0, pretend = 0, frame = 0
 1795              		@ frame_needed = 0, uses_anonymous_args = 0
 1796              		@ link register save eliminated.
 469:../../Middlewares/LVGL/GUI/lvgl/src/widgets/menu/lv_menu.c **** 
 1797              		.loc 1 469 5 view .LVU527
 469:../../Middlewares/LVGL/GUI/lvgl/src/widgets/menu/lv_menu.c **** 
 1798              		.loc 1 469 5 view .LVU528
 1799 0000 08B1     		cbz	r0, .L120
 469:../../Middlewares/LVGL/GUI/lvgl/src/widgets/menu/lv_menu.c **** 
 1800              		.loc 1 469 5 view .LVU529
 469:../../Middlewares/LVGL/GUI/lvgl/src/widgets/menu/lv_menu.c **** 
 1801              		.loc 1 469 33 view .LVU530
 471:../../Middlewares/LVGL/GUI/lvgl/src/widgets/menu/lv_menu.c ****     return menu->main_header;
 1802              		.loc 1 471 5 view .LVU531
 1803              	.LVL199:
 472:../../Middlewares/LVGL/GUI/lvgl/src/widgets/menu/lv_menu.c **** }
 1804              		.loc 1 472 5 view .LVU532
 473:../../Middlewares/LVGL/GUI/lvgl/src/widgets/menu/lv_menu.c **** 
 1805              		.loc 1 473 1 is_stmt 0 view .LVU533
 1806 0002 806B     		ldr	r0, [r0, #56]
 1807              	.LVL200:
 473:../../Middlewares/LVGL/GUI/lvgl/src/widgets/menu/lv_menu.c **** 
 1808              		.loc 1 473 1 view .LVU534
ARM GAS  C:\Users\28576\AppData\Local\Temp\ccAP2L0b.s 			page 55


 1809 0004 7047     		bx	lr
 1810              	.LVL201:
 1811              	.L120:
 469:../../Middlewares/LVGL/GUI/lvgl/src/widgets/menu/lv_menu.c **** 
 1812              		.loc 1 469 5 is_stmt 1 view .LVU535
 469:../../Middlewares/LVGL/GUI/lvgl/src/widgets/menu/lv_menu.c **** 
 1813              		.loc 1 469 5 view .LVU536
 469:../../Middlewares/LVGL/GUI/lvgl/src/widgets/menu/lv_menu.c **** 
 1814              		.loc 1 469 5 view .LVU537
 469:../../Middlewares/LVGL/GUI/lvgl/src/widgets/menu/lv_menu.c **** 
 1815              		.loc 1 469 5 view .LVU538
 469:../../Middlewares/LVGL/GUI/lvgl/src/widgets/menu/lv_menu.c **** 
 1816              		.loc 1 469 5 view .LVU539
 1817 0006 FEE7     		b	.L120
 1818              		.cfi_endproc
 1819              	.LFE187:
 1821              		.section	.text.lv_menu_get_main_header_back_button,"ax",%progbits
 1822              		.align	1
 1823              		.global	lv_menu_get_main_header_back_button
 1824              		.syntax unified
 1825              		.thumb
 1826              		.thumb_func
 1828              	lv_menu_get_main_header_back_button:
 1829              	.LVL202:
 1830              	.LFB188:
 476:../../Middlewares/LVGL/GUI/lvgl/src/widgets/menu/lv_menu.c ****     LV_ASSERT_OBJ(obj, MY_CLASS);
 1831              		.loc 1 476 1 view -0
 1832              		.cfi_startproc
 1833              		@ args = 0, pretend = 0, frame = 0
 1834              		@ frame_needed = 0, uses_anonymous_args = 0
 1835              		@ link register save eliminated.
 477:../../Middlewares/LVGL/GUI/lvgl/src/widgets/menu/lv_menu.c **** 
 1836              		.loc 1 477 5 view .LVU541
 477:../../Middlewares/LVGL/GUI/lvgl/src/widgets/menu/lv_menu.c **** 
 1837              		.loc 1 477 5 view .LVU542
 1838 0000 08B1     		cbz	r0, .L123
 477:../../Middlewares/LVGL/GUI/lvgl/src/widgets/menu/lv_menu.c **** 
 1839              		.loc 1 477 5 view .LVU543
 477:../../Middlewares/LVGL/GUI/lvgl/src/widgets/menu/lv_menu.c **** 
 1840              		.loc 1 477 33 view .LVU544
 479:../../Middlewares/LVGL/GUI/lvgl/src/widgets/menu/lv_menu.c ****     return menu->main_header_back_btn;
 1841              		.loc 1 479 5 view .LVU545
 1842              	.LVL203:
 480:../../Middlewares/LVGL/GUI/lvgl/src/widgets/menu/lv_menu.c **** }
 1843              		.loc 1 480 5 view .LVU546
 481:../../Middlewares/LVGL/GUI/lvgl/src/widgets/menu/lv_menu.c **** 
 1844              		.loc 1 481 1 is_stmt 0 view .LVU547
 1845 0002 C06B     		ldr	r0, [r0, #60]
 1846              	.LVL204:
 481:../../Middlewares/LVGL/GUI/lvgl/src/widgets/menu/lv_menu.c **** 
 1847              		.loc 1 481 1 view .LVU548
 1848 0004 7047     		bx	lr
 1849              	.LVL205:
 1850              	.L123:
 477:../../Middlewares/LVGL/GUI/lvgl/src/widgets/menu/lv_menu.c **** 
 1851              		.loc 1 477 5 is_stmt 1 view .LVU549
 477:../../Middlewares/LVGL/GUI/lvgl/src/widgets/menu/lv_menu.c **** 
ARM GAS  C:\Users\28576\AppData\Local\Temp\ccAP2L0b.s 			page 56


 1852              		.loc 1 477 5 view .LVU550
 477:../../Middlewares/LVGL/GUI/lvgl/src/widgets/menu/lv_menu.c **** 
 1853              		.loc 1 477 5 view .LVU551
 477:../../Middlewares/LVGL/GUI/lvgl/src/widgets/menu/lv_menu.c **** 
 1854              		.loc 1 477 5 view .LVU552
 477:../../Middlewares/LVGL/GUI/lvgl/src/widgets/menu/lv_menu.c **** 
 1855              		.loc 1 477 5 view .LVU553
 1856 0006 FEE7     		b	.L123
 1857              		.cfi_endproc
 1858              	.LFE188:
 1860              		.section	.text.lv_menu_get_sidebar_header,"ax",%progbits
 1861              		.align	1
 1862              		.global	lv_menu_get_sidebar_header
 1863              		.syntax unified
 1864              		.thumb
 1865              		.thumb_func
 1867              	lv_menu_get_sidebar_header:
 1868              	.LVL206:
 1869              	.LFB189:
 484:../../Middlewares/LVGL/GUI/lvgl/src/widgets/menu/lv_menu.c ****     LV_ASSERT_OBJ(obj, MY_CLASS);
 1870              		.loc 1 484 1 view -0
 1871              		.cfi_startproc
 1872              		@ args = 0, pretend = 0, frame = 0
 1873              		@ frame_needed = 0, uses_anonymous_args = 0
 1874              		@ link register save eliminated.
 485:../../Middlewares/LVGL/GUI/lvgl/src/widgets/menu/lv_menu.c **** 
 1875              		.loc 1 485 5 view .LVU555
 485:../../Middlewares/LVGL/GUI/lvgl/src/widgets/menu/lv_menu.c **** 
 1876              		.loc 1 485 5 view .LVU556
 1877 0000 08B1     		cbz	r0, .L126
 485:../../Middlewares/LVGL/GUI/lvgl/src/widgets/menu/lv_menu.c **** 
 1878              		.loc 1 485 5 view .LVU557
 485:../../Middlewares/LVGL/GUI/lvgl/src/widgets/menu/lv_menu.c **** 
 1879              		.loc 1 485 33 view .LVU558
 487:../../Middlewares/LVGL/GUI/lvgl/src/widgets/menu/lv_menu.c ****     return menu->sidebar_header;
 1880              		.loc 1 487 5 view .LVU559
 1881              	.LVL207:
 488:../../Middlewares/LVGL/GUI/lvgl/src/widgets/menu/lv_menu.c **** }
 1882              		.loc 1 488 5 view .LVU560
 489:../../Middlewares/LVGL/GUI/lvgl/src/widgets/menu/lv_menu.c **** 
 1883              		.loc 1 489 1 is_stmt 0 view .LVU561
 1884 0002 C06C     		ldr	r0, [r0, #76]
 1885              	.LVL208:
 489:../../Middlewares/LVGL/GUI/lvgl/src/widgets/menu/lv_menu.c **** 
 1886              		.loc 1 489 1 view .LVU562
 1887 0004 7047     		bx	lr
 1888              	.LVL209:
 1889              	.L126:
 485:../../Middlewares/LVGL/GUI/lvgl/src/widgets/menu/lv_menu.c **** 
 1890              		.loc 1 485 5 is_stmt 1 view .LVU563
 485:../../Middlewares/LVGL/GUI/lvgl/src/widgets/menu/lv_menu.c **** 
 1891              		.loc 1 485 5 view .LVU564
 485:../../Middlewares/LVGL/GUI/lvgl/src/widgets/menu/lv_menu.c **** 
 1892              		.loc 1 485 5 view .LVU565
 485:../../Middlewares/LVGL/GUI/lvgl/src/widgets/menu/lv_menu.c **** 
 1893              		.loc 1 485 5 view .LVU566
 485:../../Middlewares/LVGL/GUI/lvgl/src/widgets/menu/lv_menu.c **** 
ARM GAS  C:\Users\28576\AppData\Local\Temp\ccAP2L0b.s 			page 57


 1894              		.loc 1 485 5 view .LVU567
 1895 0006 FEE7     		b	.L126
 1896              		.cfi_endproc
 1897              	.LFE189:
 1899              		.section	.text.lv_menu_get_sidebar_header_back_button,"ax",%progbits
 1900              		.align	1
 1901              		.global	lv_menu_get_sidebar_header_back_button
 1902              		.syntax unified
 1903              		.thumb
 1904              		.thumb_func
 1906              	lv_menu_get_sidebar_header_back_button:
 1907              	.LVL210:
 1908              	.LFB190:
 492:../../Middlewares/LVGL/GUI/lvgl/src/widgets/menu/lv_menu.c ****     LV_ASSERT_OBJ(obj, MY_CLASS);
 1909              		.loc 1 492 1 view -0
 1910              		.cfi_startproc
 1911              		@ args = 0, pretend = 0, frame = 0
 1912              		@ frame_needed = 0, uses_anonymous_args = 0
 1913              		@ link register save eliminated.
 493:../../Middlewares/LVGL/GUI/lvgl/src/widgets/menu/lv_menu.c **** 
 1914              		.loc 1 493 5 view .LVU569
 493:../../Middlewares/LVGL/GUI/lvgl/src/widgets/menu/lv_menu.c **** 
 1915              		.loc 1 493 5 view .LVU570
 1916 0000 08B1     		cbz	r0, .L129
 493:../../Middlewares/LVGL/GUI/lvgl/src/widgets/menu/lv_menu.c **** 
 1917              		.loc 1 493 5 view .LVU571
 493:../../Middlewares/LVGL/GUI/lvgl/src/widgets/menu/lv_menu.c **** 
 1918              		.loc 1 493 33 view .LVU572
 495:../../Middlewares/LVGL/GUI/lvgl/src/widgets/menu/lv_menu.c ****     return menu->sidebar_header_back_btn;
 1919              		.loc 1 495 5 view .LVU573
 1920              	.LVL211:
 496:../../Middlewares/LVGL/GUI/lvgl/src/widgets/menu/lv_menu.c **** }
 1921              		.loc 1 496 5 view .LVU574
 497:../../Middlewares/LVGL/GUI/lvgl/src/widgets/menu/lv_menu.c **** 
 1922              		.loc 1 497 1 is_stmt 0 view .LVU575
 1923 0002 006D     		ldr	r0, [r0, #80]
 1924              	.LVL212:
 497:../../Middlewares/LVGL/GUI/lvgl/src/widgets/menu/lv_menu.c **** 
 1925              		.loc 1 497 1 view .LVU576
 1926 0004 7047     		bx	lr
 1927              	.LVL213:
 1928              	.L129:
 493:../../Middlewares/LVGL/GUI/lvgl/src/widgets/menu/lv_menu.c **** 
 1929              		.loc 1 493 5 is_stmt 1 view .LVU577
 493:../../Middlewares/LVGL/GUI/lvgl/src/widgets/menu/lv_menu.c **** 
 1930              		.loc 1 493 5 view .LVU578
 493:../../Middlewares/LVGL/GUI/lvgl/src/widgets/menu/lv_menu.c **** 
 1931              		.loc 1 493 5 view .LVU579
 493:../../Middlewares/LVGL/GUI/lvgl/src/widgets/menu/lv_menu.c **** 
 1932              		.loc 1 493 5 view .LVU580
 493:../../Middlewares/LVGL/GUI/lvgl/src/widgets/menu/lv_menu.c **** 
 1933              		.loc 1 493 5 view .LVU581
 1934 0006 FEE7     		b	.L129
 1935              		.cfi_endproc
 1936              	.LFE190:
 1938              		.section	.text.lv_menu_back_button_is_root,"ax",%progbits
 1939              		.align	1
ARM GAS  C:\Users\28576\AppData\Local\Temp\ccAP2L0b.s 			page 58


 1940              		.global	lv_menu_back_button_is_root
 1941              		.syntax unified
 1942              		.thumb
 1943              		.thumb_func
 1945              	lv_menu_back_button_is_root:
 1946              	.LVL214:
 1947              	.LFB191:
 500:../../Middlewares/LVGL/GUI/lvgl/src/widgets/menu/lv_menu.c ****     LV_ASSERT_OBJ(menu, MY_CLASS);
 1948              		.loc 1 500 1 view -0
 1949              		.cfi_startproc
 1950              		@ args = 0, pretend = 0, frame = 0
 1951              		@ frame_needed = 0, uses_anonymous_args = 0
 1952              		@ link register save eliminated.
 501:../../Middlewares/LVGL/GUI/lvgl/src/widgets/menu/lv_menu.c **** 
 1953              		.loc 1 501 5 view .LVU583
 501:../../Middlewares/LVGL/GUI/lvgl/src/widgets/menu/lv_menu.c **** 
 1954              		.loc 1 501 5 view .LVU584
 1955 0000 38B1     		cbz	r0, .L132
 501:../../Middlewares/LVGL/GUI/lvgl/src/widgets/menu/lv_menu.c **** 
 1956              		.loc 1 501 5 view .LVU585
 501:../../Middlewares/LVGL/GUI/lvgl/src/widgets/menu/lv_menu.c **** 
 1957              		.loc 1 501 34 view .LVU586
 503:../../Middlewares/LVGL/GUI/lvgl/src/widgets/menu/lv_menu.c ****         return true;
 1958              		.loc 1 503 5 view .LVU587
 503:../../Middlewares/LVGL/GUI/lvgl/src/widgets/menu/lv_menu.c ****         return true;
 1959              		.loc 1 503 34 is_stmt 0 view .LVU588
 1960 0002 026D     		ldr	r2, [r0, #80]
 503:../../Middlewares/LVGL/GUI/lvgl/src/widgets/menu/lv_menu.c ****         return true;
 1961              		.loc 1 503 7 view .LVU589
 1962 0004 8A42     		cmp	r2, r1
 1963 0006 0BD0     		beq	.L134
 507:../../Middlewares/LVGL/GUI/lvgl/src/widgets/menu/lv_menu.c ****         return true;
 1964              		.loc 1 507 5 is_stmt 1 view .LVU590
 507:../../Middlewares/LVGL/GUI/lvgl/src/widgets/menu/lv_menu.c ****         return true;
 1965              		.loc 1 507 34 is_stmt 0 view .LVU591
 1966 0008 C26B     		ldr	r2, [r0, #60]
 507:../../Middlewares/LVGL/GUI/lvgl/src/widgets/menu/lv_menu.c ****         return true;
 1967              		.loc 1 507 7 view .LVU592
 1968 000a 8A42     		cmp	r2, r1
 1969 000c 02D0     		beq	.L137
 511:../../Middlewares/LVGL/GUI/lvgl/src/widgets/menu/lv_menu.c **** }
 1970              		.loc 1 511 12 view .LVU593
 1971 000e 0020     		movs	r0, #0
 1972              	.LVL215:
 511:../../Middlewares/LVGL/GUI/lvgl/src/widgets/menu/lv_menu.c **** }
 1973              		.loc 1 511 12 view .LVU594
 1974 0010 7047     		bx	lr
 1975              	.LVL216:
 1976              	.L132:
 501:../../Middlewares/LVGL/GUI/lvgl/src/widgets/menu/lv_menu.c **** 
 1977              		.loc 1 501 5 is_stmt 1 view .LVU595
 501:../../Middlewares/LVGL/GUI/lvgl/src/widgets/menu/lv_menu.c **** 
 1978              		.loc 1 501 5 view .LVU596
 501:../../Middlewares/LVGL/GUI/lvgl/src/widgets/menu/lv_menu.c **** 
 1979              		.loc 1 501 5 view .LVU597
 501:../../Middlewares/LVGL/GUI/lvgl/src/widgets/menu/lv_menu.c **** 
 1980              		.loc 1 501 5 view .LVU598
ARM GAS  C:\Users\28576\AppData\Local\Temp\ccAP2L0b.s 			page 59


 501:../../Middlewares/LVGL/GUI/lvgl/src/widgets/menu/lv_menu.c **** 
 1981              		.loc 1 501 5 view .LVU599
 1982 0012 FEE7     		b	.L132
 1983              	.L137:
 507:../../Middlewares/LVGL/GUI/lvgl/src/widgets/menu/lv_menu.c ****         return true;
 1984              		.loc 1 507 79 is_stmt 0 discriminator 1 view .LVU600
 1985 0014 90F86930 		ldrb	r3, [r0, #105]	@ zero_extendqisi2
 507:../../Middlewares/LVGL/GUI/lvgl/src/widgets/menu/lv_menu.c ****         return true;
 1986              		.loc 1 507 57 discriminator 1 view .LVU601
 1987 0018 012B     		cmp	r3, #1
 1988 001a 03D9     		bls	.L136
 511:../../Middlewares/LVGL/GUI/lvgl/src/widgets/menu/lv_menu.c **** }
 1989              		.loc 1 511 12 view .LVU602
 1990 001c 0020     		movs	r0, #0
 1991              	.LVL217:
 511:../../Middlewares/LVGL/GUI/lvgl/src/widgets/menu/lv_menu.c **** }
 1992              		.loc 1 511 12 view .LVU603
 1993 001e 7047     		bx	lr
 1994              	.LVL218:
 1995              	.L134:
 504:../../Middlewares/LVGL/GUI/lvgl/src/widgets/menu/lv_menu.c ****     }
 1996              		.loc 1 504 16 view .LVU604
 1997 0020 0120     		movs	r0, #1
 1998              	.LVL219:
 504:../../Middlewares/LVGL/GUI/lvgl/src/widgets/menu/lv_menu.c ****     }
 1999              		.loc 1 504 16 view .LVU605
 2000 0022 7047     		bx	lr
 2001              	.LVL220:
 2002              	.L136:
 508:../../Middlewares/LVGL/GUI/lvgl/src/widgets/menu/lv_menu.c ****     }
 2003              		.loc 1 508 16 view .LVU606
 2004 0024 0120     		movs	r0, #1
 2005              	.LVL221:
 512:../../Middlewares/LVGL/GUI/lvgl/src/widgets/menu/lv_menu.c **** 
 2006              		.loc 1 512 1 view .LVU607
 2007 0026 7047     		bx	lr
 2008              		.cfi_endproc
 2009              	.LFE191:
 2011              		.section	.text.lv_menu_clear_history,"ax",%progbits
 2012              		.align	1
 2013              		.global	lv_menu_clear_history
 2014              		.syntax unified
 2015              		.thumb
 2016              		.thumb_func
 2018              	lv_menu_clear_history:
 2019              	.LVL222:
 2020              	.LFB192:
 515:../../Middlewares/LVGL/GUI/lvgl/src/widgets/menu/lv_menu.c ****     LV_ASSERT_OBJ(obj, MY_CLASS);
 2021              		.loc 1 515 1 is_stmt 1 view -0
 2022              		.cfi_startproc
 2023              		@ args = 0, pretend = 0, frame = 0
 2024              		@ frame_needed = 0, uses_anonymous_args = 0
 516:../../Middlewares/LVGL/GUI/lvgl/src/widgets/menu/lv_menu.c **** 
 2025              		.loc 1 516 5 view .LVU609
 516:../../Middlewares/LVGL/GUI/lvgl/src/widgets/menu/lv_menu.c **** 
 2026              		.loc 1 516 5 view .LVU610
 2027 0000 40B1     		cbz	r0, .L140
ARM GAS  C:\Users\28576\AppData\Local\Temp\ccAP2L0b.s 			page 60


 515:../../Middlewares/LVGL/GUI/lvgl/src/widgets/menu/lv_menu.c ****     LV_ASSERT_OBJ(obj, MY_CLASS);
 2028              		.loc 1 515 1 is_stmt 0 view .LVU611
 2029 0002 10B5     		push	{r4, lr}
 2030              	.LCFI35:
 2031              		.cfi_def_cfa_offset 8
 2032              		.cfi_offset 4, -8
 2033              		.cfi_offset 14, -4
 516:../../Middlewares/LVGL/GUI/lvgl/src/widgets/menu/lv_menu.c **** 
 2034              		.loc 1 516 5 is_stmt 1 view .LVU612
 516:../../Middlewares/LVGL/GUI/lvgl/src/widgets/menu/lv_menu.c **** 
 2035              		.loc 1 516 33 view .LVU613
 518:../../Middlewares/LVGL/GUI/lvgl/src/widgets/menu/lv_menu.c ****     lv_ll_t * history_ll = &(menu->history_ll);
 2036              		.loc 1 518 5 view .LVU614
 2037              	.LVL223:
 519:../../Middlewares/LVGL/GUI/lvgl/src/widgets/menu/lv_menu.c **** 
 2038              		.loc 1 519 5 view .LVU615
 521:../../Middlewares/LVGL/GUI/lvgl/src/widgets/menu/lv_menu.c **** 
 2039              		.loc 1 521 5 view .LVU616
 2040 0004 0446     		mov	r4, r0
 2041 0006 5C30     		adds	r0, r0, #92
 2042              	.LVL224:
 521:../../Middlewares/LVGL/GUI/lvgl/src/widgets/menu/lv_menu.c **** 
 2043              		.loc 1 521 5 is_stmt 0 view .LVU617
 2044 0008 FFF7FEFF 		bl	lv_ll_clear
 2045              	.LVL225:
 523:../../Middlewares/LVGL/GUI/lvgl/src/widgets/menu/lv_menu.c **** }
 2046              		.loc 1 523 5 is_stmt 1 view .LVU618
 523:../../Middlewares/LVGL/GUI/lvgl/src/widgets/menu/lv_menu.c **** }
 2047              		.loc 1 523 21 is_stmt 0 view .LVU619
 2048 000c 0023     		movs	r3, #0
 2049 000e 84F86830 		strb	r3, [r4, #104]
 524:../../Middlewares/LVGL/GUI/lvgl/src/widgets/menu/lv_menu.c **** 
 2050              		.loc 1 524 1 view .LVU620
 2051 0012 10BD     		pop	{r4, pc}
 2052              	.LVL226:
 2053              	.L140:
 2054              	.LCFI36:
 2055              		.cfi_def_cfa_offset 0
 2056              		.cfi_restore 4
 2057              		.cfi_restore 14
 516:../../Middlewares/LVGL/GUI/lvgl/src/widgets/menu/lv_menu.c **** 
 2058              		.loc 1 516 5 is_stmt 1 view .LVU621
 516:../../Middlewares/LVGL/GUI/lvgl/src/widgets/menu/lv_menu.c **** 
 2059              		.loc 1 516 5 view .LVU622
 516:../../Middlewares/LVGL/GUI/lvgl/src/widgets/menu/lv_menu.c **** 
 2060              		.loc 1 516 5 view .LVU623
 516:../../Middlewares/LVGL/GUI/lvgl/src/widgets/menu/lv_menu.c **** 
 2061              		.loc 1 516 5 view .LVU624
 516:../../Middlewares/LVGL/GUI/lvgl/src/widgets/menu/lv_menu.c **** 
 2062              		.loc 1 516 5 view .LVU625
 2063 0014 FEE7     		b	.L140
 2064              		.cfi_endproc
 2065              	.LFE192:
 2067              		.section	.text.lv_menu_set_page,"ax",%progbits
 2068              		.align	1
 2069              		.global	lv_menu_set_page
 2070              		.syntax unified
ARM GAS  C:\Users\28576\AppData\Local\Temp\ccAP2L0b.s 			page 61


 2071              		.thumb
 2072              		.thumb_func
 2074              	lv_menu_set_page:
 2075              	.LVL227:
 2076              	.LFB178:
 202:../../Middlewares/LVGL/GUI/lvgl/src/widgets/menu/lv_menu.c ****     LV_ASSERT_OBJ(obj, MY_CLASS);
 2077              		.loc 1 202 1 view -0
 2078              		.cfi_startproc
 2079              		@ args = 0, pretend = 0, frame = 0
 2080              		@ frame_needed = 0, uses_anonymous_args = 0
 203:../../Middlewares/LVGL/GUI/lvgl/src/widgets/menu/lv_menu.c **** 
 2081              		.loc 1 203 5 view .LVU627
 203:../../Middlewares/LVGL/GUI/lvgl/src/widgets/menu/lv_menu.c **** 
 2082              		.loc 1 203 5 view .LVU628
 2083 0000 0028     		cmp	r0, #0
 2084 0002 49D0     		beq	.L145
 202:../../Middlewares/LVGL/GUI/lvgl/src/widgets/menu/lv_menu.c ****     LV_ASSERT_OBJ(obj, MY_CLASS);
 2085              		.loc 1 202 1 is_stmt 0 view .LVU629
 2086 0004 38B5     		push	{r3, r4, r5, lr}
 2087              	.LCFI37:
 2088              		.cfi_def_cfa_offset 16
 2089              		.cfi_offset 3, -16
 2090              		.cfi_offset 4, -12
 2091              		.cfi_offset 5, -8
 2092              		.cfi_offset 14, -4
 2093 0006 0D46     		mov	r5, r1
 2094 0008 0446     		mov	r4, r0
 203:../../Middlewares/LVGL/GUI/lvgl/src/widgets/menu/lv_menu.c **** 
 2095              		.loc 1 203 5 is_stmt 1 view .LVU630
 203:../../Middlewares/LVGL/GUI/lvgl/src/widgets/menu/lv_menu.c **** 
 2096              		.loc 1 203 33 view .LVU631
 205:../../Middlewares/LVGL/GUI/lvgl/src/widgets/menu/lv_menu.c **** 
 2097              		.loc 1 205 5 view .LVU632
 2098              	.LVL228:
 208:../../Middlewares/LVGL/GUI/lvgl/src/widgets/menu/lv_menu.c ****         lv_obj_set_parent(menu->main_page, menu->storage);
 2099              		.loc 1 208 5 view .LVU633
 208:../../Middlewares/LVGL/GUI/lvgl/src/widgets/menu/lv_menu.c ****         lv_obj_set_parent(menu->main_page, menu->storage);
 2100              		.loc 1 208 12 is_stmt 0 view .LVU634
 2101 000a 406B     		ldr	r0, [r0, #52]
 2102              	.LVL229:
 208:../../Middlewares/LVGL/GUI/lvgl/src/widgets/menu/lv_menu.c ****         lv_obj_set_parent(menu->main_page, menu->storage);
 2103              		.loc 1 208 7 view .LVU635
 2104 000c 10B1     		cbz	r0, .L146
 209:../../Middlewares/LVGL/GUI/lvgl/src/widgets/menu/lv_menu.c ****     }
 2105              		.loc 1 209 9 is_stmt 1 view .LVU636
 2106 000e E16A     		ldr	r1, [r4, #44]
 2107              	.LVL230:
 209:../../Middlewares/LVGL/GUI/lvgl/src/widgets/menu/lv_menu.c ****     }
 2108              		.loc 1 209 9 is_stmt 0 view .LVU637
 2109 0010 FFF7FEFF 		bl	lv_obj_set_parent
 2110              	.LVL231:
 2111              	.L146:
 212:../../Middlewares/LVGL/GUI/lvgl/src/widgets/menu/lv_menu.c ****         /* Add a new node */
 2112              		.loc 1 212 5 is_stmt 1 view .LVU638
 212:../../Middlewares/LVGL/GUI/lvgl/src/widgets/menu/lv_menu.c ****         /* Add a new node */
 2113              		.loc 1 212 7 is_stmt 0 view .LVU639
 2114 0014 002D     		cmp	r5, #0
ARM GAS  C:\Users\28576\AppData\Local\Temp\ccAP2L0b.s 			page 62


 2115 0016 41D0     		beq	.L147
 2116              	.LBB4:
 214:../../Middlewares/LVGL/GUI/lvgl/src/widgets/menu/lv_menu.c ****         lv_menu_history_t * new_node = lv_ll_ins_head(history_ll);
 2117              		.loc 1 214 9 is_stmt 1 view .LVU640
 2118              	.LVL232:
 215:../../Middlewares/LVGL/GUI/lvgl/src/widgets/menu/lv_menu.c ****         LV_ASSERT_MALLOC(new_node);
 2119              		.loc 1 215 9 view .LVU641
 215:../../Middlewares/LVGL/GUI/lvgl/src/widgets/menu/lv_menu.c ****         LV_ASSERT_MALLOC(new_node);
 2120              		.loc 1 215 40 is_stmt 0 view .LVU642
 2121 0018 04F15C00 		add	r0, r4, #92
 2122              	.LVL233:
 215:../../Middlewares/LVGL/GUI/lvgl/src/widgets/menu/lv_menu.c ****         LV_ASSERT_MALLOC(new_node);
 2123              		.loc 1 215 40 view .LVU643
 2124 001c FFF7FEFF 		bl	lv_ll_ins_head
 2125              	.LVL234:
 216:../../Middlewares/LVGL/GUI/lvgl/src/widgets/menu/lv_menu.c ****         new_node->page = page;
 2126              		.loc 1 216 9 is_stmt 1 view .LVU644
 216:../../Middlewares/LVGL/GUI/lvgl/src/widgets/menu/lv_menu.c ****         new_node->page = page;
 2127              		.loc 1 216 9 view .LVU645
 2128 0020 0028     		cmp	r0, #0
 2129 0022 3AD0     		beq	.L149
 216:../../Middlewares/LVGL/GUI/lvgl/src/widgets/menu/lv_menu.c ****         new_node->page = page;
 2130              		.loc 1 216 9 view .LVU646
 216:../../Middlewares/LVGL/GUI/lvgl/src/widgets/menu/lv_menu.c ****         new_node->page = page;
 2131              		.loc 1 216 35 view .LVU647
 217:../../Middlewares/LVGL/GUI/lvgl/src/widgets/menu/lv_menu.c ****         menu->cur_depth++;
 2132              		.loc 1 217 9 view .LVU648
 217:../../Middlewares/LVGL/GUI/lvgl/src/widgets/menu/lv_menu.c ****         menu->cur_depth++;
 2133              		.loc 1 217 24 is_stmt 0 view .LVU649
 2134 0024 0560     		str	r5, [r0]
 218:../../Middlewares/LVGL/GUI/lvgl/src/widgets/menu/lv_menu.c **** 
 2135              		.loc 1 218 9 is_stmt 1 view .LVU650
 218:../../Middlewares/LVGL/GUI/lvgl/src/widgets/menu/lv_menu.c **** 
 2136              		.loc 1 218 13 is_stmt 0 view .LVU651
 2137 0026 94F86830 		ldrb	r3, [r4, #104]	@ zero_extendqisi2
 218:../../Middlewares/LVGL/GUI/lvgl/src/widgets/menu/lv_menu.c **** 
 2138              		.loc 1 218 24 view .LVU652
 2139 002a 0133     		adds	r3, r3, #1
 2140 002c 84F86830 		strb	r3, [r4, #104]
 221:../../Middlewares/LVGL/GUI/lvgl/src/widgets/menu/lv_menu.c ****     }
 2141              		.loc 1 221 9 is_stmt 1 view .LVU653
 2142 0030 216B     		ldr	r1, [r4, #48]
 2143 0032 2846     		mov	r0, r5
 2144              	.LVL235:
 221:../../Middlewares/LVGL/GUI/lvgl/src/widgets/menu/lv_menu.c ****     }
 2145              		.loc 1 221 9 is_stmt 0 view .LVU654
 2146 0034 FFF7FEFF 		bl	lv_obj_set_parent
 2147              	.LVL236:
 2148              	.L150:
 221:../../Middlewares/LVGL/GUI/lvgl/src/widgets/menu/lv_menu.c ****     }
 2149              		.loc 1 221 9 view .LVU655
 2150              	.LBE4:
 228:../../Middlewares/LVGL/GUI/lvgl/src/widgets/menu/lv_menu.c **** 
 2151              		.loc 1 228 5 is_stmt 1 view .LVU656
 228:../../Middlewares/LVGL/GUI/lvgl/src/widgets/menu/lv_menu.c **** 
 2152              		.loc 1 228 21 is_stmt 0 view .LVU657
 2153 0038 6563     		str	r5, [r4, #52]
ARM GAS  C:\Users\28576\AppData\Local\Temp\ccAP2L0b.s 			page 63


 231:../../Middlewares/LVGL/GUI/lvgl/src/widgets/menu/lv_menu.c ****         if(menu->sidebar_page != NULL) {
 2154              		.loc 1 231 5 is_stmt 1 view .LVU658
 231:../../Middlewares/LVGL/GUI/lvgl/src/widgets/menu/lv_menu.c ****         if(menu->sidebar_page != NULL) {
 2155              		.loc 1 231 12 is_stmt 0 view .LVU659
 2156 003a A06D     		ldr	r0, [r4, #88]
 231:../../Middlewares/LVGL/GUI/lvgl/src/widgets/menu/lv_menu.c ****         if(menu->sidebar_page != NULL) {
 2157              		.loc 1 231 7 view .LVU660
 2158 003c 20B1     		cbz	r0, .L151
 232:../../Middlewares/LVGL/GUI/lvgl/src/widgets/menu/lv_menu.c ****             lv_obj_add_state(menu->selected_tab, LV_STATE_CHECKED);
 2159              		.loc 1 232 9 is_stmt 1 view .LVU661
 232:../../Middlewares/LVGL/GUI/lvgl/src/widgets/menu/lv_menu.c ****             lv_obj_add_state(menu->selected_tab, LV_STATE_CHECKED);
 2160              		.loc 1 232 16 is_stmt 0 view .LVU662
 2161 003e A36C     		ldr	r3, [r4, #72]
 232:../../Middlewares/LVGL/GUI/lvgl/src/widgets/menu/lv_menu.c ****             lv_obj_add_state(menu->selected_tab, LV_STATE_CHECKED);
 2162              		.loc 1 232 11 view .LVU663
 2163 0040 83B3     		cbz	r3, .L152
 233:../../Middlewares/LVGL/GUI/lvgl/src/widgets/menu/lv_menu.c ****         }
 2164              		.loc 1 233 13 is_stmt 1 view .LVU664
 2165 0042 0121     		movs	r1, #1
 2166 0044 FFF7FEFF 		bl	lv_obj_add_state
 2167              	.LVL237:
 2168              	.L151:
 241:../../Middlewares/LVGL/GUI/lvgl/src/widgets/menu/lv_menu.c ****         /* With sidebar enabled */
 2169              		.loc 1 241 5 view .LVU665
 241:../../Middlewares/LVGL/GUI/lvgl/src/widgets/menu/lv_menu.c ****         /* With sidebar enabled */
 2170              		.loc 1 241 12 is_stmt 0 view .LVU666
 2171 0048 A36C     		ldr	r3, [r4, #72]
 241:../../Middlewares/LVGL/GUI/lvgl/src/widgets/menu/lv_menu.c ****         /* With sidebar enabled */
 2172              		.loc 1 241 7 view .LVU667
 2173 004a 002B     		cmp	r3, #0
 2174 004c 40D0     		beq	.L153
 243:../../Middlewares/LVGL/GUI/lvgl/src/widgets/menu/lv_menu.c ****             if(menu->mode_root_back_btn == LV_MENU_ROOT_BACK_BUTTON_ENABLED) {
 2175              		.loc 1 243 9 is_stmt 1 view .LVU668
 243:../../Middlewares/LVGL/GUI/lvgl/src/widgets/menu/lv_menu.c ****             if(menu->mode_root_back_btn == LV_MENU_ROOT_BACK_BUTTON_ENABLED) {
 2176              		.loc 1 243 12 is_stmt 0 view .LVU669
 2177 004e 94F86A30 		ldrb	r3, [r4, #106]	@ zero_extendqisi2
 243:../../Middlewares/LVGL/GUI/lvgl/src/widgets/menu/lv_menu.c ****             if(menu->mode_root_back_btn == LV_MENU_ROOT_BACK_BUTTON_ENABLED) {
 2178              		.loc 1 243 11 view .LVU670
 2179 0052 13F0010F 		tst	r3, #1
 2180 0056 0AD0     		beq	.L154
 244:../../Middlewares/LVGL/GUI/lvgl/src/widgets/menu/lv_menu.c ****                 /* Root back btn is always shown if enabled*/
 2181              		.loc 1 244 13 is_stmt 1 view .LVU671
 244:../../Middlewares/LVGL/GUI/lvgl/src/widgets/menu/lv_menu.c ****                 /* Root back btn is always shown if enabled*/
 2182              		.loc 1 244 15 is_stmt 0 view .LVU672
 2183 0058 13F0100F 		tst	r3, #16
 2184 005c 26D0     		beq	.L155
 246:../../Middlewares/LVGL/GUI/lvgl/src/widgets/menu/lv_menu.c ****                 lv_obj_add_flag(menu->sidebar_header_back_btn, LV_OBJ_FLAG_CLICKABLE);
 2185              		.loc 1 246 17 is_stmt 1 view .LVU673
 2186 005e 0121     		movs	r1, #1
 2187 0060 206D     		ldr	r0, [r4, #80]
 2188 0062 FFF7FEFF 		bl	lv_obj_remove_flag
 2189              	.LVL238:
 247:../../Middlewares/LVGL/GUI/lvgl/src/widgets/menu/lv_menu.c ****             }
 2190              		.loc 1 247 17 view .LVU674
 2191 0066 0221     		movs	r1, #2
 2192 0068 206D     		ldr	r0, [r4, #80]
 2193 006a FFF7FEFF 		bl	lv_obj_add_flag
ARM GAS  C:\Users\28576\AppData\Local\Temp\ccAP2L0b.s 			page 64


 2194              	.LVL239:
 2195              	.L154:
 255:../../Middlewares/LVGL/GUI/lvgl/src/widgets/menu/lv_menu.c ****             lv_obj_remove_flag(menu->main_header_back_btn, LV_OBJ_FLAG_HIDDEN);
 2196              		.loc 1 255 9 view .LVU675
 255:../../Middlewares/LVGL/GUI/lvgl/src/widgets/menu/lv_menu.c ****             lv_obj_remove_flag(menu->main_header_back_btn, LV_OBJ_FLAG_HIDDEN);
 2197              		.loc 1 255 16 is_stmt 0 view .LVU676
 2198 006e 94F86830 		ldrb	r3, [r4, #104]	@ zero_extendqisi2
 255:../../Middlewares/LVGL/GUI/lvgl/src/widgets/menu/lv_menu.c ****             lv_obj_remove_flag(menu->main_header_back_btn, LV_OBJ_FLAG_HIDDEN);
 2199              		.loc 1 255 11 view .LVU677
 2200 0072 012B     		cmp	r3, #1
 2201 0074 23D9     		bls	.L156
 256:../../Middlewares/LVGL/GUI/lvgl/src/widgets/menu/lv_menu.c ****             lv_obj_add_flag(menu->main_header_back_btn, LV_OBJ_FLAG_CLICKABLE);
 2202              		.loc 1 256 13 is_stmt 1 view .LVU678
 2203 0076 0121     		movs	r1, #1
 2204 0078 E06B     		ldr	r0, [r4, #60]
 2205 007a FFF7FEFF 		bl	lv_obj_remove_flag
 2206              	.LVL240:
 257:../../Middlewares/LVGL/GUI/lvgl/src/widgets/menu/lv_menu.c ****         }
 2207              		.loc 1 257 13 view .LVU679
 2208 007e 0221     		movs	r1, #2
 2209 0080 E06B     		ldr	r0, [r4, #60]
 2210 0082 FFF7FEFF 		bl	lv_obj_add_flag
 2211              	.LVL241:
 2212              	.L157:
 276:../../Middlewares/LVGL/GUI/lvgl/src/widgets/menu/lv_menu.c **** 
 2213              		.loc 1 276 5 view .LVU680
 2214 0086 0022     		movs	r2, #0
 2215 0088 2321     		movs	r1, #35
 2216 008a 2046     		mov	r0, r4
 2217 008c FFF7FEFF 		bl	lv_obj_send_event
 2218              	.LVL242:
 278:../../Middlewares/LVGL/GUI/lvgl/src/widgets/menu/lv_menu.c **** }
 2219              		.loc 1 278 5 view .LVU681
 2220 0090 2046     		mov	r0, r4
 2221 0092 FFF7FEFF 		bl	lv_menu_refr_main_header_mode
 2222              	.LVL243:
 279:../../Middlewares/LVGL/GUI/lvgl/src/widgets/menu/lv_menu.c **** 
 2223              		.loc 1 279 1 is_stmt 0 view .LVU682
 2224 0096 38BD     		pop	{r3, r4, r5, pc}
 2225              	.LVL244:
 2226              	.L145:
 2227              	.LCFI38:
 2228              		.cfi_def_cfa_offset 0
 2229              		.cfi_restore 3
 2230              		.cfi_restore 4
 2231              		.cfi_restore 5
 2232              		.cfi_restore 14
 203:../../Middlewares/LVGL/GUI/lvgl/src/widgets/menu/lv_menu.c **** 
 2233              		.loc 1 203 5 is_stmt 1 view .LVU683
 203:../../Middlewares/LVGL/GUI/lvgl/src/widgets/menu/lv_menu.c **** 
 2234              		.loc 1 203 5 view .LVU684
 203:../../Middlewares/LVGL/GUI/lvgl/src/widgets/menu/lv_menu.c **** 
 2235              		.loc 1 203 5 view .LVU685
 203:../../Middlewares/LVGL/GUI/lvgl/src/widgets/menu/lv_menu.c **** 
 2236              		.loc 1 203 5 view .LVU686
 203:../../Middlewares/LVGL/GUI/lvgl/src/widgets/menu/lv_menu.c **** 
 2237              		.loc 1 203 5 view .LVU687
ARM GAS  C:\Users\28576\AppData\Local\Temp\ccAP2L0b.s 			page 65


 2238 0098 FEE7     		b	.L145
 2239              	.LVL245:
 2240              	.L149:
 2241              	.LCFI39:
 2242              		.cfi_def_cfa_offset 16
 2243              		.cfi_offset 3, -16
 2244              		.cfi_offset 4, -12
 2245              		.cfi_offset 5, -8
 2246              		.cfi_offset 14, -4
 2247              	.LBB5:
 216:../../Middlewares/LVGL/GUI/lvgl/src/widgets/menu/lv_menu.c ****         new_node->page = page;
 2248              		.loc 1 216 9 view .LVU688
 216:../../Middlewares/LVGL/GUI/lvgl/src/widgets/menu/lv_menu.c ****         new_node->page = page;
 2249              		.loc 1 216 9 view .LVU689
 216:../../Middlewares/LVGL/GUI/lvgl/src/widgets/menu/lv_menu.c ****         new_node->page = page;
 2250              		.loc 1 216 9 view .LVU690
 216:../../Middlewares/LVGL/GUI/lvgl/src/widgets/menu/lv_menu.c ****         new_node->page = page;
 2251              		.loc 1 216 9 view .LVU691
 216:../../Middlewares/LVGL/GUI/lvgl/src/widgets/menu/lv_menu.c ****         new_node->page = page;
 2252              		.loc 1 216 9 view .LVU692
 2253 009a FEE7     		b	.L149
 2254              	.LVL246:
 2255              	.L147:
 216:../../Middlewares/LVGL/GUI/lvgl/src/widgets/menu/lv_menu.c ****         new_node->page = page;
 2256              		.loc 1 216 9 is_stmt 0 view .LVU693
 2257              	.LBE5:
 225:../../Middlewares/LVGL/GUI/lvgl/src/widgets/menu/lv_menu.c ****     }
 2258              		.loc 1 225 9 is_stmt 1 view .LVU694
 2259 009c 2046     		mov	r0, r4
 2260 009e FFF7FEFF 		bl	lv_menu_clear_history
 2261              	.LVL247:
 2262 00a2 C9E7     		b	.L150
 2263              	.L152:
 236:../../Middlewares/LVGL/GUI/lvgl/src/widgets/menu/lv_menu.c ****         }
 2264              		.loc 1 236 13 view .LVU695
 2265 00a4 0121     		movs	r1, #1
 2266 00a6 FFF7FEFF 		bl	lv_obj_remove_state
 2267              	.LVL248:
 2268 00aa CDE7     		b	.L151
 2269              	.L155:
 250:../../Middlewares/LVGL/GUI/lvgl/src/widgets/menu/lv_menu.c ****                 lv_obj_remove_flag(menu->sidebar_header_back_btn, LV_OBJ_FLAG_CLICKABLE);
 2270              		.loc 1 250 17 view .LVU696
 2271 00ac 0121     		movs	r1, #1
 2272 00ae 206D     		ldr	r0, [r4, #80]
 2273 00b0 FFF7FEFF 		bl	lv_obj_add_flag
 2274              	.LVL249:
 251:../../Middlewares/LVGL/GUI/lvgl/src/widgets/menu/lv_menu.c ****             }
 2275              		.loc 1 251 17 view .LVU697
 2276 00b4 0221     		movs	r1, #2
 2277 00b6 206D     		ldr	r0, [r4, #80]
 2278 00b8 FFF7FEFF 		bl	lv_obj_remove_flag
 2279              	.LVL250:
 2280 00bc D7E7     		b	.L154
 2281              	.L156:
 260:../../Middlewares/LVGL/GUI/lvgl/src/widgets/menu/lv_menu.c ****             lv_obj_remove_flag(menu->main_header_back_btn, LV_OBJ_FLAG_CLICKABLE);
 2282              		.loc 1 260 13 view .LVU698
 2283 00be 0121     		movs	r1, #1
ARM GAS  C:\Users\28576\AppData\Local\Temp\ccAP2L0b.s 			page 66


 2284 00c0 E06B     		ldr	r0, [r4, #60]
 2285 00c2 FFF7FEFF 		bl	lv_obj_add_flag
 2286              	.LVL251:
 261:../../Middlewares/LVGL/GUI/lvgl/src/widgets/menu/lv_menu.c ****         }
 2287              		.loc 1 261 13 view .LVU699
 2288 00c6 0221     		movs	r1, #2
 2289 00c8 E06B     		ldr	r0, [r4, #60]
 2290 00ca FFF7FEFF 		bl	lv_obj_remove_flag
 2291              	.LVL252:
 2292 00ce DAE7     		b	.L157
 2293              	.L153:
 266:../../Middlewares/LVGL/GUI/lvgl/src/widgets/menu/lv_menu.c ****             lv_obj_remove_flag(menu->main_header_back_btn, LV_OBJ_FLAG_HIDDEN);
 2294              		.loc 1 266 9 view .LVU700
 266:../../Middlewares/LVGL/GUI/lvgl/src/widgets/menu/lv_menu.c ****             lv_obj_remove_flag(menu->main_header_back_btn, LV_OBJ_FLAG_HIDDEN);
 2295              		.loc 1 266 16 is_stmt 0 view .LVU701
 2296 00d0 94F86830 		ldrb	r3, [r4, #104]	@ zero_extendqisi2
 266:../../Middlewares/LVGL/GUI/lvgl/src/widgets/menu/lv_menu.c ****             lv_obj_remove_flag(menu->main_header_back_btn, LV_OBJ_FLAG_HIDDEN);
 2297              		.loc 1 266 11 view .LVU702
 2298 00d4 012B     		cmp	r3, #1
 2299 00d6 04D8     		bhi	.L158
 266:../../Middlewares/LVGL/GUI/lvgl/src/widgets/menu/lv_menu.c ****             lv_obj_remove_flag(menu->main_header_back_btn, LV_OBJ_FLAG_HIDDEN);
 2300              		.loc 1 266 61 discriminator 1 view .LVU703
 2301 00d8 94F86A30 		ldrb	r3, [r4, #106]	@ zero_extendqisi2
 266:../../Middlewares/LVGL/GUI/lvgl/src/widgets/menu/lv_menu.c ****             lv_obj_remove_flag(menu->main_header_back_btn, LV_OBJ_FLAG_HIDDEN);
 2302              		.loc 1 266 33 discriminator 1 view .LVU704
 2303 00dc 13F0100F 		tst	r3, #16
 2304 00e0 08D0     		beq	.L159
 2305              	.L158:
 267:../../Middlewares/LVGL/GUI/lvgl/src/widgets/menu/lv_menu.c ****             lv_obj_add_flag(menu->main_header_back_btn, LV_OBJ_FLAG_CLICKABLE);
 2306              		.loc 1 267 13 is_stmt 1 view .LVU705
 2307 00e2 0121     		movs	r1, #1
 2308 00e4 E06B     		ldr	r0, [r4, #60]
 2309 00e6 FFF7FEFF 		bl	lv_obj_remove_flag
 2310              	.LVL253:
 268:../../Middlewares/LVGL/GUI/lvgl/src/widgets/menu/lv_menu.c ****         }
 2311              		.loc 1 268 13 view .LVU706
 2312 00ea 0221     		movs	r1, #2
 2313 00ec E06B     		ldr	r0, [r4, #60]
 2314 00ee FFF7FEFF 		bl	lv_obj_add_flag
 2315              	.LVL254:
 2316 00f2 C8E7     		b	.L157
 2317              	.L159:
 271:../../Middlewares/LVGL/GUI/lvgl/src/widgets/menu/lv_menu.c ****             lv_obj_remove_flag(menu->main_header_back_btn, LV_OBJ_FLAG_CLICKABLE);
 2318              		.loc 1 271 13 view .LVU707
 2319 00f4 0121     		movs	r1, #1
 2320 00f6 E06B     		ldr	r0, [r4, #60]
 2321 00f8 FFF7FEFF 		bl	lv_obj_add_flag
 2322              	.LVL255:
 272:../../Middlewares/LVGL/GUI/lvgl/src/widgets/menu/lv_menu.c ****         }
 2323              		.loc 1 272 13 view .LVU708
 2324 00fc 0221     		movs	r1, #2
 2325 00fe E06B     		ldr	r0, [r4, #60]
 2326 0100 FFF7FEFF 		bl	lv_obj_remove_flag
 2327              	.LVL256:
 2328 0104 BFE7     		b	.L157
 2329              		.cfi_endproc
 2330              	.LFE178:
ARM GAS  C:\Users\28576\AppData\Local\Temp\ccAP2L0b.s 			page 67


 2332              		.section	.text.lv_menu_back_event_cb,"ax",%progbits
 2333              		.align	1
 2334              		.syntax unified
 2335              		.thumb
 2336              		.thumb_func
 2338              	lv_menu_back_event_cb:
 2339              	.LVL257:
 2340              	.LFB203:
 769:../../Middlewares/LVGL/GUI/lvgl/src/widgets/menu/lv_menu.c ****     lv_event_code_t code = lv_event_get_code(e);
 2341              		.loc 1 769 1 view -0
 2342              		.cfi_startproc
 2343              		@ args = 0, pretend = 0, frame = 0
 2344              		@ frame_needed = 0, uses_anonymous_args = 0
 769:../../Middlewares/LVGL/GUI/lvgl/src/widgets/menu/lv_menu.c ****     lv_event_code_t code = lv_event_get_code(e);
 2345              		.loc 1 769 1 is_stmt 0 view .LVU710
 2346 0000 F8B5     		push	{r3, r4, r5, r6, r7, lr}
 2347              	.LCFI40:
 2348              		.cfi_def_cfa_offset 24
 2349              		.cfi_offset 3, -24
 2350              		.cfi_offset 4, -20
 2351              		.cfi_offset 5, -16
 2352              		.cfi_offset 6, -12
 2353              		.cfi_offset 7, -8
 2354              		.cfi_offset 14, -4
 2355 0002 0446     		mov	r4, r0
 770:../../Middlewares/LVGL/GUI/lvgl/src/widgets/menu/lv_menu.c ****     /* LV_EVENT_CLICKED */
 2356              		.loc 1 770 5 is_stmt 1 view .LVU711
 770:../../Middlewares/LVGL/GUI/lvgl/src/widgets/menu/lv_menu.c ****     /* LV_EVENT_CLICKED */
 2357              		.loc 1 770 28 is_stmt 0 view .LVU712
 2358 0004 FFF7FEFF 		bl	lv_event_get_code
 2359              	.LVL258:
 772:../../Middlewares/LVGL/GUI/lvgl/src/widgets/menu/lv_menu.c ****         lv_obj_t * obj = lv_event_get_current_target(e);
 2360              		.loc 1 772 5 is_stmt 1 view .LVU713
 772:../../Middlewares/LVGL/GUI/lvgl/src/widgets/menu/lv_menu.c ****         lv_obj_t * obj = lv_event_get_current_target(e);
 2361              		.loc 1 772 7 is_stmt 0 view .LVU714
 2362 0008 0A28     		cmp	r0, #10
 2363 000a 00D0     		beq	.L166
 2364              	.LVL259:
 2365              	.L162:
 805:../../Middlewares/LVGL/GUI/lvgl/src/widgets/menu/lv_menu.c **** 
 2366              		.loc 1 805 1 view .LVU715
 2367 000c F8BD     		pop	{r3, r4, r5, r6, r7, pc}
 2368              	.LVL260:
 2369              	.L166:
 2370              	.LBB6:
 773:../../Middlewares/LVGL/GUI/lvgl/src/widgets/menu/lv_menu.c ****         lv_menu_t * menu = (lv_menu_t *)lv_event_get_user_data(e);
 2371              		.loc 1 773 9 is_stmt 1 view .LVU716
 773:../../Middlewares/LVGL/GUI/lvgl/src/widgets/menu/lv_menu.c ****         lv_menu_t * menu = (lv_menu_t *)lv_event_get_user_data(e);
 2372              		.loc 1 773 26 is_stmt 0 view .LVU717
 2373 000e 2546     		mov	r5, r4
 2374 0010 2046     		mov	r0, r4
 2375              	.LVL261:
 773:../../Middlewares/LVGL/GUI/lvgl/src/widgets/menu/lv_menu.c ****         lv_menu_t * menu = (lv_menu_t *)lv_event_get_user_data(e);
 2376              		.loc 1 773 26 view .LVU718
 2377 0012 FFF7FEFF 		bl	lv_event_get_current_target
 2378              	.LVL262:
 2379 0016 0446     		mov	r4, r0
ARM GAS  C:\Users\28576\AppData\Local\Temp\ccAP2L0b.s 			page 68


 2380              	.LVL263:
 773:../../Middlewares/LVGL/GUI/lvgl/src/widgets/menu/lv_menu.c ****         lv_menu_t * menu = (lv_menu_t *)lv_event_get_user_data(e);
 2381              		.loc 1 773 26 view .LVU719
 2382 0018 0646     		mov	r6, r0
 2383              	.LVL264:
 774:../../Middlewares/LVGL/GUI/lvgl/src/widgets/menu/lv_menu.c **** 
 2384              		.loc 1 774 9 is_stmt 1 view .LVU720
 774:../../Middlewares/LVGL/GUI/lvgl/src/widgets/menu/lv_menu.c **** 
 2385              		.loc 1 774 41 is_stmt 0 view .LVU721
 2386 001a 2846     		mov	r0, r5
 2387              	.LVL265:
 774:../../Middlewares/LVGL/GUI/lvgl/src/widgets/menu/lv_menu.c **** 
 2388              		.loc 1 774 41 view .LVU722
 2389 001c FFF7FEFF 		bl	lv_event_get_user_data
 2390              	.LVL266:
 2391 0020 0246     		mov	r2, r0
 2392              	.LVL267:
 776:../../Middlewares/LVGL/GUI/lvgl/src/widgets/menu/lv_menu.c **** 
 2393              		.loc 1 776 9 is_stmt 1 view .LVU723
 776:../../Middlewares/LVGL/GUI/lvgl/src/widgets/menu/lv_menu.c **** 
 2394              		.loc 1 776 25 is_stmt 0 view .LVU724
 2395 0022 C36B     		ldr	r3, [r0, #60]
 776:../../Middlewares/LVGL/GUI/lvgl/src/widgets/menu/lv_menu.c **** 
 2396              		.loc 1 776 11 view .LVU725
 2397 0024 A342     		cmp	r3, r4
 2398 0026 02D0     		beq	.L164
 776:../../Middlewares/LVGL/GUI/lvgl/src/widgets/menu/lv_menu.c **** 
 2399              		.loc 1 776 62 discriminator 1 view .LVU726
 2400 0028 036D     		ldr	r3, [r0, #80]
 776:../../Middlewares/LVGL/GUI/lvgl/src/widgets/menu/lv_menu.c **** 
 2401              		.loc 1 776 12 discriminator 1 view .LVU727
 2402 002a A342     		cmp	r3, r4
 2403 002c EED1     		bne	.L162
 2404              	.L164:
 778:../../Middlewares/LVGL/GUI/lvgl/src/widgets/menu/lv_menu.c **** 
 2405              		.loc 1 778 9 is_stmt 1 view .LVU728
 778:../../Middlewares/LVGL/GUI/lvgl/src/widgets/menu/lv_menu.c **** 
 2406              		.loc 1 778 32 is_stmt 0 view .LVU729
 2407 002e 92F86830 		ldrb	r3, [r2, #104]	@ zero_extendqisi2
 778:../../Middlewares/LVGL/GUI/lvgl/src/widgets/menu/lv_menu.c **** 
 2408              		.loc 1 778 26 view .LVU730
 2409 0032 1446     		mov	r4, r2
 2410              	.LVL268:
 778:../../Middlewares/LVGL/GUI/lvgl/src/widgets/menu/lv_menu.c **** 
 2411              		.loc 1 778 26 view .LVU731
 2412 0034 82F86930 		strb	r3, [r2, #105]
 780:../../Middlewares/LVGL/GUI/lvgl/src/widgets/menu/lv_menu.c **** 
 2413              		.loc 1 780 9 is_stmt 1 view .LVU732
 780:../../Middlewares/LVGL/GUI/lvgl/src/widgets/menu/lv_menu.c **** 
 2414              		.loc 1 780 12 is_stmt 0 view .LVU733
 2415 0038 3146     		mov	r1, r6
 2416 003a 1046     		mov	r0, r2
 2417              	.LVL269:
 780:../../Middlewares/LVGL/GUI/lvgl/src/widgets/menu/lv_menu.c **** 
 2418              		.loc 1 780 12 view .LVU734
 2419 003c FFF7FEFF 		bl	lv_menu_back_button_is_root
 2420              	.LVL270:
ARM GAS  C:\Users\28576\AppData\Local\Temp\ccAP2L0b.s 			page 69


 780:../../Middlewares/LVGL/GUI/lvgl/src/widgets/menu/lv_menu.c **** 
 2421              		.loc 1 780 11 discriminator 1 view .LVU735
 2422 0040 0028     		cmp	r0, #0
 2423 0042 E3D1     		bne	.L162
 782:../../Middlewares/LVGL/GUI/lvgl/src/widgets/menu/lv_menu.c **** 
 2424              		.loc 1 782 9 is_stmt 1 view .LVU736
 782:../../Middlewares/LVGL/GUI/lvgl/src/widgets/menu/lv_menu.c **** 
 2425              		.loc 1 782 19 is_stmt 0 view .LVU737
 2426 0044 04F15C03 		add	r3, r4, #92
 2427 0048 1D46     		mov	r5, r3
 2428              	.LVL271:
 785:../../Middlewares/LVGL/GUI/lvgl/src/widgets/menu/lv_menu.c **** 
 2429              		.loc 1 785 9 is_stmt 1 view .LVU738
 785:../../Middlewares/LVGL/GUI/lvgl/src/widgets/menu/lv_menu.c **** 
 2430              		.loc 1 785 40 is_stmt 0 view .LVU739
 2431 004a 1846     		mov	r0, r3
 2432 004c FFF7FEFF 		bl	lv_ll_get_head
 2433              	.LVL272:
 785:../../Middlewares/LVGL/GUI/lvgl/src/widgets/menu/lv_menu.c **** 
 2434              		.loc 1 785 40 view .LVU740
 2435 0050 0646     		mov	r6, r0
 2436              	.LVL273:
 788:../../Middlewares/LVGL/GUI/lvgl/src/widgets/menu/lv_menu.c **** 
 2437              		.loc 1 788 9 is_stmt 1 view .LVU741
 788:../../Middlewares/LVGL/GUI/lvgl/src/widgets/menu/lv_menu.c **** 
 2438              		.loc 1 788 41 is_stmt 0 view .LVU742
 2439 0052 0146     		mov	r1, r0
 2440 0054 2846     		mov	r0, r5
 2441              	.LVL274:
 788:../../Middlewares/LVGL/GUI/lvgl/src/widgets/menu/lv_menu.c **** 
 2442              		.loc 1 788 41 view .LVU743
 2443 0056 FFF7FEFF 		bl	lv_ll_get_next
 2444              	.LVL275:
 790:../../Middlewares/LVGL/GUI/lvgl/src/widgets/menu/lv_menu.c ****             /* Previous menu exists */
 2445              		.loc 1 790 9 is_stmt 1 view .LVU744
 790:../../Middlewares/LVGL/GUI/lvgl/src/widgets/menu/lv_menu.c ****             /* Previous menu exists */
 2446              		.loc 1 790 11 is_stmt 0 view .LVU745
 2447 005a 0746     		mov	r7, r0
 2448 005c 0028     		cmp	r0, #0
 2449 005e D5D0     		beq	.L162
 793:../../Middlewares/LVGL/GUI/lvgl/src/widgets/menu/lv_menu.c ****             lv_free(act_hist);
 2450              		.loc 1 793 13 is_stmt 1 view .LVU746
 2451 0060 3146     		mov	r1, r6
 2452 0062 2846     		mov	r0, r5
 2453              	.LVL276:
