ARM GAS  C:\Users\28576\AppData\Local\Temp\cclWIAwm.s 			page 1


   1              		.cpu cortex-m7
   2              		.arch armv7e-m
   3              		.fpu fpv5-d16
   4              		.eabi_attribute 28, 1
   5              		.eabi_attribute 20, 1
   6              		.eabi_attribute 21, 1
   7              		.eabi_attribute 23, 3
   8              		.eabi_attribute 24, 1
   9              		.eabi_attribute 25, 1
  10              		.eabi_attribute 26, 1
  11              		.eabi_attribute 30, 1
  12              		.eabi_attribute 34, 1
  13              		.eabi_attribute 18, 4
  14              		.file	"lv_obj_draw.c"
  15              		.text
  16              	.Ltext0:
  17              		.cfi_sections	.debug_frame
  18              		.file 1 "../../Middlewares/LVGL/GUI/lvgl/src/core/lv_obj_draw.c"
  19              		.section	.text.get_layer_opa,"ax",%progbits
  20              		.align	1
  21              		.syntax unified
  22              		.thumb
  23              		.thumb_func
  25              	get_layer_opa:
  26              	.LVL0:
  27              	.LFB181:
   1:../../Middlewares/LVGL/GUI/lvgl/src/core/lv_obj_draw.c **** /**
   2:../../Middlewares/LVGL/GUI/lvgl/src/core/lv_obj_draw.c ****  * @file lv_obj_draw.c
   3:../../Middlewares/LVGL/GUI/lvgl/src/core/lv_obj_draw.c ****  *
   4:../../Middlewares/LVGL/GUI/lvgl/src/core/lv_obj_draw.c ****  */
   5:../../Middlewares/LVGL/GUI/lvgl/src/core/lv_obj_draw.c **** 
   6:../../Middlewares/LVGL/GUI/lvgl/src/core/lv_obj_draw.c **** /*********************
   7:../../Middlewares/LVGL/GUI/lvgl/src/core/lv_obj_draw.c ****  *      INCLUDES
   8:../../Middlewares/LVGL/GUI/lvgl/src/core/lv_obj_draw.c ****  *********************/
   9:../../Middlewares/LVGL/GUI/lvgl/src/core/lv_obj_draw.c **** #include "lv_obj_draw_private.h"
  10:../../Middlewares/LVGL/GUI/lvgl/src/core/lv_obj_draw.c **** #include "lv_obj_private.h"
  11:../../Middlewares/LVGL/GUI/lvgl/src/core/lv_obj_draw.c **** #include "lv_obj_style.h"
  12:../../Middlewares/LVGL/GUI/lvgl/src/core/lv_obj_draw.c **** #include "../display/lv_display.h"
  13:../../Middlewares/LVGL/GUI/lvgl/src/core/lv_obj_draw.c **** #include "../indev/lv_indev.h"
  14:../../Middlewares/LVGL/GUI/lvgl/src/core/lv_obj_draw.c **** #include "../stdlib/lv_string.h"
  15:../../Middlewares/LVGL/GUI/lvgl/src/core/lv_obj_draw.c **** #include "../draw/lv_draw_arc.h"
  16:../../Middlewares/LVGL/GUI/lvgl/src/core/lv_obj_draw.c **** 
  17:../../Middlewares/LVGL/GUI/lvgl/src/core/lv_obj_draw.c **** /*********************
  18:../../Middlewares/LVGL/GUI/lvgl/src/core/lv_obj_draw.c ****  *      DEFINES
  19:../../Middlewares/LVGL/GUI/lvgl/src/core/lv_obj_draw.c ****  *********************/
  20:../../Middlewares/LVGL/GUI/lvgl/src/core/lv_obj_draw.c **** #define MY_CLASS (&lv_obj_class)
  21:../../Middlewares/LVGL/GUI/lvgl/src/core/lv_obj_draw.c **** 
  22:../../Middlewares/LVGL/GUI/lvgl/src/core/lv_obj_draw.c **** /**********************
  23:../../Middlewares/LVGL/GUI/lvgl/src/core/lv_obj_draw.c ****  *      TYPEDEFS
  24:../../Middlewares/LVGL/GUI/lvgl/src/core/lv_obj_draw.c ****  **********************/
  25:../../Middlewares/LVGL/GUI/lvgl/src/core/lv_obj_draw.c **** 
  26:../../Middlewares/LVGL/GUI/lvgl/src/core/lv_obj_draw.c **** /**********************
  27:../../Middlewares/LVGL/GUI/lvgl/src/core/lv_obj_draw.c ****  *  STATIC PROTOTYPES
  28:../../Middlewares/LVGL/GUI/lvgl/src/core/lv_obj_draw.c ****  **********************/
  29:../../Middlewares/LVGL/GUI/lvgl/src/core/lv_obj_draw.c **** 
  30:../../Middlewares/LVGL/GUI/lvgl/src/core/lv_obj_draw.c **** static inline lv_opa_t get_layer_opa(const lv_obj_t * obj, lv_part_t part, const lv_draw_dsc_base_t
  31:../../Middlewares/LVGL/GUI/lvgl/src/core/lv_obj_draw.c **** static lv_color_t normal_apply_layer_recolor(const lv_obj_t * obj, lv_part_t part,  const lv_draw_d
ARM GAS  C:\Users\28576\AppData\Local\Temp\cclWIAwm.s 			page 2


  32:../../Middlewares/LVGL/GUI/lvgl/src/core/lv_obj_draw.c ****                                              lv_color_t color);
  33:../../Middlewares/LVGL/GUI/lvgl/src/core/lv_obj_draw.c **** static lv_color32_t image_apply_layer_recolor(const lv_obj_t * obj, lv_part_t part,
  34:../../Middlewares/LVGL/GUI/lvgl/src/core/lv_obj_draw.c ****                                               const lv_draw_dsc_base_t * base_dsc, lv_color_t color
  35:../../Middlewares/LVGL/GUI/lvgl/src/core/lv_obj_draw.c **** 
  36:../../Middlewares/LVGL/GUI/lvgl/src/core/lv_obj_draw.c **** /**********************
  37:../../Middlewares/LVGL/GUI/lvgl/src/core/lv_obj_draw.c ****  *  STATIC VARIABLES
  38:../../Middlewares/LVGL/GUI/lvgl/src/core/lv_obj_draw.c ****  **********************/
  39:../../Middlewares/LVGL/GUI/lvgl/src/core/lv_obj_draw.c **** 
  40:../../Middlewares/LVGL/GUI/lvgl/src/core/lv_obj_draw.c **** /**********************
  41:../../Middlewares/LVGL/GUI/lvgl/src/core/lv_obj_draw.c ****  *      MACROS
  42:../../Middlewares/LVGL/GUI/lvgl/src/core/lv_obj_draw.c ****  **********************/
  43:../../Middlewares/LVGL/GUI/lvgl/src/core/lv_obj_draw.c **** 
  44:../../Middlewares/LVGL/GUI/lvgl/src/core/lv_obj_draw.c **** /**********************
  45:../../Middlewares/LVGL/GUI/lvgl/src/core/lv_obj_draw.c ****  *   GLOBAL FUNCTIONS
  46:../../Middlewares/LVGL/GUI/lvgl/src/core/lv_obj_draw.c ****  **********************/
  47:../../Middlewares/LVGL/GUI/lvgl/src/core/lv_obj_draw.c **** 
  48:../../Middlewares/LVGL/GUI/lvgl/src/core/lv_obj_draw.c **** void lv_obj_init_draw_rect_dsc(lv_obj_t * obj, lv_part_t part, lv_draw_rect_dsc_t * draw_dsc)
  49:../../Middlewares/LVGL/GUI/lvgl/src/core/lv_obj_draw.c **** {
  50:../../Middlewares/LVGL/GUI/lvgl/src/core/lv_obj_draw.c ****     LV_PROFILER_DRAW_BEGIN;
  51:../../Middlewares/LVGL/GUI/lvgl/src/core/lv_obj_draw.c ****     draw_dsc->base.obj = obj;
  52:../../Middlewares/LVGL/GUI/lvgl/src/core/lv_obj_draw.c ****     draw_dsc->base.part = part;
  53:../../Middlewares/LVGL/GUI/lvgl/src/core/lv_obj_draw.c **** 
  54:../../Middlewares/LVGL/GUI/lvgl/src/core/lv_obj_draw.c ****     lv_opa_t opa = get_layer_opa(obj, part, &draw_dsc->base);
  55:../../Middlewares/LVGL/GUI/lvgl/src/core/lv_obj_draw.c ****     if(part != LV_PART_MAIN) {
  56:../../Middlewares/LVGL/GUI/lvgl/src/core/lv_obj_draw.c ****         if(opa <= LV_OPA_MIN) {
  57:../../Middlewares/LVGL/GUI/lvgl/src/core/lv_obj_draw.c ****             draw_dsc->bg_opa = LV_OPA_TRANSP;
  58:../../Middlewares/LVGL/GUI/lvgl/src/core/lv_obj_draw.c ****             draw_dsc->bg_image_opa = LV_OPA_TRANSP;
  59:../../Middlewares/LVGL/GUI/lvgl/src/core/lv_obj_draw.c ****             draw_dsc->border_opa = LV_OPA_TRANSP;
  60:../../Middlewares/LVGL/GUI/lvgl/src/core/lv_obj_draw.c ****             draw_dsc->outline_opa = LV_OPA_TRANSP;
  61:../../Middlewares/LVGL/GUI/lvgl/src/core/lv_obj_draw.c ****             draw_dsc->shadow_opa = LV_OPA_TRANSP;
  62:../../Middlewares/LVGL/GUI/lvgl/src/core/lv_obj_draw.c ****             LV_PROFILER_DRAW_END;
  63:../../Middlewares/LVGL/GUI/lvgl/src/core/lv_obj_draw.c ****             return;
  64:../../Middlewares/LVGL/GUI/lvgl/src/core/lv_obj_draw.c ****         }
  65:../../Middlewares/LVGL/GUI/lvgl/src/core/lv_obj_draw.c ****     }
  66:../../Middlewares/LVGL/GUI/lvgl/src/core/lv_obj_draw.c **** 
  67:../../Middlewares/LVGL/GUI/lvgl/src/core/lv_obj_draw.c ****     draw_dsc->radius = lv_obj_get_style_radius(obj, part);
  68:../../Middlewares/LVGL/GUI/lvgl/src/core/lv_obj_draw.c **** 
  69:../../Middlewares/LVGL/GUI/lvgl/src/core/lv_obj_draw.c ****     if(draw_dsc->bg_opa != LV_OPA_TRANSP) {
  70:../../Middlewares/LVGL/GUI/lvgl/src/core/lv_obj_draw.c ****         draw_dsc->bg_opa = lv_obj_get_style_bg_opa(obj, part);
  71:../../Middlewares/LVGL/GUI/lvgl/src/core/lv_obj_draw.c ****         if(draw_dsc->bg_opa > LV_OPA_MIN) {
  72:../../Middlewares/LVGL/GUI/lvgl/src/core/lv_obj_draw.c ****             lv_color_t bg_color = lv_obj_get_style_bg_color_filtered(obj, part);
  73:../../Middlewares/LVGL/GUI/lvgl/src/core/lv_obj_draw.c ****             draw_dsc->bg_color = normal_apply_layer_recolor(obj, part, &draw_dsc->base, bg_color);
  74:../../Middlewares/LVGL/GUI/lvgl/src/core/lv_obj_draw.c ****             const lv_grad_dsc_t * grad = lv_obj_get_style_bg_grad(obj, part);
  75:../../Middlewares/LVGL/GUI/lvgl/src/core/lv_obj_draw.c ****             if(grad && grad->dir != LV_GRAD_DIR_NONE) {
  76:../../Middlewares/LVGL/GUI/lvgl/src/core/lv_obj_draw.c ****                 lv_memcpy(&draw_dsc->bg_grad, grad, sizeof(*grad));
  77:../../Middlewares/LVGL/GUI/lvgl/src/core/lv_obj_draw.c ****             }
  78:../../Middlewares/LVGL/GUI/lvgl/src/core/lv_obj_draw.c ****             else {
  79:../../Middlewares/LVGL/GUI/lvgl/src/core/lv_obj_draw.c ****                 draw_dsc->bg_grad.dir = lv_obj_get_style_bg_grad_dir(obj, part);
  80:../../Middlewares/LVGL/GUI/lvgl/src/core/lv_obj_draw.c ****                 if(draw_dsc->bg_grad.dir != LV_GRAD_DIR_NONE) {
  81:../../Middlewares/LVGL/GUI/lvgl/src/core/lv_obj_draw.c ****                     draw_dsc->bg_grad.stops[0].color = draw_dsc->bg_color;
  82:../../Middlewares/LVGL/GUI/lvgl/src/core/lv_obj_draw.c ****                     lv_color_t bg_grad_color = lv_obj_get_style_bg_grad_color_filtered(obj, part);
  83:../../Middlewares/LVGL/GUI/lvgl/src/core/lv_obj_draw.c ****                     draw_dsc->bg_grad.stops[1].color = normal_apply_layer_recolor(obj, part, &draw_
  84:../../Middlewares/LVGL/GUI/lvgl/src/core/lv_obj_draw.c ****                     draw_dsc->bg_grad.stops[0].frac = lv_obj_get_style_bg_main_stop(obj, part);
  85:../../Middlewares/LVGL/GUI/lvgl/src/core/lv_obj_draw.c ****                     draw_dsc->bg_grad.stops[1].frac = lv_obj_get_style_bg_grad_stop(obj, part);
  86:../../Middlewares/LVGL/GUI/lvgl/src/core/lv_obj_draw.c ****                     draw_dsc->bg_grad.stops[0].opa = lv_obj_get_style_bg_main_opa(obj, part);
  87:../../Middlewares/LVGL/GUI/lvgl/src/core/lv_obj_draw.c ****                     draw_dsc->bg_grad.stops[1].opa = lv_obj_get_style_bg_grad_opa(obj, part);
  88:../../Middlewares/LVGL/GUI/lvgl/src/core/lv_obj_draw.c ****                 }
ARM GAS  C:\Users\28576\AppData\Local\Temp\cclWIAwm.s 			page 3


  89:../../Middlewares/LVGL/GUI/lvgl/src/core/lv_obj_draw.c ****             }
  90:../../Middlewares/LVGL/GUI/lvgl/src/core/lv_obj_draw.c ****         }
  91:../../Middlewares/LVGL/GUI/lvgl/src/core/lv_obj_draw.c ****     }
  92:../../Middlewares/LVGL/GUI/lvgl/src/core/lv_obj_draw.c **** 
  93:../../Middlewares/LVGL/GUI/lvgl/src/core/lv_obj_draw.c ****     if(draw_dsc->border_opa != LV_OPA_TRANSP) {
  94:../../Middlewares/LVGL/GUI/lvgl/src/core/lv_obj_draw.c ****         draw_dsc->border_width = lv_obj_get_style_border_width(obj, part);
  95:../../Middlewares/LVGL/GUI/lvgl/src/core/lv_obj_draw.c ****         if(draw_dsc->border_width) {
  96:../../Middlewares/LVGL/GUI/lvgl/src/core/lv_obj_draw.c ****             draw_dsc->border_opa = lv_obj_get_style_border_opa(obj, part);
  97:../../Middlewares/LVGL/GUI/lvgl/src/core/lv_obj_draw.c ****             if(draw_dsc->border_opa > LV_OPA_MIN) {
  98:../../Middlewares/LVGL/GUI/lvgl/src/core/lv_obj_draw.c ****                 draw_dsc->border_side = lv_obj_get_style_border_side(obj, part);
  99:../../Middlewares/LVGL/GUI/lvgl/src/core/lv_obj_draw.c ****                 lv_color_t border_color = lv_obj_get_style_border_color_filtered(obj, part);
 100:../../Middlewares/LVGL/GUI/lvgl/src/core/lv_obj_draw.c ****                 draw_dsc->border_color = normal_apply_layer_recolor(obj, part, &draw_dsc->base, bor
 101:../../Middlewares/LVGL/GUI/lvgl/src/core/lv_obj_draw.c ****             }
 102:../../Middlewares/LVGL/GUI/lvgl/src/core/lv_obj_draw.c ****         }
 103:../../Middlewares/LVGL/GUI/lvgl/src/core/lv_obj_draw.c ****     }
 104:../../Middlewares/LVGL/GUI/lvgl/src/core/lv_obj_draw.c **** 
 105:../../Middlewares/LVGL/GUI/lvgl/src/core/lv_obj_draw.c ****     if(draw_dsc->outline_opa != LV_OPA_TRANSP) {
 106:../../Middlewares/LVGL/GUI/lvgl/src/core/lv_obj_draw.c ****         draw_dsc->outline_width = lv_obj_get_style_outline_width(obj, part);
 107:../../Middlewares/LVGL/GUI/lvgl/src/core/lv_obj_draw.c ****         if(draw_dsc->outline_width) {
 108:../../Middlewares/LVGL/GUI/lvgl/src/core/lv_obj_draw.c ****             draw_dsc->outline_opa = lv_obj_get_style_outline_opa(obj, part);
 109:../../Middlewares/LVGL/GUI/lvgl/src/core/lv_obj_draw.c ****             if(draw_dsc->outline_opa > LV_OPA_MIN) {
 110:../../Middlewares/LVGL/GUI/lvgl/src/core/lv_obj_draw.c ****                 draw_dsc->outline_pad = lv_obj_get_style_outline_pad(obj, part);
 111:../../Middlewares/LVGL/GUI/lvgl/src/core/lv_obj_draw.c ****                 lv_color_t outline_color = lv_obj_get_style_outline_color_filtered(obj, part);
 112:../../Middlewares/LVGL/GUI/lvgl/src/core/lv_obj_draw.c ****                 draw_dsc->outline_color = normal_apply_layer_recolor(obj, part, &draw_dsc->base, ou
 113:../../Middlewares/LVGL/GUI/lvgl/src/core/lv_obj_draw.c ****             }
 114:../../Middlewares/LVGL/GUI/lvgl/src/core/lv_obj_draw.c ****         }
 115:../../Middlewares/LVGL/GUI/lvgl/src/core/lv_obj_draw.c ****     }
 116:../../Middlewares/LVGL/GUI/lvgl/src/core/lv_obj_draw.c **** 
 117:../../Middlewares/LVGL/GUI/lvgl/src/core/lv_obj_draw.c ****     if(draw_dsc->bg_image_opa != LV_OPA_TRANSP) {
 118:../../Middlewares/LVGL/GUI/lvgl/src/core/lv_obj_draw.c ****         draw_dsc->bg_image_src = lv_obj_get_style_bg_image_src(obj, part);
 119:../../Middlewares/LVGL/GUI/lvgl/src/core/lv_obj_draw.c ****         if(draw_dsc->bg_image_src) {
 120:../../Middlewares/LVGL/GUI/lvgl/src/core/lv_obj_draw.c ****             draw_dsc->bg_image_opa = lv_obj_get_style_bg_image_opa(obj, part);
 121:../../Middlewares/LVGL/GUI/lvgl/src/core/lv_obj_draw.c ****             if(draw_dsc->bg_image_opa > LV_OPA_MIN) {
 122:../../Middlewares/LVGL/GUI/lvgl/src/core/lv_obj_draw.c ****                 if(lv_image_src_get_type(draw_dsc->bg_image_src) == LV_IMAGE_SRC_SYMBOL) {
 123:../../Middlewares/LVGL/GUI/lvgl/src/core/lv_obj_draw.c ****                     draw_dsc->bg_image_symbol_font = lv_obj_get_style_text_font(obj, part);
 124:../../Middlewares/LVGL/GUI/lvgl/src/core/lv_obj_draw.c ****                     lv_color_t text_color = lv_obj_get_style_text_color_filtered(obj, part);
 125:../../Middlewares/LVGL/GUI/lvgl/src/core/lv_obj_draw.c ****                     draw_dsc->bg_image_recolor = normal_apply_layer_recolor(obj, part, &draw_dsc->b
 126:../../Middlewares/LVGL/GUI/lvgl/src/core/lv_obj_draw.c ****                 }
 127:../../Middlewares/LVGL/GUI/lvgl/src/core/lv_obj_draw.c ****                 else {
 128:../../Middlewares/LVGL/GUI/lvgl/src/core/lv_obj_draw.c ****                     lv_color_t bg_image_recolor = lv_obj_get_style_bg_image_recolor_filtered(obj, p
 129:../../Middlewares/LVGL/GUI/lvgl/src/core/lv_obj_draw.c ****                     lv_opa_t bg_image_recolor_opa = lv_obj_get_style_bg_image_recolor_opa(obj, part
 130:../../Middlewares/LVGL/GUI/lvgl/src/core/lv_obj_draw.c ****                     lv_color32_t result = image_apply_layer_recolor(obj, part, &draw_dsc->base, bg_
 131:../../Middlewares/LVGL/GUI/lvgl/src/core/lv_obj_draw.c ****                     draw_dsc->bg_image_recolor_opa = result.alpha;
 132:../../Middlewares/LVGL/GUI/lvgl/src/core/lv_obj_draw.c ****                     draw_dsc->bg_image_recolor = lv_color_make(result.red, result.green, result.blu
 133:../../Middlewares/LVGL/GUI/lvgl/src/core/lv_obj_draw.c ****                     draw_dsc->bg_image_tiled = lv_obj_get_style_bg_image_tiled(obj, part);
 134:../../Middlewares/LVGL/GUI/lvgl/src/core/lv_obj_draw.c ****                 }
 135:../../Middlewares/LVGL/GUI/lvgl/src/core/lv_obj_draw.c ****             }
 136:../../Middlewares/LVGL/GUI/lvgl/src/core/lv_obj_draw.c ****         }
 137:../../Middlewares/LVGL/GUI/lvgl/src/core/lv_obj_draw.c ****     }
 138:../../Middlewares/LVGL/GUI/lvgl/src/core/lv_obj_draw.c **** 
 139:../../Middlewares/LVGL/GUI/lvgl/src/core/lv_obj_draw.c ****     if(draw_dsc->shadow_opa) {
 140:../../Middlewares/LVGL/GUI/lvgl/src/core/lv_obj_draw.c ****         draw_dsc->shadow_width = lv_obj_get_style_shadow_width(obj, part);
 141:../../Middlewares/LVGL/GUI/lvgl/src/core/lv_obj_draw.c ****         if(draw_dsc->shadow_width) {
 142:../../Middlewares/LVGL/GUI/lvgl/src/core/lv_obj_draw.c ****             if(draw_dsc->shadow_opa > LV_OPA_MIN) {
 143:../../Middlewares/LVGL/GUI/lvgl/src/core/lv_obj_draw.c ****                 draw_dsc->shadow_opa = lv_obj_get_style_shadow_opa(obj, part);
 144:../../Middlewares/LVGL/GUI/lvgl/src/core/lv_obj_draw.c ****                 if(draw_dsc->shadow_opa > LV_OPA_MIN) {
 145:../../Middlewares/LVGL/GUI/lvgl/src/core/lv_obj_draw.c ****                     draw_dsc->shadow_offset_x = lv_obj_get_style_shadow_offset_x(obj, part);
ARM GAS  C:\Users\28576\AppData\Local\Temp\cclWIAwm.s 			page 4


 146:../../Middlewares/LVGL/GUI/lvgl/src/core/lv_obj_draw.c ****                     draw_dsc->shadow_offset_y = lv_obj_get_style_shadow_offset_y(obj, part);
 147:../../Middlewares/LVGL/GUI/lvgl/src/core/lv_obj_draw.c ****                     draw_dsc->shadow_spread = lv_obj_get_style_shadow_spread(obj, part);
 148:../../Middlewares/LVGL/GUI/lvgl/src/core/lv_obj_draw.c ****                     lv_color_t shadow_color = lv_obj_get_style_shadow_color_filtered(obj, part);
 149:../../Middlewares/LVGL/GUI/lvgl/src/core/lv_obj_draw.c ****                     draw_dsc->shadow_color = normal_apply_layer_recolor(obj, part, &draw_dsc->base,
 150:../../Middlewares/LVGL/GUI/lvgl/src/core/lv_obj_draw.c ****                 }
 151:../../Middlewares/LVGL/GUI/lvgl/src/core/lv_obj_draw.c ****             }
 152:../../Middlewares/LVGL/GUI/lvgl/src/core/lv_obj_draw.c ****         }
 153:../../Middlewares/LVGL/GUI/lvgl/src/core/lv_obj_draw.c ****     }
 154:../../Middlewares/LVGL/GUI/lvgl/src/core/lv_obj_draw.c **** 
 155:../../Middlewares/LVGL/GUI/lvgl/src/core/lv_obj_draw.c ****     if(opa < LV_OPA_MAX) {
 156:../../Middlewares/LVGL/GUI/lvgl/src/core/lv_obj_draw.c ****         draw_dsc->bg_opa = LV_OPA_MIX2(draw_dsc->bg_opa, opa);
 157:../../Middlewares/LVGL/GUI/lvgl/src/core/lv_obj_draw.c ****         draw_dsc->bg_image_opa = LV_OPA_MIX2(draw_dsc->bg_image_opa, opa);
 158:../../Middlewares/LVGL/GUI/lvgl/src/core/lv_obj_draw.c ****         draw_dsc->border_opa = LV_OPA_MIX2(draw_dsc->border_opa, opa);
 159:../../Middlewares/LVGL/GUI/lvgl/src/core/lv_obj_draw.c ****         draw_dsc->shadow_opa = LV_OPA_MIX2(draw_dsc->shadow_opa, opa);
 160:../../Middlewares/LVGL/GUI/lvgl/src/core/lv_obj_draw.c ****         draw_dsc->outline_opa = LV_OPA_MIX2(draw_dsc->outline_opa, opa);
 161:../../Middlewares/LVGL/GUI/lvgl/src/core/lv_obj_draw.c ****     }
 162:../../Middlewares/LVGL/GUI/lvgl/src/core/lv_obj_draw.c **** 
 163:../../Middlewares/LVGL/GUI/lvgl/src/core/lv_obj_draw.c ****     LV_PROFILER_DRAW_END;
 164:../../Middlewares/LVGL/GUI/lvgl/src/core/lv_obj_draw.c **** }
 165:../../Middlewares/LVGL/GUI/lvgl/src/core/lv_obj_draw.c **** 
 166:../../Middlewares/LVGL/GUI/lvgl/src/core/lv_obj_draw.c **** void lv_obj_init_draw_label_dsc(lv_obj_t * obj, lv_part_t part, lv_draw_label_dsc_t * draw_dsc)
 167:../../Middlewares/LVGL/GUI/lvgl/src/core/lv_obj_draw.c **** {
 168:../../Middlewares/LVGL/GUI/lvgl/src/core/lv_obj_draw.c ****     LV_PROFILER_DRAW_BEGIN;
 169:../../Middlewares/LVGL/GUI/lvgl/src/core/lv_obj_draw.c ****     draw_dsc->base.obj = obj;
 170:../../Middlewares/LVGL/GUI/lvgl/src/core/lv_obj_draw.c ****     draw_dsc->base.part = part;
 171:../../Middlewares/LVGL/GUI/lvgl/src/core/lv_obj_draw.c **** 
 172:../../Middlewares/LVGL/GUI/lvgl/src/core/lv_obj_draw.c ****     draw_dsc->opa = lv_obj_get_style_text_opa(obj, part);
 173:../../Middlewares/LVGL/GUI/lvgl/src/core/lv_obj_draw.c ****     if(draw_dsc->opa <= LV_OPA_MIN) {
 174:../../Middlewares/LVGL/GUI/lvgl/src/core/lv_obj_draw.c ****         LV_PROFILER_DRAW_END;
 175:../../Middlewares/LVGL/GUI/lvgl/src/core/lv_obj_draw.c ****         return;
 176:../../Middlewares/LVGL/GUI/lvgl/src/core/lv_obj_draw.c ****     }
 177:../../Middlewares/LVGL/GUI/lvgl/src/core/lv_obj_draw.c **** 
 178:../../Middlewares/LVGL/GUI/lvgl/src/core/lv_obj_draw.c ****     lv_opa_t opa = get_layer_opa(obj, part, &draw_dsc->base);
 179:../../Middlewares/LVGL/GUI/lvgl/src/core/lv_obj_draw.c ****     if(opa < LV_OPA_MAX) {
 180:../../Middlewares/LVGL/GUI/lvgl/src/core/lv_obj_draw.c ****         draw_dsc->opa = LV_OPA_MIX2(draw_dsc->opa, opa);
 181:../../Middlewares/LVGL/GUI/lvgl/src/core/lv_obj_draw.c ****     }
 182:../../Middlewares/LVGL/GUI/lvgl/src/core/lv_obj_draw.c ****     if(draw_dsc->opa <= LV_OPA_MIN) {
 183:../../Middlewares/LVGL/GUI/lvgl/src/core/lv_obj_draw.c ****         LV_PROFILER_DRAW_END;
 184:../../Middlewares/LVGL/GUI/lvgl/src/core/lv_obj_draw.c ****         return;
 185:../../Middlewares/LVGL/GUI/lvgl/src/core/lv_obj_draw.c ****     }
 186:../../Middlewares/LVGL/GUI/lvgl/src/core/lv_obj_draw.c **** 
 187:../../Middlewares/LVGL/GUI/lvgl/src/core/lv_obj_draw.c ****     lv_color_t text_color = lv_obj_get_style_text_color_filtered(obj, part);
 188:../../Middlewares/LVGL/GUI/lvgl/src/core/lv_obj_draw.c ****     draw_dsc->color = normal_apply_layer_recolor(obj, part, &draw_dsc->base, text_color);
 189:../../Middlewares/LVGL/GUI/lvgl/src/core/lv_obj_draw.c ****     draw_dsc->letter_space = lv_obj_get_style_text_letter_space(obj, part);
 190:../../Middlewares/LVGL/GUI/lvgl/src/core/lv_obj_draw.c ****     draw_dsc->line_space = lv_obj_get_style_text_line_space(obj, part);
 191:../../Middlewares/LVGL/GUI/lvgl/src/core/lv_obj_draw.c ****     draw_dsc->decor = lv_obj_get_style_text_decor(obj, part);
 192:../../Middlewares/LVGL/GUI/lvgl/src/core/lv_obj_draw.c **** 
 193:../../Middlewares/LVGL/GUI/lvgl/src/core/lv_obj_draw.c ****     draw_dsc->font = lv_obj_get_style_text_font(obj, part);
 194:../../Middlewares/LVGL/GUI/lvgl/src/core/lv_obj_draw.c **** 
 195:../../Middlewares/LVGL/GUI/lvgl/src/core/lv_obj_draw.c **** #if LV_USE_BIDI
 196:../../Middlewares/LVGL/GUI/lvgl/src/core/lv_obj_draw.c ****     draw_dsc->bidi_dir = lv_obj_get_style_base_dir(obj, LV_PART_MAIN);
 197:../../Middlewares/LVGL/GUI/lvgl/src/core/lv_obj_draw.c **** #endif
 198:../../Middlewares/LVGL/GUI/lvgl/src/core/lv_obj_draw.c **** 
 199:../../Middlewares/LVGL/GUI/lvgl/src/core/lv_obj_draw.c ****     draw_dsc->align = lv_obj_get_style_text_align(obj, part);
 200:../../Middlewares/LVGL/GUI/lvgl/src/core/lv_obj_draw.c **** 
 201:../../Middlewares/LVGL/GUI/lvgl/src/core/lv_obj_draw.c ****     LV_PROFILER_DRAW_END;
 202:../../Middlewares/LVGL/GUI/lvgl/src/core/lv_obj_draw.c **** }
ARM GAS  C:\Users\28576\AppData\Local\Temp\cclWIAwm.s 			page 5


 203:../../Middlewares/LVGL/GUI/lvgl/src/core/lv_obj_draw.c **** 
 204:../../Middlewares/LVGL/GUI/lvgl/src/core/lv_obj_draw.c **** void lv_obj_init_draw_image_dsc(lv_obj_t * obj, lv_part_t part, lv_draw_image_dsc_t * draw_dsc)
 205:../../Middlewares/LVGL/GUI/lvgl/src/core/lv_obj_draw.c **** {
 206:../../Middlewares/LVGL/GUI/lvgl/src/core/lv_obj_draw.c ****     LV_PROFILER_DRAW_BEGIN;
 207:../../Middlewares/LVGL/GUI/lvgl/src/core/lv_obj_draw.c ****     draw_dsc->base.obj = obj;
 208:../../Middlewares/LVGL/GUI/lvgl/src/core/lv_obj_draw.c ****     draw_dsc->base.part = part;
 209:../../Middlewares/LVGL/GUI/lvgl/src/core/lv_obj_draw.c **** 
 210:../../Middlewares/LVGL/GUI/lvgl/src/core/lv_obj_draw.c ****     draw_dsc->opa = lv_obj_get_style_image_opa(obj, part);
 211:../../Middlewares/LVGL/GUI/lvgl/src/core/lv_obj_draw.c ****     if(draw_dsc->opa <= LV_OPA_MIN) {
 212:../../Middlewares/LVGL/GUI/lvgl/src/core/lv_obj_draw.c ****         LV_PROFILER_DRAW_END;
 213:../../Middlewares/LVGL/GUI/lvgl/src/core/lv_obj_draw.c ****         return;
 214:../../Middlewares/LVGL/GUI/lvgl/src/core/lv_obj_draw.c ****     }
 215:../../Middlewares/LVGL/GUI/lvgl/src/core/lv_obj_draw.c **** 
 216:../../Middlewares/LVGL/GUI/lvgl/src/core/lv_obj_draw.c ****     lv_opa_t opa = get_layer_opa(obj, part, &draw_dsc->base);
 217:../../Middlewares/LVGL/GUI/lvgl/src/core/lv_obj_draw.c ****     if(opa < LV_OPA_MAX) {
 218:../../Middlewares/LVGL/GUI/lvgl/src/core/lv_obj_draw.c ****         draw_dsc->opa = LV_OPA_MIX2(draw_dsc->opa, opa);
 219:../../Middlewares/LVGL/GUI/lvgl/src/core/lv_obj_draw.c ****     }
 220:../../Middlewares/LVGL/GUI/lvgl/src/core/lv_obj_draw.c ****     if(draw_dsc->opa <= LV_OPA_MIN) {
 221:../../Middlewares/LVGL/GUI/lvgl/src/core/lv_obj_draw.c ****         LV_PROFILER_DRAW_END;
 222:../../Middlewares/LVGL/GUI/lvgl/src/core/lv_obj_draw.c ****         return;
 223:../../Middlewares/LVGL/GUI/lvgl/src/core/lv_obj_draw.c ****     }
 224:../../Middlewares/LVGL/GUI/lvgl/src/core/lv_obj_draw.c **** 
 225:../../Middlewares/LVGL/GUI/lvgl/src/core/lv_obj_draw.c ****     draw_dsc->rotation = 0;
 226:../../Middlewares/LVGL/GUI/lvgl/src/core/lv_obj_draw.c ****     draw_dsc->scale_x = LV_SCALE_NONE;
 227:../../Middlewares/LVGL/GUI/lvgl/src/core/lv_obj_draw.c ****     draw_dsc->scale_y = LV_SCALE_NONE;
 228:../../Middlewares/LVGL/GUI/lvgl/src/core/lv_obj_draw.c ****     draw_dsc->pivot.x = lv_area_get_width(&obj->coords) / 2;
 229:../../Middlewares/LVGL/GUI/lvgl/src/core/lv_obj_draw.c ****     draw_dsc->pivot.y = lv_area_get_height(&obj->coords) / 2;
 230:../../Middlewares/LVGL/GUI/lvgl/src/core/lv_obj_draw.c **** 
 231:../../Middlewares/LVGL/GUI/lvgl/src/core/lv_obj_draw.c ****     lv_color_t recolor = lv_obj_get_style_image_recolor_filtered(obj, part);
 232:../../Middlewares/LVGL/GUI/lvgl/src/core/lv_obj_draw.c ****     lv_opa_t recolor_opa = lv_obj_get_style_image_recolor_opa(obj, part);
 233:../../Middlewares/LVGL/GUI/lvgl/src/core/lv_obj_draw.c ****     lv_color32_t result = image_apply_layer_recolor(obj, part, &draw_dsc->base, recolor, recolor_op
 234:../../Middlewares/LVGL/GUI/lvgl/src/core/lv_obj_draw.c ****     draw_dsc->recolor_opa = result.alpha;
 235:../../Middlewares/LVGL/GUI/lvgl/src/core/lv_obj_draw.c ****     draw_dsc->recolor = lv_color_make(result.red, result.green, result.blue);
 236:../../Middlewares/LVGL/GUI/lvgl/src/core/lv_obj_draw.c **** 
 237:../../Middlewares/LVGL/GUI/lvgl/src/core/lv_obj_draw.c ****     if(part != LV_PART_MAIN) draw_dsc->blend_mode = lv_obj_get_style_blend_mode(obj, part);
 238:../../Middlewares/LVGL/GUI/lvgl/src/core/lv_obj_draw.c **** 
 239:../../Middlewares/LVGL/GUI/lvgl/src/core/lv_obj_draw.c ****     LV_PROFILER_DRAW_END;
 240:../../Middlewares/LVGL/GUI/lvgl/src/core/lv_obj_draw.c **** }
 241:../../Middlewares/LVGL/GUI/lvgl/src/core/lv_obj_draw.c **** 
 242:../../Middlewares/LVGL/GUI/lvgl/src/core/lv_obj_draw.c **** void lv_obj_init_draw_line_dsc(lv_obj_t * obj, lv_part_t part, lv_draw_line_dsc_t * draw_dsc)
 243:../../Middlewares/LVGL/GUI/lvgl/src/core/lv_obj_draw.c **** {
 244:../../Middlewares/LVGL/GUI/lvgl/src/core/lv_obj_draw.c ****     LV_PROFILER_DRAW_BEGIN;
 245:../../Middlewares/LVGL/GUI/lvgl/src/core/lv_obj_draw.c ****     draw_dsc->base.obj = obj;
 246:../../Middlewares/LVGL/GUI/lvgl/src/core/lv_obj_draw.c ****     draw_dsc->base.part = part;
 247:../../Middlewares/LVGL/GUI/lvgl/src/core/lv_obj_draw.c **** 
 248:../../Middlewares/LVGL/GUI/lvgl/src/core/lv_obj_draw.c ****     draw_dsc->opa = lv_obj_get_style_line_opa(obj, part);
 249:../../Middlewares/LVGL/GUI/lvgl/src/core/lv_obj_draw.c ****     if(draw_dsc->opa <= LV_OPA_MIN) {
 250:../../Middlewares/LVGL/GUI/lvgl/src/core/lv_obj_draw.c ****         LV_PROFILER_DRAW_END;
 251:../../Middlewares/LVGL/GUI/lvgl/src/core/lv_obj_draw.c ****         return;
 252:../../Middlewares/LVGL/GUI/lvgl/src/core/lv_obj_draw.c ****     }
 253:../../Middlewares/LVGL/GUI/lvgl/src/core/lv_obj_draw.c **** 
 254:../../Middlewares/LVGL/GUI/lvgl/src/core/lv_obj_draw.c ****     lv_opa_t opa = get_layer_opa(obj, part, &draw_dsc->base);
 255:../../Middlewares/LVGL/GUI/lvgl/src/core/lv_obj_draw.c ****     if(opa < LV_OPA_MAX) {
 256:../../Middlewares/LVGL/GUI/lvgl/src/core/lv_obj_draw.c ****         draw_dsc->opa = LV_OPA_MIX2(draw_dsc->opa, opa);
 257:../../Middlewares/LVGL/GUI/lvgl/src/core/lv_obj_draw.c ****     }
 258:../../Middlewares/LVGL/GUI/lvgl/src/core/lv_obj_draw.c ****     if(draw_dsc->opa <= LV_OPA_MIN) {
 259:../../Middlewares/LVGL/GUI/lvgl/src/core/lv_obj_draw.c ****         LV_PROFILER_DRAW_END;
ARM GAS  C:\Users\28576\AppData\Local\Temp\cclWIAwm.s 			page 6


 260:../../Middlewares/LVGL/GUI/lvgl/src/core/lv_obj_draw.c ****         return;
 261:../../Middlewares/LVGL/GUI/lvgl/src/core/lv_obj_draw.c ****     }
 262:../../Middlewares/LVGL/GUI/lvgl/src/core/lv_obj_draw.c **** 
 263:../../Middlewares/LVGL/GUI/lvgl/src/core/lv_obj_draw.c ****     draw_dsc->width = lv_obj_get_style_line_width(obj, part);
 264:../../Middlewares/LVGL/GUI/lvgl/src/core/lv_obj_draw.c ****     if(draw_dsc->width == 0) {
 265:../../Middlewares/LVGL/GUI/lvgl/src/core/lv_obj_draw.c ****         LV_PROFILER_DRAW_END;
 266:../../Middlewares/LVGL/GUI/lvgl/src/core/lv_obj_draw.c ****         return;
 267:../../Middlewares/LVGL/GUI/lvgl/src/core/lv_obj_draw.c ****     }
 268:../../Middlewares/LVGL/GUI/lvgl/src/core/lv_obj_draw.c **** 
 269:../../Middlewares/LVGL/GUI/lvgl/src/core/lv_obj_draw.c ****     lv_color_t line_color = lv_obj_get_style_line_color_filtered(obj, part);
 270:../../Middlewares/LVGL/GUI/lvgl/src/core/lv_obj_draw.c ****     draw_dsc->color = normal_apply_layer_recolor(obj, part, &draw_dsc->base, line_color);
 271:../../Middlewares/LVGL/GUI/lvgl/src/core/lv_obj_draw.c **** 
 272:../../Middlewares/LVGL/GUI/lvgl/src/core/lv_obj_draw.c ****     draw_dsc->dash_width = lv_obj_get_style_line_dash_width(obj, part);
 273:../../Middlewares/LVGL/GUI/lvgl/src/core/lv_obj_draw.c ****     if(draw_dsc->dash_width) {
 274:../../Middlewares/LVGL/GUI/lvgl/src/core/lv_obj_draw.c ****         draw_dsc->dash_gap = lv_obj_get_style_line_dash_gap(obj, part);
 275:../../Middlewares/LVGL/GUI/lvgl/src/core/lv_obj_draw.c ****     }
 276:../../Middlewares/LVGL/GUI/lvgl/src/core/lv_obj_draw.c **** 
 277:../../Middlewares/LVGL/GUI/lvgl/src/core/lv_obj_draw.c ****     draw_dsc->round_start = lv_obj_get_style_line_rounded(obj, part);
 278:../../Middlewares/LVGL/GUI/lvgl/src/core/lv_obj_draw.c ****     draw_dsc->round_end = draw_dsc->round_start;
 279:../../Middlewares/LVGL/GUI/lvgl/src/core/lv_obj_draw.c **** 
 280:../../Middlewares/LVGL/GUI/lvgl/src/core/lv_obj_draw.c ****     LV_PROFILER_DRAW_END;
 281:../../Middlewares/LVGL/GUI/lvgl/src/core/lv_obj_draw.c **** }
 282:../../Middlewares/LVGL/GUI/lvgl/src/core/lv_obj_draw.c **** 
 283:../../Middlewares/LVGL/GUI/lvgl/src/core/lv_obj_draw.c **** void lv_obj_init_draw_arc_dsc(lv_obj_t * obj, lv_part_t part, lv_draw_arc_dsc_t * draw_dsc)
 284:../../Middlewares/LVGL/GUI/lvgl/src/core/lv_obj_draw.c **** {
 285:../../Middlewares/LVGL/GUI/lvgl/src/core/lv_obj_draw.c ****     LV_PROFILER_DRAW_BEGIN;
 286:../../Middlewares/LVGL/GUI/lvgl/src/core/lv_obj_draw.c ****     draw_dsc->base.obj = obj;
 287:../../Middlewares/LVGL/GUI/lvgl/src/core/lv_obj_draw.c ****     draw_dsc->base.part = part;
 288:../../Middlewares/LVGL/GUI/lvgl/src/core/lv_obj_draw.c **** 
 289:../../Middlewares/LVGL/GUI/lvgl/src/core/lv_obj_draw.c ****     draw_dsc->width = lv_obj_get_style_arc_width(obj, part);
 290:../../Middlewares/LVGL/GUI/lvgl/src/core/lv_obj_draw.c ****     if(draw_dsc->width == 0) {
 291:../../Middlewares/LVGL/GUI/lvgl/src/core/lv_obj_draw.c ****         LV_PROFILER_DRAW_END;
 292:../../Middlewares/LVGL/GUI/lvgl/src/core/lv_obj_draw.c ****         return;
 293:../../Middlewares/LVGL/GUI/lvgl/src/core/lv_obj_draw.c ****     }
 294:../../Middlewares/LVGL/GUI/lvgl/src/core/lv_obj_draw.c **** 
 295:../../Middlewares/LVGL/GUI/lvgl/src/core/lv_obj_draw.c ****     draw_dsc->opa = lv_obj_get_style_arc_opa(obj, part);
 296:../../Middlewares/LVGL/GUI/lvgl/src/core/lv_obj_draw.c ****     if(draw_dsc->opa <= LV_OPA_MIN) {
 297:../../Middlewares/LVGL/GUI/lvgl/src/core/lv_obj_draw.c ****         LV_PROFILER_DRAW_END;
 298:../../Middlewares/LVGL/GUI/lvgl/src/core/lv_obj_draw.c ****         return;
 299:../../Middlewares/LVGL/GUI/lvgl/src/core/lv_obj_draw.c ****     }
 300:../../Middlewares/LVGL/GUI/lvgl/src/core/lv_obj_draw.c **** 
 301:../../Middlewares/LVGL/GUI/lvgl/src/core/lv_obj_draw.c ****     lv_opa_t opa = get_layer_opa(obj, part, &draw_dsc->base);
 302:../../Middlewares/LVGL/GUI/lvgl/src/core/lv_obj_draw.c ****     if(opa < LV_OPA_MAX) {
 303:../../Middlewares/LVGL/GUI/lvgl/src/core/lv_obj_draw.c ****         draw_dsc->opa = LV_OPA_MIX2(draw_dsc->opa, opa);
 304:../../Middlewares/LVGL/GUI/lvgl/src/core/lv_obj_draw.c ****     }
 305:../../Middlewares/LVGL/GUI/lvgl/src/core/lv_obj_draw.c ****     if(draw_dsc->opa <= LV_OPA_MIN) {
 306:../../Middlewares/LVGL/GUI/lvgl/src/core/lv_obj_draw.c ****         LV_PROFILER_DRAW_END;
 307:../../Middlewares/LVGL/GUI/lvgl/src/core/lv_obj_draw.c ****         return;
 308:../../Middlewares/LVGL/GUI/lvgl/src/core/lv_obj_draw.c ****     }
 309:../../Middlewares/LVGL/GUI/lvgl/src/core/lv_obj_draw.c **** 
 310:../../Middlewares/LVGL/GUI/lvgl/src/core/lv_obj_draw.c ****     lv_color_t arc_color = lv_obj_get_style_arc_color_filtered(obj, part);
 311:../../Middlewares/LVGL/GUI/lvgl/src/core/lv_obj_draw.c ****     draw_dsc->color = normal_apply_layer_recolor(obj, part, &draw_dsc->base, arc_color);
 312:../../Middlewares/LVGL/GUI/lvgl/src/core/lv_obj_draw.c ****     draw_dsc->img_src = lv_obj_get_style_arc_image_src(obj, part);
 313:../../Middlewares/LVGL/GUI/lvgl/src/core/lv_obj_draw.c **** 
 314:../../Middlewares/LVGL/GUI/lvgl/src/core/lv_obj_draw.c ****     draw_dsc->rounded = lv_obj_get_style_arc_rounded(obj, part);
 315:../../Middlewares/LVGL/GUI/lvgl/src/core/lv_obj_draw.c ****     LV_PROFILER_DRAW_END;
 316:../../Middlewares/LVGL/GUI/lvgl/src/core/lv_obj_draw.c **** }
ARM GAS  C:\Users\28576\AppData\Local\Temp\cclWIAwm.s 			page 7


 317:../../Middlewares/LVGL/GUI/lvgl/src/core/lv_obj_draw.c **** 
 318:../../Middlewares/LVGL/GUI/lvgl/src/core/lv_obj_draw.c **** int32_t lv_obj_calculate_ext_draw_size(lv_obj_t * obj, lv_part_t part)
 319:../../Middlewares/LVGL/GUI/lvgl/src/core/lv_obj_draw.c **** {
 320:../../Middlewares/LVGL/GUI/lvgl/src/core/lv_obj_draw.c ****     LV_PROFILER_DRAW_BEGIN;
 321:../../Middlewares/LVGL/GUI/lvgl/src/core/lv_obj_draw.c ****     int32_t s = 0;
 322:../../Middlewares/LVGL/GUI/lvgl/src/core/lv_obj_draw.c **** 
 323:../../Middlewares/LVGL/GUI/lvgl/src/core/lv_obj_draw.c ****     int32_t sh_width = lv_obj_get_style_shadow_width(obj, part);
 324:../../Middlewares/LVGL/GUI/lvgl/src/core/lv_obj_draw.c ****     if(sh_width) {
 325:../../Middlewares/LVGL/GUI/lvgl/src/core/lv_obj_draw.c ****         lv_opa_t sh_opa = lv_obj_get_style_shadow_opa(obj, part);
 326:../../Middlewares/LVGL/GUI/lvgl/src/core/lv_obj_draw.c ****         if(sh_opa > LV_OPA_MIN) {
 327:../../Middlewares/LVGL/GUI/lvgl/src/core/lv_obj_draw.c ****             sh_width = sh_width / 2 + 1;    /*The blur adds only half width*/
 328:../../Middlewares/LVGL/GUI/lvgl/src/core/lv_obj_draw.c ****             sh_width += lv_obj_get_style_shadow_spread(obj, part);
 329:../../Middlewares/LVGL/GUI/lvgl/src/core/lv_obj_draw.c ****             int32_t sh_ofs_x = lv_obj_get_style_shadow_offset_x(obj, part);
 330:../../Middlewares/LVGL/GUI/lvgl/src/core/lv_obj_draw.c ****             int32_t sh_ofs_y = lv_obj_get_style_shadow_offset_y(obj, part);
 331:../../Middlewares/LVGL/GUI/lvgl/src/core/lv_obj_draw.c ****             sh_width += LV_MAX(LV_ABS(sh_ofs_x), LV_ABS(sh_ofs_y));
 332:../../Middlewares/LVGL/GUI/lvgl/src/core/lv_obj_draw.c ****             s = LV_MAX(s, sh_width);
 333:../../Middlewares/LVGL/GUI/lvgl/src/core/lv_obj_draw.c ****         }
 334:../../Middlewares/LVGL/GUI/lvgl/src/core/lv_obj_draw.c ****     }
 335:../../Middlewares/LVGL/GUI/lvgl/src/core/lv_obj_draw.c **** 
 336:../../Middlewares/LVGL/GUI/lvgl/src/core/lv_obj_draw.c ****     int32_t outline_width = lv_obj_get_style_outline_width(obj, part);
 337:../../Middlewares/LVGL/GUI/lvgl/src/core/lv_obj_draw.c ****     if(outline_width) {
 338:../../Middlewares/LVGL/GUI/lvgl/src/core/lv_obj_draw.c ****         lv_opa_t outline_opa = lv_obj_get_style_outline_opa(obj, part);
 339:../../Middlewares/LVGL/GUI/lvgl/src/core/lv_obj_draw.c ****         if(outline_opa > LV_OPA_MIN) {
 340:../../Middlewares/LVGL/GUI/lvgl/src/core/lv_obj_draw.c ****             int32_t outline_pad = lv_obj_get_style_outline_pad(obj, part);
 341:../../Middlewares/LVGL/GUI/lvgl/src/core/lv_obj_draw.c ****             s = LV_MAX(s, outline_pad + outline_width);
 342:../../Middlewares/LVGL/GUI/lvgl/src/core/lv_obj_draw.c ****         }
 343:../../Middlewares/LVGL/GUI/lvgl/src/core/lv_obj_draw.c ****     }
 344:../../Middlewares/LVGL/GUI/lvgl/src/core/lv_obj_draw.c **** 
 345:../../Middlewares/LVGL/GUI/lvgl/src/core/lv_obj_draw.c ****     int32_t w = lv_obj_get_style_transform_width(obj, part);
 346:../../Middlewares/LVGL/GUI/lvgl/src/core/lv_obj_draw.c ****     int32_t h = lv_obj_get_style_transform_height(obj, part);
 347:../../Middlewares/LVGL/GUI/lvgl/src/core/lv_obj_draw.c ****     int32_t wh = LV_MAX(w, h);
 348:../../Middlewares/LVGL/GUI/lvgl/src/core/lv_obj_draw.c ****     if(wh > 0) s += wh;
 349:../../Middlewares/LVGL/GUI/lvgl/src/core/lv_obj_draw.c **** 
 350:../../Middlewares/LVGL/GUI/lvgl/src/core/lv_obj_draw.c ****     LV_PROFILER_DRAW_END;
 351:../../Middlewares/LVGL/GUI/lvgl/src/core/lv_obj_draw.c ****     return s;
 352:../../Middlewares/LVGL/GUI/lvgl/src/core/lv_obj_draw.c **** }
 353:../../Middlewares/LVGL/GUI/lvgl/src/core/lv_obj_draw.c **** 
 354:../../Middlewares/LVGL/GUI/lvgl/src/core/lv_obj_draw.c **** void lv_obj_refresh_ext_draw_size(lv_obj_t * obj)
 355:../../Middlewares/LVGL/GUI/lvgl/src/core/lv_obj_draw.c **** {
 356:../../Middlewares/LVGL/GUI/lvgl/src/core/lv_obj_draw.c ****     LV_PROFILER_DRAW_BEGIN;
 357:../../Middlewares/LVGL/GUI/lvgl/src/core/lv_obj_draw.c ****     LV_ASSERT_OBJ(obj, MY_CLASS);
 358:../../Middlewares/LVGL/GUI/lvgl/src/core/lv_obj_draw.c **** 
 359:../../Middlewares/LVGL/GUI/lvgl/src/core/lv_obj_draw.c ****     int32_t s_old = lv_obj_get_ext_draw_size(obj);
 360:../../Middlewares/LVGL/GUI/lvgl/src/core/lv_obj_draw.c ****     int32_t s_new = 0;
 361:../../Middlewares/LVGL/GUI/lvgl/src/core/lv_obj_draw.c ****     lv_obj_send_event(obj, LV_EVENT_REFR_EXT_DRAW_SIZE, &s_new);
 362:../../Middlewares/LVGL/GUI/lvgl/src/core/lv_obj_draw.c **** 
 363:../../Middlewares/LVGL/GUI/lvgl/src/core/lv_obj_draw.c ****     /*Store the result if the special attrs already allocated*/
 364:../../Middlewares/LVGL/GUI/lvgl/src/core/lv_obj_draw.c ****     if(obj->spec_attr) {
 365:../../Middlewares/LVGL/GUI/lvgl/src/core/lv_obj_draw.c ****         obj->spec_attr->ext_draw_size = s_new;
 366:../../Middlewares/LVGL/GUI/lvgl/src/core/lv_obj_draw.c ****     }
 367:../../Middlewares/LVGL/GUI/lvgl/src/core/lv_obj_draw.c ****     /*Allocate spec. attrs. only if the result is not zero.
 368:../../Middlewares/LVGL/GUI/lvgl/src/core/lv_obj_draw.c ****      *Zero is the default value if the spec. attr. are not defined.*/
 369:../../Middlewares/LVGL/GUI/lvgl/src/core/lv_obj_draw.c ****     else if(s_new != 0) {
 370:../../Middlewares/LVGL/GUI/lvgl/src/core/lv_obj_draw.c ****         lv_obj_allocate_spec_attr(obj);
 371:../../Middlewares/LVGL/GUI/lvgl/src/core/lv_obj_draw.c ****         obj->spec_attr->ext_draw_size = s_new;
 372:../../Middlewares/LVGL/GUI/lvgl/src/core/lv_obj_draw.c ****     }
 373:../../Middlewares/LVGL/GUI/lvgl/src/core/lv_obj_draw.c **** 
ARM GAS  C:\Users\28576\AppData\Local\Temp\cclWIAwm.s 			page 8


 374:../../Middlewares/LVGL/GUI/lvgl/src/core/lv_obj_draw.c ****     if(s_new != s_old) lv_obj_invalidate(obj);
 375:../../Middlewares/LVGL/GUI/lvgl/src/core/lv_obj_draw.c ****     LV_PROFILER_DRAW_END;
 376:../../Middlewares/LVGL/GUI/lvgl/src/core/lv_obj_draw.c **** }
 377:../../Middlewares/LVGL/GUI/lvgl/src/core/lv_obj_draw.c **** 
 378:../../Middlewares/LVGL/GUI/lvgl/src/core/lv_obj_draw.c **** int32_t lv_obj_get_ext_draw_size(const lv_obj_t * obj)
 379:../../Middlewares/LVGL/GUI/lvgl/src/core/lv_obj_draw.c **** {
 380:../../Middlewares/LVGL/GUI/lvgl/src/core/lv_obj_draw.c ****     if(obj->spec_attr) return obj->spec_attr->ext_draw_size;
 381:../../Middlewares/LVGL/GUI/lvgl/src/core/lv_obj_draw.c ****     else return 0;
 382:../../Middlewares/LVGL/GUI/lvgl/src/core/lv_obj_draw.c **** }
 383:../../Middlewares/LVGL/GUI/lvgl/src/core/lv_obj_draw.c **** 
 384:../../Middlewares/LVGL/GUI/lvgl/src/core/lv_obj_draw.c **** lv_layer_type_t lv_obj_get_layer_type(const lv_obj_t * obj)
 385:../../Middlewares/LVGL/GUI/lvgl/src/core/lv_obj_draw.c **** {
 386:../../Middlewares/LVGL/GUI/lvgl/src/core/lv_obj_draw.c **** 
 387:../../Middlewares/LVGL/GUI/lvgl/src/core/lv_obj_draw.c ****     if(obj->spec_attr) return (lv_layer_type_t)obj->spec_attr->layer_type;
 388:../../Middlewares/LVGL/GUI/lvgl/src/core/lv_obj_draw.c ****     else return LV_LAYER_TYPE_NONE;
 389:../../Middlewares/LVGL/GUI/lvgl/src/core/lv_obj_draw.c **** }
 390:../../Middlewares/LVGL/GUI/lvgl/src/core/lv_obj_draw.c **** 
 391:../../Middlewares/LVGL/GUI/lvgl/src/core/lv_obj_draw.c **** /**********************
 392:../../Middlewares/LVGL/GUI/lvgl/src/core/lv_obj_draw.c ****  *   STATIC FUNCTIONS
 393:../../Middlewares/LVGL/GUI/lvgl/src/core/lv_obj_draw.c ****  **********************/
 394:../../Middlewares/LVGL/GUI/lvgl/src/core/lv_obj_draw.c **** 
 395:../../Middlewares/LVGL/GUI/lvgl/src/core/lv_obj_draw.c **** static inline lv_opa_t get_layer_opa(const lv_obj_t * obj, lv_part_t part, const lv_draw_dsc_base_t
 396:../../Middlewares/LVGL/GUI/lvgl/src/core/lv_obj_draw.c **** {
  28              		.loc 1 396 1 view -0
  29              		.cfi_startproc
  30              		@ args = 0, pretend = 0, frame = 8
  31              		@ frame_needed = 0, uses_anonymous_args = 0
  32              		.loc 1 396 1 is_stmt 0 view .LVU1
  33 0000 10B5     		push	{r4, lr}
  34              	.LCFI0:
  35              		.cfi_def_cfa_offset 8
  36              		.cfi_offset 4, -8
  37              		.cfi_offset 14, -4
  38 0002 82B0     		sub	sp, sp, #8
  39              	.LCFI1:
  40              		.cfi_def_cfa_offset 16
 397:../../Middlewares/LVGL/GUI/lvgl/src/core/lv_obj_draw.c ****     if(base_dsc->layer) {
  41              		.loc 1 397 5 is_stmt 1 view .LVU2
  42              		.loc 1 397 16 is_stmt 0 view .LVU3
  43 0004 1369     		ldr	r3, [r2, #16]
  44              		.loc 1 397 7 view .LVU4
  45 0006 7BB1     		cbz	r3, .L2
 398:../../Middlewares/LVGL/GUI/lvgl/src/core/lv_obj_draw.c ****         /* Accessing the layer opa directly is faster than using get style opa recursive */
 399:../../Middlewares/LVGL/GUI/lvgl/src/core/lv_obj_draw.c ****         if(part == LV_PART_MAIN) {
  46              		.loc 1 399 9 is_stmt 1 view .LVU5
  47              		.loc 1 399 11 is_stmt 0 view .LVU6
  48 0008 19B9     		cbnz	r1, .L3
 400:../../Middlewares/LVGL/GUI/lvgl/src/core/lv_obj_draw.c ****             return base_dsc->layer->opa;
  49              		.loc 1 400 13 is_stmt 1 view .LVU7
  50              		.loc 1 400 35 is_stmt 0 view .LVU8
  51 000a 93F83800 		ldrb	r0, [r3, #56]	@ zero_extendqisi2
  52              	.LVL1:
  53              	.L4:
 401:../../Middlewares/LVGL/GUI/lvgl/src/core/lv_obj_draw.c ****         }
 402:../../Middlewares/LVGL/GUI/lvgl/src/core/lv_obj_draw.c **** 
 403:../../Middlewares/LVGL/GUI/lvgl/src/core/lv_obj_draw.c ****         return LV_OPA_MIX2(base_dsc->layer->opa, lv_obj_get_style_opa(obj, part));
 404:../../Middlewares/LVGL/GUI/lvgl/src/core/lv_obj_draw.c ****     }
ARM GAS  C:\Users\28576\AppData\Local\Temp\cclWIAwm.s 			page 9


 405:../../Middlewares/LVGL/GUI/lvgl/src/core/lv_obj_draw.c **** 
 406:../../Middlewares/LVGL/GUI/lvgl/src/core/lv_obj_draw.c ****     /* fallback to old recursive style opa */
 407:../../Middlewares/LVGL/GUI/lvgl/src/core/lv_obj_draw.c ****     return lv_obj_get_style_opa_recursive(obj, part);
 408:../../Middlewares/LVGL/GUI/lvgl/src/core/lv_obj_draw.c **** }
  54              		.loc 1 408 1 view .LVU9
  55 000e 02B0     		add	sp, sp, #8
  56              	.LCFI2:
  57              		.cfi_remember_state
  58              		.cfi_def_cfa_offset 8
  59              		@ sp needed
  60 0010 10BD     		pop	{r4, pc}
  61              	.LVL2:
  62              	.L3:
  63              	.LCFI3:
  64              		.cfi_restore_state
 403:../../Middlewares/LVGL/GUI/lvgl/src/core/lv_obj_draw.c ****     }
  65              		.loc 1 403 9 is_stmt 1 view .LVU10
 403:../../Middlewares/LVGL/GUI/lvgl/src/core/lv_obj_draw.c ****     }
  66              		.loc 1 403 16 is_stmt 0 view .LVU11
  67 0012 93F83840 		ldrb	r4, [r3, #56]	@ zero_extendqisi2
  68              	.LVL3:
  69              	.LBB119:
  70              	.LBI119:
  71              		.file 2 "../../Middlewares/LVGL/GUI/lvgl/src/core/lv_obj_style_gen.h"
   1:../../Middlewares/LVGL/GUI/lvgl/src/core/lv_obj_style_gen.h **** 
   2:../../Middlewares/LVGL/GUI/lvgl/src/core/lv_obj_style_gen.h **** /*
   3:../../Middlewares/LVGL/GUI/lvgl/src/core/lv_obj_style_gen.h ****  **********************************************************************
   4:../../Middlewares/LVGL/GUI/lvgl/src/core/lv_obj_style_gen.h ****  *                            DO NOT EDIT
   5:../../Middlewares/LVGL/GUI/lvgl/src/core/lv_obj_style_gen.h ****  * This file is automatically generated by "style_api_gen.py"
   6:../../Middlewares/LVGL/GUI/lvgl/src/core/lv_obj_style_gen.h ****  **********************************************************************
   7:../../Middlewares/LVGL/GUI/lvgl/src/core/lv_obj_style_gen.h ****  */
   8:../../Middlewares/LVGL/GUI/lvgl/src/core/lv_obj_style_gen.h **** 
   9:../../Middlewares/LVGL/GUI/lvgl/src/core/lv_obj_style_gen.h **** 
  10:../../Middlewares/LVGL/GUI/lvgl/src/core/lv_obj_style_gen.h **** #ifndef LV_OBJ_STYLE_GEN_H
  11:../../Middlewares/LVGL/GUI/lvgl/src/core/lv_obj_style_gen.h **** #define LV_OBJ_STYLE_GEN_H
  12:../../Middlewares/LVGL/GUI/lvgl/src/core/lv_obj_style_gen.h **** 
  13:../../Middlewares/LVGL/GUI/lvgl/src/core/lv_obj_style_gen.h **** #ifdef __cplusplus
  14:../../Middlewares/LVGL/GUI/lvgl/src/core/lv_obj_style_gen.h **** extern "C" {
  15:../../Middlewares/LVGL/GUI/lvgl/src/core/lv_obj_style_gen.h **** #endif
  16:../../Middlewares/LVGL/GUI/lvgl/src/core/lv_obj_style_gen.h **** 
  17:../../Middlewares/LVGL/GUI/lvgl/src/core/lv_obj_style_gen.h **** #include "../misc/lv_area.h"
  18:../../Middlewares/LVGL/GUI/lvgl/src/core/lv_obj_style_gen.h **** #include "../misc/lv_style.h"
  19:../../Middlewares/LVGL/GUI/lvgl/src/core/lv_obj_style_gen.h **** #include "../core/lv_obj_style.h"
  20:../../Middlewares/LVGL/GUI/lvgl/src/core/lv_obj_style_gen.h **** #include "../misc/lv_types.h"
  21:../../Middlewares/LVGL/GUI/lvgl/src/core/lv_obj_style_gen.h **** 
  22:../../Middlewares/LVGL/GUI/lvgl/src/core/lv_obj_style_gen.h **** static inline int32_t lv_obj_get_style_width(const lv_obj_t * obj, lv_part_t part)
  23:../../Middlewares/LVGL/GUI/lvgl/src/core/lv_obj_style_gen.h **** {
  24:../../Middlewares/LVGL/GUI/lvgl/src/core/lv_obj_style_gen.h ****     lv_style_value_t v = lv_obj_get_style_prop(obj, part, LV_STYLE_WIDTH);
  25:../../Middlewares/LVGL/GUI/lvgl/src/core/lv_obj_style_gen.h ****     return (int32_t)v.num;
  26:../../Middlewares/LVGL/GUI/lvgl/src/core/lv_obj_style_gen.h **** }
  27:../../Middlewares/LVGL/GUI/lvgl/src/core/lv_obj_style_gen.h **** 
  28:../../Middlewares/LVGL/GUI/lvgl/src/core/lv_obj_style_gen.h **** static inline int32_t lv_obj_get_style_min_width(const lv_obj_t * obj, lv_part_t part)
  29:../../Middlewares/LVGL/GUI/lvgl/src/core/lv_obj_style_gen.h **** {
  30:../../Middlewares/LVGL/GUI/lvgl/src/core/lv_obj_style_gen.h ****     lv_style_value_t v = lv_obj_get_style_prop(obj, part, LV_STYLE_MIN_WIDTH);
  31:../../Middlewares/LVGL/GUI/lvgl/src/core/lv_obj_style_gen.h ****     return (int32_t)v.num;
  32:../../Middlewares/LVGL/GUI/lvgl/src/core/lv_obj_style_gen.h **** }
  33:../../Middlewares/LVGL/GUI/lvgl/src/core/lv_obj_style_gen.h **** 
ARM GAS  C:\Users\28576\AppData\Local\Temp\cclWIAwm.s 			page 10


  34:../../Middlewares/LVGL/GUI/lvgl/src/core/lv_obj_style_gen.h **** static inline int32_t lv_obj_get_style_max_width(const lv_obj_t * obj, lv_part_t part)
  35:../../Middlewares/LVGL/GUI/lvgl/src/core/lv_obj_style_gen.h **** {
  36:../../Middlewares/LVGL/GUI/lvgl/src/core/lv_obj_style_gen.h ****     lv_style_value_t v = lv_obj_get_style_prop(obj, part, LV_STYLE_MAX_WIDTH);
  37:../../Middlewares/LVGL/GUI/lvgl/src/core/lv_obj_style_gen.h ****     return (int32_t)v.num;
  38:../../Middlewares/LVGL/GUI/lvgl/src/core/lv_obj_style_gen.h **** }
  39:../../Middlewares/LVGL/GUI/lvgl/src/core/lv_obj_style_gen.h **** 
  40:../../Middlewares/LVGL/GUI/lvgl/src/core/lv_obj_style_gen.h **** static inline int32_t lv_obj_get_style_height(const lv_obj_t * obj, lv_part_t part)
  41:../../Middlewares/LVGL/GUI/lvgl/src/core/lv_obj_style_gen.h **** {
  42:../../Middlewares/LVGL/GUI/lvgl/src/core/lv_obj_style_gen.h ****     lv_style_value_t v = lv_obj_get_style_prop(obj, part, LV_STYLE_HEIGHT);
  43:../../Middlewares/LVGL/GUI/lvgl/src/core/lv_obj_style_gen.h ****     return (int32_t)v.num;
  44:../../Middlewares/LVGL/GUI/lvgl/src/core/lv_obj_style_gen.h **** }
  45:../../Middlewares/LVGL/GUI/lvgl/src/core/lv_obj_style_gen.h **** 
  46:../../Middlewares/LVGL/GUI/lvgl/src/core/lv_obj_style_gen.h **** static inline int32_t lv_obj_get_style_min_height(const lv_obj_t * obj, lv_part_t part)
  47:../../Middlewares/LVGL/GUI/lvgl/src/core/lv_obj_style_gen.h **** {
  48:../../Middlewares/LVGL/GUI/lvgl/src/core/lv_obj_style_gen.h ****     lv_style_value_t v = lv_obj_get_style_prop(obj, part, LV_STYLE_MIN_HEIGHT);
  49:../../Middlewares/LVGL/GUI/lvgl/src/core/lv_obj_style_gen.h ****     return (int32_t)v.num;
  50:../../Middlewares/LVGL/GUI/lvgl/src/core/lv_obj_style_gen.h **** }
  51:../../Middlewares/LVGL/GUI/lvgl/src/core/lv_obj_style_gen.h **** 
  52:../../Middlewares/LVGL/GUI/lvgl/src/core/lv_obj_style_gen.h **** static inline int32_t lv_obj_get_style_max_height(const lv_obj_t * obj, lv_part_t part)
  53:../../Middlewares/LVGL/GUI/lvgl/src/core/lv_obj_style_gen.h **** {
  54:../../Middlewares/LVGL/GUI/lvgl/src/core/lv_obj_style_gen.h ****     lv_style_value_t v = lv_obj_get_style_prop(obj, part, LV_STYLE_MAX_HEIGHT);
  55:../../Middlewares/LVGL/GUI/lvgl/src/core/lv_obj_style_gen.h ****     return (int32_t)v.num;
  56:../../Middlewares/LVGL/GUI/lvgl/src/core/lv_obj_style_gen.h **** }
  57:../../Middlewares/LVGL/GUI/lvgl/src/core/lv_obj_style_gen.h **** 
  58:../../Middlewares/LVGL/GUI/lvgl/src/core/lv_obj_style_gen.h **** static inline int32_t lv_obj_get_style_length(const lv_obj_t * obj, lv_part_t part)
  59:../../Middlewares/LVGL/GUI/lvgl/src/core/lv_obj_style_gen.h **** {
  60:../../Middlewares/LVGL/GUI/lvgl/src/core/lv_obj_style_gen.h ****     lv_style_value_t v = lv_obj_get_style_prop(obj, part, LV_STYLE_LENGTH);
  61:../../Middlewares/LVGL/GUI/lvgl/src/core/lv_obj_style_gen.h ****     return (int32_t)v.num;
  62:../../Middlewares/LVGL/GUI/lvgl/src/core/lv_obj_style_gen.h **** }
  63:../../Middlewares/LVGL/GUI/lvgl/src/core/lv_obj_style_gen.h **** 
  64:../../Middlewares/LVGL/GUI/lvgl/src/core/lv_obj_style_gen.h **** static inline int32_t lv_obj_get_style_x(const lv_obj_t * obj, lv_part_t part)
  65:../../Middlewares/LVGL/GUI/lvgl/src/core/lv_obj_style_gen.h **** {
  66:../../Middlewares/LVGL/GUI/lvgl/src/core/lv_obj_style_gen.h ****     lv_style_value_t v = lv_obj_get_style_prop(obj, part, LV_STYLE_X);
  67:../../Middlewares/LVGL/GUI/lvgl/src/core/lv_obj_style_gen.h ****     return (int32_t)v.num;
  68:../../Middlewares/LVGL/GUI/lvgl/src/core/lv_obj_style_gen.h **** }
  69:../../Middlewares/LVGL/GUI/lvgl/src/core/lv_obj_style_gen.h **** 
  70:../../Middlewares/LVGL/GUI/lvgl/src/core/lv_obj_style_gen.h **** static inline int32_t lv_obj_get_style_y(const lv_obj_t * obj, lv_part_t part)
  71:../../Middlewares/LVGL/GUI/lvgl/src/core/lv_obj_style_gen.h **** {
  72:../../Middlewares/LVGL/GUI/lvgl/src/core/lv_obj_style_gen.h ****     lv_style_value_t v = lv_obj_get_style_prop(obj, part, LV_STYLE_Y);
  73:../../Middlewares/LVGL/GUI/lvgl/src/core/lv_obj_style_gen.h ****     return (int32_t)v.num;
  74:../../Middlewares/LVGL/GUI/lvgl/src/core/lv_obj_style_gen.h **** }
  75:../../Middlewares/LVGL/GUI/lvgl/src/core/lv_obj_style_gen.h **** 
  76:../../Middlewares/LVGL/GUI/lvgl/src/core/lv_obj_style_gen.h **** static inline lv_align_t lv_obj_get_style_align(const lv_obj_t * obj, lv_part_t part)
  77:../../Middlewares/LVGL/GUI/lvgl/src/core/lv_obj_style_gen.h **** {
  78:../../Middlewares/LVGL/GUI/lvgl/src/core/lv_obj_style_gen.h ****     lv_style_value_t v = lv_obj_get_style_prop(obj, part, LV_STYLE_ALIGN);
  79:../../Middlewares/LVGL/GUI/lvgl/src/core/lv_obj_style_gen.h ****     return (lv_align_t)v.num;
  80:../../Middlewares/LVGL/GUI/lvgl/src/core/lv_obj_style_gen.h **** }
  81:../../Middlewares/LVGL/GUI/lvgl/src/core/lv_obj_style_gen.h **** 
  82:../../Middlewares/LVGL/GUI/lvgl/src/core/lv_obj_style_gen.h **** static inline int32_t lv_obj_get_style_transform_width(const lv_obj_t * obj, lv_part_t part)
  83:../../Middlewares/LVGL/GUI/lvgl/src/core/lv_obj_style_gen.h **** {
  84:../../Middlewares/LVGL/GUI/lvgl/src/core/lv_obj_style_gen.h ****     lv_style_value_t v = lv_obj_get_style_prop(obj, part, LV_STYLE_TRANSFORM_WIDTH);
  85:../../Middlewares/LVGL/GUI/lvgl/src/core/lv_obj_style_gen.h ****     return (int32_t)v.num;
  86:../../Middlewares/LVGL/GUI/lvgl/src/core/lv_obj_style_gen.h **** }
  87:../../Middlewares/LVGL/GUI/lvgl/src/core/lv_obj_style_gen.h **** 
  88:../../Middlewares/LVGL/GUI/lvgl/src/core/lv_obj_style_gen.h **** static inline int32_t lv_obj_get_style_transform_height(const lv_obj_t * obj, lv_part_t part)
  89:../../Middlewares/LVGL/GUI/lvgl/src/core/lv_obj_style_gen.h **** {
  90:../../Middlewares/LVGL/GUI/lvgl/src/core/lv_obj_style_gen.h ****     lv_style_value_t v = lv_obj_get_style_prop(obj, part, LV_STYLE_TRANSFORM_HEIGHT);
ARM GAS  C:\Users\28576\AppData\Local\Temp\cclWIAwm.s 			page 11


  91:../../Middlewares/LVGL/GUI/lvgl/src/core/lv_obj_style_gen.h ****     return (int32_t)v.num;
  92:../../Middlewares/LVGL/GUI/lvgl/src/core/lv_obj_style_gen.h **** }
  93:../../Middlewares/LVGL/GUI/lvgl/src/core/lv_obj_style_gen.h **** 
  94:../../Middlewares/LVGL/GUI/lvgl/src/core/lv_obj_style_gen.h **** static inline int32_t lv_obj_get_style_translate_x(const lv_obj_t * obj, lv_part_t part)
  95:../../Middlewares/LVGL/GUI/lvgl/src/core/lv_obj_style_gen.h **** {
  96:../../Middlewares/LVGL/GUI/lvgl/src/core/lv_obj_style_gen.h ****     lv_style_value_t v = lv_obj_get_style_prop(obj, part, LV_STYLE_TRANSLATE_X);
  97:../../Middlewares/LVGL/GUI/lvgl/src/core/lv_obj_style_gen.h ****     return (int32_t)v.num;
  98:../../Middlewares/LVGL/GUI/lvgl/src/core/lv_obj_style_gen.h **** }
  99:../../Middlewares/LVGL/GUI/lvgl/src/core/lv_obj_style_gen.h **** 
 100:../../Middlewares/LVGL/GUI/lvgl/src/core/lv_obj_style_gen.h **** static inline int32_t lv_obj_get_style_translate_y(const lv_obj_t * obj, lv_part_t part)
 101:../../Middlewares/LVGL/GUI/lvgl/src/core/lv_obj_style_gen.h **** {
 102:../../Middlewares/LVGL/GUI/lvgl/src/core/lv_obj_style_gen.h ****     lv_style_value_t v = lv_obj_get_style_prop(obj, part, LV_STYLE_TRANSLATE_Y);
 103:../../Middlewares/LVGL/GUI/lvgl/src/core/lv_obj_style_gen.h ****     return (int32_t)v.num;
 104:../../Middlewares/LVGL/GUI/lvgl/src/core/lv_obj_style_gen.h **** }
 105:../../Middlewares/LVGL/GUI/lvgl/src/core/lv_obj_style_gen.h **** 
 106:../../Middlewares/LVGL/GUI/lvgl/src/core/lv_obj_style_gen.h **** static inline int32_t lv_obj_get_style_translate_radial(const lv_obj_t * obj, lv_part_t part)
 107:../../Middlewares/LVGL/GUI/lvgl/src/core/lv_obj_style_gen.h **** {
 108:../../Middlewares/LVGL/GUI/lvgl/src/core/lv_obj_style_gen.h ****     lv_style_value_t v = lv_obj_get_style_prop(obj, part, LV_STYLE_TRANSLATE_RADIAL);
 109:../../Middlewares/LVGL/GUI/lvgl/src/core/lv_obj_style_gen.h ****     return (int32_t)v.num;
 110:../../Middlewares/LVGL/GUI/lvgl/src/core/lv_obj_style_gen.h **** }
 111:../../Middlewares/LVGL/GUI/lvgl/src/core/lv_obj_style_gen.h **** 
 112:../../Middlewares/LVGL/GUI/lvgl/src/core/lv_obj_style_gen.h **** static inline int32_t lv_obj_get_style_transform_scale_x(const lv_obj_t * obj, lv_part_t part)
 113:../../Middlewares/LVGL/GUI/lvgl/src/core/lv_obj_style_gen.h **** {
 114:../../Middlewares/LVGL/GUI/lvgl/src/core/lv_obj_style_gen.h ****     lv_style_value_t v = lv_obj_get_style_prop(obj, part, LV_STYLE_TRANSFORM_SCALE_X);
 115:../../Middlewares/LVGL/GUI/lvgl/src/core/lv_obj_style_gen.h ****     return (int32_t)v.num;
 116:../../Middlewares/LVGL/GUI/lvgl/src/core/lv_obj_style_gen.h **** }
 117:../../Middlewares/LVGL/GUI/lvgl/src/core/lv_obj_style_gen.h **** 
 118:../../Middlewares/LVGL/GUI/lvgl/src/core/lv_obj_style_gen.h **** static inline int32_t lv_obj_get_style_transform_scale_y(const lv_obj_t * obj, lv_part_t part)
 119:../../Middlewares/LVGL/GUI/lvgl/src/core/lv_obj_style_gen.h **** {
 120:../../Middlewares/LVGL/GUI/lvgl/src/core/lv_obj_style_gen.h ****     lv_style_value_t v = lv_obj_get_style_prop(obj, part, LV_STYLE_TRANSFORM_SCALE_Y);
 121:../../Middlewares/LVGL/GUI/lvgl/src/core/lv_obj_style_gen.h ****     return (int32_t)v.num;
 122:../../Middlewares/LVGL/GUI/lvgl/src/core/lv_obj_style_gen.h **** }
 123:../../Middlewares/LVGL/GUI/lvgl/src/core/lv_obj_style_gen.h **** 
 124:../../Middlewares/LVGL/GUI/lvgl/src/core/lv_obj_style_gen.h **** static inline int32_t lv_obj_get_style_transform_rotation(const lv_obj_t * obj, lv_part_t part)
 125:../../Middlewares/LVGL/GUI/lvgl/src/core/lv_obj_style_gen.h **** {
 126:../../Middlewares/LVGL/GUI/lvgl/src/core/lv_obj_style_gen.h ****     lv_style_value_t v = lv_obj_get_style_prop(obj, part, LV_STYLE_TRANSFORM_ROTATION);
 127:../../Middlewares/LVGL/GUI/lvgl/src/core/lv_obj_style_gen.h ****     return (int32_t)v.num;
 128:../../Middlewares/LVGL/GUI/lvgl/src/core/lv_obj_style_gen.h **** }
 129:../../Middlewares/LVGL/GUI/lvgl/src/core/lv_obj_style_gen.h **** 
 130:../../Middlewares/LVGL/GUI/lvgl/src/core/lv_obj_style_gen.h **** static inline int32_t lv_obj_get_style_transform_pivot_x(const lv_obj_t * obj, lv_part_t part)
 131:../../Middlewares/LVGL/GUI/lvgl/src/core/lv_obj_style_gen.h **** {
 132:../../Middlewares/LVGL/GUI/lvgl/src/core/lv_obj_style_gen.h ****     lv_style_value_t v = lv_obj_get_style_prop(obj, part, LV_STYLE_TRANSFORM_PIVOT_X);
 133:../../Middlewares/LVGL/GUI/lvgl/src/core/lv_obj_style_gen.h ****     return (int32_t)v.num;
 134:../../Middlewares/LVGL/GUI/lvgl/src/core/lv_obj_style_gen.h **** }
 135:../../Middlewares/LVGL/GUI/lvgl/src/core/lv_obj_style_gen.h **** 
 136:../../Middlewares/LVGL/GUI/lvgl/src/core/lv_obj_style_gen.h **** static inline int32_t lv_obj_get_style_transform_pivot_y(const lv_obj_t * obj, lv_part_t part)
 137:../../Middlewares/LVGL/GUI/lvgl/src/core/lv_obj_style_gen.h **** {
 138:../../Middlewares/LVGL/GUI/lvgl/src/core/lv_obj_style_gen.h ****     lv_style_value_t v = lv_obj_get_style_prop(obj, part, LV_STYLE_TRANSFORM_PIVOT_Y);
 139:../../Middlewares/LVGL/GUI/lvgl/src/core/lv_obj_style_gen.h ****     return (int32_t)v.num;
 140:../../Middlewares/LVGL/GUI/lvgl/src/core/lv_obj_style_gen.h **** }
 141:../../Middlewares/LVGL/GUI/lvgl/src/core/lv_obj_style_gen.h **** 
 142:../../Middlewares/LVGL/GUI/lvgl/src/core/lv_obj_style_gen.h **** static inline int32_t lv_obj_get_style_transform_skew_x(const lv_obj_t * obj, lv_part_t part)
 143:../../Middlewares/LVGL/GUI/lvgl/src/core/lv_obj_style_gen.h **** {
 144:../../Middlewares/LVGL/GUI/lvgl/src/core/lv_obj_style_gen.h ****     lv_style_value_t v = lv_obj_get_style_prop(obj, part, LV_STYLE_TRANSFORM_SKEW_X);
 145:../../Middlewares/LVGL/GUI/lvgl/src/core/lv_obj_style_gen.h ****     return (int32_t)v.num;
 146:../../Middlewares/LVGL/GUI/lvgl/src/core/lv_obj_style_gen.h **** }
 147:../../Middlewares/LVGL/GUI/lvgl/src/core/lv_obj_style_gen.h **** 
ARM GAS  C:\Users\28576\AppData\Local\Temp\cclWIAwm.s 			page 12


 148:../../Middlewares/LVGL/GUI/lvgl/src/core/lv_obj_style_gen.h **** static inline int32_t lv_obj_get_style_transform_skew_y(const lv_obj_t * obj, lv_part_t part)
 149:../../Middlewares/LVGL/GUI/lvgl/src/core/lv_obj_style_gen.h **** {
 150:../../Middlewares/LVGL/GUI/lvgl/src/core/lv_obj_style_gen.h ****     lv_style_value_t v = lv_obj_get_style_prop(obj, part, LV_STYLE_TRANSFORM_SKEW_Y);
 151:../../Middlewares/LVGL/GUI/lvgl/src/core/lv_obj_style_gen.h ****     return (int32_t)v.num;
 152:../../Middlewares/LVGL/GUI/lvgl/src/core/lv_obj_style_gen.h **** }
 153:../../Middlewares/LVGL/GUI/lvgl/src/core/lv_obj_style_gen.h **** 
 154:../../Middlewares/LVGL/GUI/lvgl/src/core/lv_obj_style_gen.h **** static inline int32_t lv_obj_get_style_pad_top(const lv_obj_t * obj, lv_part_t part)
 155:../../Middlewares/LVGL/GUI/lvgl/src/core/lv_obj_style_gen.h **** {
 156:../../Middlewares/LVGL/GUI/lvgl/src/core/lv_obj_style_gen.h ****     lv_style_value_t v = lv_obj_get_style_prop(obj, part, LV_STYLE_PAD_TOP);
 157:../../Middlewares/LVGL/GUI/lvgl/src/core/lv_obj_style_gen.h ****     return (int32_t)v.num;
 158:../../Middlewares/LVGL/GUI/lvgl/src/core/lv_obj_style_gen.h **** }
 159:../../Middlewares/LVGL/GUI/lvgl/src/core/lv_obj_style_gen.h **** 
 160:../../Middlewares/LVGL/GUI/lvgl/src/core/lv_obj_style_gen.h **** static inline int32_t lv_obj_get_style_pad_bottom(const lv_obj_t * obj, lv_part_t part)
 161:../../Middlewares/LVGL/GUI/lvgl/src/core/lv_obj_style_gen.h **** {
 162:../../Middlewares/LVGL/GUI/lvgl/src/core/lv_obj_style_gen.h ****     lv_style_value_t v = lv_obj_get_style_prop(obj, part, LV_STYLE_PAD_BOTTOM);
 163:../../Middlewares/LVGL/GUI/lvgl/src/core/lv_obj_style_gen.h ****     return (int32_t)v.num;
 164:../../Middlewares/LVGL/GUI/lvgl/src/core/lv_obj_style_gen.h **** }
 165:../../Middlewares/LVGL/GUI/lvgl/src/core/lv_obj_style_gen.h **** 
 166:../../Middlewares/LVGL/GUI/lvgl/src/core/lv_obj_style_gen.h **** static inline int32_t lv_obj_get_style_pad_left(const lv_obj_t * obj, lv_part_t part)
 167:../../Middlewares/LVGL/GUI/lvgl/src/core/lv_obj_style_gen.h **** {
 168:../../Middlewares/LVGL/GUI/lvgl/src/core/lv_obj_style_gen.h ****     lv_style_value_t v = lv_obj_get_style_prop(obj, part, LV_STYLE_PAD_LEFT);
 169:../../Middlewares/LVGL/GUI/lvgl/src/core/lv_obj_style_gen.h ****     return (int32_t)v.num;
 170:../../Middlewares/LVGL/GUI/lvgl/src/core/lv_obj_style_gen.h **** }
 171:../../Middlewares/LVGL/GUI/lvgl/src/core/lv_obj_style_gen.h **** 
 172:../../Middlewares/LVGL/GUI/lvgl/src/core/lv_obj_style_gen.h **** static inline int32_t lv_obj_get_style_pad_right(const lv_obj_t * obj, lv_part_t part)
 173:../../Middlewares/LVGL/GUI/lvgl/src/core/lv_obj_style_gen.h **** {
 174:../../Middlewares/LVGL/GUI/lvgl/src/core/lv_obj_style_gen.h ****     lv_style_value_t v = lv_obj_get_style_prop(obj, part, LV_STYLE_PAD_RIGHT);
 175:../../Middlewares/LVGL/GUI/lvgl/src/core/lv_obj_style_gen.h ****     return (int32_t)v.num;
 176:../../Middlewares/LVGL/GUI/lvgl/src/core/lv_obj_style_gen.h **** }
 177:../../Middlewares/LVGL/GUI/lvgl/src/core/lv_obj_style_gen.h **** 
 178:../../Middlewares/LVGL/GUI/lvgl/src/core/lv_obj_style_gen.h **** static inline int32_t lv_obj_get_style_pad_row(const lv_obj_t * obj, lv_part_t part)
 179:../../Middlewares/LVGL/GUI/lvgl/src/core/lv_obj_style_gen.h **** {
 180:../../Middlewares/LVGL/GUI/lvgl/src/core/lv_obj_style_gen.h ****     lv_style_value_t v = lv_obj_get_style_prop(obj, part, LV_STYLE_PAD_ROW);
 181:../../Middlewares/LVGL/GUI/lvgl/src/core/lv_obj_style_gen.h ****     return (int32_t)v.num;
 182:../../Middlewares/LVGL/GUI/lvgl/src/core/lv_obj_style_gen.h **** }
 183:../../Middlewares/LVGL/GUI/lvgl/src/core/lv_obj_style_gen.h **** 
 184:../../Middlewares/LVGL/GUI/lvgl/src/core/lv_obj_style_gen.h **** static inline int32_t lv_obj_get_style_pad_column(const lv_obj_t * obj, lv_part_t part)
 185:../../Middlewares/LVGL/GUI/lvgl/src/core/lv_obj_style_gen.h **** {
 186:../../Middlewares/LVGL/GUI/lvgl/src/core/lv_obj_style_gen.h ****     lv_style_value_t v = lv_obj_get_style_prop(obj, part, LV_STYLE_PAD_COLUMN);
 187:../../Middlewares/LVGL/GUI/lvgl/src/core/lv_obj_style_gen.h ****     return (int32_t)v.num;
 188:../../Middlewares/LVGL/GUI/lvgl/src/core/lv_obj_style_gen.h **** }
 189:../../Middlewares/LVGL/GUI/lvgl/src/core/lv_obj_style_gen.h **** 
 190:../../Middlewares/LVGL/GUI/lvgl/src/core/lv_obj_style_gen.h **** static inline int32_t lv_obj_get_style_pad_radial(const lv_obj_t * obj, lv_part_t part)
 191:../../Middlewares/LVGL/GUI/lvgl/src/core/lv_obj_style_gen.h **** {
 192:../../Middlewares/LVGL/GUI/lvgl/src/core/lv_obj_style_gen.h ****     lv_style_value_t v = lv_obj_get_style_prop(obj, part, LV_STYLE_PAD_RADIAL);
 193:../../Middlewares/LVGL/GUI/lvgl/src/core/lv_obj_style_gen.h ****     return (int32_t)v.num;
 194:../../Middlewares/LVGL/GUI/lvgl/src/core/lv_obj_style_gen.h **** }
 195:../../Middlewares/LVGL/GUI/lvgl/src/core/lv_obj_style_gen.h **** 
 196:../../Middlewares/LVGL/GUI/lvgl/src/core/lv_obj_style_gen.h **** static inline int32_t lv_obj_get_style_margin_top(const lv_obj_t * obj, lv_part_t part)
 197:../../Middlewares/LVGL/GUI/lvgl/src/core/lv_obj_style_gen.h **** {
 198:../../Middlewares/LVGL/GUI/lvgl/src/core/lv_obj_style_gen.h ****     lv_style_value_t v = lv_obj_get_style_prop(obj, part, LV_STYLE_MARGIN_TOP);
 199:../../Middlewares/LVGL/GUI/lvgl/src/core/lv_obj_style_gen.h ****     return (int32_t)v.num;
 200:../../Middlewares/LVGL/GUI/lvgl/src/core/lv_obj_style_gen.h **** }
 201:../../Middlewares/LVGL/GUI/lvgl/src/core/lv_obj_style_gen.h **** 
 202:../../Middlewares/LVGL/GUI/lvgl/src/core/lv_obj_style_gen.h **** static inline int32_t lv_obj_get_style_margin_bottom(const lv_obj_t * obj, lv_part_t part)
 203:../../Middlewares/LVGL/GUI/lvgl/src/core/lv_obj_style_gen.h **** {
 204:../../Middlewares/LVGL/GUI/lvgl/src/core/lv_obj_style_gen.h ****     lv_style_value_t v = lv_obj_get_style_prop(obj, part, LV_STYLE_MARGIN_BOTTOM);
ARM GAS  C:\Users\28576\AppData\Local\Temp\cclWIAwm.s 			page 13


 205:../../Middlewares/LVGL/GUI/lvgl/src/core/lv_obj_style_gen.h ****     return (int32_t)v.num;
 206:../../Middlewares/LVGL/GUI/lvgl/src/core/lv_obj_style_gen.h **** }
 207:../../Middlewares/LVGL/GUI/lvgl/src/core/lv_obj_style_gen.h **** 
 208:../../Middlewares/LVGL/GUI/lvgl/src/core/lv_obj_style_gen.h **** static inline int32_t lv_obj_get_style_margin_left(const lv_obj_t * obj, lv_part_t part)
 209:../../Middlewares/LVGL/GUI/lvgl/src/core/lv_obj_style_gen.h **** {
 210:../../Middlewares/LVGL/GUI/lvgl/src/core/lv_obj_style_gen.h ****     lv_style_value_t v = lv_obj_get_style_prop(obj, part, LV_STYLE_MARGIN_LEFT);
 211:../../Middlewares/LVGL/GUI/lvgl/src/core/lv_obj_style_gen.h ****     return (int32_t)v.num;
 212:../../Middlewares/LVGL/GUI/lvgl/src/core/lv_obj_style_gen.h **** }
 213:../../Middlewares/LVGL/GUI/lvgl/src/core/lv_obj_style_gen.h **** 
 214:../../Middlewares/LVGL/GUI/lvgl/src/core/lv_obj_style_gen.h **** static inline int32_t lv_obj_get_style_margin_right(const lv_obj_t * obj, lv_part_t part)
 215:../../Middlewares/LVGL/GUI/lvgl/src/core/lv_obj_style_gen.h **** {
 216:../../Middlewares/LVGL/GUI/lvgl/src/core/lv_obj_style_gen.h ****     lv_style_value_t v = lv_obj_get_style_prop(obj, part, LV_STYLE_MARGIN_RIGHT);
 217:../../Middlewares/LVGL/GUI/lvgl/src/core/lv_obj_style_gen.h ****     return (int32_t)v.num;
 218:../../Middlewares/LVGL/GUI/lvgl/src/core/lv_obj_style_gen.h **** }
 219:../../Middlewares/LVGL/GUI/lvgl/src/core/lv_obj_style_gen.h **** 
 220:../../Middlewares/LVGL/GUI/lvgl/src/core/lv_obj_style_gen.h **** static inline lv_color_t lv_obj_get_style_bg_color(const lv_obj_t * obj, lv_part_t part)
 221:../../Middlewares/LVGL/GUI/lvgl/src/core/lv_obj_style_gen.h **** {
 222:../../Middlewares/LVGL/GUI/lvgl/src/core/lv_obj_style_gen.h ****     lv_style_value_t v = lv_obj_get_style_prop(obj, part, LV_STYLE_BG_COLOR);
 223:../../Middlewares/LVGL/GUI/lvgl/src/core/lv_obj_style_gen.h ****     return v.color;
 224:../../Middlewares/LVGL/GUI/lvgl/src/core/lv_obj_style_gen.h **** }
 225:../../Middlewares/LVGL/GUI/lvgl/src/core/lv_obj_style_gen.h **** 
 226:../../Middlewares/LVGL/GUI/lvgl/src/core/lv_obj_style_gen.h **** static inline lv_color_t lv_obj_get_style_bg_color_filtered(const lv_obj_t * obj, lv_part_t part)
 227:../../Middlewares/LVGL/GUI/lvgl/src/core/lv_obj_style_gen.h **** {
 228:../../Middlewares/LVGL/GUI/lvgl/src/core/lv_obj_style_gen.h ****     lv_style_value_t v = lv_obj_style_apply_color_filter(obj, part, lv_obj_get_style_prop(obj, part
 229:../../Middlewares/LVGL/GUI/lvgl/src/core/lv_obj_style_gen.h ****     return v.color;
 230:../../Middlewares/LVGL/GUI/lvgl/src/core/lv_obj_style_gen.h **** }
 231:../../Middlewares/LVGL/GUI/lvgl/src/core/lv_obj_style_gen.h **** 
 232:../../Middlewares/LVGL/GUI/lvgl/src/core/lv_obj_style_gen.h **** static inline lv_opa_t lv_obj_get_style_bg_opa(const lv_obj_t * obj, lv_part_t part)
 233:../../Middlewares/LVGL/GUI/lvgl/src/core/lv_obj_style_gen.h **** {
 234:../../Middlewares/LVGL/GUI/lvgl/src/core/lv_obj_style_gen.h ****     lv_style_value_t v = lv_obj_get_style_prop(obj, part, LV_STYLE_BG_OPA);
 235:../../Middlewares/LVGL/GUI/lvgl/src/core/lv_obj_style_gen.h ****     return (lv_opa_t)v.num;
 236:../../Middlewares/LVGL/GUI/lvgl/src/core/lv_obj_style_gen.h **** }
 237:../../Middlewares/LVGL/GUI/lvgl/src/core/lv_obj_style_gen.h **** 
 238:../../Middlewares/LVGL/GUI/lvgl/src/core/lv_obj_style_gen.h **** static inline lv_color_t lv_obj_get_style_bg_grad_color(const lv_obj_t * obj, lv_part_t part)
 239:../../Middlewares/LVGL/GUI/lvgl/src/core/lv_obj_style_gen.h **** {
 240:../../Middlewares/LVGL/GUI/lvgl/src/core/lv_obj_style_gen.h ****     lv_style_value_t v = lv_obj_get_style_prop(obj, part, LV_STYLE_BG_GRAD_COLOR);
 241:../../Middlewares/LVGL/GUI/lvgl/src/core/lv_obj_style_gen.h ****     return v.color;
 242:../../Middlewares/LVGL/GUI/lvgl/src/core/lv_obj_style_gen.h **** }
 243:../../Middlewares/LVGL/GUI/lvgl/src/core/lv_obj_style_gen.h **** 
 244:../../Middlewares/LVGL/GUI/lvgl/src/core/lv_obj_style_gen.h **** static inline lv_color_t lv_obj_get_style_bg_grad_color_filtered(const lv_obj_t * obj, lv_part_t pa
 245:../../Middlewares/LVGL/GUI/lvgl/src/core/lv_obj_style_gen.h **** {
 246:../../Middlewares/LVGL/GUI/lvgl/src/core/lv_obj_style_gen.h ****     lv_style_value_t v = lv_obj_style_apply_color_filter(obj, part, lv_obj_get_style_prop(obj, part
 247:../../Middlewares/LVGL/GUI/lvgl/src/core/lv_obj_style_gen.h ****     return v.color;
 248:../../Middlewares/LVGL/GUI/lvgl/src/core/lv_obj_style_gen.h **** }
 249:../../Middlewares/LVGL/GUI/lvgl/src/core/lv_obj_style_gen.h **** 
 250:../../Middlewares/LVGL/GUI/lvgl/src/core/lv_obj_style_gen.h **** static inline lv_grad_dir_t lv_obj_get_style_bg_grad_dir(const lv_obj_t * obj, lv_part_t part)
 251:../../Middlewares/LVGL/GUI/lvgl/src/core/lv_obj_style_gen.h **** {
 252:../../Middlewares/LVGL/GUI/lvgl/src/core/lv_obj_style_gen.h ****     lv_style_value_t v = lv_obj_get_style_prop(obj, part, LV_STYLE_BG_GRAD_DIR);
 253:../../Middlewares/LVGL/GUI/lvgl/src/core/lv_obj_style_gen.h ****     return (lv_grad_dir_t)v.num;
 254:../../Middlewares/LVGL/GUI/lvgl/src/core/lv_obj_style_gen.h **** }
 255:../../Middlewares/LVGL/GUI/lvgl/src/core/lv_obj_style_gen.h **** 
 256:../../Middlewares/LVGL/GUI/lvgl/src/core/lv_obj_style_gen.h **** static inline int32_t lv_obj_get_style_bg_main_stop(const lv_obj_t * obj, lv_part_t part)
 257:../../Middlewares/LVGL/GUI/lvgl/src/core/lv_obj_style_gen.h **** {
 258:../../Middlewares/LVGL/GUI/lvgl/src/core/lv_obj_style_gen.h ****     lv_style_value_t v = lv_obj_get_style_prop(obj, part, LV_STYLE_BG_MAIN_STOP);
 259:../../Middlewares/LVGL/GUI/lvgl/src/core/lv_obj_style_gen.h ****     return (int32_t)v.num;
 260:../../Middlewares/LVGL/GUI/lvgl/src/core/lv_obj_style_gen.h **** }
 261:../../Middlewares/LVGL/GUI/lvgl/src/core/lv_obj_style_gen.h **** 
ARM GAS  C:\Users\28576\AppData\Local\Temp\cclWIAwm.s 			page 14


 262:../../Middlewares/LVGL/GUI/lvgl/src/core/lv_obj_style_gen.h **** static inline int32_t lv_obj_get_style_bg_grad_stop(const lv_obj_t * obj, lv_part_t part)
 263:../../Middlewares/LVGL/GUI/lvgl/src/core/lv_obj_style_gen.h **** {
 264:../../Middlewares/LVGL/GUI/lvgl/src/core/lv_obj_style_gen.h ****     lv_style_value_t v = lv_obj_get_style_prop(obj, part, LV_STYLE_BG_GRAD_STOP);
 265:../../Middlewares/LVGL/GUI/lvgl/src/core/lv_obj_style_gen.h ****     return (int32_t)v.num;
 266:../../Middlewares/LVGL/GUI/lvgl/src/core/lv_obj_style_gen.h **** }
 267:../../Middlewares/LVGL/GUI/lvgl/src/core/lv_obj_style_gen.h **** 
 268:../../Middlewares/LVGL/GUI/lvgl/src/core/lv_obj_style_gen.h **** static inline lv_opa_t lv_obj_get_style_bg_main_opa(const lv_obj_t * obj, lv_part_t part)
 269:../../Middlewares/LVGL/GUI/lvgl/src/core/lv_obj_style_gen.h **** {
 270:../../Middlewares/LVGL/GUI/lvgl/src/core/lv_obj_style_gen.h ****     lv_style_value_t v = lv_obj_get_style_prop(obj, part, LV_STYLE_BG_MAIN_OPA);
 271:../../Middlewares/LVGL/GUI/lvgl/src/core/lv_obj_style_gen.h ****     return (lv_opa_t)v.num;
 272:../../Middlewares/LVGL/GUI/lvgl/src/core/lv_obj_style_gen.h **** }
 273:../../Middlewares/LVGL/GUI/lvgl/src/core/lv_obj_style_gen.h **** 
 274:../../Middlewares/LVGL/GUI/lvgl/src/core/lv_obj_style_gen.h **** static inline lv_opa_t lv_obj_get_style_bg_grad_opa(const lv_obj_t * obj, lv_part_t part)
 275:../../Middlewares/LVGL/GUI/lvgl/src/core/lv_obj_style_gen.h **** {
 276:../../Middlewares/LVGL/GUI/lvgl/src/core/lv_obj_style_gen.h ****     lv_style_value_t v = lv_obj_get_style_prop(obj, part, LV_STYLE_BG_GRAD_OPA);
 277:../../Middlewares/LVGL/GUI/lvgl/src/core/lv_obj_style_gen.h ****     return (lv_opa_t)v.num;
 278:../../Middlewares/LVGL/GUI/lvgl/src/core/lv_obj_style_gen.h **** }
 279:../../Middlewares/LVGL/GUI/lvgl/src/core/lv_obj_style_gen.h **** 
 280:../../Middlewares/LVGL/GUI/lvgl/src/core/lv_obj_style_gen.h **** static inline const lv_grad_dsc_t * lv_obj_get_style_bg_grad(const lv_obj_t * obj, lv_part_t part)
 281:../../Middlewares/LVGL/GUI/lvgl/src/core/lv_obj_style_gen.h **** {
 282:../../Middlewares/LVGL/GUI/lvgl/src/core/lv_obj_style_gen.h ****     lv_style_value_t v = lv_obj_get_style_prop(obj, part, LV_STYLE_BG_GRAD);
 283:../../Middlewares/LVGL/GUI/lvgl/src/core/lv_obj_style_gen.h ****     return (const lv_grad_dsc_t *)v.ptr;
 284:../../Middlewares/LVGL/GUI/lvgl/src/core/lv_obj_style_gen.h **** }
 285:../../Middlewares/LVGL/GUI/lvgl/src/core/lv_obj_style_gen.h **** 
 286:../../Middlewares/LVGL/GUI/lvgl/src/core/lv_obj_style_gen.h **** static inline const void * lv_obj_get_style_bg_image_src(const lv_obj_t * obj, lv_part_t part)
 287:../../Middlewares/LVGL/GUI/lvgl/src/core/lv_obj_style_gen.h **** {
 288:../../Middlewares/LVGL/GUI/lvgl/src/core/lv_obj_style_gen.h ****     lv_style_value_t v = lv_obj_get_style_prop(obj, part, LV_STYLE_BG_IMAGE_SRC);
 289:../../Middlewares/LVGL/GUI/lvgl/src/core/lv_obj_style_gen.h ****     return (const void *)v.ptr;
 290:../../Middlewares/LVGL/GUI/lvgl/src/core/lv_obj_style_gen.h **** }
 291:../../Middlewares/LVGL/GUI/lvgl/src/core/lv_obj_style_gen.h **** 
 292:../../Middlewares/LVGL/GUI/lvgl/src/core/lv_obj_style_gen.h **** static inline lv_opa_t lv_obj_get_style_bg_image_opa(const lv_obj_t * obj, lv_part_t part)
 293:../../Middlewares/LVGL/GUI/lvgl/src/core/lv_obj_style_gen.h **** {
 294:../../Middlewares/LVGL/GUI/lvgl/src/core/lv_obj_style_gen.h ****     lv_style_value_t v = lv_obj_get_style_prop(obj, part, LV_STYLE_BG_IMAGE_OPA);
 295:../../Middlewares/LVGL/GUI/lvgl/src/core/lv_obj_style_gen.h ****     return (lv_opa_t)v.num;
 296:../../Middlewares/LVGL/GUI/lvgl/src/core/lv_obj_style_gen.h **** }
 297:../../Middlewares/LVGL/GUI/lvgl/src/core/lv_obj_style_gen.h **** 
 298:../../Middlewares/LVGL/GUI/lvgl/src/core/lv_obj_style_gen.h **** static inline lv_color_t lv_obj_get_style_bg_image_recolor(const lv_obj_t * obj, lv_part_t part)
 299:../../Middlewares/LVGL/GUI/lvgl/src/core/lv_obj_style_gen.h **** {
 300:../../Middlewares/LVGL/GUI/lvgl/src/core/lv_obj_style_gen.h ****     lv_style_value_t v = lv_obj_get_style_prop(obj, part, LV_STYLE_BG_IMAGE_RECOLOR);
 301:../../Middlewares/LVGL/GUI/lvgl/src/core/lv_obj_style_gen.h ****     return v.color;
 302:../../Middlewares/LVGL/GUI/lvgl/src/core/lv_obj_style_gen.h **** }
 303:../../Middlewares/LVGL/GUI/lvgl/src/core/lv_obj_style_gen.h **** 
 304:../../Middlewares/LVGL/GUI/lvgl/src/core/lv_obj_style_gen.h **** static inline lv_color_t lv_obj_get_style_bg_image_recolor_filtered(const lv_obj_t * obj, lv_part_t
 305:../../Middlewares/LVGL/GUI/lvgl/src/core/lv_obj_style_gen.h **** {
 306:../../Middlewares/LVGL/GUI/lvgl/src/core/lv_obj_style_gen.h ****     lv_style_value_t v = lv_obj_style_apply_color_filter(obj, part, lv_obj_get_style_prop(obj, part
 307:../../Middlewares/LVGL/GUI/lvgl/src/core/lv_obj_style_gen.h ****     return v.color;
 308:../../Middlewares/LVGL/GUI/lvgl/src/core/lv_obj_style_gen.h **** }
 309:../../Middlewares/LVGL/GUI/lvgl/src/core/lv_obj_style_gen.h **** 
 310:../../Middlewares/LVGL/GUI/lvgl/src/core/lv_obj_style_gen.h **** static inline lv_opa_t lv_obj_get_style_bg_image_recolor_opa(const lv_obj_t * obj, lv_part_t part)
 311:../../Middlewares/LVGL/GUI/lvgl/src/core/lv_obj_style_gen.h **** {
 312:../../Middlewares/LVGL/GUI/lvgl/src/core/lv_obj_style_gen.h ****     lv_style_value_t v = lv_obj_get_style_prop(obj, part, LV_STYLE_BG_IMAGE_RECOLOR_OPA);
 313:../../Middlewares/LVGL/GUI/lvgl/src/core/lv_obj_style_gen.h ****     return (lv_opa_t)v.num;
 314:../../Middlewares/LVGL/GUI/lvgl/src/core/lv_obj_style_gen.h **** }
 315:../../Middlewares/LVGL/GUI/lvgl/src/core/lv_obj_style_gen.h **** 
 316:../../Middlewares/LVGL/GUI/lvgl/src/core/lv_obj_style_gen.h **** static inline bool lv_obj_get_style_bg_image_tiled(const lv_obj_t * obj, lv_part_t part)
 317:../../Middlewares/LVGL/GUI/lvgl/src/core/lv_obj_style_gen.h **** {
 318:../../Middlewares/LVGL/GUI/lvgl/src/core/lv_obj_style_gen.h ****     lv_style_value_t v = lv_obj_get_style_prop(obj, part, LV_STYLE_BG_IMAGE_TILED);
ARM GAS  C:\Users\28576\AppData\Local\Temp\cclWIAwm.s 			page 15


 319:../../Middlewares/LVGL/GUI/lvgl/src/core/lv_obj_style_gen.h ****     return (bool)v.num;
 320:../../Middlewares/LVGL/GUI/lvgl/src/core/lv_obj_style_gen.h **** }
 321:../../Middlewares/LVGL/GUI/lvgl/src/core/lv_obj_style_gen.h **** 
 322:../../Middlewares/LVGL/GUI/lvgl/src/core/lv_obj_style_gen.h **** static inline lv_color_t lv_obj_get_style_border_color(const lv_obj_t * obj, lv_part_t part)
 323:../../Middlewares/LVGL/GUI/lvgl/src/core/lv_obj_style_gen.h **** {
 324:../../Middlewares/LVGL/GUI/lvgl/src/core/lv_obj_style_gen.h ****     lv_style_value_t v = lv_obj_get_style_prop(obj, part, LV_STYLE_BORDER_COLOR);
 325:../../Middlewares/LVGL/GUI/lvgl/src/core/lv_obj_style_gen.h ****     return v.color;
 326:../../Middlewares/LVGL/GUI/lvgl/src/core/lv_obj_style_gen.h **** }
 327:../../Middlewares/LVGL/GUI/lvgl/src/core/lv_obj_style_gen.h **** 
 328:../../Middlewares/LVGL/GUI/lvgl/src/core/lv_obj_style_gen.h **** static inline lv_color_t lv_obj_get_style_border_color_filtered(const lv_obj_t * obj, lv_part_t par
 329:../../Middlewares/LVGL/GUI/lvgl/src/core/lv_obj_style_gen.h **** {
 330:../../Middlewares/LVGL/GUI/lvgl/src/core/lv_obj_style_gen.h ****     lv_style_value_t v = lv_obj_style_apply_color_filter(obj, part, lv_obj_get_style_prop(obj, part
 331:../../Middlewares/LVGL/GUI/lvgl/src/core/lv_obj_style_gen.h ****     return v.color;
 332:../../Middlewares/LVGL/GUI/lvgl/src/core/lv_obj_style_gen.h **** }
 333:../../Middlewares/LVGL/GUI/lvgl/src/core/lv_obj_style_gen.h **** 
 334:../../Middlewares/LVGL/GUI/lvgl/src/core/lv_obj_style_gen.h **** static inline lv_opa_t lv_obj_get_style_border_opa(const lv_obj_t * obj, lv_part_t part)
 335:../../Middlewares/LVGL/GUI/lvgl/src/core/lv_obj_style_gen.h **** {
 336:../../Middlewares/LVGL/GUI/lvgl/src/core/lv_obj_style_gen.h ****     lv_style_value_t v = lv_obj_get_style_prop(obj, part, LV_STYLE_BORDER_OPA);
 337:../../Middlewares/LVGL/GUI/lvgl/src/core/lv_obj_style_gen.h ****     return (lv_opa_t)v.num;
 338:../../Middlewares/LVGL/GUI/lvgl/src/core/lv_obj_style_gen.h **** }
 339:../../Middlewares/LVGL/GUI/lvgl/src/core/lv_obj_style_gen.h **** 
 340:../../Middlewares/LVGL/GUI/lvgl/src/core/lv_obj_style_gen.h **** static inline int32_t lv_obj_get_style_border_width(const lv_obj_t * obj, lv_part_t part)
 341:../../Middlewares/LVGL/GUI/lvgl/src/core/lv_obj_style_gen.h **** {
 342:../../Middlewares/LVGL/GUI/lvgl/src/core/lv_obj_style_gen.h ****     lv_style_value_t v = lv_obj_get_style_prop(obj, part, LV_STYLE_BORDER_WIDTH);
 343:../../Middlewares/LVGL/GUI/lvgl/src/core/lv_obj_style_gen.h ****     return (int32_t)v.num;
 344:../../Middlewares/LVGL/GUI/lvgl/src/core/lv_obj_style_gen.h **** }
 345:../../Middlewares/LVGL/GUI/lvgl/src/core/lv_obj_style_gen.h **** 
 346:../../Middlewares/LVGL/GUI/lvgl/src/core/lv_obj_style_gen.h **** static inline lv_border_side_t lv_obj_get_style_border_side(const lv_obj_t * obj, lv_part_t part)
 347:../../Middlewares/LVGL/GUI/lvgl/src/core/lv_obj_style_gen.h **** {
 348:../../Middlewares/LVGL/GUI/lvgl/src/core/lv_obj_style_gen.h ****     lv_style_value_t v = lv_obj_get_style_prop(obj, part, LV_STYLE_BORDER_SIDE);
 349:../../Middlewares/LVGL/GUI/lvgl/src/core/lv_obj_style_gen.h ****     return (lv_border_side_t)v.num;
 350:../../Middlewares/LVGL/GUI/lvgl/src/core/lv_obj_style_gen.h **** }
 351:../../Middlewares/LVGL/GUI/lvgl/src/core/lv_obj_style_gen.h **** 
 352:../../Middlewares/LVGL/GUI/lvgl/src/core/lv_obj_style_gen.h **** static inline bool lv_obj_get_style_border_post(const lv_obj_t * obj, lv_part_t part)
 353:../../Middlewares/LVGL/GUI/lvgl/src/core/lv_obj_style_gen.h **** {
 354:../../Middlewares/LVGL/GUI/lvgl/src/core/lv_obj_style_gen.h ****     lv_style_value_t v = lv_obj_get_style_prop(obj, part, LV_STYLE_BORDER_POST);
 355:../../Middlewares/LVGL/GUI/lvgl/src/core/lv_obj_style_gen.h ****     return (bool)v.num;
 356:../../Middlewares/LVGL/GUI/lvgl/src/core/lv_obj_style_gen.h **** }
 357:../../Middlewares/LVGL/GUI/lvgl/src/core/lv_obj_style_gen.h **** 
 358:../../Middlewares/LVGL/GUI/lvgl/src/core/lv_obj_style_gen.h **** static inline int32_t lv_obj_get_style_outline_width(const lv_obj_t * obj, lv_part_t part)
 359:../../Middlewares/LVGL/GUI/lvgl/src/core/lv_obj_style_gen.h **** {
 360:../../Middlewares/LVGL/GUI/lvgl/src/core/lv_obj_style_gen.h ****     lv_style_value_t v = lv_obj_get_style_prop(obj, part, LV_STYLE_OUTLINE_WIDTH);
 361:../../Middlewares/LVGL/GUI/lvgl/src/core/lv_obj_style_gen.h ****     return (int32_t)v.num;
 362:../../Middlewares/LVGL/GUI/lvgl/src/core/lv_obj_style_gen.h **** }
 363:../../Middlewares/LVGL/GUI/lvgl/src/core/lv_obj_style_gen.h **** 
 364:../../Middlewares/LVGL/GUI/lvgl/src/core/lv_obj_style_gen.h **** static inline lv_color_t lv_obj_get_style_outline_color(const lv_obj_t * obj, lv_part_t part)
 365:../../Middlewares/LVGL/GUI/lvgl/src/core/lv_obj_style_gen.h **** {
 366:../../Middlewares/LVGL/GUI/lvgl/src/core/lv_obj_style_gen.h ****     lv_style_value_t v = lv_obj_get_style_prop(obj, part, LV_STYLE_OUTLINE_COLOR);
 367:../../Middlewares/LVGL/GUI/lvgl/src/core/lv_obj_style_gen.h ****     return v.color;
 368:../../Middlewares/LVGL/GUI/lvgl/src/core/lv_obj_style_gen.h **** }
 369:../../Middlewares/LVGL/GUI/lvgl/src/core/lv_obj_style_gen.h **** 
 370:../../Middlewares/LVGL/GUI/lvgl/src/core/lv_obj_style_gen.h **** static inline lv_color_t lv_obj_get_style_outline_color_filtered(const lv_obj_t * obj, lv_part_t pa
 371:../../Middlewares/LVGL/GUI/lvgl/src/core/lv_obj_style_gen.h **** {
 372:../../Middlewares/LVGL/GUI/lvgl/src/core/lv_obj_style_gen.h ****     lv_style_value_t v = lv_obj_style_apply_color_filter(obj, part, lv_obj_get_style_prop(obj, part
 373:../../Middlewares/LVGL/GUI/lvgl/src/core/lv_obj_style_gen.h ****     return v.color;
 374:../../Middlewares/LVGL/GUI/lvgl/src/core/lv_obj_style_gen.h **** }
 375:../../Middlewares/LVGL/GUI/lvgl/src/core/lv_obj_style_gen.h **** 
ARM GAS  C:\Users\28576\AppData\Local\Temp\cclWIAwm.s 			page 16


 376:../../Middlewares/LVGL/GUI/lvgl/src/core/lv_obj_style_gen.h **** static inline lv_opa_t lv_obj_get_style_outline_opa(const lv_obj_t * obj, lv_part_t part)
 377:../../Middlewares/LVGL/GUI/lvgl/src/core/lv_obj_style_gen.h **** {
 378:../../Middlewares/LVGL/GUI/lvgl/src/core/lv_obj_style_gen.h ****     lv_style_value_t v = lv_obj_get_style_prop(obj, part, LV_STYLE_OUTLINE_OPA);
 379:../../Middlewares/LVGL/GUI/lvgl/src/core/lv_obj_style_gen.h ****     return (lv_opa_t)v.num;
 380:../../Middlewares/LVGL/GUI/lvgl/src/core/lv_obj_style_gen.h **** }
 381:../../Middlewares/LVGL/GUI/lvgl/src/core/lv_obj_style_gen.h **** 
 382:../../Middlewares/LVGL/GUI/lvgl/src/core/lv_obj_style_gen.h **** static inline int32_t lv_obj_get_style_outline_pad(const lv_obj_t * obj, lv_part_t part)
 383:../../Middlewares/LVGL/GUI/lvgl/src/core/lv_obj_style_gen.h **** {
 384:../../Middlewares/LVGL/GUI/lvgl/src/core/lv_obj_style_gen.h ****     lv_style_value_t v = lv_obj_get_style_prop(obj, part, LV_STYLE_OUTLINE_PAD);
 385:../../Middlewares/LVGL/GUI/lvgl/src/core/lv_obj_style_gen.h ****     return (int32_t)v.num;
 386:../../Middlewares/LVGL/GUI/lvgl/src/core/lv_obj_style_gen.h **** }
 387:../../Middlewares/LVGL/GUI/lvgl/src/core/lv_obj_style_gen.h **** 
 388:../../Middlewares/LVGL/GUI/lvgl/src/core/lv_obj_style_gen.h **** static inline int32_t lv_obj_get_style_shadow_width(const lv_obj_t * obj, lv_part_t part)
 389:../../Middlewares/LVGL/GUI/lvgl/src/core/lv_obj_style_gen.h **** {
 390:../../Middlewares/LVGL/GUI/lvgl/src/core/lv_obj_style_gen.h ****     lv_style_value_t v = lv_obj_get_style_prop(obj, part, LV_STYLE_SHADOW_WIDTH);
 391:../../Middlewares/LVGL/GUI/lvgl/src/core/lv_obj_style_gen.h ****     return (int32_t)v.num;
 392:../../Middlewares/LVGL/GUI/lvgl/src/core/lv_obj_style_gen.h **** }
 393:../../Middlewares/LVGL/GUI/lvgl/src/core/lv_obj_style_gen.h **** 
 394:../../Middlewares/LVGL/GUI/lvgl/src/core/lv_obj_style_gen.h **** static inline int32_t lv_obj_get_style_shadow_offset_x(const lv_obj_t * obj, lv_part_t part)
 395:../../Middlewares/LVGL/GUI/lvgl/src/core/lv_obj_style_gen.h **** {
 396:../../Middlewares/LVGL/GUI/lvgl/src/core/lv_obj_style_gen.h ****     lv_style_value_t v = lv_obj_get_style_prop(obj, part, LV_STYLE_SHADOW_OFFSET_X);
 397:../../Middlewares/LVGL/GUI/lvgl/src/core/lv_obj_style_gen.h ****     return (int32_t)v.num;
 398:../../Middlewares/LVGL/GUI/lvgl/src/core/lv_obj_style_gen.h **** }
 399:../../Middlewares/LVGL/GUI/lvgl/src/core/lv_obj_style_gen.h **** 
 400:../../Middlewares/LVGL/GUI/lvgl/src/core/lv_obj_style_gen.h **** static inline int32_t lv_obj_get_style_shadow_offset_y(const lv_obj_t * obj, lv_part_t part)
 401:../../Middlewares/LVGL/GUI/lvgl/src/core/lv_obj_style_gen.h **** {
 402:../../Middlewares/LVGL/GUI/lvgl/src/core/lv_obj_style_gen.h ****     lv_style_value_t v = lv_obj_get_style_prop(obj, part, LV_STYLE_SHADOW_OFFSET_Y);
 403:../../Middlewares/LVGL/GUI/lvgl/src/core/lv_obj_style_gen.h ****     return (int32_t)v.num;
 404:../../Middlewares/LVGL/GUI/lvgl/src/core/lv_obj_style_gen.h **** }
 405:../../Middlewares/LVGL/GUI/lvgl/src/core/lv_obj_style_gen.h **** 
 406:../../Middlewares/LVGL/GUI/lvgl/src/core/lv_obj_style_gen.h **** static inline int32_t lv_obj_get_style_shadow_spread(const lv_obj_t * obj, lv_part_t part)
 407:../../Middlewares/LVGL/GUI/lvgl/src/core/lv_obj_style_gen.h **** {
 408:../../Middlewares/LVGL/GUI/lvgl/src/core/lv_obj_style_gen.h ****     lv_style_value_t v = lv_obj_get_style_prop(obj, part, LV_STYLE_SHADOW_SPREAD);
 409:../../Middlewares/LVGL/GUI/lvgl/src/core/lv_obj_style_gen.h ****     return (int32_t)v.num;
 410:../../Middlewares/LVGL/GUI/lvgl/src/core/lv_obj_style_gen.h **** }
 411:../../Middlewares/LVGL/GUI/lvgl/src/core/lv_obj_style_gen.h **** 
 412:../../Middlewares/LVGL/GUI/lvgl/src/core/lv_obj_style_gen.h **** static inline lv_color_t lv_obj_get_style_shadow_color(const lv_obj_t * obj, lv_part_t part)
 413:../../Middlewares/LVGL/GUI/lvgl/src/core/lv_obj_style_gen.h **** {
 414:../../Middlewares/LVGL/GUI/lvgl/src/core/lv_obj_style_gen.h ****     lv_style_value_t v = lv_obj_get_style_prop(obj, part, LV_STYLE_SHADOW_COLOR);
 415:../../Middlewares/LVGL/GUI/lvgl/src/core/lv_obj_style_gen.h ****     return v.color;
 416:../../Middlewares/LVGL/GUI/lvgl/src/core/lv_obj_style_gen.h **** }
 417:../../Middlewares/LVGL/GUI/lvgl/src/core/lv_obj_style_gen.h **** 
 418:../../Middlewares/LVGL/GUI/lvgl/src/core/lv_obj_style_gen.h **** static inline lv_color_t lv_obj_get_style_shadow_color_filtered(const lv_obj_t * obj, lv_part_t par
 419:../../Middlewares/LVGL/GUI/lvgl/src/core/lv_obj_style_gen.h **** {
 420:../../Middlewares/LVGL/GUI/lvgl/src/core/lv_obj_style_gen.h ****     lv_style_value_t v = lv_obj_style_apply_color_filter(obj, part, lv_obj_get_style_prop(obj, part
 421:../../Middlewares/LVGL/GUI/lvgl/src/core/lv_obj_style_gen.h ****     return v.color;
 422:../../Middlewares/LVGL/GUI/lvgl/src/core/lv_obj_style_gen.h **** }
 423:../../Middlewares/LVGL/GUI/lvgl/src/core/lv_obj_style_gen.h **** 
 424:../../Middlewares/LVGL/GUI/lvgl/src/core/lv_obj_style_gen.h **** static inline lv_opa_t lv_obj_get_style_shadow_opa(const lv_obj_t * obj, lv_part_t part)
 425:../../Middlewares/LVGL/GUI/lvgl/src/core/lv_obj_style_gen.h **** {
 426:../../Middlewares/LVGL/GUI/lvgl/src/core/lv_obj_style_gen.h ****     lv_style_value_t v = lv_obj_get_style_prop(obj, part, LV_STYLE_SHADOW_OPA);
 427:../../Middlewares/LVGL/GUI/lvgl/src/core/lv_obj_style_gen.h ****     return (lv_opa_t)v.num;
 428:../../Middlewares/LVGL/GUI/lvgl/src/core/lv_obj_style_gen.h **** }
 429:../../Middlewares/LVGL/GUI/lvgl/src/core/lv_obj_style_gen.h **** 
 430:../../Middlewares/LVGL/GUI/lvgl/src/core/lv_obj_style_gen.h **** static inline lv_opa_t lv_obj_get_style_image_opa(const lv_obj_t * obj, lv_part_t part)
 431:../../Middlewares/LVGL/GUI/lvgl/src/core/lv_obj_style_gen.h **** {
 432:../../Middlewares/LVGL/GUI/lvgl/src/core/lv_obj_style_gen.h ****     lv_style_value_t v = lv_obj_get_style_prop(obj, part, LV_STYLE_IMAGE_OPA);
ARM GAS  C:\Users\28576\AppData\Local\Temp\cclWIAwm.s 			page 17


 433:../../Middlewares/LVGL/GUI/lvgl/src/core/lv_obj_style_gen.h ****     return (lv_opa_t)v.num;
 434:../../Middlewares/LVGL/GUI/lvgl/src/core/lv_obj_style_gen.h **** }
 435:../../Middlewares/LVGL/GUI/lvgl/src/core/lv_obj_style_gen.h **** 
 436:../../Middlewares/LVGL/GUI/lvgl/src/core/lv_obj_style_gen.h **** static inline lv_color_t lv_obj_get_style_image_recolor(const lv_obj_t * obj, lv_part_t part)
 437:../../Middlewares/LVGL/GUI/lvgl/src/core/lv_obj_style_gen.h **** {
 438:../../Middlewares/LVGL/GUI/lvgl/src/core/lv_obj_style_gen.h ****     lv_style_value_t v = lv_obj_get_style_prop(obj, part, LV_STYLE_IMAGE_RECOLOR);
 439:../../Middlewares/LVGL/GUI/lvgl/src/core/lv_obj_style_gen.h ****     return v.color;
 440:../../Middlewares/LVGL/GUI/lvgl/src/core/lv_obj_style_gen.h **** }
 441:../../Middlewares/LVGL/GUI/lvgl/src/core/lv_obj_style_gen.h **** 
 442:../../Middlewares/LVGL/GUI/lvgl/src/core/lv_obj_style_gen.h **** static inline lv_color_t lv_obj_get_style_image_recolor_filtered(const lv_obj_t * obj, lv_part_t pa
 443:../../Middlewares/LVGL/GUI/lvgl/src/core/lv_obj_style_gen.h **** {
 444:../../Middlewares/LVGL/GUI/lvgl/src/core/lv_obj_style_gen.h ****     lv_style_value_t v = lv_obj_style_apply_color_filter(obj, part, lv_obj_get_style_prop(obj, part
 445:../../Middlewares/LVGL/GUI/lvgl/src/core/lv_obj_style_gen.h ****     return v.color;
 446:../../Middlewares/LVGL/GUI/lvgl/src/core/lv_obj_style_gen.h **** }
 447:../../Middlewares/LVGL/GUI/lvgl/src/core/lv_obj_style_gen.h **** 
 448:../../Middlewares/LVGL/GUI/lvgl/src/core/lv_obj_style_gen.h **** static inline lv_opa_t lv_obj_get_style_image_recolor_opa(const lv_obj_t * obj, lv_part_t part)
 449:../../Middlewares/LVGL/GUI/lvgl/src/core/lv_obj_style_gen.h **** {
 450:../../Middlewares/LVGL/GUI/lvgl/src/core/lv_obj_style_gen.h ****     lv_style_value_t v = lv_obj_get_style_prop(obj, part, LV_STYLE_IMAGE_RECOLOR_OPA);
 451:../../Middlewares/LVGL/GUI/lvgl/src/core/lv_obj_style_gen.h ****     return (lv_opa_t)v.num;
 452:../../Middlewares/LVGL/GUI/lvgl/src/core/lv_obj_style_gen.h **** }
 453:../../Middlewares/LVGL/GUI/lvgl/src/core/lv_obj_style_gen.h **** 
 454:../../Middlewares/LVGL/GUI/lvgl/src/core/lv_obj_style_gen.h **** static inline int32_t lv_obj_get_style_line_width(const lv_obj_t * obj, lv_part_t part)
 455:../../Middlewares/LVGL/GUI/lvgl/src/core/lv_obj_style_gen.h **** {
 456:../../Middlewares/LVGL/GUI/lvgl/src/core/lv_obj_style_gen.h ****     lv_style_value_t v = lv_obj_get_style_prop(obj, part, LV_STYLE_LINE_WIDTH);
 457:../../Middlewares/LVGL/GUI/lvgl/src/core/lv_obj_style_gen.h ****     return (int32_t)v.num;
 458:../../Middlewares/LVGL/GUI/lvgl/src/core/lv_obj_style_gen.h **** }
 459:../../Middlewares/LVGL/GUI/lvgl/src/core/lv_obj_style_gen.h **** 
 460:../../Middlewares/LVGL/GUI/lvgl/src/core/lv_obj_style_gen.h **** static inline int32_t lv_obj_get_style_line_dash_width(const lv_obj_t * obj, lv_part_t part)
 461:../../Middlewares/LVGL/GUI/lvgl/src/core/lv_obj_style_gen.h **** {
 462:../../Middlewares/LVGL/GUI/lvgl/src/core/lv_obj_style_gen.h ****     lv_style_value_t v = lv_obj_get_style_prop(obj, part, LV_STYLE_LINE_DASH_WIDTH);
 463:../../Middlewares/LVGL/GUI/lvgl/src/core/lv_obj_style_gen.h ****     return (int32_t)v.num;
 464:../../Middlewares/LVGL/GUI/lvgl/src/core/lv_obj_style_gen.h **** }
 465:../../Middlewares/LVGL/GUI/lvgl/src/core/lv_obj_style_gen.h **** 
 466:../../Middlewares/LVGL/GUI/lvgl/src/core/lv_obj_style_gen.h **** static inline int32_t lv_obj_get_style_line_dash_gap(const lv_obj_t * obj, lv_part_t part)
 467:../../Middlewares/LVGL/GUI/lvgl/src/core/lv_obj_style_gen.h **** {
 468:../../Middlewares/LVGL/GUI/lvgl/src/core/lv_obj_style_gen.h ****     lv_style_value_t v = lv_obj_get_style_prop(obj, part, LV_STYLE_LINE_DASH_GAP);
 469:../../Middlewares/LVGL/GUI/lvgl/src/core/lv_obj_style_gen.h ****     return (int32_t)v.num;
 470:../../Middlewares/LVGL/GUI/lvgl/src/core/lv_obj_style_gen.h **** }
 471:../../Middlewares/LVGL/GUI/lvgl/src/core/lv_obj_style_gen.h **** 
 472:../../Middlewares/LVGL/GUI/lvgl/src/core/lv_obj_style_gen.h **** static inline bool lv_obj_get_style_line_rounded(const lv_obj_t * obj, lv_part_t part)
 473:../../Middlewares/LVGL/GUI/lvgl/src/core/lv_obj_style_gen.h **** {
 474:../../Middlewares/LVGL/GUI/lvgl/src/core/lv_obj_style_gen.h ****     lv_style_value_t v = lv_obj_get_style_prop(obj, part, LV_STYLE_LINE_ROUNDED);
 475:../../Middlewares/LVGL/GUI/lvgl/src/core/lv_obj_style_gen.h ****     return (bool)v.num;
 476:../../Middlewares/LVGL/GUI/lvgl/src/core/lv_obj_style_gen.h **** }
 477:../../Middlewares/LVGL/GUI/lvgl/src/core/lv_obj_style_gen.h **** 
 478:../../Middlewares/LVGL/GUI/lvgl/src/core/lv_obj_style_gen.h **** static inline lv_color_t lv_obj_get_style_line_color(const lv_obj_t * obj, lv_part_t part)
 479:../../Middlewares/LVGL/GUI/lvgl/src/core/lv_obj_style_gen.h **** {
 480:../../Middlewares/LVGL/GUI/lvgl/src/core/lv_obj_style_gen.h ****     lv_style_value_t v = lv_obj_get_style_prop(obj, part, LV_STYLE_LINE_COLOR);
 481:../../Middlewares/LVGL/GUI/lvgl/src/core/lv_obj_style_gen.h ****     return v.color;
 482:../../Middlewares/LVGL/GUI/lvgl/src/core/lv_obj_style_gen.h **** }
 483:../../Middlewares/LVGL/GUI/lvgl/src/core/lv_obj_style_gen.h **** 
 484:../../Middlewares/LVGL/GUI/lvgl/src/core/lv_obj_style_gen.h **** static inline lv_color_t lv_obj_get_style_line_color_filtered(const lv_obj_t * obj, lv_part_t part)
 485:../../Middlewares/LVGL/GUI/lvgl/src/core/lv_obj_style_gen.h **** {
 486:../../Middlewares/LVGL/GUI/lvgl/src/core/lv_obj_style_gen.h ****     lv_style_value_t v = lv_obj_style_apply_color_filter(obj, part, lv_obj_get_style_prop(obj, part
 487:../../Middlewares/LVGL/GUI/lvgl/src/core/lv_obj_style_gen.h ****     return v.color;
 488:../../Middlewares/LVGL/GUI/lvgl/src/core/lv_obj_style_gen.h **** }
 489:../../Middlewares/LVGL/GUI/lvgl/src/core/lv_obj_style_gen.h **** 
ARM GAS  C:\Users\28576\AppData\Local\Temp\cclWIAwm.s 			page 18


 490:../../Middlewares/LVGL/GUI/lvgl/src/core/lv_obj_style_gen.h **** static inline lv_opa_t lv_obj_get_style_line_opa(const lv_obj_t * obj, lv_part_t part)
 491:../../Middlewares/LVGL/GUI/lvgl/src/core/lv_obj_style_gen.h **** {
 492:../../Middlewares/LVGL/GUI/lvgl/src/core/lv_obj_style_gen.h ****     lv_style_value_t v = lv_obj_get_style_prop(obj, part, LV_STYLE_LINE_OPA);
 493:../../Middlewares/LVGL/GUI/lvgl/src/core/lv_obj_style_gen.h ****     return (lv_opa_t)v.num;
 494:../../Middlewares/LVGL/GUI/lvgl/src/core/lv_obj_style_gen.h **** }
 495:../../Middlewares/LVGL/GUI/lvgl/src/core/lv_obj_style_gen.h **** 
 496:../../Middlewares/LVGL/GUI/lvgl/src/core/lv_obj_style_gen.h **** static inline int32_t lv_obj_get_style_arc_width(const lv_obj_t * obj, lv_part_t part)
 497:../../Middlewares/LVGL/GUI/lvgl/src/core/lv_obj_style_gen.h **** {
 498:../../Middlewares/LVGL/GUI/lvgl/src/core/lv_obj_style_gen.h ****     lv_style_value_t v = lv_obj_get_style_prop(obj, part, LV_STYLE_ARC_WIDTH);
 499:../../Middlewares/LVGL/GUI/lvgl/src/core/lv_obj_style_gen.h ****     return (int32_t)v.num;
 500:../../Middlewares/LVGL/GUI/lvgl/src/core/lv_obj_style_gen.h **** }
 501:../../Middlewares/LVGL/GUI/lvgl/src/core/lv_obj_style_gen.h **** 
 502:../../Middlewares/LVGL/GUI/lvgl/src/core/lv_obj_style_gen.h **** static inline bool lv_obj_get_style_arc_rounded(const lv_obj_t * obj, lv_part_t part)
 503:../../Middlewares/LVGL/GUI/lvgl/src/core/lv_obj_style_gen.h **** {
 504:../../Middlewares/LVGL/GUI/lvgl/src/core/lv_obj_style_gen.h ****     lv_style_value_t v = lv_obj_get_style_prop(obj, part, LV_STYLE_ARC_ROUNDED);
 505:../../Middlewares/LVGL/GUI/lvgl/src/core/lv_obj_style_gen.h ****     return (bool)v.num;
 506:../../Middlewares/LVGL/GUI/lvgl/src/core/lv_obj_style_gen.h **** }
 507:../../Middlewares/LVGL/GUI/lvgl/src/core/lv_obj_style_gen.h **** 
 508:../../Middlewares/LVGL/GUI/lvgl/src/core/lv_obj_style_gen.h **** static inline lv_color_t lv_obj_get_style_arc_color(const lv_obj_t * obj, lv_part_t part)
 509:../../Middlewares/LVGL/GUI/lvgl/src/core/lv_obj_style_gen.h **** {
 510:../../Middlewares/LVGL/GUI/lvgl/src/core/lv_obj_style_gen.h ****     lv_style_value_t v = lv_obj_get_style_prop(obj, part, LV_STYLE_ARC_COLOR);
 511:../../Middlewares/LVGL/GUI/lvgl/src/core/lv_obj_style_gen.h ****     return v.color;
 512:../../Middlewares/LVGL/GUI/lvgl/src/core/lv_obj_style_gen.h **** }
 513:../../Middlewares/LVGL/GUI/lvgl/src/core/lv_obj_style_gen.h **** 
 514:../../Middlewares/LVGL/GUI/lvgl/src/core/lv_obj_style_gen.h **** static inline lv_color_t lv_obj_get_style_arc_color_filtered(const lv_obj_t * obj, lv_part_t part)
 515:../../Middlewares/LVGL/GUI/lvgl/src/core/lv_obj_style_gen.h **** {
 516:../../Middlewares/LVGL/GUI/lvgl/src/core/lv_obj_style_gen.h ****     lv_style_value_t v = lv_obj_style_apply_color_filter(obj, part, lv_obj_get_style_prop(obj, part
 517:../../Middlewares/LVGL/GUI/lvgl/src/core/lv_obj_style_gen.h ****     return v.color;
 518:../../Middlewares/LVGL/GUI/lvgl/src/core/lv_obj_style_gen.h **** }
 519:../../Middlewares/LVGL/GUI/lvgl/src/core/lv_obj_style_gen.h **** 
 520:../../Middlewares/LVGL/GUI/lvgl/src/core/lv_obj_style_gen.h **** static inline lv_opa_t lv_obj_get_style_arc_opa(const lv_obj_t * obj, lv_part_t part)
 521:../../Middlewares/LVGL/GUI/lvgl/src/core/lv_obj_style_gen.h **** {
 522:../../Middlewares/LVGL/GUI/lvgl/src/core/lv_obj_style_gen.h ****     lv_style_value_t v = lv_obj_get_style_prop(obj, part, LV_STYLE_ARC_OPA);
 523:../../Middlewares/LVGL/GUI/lvgl/src/core/lv_obj_style_gen.h ****     return (lv_opa_t)v.num;
 524:../../Middlewares/LVGL/GUI/lvgl/src/core/lv_obj_style_gen.h **** }
 525:../../Middlewares/LVGL/GUI/lvgl/src/core/lv_obj_style_gen.h **** 
 526:../../Middlewares/LVGL/GUI/lvgl/src/core/lv_obj_style_gen.h **** static inline const void * lv_obj_get_style_arc_image_src(const lv_obj_t * obj, lv_part_t part)
 527:../../Middlewares/LVGL/GUI/lvgl/src/core/lv_obj_style_gen.h **** {
 528:../../Middlewares/LVGL/GUI/lvgl/src/core/lv_obj_style_gen.h ****     lv_style_value_t v = lv_obj_get_style_prop(obj, part, LV_STYLE_ARC_IMAGE_SRC);
 529:../../Middlewares/LVGL/GUI/lvgl/src/core/lv_obj_style_gen.h ****     return (const void *)v.ptr;
 530:../../Middlewares/LVGL/GUI/lvgl/src/core/lv_obj_style_gen.h **** }
 531:../../Middlewares/LVGL/GUI/lvgl/src/core/lv_obj_style_gen.h **** 
 532:../../Middlewares/LVGL/GUI/lvgl/src/core/lv_obj_style_gen.h **** static inline lv_color_t lv_obj_get_style_text_color(const lv_obj_t * obj, lv_part_t part)
 533:../../Middlewares/LVGL/GUI/lvgl/src/core/lv_obj_style_gen.h **** {
 534:../../Middlewares/LVGL/GUI/lvgl/src/core/lv_obj_style_gen.h ****     lv_style_value_t v = lv_obj_get_style_prop(obj, part, LV_STYLE_TEXT_COLOR);
 535:../../Middlewares/LVGL/GUI/lvgl/src/core/lv_obj_style_gen.h ****     return v.color;
 536:../../Middlewares/LVGL/GUI/lvgl/src/core/lv_obj_style_gen.h **** }
 537:../../Middlewares/LVGL/GUI/lvgl/src/core/lv_obj_style_gen.h **** 
 538:../../Middlewares/LVGL/GUI/lvgl/src/core/lv_obj_style_gen.h **** static inline lv_color_t lv_obj_get_style_text_color_filtered(const lv_obj_t * obj, lv_part_t part)
 539:../../Middlewares/LVGL/GUI/lvgl/src/core/lv_obj_style_gen.h **** {
 540:../../Middlewares/LVGL/GUI/lvgl/src/core/lv_obj_style_gen.h ****     lv_style_value_t v = lv_obj_style_apply_color_filter(obj, part, lv_obj_get_style_prop(obj, part
 541:../../Middlewares/LVGL/GUI/lvgl/src/core/lv_obj_style_gen.h ****     return v.color;
 542:../../Middlewares/LVGL/GUI/lvgl/src/core/lv_obj_style_gen.h **** }
 543:../../Middlewares/LVGL/GUI/lvgl/src/core/lv_obj_style_gen.h **** 
 544:../../Middlewares/LVGL/GUI/lvgl/src/core/lv_obj_style_gen.h **** static inline lv_opa_t lv_obj_get_style_text_opa(const lv_obj_t * obj, lv_part_t part)
 545:../../Middlewares/LVGL/GUI/lvgl/src/core/lv_obj_style_gen.h **** {
 546:../../Middlewares/LVGL/GUI/lvgl/src/core/lv_obj_style_gen.h ****     lv_style_value_t v = lv_obj_get_style_prop(obj, part, LV_STYLE_TEXT_OPA);
ARM GAS  C:\Users\28576\AppData\Local\Temp\cclWIAwm.s 			page 19


 547:../../Middlewares/LVGL/GUI/lvgl/src/core/lv_obj_style_gen.h ****     return (lv_opa_t)v.num;
 548:../../Middlewares/LVGL/GUI/lvgl/src/core/lv_obj_style_gen.h **** }
 549:../../Middlewares/LVGL/GUI/lvgl/src/core/lv_obj_style_gen.h **** 
 550:../../Middlewares/LVGL/GUI/lvgl/src/core/lv_obj_style_gen.h **** static inline const lv_font_t * lv_obj_get_style_text_font(const lv_obj_t * obj, lv_part_t part)
 551:../../Middlewares/LVGL/GUI/lvgl/src/core/lv_obj_style_gen.h **** {
 552:../../Middlewares/LVGL/GUI/lvgl/src/core/lv_obj_style_gen.h ****     lv_style_value_t v = lv_obj_get_style_prop(obj, part, LV_STYLE_TEXT_FONT);
 553:../../Middlewares/LVGL/GUI/lvgl/src/core/lv_obj_style_gen.h ****     return (const lv_font_t *)v.ptr;
 554:../../Middlewares/LVGL/GUI/lvgl/src/core/lv_obj_style_gen.h **** }
 555:../../Middlewares/LVGL/GUI/lvgl/src/core/lv_obj_style_gen.h **** 
 556:../../Middlewares/LVGL/GUI/lvgl/src/core/lv_obj_style_gen.h **** static inline int32_t lv_obj_get_style_text_letter_space(const lv_obj_t * obj, lv_part_t part)
 557:../../Middlewares/LVGL/GUI/lvgl/src/core/lv_obj_style_gen.h **** {
 558:../../Middlewares/LVGL/GUI/lvgl/src/core/lv_obj_style_gen.h ****     lv_style_value_t v = lv_obj_get_style_prop(obj, part, LV_STYLE_TEXT_LETTER_SPACE);
 559:../../Middlewares/LVGL/GUI/lvgl/src/core/lv_obj_style_gen.h ****     return (int32_t)v.num;
 560:../../Middlewares/LVGL/GUI/lvgl/src/core/lv_obj_style_gen.h **** }
 561:../../Middlewares/LVGL/GUI/lvgl/src/core/lv_obj_style_gen.h **** 
 562:../../Middlewares/LVGL/GUI/lvgl/src/core/lv_obj_style_gen.h **** static inline int32_t lv_obj_get_style_text_line_space(const lv_obj_t * obj, lv_part_t part)
 563:../../Middlewares/LVGL/GUI/lvgl/src/core/lv_obj_style_gen.h **** {
 564:../../Middlewares/LVGL/GUI/lvgl/src/core/lv_obj_style_gen.h ****     lv_style_value_t v = lv_obj_get_style_prop(obj, part, LV_STYLE_TEXT_LINE_SPACE);
 565:../../Middlewares/LVGL/GUI/lvgl/src/core/lv_obj_style_gen.h ****     return (int32_t)v.num;
 566:../../Middlewares/LVGL/GUI/lvgl/src/core/lv_obj_style_gen.h **** }
 567:../../Middlewares/LVGL/GUI/lvgl/src/core/lv_obj_style_gen.h **** 
 568:../../Middlewares/LVGL/GUI/lvgl/src/core/lv_obj_style_gen.h **** static inline lv_text_decor_t lv_obj_get_style_text_decor(const lv_obj_t * obj, lv_part_t part)
 569:../../Middlewares/LVGL/GUI/lvgl/src/core/lv_obj_style_gen.h **** {
 570:../../Middlewares/LVGL/GUI/lvgl/src/core/lv_obj_style_gen.h ****     lv_style_value_t v = lv_obj_get_style_prop(obj, part, LV_STYLE_TEXT_DECOR);
 571:../../Middlewares/LVGL/GUI/lvgl/src/core/lv_obj_style_gen.h ****     return (lv_text_decor_t)v.num;
 572:../../Middlewares/LVGL/GUI/lvgl/src/core/lv_obj_style_gen.h **** }
 573:../../Middlewares/LVGL/GUI/lvgl/src/core/lv_obj_style_gen.h **** 
 574:../../Middlewares/LVGL/GUI/lvgl/src/core/lv_obj_style_gen.h **** static inline lv_text_align_t lv_obj_get_style_text_align(const lv_obj_t * obj, lv_part_t part)
 575:../../Middlewares/LVGL/GUI/lvgl/src/core/lv_obj_style_gen.h **** {
 576:../../Middlewares/LVGL/GUI/lvgl/src/core/lv_obj_style_gen.h ****     lv_style_value_t v = lv_obj_get_style_prop(obj, part, LV_STYLE_TEXT_ALIGN);
 577:../../Middlewares/LVGL/GUI/lvgl/src/core/lv_obj_style_gen.h ****     return (lv_text_align_t)v.num;
 578:../../Middlewares/LVGL/GUI/lvgl/src/core/lv_obj_style_gen.h **** }
 579:../../Middlewares/LVGL/GUI/lvgl/src/core/lv_obj_style_gen.h **** 
 580:../../Middlewares/LVGL/GUI/lvgl/src/core/lv_obj_style_gen.h **** static inline lv_color_t lv_obj_get_style_text_outline_stroke_color(const lv_obj_t * obj, lv_part_t
 581:../../Middlewares/LVGL/GUI/lvgl/src/core/lv_obj_style_gen.h **** {
 582:../../Middlewares/LVGL/GUI/lvgl/src/core/lv_obj_style_gen.h ****     lv_style_value_t v = lv_obj_get_style_prop(obj, part, LV_STYLE_TEXT_OUTLINE_STROKE_COLOR);
 583:../../Middlewares/LVGL/GUI/lvgl/src/core/lv_obj_style_gen.h ****     return v.color;
 584:../../Middlewares/LVGL/GUI/lvgl/src/core/lv_obj_style_gen.h **** }
 585:../../Middlewares/LVGL/GUI/lvgl/src/core/lv_obj_style_gen.h **** 
 586:../../Middlewares/LVGL/GUI/lvgl/src/core/lv_obj_style_gen.h **** static inline lv_color_t lv_obj_get_style_text_outline_stroke_color_filtered(const lv_obj_t * obj, 
 587:../../Middlewares/LVGL/GUI/lvgl/src/core/lv_obj_style_gen.h **** {
 588:../../Middlewares/LVGL/GUI/lvgl/src/core/lv_obj_style_gen.h ****     lv_style_value_t v = lv_obj_style_apply_color_filter(obj, part, lv_obj_get_style_prop(obj, part
 589:../../Middlewares/LVGL/GUI/lvgl/src/core/lv_obj_style_gen.h ****     return v.color;
 590:../../Middlewares/LVGL/GUI/lvgl/src/core/lv_obj_style_gen.h **** }
 591:../../Middlewares/LVGL/GUI/lvgl/src/core/lv_obj_style_gen.h **** 
 592:../../Middlewares/LVGL/GUI/lvgl/src/core/lv_obj_style_gen.h **** static inline int32_t lv_obj_get_style_text_outline_stroke_width(const lv_obj_t * obj, lv_part_t pa
 593:../../Middlewares/LVGL/GUI/lvgl/src/core/lv_obj_style_gen.h **** {
 594:../../Middlewares/LVGL/GUI/lvgl/src/core/lv_obj_style_gen.h ****     lv_style_value_t v = lv_obj_get_style_prop(obj, part, LV_STYLE_TEXT_OUTLINE_STROKE_WIDTH);
 595:../../Middlewares/LVGL/GUI/lvgl/src/core/lv_obj_style_gen.h ****     return (int32_t)v.num;
 596:../../Middlewares/LVGL/GUI/lvgl/src/core/lv_obj_style_gen.h **** }
 597:../../Middlewares/LVGL/GUI/lvgl/src/core/lv_obj_style_gen.h **** 
 598:../../Middlewares/LVGL/GUI/lvgl/src/core/lv_obj_style_gen.h **** static inline lv_opa_t lv_obj_get_style_text_outline_stroke_opa(const lv_obj_t * obj, lv_part_t par
 599:../../Middlewares/LVGL/GUI/lvgl/src/core/lv_obj_style_gen.h **** {
 600:../../Middlewares/LVGL/GUI/lvgl/src/core/lv_obj_style_gen.h ****     lv_style_value_t v = lv_obj_get_style_prop(obj, part, LV_STYLE_TEXT_OUTLINE_STROKE_OPA);
 601:../../Middlewares/LVGL/GUI/lvgl/src/core/lv_obj_style_gen.h ****     return (lv_opa_t)v.num;
 602:../../Middlewares/LVGL/GUI/lvgl/src/core/lv_obj_style_gen.h **** }
 603:../../Middlewares/LVGL/GUI/lvgl/src/core/lv_obj_style_gen.h **** 
ARM GAS  C:\Users\28576\AppData\Local\Temp\cclWIAwm.s 			page 20


 604:../../Middlewares/LVGL/GUI/lvgl/src/core/lv_obj_style_gen.h **** static inline int32_t lv_obj_get_style_radius(const lv_obj_t * obj, lv_part_t part)
 605:../../Middlewares/LVGL/GUI/lvgl/src/core/lv_obj_style_gen.h **** {
 606:../../Middlewares/LVGL/GUI/lvgl/src/core/lv_obj_style_gen.h ****     lv_style_value_t v = lv_obj_get_style_prop(obj, part, LV_STYLE_RADIUS);
 607:../../Middlewares/LVGL/GUI/lvgl/src/core/lv_obj_style_gen.h ****     return (int32_t)v.num;
 608:../../Middlewares/LVGL/GUI/lvgl/src/core/lv_obj_style_gen.h **** }
 609:../../Middlewares/LVGL/GUI/lvgl/src/core/lv_obj_style_gen.h **** 
 610:../../Middlewares/LVGL/GUI/lvgl/src/core/lv_obj_style_gen.h **** static inline int32_t lv_obj_get_style_radial_offset(const lv_obj_t * obj, lv_part_t part)
 611:../../Middlewares/LVGL/GUI/lvgl/src/core/lv_obj_style_gen.h **** {
 612:../../Middlewares/LVGL/GUI/lvgl/src/core/lv_obj_style_gen.h ****     lv_style_value_t v = lv_obj_get_style_prop(obj, part, LV_STYLE_RADIAL_OFFSET);
 613:../../Middlewares/LVGL/GUI/lvgl/src/core/lv_obj_style_gen.h ****     return (int32_t)v.num;
 614:../../Middlewares/LVGL/GUI/lvgl/src/core/lv_obj_style_gen.h **** }
 615:../../Middlewares/LVGL/GUI/lvgl/src/core/lv_obj_style_gen.h **** 
 616:../../Middlewares/LVGL/GUI/lvgl/src/core/lv_obj_style_gen.h **** static inline bool lv_obj_get_style_clip_corner(const lv_obj_t * obj, lv_part_t part)
 617:../../Middlewares/LVGL/GUI/lvgl/src/core/lv_obj_style_gen.h **** {
 618:../../Middlewares/LVGL/GUI/lvgl/src/core/lv_obj_style_gen.h ****     lv_style_value_t v = lv_obj_get_style_prop(obj, part, LV_STYLE_CLIP_CORNER);
 619:../../Middlewares/LVGL/GUI/lvgl/src/core/lv_obj_style_gen.h ****     return (bool)v.num;
 620:../../Middlewares/LVGL/GUI/lvgl/src/core/lv_obj_style_gen.h **** }
 621:../../Middlewares/LVGL/GUI/lvgl/src/core/lv_obj_style_gen.h **** 
 622:../../Middlewares/LVGL/GUI/lvgl/src/core/lv_obj_style_gen.h **** static inline lv_opa_t lv_obj_get_style_opa(const lv_obj_t * obj, lv_part_t part)
  72              		.loc 2 622 24 is_stmt 1 view .LVU12
  73              	.LBB120:
 623:../../Middlewares/LVGL/GUI/lvgl/src/core/lv_obj_style_gen.h **** {
 624:../../Middlewares/LVGL/GUI/lvgl/src/core/lv_obj_style_gen.h ****     lv_style_value_t v = lv_obj_get_style_prop(obj, part, LV_STYLE_OPA);
  74              		.loc 2 624 5 view .LVU13
  75              		.loc 2 624 26 is_stmt 0 view .LVU14
  76 0016 6222     		movs	r2, #98
  77              	.LVL4:
  78              		.loc 2 624 26 view .LVU15
  79 0018 FFF7FEFF 		bl	lv_obj_get_style_prop
  80              	.LVL5:
  81              		.loc 2 624 26 view .LVU16
  82 001c 0190     		str	r0, [sp, #4]
 625:../../Middlewares/LVGL/GUI/lvgl/src/core/lv_obj_style_gen.h ****     return (lv_opa_t)v.num;
  83              		.loc 2 625 5 is_stmt 1 view .LVU17
  84              	.LVL6:
  85              		.loc 2 625 5 is_stmt 0 view .LVU18
  86              	.LBE120:
  87              	.LBE119:
 403:../../Middlewares/LVGL/GUI/lvgl/src/core/lv_obj_draw.c ****     }
  88              		.loc 1 403 16 discriminator 1 view .LVU19
  89 001e C0B2     		uxtb	r0, r0
  90 0020 04FB00F0 		mul	r0, r4, r0
  91 0024 000A     		lsrs	r0, r0, #8
 403:../../Middlewares/LVGL/GUI/lvgl/src/core/lv_obj_draw.c ****     }
  92              		.loc 1 403 16 view .LVU20
  93 0026 F2E7     		b	.L4
  94              	.LVL7:
  95              	.L2:
 407:../../Middlewares/LVGL/GUI/lvgl/src/core/lv_obj_draw.c **** }
  96              		.loc 1 407 5 is_stmt 1 view .LVU21
 407:../../Middlewares/LVGL/GUI/lvgl/src/core/lv_obj_draw.c **** }
  97              		.loc 1 407 12 is_stmt 0 view .LVU22
  98 0028 FFF7FEFF 		bl	lv_obj_get_style_opa_recursive
  99              	.LVL8:
 407:../../Middlewares/LVGL/GUI/lvgl/src/core/lv_obj_draw.c **** }
 100              		.loc 1 407 12 view .LVU23
 101 002c EFE7     		b	.L4
ARM GAS  C:\Users\28576\AppData\Local\Temp\cclWIAwm.s 			page 21


 102              		.cfi_endproc
 103              	.LFE181:
 105              		.section	.text.lv_obj_get_style_bg_color_filtered,"ax",%progbits
 106              		.align	1
 107              		.syntax unified
 108              		.thumb
 109              		.thumb_func
 111              	lv_obj_get_style_bg_color_filtered:
 112              	.LVL9:
 113              	.LFB62:
 227:../../Middlewares/LVGL/GUI/lvgl/src/core/lv_obj_style_gen.h ****     lv_style_value_t v = lv_obj_style_apply_color_filter(obj, part, lv_obj_get_style_prop(obj, part
 114              		.loc 2 227 1 is_stmt 1 view -0
 115              		.cfi_startproc
 116              		@ args = 0, pretend = 0, frame = 16
 117              		@ frame_needed = 0, uses_anonymous_args = 0
 227:../../Middlewares/LVGL/GUI/lvgl/src/core/lv_obj_style_gen.h ****     lv_style_value_t v = lv_obj_style_apply_color_filter(obj, part, lv_obj_get_style_prop(obj, part
 118              		.loc 2 227 1 is_stmt 0 view .LVU25
 119 0000 30B5     		push	{r4, r5, lr}
 120              	.LCFI4:
 121              		.cfi_def_cfa_offset 12
 122              		.cfi_offset 4, -12
 123              		.cfi_offset 5, -8
 124              		.cfi_offset 14, -4
 125 0002 85B0     		sub	sp, sp, #20
 126              	.LCFI5:
 127              		.cfi_def_cfa_offset 32
 128 0004 0546     		mov	r5, r0
 129 0006 0C46     		mov	r4, r1
 228:../../Middlewares/LVGL/GUI/lvgl/src/core/lv_obj_style_gen.h ****     return v.color;
 130              		.loc 2 228 5 is_stmt 1 view .LVU26
 228:../../Middlewares/LVGL/GUI/lvgl/src/core/lv_obj_style_gen.h ****     return v.color;
 131              		.loc 2 228 26 is_stmt 0 view .LVU27
 132 0008 1C22     		movs	r2, #28
 133 000a FFF7FEFF 		bl	lv_obj_get_style_prop
 134              	.LVL10:
 228:../../Middlewares/LVGL/GUI/lvgl/src/core/lv_obj_style_gen.h ****     return v.color;
 135              		.loc 2 228 26 view .LVU28
 136 000e 0246     		mov	r2, r0
 137 0010 0290     		str	r0, [sp, #8]
 228:../../Middlewares/LVGL/GUI/lvgl/src/core/lv_obj_style_gen.h ****     return v.color;
 138              		.loc 2 228 26 discriminator 1 view .LVU29
 139 0012 2146     		mov	r1, r4
 140 0014 2846     		mov	r0, r5
 141 0016 FFF7FEFF 		bl	lv_obj_style_apply_color_filter
 142              	.LVL11:
 143 001a 0190     		str	r0, [sp, #4]
 229:../../Middlewares/LVGL/GUI/lvgl/src/core/lv_obj_style_gen.h **** }
 144              		.loc 2 229 5 is_stmt 1 view .LVU30
 229:../../Middlewares/LVGL/GUI/lvgl/src/core/lv_obj_style_gen.h **** }
 145              		.loc 2 229 13 is_stmt 0 view .LVU31
 146 001c ADF80C00 		strh	r0, [sp, #12]	@ movhi
 147 0020 030C     		lsrs	r3, r0, #16
 148 0022 8DF80E30 		strb	r3, [sp, #14]
 149 0026 0020     		movs	r0, #0
 150 0028 9DF80C30 		ldrb	r3, [sp, #12]	@ zero_extendqisi2
 151 002c 63F30700 		bfi	r0, r3, #0, #8
 152 0030 9DF80D30 		ldrb	r3, [sp, #13]	@ zero_extendqisi2
ARM GAS  C:\Users\28576\AppData\Local\Temp\cclWIAwm.s 			page 22


 153 0034 63F30F20 		bfi	r0, r3, #8, #8
 154 0038 9DF80E30 		ldrb	r3, [sp, #14]	@ zero_extendqisi2
 155 003c 63F31740 		bfi	r0, r3, #16, #8
 230:../../Middlewares/LVGL/GUI/lvgl/src/core/lv_obj_style_gen.h **** 
 156              		.loc 2 230 1 view .LVU32
 157 0040 05B0     		add	sp, sp, #20
 158              	.LCFI6:
 159              		.cfi_def_cfa_offset 12
 160              		@ sp needed
 161 0042 30BD     		pop	{r4, r5, pc}
 230:../../Middlewares/LVGL/GUI/lvgl/src/core/lv_obj_style_gen.h **** 
 162              		.loc 2 230 1 view .LVU33
 163              		.cfi_endproc
 164              	.LFE62:
 166              		.section	.text.lv_obj_get_style_bg_grad_color_filtered,"ax",%progbits
 167              		.align	1
 168              		.syntax unified
 169              		.thumb
 170              		.thumb_func
 172              	lv_obj_get_style_bg_grad_color_filtered:
 173              	.LVL12:
 174              	.LFB65:
 245:../../Middlewares/LVGL/GUI/lvgl/src/core/lv_obj_style_gen.h ****     lv_style_value_t v = lv_obj_style_apply_color_filter(obj, part, lv_obj_get_style_prop(obj, part
 175              		.loc 2 245 1 is_stmt 1 view -0
 176              		.cfi_startproc
 177              		@ args = 0, pretend = 0, frame = 16
 178              		@ frame_needed = 0, uses_anonymous_args = 0
 245:../../Middlewares/LVGL/GUI/lvgl/src/core/lv_obj_style_gen.h ****     lv_style_value_t v = lv_obj_style_apply_color_filter(obj, part, lv_obj_get_style_prop(obj, part
 179              		.loc 2 245 1 is_stmt 0 view .LVU35
 180 0000 30B5     		push	{r4, r5, lr}
 181              	.LCFI7:
 182              		.cfi_def_cfa_offset 12
 183              		.cfi_offset 4, -12
 184              		.cfi_offset 5, -8
 185              		.cfi_offset 14, -4
 186 0002 85B0     		sub	sp, sp, #20
 187              	.LCFI8:
 188              		.cfi_def_cfa_offset 32
 189 0004 0546     		mov	r5, r0
 190 0006 0C46     		mov	r4, r1
 246:../../Middlewares/LVGL/GUI/lvgl/src/core/lv_obj_style_gen.h ****     return v.color;
 191              		.loc 2 246 5 is_stmt 1 view .LVU36
 246:../../Middlewares/LVGL/GUI/lvgl/src/core/lv_obj_style_gen.h ****     return v.color;
 192              		.loc 2 246 26 is_stmt 0 view .LVU37
 193 0008 2322     		movs	r2, #35
 194 000a FFF7FEFF 		bl	lv_obj_get_style_prop
 195              	.LVL13:
 246:../../Middlewares/LVGL/GUI/lvgl/src/core/lv_obj_style_gen.h ****     return v.color;
 196              		.loc 2 246 26 view .LVU38
 197 000e 0246     		mov	r2, r0
 198 0010 0290     		str	r0, [sp, #8]
 246:../../Middlewares/LVGL/GUI/lvgl/src/core/lv_obj_style_gen.h ****     return v.color;
 199              		.loc 2 246 26 discriminator 1 view .LVU39
 200 0012 2146     		mov	r1, r4
 201 0014 2846     		mov	r0, r5
 202 0016 FFF7FEFF 		bl	lv_obj_style_apply_color_filter
 203              	.LVL14:
ARM GAS  C:\Users\28576\AppData\Local\Temp\cclWIAwm.s 			page 23


 204 001a 0190     		str	r0, [sp, #4]
 247:../../Middlewares/LVGL/GUI/lvgl/src/core/lv_obj_style_gen.h **** }
 205              		.loc 2 247 5 is_stmt 1 view .LVU40
 247:../../Middlewares/LVGL/GUI/lvgl/src/core/lv_obj_style_gen.h **** }
 206              		.loc 2 247 13 is_stmt 0 view .LVU41
 207 001c ADF80C00 		strh	r0, [sp, #12]	@ movhi
 208 0020 030C     		lsrs	r3, r0, #16
 209 0022 8DF80E30 		strb	r3, [sp, #14]
 210 0026 0020     		movs	r0, #0
 211 0028 9DF80C30 		ldrb	r3, [sp, #12]	@ zero_extendqisi2
 212 002c 63F30700 		bfi	r0, r3, #0, #8
 213 0030 9DF80D30 		ldrb	r3, [sp, #13]	@ zero_extendqisi2
 214 0034 63F30F20 		bfi	r0, r3, #8, #8
 215 0038 9DF80E30 		ldrb	r3, [sp, #14]	@ zero_extendqisi2
 216 003c 63F31740 		bfi	r0, r3, #16, #8
 248:../../Middlewares/LVGL/GUI/lvgl/src/core/lv_obj_style_gen.h **** 
 217              		.loc 2 248 1 view .LVU42
 218 0040 05B0     		add	sp, sp, #20
 219              	.LCFI9:
 220              		.cfi_def_cfa_offset 12
 221              		@ sp needed
 222 0042 30BD     		pop	{r4, r5, pc}
 248:../../Middlewares/LVGL/GUI/lvgl/src/core/lv_obj_style_gen.h **** 
 223              		.loc 2 248 1 view .LVU43
 224              		.cfi_endproc
 225              	.LFE65:
 227              		.section	.text.lv_obj_get_style_border_color_filtered,"ax",%progbits
 228              		.align	1
 229              		.syntax unified
 230              		.thumb
 231              		.thumb_func
 233              	lv_obj_get_style_border_color_filtered:
 234              	.LVL15:
 235              	.LFB79:
 329:../../Middlewares/LVGL/GUI/lvgl/src/core/lv_obj_style_gen.h ****     lv_style_value_t v = lv_obj_style_apply_color_filter(obj, part, lv_obj_get_style_prop(obj, part
 236              		.loc 2 329 1 is_stmt 1 view -0
 237              		.cfi_startproc
 238              		@ args = 0, pretend = 0, frame = 16
 239              		@ frame_needed = 0, uses_anonymous_args = 0
 329:../../Middlewares/LVGL/GUI/lvgl/src/core/lv_obj_style_gen.h ****     lv_style_value_t v = lv_obj_style_apply_color_filter(obj, part, lv_obj_get_style_prop(obj, part
 240              		.loc 2 329 1 is_stmt 0 view .LVU45
 241 0000 30B5     		push	{r4, r5, lr}
 242              	.LCFI10:
 243              		.cfi_def_cfa_offset 12
 244              		.cfi_offset 4, -12
 245              		.cfi_offset 5, -8
 246              		.cfi_offset 14, -4
 247 0002 85B0     		sub	sp, sp, #20
 248              	.LCFI11:
 249              		.cfi_def_cfa_offset 32
 250 0004 0546     		mov	r5, r0
 251 0006 0C46     		mov	r4, r1
 330:../../Middlewares/LVGL/GUI/lvgl/src/core/lv_obj_style_gen.h ****     return v.color;
 252              		.loc 2 330 5 is_stmt 1 view .LVU46
 330:../../Middlewares/LVGL/GUI/lvgl/src/core/lv_obj_style_gen.h ****     return v.color;
 253              		.loc 2 330 26 is_stmt 0 view .LVU47
 254 0008 3122     		movs	r2, #49
ARM GAS  C:\Users\28576\AppData\Local\Temp\cclWIAwm.s 			page 24


 255 000a FFF7FEFF 		bl	lv_obj_get_style_prop
 256              	.LVL16:
 330:../../Middlewares/LVGL/GUI/lvgl/src/core/lv_obj_style_gen.h ****     return v.color;
 257              		.loc 2 330 26 view .LVU48
 258 000e 0246     		mov	r2, r0
 259 0010 0290     		str	r0, [sp, #8]
 330:../../Middlewares/LVGL/GUI/lvgl/src/core/lv_obj_style_gen.h ****     return v.color;
 260              		.loc 2 330 26 discriminator 1 view .LVU49
 261 0012 2146     		mov	r1, r4
 262 0014 2846     		mov	r0, r5
 263 0016 FFF7FEFF 		bl	lv_obj_style_apply_color_filter
 264              	.LVL17:
 265 001a 0190     		str	r0, [sp, #4]
 331:../../Middlewares/LVGL/GUI/lvgl/src/core/lv_obj_style_gen.h **** }
 266              		.loc 2 331 5 is_stmt 1 view .LVU50
 331:../../Middlewares/LVGL/GUI/lvgl/src/core/lv_obj_style_gen.h **** }
 267              		.loc 2 331 13 is_stmt 0 view .LVU51
 268 001c ADF80C00 		strh	r0, [sp, #12]	@ movhi
 269 0020 030C     		lsrs	r3, r0, #16
 270 0022 8DF80E30 		strb	r3, [sp, #14]
 271 0026 0020     		movs	r0, #0
 272 0028 9DF80C30 		ldrb	r3, [sp, #12]	@ zero_extendqisi2
 273 002c 63F30700 		bfi	r0, r3, #0, #8
 274 0030 9DF80D30 		ldrb	r3, [sp, #13]	@ zero_extendqisi2
 275 0034 63F30F20 		bfi	r0, r3, #8, #8
 276 0038 9DF80E30 		ldrb	r3, [sp, #14]	@ zero_extendqisi2
 277 003c 63F31740 		bfi	r0, r3, #16, #8
 332:../../Middlewares/LVGL/GUI/lvgl/src/core/lv_obj_style_gen.h **** 
 278              		.loc 2 332 1 view .LVU52
 279 0040 05B0     		add	sp, sp, #20
 280              	.LCFI12:
 281              		.cfi_def_cfa_offset 12
 282              		@ sp needed
 283 0042 30BD     		pop	{r4, r5, pc}
 332:../../Middlewares/LVGL/GUI/lvgl/src/core/lv_obj_style_gen.h **** 
 284              		.loc 2 332 1 view .LVU53
 285              		.cfi_endproc
 286              	.LFE79:
 288              		.section	.text.lv_obj_get_style_outline_color_filtered,"ax",%progbits
 289              		.align	1
 290              		.syntax unified
 291              		.thumb
 292              		.thumb_func
 294              	lv_obj_get_style_outline_color_filtered:
 295              	.LVL18:
 296              	.LFB86:
 371:../../Middlewares/LVGL/GUI/lvgl/src/core/lv_obj_style_gen.h ****     lv_style_value_t v = lv_obj_style_apply_color_filter(obj, part, lv_obj_get_style_prop(obj, part
 297              		.loc 2 371 1 is_stmt 1 view -0
 298              		.cfi_startproc
 299              		@ args = 0, pretend = 0, frame = 16
 300              		@ frame_needed = 0, uses_anonymous_args = 0
 371:../../Middlewares/LVGL/GUI/lvgl/src/core/lv_obj_style_gen.h ****     lv_style_value_t v = lv_obj_style_apply_color_filter(obj, part, lv_obj_get_style_prop(obj, part
 301              		.loc 2 371 1 is_stmt 0 view .LVU55
 302 0000 30B5     		push	{r4, r5, lr}
 303              	.LCFI13:
 304              		.cfi_def_cfa_offset 12
 305              		.cfi_offset 4, -12
ARM GAS  C:\Users\28576\AppData\Local\Temp\cclWIAwm.s 			page 25


 306              		.cfi_offset 5, -8
 307              		.cfi_offset 14, -4
 308 0002 85B0     		sub	sp, sp, #20
 309              	.LCFI14:
 310              		.cfi_def_cfa_offset 32
 311 0004 0546     		mov	r5, r0
 312 0006 0C46     		mov	r4, r1
 372:../../Middlewares/LVGL/GUI/lvgl/src/core/lv_obj_style_gen.h ****     return v.color;
 313              		.loc 2 372 5 is_stmt 1 view .LVU56
 372:../../Middlewares/LVGL/GUI/lvgl/src/core/lv_obj_style_gen.h ****     return v.color;
 314              		.loc 2 372 26 is_stmt 0 view .LVU57
 315 0008 3922     		movs	r2, #57
 316 000a FFF7FEFF 		bl	lv_obj_get_style_prop
 317              	.LVL19:
 372:../../Middlewares/LVGL/GUI/lvgl/src/core/lv_obj_style_gen.h ****     return v.color;
 318              		.loc 2 372 26 view .LVU58
 319 000e 0246     		mov	r2, r0
 320 0010 0290     		str	r0, [sp, #8]
 372:../../Middlewares/LVGL/GUI/lvgl/src/core/lv_obj_style_gen.h ****     return v.color;
 321              		.loc 2 372 26 discriminator 1 view .LVU59
 322 0012 2146     		mov	r1, r4
 323 0014 2846     		mov	r0, r5
 324 0016 FFF7FEFF 		bl	lv_obj_style_apply_color_filter
 325              	.LVL20:
 326 001a 0190     		str	r0, [sp, #4]
 373:../../Middlewares/LVGL/GUI/lvgl/src/core/lv_obj_style_gen.h **** }
 327              		.loc 2 373 5 is_stmt 1 view .LVU60
 373:../../Middlewares/LVGL/GUI/lvgl/src/core/lv_obj_style_gen.h **** }
 328              		.loc 2 373 13 is_stmt 0 view .LVU61
 329 001c ADF80C00 		strh	r0, [sp, #12]	@ movhi
 330 0020 030C     		lsrs	r3, r0, #16
 331 0022 8DF80E30 		strb	r3, [sp, #14]
 332 0026 0020     		movs	r0, #0
 333 0028 9DF80C30 		ldrb	r3, [sp, #12]	@ zero_extendqisi2
 334 002c 63F30700 		bfi	r0, r3, #0, #8
 335 0030 9DF80D30 		ldrb	r3, [sp, #13]	@ zero_extendqisi2
 336 0034 63F30F20 		bfi	r0, r3, #8, #8
 337 0038 9DF80E30 		ldrb	r3, [sp, #14]	@ zero_extendqisi2
 338 003c 63F31740 		bfi	r0, r3, #16, #8
 374:../../Middlewares/LVGL/GUI/lvgl/src/core/lv_obj_style_gen.h **** 
 339              		.loc 2 374 1 view .LVU62
 340 0040 05B0     		add	sp, sp, #20
 341              	.LCFI15:
 342              		.cfi_def_cfa_offset 12
 343              		@ sp needed
 344 0042 30BD     		pop	{r4, r5, pc}
 374:../../Middlewares/LVGL/GUI/lvgl/src/core/lv_obj_style_gen.h **** 
 345              		.loc 2 374 1 view .LVU63
 346              		.cfi_endproc
 347              	.LFE86:
 349              		.section	.text.lv_obj_get_style_text_color_filtered,"ax",%progbits
 350              		.align	1
 351              		.syntax unified
 352              		.thumb
 353              		.thumb_func
 355              	lv_obj_get_style_text_color_filtered:
 356              	.LVL21:
ARM GAS  C:\Users\28576\AppData\Local\Temp\cclWIAwm.s 			page 26


 357              	.LFB114:
 539:../../Middlewares/LVGL/GUI/lvgl/src/core/lv_obj_style_gen.h ****     lv_style_value_t v = lv_obj_style_apply_color_filter(obj, part, lv_obj_get_style_prop(obj, part
 358              		.loc 2 539 1 is_stmt 1 view -0
 359              		.cfi_startproc
 360              		@ args = 0, pretend = 0, frame = 16
 361              		@ frame_needed = 0, uses_anonymous_args = 0
 539:../../Middlewares/LVGL/GUI/lvgl/src/core/lv_obj_style_gen.h ****     lv_style_value_t v = lv_obj_style_apply_color_filter(obj, part, lv_obj_get_style_prop(obj, part
 362              		.loc 2 539 1 is_stmt 0 view .LVU65
 363 0000 30B5     		push	{r4, r5, lr}
 364              	.LCFI16:
 365              		.cfi_def_cfa_offset 12
 366              		.cfi_offset 4, -12
 367              		.cfi_offset 5, -8
 368              		.cfi_offset 14, -4
 369 0002 85B0     		sub	sp, sp, #20
 370              	.LCFI17:
 371              		.cfi_def_cfa_offset 32
 372 0004 0546     		mov	r5, r0
 373 0006 0C46     		mov	r4, r1
 540:../../Middlewares/LVGL/GUI/lvgl/src/core/lv_obj_style_gen.h ****     return v.color;
 374              		.loc 2 540 5 is_stmt 1 view .LVU66
 540:../../Middlewares/LVGL/GUI/lvgl/src/core/lv_obj_style_gen.h ****     return v.color;
 375              		.loc 2 540 26 is_stmt 0 view .LVU67
 376 0008 5822     		movs	r2, #88
 377 000a FFF7FEFF 		bl	lv_obj_get_style_prop
 378              	.LVL22:
 540:../../Middlewares/LVGL/GUI/lvgl/src/core/lv_obj_style_gen.h ****     return v.color;
 379              		.loc 2 540 26 view .LVU68
 380 000e 0246     		mov	r2, r0
 381 0010 0290     		str	r0, [sp, #8]
 540:../../Middlewares/LVGL/GUI/lvgl/src/core/lv_obj_style_gen.h ****     return v.color;
 382              		.loc 2 540 26 discriminator 1 view .LVU69
 383 0012 2146     		mov	r1, r4
 384 0014 2846     		mov	r0, r5
 385 0016 FFF7FEFF 		bl	lv_obj_style_apply_color_filter
 386              	.LVL23:
 387 001a 0190     		str	r0, [sp, #4]
 541:../../Middlewares/LVGL/GUI/lvgl/src/core/lv_obj_style_gen.h **** }
 388              		.loc 2 541 5 is_stmt 1 view .LVU70
 541:../../Middlewares/LVGL/GUI/lvgl/src/core/lv_obj_style_gen.h **** }
 389              		.loc 2 541 13 is_stmt 0 view .LVU71
 390 001c ADF80C00 		strh	r0, [sp, #12]	@ movhi
 391 0020 030C     		lsrs	r3, r0, #16
 392 0022 8DF80E30 		strb	r3, [sp, #14]
 393 0026 0020     		movs	r0, #0
 394 0028 9DF80C30 		ldrb	r3, [sp, #12]	@ zero_extendqisi2
 395 002c 63F30700 		bfi	r0, r3, #0, #8
 396 0030 9DF80D30 		ldrb	r3, [sp, #13]	@ zero_extendqisi2
 397 0034 63F30F20 		bfi	r0, r3, #8, #8
 398 0038 9DF80E30 		ldrb	r3, [sp, #14]	@ zero_extendqisi2
 399 003c 63F31740 		bfi	r0, r3, #16, #8
 542:../../Middlewares/LVGL/GUI/lvgl/src/core/lv_obj_style_gen.h **** 
 400              		.loc 2 542 1 view .LVU72
 401 0040 05B0     		add	sp, sp, #20
 402              	.LCFI18:
 403              		.cfi_def_cfa_offset 12
 404              		@ sp needed
ARM GAS  C:\Users\28576\AppData\Local\Temp\cclWIAwm.s 			page 27


 405 0042 30BD     		pop	{r4, r5, pc}
 542:../../Middlewares/LVGL/GUI/lvgl/src/core/lv_obj_style_gen.h **** 
 406              		.loc 2 542 1 view .LVU73
 407              		.cfi_endproc
 408              	.LFE114:
 410              		.section	.text.lv_obj_get_style_bg_image_recolor_filtered,"ax",%progbits
 411              		.align	1
 412              		.syntax unified
 413              		.thumb
 414              		.thumb_func
 416              	lv_obj_get_style_bg_image_recolor_filtered:
 417              	.LVL24:
 418              	.LFB75:
 305:../../Middlewares/LVGL/GUI/lvgl/src/core/lv_obj_style_gen.h ****     lv_style_value_t v = lv_obj_style_apply_color_filter(obj, part, lv_obj_get_style_prop(obj, part
 419              		.loc 2 305 1 is_stmt 1 view -0
 420              		.cfi_startproc
 421              		@ args = 0, pretend = 0, frame = 16
 422              		@ frame_needed = 0, uses_anonymous_args = 0
 305:../../Middlewares/LVGL/GUI/lvgl/src/core/lv_obj_style_gen.h ****     lv_style_value_t v = lv_obj_style_apply_color_filter(obj, part, lv_obj_get_style_prop(obj, part
 423              		.loc 2 305 1 is_stmt 0 view .LVU75
 424 0000 30B5     		push	{r4, r5, lr}
 425              	.LCFI19:
 426              		.cfi_def_cfa_offset 12
 427              		.cfi_offset 4, -12
 428              		.cfi_offset 5, -8
 429              		.cfi_offset 14, -4
 430 0002 85B0     		sub	sp, sp, #20
 431              	.LCFI20:
 432              		.cfi_def_cfa_offset 32
 433 0004 0546     		mov	r5, r0
 434 0006 0C46     		mov	r4, r1
 306:../../Middlewares/LVGL/GUI/lvgl/src/core/lv_obj_style_gen.h ****     return v.color;
 435              		.loc 2 306 5 is_stmt 1 view .LVU76
 306:../../Middlewares/LVGL/GUI/lvgl/src/core/lv_obj_style_gen.h ****     return v.color;
 436              		.loc 2 306 26 is_stmt 0 view .LVU77
 437 0008 2A22     		movs	r2, #42
 438 000a FFF7FEFF 		bl	lv_obj_get_style_prop
 439              	.LVL25:
 306:../../Middlewares/LVGL/GUI/lvgl/src/core/lv_obj_style_gen.h ****     return v.color;
 440              		.loc 2 306 26 view .LVU78
 441 000e 0246     		mov	r2, r0
 442 0010 0290     		str	r0, [sp, #8]
 306:../../Middlewares/LVGL/GUI/lvgl/src/core/lv_obj_style_gen.h ****     return v.color;
 443              		.loc 2 306 26 discriminator 1 view .LVU79
 444 0012 2146     		mov	r1, r4
 445 0014 2846     		mov	r0, r5
 446 0016 FFF7FEFF 		bl	lv_obj_style_apply_color_filter
 447              	.LVL26:
 448 001a 0190     		str	r0, [sp, #4]
 307:../../Middlewares/LVGL/GUI/lvgl/src/core/lv_obj_style_gen.h **** }
 449              		.loc 2 307 5 is_stmt 1 view .LVU80
 307:../../Middlewares/LVGL/GUI/lvgl/src/core/lv_obj_style_gen.h **** }
 450              		.loc 2 307 13 is_stmt 0 view .LVU81
 451 001c ADF80C00 		strh	r0, [sp, #12]	@ movhi
 452 0020 030C     		lsrs	r3, r0, #16
 453 0022 8DF80E30 		strb	r3, [sp, #14]
 454 0026 0020     		movs	r0, #0
ARM GAS  C:\Users\28576\AppData\Local\Temp\cclWIAwm.s 			page 28


 455 0028 9DF80C30 		ldrb	r3, [sp, #12]	@ zero_extendqisi2
 456 002c 63F30700 		bfi	r0, r3, #0, #8
 457 0030 9DF80D30 		ldrb	r3, [sp, #13]	@ zero_extendqisi2
 458 0034 63F30F20 		bfi	r0, r3, #8, #8
 459 0038 9DF80E30 		ldrb	r3, [sp, #14]	@ zero_extendqisi2
 460 003c 63F31740 		bfi	r0, r3, #16, #8
 308:../../Middlewares/LVGL/GUI/lvgl/src/core/lv_obj_style_gen.h **** 
 461              		.loc 2 308 1 view .LVU82
 462 0040 05B0     		add	sp, sp, #20
 463              	.LCFI21:
 464              		.cfi_def_cfa_offset 12
 465              		@ sp needed
 466 0042 30BD     		pop	{r4, r5, pc}
 308:../../Middlewares/LVGL/GUI/lvgl/src/core/lv_obj_style_gen.h **** 
 467              		.loc 2 308 1 view .LVU83
 468              		.cfi_endproc
 469              	.LFE75:
 471              		.section	.text.lv_obj_get_style_shadow_color_filtered,"ax",%progbits
 472              		.align	1
 473              		.syntax unified
 474              		.thumb
 475              		.thumb_func
 477              	lv_obj_get_style_shadow_color_filtered:
 478              	.LVL27:
 479              	.LFB94:
 419:../../Middlewares/LVGL/GUI/lvgl/src/core/lv_obj_style_gen.h ****     lv_style_value_t v = lv_obj_style_apply_color_filter(obj, part, lv_obj_get_style_prop(obj, part
 480              		.loc 2 419 1 is_stmt 1 view -0
 481              		.cfi_startproc
 482              		@ args = 0, pretend = 0, frame = 16
 483              		@ frame_needed = 0, uses_anonymous_args = 0
 419:../../Middlewares/LVGL/GUI/lvgl/src/core/lv_obj_style_gen.h ****     lv_style_value_t v = lv_obj_style_apply_color_filter(obj, part, lv_obj_get_style_prop(obj, part
 484              		.loc 2 419 1 is_stmt 0 view .LVU85
 485 0000 30B5     		push	{r4, r5, lr}
 486              	.LCFI22:
 487              		.cfi_def_cfa_offset 12
 488              		.cfi_offset 4, -12
 489              		.cfi_offset 5, -8
 490              		.cfi_offset 14, -4
 491 0002 85B0     		sub	sp, sp, #20
 492              	.LCFI23:
 493              		.cfi_def_cfa_offset 32
 494 0004 0546     		mov	r5, r0
 495 0006 0C46     		mov	r4, r1
 420:../../Middlewares/LVGL/GUI/lvgl/src/core/lv_obj_style_gen.h ****     return v.color;
 496              		.loc 2 420 5 is_stmt 1 view .LVU86
 420:../../Middlewares/LVGL/GUI/lvgl/src/core/lv_obj_style_gen.h ****     return v.color;
 497              		.loc 2 420 26 is_stmt 0 view .LVU87
 498 0008 3D22     		movs	r2, #61
 499 000a FFF7FEFF 		bl	lv_obj_get_style_prop
 500              	.LVL28:
 420:../../Middlewares/LVGL/GUI/lvgl/src/core/lv_obj_style_gen.h ****     return v.color;
 501              		.loc 2 420 26 view .LVU88
 502 000e 0246     		mov	r2, r0
 503 0010 0290     		str	r0, [sp, #8]
 420:../../Middlewares/LVGL/GUI/lvgl/src/core/lv_obj_style_gen.h ****     return v.color;
 504              		.loc 2 420 26 discriminator 1 view .LVU89
 505 0012 2146     		mov	r1, r4
ARM GAS  C:\Users\28576\AppData\Local\Temp\cclWIAwm.s 			page 29


 506 0014 2846     		mov	r0, r5
 507 0016 FFF7FEFF 		bl	lv_obj_style_apply_color_filter
 508              	.LVL29:
 509 001a 0190     		str	r0, [sp, #4]
 421:../../Middlewares/LVGL/GUI/lvgl/src/core/lv_obj_style_gen.h **** }
 510              		.loc 2 421 5 is_stmt 1 view .LVU90
 421:../../Middlewares/LVGL/GUI/lvgl/src/core/lv_obj_style_gen.h **** }
 511              		.loc 2 421 13 is_stmt 0 view .LVU91
 512 001c ADF80C00 		strh	r0, [sp, #12]	@ movhi
 513 0020 030C     		lsrs	r3, r0, #16
 514 0022 8DF80E30 		strb	r3, [sp, #14]
 515 0026 0020     		movs	r0, #0
 516 0028 9DF80C30 		ldrb	r3, [sp, #12]	@ zero_extendqisi2
 517 002c 63F30700 		bfi	r0, r3, #0, #8
 518 0030 9DF80D30 		ldrb	r3, [sp, #13]	@ zero_extendqisi2
 519 0034 63F30F20 		bfi	r0, r3, #8, #8
 520 0038 9DF80E30 		ldrb	r3, [sp, #14]	@ zero_extendqisi2
 521 003c 63F31740 		bfi	r0, r3, #16, #8
 422:../../Middlewares/LVGL/GUI/lvgl/src/core/lv_obj_style_gen.h **** 
 522              		.loc 2 422 1 view .LVU92
 523 0040 05B0     		add	sp, sp, #20
 524              	.LCFI24:
 525              		.cfi_def_cfa_offset 12
 526              		@ sp needed
 527 0042 30BD     		pop	{r4, r5, pc}
 422:../../Middlewares/LVGL/GUI/lvgl/src/core/lv_obj_style_gen.h **** 
 528              		.loc 2 422 1 view .LVU93
 529              		.cfi_endproc
 530              	.LFE94:
 532              		.section	.text.lv_obj_get_style_image_recolor_filtered,"ax",%progbits
 533              		.align	1
 534              		.syntax unified
 535              		.thumb
 536              		.thumb_func
 538              	lv_obj_get_style_image_recolor_filtered:
 539              	.LVL30:
 540              	.LFB98:
 443:../../Middlewares/LVGL/GUI/lvgl/src/core/lv_obj_style_gen.h ****     lv_style_value_t v = lv_obj_style_apply_color_filter(obj, part, lv_obj_get_style_prop(obj, part
 541              		.loc 2 443 1 is_stmt 1 view -0
 542              		.cfi_startproc
 543              		@ args = 0, pretend = 0, frame = 16
 544              		@ frame_needed = 0, uses_anonymous_args = 0
 443:../../Middlewares/LVGL/GUI/lvgl/src/core/lv_obj_style_gen.h ****     lv_style_value_t v = lv_obj_style_apply_color_filter(obj, part, lv_obj_get_style_prop(obj, part
 545              		.loc 2 443 1 is_stmt 0 view .LVU95
 546 0000 30B5     		push	{r4, r5, lr}
 547              	.LCFI25:
 548              		.cfi_def_cfa_offset 12
 549              		.cfi_offset 4, -12
 550              		.cfi_offset 5, -8
 551              		.cfi_offset 14, -4
 552 0002 85B0     		sub	sp, sp, #20
 553              	.LCFI26:
 554              		.cfi_def_cfa_offset 32
 555 0004 0546     		mov	r5, r0
 556 0006 0C46     		mov	r4, r1
 444:../../Middlewares/LVGL/GUI/lvgl/src/core/lv_obj_style_gen.h ****     return v.color;
 557              		.loc 2 444 5 is_stmt 1 view .LVU96
ARM GAS  C:\Users\28576\AppData\Local\Temp\cclWIAwm.s 			page 30


 444:../../Middlewares/LVGL/GUI/lvgl/src/core/lv_obj_style_gen.h ****     return v.color;
 558              		.loc 2 444 26 is_stmt 0 view .LVU97
 559 0008 4522     		movs	r2, #69
 560 000a FFF7FEFF 		bl	lv_obj_get_style_prop
 561              	.LVL31:
 444:../../Middlewares/LVGL/GUI/lvgl/src/core/lv_obj_style_gen.h ****     return v.color;
 562              		.loc 2 444 26 view .LVU98
 563 000e 0246     		mov	r2, r0
 564 0010 0290     		str	r0, [sp, #8]
 444:../../Middlewares/LVGL/GUI/lvgl/src/core/lv_obj_style_gen.h ****     return v.color;
 565              		.loc 2 444 26 discriminator 1 view .LVU99
 566 0012 2146     		mov	r1, r4
 567 0014 2846     		mov	r0, r5
 568 0016 FFF7FEFF 		bl	lv_obj_style_apply_color_filter
 569              	.LVL32:
 570 001a 0190     		str	r0, [sp, #4]
 445:../../Middlewares/LVGL/GUI/lvgl/src/core/lv_obj_style_gen.h **** }
 571              		.loc 2 445 5 is_stmt 1 view .LVU100
 445:../../Middlewares/LVGL/GUI/lvgl/src/core/lv_obj_style_gen.h **** }
 572              		.loc 2 445 13 is_stmt 0 view .LVU101
 573 001c ADF80C00 		strh	r0, [sp, #12]	@ movhi
 574 0020 030C     		lsrs	r3, r0, #16
 575 0022 8DF80E30 		strb	r3, [sp, #14]
 576 0026 0020     		movs	r0, #0
 577 0028 9DF80C30 		ldrb	r3, [sp, #12]	@ zero_extendqisi2
 578 002c 63F30700 		bfi	r0, r3, #0, #8
 579 0030 9DF80D30 		ldrb	r3, [sp, #13]	@ zero_extendqisi2
 580 0034 63F30F20 		bfi	r0, r3, #8, #8
 581 0038 9DF80E30 		ldrb	r3, [sp, #14]	@ zero_extendqisi2
 582 003c 63F31740 		bfi	r0, r3, #16, #8
 446:../../Middlewares/LVGL/GUI/lvgl/src/core/lv_obj_style_gen.h **** 
 583              		.loc 2 446 1 view .LVU102
 584 0040 05B0     		add	sp, sp, #20
 585              	.LCFI27:
 586              		.cfi_def_cfa_offset 12
 587              		@ sp needed
 588 0042 30BD     		pop	{r4, r5, pc}
 446:../../Middlewares/LVGL/GUI/lvgl/src/core/lv_obj_style_gen.h **** 
 589              		.loc 2 446 1 view .LVU103
 590              		.cfi_endproc
 591              	.LFE98:
 593              		.section	.text.lv_obj_get_style_line_color_filtered,"ax",%progbits
 594              		.align	1
 595              		.syntax unified
 596              		.thumb
 597              		.thumb_func
 599              	lv_obj_get_style_line_color_filtered:
 600              	.LVL33:
 601              	.LFB105:
 485:../../Middlewares/LVGL/GUI/lvgl/src/core/lv_obj_style_gen.h ****     lv_style_value_t v = lv_obj_style_apply_color_filter(obj, part, lv_obj_get_style_prop(obj, part
 602              		.loc 2 485 1 is_stmt 1 view -0
 603              		.cfi_startproc
 604              		@ args = 0, pretend = 0, frame = 16
 605              		@ frame_needed = 0, uses_anonymous_args = 0
 485:../../Middlewares/LVGL/GUI/lvgl/src/core/lv_obj_style_gen.h ****     lv_style_value_t v = lv_obj_style_apply_color_filter(obj, part, lv_obj_get_style_prop(obj, part
 606              		.loc 2 485 1 is_stmt 0 view .LVU105
 607 0000 30B5     		push	{r4, r5, lr}
ARM GAS  C:\Users\28576\AppData\Local\Temp\cclWIAwm.s 			page 31


 608              	.LCFI28:
 609              		.cfi_def_cfa_offset 12
 610              		.cfi_offset 4, -12
 611              		.cfi_offset 5, -8
 612              		.cfi_offset 14, -4
 613 0002 85B0     		sub	sp, sp, #20
 614              	.LCFI29:
 615              		.cfi_def_cfa_offset 32
 616 0004 0546     		mov	r5, r0
 617 0006 0C46     		mov	r4, r1
 486:../../Middlewares/LVGL/GUI/lvgl/src/core/lv_obj_style_gen.h ****     return v.color;
 618              		.loc 2 486 5 is_stmt 1 view .LVU106
 486:../../Middlewares/LVGL/GUI/lvgl/src/core/lv_obj_style_gen.h ****     return v.color;
 619              		.loc 2 486 26 is_stmt 0 view .LVU107
 620 0008 4C22     		movs	r2, #76
 621 000a FFF7FEFF 		bl	lv_obj_get_style_prop
 622              	.LVL34:
 486:../../Middlewares/LVGL/GUI/lvgl/src/core/lv_obj_style_gen.h ****     return v.color;
 623              		.loc 2 486 26 view .LVU108
 624 000e 0246     		mov	r2, r0
 625 0010 0290     		str	r0, [sp, #8]
 486:../../Middlewares/LVGL/GUI/lvgl/src/core/lv_obj_style_gen.h ****     return v.color;
 626              		.loc 2 486 26 discriminator 1 view .LVU109
 627 0012 2146     		mov	r1, r4
 628 0014 2846     		mov	r0, r5
 629 0016 FFF7FEFF 		bl	lv_obj_style_apply_color_filter
 630              	.LVL35:
 631 001a 0190     		str	r0, [sp, #4]
 487:../../Middlewares/LVGL/GUI/lvgl/src/core/lv_obj_style_gen.h **** }
 632              		.loc 2 487 5 is_stmt 1 view .LVU110
 487:../../Middlewares/LVGL/GUI/lvgl/src/core/lv_obj_style_gen.h **** }
 633              		.loc 2 487 13 is_stmt 0 view .LVU111
 634 001c ADF80C00 		strh	r0, [sp, #12]	@ movhi
 635 0020 030C     		lsrs	r3, r0, #16
 636 0022 8DF80E30 		strb	r3, [sp, #14]
 637 0026 0020     		movs	r0, #0
 638 0028 9DF80C30 		ldrb	r3, [sp, #12]	@ zero_extendqisi2
 639 002c 63F30700 		bfi	r0, r3, #0, #8
 640 0030 9DF80D30 		ldrb	r3, [sp, #13]	@ zero_extendqisi2
 641 0034 63F30F20 		bfi	r0, r3, #8, #8
 642 0038 9DF80E30 		ldrb	r3, [sp, #14]	@ zero_extendqisi2
 643 003c 63F31740 		bfi	r0, r3, #16, #8
 488:../../Middlewares/LVGL/GUI/lvgl/src/core/lv_obj_style_gen.h **** 
 644              		.loc 2 488 1 view .LVU112
 645 0040 05B0     		add	sp, sp, #20
 646              	.LCFI30:
 647              		.cfi_def_cfa_offset 12
 648              		@ sp needed
 649 0042 30BD     		pop	{r4, r5, pc}
 488:../../Middlewares/LVGL/GUI/lvgl/src/core/lv_obj_style_gen.h **** 
 650              		.loc 2 488 1 view .LVU113
 651              		.cfi_endproc
 652              	.LFE105:
 654              		.section	.text.lv_obj_get_style_arc_color_filtered,"ax",%progbits
 655              		.align	1
 656              		.syntax unified
 657              		.thumb
ARM GAS  C:\Users\28576\AppData\Local\Temp\cclWIAwm.s 			page 32


 658              		.thumb_func
 660              	lv_obj_get_style_arc_color_filtered:
 661              	.LVL36:
 662              	.LFB110:
 515:../../Middlewares/LVGL/GUI/lvgl/src/core/lv_obj_style_gen.h ****     lv_style_value_t v = lv_obj_style_apply_color_filter(obj, part, lv_obj_get_style_prop(obj, part
 663              		.loc 2 515 1 is_stmt 1 view -0
 664              		.cfi_startproc
 665              		@ args = 0, pretend = 0, frame = 16
 666              		@ frame_needed = 0, uses_anonymous_args = 0
 515:../../Middlewares/LVGL/GUI/lvgl/src/core/lv_obj_style_gen.h ****     lv_style_value_t v = lv_obj_style_apply_color_filter(obj, part, lv_obj_get_style_prop(obj, part
 667              		.loc 2 515 1 is_stmt 0 view .LVU115
 668 0000 30B5     		push	{r4, r5, lr}
 669              	.LCFI31:
 670              		.cfi_def_cfa_offset 12
 671              		.cfi_offset 4, -12
 672              		.cfi_offset 5, -8
 673              		.cfi_offset 14, -4
 674 0002 85B0     		sub	sp, sp, #20
 675              	.LCFI32:
 676              		.cfi_def_cfa_offset 32
 677 0004 0546     		mov	r5, r0
 678 0006 0C46     		mov	r4, r1
 516:../../Middlewares/LVGL/GUI/lvgl/src/core/lv_obj_style_gen.h ****     return v.color;
 679              		.loc 2 516 5 is_stmt 1 view .LVU116
 516:../../Middlewares/LVGL/GUI/lvgl/src/core/lv_obj_style_gen.h ****     return v.color;
 680              		.loc 2 516 26 is_stmt 0 view .LVU117
 681 0008 5222     		movs	r2, #82
 682 000a FFF7FEFF 		bl	lv_obj_get_style_prop
 683              	.LVL37:
 516:../../Middlewares/LVGL/GUI/lvgl/src/core/lv_obj_style_gen.h ****     return v.color;
 684              		.loc 2 516 26 view .LVU118
 685 000e 0246     		mov	r2, r0
 686 0010 0290     		str	r0, [sp, #8]
 516:../../Middlewares/LVGL/GUI/lvgl/src/core/lv_obj_style_gen.h ****     return v.color;
 687              		.loc 2 516 26 discriminator 1 view .LVU119
 688 0012 2146     		mov	r1, r4
 689 0014 2846     		mov	r0, r5
 690 0016 FFF7FEFF 		bl	lv_obj_style_apply_color_filter
 691              	.LVL38:
 692 001a 0190     		str	r0, [sp, #4]
 517:../../Middlewares/LVGL/GUI/lvgl/src/core/lv_obj_style_gen.h **** }
 693              		.loc 2 517 5 is_stmt 1 view .LVU120
 517:../../Middlewares/LVGL/GUI/lvgl/src/core/lv_obj_style_gen.h **** }
 694              		.loc 2 517 13 is_stmt 0 view .LVU121
 695 001c ADF80C00 		strh	r0, [sp, #12]	@ movhi
 696 0020 030C     		lsrs	r3, r0, #16
 697 0022 8DF80E30 		strb	r3, [sp, #14]
 698 0026 0020     		movs	r0, #0
 699 0028 9DF80C30 		ldrb	r3, [sp, #12]	@ zero_extendqisi2
 700 002c 63F30700 		bfi	r0, r3, #0, #8
 701 0030 9DF80D30 		ldrb	r3, [sp, #13]	@ zero_extendqisi2
 702 0034 63F30F20 		bfi	r0, r3, #8, #8
 703 0038 9DF80E30 		ldrb	r3, [sp, #14]	@ zero_extendqisi2
 704 003c 63F31740 		bfi	r0, r3, #16, #8
 518:../../Middlewares/LVGL/GUI/lvgl/src/core/lv_obj_style_gen.h **** 
 705              		.loc 2 518 1 view .LVU122
 706 0040 05B0     		add	sp, sp, #20
ARM GAS  C:\Users\28576\AppData\Local\Temp\cclWIAwm.s 			page 33


 707              	.LCFI33:
 708              		.cfi_def_cfa_offset 12
 709              		@ sp needed
 710 0042 30BD     		pop	{r4, r5, pc}
 518:../../Middlewares/LVGL/GUI/lvgl/src/core/lv_obj_style_gen.h **** 
 711              		.loc 2 518 1 view .LVU123
 712              		.cfi_endproc
 713              	.LFE110:
 715              		.section	.text.image_apply_layer_recolor,"ax",%progbits
 716              		.align	1
 717              		.syntax unified
 718              		.thumb
 719              		.thumb_func
 721              	image_apply_layer_recolor:
 722              	.LVL39:
 723              	.LFB183:
 409:../../Middlewares/LVGL/GUI/lvgl/src/core/lv_obj_draw.c **** 
 410:../../Middlewares/LVGL/GUI/lvgl/src/core/lv_obj_draw.c **** 
 411:../../Middlewares/LVGL/GUI/lvgl/src/core/lv_obj_draw.c **** static lv_color_t normal_apply_layer_recolor(const lv_obj_t * obj, lv_part_t part,  const lv_draw_d
 412:../../Middlewares/LVGL/GUI/lvgl/src/core/lv_obj_draw.c ****                                              lv_color_t color)
 413:../../Middlewares/LVGL/GUI/lvgl/src/core/lv_obj_draw.c **** {
 414:../../Middlewares/LVGL/GUI/lvgl/src/core/lv_obj_draw.c ****     lv_color32_t recolor;
 415:../../Middlewares/LVGL/GUI/lvgl/src/core/lv_obj_draw.c **** 
 416:../../Middlewares/LVGL/GUI/lvgl/src/core/lv_obj_draw.c ****     if(base_dsc->layer) {
 417:../../Middlewares/LVGL/GUI/lvgl/src/core/lv_obj_draw.c ****         recolor = base_dsc->layer->recolor;
 418:../../Middlewares/LVGL/GUI/lvgl/src/core/lv_obj_draw.c ****         if(part != LV_PART_MAIN) {
 419:../../Middlewares/LVGL/GUI/lvgl/src/core/lv_obj_draw.c ****             recolor = lv_obj_style_apply_recolor(obj, part, recolor);
 420:../../Middlewares/LVGL/GUI/lvgl/src/core/lv_obj_draw.c ****         }
 421:../../Middlewares/LVGL/GUI/lvgl/src/core/lv_obj_draw.c ****     }
 422:../../Middlewares/LVGL/GUI/lvgl/src/core/lv_obj_draw.c ****     else {
 423:../../Middlewares/LVGL/GUI/lvgl/src/core/lv_obj_draw.c ****         recolor = lv_obj_get_style_recolor_recursive(obj, part);
 424:../../Middlewares/LVGL/GUI/lvgl/src/core/lv_obj_draw.c ****     }
 425:../../Middlewares/LVGL/GUI/lvgl/src/core/lv_obj_draw.c **** 
 426:../../Middlewares/LVGL/GUI/lvgl/src/core/lv_obj_draw.c ****     return lv_color_mix(lv_color_make(recolor.red, recolor.green, recolor.blue), color, recolor.alp
 427:../../Middlewares/LVGL/GUI/lvgl/src/core/lv_obj_draw.c **** }
 428:../../Middlewares/LVGL/GUI/lvgl/src/core/lv_obj_draw.c **** 
 429:../../Middlewares/LVGL/GUI/lvgl/src/core/lv_obj_draw.c **** 
 430:../../Middlewares/LVGL/GUI/lvgl/src/core/lv_obj_draw.c **** static lv_color32_t image_apply_layer_recolor(const lv_obj_t * obj, lv_part_t part,
 431:../../Middlewares/LVGL/GUI/lvgl/src/core/lv_obj_draw.c ****                                               const lv_draw_dsc_base_t * base_dsc, lv_color_t color
 432:../../Middlewares/LVGL/GUI/lvgl/src/core/lv_obj_draw.c **** {
 724              		.loc 1 432 1 is_stmt 1 view -0
 725              		.cfi_startproc
 726              		@ args = 4, pretend = 0, frame = 24
 727              		@ frame_needed = 0, uses_anonymous_args = 0
 728              		.loc 1 432 1 is_stmt 0 view .LVU125
 729 0000 10B5     		push	{r4, lr}
 730              	.LCFI34:
 731              		.cfi_def_cfa_offset 8
 732              		.cfi_offset 4, -8
 733              		.cfi_offset 14, -4
 734 0002 86B0     		sub	sp, sp, #24
 735              	.LCFI35:
 736              		.cfi_def_cfa_offset 32
 737 0004 8446     		mov	ip, r0
 738 0006 0193     		str	r3, [sp, #4]
 739 0008 9DF82040 		ldrb	r4, [sp, #32]	@ zero_extendqisi2
 433:../../Middlewares/LVGL/GUI/lvgl/src/core/lv_obj_draw.c ****     lv_color32_t recolor;
ARM GAS  C:\Users\28576\AppData\Local\Temp\cclWIAwm.s 			page 34


 740              		.loc 1 433 5 is_stmt 1 view .LVU126
 434:../../Middlewares/LVGL/GUI/lvgl/src/core/lv_obj_draw.c **** 
 435:../../Middlewares/LVGL/GUI/lvgl/src/core/lv_obj_draw.c ****     if(base_dsc->layer) {
 741              		.loc 1 435 5 view .LVU127
 742              		.loc 1 435 16 is_stmt 0 view .LVU128
 743 000c 1369     		ldr	r3, [r2, #16]
 744              		.loc 1 435 7 view .LVU129
 745 000e 2BB3     		cbz	r3, .L27
 436:../../Middlewares/LVGL/GUI/lvgl/src/core/lv_obj_draw.c ****         recolor = base_dsc->layer->recolor;
 746              		.loc 1 436 9 is_stmt 1 view .LVU130
 747              		.loc 1 436 17 is_stmt 0 view .LVU131
 748 0010 D3F83900 		ldr	r0, [r3, #57]	@ unaligned
 749              	.LVL40:
 750              		.loc 1 436 17 view .LVU132
 751 0014 0390     		str	r0, [sp, #12]
 437:../../Middlewares/LVGL/GUI/lvgl/src/core/lv_obj_draw.c ****         if(part != LV_PART_MAIN) {
 752              		.loc 1 437 9 is_stmt 1 view .LVU133
 753              		.loc 1 437 11 is_stmt 0 view .LVU134
 754 0016 D9B9     		cbnz	r1, .L33
 755              	.LVL41:
 756              	.L28:
 438:../../Middlewares/LVGL/GUI/lvgl/src/core/lv_obj_draw.c ****             recolor = lv_obj_style_apply_recolor(obj, part, recolor);
 439:../../Middlewares/LVGL/GUI/lvgl/src/core/lv_obj_draw.c ****         }
 440:../../Middlewares/LVGL/GUI/lvgl/src/core/lv_obj_draw.c ****     }
 441:../../Middlewares/LVGL/GUI/lvgl/src/core/lv_obj_draw.c ****     else {
 442:../../Middlewares/LVGL/GUI/lvgl/src/core/lv_obj_draw.c ****         recolor = lv_obj_get_style_recolor_recursive(obj, part);
 443:../../Middlewares/LVGL/GUI/lvgl/src/core/lv_obj_draw.c ****     }
 444:../../Middlewares/LVGL/GUI/lvgl/src/core/lv_obj_draw.c **** 
 445:../../Middlewares/LVGL/GUI/lvgl/src/core/lv_obj_draw.c ****     if(opa > LV_OPA_TRANSP && recolor.alpha > LV_OPA_TRANSP) {
 757              		.loc 1 445 5 is_stmt 1 view .LVU135
 758              		.loc 1 445 7 is_stmt 0 view .LVU136
 759 0018 14B1     		cbz	r4, .L29
 760              		.loc 1 445 38 discriminator 1 view .LVU137
 761 001a 9DF80F30 		ldrb	r3, [sp, #15]	@ zero_extendqisi2
 762              		.loc 1 445 28 discriminator 1 view .LVU138
 763 001e 0BBB     		cbnz	r3, .L34
 764              	.L29:
 446:../../Middlewares/LVGL/GUI/lvgl/src/core/lv_obj_draw.c ****         return lv_color_over32(recolor, lv_color_to_32(color, opa));
 447:../../Middlewares/LVGL/GUI/lvgl/src/core/lv_obj_draw.c ****     }
 448:../../Middlewares/LVGL/GUI/lvgl/src/core/lv_obj_draw.c ****     else if(recolor.alpha > LV_OPA_TRANSP) {
 765              		.loc 1 448 10 is_stmt 1 view .LVU139
 766              		.loc 1 448 20 is_stmt 0 view .LVU140
 767 0020 9DF80F30 		ldrb	r3, [sp, #15]	@ zero_extendqisi2
 768              		.loc 1 448 12 view .LVU141
 769 0024 4BB3     		cbz	r3, .L31
 449:../../Middlewares/LVGL/GUI/lvgl/src/core/lv_obj_draw.c ****         return recolor;
 770              		.loc 1 449 9 is_stmt 1 view .LVU142
 771              		.loc 1 449 16 is_stmt 0 view .LVU143
 772 0026 039B     		ldr	r3, [sp, #12]
 773 0028 0493     		str	r3, [sp, #16]
 774              	.L30:
 450:../../Middlewares/LVGL/GUI/lvgl/src/core/lv_obj_draw.c ****     }
 451:../../Middlewares/LVGL/GUI/lvgl/src/core/lv_obj_draw.c ****     else {
 452:../../Middlewares/LVGL/GUI/lvgl/src/core/lv_obj_draw.c ****         return lv_color_to_32(color, opa);
 453:../../Middlewares/LVGL/GUI/lvgl/src/core/lv_obj_draw.c ****     }
 454:../../Middlewares/LVGL/GUI/lvgl/src/core/lv_obj_draw.c **** }
 775              		.loc 1 454 1 view .LVU144
ARM GAS  C:\Users\28576\AppData\Local\Temp\cclWIAwm.s 			page 35


 776 002a 0020     		movs	r0, #0
 777 002c 9DF81030 		ldrb	r3, [sp, #16]	@ zero_extendqisi2
 778 0030 63F30700 		bfi	r0, r3, #0, #8
 779 0034 9DF81130 		ldrb	r3, [sp, #17]	@ zero_extendqisi2
 780 0038 63F30F20 		bfi	r0, r3, #8, #8
 781 003c 9DF81230 		ldrb	r3, [sp, #18]	@ zero_extendqisi2
 782 0040 63F31740 		bfi	r0, r3, #16, #8
 783 0044 9DF81330 		ldrb	r3, [sp, #19]	@ zero_extendqisi2
 784 0048 63F31F60 		bfi	r0, r3, #24, #8
 785 004c 06B0     		add	sp, sp, #24
 786              	.LCFI36:
 787              		.cfi_remember_state
 788              		.cfi_def_cfa_offset 8
 789              		@ sp needed
 790 004e 10BD     		pop	{r4, pc}
 791              	.LVL42:
 792              	.L33:
 793              	.LCFI37:
 794              		.cfi_restore_state
 438:../../Middlewares/LVGL/GUI/lvgl/src/core/lv_obj_draw.c ****         }
 795              		.loc 1 438 13 is_stmt 1 view .LVU145
 438:../../Middlewares/LVGL/GUI/lvgl/src/core/lv_obj_draw.c ****         }
 796              		.loc 1 438 23 is_stmt 0 view .LVU146
 797 0050 0246     		mov	r2, r0
 798              	.LVL43:
 438:../../Middlewares/LVGL/GUI/lvgl/src/core/lv_obj_draw.c ****         }
 799              		.loc 1 438 23 view .LVU147
 800 0052 6046     		mov	r0, ip
 801 0054 FFF7FEFF 		bl	lv_obj_style_apply_recolor
 802              	.LVL44:
 438:../../Middlewares/LVGL/GUI/lvgl/src/core/lv_obj_draw.c ****         }
 803              		.loc 1 438 23 view .LVU148
 804 0058 0390     		str	r0, [sp, #12]
 805 005a DDE7     		b	.L28
 806              	.LVL45:
 807              	.L27:
 442:../../Middlewares/LVGL/GUI/lvgl/src/core/lv_obj_draw.c ****     }
 808              		.loc 1 442 9 is_stmt 1 view .LVU149
 442:../../Middlewares/LVGL/GUI/lvgl/src/core/lv_obj_draw.c ****     }
 809              		.loc 1 442 19 is_stmt 0 view .LVU150
 810 005c FFF7FEFF 		bl	lv_obj_get_style_recolor_recursive
 811              	.LVL46:
 442:../../Middlewares/LVGL/GUI/lvgl/src/core/lv_obj_draw.c ****     }
 812              		.loc 1 442 19 view .LVU151
 813 0060 0390     		str	r0, [sp, #12]
 814 0062 D9E7     		b	.L28
 815              	.L34:
 446:../../Middlewares/LVGL/GUI/lvgl/src/core/lv_obj_draw.c ****     }
 816              		.loc 1 446 9 is_stmt 1 view .LVU152
 446:../../Middlewares/LVGL/GUI/lvgl/src/core/lv_obj_draw.c ****     }
 817              		.loc 1 446 16 is_stmt 0 view .LVU153
 818 0064 2146     		mov	r1, r4
 819 0066 0198     		ldr	r0, [sp, #4]
 820 0068 FFF7FEFF 		bl	lv_color_to_32
 821              	.LVL47:
 822 006c 0146     		mov	r1, r0
 823 006e 0590     		str	r0, [sp, #20]
ARM GAS  C:\Users\28576\AppData\Local\Temp\cclWIAwm.s 			page 36


 446:../../Middlewares/LVGL/GUI/lvgl/src/core/lv_obj_draw.c ****     }
 824              		.loc 1 446 16 discriminator 1 view .LVU154
 825 0070 0398     		ldr	r0, [sp, #12]
 826 0072 FFF7FEFF 		bl	lv_color_over32
 827              	.LVL48:
 828 0076 0490     		str	r0, [sp, #16]
 446:../../Middlewares/LVGL/GUI/lvgl/src/core/lv_obj_draw.c ****     }
 829              		.loc 1 446 16 view .LVU155
 830 0078 D7E7     		b	.L30
 831              	.L31:
 452:../../Middlewares/LVGL/GUI/lvgl/src/core/lv_obj_draw.c ****     }
 832              		.loc 1 452 9 is_stmt 1 view .LVU156
 452:../../Middlewares/LVGL/GUI/lvgl/src/core/lv_obj_draw.c ****     }
 833              		.loc 1 452 16 is_stmt 0 view .LVU157
 834 007a 2146     		mov	r1, r4
 835 007c 0198     		ldr	r0, [sp, #4]
 836 007e FFF7FEFF 		bl	lv_color_to_32
 837              	.LVL49:
 838 0082 0490     		str	r0, [sp, #16]
 839 0084 D1E7     		b	.L30
 840              		.cfi_endproc
 841              	.LFE183:
 843              		.section	.text.normal_apply_layer_recolor,"ax",%progbits
 844              		.align	1
 845              		.syntax unified
 846              		.thumb
 847              		.thumb_func
 849              	normal_apply_layer_recolor:
 850              	.LVL50:
 851              	.LFB182:
 413:../../Middlewares/LVGL/GUI/lvgl/src/core/lv_obj_draw.c ****     lv_color32_t recolor;
 852              		.loc 1 413 1 is_stmt 1 view -0
 853              		.cfi_startproc
 854              		@ args = 0, pretend = 0, frame = 24
 855              		@ frame_needed = 0, uses_anonymous_args = 0
 413:../../Middlewares/LVGL/GUI/lvgl/src/core/lv_obj_draw.c ****     lv_color32_t recolor;
 856              		.loc 1 413 1 is_stmt 0 view .LVU159
 857 0000 00B5     		push	{lr}
 858              	.LCFI38:
 859              		.cfi_def_cfa_offset 4
 860              		.cfi_offset 14, -4
 861 0002 87B0     		sub	sp, sp, #28
 862              	.LCFI39:
 863              		.cfi_def_cfa_offset 32
 864 0004 8446     		mov	ip, r0
 865 0006 0193     		str	r3, [sp, #4]
 414:../../Middlewares/LVGL/GUI/lvgl/src/core/lv_obj_draw.c **** 
 866              		.loc 1 414 5 is_stmt 1 view .LVU160
 416:../../Middlewares/LVGL/GUI/lvgl/src/core/lv_obj_draw.c ****         recolor = base_dsc->layer->recolor;
 867              		.loc 1 416 5 view .LVU161
 416:../../Middlewares/LVGL/GUI/lvgl/src/core/lv_obj_draw.c ****         recolor = base_dsc->layer->recolor;
 868              		.loc 1 416 16 is_stmt 0 view .LVU162
 869 0008 1369     		ldr	r3, [r2, #16]
 416:../../Middlewares/LVGL/GUI/lvgl/src/core/lv_obj_draw.c ****         recolor = base_dsc->layer->recolor;
 870              		.loc 1 416 7 view .LVU163
 871 000a D3B3     		cbz	r3, .L36
 417:../../Middlewares/LVGL/GUI/lvgl/src/core/lv_obj_draw.c ****         if(part != LV_PART_MAIN) {
ARM GAS  C:\Users\28576\AppData\Local\Temp\cclWIAwm.s 			page 37


 872              		.loc 1 417 9 is_stmt 1 view .LVU164
 417:../../Middlewares/LVGL/GUI/lvgl/src/core/lv_obj_draw.c ****         if(part != LV_PART_MAIN) {
 873              		.loc 1 417 17 is_stmt 0 view .LVU165
 874 000c D3F83900 		ldr	r0, [r3, #57]	@ unaligned
 875              	.LVL51:
 417:../../Middlewares/LVGL/GUI/lvgl/src/core/lv_obj_draw.c ****         if(part != LV_PART_MAIN) {
 876              		.loc 1 417 17 view .LVU166
 877 0010 0390     		str	r0, [sp, #12]
 418:../../Middlewares/LVGL/GUI/lvgl/src/core/lv_obj_draw.c ****             recolor = lv_obj_style_apply_recolor(obj, part, recolor);
 878              		.loc 1 418 9 is_stmt 1 view .LVU167
 418:../../Middlewares/LVGL/GUI/lvgl/src/core/lv_obj_draw.c ****             recolor = lv_obj_style_apply_recolor(obj, part, recolor);
 879              		.loc 1 418 11 is_stmt 0 view .LVU168
 880 0012 81BB     		cbnz	r1, .L39
 881              	.LVL52:
 882              	.L37:
 426:../../Middlewares/LVGL/GUI/lvgl/src/core/lv_obj_draw.c **** }
 883              		.loc 1 426 5 is_stmt 1 view .LVU169
 426:../../Middlewares/LVGL/GUI/lvgl/src/core/lv_obj_draw.c **** }
 884              		.loc 1 426 12 is_stmt 0 view .LVU170
 885 0014 9DF80C20 		ldrb	r2, [sp, #12]	@ zero_extendqisi2
 886 0018 9DF80D10 		ldrb	r1, [sp, #13]	@ zero_extendqisi2
 887 001c 9DF80E00 		ldrb	r0, [sp, #14]	@ zero_extendqisi2
 888 0020 FFF7FEFF 		bl	lv_color_make
 889              	.LVL53:
 890 0024 8DF81400 		strb	r0, [sp, #20]
 891 0028 C0F30723 		ubfx	r3, r0, #8, #8
 892 002c 8DF81530 		strb	r3, [sp, #21]
 893 0030 C0F30740 		ubfx	r0, r0, #16, #8
 894 0034 8DF81600 		strb	r0, [sp, #22]
 426:../../Middlewares/LVGL/GUI/lvgl/src/core/lv_obj_draw.c **** }
 895              		.loc 1 426 12 discriminator 1 view .LVU171
 896 0038 9DF80F20 		ldrb	r2, [sp, #15]	@ zero_extendqisi2
 897 003c 0199     		ldr	r1, [sp, #4]
 898 003e 0598     		ldr	r0, [sp, #20]
 899 0040 FFF7FEFF 		bl	lv_color_mix
 900              	.LVL54:
 901 0044 8DF81000 		strb	r0, [sp, #16]
 902 0048 C0F30723 		ubfx	r3, r0, #8, #8
 903 004c 8DF81130 		strb	r3, [sp, #17]
 904 0050 C0F30740 		ubfx	r0, r0, #16, #8
 905 0054 8DF81200 		strb	r0, [sp, #18]
 426:../../Middlewares/LVGL/GUI/lvgl/src/core/lv_obj_draw.c **** }
 906              		.loc 1 426 12 view .LVU172
 907 0058 0020     		movs	r0, #0
 908 005a 9DF81030 		ldrb	r3, [sp, #16]	@ zero_extendqisi2
 909 005e 63F30700 		bfi	r0, r3, #0, #8
 910 0062 9DF81130 		ldrb	r3, [sp, #17]	@ zero_extendqisi2
 911 0066 63F30F20 		bfi	r0, r3, #8, #8
 912 006a 9DF81230 		ldrb	r3, [sp, #18]	@ zero_extendqisi2
 913 006e 63F31740 		bfi	r0, r3, #16, #8
 427:../../Middlewares/LVGL/GUI/lvgl/src/core/lv_obj_draw.c **** 
 914              		.loc 1 427 1 view .LVU173
 915 0072 07B0     		add	sp, sp, #28
 916              	.LCFI40:
 917              		.cfi_remember_state
 918              		.cfi_def_cfa_offset 4
 919              		@ sp needed
ARM GAS  C:\Users\28576\AppData\Local\Temp\cclWIAwm.s 			page 38


 920 0074 00BD     		pop	{pc}
 921              	.LVL55:
 922              	.L39:
 923              	.LCFI41:
 924              		.cfi_restore_state
 419:../../Middlewares/LVGL/GUI/lvgl/src/core/lv_obj_draw.c ****         }
 925              		.loc 1 419 13 is_stmt 1 view .LVU174
 419:../../Middlewares/LVGL/GUI/lvgl/src/core/lv_obj_draw.c ****         }
 926              		.loc 1 419 23 is_stmt 0 view .LVU175
 927 0076 0246     		mov	r2, r0
 928              	.LVL56:
 419:../../Middlewares/LVGL/GUI/lvgl/src/core/lv_obj_draw.c ****         }
 929              		.loc 1 419 23 view .LVU176
 930 0078 6046     		mov	r0, ip
 931 007a FFF7FEFF 		bl	lv_obj_style_apply_recolor
 932              	.LVL57:
 419:../../Middlewares/LVGL/GUI/lvgl/src/core/lv_obj_draw.c ****         }
 933              		.loc 1 419 23 view .LVU177
 934 007e 0390     		str	r0, [sp, #12]
 935 0080 C8E7     		b	.L37
 936              	.LVL58:
 937              	.L36:
 423:../../Middlewares/LVGL/GUI/lvgl/src/core/lv_obj_draw.c ****     }
 938              		.loc 1 423 9 is_stmt 1 view .LVU178
 423:../../Middlewares/LVGL/GUI/lvgl/src/core/lv_obj_draw.c ****     }
 939              		.loc 1 423 19 is_stmt 0 view .LVU179
 940 0082 FFF7FEFF 		bl	lv_obj_get_style_recolor_recursive
 941              	.LVL59:
 423:../../Middlewares/LVGL/GUI/lvgl/src/core/lv_obj_draw.c ****     }
 942              		.loc 1 423 19 view .LVU180
 943 0086 0390     		str	r0, [sp, #12]
 944 0088 C4E7     		b	.L37
 945              		.cfi_endproc
 946              	.LFE182:
 948              		.section	.text.lv_obj_init_draw_rect_dsc,"ax",%progbits
 949              		.align	1
 950              		.global	lv_obj_init_draw_rect_dsc
 951              		.syntax unified
 952              		.thumb
 953              		.thumb_func
 955              	lv_obj_init_draw_rect_dsc:
 956              	.LVL60:
 957              	.LFB172:
  49:../../Middlewares/LVGL/GUI/lvgl/src/core/lv_obj_draw.c ****     LV_PROFILER_DRAW_BEGIN;
 958              		.loc 1 49 1 is_stmt 1 view -0
 959              		.cfi_startproc
 960              		@ args = 0, pretend = 0, frame = 16
 961              		@ frame_needed = 0, uses_anonymous_args = 0
  49:../../Middlewares/LVGL/GUI/lvgl/src/core/lv_obj_draw.c ****     LV_PROFILER_DRAW_BEGIN;
 962              		.loc 1 49 1 is_stmt 0 view .LVU182
 963 0000 F0B5     		push	{r4, r5, r6, r7, lr}
 964              	.LCFI42:
 965              		.cfi_def_cfa_offset 20
 966              		.cfi_offset 4, -20
 967              		.cfi_offset 5, -16
 968              		.cfi_offset 6, -12
 969              		.cfi_offset 7, -8
ARM GAS  C:\Users\28576\AppData\Local\Temp\cclWIAwm.s 			page 39


 970              		.cfi_offset 14, -4
 971 0002 87B0     		sub	sp, sp, #28
 972              	.LCFI43:
 973              		.cfi_def_cfa_offset 48
 974 0004 0746     		mov	r7, r0
 975 0006 0D46     		mov	r5, r1
 976 0008 1446     		mov	r4, r2
  50:../../Middlewares/LVGL/GUI/lvgl/src/core/lv_obj_draw.c ****     draw_dsc->base.obj = obj;
 977              		.loc 1 50 27 is_stmt 1 view .LVU183
  51:../../Middlewares/LVGL/GUI/lvgl/src/core/lv_obj_draw.c ****     draw_dsc->base.part = part;
 978              		.loc 1 51 5 view .LVU184
  51:../../Middlewares/LVGL/GUI/lvgl/src/core/lv_obj_draw.c ****     draw_dsc->base.part = part;
 979              		.loc 1 51 24 is_stmt 0 view .LVU185
 980 000a 1060     		str	r0, [r2]
  52:../../Middlewares/LVGL/GUI/lvgl/src/core/lv_obj_draw.c **** 
 981              		.loc 1 52 5 is_stmt 1 view .LVU186
  52:../../Middlewares/LVGL/GUI/lvgl/src/core/lv_obj_draw.c **** 
 982              		.loc 1 52 25 is_stmt 0 view .LVU187
 983 000c 5160     		str	r1, [r2, #4]
  54:../../Middlewares/LVGL/GUI/lvgl/src/core/lv_obj_draw.c ****     if(part != LV_PART_MAIN) {
 984              		.loc 1 54 5 is_stmt 1 view .LVU188
  54:../../Middlewares/LVGL/GUI/lvgl/src/core/lv_obj_draw.c ****     if(part != LV_PART_MAIN) {
 985              		.loc 1 54 20 is_stmt 0 view .LVU189
 986 000e FFF7FEFF 		bl	get_layer_opa
 987              	.LVL61:
  54:../../Middlewares/LVGL/GUI/lvgl/src/core/lv_obj_draw.c ****     if(part != LV_PART_MAIN) {
 988              		.loc 1 54 20 view .LVU190
 989 0012 0646     		mov	r6, r0
 990              	.LVL62:
  55:../../Middlewares/LVGL/GUI/lvgl/src/core/lv_obj_draw.c ****         if(opa <= LV_OPA_MIN) {
 991              		.loc 1 55 5 is_stmt 1 view .LVU191
  55:../../Middlewares/LVGL/GUI/lvgl/src/core/lv_obj_draw.c ****         if(opa <= LV_OPA_MIN) {
 992              		.loc 1 55 7 is_stmt 0 view .LVU192
 993 0014 0DB1     		cbz	r5, .L41
  56:../../Middlewares/LVGL/GUI/lvgl/src/core/lv_obj_draw.c ****             draw_dsc->bg_opa = LV_OPA_TRANSP;
 994              		.loc 1 56 9 is_stmt 1 view .LVU193
  56:../../Middlewares/LVGL/GUI/lvgl/src/core/lv_obj_draw.c ****             draw_dsc->bg_opa = LV_OPA_TRANSP;
 995              		.loc 1 56 11 is_stmt 0 view .LVU194
 996 0016 0228     		cmp	r0, #2
 997 0018 4AD9     		bls	.L52
 998              	.L41:
  67:../../Middlewares/LVGL/GUI/lvgl/src/core/lv_obj_draw.c **** 
 999              		.loc 1 67 5 is_stmt 1 view .LVU195
 1000              	.LVL63:
 1001              	.LBB121:
 1002              	.LBI121:
 604:../../Middlewares/LVGL/GUI/lvgl/src/core/lv_obj_style_gen.h **** {
 1003              		.loc 2 604 23 view .LVU196
 1004              	.LBB122:
 606:../../Middlewares/LVGL/GUI/lvgl/src/core/lv_obj_style_gen.h ****     return (int32_t)v.num;
 1005              		.loc 2 606 5 view .LVU197
 606:../../Middlewares/LVGL/GUI/lvgl/src/core/lv_obj_style_gen.h ****     return (int32_t)v.num;
 1006              		.loc 2 606 26 is_stmt 0 view .LVU198
 1007 001a 0C22     		movs	r2, #12
 1008 001c 2946     		mov	r1, r5
 1009 001e 3846     		mov	r0, r7
 1010              	.LVL64:
ARM GAS  C:\Users\28576\AppData\Local\Temp\cclWIAwm.s 			page 40


 606:../../Middlewares/LVGL/GUI/lvgl/src/core/lv_obj_style_gen.h ****     return (int32_t)v.num;
 1011              		.loc 2 606 26 view .LVU199
 1012 0020 FFF7FEFF 		bl	lv_obj_get_style_prop
 1013              	.LVL65:
 1014 0024 0590     		str	r0, [sp, #20]
 607:../../Middlewares/LVGL/GUI/lvgl/src/core/lv_obj_style_gen.h **** }
 1015              		.loc 2 607 5 is_stmt 1 view .LVU200
 1016              	.LVL66:
 607:../../Middlewares/LVGL/GUI/lvgl/src/core/lv_obj_style_gen.h **** }
 1017              		.loc 2 607 5 is_stmt 0 view .LVU201
 1018              	.LBE122:
 1019              	.LBE121:
  67:../../Middlewares/LVGL/GUI/lvgl/src/core/lv_obj_draw.c **** 
 1020              		.loc 1 67 22 discriminator 1 view .LVU202
 1021 0026 E061     		str	r0, [r4, #28]
  69:../../Middlewares/LVGL/GUI/lvgl/src/core/lv_obj_draw.c ****         draw_dsc->bg_opa = lv_obj_get_style_bg_opa(obj, part);
 1022              		.loc 1 69 5 is_stmt 1 view .LVU203
  69:../../Middlewares/LVGL/GUI/lvgl/src/core/lv_obj_draw.c ****         draw_dsc->bg_opa = lv_obj_get_style_bg_opa(obj, part);
 1023              		.loc 1 69 16 is_stmt 0 view .LVU204
 1024 0028 94F82030 		ldrb	r3, [r4, #32]	@ zero_extendqisi2
  69:../../Middlewares/LVGL/GUI/lvgl/src/core/lv_obj_draw.c ****         draw_dsc->bg_opa = lv_obj_get_style_bg_opa(obj, part);
 1025              		.loc 1 69 7 view .LVU205
 1026 002c 002B     		cmp	r3, #0
 1027 002e 4BD1     		bne	.L53
 1028              	.L43:
  93:../../Middlewares/LVGL/GUI/lvgl/src/core/lv_obj_draw.c ****         draw_dsc->border_width = lv_obj_get_style_border_width(obj, part);
 1029              		.loc 1 93 5 is_stmt 1 view .LVU206
  93:../../Middlewares/LVGL/GUI/lvgl/src/core/lv_obj_draw.c ****         draw_dsc->border_width = lv_obj_get_style_border_width(obj, part);
 1030              		.loc 1 93 16 is_stmt 0 view .LVU207
 1031 0030 94F84830 		ldrb	r3, [r4, #72]	@ zero_extendqisi2
  93:../../Middlewares/LVGL/GUI/lvgl/src/core/lv_obj_draw.c ****         draw_dsc->border_width = lv_obj_get_style_border_width(obj, part);
 1032              		.loc 1 93 7 view .LVU208
 1033 0034 002B     		cmp	r3, #0
 1034 0036 40F0D980 		bne	.L54
 1035              	.L46:
 105:../../Middlewares/LVGL/GUI/lvgl/src/core/lv_obj_draw.c ****         draw_dsc->outline_width = lv_obj_get_style_outline_width(obj, part);
 1036              		.loc 1 105 5 is_stmt 1 view .LVU209
 105:../../Middlewares/LVGL/GUI/lvgl/src/core/lv_obj_draw.c ****         draw_dsc->outline_width = lv_obj_get_style_outline_width(obj, part);
 1037              		.loc 1 105 16 is_stmt 0 view .LVU210
 1038 003a 94F85830 		ldrb	r3, [r4, #88]	@ zero_extendqisi2
 105:../../Middlewares/LVGL/GUI/lvgl/src/core/lv_obj_draw.c ****         draw_dsc->outline_width = lv_obj_get_style_outline_width(obj, part);
 1039              		.loc 1 105 7 view .LVU211
 1040 003e 002B     		cmp	r3, #0
 1041 0040 40F01581 		bne	.L55
 1042              	.L47:
 117:../../Middlewares/LVGL/GUI/lvgl/src/core/lv_obj_draw.c ****         draw_dsc->bg_image_src = lv_obj_get_style_bg_image_src(obj, part);
 1043              		.loc 1 117 5 is_stmt 1 view .LVU212
 117:../../Middlewares/LVGL/GUI/lvgl/src/core/lv_obj_draw.c ****         draw_dsc->bg_image_src = lv_obj_get_style_bg_image_src(obj, part);
 1044              		.loc 1 117 16 is_stmt 0 view .LVU213
 1045 0044 94F83B30 		ldrb	r3, [r4, #59]	@ zero_extendqisi2
 117:../../Middlewares/LVGL/GUI/lvgl/src/core/lv_obj_draw.c ****         draw_dsc->bg_image_src = lv_obj_get_style_bg_image_src(obj, part);
 1046              		.loc 1 117 7 view .LVU214
 1047 0048 002B     		cmp	r3, #0
 1048 004a 40F04C81 		bne	.L56
 1049              	.L48:
 139:../../Middlewares/LVGL/GUI/lvgl/src/core/lv_obj_draw.c ****         draw_dsc->shadow_width = lv_obj_get_style_shadow_width(obj, part);
 1050              		.loc 1 139 5 is_stmt 1 view .LVU215
ARM GAS  C:\Users\28576\AppData\Local\Temp\cclWIAwm.s 			page 41


 139:../../Middlewares/LVGL/GUI/lvgl/src/core/lv_obj_draw.c ****         draw_dsc->shadow_width = lv_obj_get_style_shadow_width(obj, part);
 1051              		.loc 1 139 16 is_stmt 0 view .LVU216
 1052 004e 94F86C30 		ldrb	r3, [r4, #108]	@ zero_extendqisi2
 139:../../Middlewares/LVGL/GUI/lvgl/src/core/lv_obj_draw.c ****         draw_dsc->shadow_width = lv_obj_get_style_shadow_width(obj, part);
 1053              		.loc 1 139 7 view .LVU217
 1054 0052 002B     		cmp	r3, #0
 1055 0054 40F0C781 		bne	.L57
 1056              	.L50:
 155:../../Middlewares/LVGL/GUI/lvgl/src/core/lv_obj_draw.c ****         draw_dsc->bg_opa = LV_OPA_MIX2(draw_dsc->bg_opa, opa);
 1057              		.loc 1 155 5 is_stmt 1 view .LVU218
 155:../../Middlewares/LVGL/GUI/lvgl/src/core/lv_obj_draw.c ****         draw_dsc->bg_opa = LV_OPA_MIX2(draw_dsc->bg_opa, opa);
 1058              		.loc 1 155 7 is_stmt 0 view .LVU219
 1059 0058 FC2E     		cmp	r6, #252
 1060 005a 27D8     		bhi	.L40
 156:../../Middlewares/LVGL/GUI/lvgl/src/core/lv_obj_draw.c ****         draw_dsc->bg_image_opa = LV_OPA_MIX2(draw_dsc->bg_image_opa, opa);
 1061              		.loc 1 156 9 is_stmt 1 view .LVU220
 156:../../Middlewares/LVGL/GUI/lvgl/src/core/lv_obj_draw.c ****         draw_dsc->bg_image_opa = LV_OPA_MIX2(draw_dsc->bg_image_opa, opa);
 1062              		.loc 1 156 28 is_stmt 0 view .LVU221
 1063 005c 94F82030 		ldrb	r3, [r4, #32]	@ zero_extendqisi2
 1064 0060 06FB03F3 		mul	r3, r6, r3
 1065 0064 C3F30723 		ubfx	r3, r3, #8, #8
 156:../../Middlewares/LVGL/GUI/lvgl/src/core/lv_obj_draw.c ****         draw_dsc->bg_image_opa = LV_OPA_MIX2(draw_dsc->bg_image_opa, opa);
 1066              		.loc 1 156 26 view .LVU222
 1067 0068 84F82030 		strb	r3, [r4, #32]
 157:../../Middlewares/LVGL/GUI/lvgl/src/core/lv_obj_draw.c ****         draw_dsc->border_opa = LV_OPA_MIX2(draw_dsc->border_opa, opa);
 1068              		.loc 1 157 9 is_stmt 1 view .LVU223
 157:../../Middlewares/LVGL/GUI/lvgl/src/core/lv_obj_draw.c ****         draw_dsc->border_opa = LV_OPA_MIX2(draw_dsc->border_opa, opa);
 1069              		.loc 1 157 34 is_stmt 0 view .LVU224
 1070 006c 94F83B30 		ldrb	r3, [r4, #59]	@ zero_extendqisi2
 1071 0070 06FB03F3 		mul	r3, r6, r3
 1072 0074 C3F30723 		ubfx	r3, r3, #8, #8
 157:../../Middlewares/LVGL/GUI/lvgl/src/core/lv_obj_draw.c ****         draw_dsc->border_opa = LV_OPA_MIX2(draw_dsc->border_opa, opa);
 1073              		.loc 1 157 32 view .LVU225
 1074 0078 84F83B30 		strb	r3, [r4, #59]
 158:../../Middlewares/LVGL/GUI/lvgl/src/core/lv_obj_draw.c ****         draw_dsc->shadow_opa = LV_OPA_MIX2(draw_dsc->shadow_opa, opa);
 1075              		.loc 1 158 9 is_stmt 1 view .LVU226
 158:../../Middlewares/LVGL/GUI/lvgl/src/core/lv_obj_draw.c ****         draw_dsc->shadow_opa = LV_OPA_MIX2(draw_dsc->shadow_opa, opa);
 1076              		.loc 1 158 32 is_stmt 0 view .LVU227
 1077 007c 94F84830 		ldrb	r3, [r4, #72]	@ zero_extendqisi2
 1078 0080 06FB03F3 		mul	r3, r6, r3
 1079 0084 C3F30723 		ubfx	r3, r3, #8, #8
 158:../../Middlewares/LVGL/GUI/lvgl/src/core/lv_obj_draw.c ****         draw_dsc->shadow_opa = LV_OPA_MIX2(draw_dsc->shadow_opa, opa);
 1080              		.loc 1 158 30 view .LVU228
 1081 0088 84F84830 		strb	r3, [r4, #72]
 159:../../Middlewares/LVGL/GUI/lvgl/src/core/lv_obj_draw.c ****         draw_dsc->outline_opa = LV_OPA_MIX2(draw_dsc->outline_opa, opa);
 1082              		.loc 1 159 9 is_stmt 1 view .LVU229
 159:../../Middlewares/LVGL/GUI/lvgl/src/core/lv_obj_draw.c ****         draw_dsc->outline_opa = LV_OPA_MIX2(draw_dsc->outline_opa, opa);
 1083              		.loc 1 159 32 is_stmt 0 view .LVU230
 1084 008c 94F86C30 		ldrb	r3, [r4, #108]	@ zero_extendqisi2
 1085 0090 06FB03F3 		mul	r3, r6, r3
 1086 0094 C3F30723 		ubfx	r3, r3, #8, #8
 159:../../Middlewares/LVGL/GUI/lvgl/src/core/lv_obj_draw.c ****         draw_dsc->outline_opa = LV_OPA_MIX2(draw_dsc->outline_opa, opa);
 1087              		.loc 1 159 30 view .LVU231
 1088 0098 84F86C30 		strb	r3, [r4, #108]
 160:../../Middlewares/LVGL/GUI/lvgl/src/core/lv_obj_draw.c ****     }
 1089              		.loc 1 160 9 is_stmt 1 view .LVU232
 160:../../Middlewares/LVGL/GUI/lvgl/src/core/lv_obj_draw.c ****     }
ARM GAS  C:\Users\28576\AppData\Local\Temp\cclWIAwm.s 			page 42


 1090              		.loc 1 160 33 is_stmt 0 view .LVU233
 1091 009c 94F85830 		ldrb	r3, [r4, #88]	@ zero_extendqisi2
 1092 00a0 03FB06F6 		mul	r6, r3, r6
 1093 00a4 C6F30726 		ubfx	r6, r6, #8, #8
 160:../../Middlewares/LVGL/GUI/lvgl/src/core/lv_obj_draw.c ****     }
 1094              		.loc 1 160 31 view .LVU234
 1095 00a8 84F85860 		strb	r6, [r4, #88]
 163:../../Middlewares/LVGL/GUI/lvgl/src/core/lv_obj_draw.c **** }
 1096              		.loc 1 163 25 is_stmt 1 view .LVU235
 1097              	.L40:
 164:../../Middlewares/LVGL/GUI/lvgl/src/core/lv_obj_draw.c **** 
 1098              		.loc 1 164 1 is_stmt 0 view .LVU236
 1099 00ac 07B0     		add	sp, sp, #28
 1100              	.LCFI44:
 1101              		.cfi_remember_state
 1102              		.cfi_def_cfa_offset 20
 1103              		@ sp needed
 1104 00ae F0BD     		pop	{r4, r5, r6, r7, pc}
 1105              	.LVL67:
 1106              	.L52:
 1107              	.LCFI45:
 1108              		.cfi_restore_state
  57:../../Middlewares/LVGL/GUI/lvgl/src/core/lv_obj_draw.c ****             draw_dsc->bg_image_opa = LV_OPA_TRANSP;
 1109              		.loc 1 57 13 is_stmt 1 view .LVU237
  57:../../Middlewares/LVGL/GUI/lvgl/src/core/lv_obj_draw.c ****             draw_dsc->bg_image_opa = LV_OPA_TRANSP;
 1110              		.loc 1 57 30 is_stmt 0 view .LVU238
 1111 00b0 0023     		movs	r3, #0
 1112 00b2 84F82030 		strb	r3, [r4, #32]
  58:../../Middlewares/LVGL/GUI/lvgl/src/core/lv_obj_draw.c ****             draw_dsc->border_opa = LV_OPA_TRANSP;
 1113              		.loc 1 58 13 is_stmt 1 view .LVU239
  58:../../Middlewares/LVGL/GUI/lvgl/src/core/lv_obj_draw.c ****             draw_dsc->border_opa = LV_OPA_TRANSP;
 1114              		.loc 1 58 36 is_stmt 0 view .LVU240
 1115 00b6 84F83B30 		strb	r3, [r4, #59]
  59:../../Middlewares/LVGL/GUI/lvgl/src/core/lv_obj_draw.c ****             draw_dsc->outline_opa = LV_OPA_TRANSP;
 1116              		.loc 1 59 13 is_stmt 1 view .LVU241
  59:../../Middlewares/LVGL/GUI/lvgl/src/core/lv_obj_draw.c ****             draw_dsc->outline_opa = LV_OPA_TRANSP;
 1117              		.loc 1 59 34 is_stmt 0 view .LVU242
 1118 00ba 84F84830 		strb	r3, [r4, #72]
  60:../../Middlewares/LVGL/GUI/lvgl/src/core/lv_obj_draw.c ****             draw_dsc->shadow_opa = LV_OPA_TRANSP;
 1119              		.loc 1 60 13 is_stmt 1 view .LVU243
  60:../../Middlewares/LVGL/GUI/lvgl/src/core/lv_obj_draw.c ****             draw_dsc->shadow_opa = LV_OPA_TRANSP;
 1120              		.loc 1 60 35 is_stmt 0 view .LVU244
 1121 00be 84F85830 		strb	r3, [r4, #88]
  61:../../Middlewares/LVGL/GUI/lvgl/src/core/lv_obj_draw.c ****             LV_PROFILER_DRAW_END;
 1122              		.loc 1 61 13 is_stmt 1 view .LVU245
  61:../../Middlewares/LVGL/GUI/lvgl/src/core/lv_obj_draw.c ****             LV_PROFILER_DRAW_END;
 1123              		.loc 1 61 34 is_stmt 0 view .LVU246
 1124 00c2 84F86C30 		strb	r3, [r4, #108]
  62:../../Middlewares/LVGL/GUI/lvgl/src/core/lv_obj_draw.c ****             return;
 1125              		.loc 1 62 33 is_stmt 1 view .LVU247
  63:../../Middlewares/LVGL/GUI/lvgl/src/core/lv_obj_draw.c ****         }
 1126              		.loc 1 63 13 view .LVU248
 1127 00c6 F1E7     		b	.L40
 1128              	.LVL68:
 1129              	.L53:
  70:../../Middlewares/LVGL/GUI/lvgl/src/core/lv_obj_draw.c ****         if(draw_dsc->bg_opa > LV_OPA_MIN) {
 1130              		.loc 1 70 9 view .LVU249
ARM GAS  C:\Users\28576\AppData\Local\Temp\cclWIAwm.s 			page 43


 1131              	.LBB123:
 1132              	.LBI123:
 232:../../Middlewares/LVGL/GUI/lvgl/src/core/lv_obj_style_gen.h **** {
 1133              		.loc 2 232 24 view .LVU250
 1134              	.LBB124:
 234:../../Middlewares/LVGL/GUI/lvgl/src/core/lv_obj_style_gen.h ****     return (lv_opa_t)v.num;
 1135              		.loc 2 234 5 view .LVU251
 234:../../Middlewares/LVGL/GUI/lvgl/src/core/lv_obj_style_gen.h ****     return (lv_opa_t)v.num;
 1136              		.loc 2 234 26 is_stmt 0 view .LVU252
 1137 00c8 1D22     		movs	r2, #29
 1138 00ca 2946     		mov	r1, r5
 1139 00cc 3846     		mov	r0, r7
 1140 00ce FFF7FEFF 		bl	lv_obj_get_style_prop
 1141              	.LVL69:
 1142 00d2 0590     		str	r0, [sp, #20]
 235:../../Middlewares/LVGL/GUI/lvgl/src/core/lv_obj_style_gen.h **** }
 1143              		.loc 2 235 5 is_stmt 1 view .LVU253
 235:../../Middlewares/LVGL/GUI/lvgl/src/core/lv_obj_style_gen.h **** }
 1144              		.loc 2 235 12 is_stmt 0 view .LVU254
 1145 00d4 C0B2     		uxtb	r0, r0
 1146              	.LVL70:
 235:../../Middlewares/LVGL/GUI/lvgl/src/core/lv_obj_style_gen.h **** }
 1147              		.loc 2 235 12 view .LVU255
 1148              	.LBE124:
 1149              	.LBE123:
  70:../../Middlewares/LVGL/GUI/lvgl/src/core/lv_obj_draw.c ****         if(draw_dsc->bg_opa > LV_OPA_MIN) {
 1150              		.loc 1 70 26 discriminator 1 view .LVU256
 1151 00d6 84F82000 		strb	r0, [r4, #32]
  71:../../Middlewares/LVGL/GUI/lvgl/src/core/lv_obj_draw.c ****             lv_color_t bg_color = lv_obj_get_style_bg_color_filtered(obj, part);
 1152              		.loc 1 71 9 is_stmt 1 view .LVU257
  71:../../Middlewares/LVGL/GUI/lvgl/src/core/lv_obj_draw.c ****             lv_color_t bg_color = lv_obj_get_style_bg_color_filtered(obj, part);
 1153              		.loc 1 71 11 is_stmt 0 view .LVU258
 1154 00da 0228     		cmp	r0, #2
 1155 00dc A8D9     		bls	.L43
 1156              	.LBB125:
  72:../../Middlewares/LVGL/GUI/lvgl/src/core/lv_obj_draw.c ****             draw_dsc->bg_color = normal_apply_layer_recolor(obj, part, &draw_dsc->base, bg_color);
 1157              		.loc 1 72 13 is_stmt 1 view .LVU259
  72:../../Middlewares/LVGL/GUI/lvgl/src/core/lv_obj_draw.c ****             draw_dsc->bg_color = normal_apply_layer_recolor(obj, part, &draw_dsc->base, bg_color);
 1158              		.loc 1 72 35 is_stmt 0 view .LVU260
 1159 00de 2946     		mov	r1, r5
 1160 00e0 3846     		mov	r0, r7
 1161 00e2 FFF7FEFF 		bl	lv_obj_get_style_bg_color_filtered
 1162              	.LVL71:
 1163 00e6 8DF80C00 		strb	r0, [sp, #12]
 1164 00ea C0F30723 		ubfx	r3, r0, #8, #8
 1165 00ee 8DF80D30 		strb	r3, [sp, #13]
 1166 00f2 C0F30740 		ubfx	r0, r0, #16, #8
 1167 00f6 8DF80E00 		strb	r0, [sp, #14]
  73:../../Middlewares/LVGL/GUI/lvgl/src/core/lv_obj_draw.c ****             const lv_grad_dsc_t * grad = lv_obj_get_style_bg_grad(obj, part);
 1168              		.loc 1 73 13 is_stmt 1 view .LVU261
  73:../../Middlewares/LVGL/GUI/lvgl/src/core/lv_obj_draw.c ****             const lv_grad_dsc_t * grad = lv_obj_get_style_bg_grad(obj, part);
 1169              		.loc 1 73 34 is_stmt 0 view .LVU262
 1170 00fa 039B     		ldr	r3, [sp, #12]
 1171 00fc 2246     		mov	r2, r4
 1172 00fe 2946     		mov	r1, r5
 1173 0100 3846     		mov	r0, r7
 1174 0102 FFF7FEFF 		bl	normal_apply_layer_recolor
ARM GAS  C:\Users\28576\AppData\Local\Temp\cclWIAwm.s 			page 44


 1175              	.LVL72:
 1176 0106 84F82100 		strb	r0, [r4, #33]
 1177 010a C0F30723 		ubfx	r3, r0, #8, #8
 1178 010e 84F82230 		strb	r3, [r4, #34]
 1179 0112 C0F30740 		ubfx	r0, r0, #16, #8
 1180 0116 84F82300 		strb	r0, [r4, #35]
  74:../../Middlewares/LVGL/GUI/lvgl/src/core/lv_obj_draw.c ****             if(grad && grad->dir != LV_GRAD_DIR_NONE) {
 1181              		.loc 1 74 13 is_stmt 1 view .LVU263
 1182              	.LVL73:
 1183              	.LBB126:
 1184              	.LBI126:
 280:../../Middlewares/LVGL/GUI/lvgl/src/core/lv_obj_style_gen.h **** {
 1185              		.loc 2 280 37 view .LVU264
 1186              	.LBB127:
 282:../../Middlewares/LVGL/GUI/lvgl/src/core/lv_obj_style_gen.h ****     return (const lv_grad_dsc_t *)v.ptr;
 1187              		.loc 2 282 5 view .LVU265
 282:../../Middlewares/LVGL/GUI/lvgl/src/core/lv_obj_style_gen.h ****     return (const lv_grad_dsc_t *)v.ptr;
 1188              		.loc 2 282 26 is_stmt 0 view .LVU266
 1189 011a 2622     		movs	r2, #38
 1190 011c 2946     		mov	r1, r5
 1191 011e 3846     		mov	r0, r7
 1192 0120 FFF7FEFF 		bl	lv_obj_get_style_prop
 1193              	.LVL74:
 1194 0124 0590     		str	r0, [sp, #20]
 283:../../Middlewares/LVGL/GUI/lvgl/src/core/lv_obj_style_gen.h **** }
 1195              		.loc 2 283 5 is_stmt 1 view .LVU267
 1196              	.LVL75:
 283:../../Middlewares/LVGL/GUI/lvgl/src/core/lv_obj_style_gen.h **** }
 1197              		.loc 2 283 5 is_stmt 0 view .LVU268
 1198              	.LBE127:
 1199              	.LBE126:
  75:../../Middlewares/LVGL/GUI/lvgl/src/core/lv_obj_draw.c ****                 lv_memcpy(&draw_dsc->bg_grad, grad, sizeof(*grad));
 1200              		.loc 1 75 13 is_stmt 1 view .LVU269
  75:../../Middlewares/LVGL/GUI/lvgl/src/core/lv_obj_draw.c ****                 lv_memcpy(&draw_dsc->bg_grad, grad, sizeof(*grad));
 1201              		.loc 1 75 15 is_stmt 0 view .LVU270
 1202 0126 18B1     		cbz	r0, .L44
  75:../../Middlewares/LVGL/GUI/lvgl/src/core/lv_obj_draw.c ****                 lv_memcpy(&draw_dsc->bg_grad, grad, sizeof(*grad));
 1203              		.loc 1 75 34 discriminator 1 view .LVU271
 1204 0128 C37A     		ldrb	r3, [r0, #11]	@ zero_extendqisi2
  75:../../Middlewares/LVGL/GUI/lvgl/src/core/lv_obj_draw.c ****                 lv_memcpy(&draw_dsc->bg_grad, grad, sizeof(*grad));
 1205              		.loc 1 75 21 discriminator 1 view .LVU272
 1206 012a 13F00F0F 		tst	r3, #15
 1207 012e 56D1     		bne	.L58
 1208              	.L44:
  79:../../Middlewares/LVGL/GUI/lvgl/src/core/lv_obj_draw.c ****                 if(draw_dsc->bg_grad.dir != LV_GRAD_DIR_NONE) {
 1209              		.loc 1 79 17 is_stmt 1 view .LVU273
 1210              	.LVL76:
 1211              	.LBB128:
 1212              	.LBI128:
 250:../../Middlewares/LVGL/GUI/lvgl/src/core/lv_obj_style_gen.h **** {
 1213              		.loc 2 250 29 view .LVU274
 1214              	.LBB129:
 252:../../Middlewares/LVGL/GUI/lvgl/src/core/lv_obj_style_gen.h ****     return (lv_grad_dir_t)v.num;
 1215              		.loc 2 252 5 view .LVU275
 252:../../Middlewares/LVGL/GUI/lvgl/src/core/lv_obj_style_gen.h ****     return (lv_grad_dir_t)v.num;
 1216              		.loc 2 252 26 is_stmt 0 view .LVU276
 1217 0130 2022     		movs	r2, #32
ARM GAS  C:\Users\28576\AppData\Local\Temp\cclWIAwm.s 			page 45


 1218 0132 2946     		mov	r1, r5
 1219 0134 3846     		mov	r0, r7
 1220              	.LVL77:
 252:../../Middlewares/LVGL/GUI/lvgl/src/core/lv_obj_style_gen.h ****     return (lv_grad_dir_t)v.num;
 1221              		.loc 2 252 26 view .LVU277
 1222 0136 FFF7FEFF 		bl	lv_obj_get_style_prop
 1223              	.LVL78:
 252:../../Middlewares/LVGL/GUI/lvgl/src/core/lv_obj_style_gen.h ****     return (lv_grad_dir_t)v.num;
 1224              		.loc 2 252 26 view .LVU278
 1225 013a 0590     		str	r0, [sp, #20]
 253:../../Middlewares/LVGL/GUI/lvgl/src/core/lv_obj_style_gen.h **** }
 1226              		.loc 2 253 5 is_stmt 1 view .LVU279
 1227              	.LVL79:
 253:../../Middlewares/LVGL/GUI/lvgl/src/core/lv_obj_style_gen.h **** }
 1228              		.loc 2 253 5 is_stmt 0 view .LVU280
 1229              	.LBE129:
 1230              	.LBE128:
  79:../../Middlewares/LVGL/GUI/lvgl/src/core/lv_obj_draw.c ****                 if(draw_dsc->bg_grad.dir != LV_GRAD_DIR_NONE) {
 1231              		.loc 1 79 39 discriminator 1 view .LVU281
 1232 013c 94F82F30 		ldrb	r3, [r4, #47]	@ zero_extendqisi2
 1233 0140 60F30303 		bfi	r3, r0, #0, #4
 1234 0144 84F82F30 		strb	r3, [r4, #47]
  80:../../Middlewares/LVGL/GUI/lvgl/src/core/lv_obj_draw.c ****                     draw_dsc->bg_grad.stops[0].color = draw_dsc->bg_color;
 1235              		.loc 1 80 17 is_stmt 1 view .LVU282
  80:../../Middlewares/LVGL/GUI/lvgl/src/core/lv_obj_draw.c ****                     draw_dsc->bg_grad.stops[0].color = draw_dsc->bg_color;
 1236              		.loc 1 80 42 is_stmt 0 view .LVU283
 1237 0148 DBB2     		uxtb	r3, r3
  80:../../Middlewares/LVGL/GUI/lvgl/src/core/lv_obj_draw.c ****                     draw_dsc->bg_grad.stops[0].color = draw_dsc->bg_color;
 1238              		.loc 1 80 19 view .LVU284
 1239 014a 13F00F0F 		tst	r3, #15
 1240 014e 3FF46FAF 		beq	.L43
 1241              	.LBB130:
  81:../../Middlewares/LVGL/GUI/lvgl/src/core/lv_obj_draw.c ****                     lv_color_t bg_grad_color = lv_obj_get_style_bg_grad_color_filtered(obj, part);
 1242              		.loc 1 81 21 is_stmt 1 view .LVU285
  81:../../Middlewares/LVGL/GUI/lvgl/src/core/lv_obj_draw.c ****                     lv_color_t bg_grad_color = lv_obj_get_style_bg_grad_color_filtered(obj, part);
 1243              		.loc 1 81 54 is_stmt 0 view .LVU286
 1244 0152 B4F82120 		ldrh	r2, [r4, #33]	@ unaligned
 1245 0156 94F82330 		ldrb	r3, [r4, #35]	@ zero_extendqisi2
 1246 015a A284     		strh	r2, [r4, #36]	@ unaligned
 1247 015c 84F82630 		strb	r3, [r4, #38]
  82:../../Middlewares/LVGL/GUI/lvgl/src/core/lv_obj_draw.c ****                     draw_dsc->bg_grad.stops[1].color = normal_apply_layer_recolor(obj, part, &draw_
 1248              		.loc 1 82 21 is_stmt 1 view .LVU287
  82:../../Middlewares/LVGL/GUI/lvgl/src/core/lv_obj_draw.c ****                     draw_dsc->bg_grad.stops[1].color = normal_apply_layer_recolor(obj, part, &draw_
 1249              		.loc 1 82 48 is_stmt 0 view .LVU288
 1250 0160 2946     		mov	r1, r5
 1251 0162 3846     		mov	r0, r7
 1252 0164 FFF7FEFF 		bl	lv_obj_get_style_bg_grad_color_filtered
 1253              	.LVL80:
 1254 0168 8DF81000 		strb	r0, [sp, #16]
 1255 016c C0F30723 		ubfx	r3, r0, #8, #8
 1256 0170 8DF81130 		strb	r3, [sp, #17]
 1257 0174 C0F30740 		ubfx	r0, r0, #16, #8
 1258 0178 8DF81200 		strb	r0, [sp, #18]
  83:../../Middlewares/LVGL/GUI/lvgl/src/core/lv_obj_draw.c ****                     draw_dsc->bg_grad.stops[0].frac = lv_obj_get_style_bg_main_stop(obj, part);
 1259              		.loc 1 83 21 is_stmt 1 view .LVU289
  83:../../Middlewares/LVGL/GUI/lvgl/src/core/lv_obj_draw.c ****                     draw_dsc->bg_grad.stops[0].frac = lv_obj_get_style_bg_main_stop(obj, part);
 1260              		.loc 1 83 56 is_stmt 0 view .LVU290
ARM GAS  C:\Users\28576\AppData\Local\Temp\cclWIAwm.s 			page 46


 1261 017c 049B     		ldr	r3, [sp, #16]
 1262 017e 2246     		mov	r2, r4
 1263 0180 2946     		mov	r1, r5
 1264 0182 3846     		mov	r0, r7
 1265 0184 FFF7FEFF 		bl	normal_apply_layer_recolor
 1266              	.LVL81:
 1267 0188 84F82900 		strb	r0, [r4, #41]
 1268 018c C0F30723 		ubfx	r3, r0, #8, #8
 1269 0190 84F82A30 		strb	r3, [r4, #42]
 1270 0194 C0F30740 		ubfx	r0, r0, #16, #8
 1271 0198 84F82B00 		strb	r0, [r4, #43]
  84:../../Middlewares/LVGL/GUI/lvgl/src/core/lv_obj_draw.c ****                     draw_dsc->bg_grad.stops[1].frac = lv_obj_get_style_bg_grad_stop(obj, part);
 1272              		.loc 1 84 21 is_stmt 1 view .LVU291
 1273              	.LVL82:
 1274              	.LBB131:
 1275              	.LBI131:
 256:../../Middlewares/LVGL/GUI/lvgl/src/core/lv_obj_style_gen.h **** {
 1276              		.loc 2 256 23 view .LVU292
 1277              	.LBB132:
 258:../../Middlewares/LVGL/GUI/lvgl/src/core/lv_obj_style_gen.h ****     return (int32_t)v.num;
 1278              		.loc 2 258 5 view .LVU293
 258:../../Middlewares/LVGL/GUI/lvgl/src/core/lv_obj_style_gen.h ****     return (int32_t)v.num;
 1279              		.loc 2 258 26 is_stmt 0 view .LVU294
 1280 019c 2122     		movs	r2, #33
 1281 019e 2946     		mov	r1, r5
 1282 01a0 3846     		mov	r0, r7
 1283 01a2 FFF7FEFF 		bl	lv_obj_get_style_prop
 1284              	.LVL83:
 1285 01a6 0590     		str	r0, [sp, #20]
 259:../../Middlewares/LVGL/GUI/lvgl/src/core/lv_obj_style_gen.h **** }
 1286              		.loc 2 259 5 is_stmt 1 view .LVU295
 1287              	.LVL84:
 259:../../Middlewares/LVGL/GUI/lvgl/src/core/lv_obj_style_gen.h **** }
 1288              		.loc 2 259 5 is_stmt 0 view .LVU296
 1289              	.LBE132:
 1290              	.LBE131:
  84:../../Middlewares/LVGL/GUI/lvgl/src/core/lv_obj_draw.c ****                     draw_dsc->bg_grad.stops[1].frac = lv_obj_get_style_bg_grad_stop(obj, part);
 1291              		.loc 1 84 53 discriminator 1 view .LVU297
 1292 01a8 84F82800 		strb	r0, [r4, #40]
  85:../../Middlewares/LVGL/GUI/lvgl/src/core/lv_obj_draw.c ****                     draw_dsc->bg_grad.stops[0].opa = lv_obj_get_style_bg_main_opa(obj, part);
 1293              		.loc 1 85 21 is_stmt 1 view .LVU298
 1294              	.LVL85:
 1295              	.LBB133:
 1296              	.LBI133:
 262:../../Middlewares/LVGL/GUI/lvgl/src/core/lv_obj_style_gen.h **** {
 1297              		.loc 2 262 23 view .LVU299
 1298              	.LBB134:
 264:../../Middlewares/LVGL/GUI/lvgl/src/core/lv_obj_style_gen.h ****     return (int32_t)v.num;
 1299              		.loc 2 264 5 view .LVU300
 264:../../Middlewares/LVGL/GUI/lvgl/src/core/lv_obj_style_gen.h ****     return (int32_t)v.num;
 1300              		.loc 2 264 26 is_stmt 0 view .LVU301
 1301 01ac 2222     		movs	r2, #34
 1302 01ae 2946     		mov	r1, r5
 1303 01b0 3846     		mov	r0, r7
 1304 01b2 FFF7FEFF 		bl	lv_obj_get_style_prop
 1305              	.LVL86:
 1306 01b6 0590     		str	r0, [sp, #20]
ARM GAS  C:\Users\28576\AppData\Local\Temp\cclWIAwm.s 			page 47


 265:../../Middlewares/LVGL/GUI/lvgl/src/core/lv_obj_style_gen.h **** }
 1307              		.loc 2 265 5 is_stmt 1 view .LVU302
 1308              	.LVL87:
 265:../../Middlewares/LVGL/GUI/lvgl/src/core/lv_obj_style_gen.h **** }
 1309              		.loc 2 265 5 is_stmt 0 view .LVU303
 1310              	.LBE134:
 1311              	.LBE133:
  85:../../Middlewares/LVGL/GUI/lvgl/src/core/lv_obj_draw.c ****                     draw_dsc->bg_grad.stops[0].opa = lv_obj_get_style_bg_main_opa(obj, part);
 1312              		.loc 1 85 53 discriminator 1 view .LVU304
 1313 01b8 84F82D00 		strb	r0, [r4, #45]
  86:../../Middlewares/LVGL/GUI/lvgl/src/core/lv_obj_draw.c ****                     draw_dsc->bg_grad.stops[1].opa = lv_obj_get_style_bg_grad_opa(obj, part);
 1314              		.loc 1 86 21 is_stmt 1 view .LVU305
 1315              	.LVL88:
 1316              	.LBB135:
 1317              	.LBI135:
 268:../../Middlewares/LVGL/GUI/lvgl/src/core/lv_obj_style_gen.h **** {
 1318              		.loc 2 268 24 view .LVU306
 1319              	.LBB136:
 270:../../Middlewares/LVGL/GUI/lvgl/src/core/lv_obj_style_gen.h ****     return (lv_opa_t)v.num;
 1320              		.loc 2 270 5 view .LVU307
 270:../../Middlewares/LVGL/GUI/lvgl/src/core/lv_obj_style_gen.h ****     return (lv_opa_t)v.num;
 1321              		.loc 2 270 26 is_stmt 0 view .LVU308
 1322 01bc 2422     		movs	r2, #36
 1323 01be 2946     		mov	r1, r5
 1324 01c0 3846     		mov	r0, r7
 1325 01c2 FFF7FEFF 		bl	lv_obj_get_style_prop
 1326              	.LVL89:
 1327 01c6 0590     		str	r0, [sp, #20]
 271:../../Middlewares/LVGL/GUI/lvgl/src/core/lv_obj_style_gen.h **** }
 1328              		.loc 2 271 5 is_stmt 1 view .LVU309
 1329              	.LVL90:
 271:../../Middlewares/LVGL/GUI/lvgl/src/core/lv_obj_style_gen.h **** }
 1330              		.loc 2 271 5 is_stmt 0 view .LVU310
 1331              	.LBE136:
 1332              	.LBE135:
  86:../../Middlewares/LVGL/GUI/lvgl/src/core/lv_obj_draw.c ****                     draw_dsc->bg_grad.stops[1].opa = lv_obj_get_style_bg_grad_opa(obj, part);
 1333              		.loc 1 86 52 discriminator 1 view .LVU311
 1334 01c8 84F82700 		strb	r0, [r4, #39]
  87:../../Middlewares/LVGL/GUI/lvgl/src/core/lv_obj_draw.c ****                 }
 1335              		.loc 1 87 21 is_stmt 1 view .LVU312
 1336              	.LVL91:
 1337              	.LBB137:
 1338              	.LBI137:
 274:../../Middlewares/LVGL/GUI/lvgl/src/core/lv_obj_style_gen.h **** {
 1339              		.loc 2 274 24 view .LVU313
 1340              	.LBB138:
 276:../../Middlewares/LVGL/GUI/lvgl/src/core/lv_obj_style_gen.h ****     return (lv_opa_t)v.num;
 1341              		.loc 2 276 5 view .LVU314
 276:../../Middlewares/LVGL/GUI/lvgl/src/core/lv_obj_style_gen.h ****     return (lv_opa_t)v.num;
 1342              		.loc 2 276 26 is_stmt 0 view .LVU315
 1343 01cc 2522     		movs	r2, #37
 1344 01ce 2946     		mov	r1, r5
 1345 01d0 3846     		mov	r0, r7
 1346 01d2 FFF7FEFF 		bl	lv_obj_get_style_prop
 1347              	.LVL92:
 1348 01d6 0590     		str	r0, [sp, #20]
 277:../../Middlewares/LVGL/GUI/lvgl/src/core/lv_obj_style_gen.h **** }
ARM GAS  C:\Users\28576\AppData\Local\Temp\cclWIAwm.s 			page 48


 1349              		.loc 2 277 5 is_stmt 1 view .LVU316
 1350              	.LVL93:
 277:../../Middlewares/LVGL/GUI/lvgl/src/core/lv_obj_style_gen.h **** }
 1351              		.loc 2 277 5 is_stmt 0 view .LVU317
 1352              	.LBE138:
 1353              	.LBE137:
  87:../../Middlewares/LVGL/GUI/lvgl/src/core/lv_obj_draw.c ****                 }
 1354              		.loc 1 87 52 discriminator 1 view .LVU318
 1355 01d8 84F82C00 		strb	r0, [r4, #44]
 1356 01dc 28E7     		b	.L43
 1357              	.LVL94:
 1358              	.L58:
  87:../../Middlewares/LVGL/GUI/lvgl/src/core/lv_obj_draw.c ****                 }
 1359              		.loc 1 87 52 discriminator 1 view .LVU319
 1360              	.LBE130:
  76:../../Middlewares/LVGL/GUI/lvgl/src/core/lv_obj_draw.c ****             }
 1361              		.loc 1 76 17 is_stmt 1 view .LVU320
 1362 01de 0C22     		movs	r2, #12
 1363 01e0 0146     		mov	r1, r0
 1364 01e2 04F12400 		add	r0, r4, #36
 1365              	.LVL95:
  76:../../Middlewares/LVGL/GUI/lvgl/src/core/lv_obj_draw.c ****             }
 1366              		.loc 1 76 17 is_stmt 0 view .LVU321
 1367 01e6 FFF7FEFF 		bl	lv_memcpy
 1368              	.LVL96:
  76:../../Middlewares/LVGL/GUI/lvgl/src/core/lv_obj_draw.c ****             }
 1369              		.loc 1 76 17 view .LVU322
 1370 01ea 21E7     		b	.L43
 1371              	.LVL97:
 1372              	.L54:
  76:../../Middlewares/LVGL/GUI/lvgl/src/core/lv_obj_draw.c ****             }
 1373              		.loc 1 76 17 view .LVU323
 1374              	.LBE125:
  94:../../Middlewares/LVGL/GUI/lvgl/src/core/lv_obj_draw.c ****         if(draw_dsc->border_width) {
 1375              		.loc 1 94 9 is_stmt 1 view .LVU324
 1376              	.LBB139:
 1377              	.LBI139:
 340:../../Middlewares/LVGL/GUI/lvgl/src/core/lv_obj_style_gen.h **** {
 1378              		.loc 2 340 23 view .LVU325
 1379              	.LBB140:
 342:../../Middlewares/LVGL/GUI/lvgl/src/core/lv_obj_style_gen.h ****     return (int32_t)v.num;
 1380              		.loc 2 342 5 view .LVU326
 342:../../Middlewares/LVGL/GUI/lvgl/src/core/lv_obj_style_gen.h ****     return (int32_t)v.num;
 1381              		.loc 2 342 26 is_stmt 0 view .LVU327
 1382 01ec 3022     		movs	r2, #48
 1383 01ee 2946     		mov	r1, r5
 1384 01f0 3846     		mov	r0, r7
 1385 01f2 FFF7FEFF 		bl	lv_obj_get_style_prop
 1386              	.LVL98:
 1387 01f6 0590     		str	r0, [sp, #20]
 343:../../Middlewares/LVGL/GUI/lvgl/src/core/lv_obj_style_gen.h **** }
 1388              		.loc 2 343 5 is_stmt 1 view .LVU328
 1389              	.LVL99:
 343:../../Middlewares/LVGL/GUI/lvgl/src/core/lv_obj_style_gen.h **** }
 1390              		.loc 2 343 5 is_stmt 0 view .LVU329
 1391              	.LBE140:
 1392              	.LBE139:
ARM GAS  C:\Users\28576\AppData\Local\Temp\cclWIAwm.s 			page 49


  94:../../Middlewares/LVGL/GUI/lvgl/src/core/lv_obj_draw.c ****         if(draw_dsc->border_width) {
 1393              		.loc 1 94 32 discriminator 1 view .LVU330
 1394 01f8 6064     		str	r0, [r4, #68]
  95:../../Middlewares/LVGL/GUI/lvgl/src/core/lv_obj_draw.c ****             draw_dsc->border_opa = lv_obj_get_style_border_opa(obj, part);
 1395              		.loc 1 95 9 is_stmt 1 view .LVU331
  95:../../Middlewares/LVGL/GUI/lvgl/src/core/lv_obj_draw.c ****             draw_dsc->border_opa = lv_obj_get_style_border_opa(obj, part);
 1396              		.loc 1 95 11 is_stmt 0 view .LVU332
 1397 01fa 0028     		cmp	r0, #0
 1398 01fc 3FF41DAF 		beq	.L46
  96:../../Middlewares/LVGL/GUI/lvgl/src/core/lv_obj_draw.c ****             if(draw_dsc->border_opa > LV_OPA_MIN) {
 1399              		.loc 1 96 13 is_stmt 1 view .LVU333
 1400              	.LVL100:
 1401              	.LBB141:
 1402              	.LBI141:
 334:../../Middlewares/LVGL/GUI/lvgl/src/core/lv_obj_style_gen.h **** {
 1403              		.loc 2 334 24 view .LVU334
 1404              	.LBB142:
 336:../../Middlewares/LVGL/GUI/lvgl/src/core/lv_obj_style_gen.h ****     return (lv_opa_t)v.num;
 1405              		.loc 2 336 5 view .LVU335
 336:../../Middlewares/LVGL/GUI/lvgl/src/core/lv_obj_style_gen.h ****     return (lv_opa_t)v.num;
 1406              		.loc 2 336 26 is_stmt 0 view .LVU336
 1407 0200 3222     		movs	r2, #50
 1408 0202 2946     		mov	r1, r5
 1409 0204 3846     		mov	r0, r7
 1410 0206 FFF7FEFF 		bl	lv_obj_get_style_prop
 1411              	.LVL101:
 1412 020a 0590     		str	r0, [sp, #20]
 337:../../Middlewares/LVGL/GUI/lvgl/src/core/lv_obj_style_gen.h **** }
 1413              		.loc 2 337 5 is_stmt 1 view .LVU337
 337:../../Middlewares/LVGL/GUI/lvgl/src/core/lv_obj_style_gen.h **** }
 1414              		.loc 2 337 12 is_stmt 0 view .LVU338
 1415 020c C0B2     		uxtb	r0, r0
 1416              	.LVL102:
 337:../../Middlewares/LVGL/GUI/lvgl/src/core/lv_obj_style_gen.h **** }
 1417              		.loc 2 337 12 view .LVU339
 1418              	.LBE142:
 1419              	.LBE141:
  96:../../Middlewares/LVGL/GUI/lvgl/src/core/lv_obj_draw.c ****             if(draw_dsc->border_opa > LV_OPA_MIN) {
 1420              		.loc 1 96 34 discriminator 1 view .LVU340
 1421 020e 84F84800 		strb	r0, [r4, #72]
  97:../../Middlewares/LVGL/GUI/lvgl/src/core/lv_obj_draw.c ****                 draw_dsc->border_side = lv_obj_get_style_border_side(obj, part);
 1422              		.loc 1 97 13 is_stmt 1 view .LVU341
  97:../../Middlewares/LVGL/GUI/lvgl/src/core/lv_obj_draw.c ****                 draw_dsc->border_side = lv_obj_get_style_border_side(obj, part);
 1423              		.loc 1 97 15 is_stmt 0 view .LVU342
 1424 0212 0228     		cmp	r0, #2
 1425 0214 7FF611AF 		bls	.L46
 1426              	.LBB143:
  98:../../Middlewares/LVGL/GUI/lvgl/src/core/lv_obj_draw.c ****                 lv_color_t border_color = lv_obj_get_style_border_color_filtered(obj, part);
 1427              		.loc 1 98 17 is_stmt 1 view .LVU343
 1428              	.LVL103:
 1429              	.LBB144:
 1430              	.LBI144:
 346:../../Middlewares/LVGL/GUI/lvgl/src/core/lv_obj_style_gen.h **** {
 1431              		.loc 2 346 32 view .LVU344
 1432              	.LBB145:
 348:../../Middlewares/LVGL/GUI/lvgl/src/core/lv_obj_style_gen.h ****     return (lv_border_side_t)v.num;
 1433              		.loc 2 348 5 view .LVU345
ARM GAS  C:\Users\28576\AppData\Local\Temp\cclWIAwm.s 			page 50


 348:../../Middlewares/LVGL/GUI/lvgl/src/core/lv_obj_style_gen.h ****     return (lv_border_side_t)v.num;
 1434              		.loc 2 348 26 is_stmt 0 view .LVU346
 1435 0218 3422     		movs	r2, #52
 1436 021a 2946     		mov	r1, r5
 1437 021c 3846     		mov	r0, r7
 1438 021e FFF7FEFF 		bl	lv_obj_get_style_prop
 1439              	.LVL104:
 1440 0222 0590     		str	r0, [sp, #20]
 349:../../Middlewares/LVGL/GUI/lvgl/src/core/lv_obj_style_gen.h **** }
 1441              		.loc 2 349 5 is_stmt 1 view .LVU347
 1442              	.LVL105:
 349:../../Middlewares/LVGL/GUI/lvgl/src/core/lv_obj_style_gen.h **** }
 1443              		.loc 2 349 5 is_stmt 0 view .LVU348
 1444              	.LBE145:
 1445              	.LBE144:
  98:../../Middlewares/LVGL/GUI/lvgl/src/core/lv_obj_draw.c ****                 lv_color_t border_color = lv_obj_get_style_border_color_filtered(obj, part);
 1446              		.loc 1 98 39 discriminator 1 view .LVU349
 1447 0224 94F84930 		ldrb	r3, [r4, #73]	@ zero_extendqisi2
 1448 0228 60F30403 		bfi	r3, r0, #0, #5
 1449 022c 84F84930 		strb	r3, [r4, #73]
  99:../../Middlewares/LVGL/GUI/lvgl/src/core/lv_obj_draw.c ****                 draw_dsc->border_color = normal_apply_layer_recolor(obj, part, &draw_dsc->base, bor
 1450              		.loc 1 99 17 is_stmt 1 view .LVU350
  99:../../Middlewares/LVGL/GUI/lvgl/src/core/lv_obj_draw.c ****                 draw_dsc->border_color = normal_apply_layer_recolor(obj, part, &draw_dsc->base, bor
 1451              		.loc 1 99 43 is_stmt 0 view .LVU351
 1452 0230 2946     		mov	r1, r5
 1453 0232 3846     		mov	r0, r7
 1454 0234 FFF7FEFF 		bl	lv_obj_get_style_border_color_filtered
 1455              	.LVL106:
 1456 0238 8DF81400 		strb	r0, [sp, #20]
 1457 023c C0F30723 		ubfx	r3, r0, #8, #8
 1458 0240 8DF81530 		strb	r3, [sp, #21]
 1459 0244 C0F30740 		ubfx	r0, r0, #16, #8
 1460 0248 8DF81600 		strb	r0, [sp, #22]
 100:../../Middlewares/LVGL/GUI/lvgl/src/core/lv_obj_draw.c ****             }
 1461              		.loc 1 100 17 is_stmt 1 view .LVU352
 100:../../Middlewares/LVGL/GUI/lvgl/src/core/lv_obj_draw.c ****             }
 1462              		.loc 1 100 42 is_stmt 0 view .LVU353
 1463 024c 059B     		ldr	r3, [sp, #20]
 1464 024e 2246     		mov	r2, r4
 1465 0250 2946     		mov	r1, r5
 1466 0252 3846     		mov	r0, r7
 1467 0254 FFF7FEFF 		bl	normal_apply_layer_recolor
 1468              	.LVL107:
 1469 0258 84F83E00 		strb	r0, [r4, #62]
 1470 025c C0F30723 		ubfx	r3, r0, #8, #8
 1471 0260 84F83F30 		strb	r3, [r4, #63]
 1472 0264 C0F30740 		ubfx	r0, r0, #16, #8
 1473 0268 84F84000 		strb	r0, [r4, #64]
 1474 026c E5E6     		b	.L46
 1475              	.L55:
 100:../../Middlewares/LVGL/GUI/lvgl/src/core/lv_obj_draw.c ****             }
 1476              		.loc 1 100 42 view .LVU354
 1477              	.LBE143:
 106:../../Middlewares/LVGL/GUI/lvgl/src/core/lv_obj_draw.c ****         if(draw_dsc->outline_width) {
 1478              		.loc 1 106 9 is_stmt 1 view .LVU355
 1479              	.LVL108:
 1480              	.LBB146:
ARM GAS  C:\Users\28576\AppData\Local\Temp\cclWIAwm.s 			page 51


 1481              	.LBI146:
 358:../../Middlewares/LVGL/GUI/lvgl/src/core/lv_obj_style_gen.h **** {
 1482              		.loc 2 358 23 view .LVU356
 1483              	.LBB147:
 360:../../Middlewares/LVGL/GUI/lvgl/src/core/lv_obj_style_gen.h ****     return (int32_t)v.num;
 1484              		.loc 2 360 5 view .LVU357
 360:../../Middlewares/LVGL/GUI/lvgl/src/core/lv_obj_style_gen.h ****     return (int32_t)v.num;
 1485              		.loc 2 360 26 is_stmt 0 view .LVU358
 1486 026e 3822     		movs	r2, #56
 1487 0270 2946     		mov	r1, r5
 1488 0272 3846     		mov	r0, r7
 1489 0274 FFF7FEFF 		bl	lv_obj_get_style_prop
 1490              	.LVL109:
 1491 0278 0590     		str	r0, [sp, #20]
 361:../../Middlewares/LVGL/GUI/lvgl/src/core/lv_obj_style_gen.h **** }
 1492              		.loc 2 361 5 is_stmt 1 view .LVU359
 1493              	.LVL110:
 361:../../Middlewares/LVGL/GUI/lvgl/src/core/lv_obj_style_gen.h **** }
 1494              		.loc 2 361 5 is_stmt 0 view .LVU360
 1495              	.LBE147:
 1496              	.LBE146:
 106:../../Middlewares/LVGL/GUI/lvgl/src/core/lv_obj_draw.c ****         if(draw_dsc->outline_width) {
 1497              		.loc 1 106 33 discriminator 1 view .LVU361
 1498 027a 2065     		str	r0, [r4, #80]
 107:../../Middlewares/LVGL/GUI/lvgl/src/core/lv_obj_draw.c ****             draw_dsc->outline_opa = lv_obj_get_style_outline_opa(obj, part);
 1499              		.loc 1 107 9 is_stmt 1 view .LVU362
 107:../../Middlewares/LVGL/GUI/lvgl/src/core/lv_obj_draw.c ****             draw_dsc->outline_opa = lv_obj_get_style_outline_opa(obj, part);
 1500              		.loc 1 107 11 is_stmt 0 view .LVU363
 1501 027c 0028     		cmp	r0, #0
 1502 027e 3FF4E1AE 		beq	.L47
 108:../../Middlewares/LVGL/GUI/lvgl/src/core/lv_obj_draw.c ****             if(draw_dsc->outline_opa > LV_OPA_MIN) {
 1503              		.loc 1 108 13 is_stmt 1 view .LVU364
 1504              	.LVL111:
 1505              	.LBB148:
 1506              	.LBI148:
 376:../../Middlewares/LVGL/GUI/lvgl/src/core/lv_obj_style_gen.h **** {
 1507              		.loc 2 376 24 view .LVU365
 1508              	.LBB149:
 378:../../Middlewares/LVGL/GUI/lvgl/src/core/lv_obj_style_gen.h ****     return (lv_opa_t)v.num;
 1509              		.loc 2 378 5 view .LVU366
 378:../../Middlewares/LVGL/GUI/lvgl/src/core/lv_obj_style_gen.h ****     return (lv_opa_t)v.num;
 1510              		.loc 2 378 26 is_stmt 0 view .LVU367
 1511 0282 3A22     		movs	r2, #58
 1512 0284 2946     		mov	r1, r5
 1513 0286 3846     		mov	r0, r7
 1514 0288 FFF7FEFF 		bl	lv_obj_get_style_prop
 1515              	.LVL112:
 1516 028c 0590     		str	r0, [sp, #20]
 379:../../Middlewares/LVGL/GUI/lvgl/src/core/lv_obj_style_gen.h **** }
 1517              		.loc 2 379 5 is_stmt 1 view .LVU368
 379:../../Middlewares/LVGL/GUI/lvgl/src/core/lv_obj_style_gen.h **** }
 1518              		.loc 2 379 12 is_stmt 0 view .LVU369
 1519 028e C0B2     		uxtb	r0, r0
 1520              	.LVL113:
 379:../../Middlewares/LVGL/GUI/lvgl/src/core/lv_obj_style_gen.h **** }
 1521              		.loc 2 379 12 view .LVU370
 1522              	.LBE149:
ARM GAS  C:\Users\28576\AppData\Local\Temp\cclWIAwm.s 			page 52


 1523              	.LBE148:
 108:../../Middlewares/LVGL/GUI/lvgl/src/core/lv_obj_draw.c ****             if(draw_dsc->outline_opa > LV_OPA_MIN) {
 1524              		.loc 1 108 35 discriminator 1 view .LVU371
 1525 0290 84F85800 		strb	r0, [r4, #88]
 109:../../Middlewares/LVGL/GUI/lvgl/src/core/lv_obj_draw.c ****                 draw_dsc->outline_pad = lv_obj_get_style_outline_pad(obj, part);
 1526              		.loc 1 109 13 is_stmt 1 view .LVU372
 109:../../Middlewares/LVGL/GUI/lvgl/src/core/lv_obj_draw.c ****                 draw_dsc->outline_pad = lv_obj_get_style_outline_pad(obj, part);
 1527              		.loc 1 109 15 is_stmt 0 view .LVU373
 1528 0294 0228     		cmp	r0, #2
 1529 0296 7FF6D5AE 		bls	.L47
 1530              	.LBB150:
 110:../../Middlewares/LVGL/GUI/lvgl/src/core/lv_obj_draw.c ****                 lv_color_t outline_color = lv_obj_get_style_outline_color_filtered(obj, part);
 1531              		.loc 1 110 17 is_stmt 1 view .LVU374
 1532              	.LVL114:
 1533              	.LBB151:
 1534              	.LBI151:
 382:../../Middlewares/LVGL/GUI/lvgl/src/core/lv_obj_style_gen.h **** {
 1535              		.loc 2 382 23 view .LVU375
 1536              	.LBB152:
 384:../../Middlewares/LVGL/GUI/lvgl/src/core/lv_obj_style_gen.h ****     return (int32_t)v.num;
 1537              		.loc 2 384 5 view .LVU376
 384:../../Middlewares/LVGL/GUI/lvgl/src/core/lv_obj_style_gen.h ****     return (int32_t)v.num;
 1538              		.loc 2 384 26 is_stmt 0 view .LVU377
 1539 029a 3B22     		movs	r2, #59
 1540 029c 2946     		mov	r1, r5
 1541 029e 3846     		mov	r0, r7
 1542 02a0 FFF7FEFF 		bl	lv_obj_get_style_prop
 1543              	.LVL115:
 1544 02a4 0590     		str	r0, [sp, #20]
 385:../../Middlewares/LVGL/GUI/lvgl/src/core/lv_obj_style_gen.h **** }
 1545              		.loc 2 385 5 is_stmt 1 view .LVU378
 1546              	.LVL116:
 385:../../Middlewares/LVGL/GUI/lvgl/src/core/lv_obj_style_gen.h **** }
 1547              		.loc 2 385 5 is_stmt 0 view .LVU379
 1548              	.LBE152:
 1549              	.LBE151:
 110:../../Middlewares/LVGL/GUI/lvgl/src/core/lv_obj_draw.c ****                 lv_color_t outline_color = lv_obj_get_style_outline_color_filtered(obj, part);
 1550              		.loc 1 110 39 discriminator 1 view .LVU380
 1551 02a6 6065     		str	r0, [r4, #84]
 111:../../Middlewares/LVGL/GUI/lvgl/src/core/lv_obj_draw.c ****                 draw_dsc->outline_color = normal_apply_layer_recolor(obj, part, &draw_dsc->base, ou
 1552              		.loc 1 111 17 is_stmt 1 view .LVU381
 111:../../Middlewares/LVGL/GUI/lvgl/src/core/lv_obj_draw.c ****                 draw_dsc->outline_color = normal_apply_layer_recolor(obj, part, &draw_dsc->base, ou
 1553              		.loc 1 111 44 is_stmt 0 view .LVU382
 1554 02a8 2946     		mov	r1, r5
 1555 02aa 3846     		mov	r0, r7
 1556 02ac FFF7FEFF 		bl	lv_obj_get_style_outline_color_filtered
 1557              	.LVL117:
 1558 02b0 8DF81400 		strb	r0, [sp, #20]
 1559 02b4 C0F30723 		ubfx	r3, r0, #8, #8
 1560 02b8 8DF81530 		strb	r3, [sp, #21]
 1561 02bc C0F30740 		ubfx	r0, r0, #16, #8
 1562 02c0 8DF81600 		strb	r0, [sp, #22]
 112:../../Middlewares/LVGL/GUI/lvgl/src/core/lv_obj_draw.c ****             }
 1563              		.loc 1 112 17 is_stmt 1 view .LVU383
 112:../../Middlewares/LVGL/GUI/lvgl/src/core/lv_obj_draw.c ****             }
 1564              		.loc 1 112 43 is_stmt 0 view .LVU384
 1565 02c4 059B     		ldr	r3, [sp, #20]
ARM GAS  C:\Users\28576\AppData\Local\Temp\cclWIAwm.s 			page 53


 1566 02c6 2246     		mov	r2, r4
 1567 02c8 2946     		mov	r1, r5
 1568 02ca 3846     		mov	r0, r7
 1569 02cc FFF7FEFF 		bl	normal_apply_layer_recolor
 1570              	.LVL118:
 1571 02d0 84F84A00 		strb	r0, [r4, #74]
 1572 02d4 C0F30723 		ubfx	r3, r0, #8, #8
 1573 02d8 84F84B30 		strb	r3, [r4, #75]
 1574 02dc C0F30740 		ubfx	r0, r0, #16, #8
 1575 02e0 84F84C00 		strb	r0, [r4, #76]
 1576 02e4 AEE6     		b	.L47
 1577              	.L56:
 112:../../Middlewares/LVGL/GUI/lvgl/src/core/lv_obj_draw.c ****             }
 1578              		.loc 1 112 43 view .LVU385
 1579              	.LBE150:
 118:../../Middlewares/LVGL/GUI/lvgl/src/core/lv_obj_draw.c ****         if(draw_dsc->bg_image_src) {
 1580              		.loc 1 118 9 is_stmt 1 view .LVU386
 1581              	.LVL119:
 1582              	.LBB153:
 1583              	.LBI153:
 286:../../Middlewares/LVGL/GUI/lvgl/src/core/lv_obj_style_gen.h **** {
 1584              		.loc 2 286 28 view .LVU387
 1585              	.LBB154:
 288:../../Middlewares/LVGL/GUI/lvgl/src/core/lv_obj_style_gen.h ****     return (const void *)v.ptr;
 1586              		.loc 2 288 5 view .LVU388
 288:../../Middlewares/LVGL/GUI/lvgl/src/core/lv_obj_style_gen.h ****     return (const void *)v.ptr;
 1587              		.loc 2 288 26 is_stmt 0 view .LVU389
 1588 02e6 2822     		movs	r2, #40
 1589 02e8 2946     		mov	r1, r5
 1590 02ea 3846     		mov	r0, r7
 1591 02ec FFF7FEFF 		bl	lv_obj_get_style_prop
 1592              	.LVL120:
 1593 02f0 0590     		str	r0, [sp, #20]
 289:../../Middlewares/LVGL/GUI/lvgl/src/core/lv_obj_style_gen.h **** }
 1594              		.loc 2 289 5 is_stmt 1 view .LVU390
 1595              	.LVL121:
 289:../../Middlewares/LVGL/GUI/lvgl/src/core/lv_obj_style_gen.h **** }
 1596              		.loc 2 289 5 is_stmt 0 view .LVU391
 1597              	.LBE154:
 1598              	.LBE153:
 118:../../Middlewares/LVGL/GUI/lvgl/src/core/lv_obj_draw.c ****         if(draw_dsc->bg_image_src) {
 1599              		.loc 1 118 32 discriminator 1 view .LVU392
 1600 02f2 2063     		str	r0, [r4, #48]
 119:../../Middlewares/LVGL/GUI/lvgl/src/core/lv_obj_draw.c ****             draw_dsc->bg_image_opa = lv_obj_get_style_bg_image_opa(obj, part);
 1601              		.loc 1 119 9 is_stmt 1 view .LVU393
 119:../../Middlewares/LVGL/GUI/lvgl/src/core/lv_obj_draw.c ****             draw_dsc->bg_image_opa = lv_obj_get_style_bg_image_opa(obj, part);
 1602              		.loc 1 119 11 is_stmt 0 view .LVU394
 1603 02f4 0028     		cmp	r0, #0
 1604 02f6 3FF4AAAE 		beq	.L48
 120:../../Middlewares/LVGL/GUI/lvgl/src/core/lv_obj_draw.c ****             if(draw_dsc->bg_image_opa > LV_OPA_MIN) {
 1605              		.loc 1 120 13 is_stmt 1 view .LVU395
 1606              	.LVL122:
 1607              	.LBB155:
 1608              	.LBI155:
 292:../../Middlewares/LVGL/GUI/lvgl/src/core/lv_obj_style_gen.h **** {
 1609              		.loc 2 292 24 view .LVU396
 1610              	.LBB156:
ARM GAS  C:\Users\28576\AppData\Local\Temp\cclWIAwm.s 			page 54


 294:../../Middlewares/LVGL/GUI/lvgl/src/core/lv_obj_style_gen.h ****     return (lv_opa_t)v.num;
 1611              		.loc 2 294 5 view .LVU397
 294:../../Middlewares/LVGL/GUI/lvgl/src/core/lv_obj_style_gen.h ****     return (lv_opa_t)v.num;
 1612              		.loc 2 294 26 is_stmt 0 view .LVU398
 1613 02fa 2922     		movs	r2, #41
 1614 02fc 2946     		mov	r1, r5
 1615 02fe 3846     		mov	r0, r7
 1616 0300 FFF7FEFF 		bl	lv_obj_get_style_prop
 1617              	.LVL123:
 1618 0304 0590     		str	r0, [sp, #20]
 295:../../Middlewares/LVGL/GUI/lvgl/src/core/lv_obj_style_gen.h **** }
 1619              		.loc 2 295 5 is_stmt 1 view .LVU399
 295:../../Middlewares/LVGL/GUI/lvgl/src/core/lv_obj_style_gen.h **** }
 1620              		.loc 2 295 12 is_stmt 0 view .LVU400
 1621 0306 C0B2     		uxtb	r0, r0
 1622              	.LVL124:
 295:../../Middlewares/LVGL/GUI/lvgl/src/core/lv_obj_style_gen.h **** }
 1623              		.loc 2 295 12 view .LVU401
 1624              	.LBE156:
 1625              	.LBE155:
 120:../../Middlewares/LVGL/GUI/lvgl/src/core/lv_obj_draw.c ****             if(draw_dsc->bg_image_opa > LV_OPA_MIN) {
 1626              		.loc 1 120 36 discriminator 1 view .LVU402
 1627 0308 84F83B00 		strb	r0, [r4, #59]
 121:../../Middlewares/LVGL/GUI/lvgl/src/core/lv_obj_draw.c ****                 if(lv_image_src_get_type(draw_dsc->bg_image_src) == LV_IMAGE_SRC_SYMBOL) {
 1628              		.loc 1 121 13 is_stmt 1 view .LVU403
 121:../../Middlewares/LVGL/GUI/lvgl/src/core/lv_obj_draw.c ****                 if(lv_image_src_get_type(draw_dsc->bg_image_src) == LV_IMAGE_SRC_SYMBOL) {
 1629              		.loc 1 121 15 is_stmt 0 view .LVU404
 1630 030c 0228     		cmp	r0, #2
 1631 030e 7FF69EAE 		bls	.L48
 122:../../Middlewares/LVGL/GUI/lvgl/src/core/lv_obj_draw.c ****                     draw_dsc->bg_image_symbol_font = lv_obj_get_style_text_font(obj, part);
 1632              		.loc 1 122 17 is_stmt 1 view .LVU405
 122:../../Middlewares/LVGL/GUI/lvgl/src/core/lv_obj_draw.c ****                     draw_dsc->bg_image_symbol_font = lv_obj_get_style_text_font(obj, part);
 1633              		.loc 1 122 20 is_stmt 0 view .LVU406
 1634 0312 206B     		ldr	r0, [r4, #48]
 1635 0314 FFF7FEFF 		bl	lv_image_src_get_type
 1636              	.LVL125:
 122:../../Middlewares/LVGL/GUI/lvgl/src/core/lv_obj_draw.c ****                     draw_dsc->bg_image_symbol_font = lv_obj_get_style_text_font(obj, part);
 1637              		.loc 1 122 19 discriminator 1 view .LVU407
 1638 0318 0228     		cmp	r0, #2
 1639 031a 3ED0     		beq	.L59
 1640              	.LBB157:
 128:../../Middlewares/LVGL/GUI/lvgl/src/core/lv_obj_draw.c ****                     lv_opa_t bg_image_recolor_opa = lv_obj_get_style_bg_image_recolor_opa(obj, part
 1641              		.loc 1 128 21 is_stmt 1 view .LVU408
 128:../../Middlewares/LVGL/GUI/lvgl/src/core/lv_obj_draw.c ****                     lv_opa_t bg_image_recolor_opa = lv_obj_get_style_bg_image_recolor_opa(obj, part
 1642              		.loc 1 128 51 is_stmt 0 view .LVU409
 1643 031c 2946     		mov	r1, r5
 1644 031e 3846     		mov	r0, r7
 1645 0320 FFF7FEFF 		bl	lv_obj_get_style_bg_image_recolor_filtered
 1646              	.LVL126:
 1647 0324 8DF80C00 		strb	r0, [sp, #12]
 1648 0328 C0F30723 		ubfx	r3, r0, #8, #8
 1649 032c 8DF80D30 		strb	r3, [sp, #13]
 1650 0330 C0F30740 		ubfx	r0, r0, #16, #8
 1651 0334 8DF80E00 		strb	r0, [sp, #14]
 129:../../Middlewares/LVGL/GUI/lvgl/src/core/lv_obj_draw.c ****                     lv_color32_t result = image_apply_layer_recolor(obj, part, &draw_dsc->base, bg_
 1652              		.loc 1 129 21 is_stmt 1 view .LVU410
 1653              	.LVL127:
ARM GAS  C:\Users\28576\AppData\Local\Temp\cclWIAwm.s 			page 55


 1654              	.LBB158:
 1655              	.LBI158:
 310:../../Middlewares/LVGL/GUI/lvgl/src/core/lv_obj_style_gen.h **** {
 1656              		.loc 2 310 24 view .LVU411
 1657              	.LBB159:
 312:../../Middlewares/LVGL/GUI/lvgl/src/core/lv_obj_style_gen.h ****     return (lv_opa_t)v.num;
 1658              		.loc 2 312 5 view .LVU412
 312:../../Middlewares/LVGL/GUI/lvgl/src/core/lv_obj_style_gen.h ****     return (lv_opa_t)v.num;
 1659              		.loc 2 312 26 is_stmt 0 view .LVU413
 1660 0338 2B22     		movs	r2, #43
 1661 033a 2946     		mov	r1, r5
 1662 033c 3846     		mov	r0, r7
 1663 033e FFF7FEFF 		bl	lv_obj_get_style_prop
 1664              	.LVL128:
 1665 0342 0590     		str	r0, [sp, #20]
 313:../../Middlewares/LVGL/GUI/lvgl/src/core/lv_obj_style_gen.h **** }
 1666              		.loc 2 313 5 is_stmt 1 view .LVU414
 313:../../Middlewares/LVGL/GUI/lvgl/src/core/lv_obj_style_gen.h **** }
 1667              		.loc 2 313 12 is_stmt 0 view .LVU415
 1668 0344 C0B2     		uxtb	r0, r0
 1669              	.LVL129:
 313:../../Middlewares/LVGL/GUI/lvgl/src/core/lv_obj_style_gen.h **** }
 1670              		.loc 2 313 12 view .LVU416
 1671              	.LBE159:
 1672              	.LBE158:
 130:../../Middlewares/LVGL/GUI/lvgl/src/core/lv_obj_draw.c ****                     draw_dsc->bg_image_recolor_opa = result.alpha;
 1673              		.loc 1 130 21 is_stmt 1 view .LVU417
 130:../../Middlewares/LVGL/GUI/lvgl/src/core/lv_obj_draw.c ****                     draw_dsc->bg_image_recolor_opa = result.alpha;
 1674              		.loc 1 130 43 is_stmt 0 view .LVU418
 1675 0346 0090     		str	r0, [sp]
 1676 0348 039B     		ldr	r3, [sp, #12]
 1677 034a 2246     		mov	r2, r4
 1678 034c 2946     		mov	r1, r5
 1679 034e 3846     		mov	r0, r7
 1680              	.LVL130:
 130:../../Middlewares/LVGL/GUI/lvgl/src/core/lv_obj_draw.c ****                     draw_dsc->bg_image_recolor_opa = result.alpha;
 1681              		.loc 1 130 43 view .LVU419
 1682 0350 FFF7FEFF 		bl	image_apply_layer_recolor
 1683              	.LVL131:
 130:../../Middlewares/LVGL/GUI/lvgl/src/core/lv_obj_draw.c ****                     draw_dsc->bg_image_recolor_opa = result.alpha;
 1684              		.loc 1 130 43 view .LVU420
 1685 0354 0490     		str	r0, [sp, #16]
 131:../../Middlewares/LVGL/GUI/lvgl/src/core/lv_obj_draw.c ****                     draw_dsc->bg_image_recolor = lv_color_make(result.red, result.green, result.blu
 1686              		.loc 1 131 21 is_stmt 1 view .LVU421
 131:../../Middlewares/LVGL/GUI/lvgl/src/core/lv_obj_draw.c ****                     draw_dsc->bg_image_recolor = lv_color_make(result.red, result.green, result.blu
 1687              		.loc 1 131 60 is_stmt 0 view .LVU422
 1688 0356 9DF81330 		ldrb	r3, [sp, #19]	@ zero_extendqisi2
 131:../../Middlewares/LVGL/GUI/lvgl/src/core/lv_obj_draw.c ****                     draw_dsc->bg_image_recolor = lv_color_make(result.red, result.green, result.blu
 1689              		.loc 1 131 52 view .LVU423
 1690 035a 84F83C30 		strb	r3, [r4, #60]
 132:../../Middlewares/LVGL/GUI/lvgl/src/core/lv_obj_draw.c ****                     draw_dsc->bg_image_tiled = lv_obj_get_style_bg_image_tiled(obj, part);
 1691              		.loc 1 132 21 is_stmt 1 view .LVU424
 132:../../Middlewares/LVGL/GUI/lvgl/src/core/lv_obj_draw.c ****                     draw_dsc->bg_image_tiled = lv_obj_get_style_bg_image_tiled(obj, part);
 1692              		.loc 1 132 50 is_stmt 0 view .LVU425
 1693 035e 9DF81020 		ldrb	r2, [sp, #16]	@ zero_extendqisi2
 1694 0362 9DF81110 		ldrb	r1, [sp, #17]	@ zero_extendqisi2
 1695 0366 9DF81200 		ldrb	r0, [sp, #18]	@ zero_extendqisi2
ARM GAS  C:\Users\28576\AppData\Local\Temp\cclWIAwm.s 			page 56


 1696 036a FFF7FEFF 		bl	lv_color_make
 1697              	.LVL132:
 1698 036e 84F83800 		strb	r0, [r4, #56]
 1699 0372 C0F30723 		ubfx	r3, r0, #8, #8
 1700 0376 84F83930 		strb	r3, [r4, #57]
 1701 037a C0F30740 		ubfx	r0, r0, #16, #8
 1702 037e 84F83A00 		strb	r0, [r4, #58]
 133:../../Middlewares/LVGL/GUI/lvgl/src/core/lv_obj_draw.c ****                 }
 1703              		.loc 1 133 21 is_stmt 1 view .LVU426
 1704              	.LVL133:
 1705              	.LBB160:
 1706              	.LBI160:
 316:../../Middlewares/LVGL/GUI/lvgl/src/core/lv_obj_style_gen.h **** {
 1707              		.loc 2 316 20 view .LVU427
 1708              	.LBB161:
 318:../../Middlewares/LVGL/GUI/lvgl/src/core/lv_obj_style_gen.h ****     return (bool)v.num;
 1709              		.loc 2 318 5 view .LVU428
 318:../../Middlewares/LVGL/GUI/lvgl/src/core/lv_obj_style_gen.h ****     return (bool)v.num;
 1710              		.loc 2 318 26 is_stmt 0 view .LVU429
 1711 0382 2C22     		movs	r2, #44
 1712 0384 2946     		mov	r1, r5
 1713 0386 3846     		mov	r0, r7
 1714 0388 FFF7FEFF 		bl	lv_obj_get_style_prop
 1715              	.LVL134:
 1716 038c 0590     		str	r0, [sp, #20]
 319:../../Middlewares/LVGL/GUI/lvgl/src/core/lv_obj_style_gen.h **** }
 1717              		.loc 2 319 5 is_stmt 1 view .LVU430
 319:../../Middlewares/LVGL/GUI/lvgl/src/core/lv_obj_style_gen.h **** }
 1718              		.loc 2 319 12 is_stmt 0 view .LVU431
 1719 038e 0038     		subs	r0, r0, #0
 1720 0390 18BF     		it	ne
 1721 0392 0120     		movne	r0, #1
 1722              	.LVL135:
 319:../../Middlewares/LVGL/GUI/lvgl/src/core/lv_obj_style_gen.h **** }
 1723              		.loc 2 319 12 view .LVU432
 1724              	.LBE161:
 1725              	.LBE160:
 133:../../Middlewares/LVGL/GUI/lvgl/src/core/lv_obj_draw.c ****                 }
 1726              		.loc 1 133 46 discriminator 1 view .LVU433
 1727 0394 84F83D00 		strb	r0, [r4, #61]
 1728 0398 59E6     		b	.L48
 1729              	.LVL136:
 1730              	.L59:
 133:../../Middlewares/LVGL/GUI/lvgl/src/core/lv_obj_draw.c ****                 }
 1731              		.loc 1 133 46 discriminator 1 view .LVU434
 1732              	.LBE157:
 1733              	.LBB162:
 123:../../Middlewares/LVGL/GUI/lvgl/src/core/lv_obj_draw.c ****                     lv_color_t text_color = lv_obj_get_style_text_color_filtered(obj, part);
 1734              		.loc 1 123 21 is_stmt 1 view .LVU435
 1735              	.LBB163:
 1736              	.LBI163:
 550:../../Middlewares/LVGL/GUI/lvgl/src/core/lv_obj_style_gen.h **** {
 1737              		.loc 2 550 33 view .LVU436
 1738              	.LBB164:
 552:../../Middlewares/LVGL/GUI/lvgl/src/core/lv_obj_style_gen.h ****     return (const lv_font_t *)v.ptr;
 1739              		.loc 2 552 5 view .LVU437
 552:../../Middlewares/LVGL/GUI/lvgl/src/core/lv_obj_style_gen.h ****     return (const lv_font_t *)v.ptr;
ARM GAS  C:\Users\28576\AppData\Local\Temp\cclWIAwm.s 			page 57


 1740              		.loc 2 552 26 is_stmt 0 view .LVU438
 1741 039a 5A22     		movs	r2, #90
 1742 039c 2946     		mov	r1, r5
 1743 039e 3846     		mov	r0, r7
 1744 03a0 FFF7FEFF 		bl	lv_obj_get_style_prop
 1745              	.LVL137:
 1746 03a4 0590     		str	r0, [sp, #20]
 553:../../Middlewares/LVGL/GUI/lvgl/src/core/lv_obj_style_gen.h **** }
 1747              		.loc 2 553 5 is_stmt 1 view .LVU439
 1748              	.LVL138:
 553:../../Middlewares/LVGL/GUI/lvgl/src/core/lv_obj_style_gen.h **** }
 1749              		.loc 2 553 5 is_stmt 0 view .LVU440
 1750              	.LBE164:
 1751              	.LBE163:
 123:../../Middlewares/LVGL/GUI/lvgl/src/core/lv_obj_draw.c ****                     lv_color_t text_color = lv_obj_get_style_text_color_filtered(obj, part);
 1752              		.loc 1 123 52 discriminator 1 view .LVU441
 1753 03a6 6063     		str	r0, [r4, #52]
 124:../../Middlewares/LVGL/GUI/lvgl/src/core/lv_obj_draw.c ****                     draw_dsc->bg_image_recolor = normal_apply_layer_recolor(obj, part, &draw_dsc->b
 1754              		.loc 1 124 21 is_stmt 1 view .LVU442
 124:../../Middlewares/LVGL/GUI/lvgl/src/core/lv_obj_draw.c ****                     draw_dsc->bg_image_recolor = normal_apply_layer_recolor(obj, part, &draw_dsc->b
 1755              		.loc 1 124 45 is_stmt 0 view .LVU443
 1756 03a8 2946     		mov	r1, r5
 1757 03aa 3846     		mov	r0, r7
 1758 03ac FFF7FEFF 		bl	lv_obj_get_style_text_color_filtered
 1759              	.LVL139:
 1760 03b0 8DF81400 		strb	r0, [sp, #20]
 1761 03b4 C0F30723 		ubfx	r3, r0, #8, #8
 1762 03b8 8DF81530 		strb	r3, [sp, #21]
 1763 03bc C0F30740 		ubfx	r0, r0, #16, #8
 1764 03c0 8DF81600 		strb	r0, [sp, #22]
 125:../../Middlewares/LVGL/GUI/lvgl/src/core/lv_obj_draw.c ****                 }
 1765              		.loc 1 125 21 is_stmt 1 view .LVU444
 125:../../Middlewares/LVGL/GUI/lvgl/src/core/lv_obj_draw.c ****                 }
 1766              		.loc 1 125 50 is_stmt 0 view .LVU445
 1767 03c4 059B     		ldr	r3, [sp, #20]
 1768 03c6 2246     		mov	r2, r4
 1769 03c8 2946     		mov	r1, r5
 1770 03ca 3846     		mov	r0, r7
 1771 03cc FFF7FEFF 		bl	normal_apply_layer_recolor
 1772              	.LVL140:
 1773 03d0 84F83800 		strb	r0, [r4, #56]
 1774 03d4 C0F30723 		ubfx	r3, r0, #8, #8
 1775 03d8 84F83930 		strb	r3, [r4, #57]
 1776 03dc C0F30740 		ubfx	r0, r0, #16, #8
 1777 03e0 84F83A00 		strb	r0, [r4, #58]
 1778              	.LBE162:
 1779 03e4 33E6     		b	.L48
 1780              	.L57:
 140:../../Middlewares/LVGL/GUI/lvgl/src/core/lv_obj_draw.c ****         if(draw_dsc->shadow_width) {
 1781              		.loc 1 140 9 is_stmt 1 view .LVU446
 1782              	.LVL141:
 1783              	.LBB165:
 1784              	.LBI165:
 388:../../Middlewares/LVGL/GUI/lvgl/src/core/lv_obj_style_gen.h **** {
 1785              		.loc 2 388 23 view .LVU447
 1786              	.LBB166:
 390:../../Middlewares/LVGL/GUI/lvgl/src/core/lv_obj_style_gen.h ****     return (int32_t)v.num;
ARM GAS  C:\Users\28576\AppData\Local\Temp\cclWIAwm.s 			page 58


 1787              		.loc 2 390 5 view .LVU448
 390:../../Middlewares/LVGL/GUI/lvgl/src/core/lv_obj_style_gen.h ****     return (int32_t)v.num;
 1788              		.loc 2 390 26 is_stmt 0 view .LVU449
 1789 03e6 3C22     		movs	r2, #60
 1790 03e8 2946     		mov	r1, r5
 1791 03ea 3846     		mov	r0, r7
 1792 03ec FFF7FEFF 		bl	lv_obj_get_style_prop
 1793              	.LVL142:
 1794 03f0 0590     		str	r0, [sp, #20]
 391:../../Middlewares/LVGL/GUI/lvgl/src/core/lv_obj_style_gen.h **** }
 1795              		.loc 2 391 5 is_stmt 1 view .LVU450
 1796              	.LVL143:
 391:../../Middlewares/LVGL/GUI/lvgl/src/core/lv_obj_style_gen.h **** }
 1797              		.loc 2 391 5 is_stmt 0 view .LVU451
 1798              	.LBE166:
 1799              	.LBE165:
 140:../../Middlewares/LVGL/GUI/lvgl/src/core/lv_obj_draw.c ****         if(draw_dsc->shadow_width) {
 1800              		.loc 1 140 32 discriminator 1 view .LVU452
 1801 03f2 E065     		str	r0, [r4, #92]
 141:../../Middlewares/LVGL/GUI/lvgl/src/core/lv_obj_draw.c ****             if(draw_dsc->shadow_opa > LV_OPA_MIN) {
 1802              		.loc 1 141 9 is_stmt 1 view .LVU453
 141:../../Middlewares/LVGL/GUI/lvgl/src/core/lv_obj_draw.c ****             if(draw_dsc->shadow_opa > LV_OPA_MIN) {
 1803              		.loc 1 141 11 is_stmt 0 view .LVU454
 1804 03f4 0028     		cmp	r0, #0
 1805 03f6 3FF42FAE 		beq	.L50
 142:../../Middlewares/LVGL/GUI/lvgl/src/core/lv_obj_draw.c ****                 draw_dsc->shadow_opa = lv_obj_get_style_shadow_opa(obj, part);
 1806              		.loc 1 142 13 is_stmt 1 view .LVU455
 142:../../Middlewares/LVGL/GUI/lvgl/src/core/lv_obj_draw.c ****                 draw_dsc->shadow_opa = lv_obj_get_style_shadow_opa(obj, part);
 1807              		.loc 1 142 24 is_stmt 0 view .LVU456
 1808 03fa 94F86C30 		ldrb	r3, [r4, #108]	@ zero_extendqisi2
 142:../../Middlewares/LVGL/GUI/lvgl/src/core/lv_obj_draw.c ****                 draw_dsc->shadow_opa = lv_obj_get_style_shadow_opa(obj, part);
 1809              		.loc 1 142 15 view .LVU457
 1810 03fe 022B     		cmp	r3, #2
 1811 0400 7FF62AAE 		bls	.L50
 143:../../Middlewares/LVGL/GUI/lvgl/src/core/lv_obj_draw.c ****                 if(draw_dsc->shadow_opa > LV_OPA_MIN) {
 1812              		.loc 1 143 17 is_stmt 1 view .LVU458
 1813              	.LVL144:
 1814              	.LBB167:
 1815              	.LBI167:
 424:../../Middlewares/LVGL/GUI/lvgl/src/core/lv_obj_style_gen.h **** {
 1816              		.loc 2 424 24 view .LVU459
 1817              	.LBB168:
 426:../../Middlewares/LVGL/GUI/lvgl/src/core/lv_obj_style_gen.h ****     return (lv_opa_t)v.num;
 1818              		.loc 2 426 5 view .LVU460
 426:../../Middlewares/LVGL/GUI/lvgl/src/core/lv_obj_style_gen.h ****     return (lv_opa_t)v.num;
 1819              		.loc 2 426 26 is_stmt 0 view .LVU461
 1820 0404 3E22     		movs	r2, #62
 1821 0406 2946     		mov	r1, r5
 1822 0408 3846     		mov	r0, r7
 1823 040a FFF7FEFF 		bl	lv_obj_get_style_prop
 1824              	.LVL145:
 1825 040e 0590     		str	r0, [sp, #20]
 427:../../Middlewares/LVGL/GUI/lvgl/src/core/lv_obj_style_gen.h **** }
 1826              		.loc 2 427 5 is_stmt 1 view .LVU462
 427:../../Middlewares/LVGL/GUI/lvgl/src/core/lv_obj_style_gen.h **** }
 1827              		.loc 2 427 12 is_stmt 0 view .LVU463
 1828 0410 C3B2     		uxtb	r3, r0
ARM GAS  C:\Users\28576\AppData\Local\Temp\cclWIAwm.s 			page 59


 1829              	.LVL146:
 427:../../Middlewares/LVGL/GUI/lvgl/src/core/lv_obj_style_gen.h **** }
 1830              		.loc 2 427 12 view .LVU464
 1831              	.LBE168:
 1832              	.LBE167:
 143:../../Middlewares/LVGL/GUI/lvgl/src/core/lv_obj_draw.c ****                 if(draw_dsc->shadow_opa > LV_OPA_MIN) {
 1833              		.loc 1 143 38 discriminator 1 view .LVU465
 1834 0412 84F86C30 		strb	r3, [r4, #108]
 144:../../Middlewares/LVGL/GUI/lvgl/src/core/lv_obj_draw.c ****                     draw_dsc->shadow_offset_x = lv_obj_get_style_shadow_offset_x(obj, part);
 1835              		.loc 1 144 17 is_stmt 1 view .LVU466
 144:../../Middlewares/LVGL/GUI/lvgl/src/core/lv_obj_draw.c ****                     draw_dsc->shadow_offset_x = lv_obj_get_style_shadow_offset_x(obj, part);
 1836              		.loc 1 144 19 is_stmt 0 view .LVU467
 1837 0416 022B     		cmp	r3, #2
 1838 0418 7FF61EAE 		bls	.L50
 1839              	.LBB169:
 145:../../Middlewares/LVGL/GUI/lvgl/src/core/lv_obj_draw.c ****                     draw_dsc->shadow_offset_y = lv_obj_get_style_shadow_offset_y(obj, part);
 1840              		.loc 1 145 21 is_stmt 1 view .LVU468
 1841              	.LVL147:
 1842              	.LBB170:
 1843              	.LBI170:
 394:../../Middlewares/LVGL/GUI/lvgl/src/core/lv_obj_style_gen.h **** {
 1844              		.loc 2 394 23 view .LVU469
 1845              	.LBB171:
 396:../../Middlewares/LVGL/GUI/lvgl/src/core/lv_obj_style_gen.h ****     return (int32_t)v.num;
 1846              		.loc 2 396 5 view .LVU470
 396:../../Middlewares/LVGL/GUI/lvgl/src/core/lv_obj_style_gen.h ****     return (int32_t)v.num;
 1847              		.loc 2 396 26 is_stmt 0 view .LVU471
 1848 041c 4022     		movs	r2, #64
 1849 041e 2946     		mov	r1, r5
 1850 0420 3846     		mov	r0, r7
 1851 0422 FFF7FEFF 		bl	lv_obj_get_style_prop
 1852              	.LVL148:
 1853 0426 0590     		str	r0, [sp, #20]
 397:../../Middlewares/LVGL/GUI/lvgl/src/core/lv_obj_style_gen.h **** }
 1854              		.loc 2 397 5 is_stmt 1 view .LVU472
 1855              	.LVL149:
 397:../../Middlewares/LVGL/GUI/lvgl/src/core/lv_obj_style_gen.h **** }
 1856              		.loc 2 397 5 is_stmt 0 view .LVU473
 1857              	.LBE171:
 1858              	.LBE170:
 145:../../Middlewares/LVGL/GUI/lvgl/src/core/lv_obj_draw.c ****                     draw_dsc->shadow_offset_y = lv_obj_get_style_shadow_offset_y(obj, part);
 1859              		.loc 1 145 47 discriminator 1 view .LVU474
 1860 0428 2066     		str	r0, [r4, #96]
 146:../../Middlewares/LVGL/GUI/lvgl/src/core/lv_obj_draw.c ****                     draw_dsc->shadow_spread = lv_obj_get_style_shadow_spread(obj, part);
 1861              		.loc 1 146 21 is_stmt 1 view .LVU475
 1862              	.LVL150:
 1863              	.LBB172:
 1864              	.LBI172:
 400:../../Middlewares/LVGL/GUI/lvgl/src/core/lv_obj_style_gen.h **** {
 1865              		.loc 2 400 23 view .LVU476
 1866              	.LBB173:
 402:../../Middlewares/LVGL/GUI/lvgl/src/core/lv_obj_style_gen.h ****     return (int32_t)v.num;
 1867              		.loc 2 402 5 view .LVU477
 402:../../Middlewares/LVGL/GUI/lvgl/src/core/lv_obj_style_gen.h ****     return (int32_t)v.num;
 1868              		.loc 2 402 26 is_stmt 0 view .LVU478
 1869 042a 4122     		movs	r2, #65
 1870 042c 2946     		mov	r1, r5
ARM GAS  C:\Users\28576\AppData\Local\Temp\cclWIAwm.s 			page 60


 1871 042e 3846     		mov	r0, r7
 1872 0430 FFF7FEFF 		bl	lv_obj_get_style_prop
 1873              	.LVL151:
 1874 0434 0590     		str	r0, [sp, #20]
 403:../../Middlewares/LVGL/GUI/lvgl/src/core/lv_obj_style_gen.h **** }
 1875              		.loc 2 403 5 is_stmt 1 view .LVU479
 1876              	.LVL152:
 403:../../Middlewares/LVGL/GUI/lvgl/src/core/lv_obj_style_gen.h **** }
 1877              		.loc 2 403 5 is_stmt 0 view .LVU480
 1878              	.LBE173:
 1879              	.LBE172:
 146:../../Middlewares/LVGL/GUI/lvgl/src/core/lv_obj_draw.c ****                     draw_dsc->shadow_spread = lv_obj_get_style_shadow_spread(obj, part);
 1880              		.loc 1 146 47 discriminator 1 view .LVU481
 1881 0436 6066     		str	r0, [r4, #100]
 147:../../Middlewares/LVGL/GUI/lvgl/src/core/lv_obj_draw.c ****                     lv_color_t shadow_color = lv_obj_get_style_shadow_color_filtered(obj, part);
 1882              		.loc 1 147 21 is_stmt 1 view .LVU482
 1883              	.LVL153:
 1884              	.LBB174:
 1885              	.LBI174:
 406:../../Middlewares/LVGL/GUI/lvgl/src/core/lv_obj_style_gen.h **** {
 1886              		.loc 2 406 23 view .LVU483
 1887              	.LBB175:
 408:../../Middlewares/LVGL/GUI/lvgl/src/core/lv_obj_style_gen.h ****     return (int32_t)v.num;
 1888              		.loc 2 408 5 view .LVU484
 408:../../Middlewares/LVGL/GUI/lvgl/src/core/lv_obj_style_gen.h ****     return (int32_t)v.num;
 1889              		.loc 2 408 26 is_stmt 0 view .LVU485
 1890 0438 4222     		movs	r2, #66
 1891 043a 2946     		mov	r1, r5
 1892 043c 3846     		mov	r0, r7
 1893 043e FFF7FEFF 		bl	lv_obj_get_style_prop
 1894              	.LVL154:
 1895 0442 0590     		str	r0, [sp, #20]
 409:../../Middlewares/LVGL/GUI/lvgl/src/core/lv_obj_style_gen.h **** }
 1896              		.loc 2 409 5 is_stmt 1 view .LVU486
 1897              	.LVL155:
 409:../../Middlewares/LVGL/GUI/lvgl/src/core/lv_obj_style_gen.h **** }
 1898              		.loc 2 409 5 is_stmt 0 view .LVU487
 1899              	.LBE175:
 1900              	.LBE174:
 147:../../Middlewares/LVGL/GUI/lvgl/src/core/lv_obj_draw.c ****                     lv_color_t shadow_color = lv_obj_get_style_shadow_color_filtered(obj, part);
 1901              		.loc 1 147 45 discriminator 1 view .LVU488
 1902 0444 A066     		str	r0, [r4, #104]
 148:../../Middlewares/LVGL/GUI/lvgl/src/core/lv_obj_draw.c ****                     draw_dsc->shadow_color = normal_apply_layer_recolor(obj, part, &draw_dsc->base,
 1903              		.loc 1 148 21 is_stmt 1 view .LVU489
 148:../../Middlewares/LVGL/GUI/lvgl/src/core/lv_obj_draw.c ****                     draw_dsc->shadow_color = normal_apply_layer_recolor(obj, part, &draw_dsc->base,
 1904              		.loc 1 148 47 is_stmt 0 view .LVU490
 1905 0446 2946     		mov	r1, r5
 1906 0448 3846     		mov	r0, r7
 1907 044a FFF7FEFF 		bl	lv_obj_get_style_shadow_color_filtered
 1908              	.LVL156:
 1909 044e 8DF81400 		strb	r0, [sp, #20]
 1910 0452 C0F30723 		ubfx	r3, r0, #8, #8
 1911 0456 8DF81530 		strb	r3, [sp, #21]
 1912 045a C0F30740 		ubfx	r0, r0, #16, #8
 1913 045e 8DF81600 		strb	r0, [sp, #22]
 149:../../Middlewares/LVGL/GUI/lvgl/src/core/lv_obj_draw.c ****                 }
 1914              		.loc 1 149 21 is_stmt 1 view .LVU491
ARM GAS  C:\Users\28576\AppData\Local\Temp\cclWIAwm.s 			page 61


 149:../../Middlewares/LVGL/GUI/lvgl/src/core/lv_obj_draw.c ****                 }
 1915              		.loc 1 149 46 is_stmt 0 view .LVU492
 1916 0462 059B     		ldr	r3, [sp, #20]
 1917 0464 2246     		mov	r2, r4
 1918 0466 2946     		mov	r1, r5
 1919 0468 3846     		mov	r0, r7
 1920 046a FFF7FEFF 		bl	normal_apply_layer_recolor
 1921              	.LVL157:
 1922 046e 84F85900 		strb	r0, [r4, #89]
 1923 0472 C0F30723 		ubfx	r3, r0, #8, #8
 1924 0476 84F85A30 		strb	r3, [r4, #90]
 1925 047a C0F30740 		ubfx	r0, r0, #16, #8
 1926 047e 84F85B00 		strb	r0, [r4, #91]
 1927 0482 E9E5     		b	.L50
 1928              	.LBE169:
 1929              		.cfi_endproc
 1930              	.LFE172:
 1932              		.section	.text.lv_obj_init_draw_label_dsc,"ax",%progbits
 1933              		.align	1
 1934              		.global	lv_obj_init_draw_label_dsc
 1935              		.syntax unified
 1936              		.thumb
 1937              		.thumb_func
 1939              	lv_obj_init_draw_label_dsc:
 1940              	.LVL158:
 1941              	.LFB173:
 167:../../Middlewares/LVGL/GUI/lvgl/src/core/lv_obj_draw.c ****     LV_PROFILER_DRAW_BEGIN;
 1942              		.loc 1 167 1 is_stmt 1 view -0
 1943              		.cfi_startproc
 1944              		@ args = 0, pretend = 0, frame = 8
 1945              		@ frame_needed = 0, uses_anonymous_args = 0
 167:../../Middlewares/LVGL/GUI/lvgl/src/core/lv_obj_draw.c ****     LV_PROFILER_DRAW_BEGIN;
 1946              		.loc 1 167 1 is_stmt 0 view .LVU494
 1947 0000 70B5     		push	{r4, r5, r6, lr}
 1948              	.LCFI46:
 1949              		.cfi_def_cfa_offset 16
 1950              		.cfi_offset 4, -16
 1951              		.cfi_offset 5, -12
 1952              		.cfi_offset 6, -8
 1953              		.cfi_offset 14, -4
 1954 0002 82B0     		sub	sp, sp, #8
 1955              	.LCFI47:
 1956              		.cfi_def_cfa_offset 24
 1957 0004 0546     		mov	r5, r0
 1958 0006 0E46     		mov	r6, r1
 1959 0008 1446     		mov	r4, r2
 168:../../Middlewares/LVGL/GUI/lvgl/src/core/lv_obj_draw.c ****     draw_dsc->base.obj = obj;
 1960              		.loc 1 168 27 is_stmt 1 view .LVU495
 169:../../Middlewares/LVGL/GUI/lvgl/src/core/lv_obj_draw.c ****     draw_dsc->base.part = part;
 1961              		.loc 1 169 5 view .LVU496
 169:../../Middlewares/LVGL/GUI/lvgl/src/core/lv_obj_draw.c ****     draw_dsc->base.part = part;
 1962              		.loc 1 169 24 is_stmt 0 view .LVU497
 1963 000a 1060     		str	r0, [r2]
 170:../../Middlewares/LVGL/GUI/lvgl/src/core/lv_obj_draw.c **** 
 1964              		.loc 1 170 5 is_stmt 1 view .LVU498
 170:../../Middlewares/LVGL/GUI/lvgl/src/core/lv_obj_draw.c **** 
 1965              		.loc 1 170 25 is_stmt 0 view .LVU499
ARM GAS  C:\Users\28576\AppData\Local\Temp\cclWIAwm.s 			page 62


 1966 000c 5160     		str	r1, [r2, #4]
 172:../../Middlewares/LVGL/GUI/lvgl/src/core/lv_obj_draw.c ****     if(draw_dsc->opa <= LV_OPA_MIN) {
 1967              		.loc 1 172 5 is_stmt 1 view .LVU500
 1968              	.LVL159:
 1969              	.LBB176:
 1970              	.LBI176:
 544:../../Middlewares/LVGL/GUI/lvgl/src/core/lv_obj_style_gen.h **** {
 1971              		.loc 2 544 24 view .LVU501
 1972              	.LBB177:
 546:../../Middlewares/LVGL/GUI/lvgl/src/core/lv_obj_style_gen.h ****     return (lv_opa_t)v.num;
 1973              		.loc 2 546 5 view .LVU502
 546:../../Middlewares/LVGL/GUI/lvgl/src/core/lv_obj_style_gen.h ****     return (lv_opa_t)v.num;
 1974              		.loc 2 546 26 is_stmt 0 view .LVU503
 1975 000e 5922     		movs	r2, #89
 1976              	.LVL160:
 546:../../Middlewares/LVGL/GUI/lvgl/src/core/lv_obj_style_gen.h ****     return (lv_opa_t)v.num;
 1977              		.loc 2 546 26 view .LVU504
 1978 0010 FFF7FEFF 		bl	lv_obj_get_style_prop
 1979              	.LVL161:
 546:../../Middlewares/LVGL/GUI/lvgl/src/core/lv_obj_style_gen.h ****     return (lv_opa_t)v.num;
 1980              		.loc 2 546 26 view .LVU505
 1981 0014 0090     		str	r0, [sp]
 547:../../Middlewares/LVGL/GUI/lvgl/src/core/lv_obj_style_gen.h **** }
 1982              		.loc 2 547 5 is_stmt 1 view .LVU506
 547:../../Middlewares/LVGL/GUI/lvgl/src/core/lv_obj_style_gen.h **** }
 1983              		.loc 2 547 12 is_stmt 0 view .LVU507
 1984 0016 C3B2     		uxtb	r3, r0
 1985              	.LVL162:
 547:../../Middlewares/LVGL/GUI/lvgl/src/core/lv_obj_style_gen.h **** }
 1986              		.loc 2 547 12 view .LVU508
 1987              	.LBE177:
 1988              	.LBE176:
 172:../../Middlewares/LVGL/GUI/lvgl/src/core/lv_obj_draw.c ****     if(draw_dsc->opa <= LV_OPA_MIN) {
 1989              		.loc 1 172 19 discriminator 1 view .LVU509
 1990 0018 84F85830 		strb	r3, [r4, #88]
 173:../../Middlewares/LVGL/GUI/lvgl/src/core/lv_obj_draw.c ****         LV_PROFILER_DRAW_END;
 1991              		.loc 1 173 5 is_stmt 1 view .LVU510
 173:../../Middlewares/LVGL/GUI/lvgl/src/core/lv_obj_draw.c ****         LV_PROFILER_DRAW_END;
 1992              		.loc 1 173 7 is_stmt 0 view .LVU511
 1993 001c 022B     		cmp	r3, #2
 1994 001e 01D8     		bhi	.L65
 1995              	.L60:
 202:../../Middlewares/LVGL/GUI/lvgl/src/core/lv_obj_draw.c **** 
 1996              		.loc 1 202 1 view .LVU512
 1997 0020 02B0     		add	sp, sp, #8
 1998              	.LCFI48:
 1999              		.cfi_remember_state
 2000              		.cfi_def_cfa_offset 16
 2001              		@ sp needed
 2002 0022 70BD     		pop	{r4, r5, r6, pc}
 2003              	.LVL163:
 2004              	.L65:
 2005              	.LCFI49:
 2006              		.cfi_restore_state
 178:../../Middlewares/LVGL/GUI/lvgl/src/core/lv_obj_draw.c ****     if(opa < LV_OPA_MAX) {
 2007              		.loc 1 178 5 is_stmt 1 view .LVU513
 178:../../Middlewares/LVGL/GUI/lvgl/src/core/lv_obj_draw.c ****     if(opa < LV_OPA_MAX) {
ARM GAS  C:\Users\28576\AppData\Local\Temp\cclWIAwm.s 			page 63


 2008              		.loc 1 178 20 is_stmt 0 view .LVU514
 2009 0024 2246     		mov	r2, r4
 2010 0026 3146     		mov	r1, r6
 2011 0028 2846     		mov	r0, r5
 2012 002a FFF7FEFF 		bl	get_layer_opa
 2013              	.LVL164:
 179:../../Middlewares/LVGL/GUI/lvgl/src/core/lv_obj_draw.c ****         draw_dsc->opa = LV_OPA_MIX2(draw_dsc->opa, opa);
 2014              		.loc 1 179 5 is_stmt 1 view .LVU515
 179:../../Middlewares/LVGL/GUI/lvgl/src/core/lv_obj_draw.c ****         draw_dsc->opa = LV_OPA_MIX2(draw_dsc->opa, opa);
 2015              		.loc 1 179 7 is_stmt 0 view .LVU516
 2016 002e FC28     		cmp	r0, #252
 2017 0030 07D8     		bhi	.L62
 180:../../Middlewares/LVGL/GUI/lvgl/src/core/lv_obj_draw.c ****     }
 2018              		.loc 1 180 9 is_stmt 1 view .LVU517
 180:../../Middlewares/LVGL/GUI/lvgl/src/core/lv_obj_draw.c ****     }
 2019              		.loc 1 180 25 is_stmt 0 view .LVU518
 2020 0032 94F85830 		ldrb	r3, [r4, #88]	@ zero_extendqisi2
 2021 0036 03FB00F0 		mul	r0, r3, r0
 2022              	.LVL165:
 180:../../Middlewares/LVGL/GUI/lvgl/src/core/lv_obj_draw.c ****     }
 2023              		.loc 1 180 25 view .LVU519
 2024 003a C0F30720 		ubfx	r0, r0, #8, #8
 180:../../Middlewares/LVGL/GUI/lvgl/src/core/lv_obj_draw.c ****     }
 2025              		.loc 1 180 23 view .LVU520
 2026 003e 84F85800 		strb	r0, [r4, #88]
 2027              	.L62:
 182:../../Middlewares/LVGL/GUI/lvgl/src/core/lv_obj_draw.c ****         LV_PROFILER_DRAW_END;
 2028              		.loc 1 182 5 is_stmt 1 view .LVU521
 182:../../Middlewares/LVGL/GUI/lvgl/src/core/lv_obj_draw.c ****         LV_PROFILER_DRAW_END;
 2029              		.loc 1 182 16 is_stmt 0 view .LVU522
 2030 0042 94F85830 		ldrb	r3, [r4, #88]	@ zero_extendqisi2
 182:../../Middlewares/LVGL/GUI/lvgl/src/core/lv_obj_draw.c ****         LV_PROFILER_DRAW_END;
 2031              		.loc 1 182 7 view .LVU523
 2032 0046 022B     		cmp	r3, #2
 2033 0048 EAD9     		bls	.L60
 187:../../Middlewares/LVGL/GUI/lvgl/src/core/lv_obj_draw.c ****     draw_dsc->color = normal_apply_layer_recolor(obj, part, &draw_dsc->base, text_color);
 2034              		.loc 1 187 5 is_stmt 1 view .LVU524
 187:../../Middlewares/LVGL/GUI/lvgl/src/core/lv_obj_draw.c ****     draw_dsc->color = normal_apply_layer_recolor(obj, part, &draw_dsc->base, text_color);
 2035              		.loc 1 187 29 is_stmt 0 view .LVU525
 2036 004a 3146     		mov	r1, r6
 2037 004c 2846     		mov	r0, r5
 2038 004e FFF7FEFF 		bl	lv_obj_get_style_text_color_filtered
 2039              	.LVL166:
 2040 0052 8DF80400 		strb	r0, [sp, #4]
 2041 0056 C0F30723 		ubfx	r3, r0, #8, #8
 2042 005a 8DF80530 		strb	r3, [sp, #5]
 2043 005e C0F30740 		ubfx	r0, r0, #16, #8
 2044 0062 8DF80600 		strb	r0, [sp, #6]
 188:../../Middlewares/LVGL/GUI/lvgl/src/core/lv_obj_draw.c ****     draw_dsc->letter_space = lv_obj_get_style_text_letter_space(obj, part);
 2045              		.loc 1 188 5 is_stmt 1 view .LVU526
 188:../../Middlewares/LVGL/GUI/lvgl/src/core/lv_obj_draw.c ****     draw_dsc->letter_space = lv_obj_get_style_text_letter_space(obj, part);
 2046              		.loc 1 188 23 is_stmt 0 view .LVU527
 2047 0066 019B     		ldr	r3, [sp, #4]
 2048 0068 2246     		mov	r2, r4
 2049 006a 3146     		mov	r1, r6
 2050 006c 2846     		mov	r0, r5
 2051 006e FFF7FEFF 		bl	normal_apply_layer_recolor
ARM GAS  C:\Users\28576\AppData\Local\Temp\cclWIAwm.s 			page 64


 2052              	.LVL167:
 2053 0072 84F82C00 		strb	r0, [r4, #44]
 2054 0076 C0F30723 		ubfx	r3, r0, #8, #8
 2055 007a 84F82D30 		strb	r3, [r4, #45]
 2056 007e C0F30740 		ubfx	r0, r0, #16, #8
 2057 0082 84F82E00 		strb	r0, [r4, #46]
