ARM GAS  C:\Users\28576\AppData\Local\Temp\cclWIAwm.s 			page 1


   1              		.cpu cortex-m7
   2              		.arch armv7e-m
   3              		.fpu fpv5-d16
   4              		.eabi_attribute 28, 1
   5              		.eabi_attribute 20, 1
   6              		.eabi_attribute 21, 1
   7              		.eabi_attribute 23, 3
   8              		.eabi_attribute 24, 1
   9              		.eabi_attribute 25, 1
  10              		.eabi_attribute 26, 1
  11              		.eabi_attribute 30, 1
  12              		.eabi_attribute 34, 1
  13              		.eabi_attribute 18, 4
  14              		.file	"lv_obj_draw.c"
  15              		.text
  16              	.Ltext0:
  17              		.cfi_sections	.debug_frame
  18              		.file 1 "../../Middlewares/LVGL/GUI/lvgl/src/core/lv_obj_draw.c"
  19              		.section	.text.get_layer_opa,"ax",%progbits
  20              		.align	1
  21              		.syntax unified
  22              		.thumb
  23              		.thumb_func
  25              	get_layer_opa:
  26              	.LVL0:
  27              	.LFB181:
   1:../../Middlewares/LVGL/GUI/lvgl/src/core/lv_obj_draw.c **** /**
   2:../../Middlewares/LVGL/GUI/lvgl/src/core/lv_obj_draw.c ****  * @file lv_obj_draw.c
   3:../../Middlewares/LVGL/GUI/lvgl/src/core/lv_obj_draw.c ****  *
   4:../../Middlewares/LVGL/GUI/lvgl/src/core/lv_obj_draw.c ****  */
   5:../../Middlewares/LVGL/GUI/lvgl/src/core/lv_obj_draw.c **** 
   6:../../Middlewares/LVGL/GUI/lvgl/src/core/lv_obj_draw.c **** /*********************
   7:../../Middlewares/LVGL/GUI/lvgl/src/core/lv_obj_draw.c ****  *      INCLUDES
   8:../../Middlewares/LVGL/GUI/lvgl/src/core/lv_obj_draw.c ****  *********************/
   9:../../Middlewares/LVGL/GUI/lvgl/src/core/lv_obj_draw.c **** #include "lv_obj_draw_private.h"
  10:../../Middlewares/LVGL/GUI/lvgl/src/core/lv_obj_draw.c **** #include "lv_obj_private.h"
  11:../../Middlewares/LVGL/GUI/lvgl/src/core/lv_obj_draw.c **** #include "lv_obj_style.h"
  12:../../Middlewares/LVGL/GUI/lvgl/src/core/lv_obj_draw.c **** #include "../display/lv_display.h"
  13:../../Middlewares/LVGL/GUI/lvgl/src/core/lv_obj_draw.c **** #include "../indev/lv_indev.h"
  14:../../Middlewares/LVGL/GUI/lvgl/src/core/lv_obj_draw.c **** #include "../stdlib/lv_string.h"
  15:../../Middlewares/LVGL/GUI/lvgl/src/core/lv_obj_draw.c **** #include "../draw/lv_draw_arc.h"
  16:../../Middlewares/LVGL/GUI/lvgl/src/core/lv_obj_draw.c **** 
  17:../../Middlewares/LVGL/GUI/lvgl/src/core/lv_obj_draw.c **** /*********************
  18:../../Middlewares/LVGL/GUI/lvgl/src/core/lv_obj_draw.c ****  *      DEFINES
  19:../../Middlewares/LVGL/GUI/lvgl/src/core/lv_obj_draw.c ****  *********************/
  20:../../Middlewares/LVGL/GUI/lvgl/src/core/lv_obj_draw.c **** #define MY_CLASS (&lv_obj_class)
  21:../../Middlewares/LVGL/GUI/lvgl/src/core/lv_obj_draw.c **** 
  22:../../Middlewares/LVGL/GUI/lvgl/src/core/lv_obj_draw.c **** /**********************
  23:../../Middlewares/LVGL/GUI/lvgl/src/core/lv_obj_draw.c ****  *      TYPEDEFS
  24:../../Middlewares/LVGL/GUI/lvgl/src/core/lv_obj_draw.c ****  **********************/
  25:../../Middlewares/LVGL/GUI/lvgl/src/core/lv_obj_draw.c **** 
  26:../../Middlewares/LVGL/GUI/lvgl/src/core/lv_obj_draw.c **** /**********************
  27:../../Middlewares/LVGL/GUI/lvgl/src/core/lv_obj_draw.c ****  *  STATIC PROTOTYPES
  28:../../Middlewares/LVGL/GUI/lvgl/src/core/lv_obj_draw.c ****  **********************/
  29:../../Middlewares/LVGL/GUI/lvgl/src/core/lv_obj_draw.c **** 
  30:../../Middlewares/LVGL/GUI/lvgl/src/core/lv_obj_draw.c **** static inline lv_opa_t get_layer_opa(const lv_obj_t * obj, lv_part_t part, const lv_draw_dsc_base_t
  31:../../Middlewares/LVGL/GUI/lvgl/src/core/lv_obj_draw.c **** static lv_color_t normal_apply_layer_recolor(const lv_obj_t * obj, lv_part_t part,  const lv_draw_d
ARM GAS  C:\Users\28576\AppData\Local\Temp\cclWIAwm.s 			page 2


  32:../../Middlewares/LVGL/GUI/lvgl/src/core/lv_obj_draw.c ****                                              lv_color_t color);
  33:../../Middlewares/LVGL/GUI/lvgl/src/core/lv_obj_draw.c **** static lv_color32_t image_apply_layer_recolor(const lv_obj_t * obj, lv_part_t part,
  34:../../Middlewares/LVGL/GUI/lvgl/src/core/lv_obj_draw.c ****                                               const lv_draw_dsc_base_t * base_dsc, lv_color_t color
  35:../../Middlewares/LVGL/GUI/lvgl/src/core/lv_obj_draw.c **** 
  36:../../Middlewares/LVGL/GUI/lvgl/src/core/lv_obj_draw.c **** /**********************
  37:../../Middlewares/LVGL/GUI/lvgl/src/core/lv_obj_draw.c ****  *  STATIC VARIABLES
  38:../../Middlewares/LVGL/GUI/lvgl/src/core/lv_obj_draw.c ****  **********************/
  39:../../Middlewares/LVGL/GUI/lvgl/src/core/lv_obj_draw.c **** 
  40:../../Middlewares/LVGL/GUI/lvgl/src/core/lv_obj_draw.c **** /**********************
  41:../../Middlewares/LVGL/GUI/lvgl/src/core/lv_obj_draw.c ****  *      MACROS
  42:../../Middlewares/LVGL/GUI/lvgl/src/core/lv_obj_draw.c ****  **********************/
  43:../../Middlewares/LVGL/GUI/lvgl/src/core/lv_obj_draw.c **** 
  44:../../Middlewares/LVGL/GUI/lvgl/src/core/lv_obj_draw.c **** /**********************
  45:../../Middlewares/LVGL/GUI/lvgl/src/core/lv_obj_draw.c ****  *   GLOBAL FUNCTIONS
  46:../../Middlewares/LVGL/GUI/lvgl/src/core/lv_obj_draw.c ****  **********************/
  47:../../Middlewares/LVGL/GUI/lvgl/src/core/lv_obj_draw.c **** 
  48:../../Middlewares/LVGL/GUI/lvgl/src/core/lv_obj_draw.c **** void lv_obj_init_draw_rect_dsc(lv_obj_t * obj, lv_part_t part, lv_draw_rect_dsc_t * draw_dsc)
  49:../../Middlewares/LVGL/GUI/lvgl/src/core/lv_obj_draw.c **** {
  50:../../Middlewares/LVGL/GUI/lvgl/src/core/lv_obj_draw.c ****     LV_PROFILER_DRAW_BEGIN;
  51:../../Middlewares/LVGL/GUI/lvgl/src/core/lv_obj_draw.c ****     draw_dsc->base.obj = obj;
  52:../../Middlewares/LVGL/GUI/lvgl/src/core/lv_obj_draw.c ****     draw_dsc->base.part = part;
  53:../../Middlewares/LVGL/GUI/lvgl/src/core/lv_obj_draw.c **** 
  54:../../Middlewares/LVGL/GUI/lvgl/src/core/lv_obj_draw.c ****     lv_opa_t opa = get_layer_opa(obj, part, &draw_dsc->base);
  55:../../Middlewares/LVGL/GUI/lvgl/src/core/lv_obj_draw.c ****     if(part != LV_PART_MAIN) {
  56:../../Middlewares/LVGL/GUI/lvgl/src/core/lv_obj_draw.c ****         if(opa <= LV_OPA_MIN) {
  57:../../Middlewares/LVGL/GUI/lvgl/src/core/lv_obj_draw.c ****             draw_dsc->bg_opa = LV_OPA_TRANSP;
  58:../../Middlewares/LVGL/GUI/lvgl/src/core/lv_obj_draw.c ****             draw_dsc->bg_image_opa = LV_OPA_TRANSP;
  59:../../Middlewares/LVGL/GUI/lvgl/src/core/lv_obj_draw.c ****             draw_dsc->border_opa = LV_OPA_TRANSP;
  60:../../Middlewares/LVGL/GUI/lvgl/src/core/lv_obj_draw.c ****             draw_dsc->outline_opa = LV_OPA_TRANSP;
  61:../../Middlewares/LVGL/GUI/lvgl/src/core/lv_obj_draw.c ****             draw_dsc->shadow_opa = LV_OPA_TRANSP;
  62:../../Middlewares/LVGL/GUI/lvgl/src/core/lv_obj_draw.c ****             LV_PROFILER_DRAW_END;
  63:../../Middlewares/LVGL/GUI/lvgl/src/core/lv_obj_draw.c ****             return;
  64:../../Middlewares/LVGL/GUI/lvgl/src/core/lv_obj_draw.c ****         }
  65:../../Middlewares/LVGL/GUI/lvgl/src/core/lv_obj_draw.c ****     }
  66:../../Middlewares/LVGL/GUI/lvgl/src/core/lv_obj_draw.c **** 
  67:../../Middlewares/LVGL/GUI/lvgl/src/core/lv_obj_draw.c ****     draw_dsc->radius = lv_obj_get_style_radius(obj, part);
  68:../../Middlewares/LVGL/GUI/lvgl/src/core/lv_obj_draw.c **** 
  69:../../Middlewares/LVGL/GUI/lvgl/src/core/lv_obj_draw.c ****     if(draw_dsc->bg_opa != LV_OPA_TRANSP) {
  70:../../Middlewares/LVGL/GUI/lvgl/src/core/lv_obj_draw.c ****         draw_dsc->bg_opa = lv_obj_get_style_bg_opa(obj, part);
  71:../../Middlewares/LVGL/GUI/lvgl/src/core/lv_obj_draw.c ****         if(draw_dsc->bg_opa > LV_OPA_MIN) {
  72:../../Middlewares/LVGL/GUI/lvgl/src/core/lv_obj_draw.c ****             lv_color_t bg_color = lv_obj_get_style_bg_color_filtered(obj, part);
  73:../../Middlewares/LVGL/GUI/lvgl/src/core/lv_obj_draw.c ****             draw_dsc->bg_color = normal_apply_layer_recolor(obj, part, &draw_dsc->base, bg_color);
  74:../../Middlewares/LVGL/GUI/lvgl/src/core/lv_obj_draw.c ****             const lv_grad_dsc_t * grad = lv_obj_get_style_bg_grad(obj, part);
  75:../../Middlewares/LVGL/GUI/lvgl/src/core/lv_obj_draw.c ****             if(grad && grad->dir != LV_GRAD_DIR_NONE) {
  76:../../Middlewares/LVGL/GUI/lvgl/src/core/lv_obj_draw.c ****                 lv_memcpy(&draw_dsc->bg_grad, grad, sizeof(*grad));
  77:../../Middlewares/LVGL/GUI/lvgl/src/core/lv_obj_draw.c ****             }
  78:../../Middlewares/LVGL/GUI/lvgl/src/core/lv_obj_draw.c ****             else {
  79:../../Middlewares/LVGL/GUI/lvgl/src/core/lv_obj_draw.c ****                 draw_dsc->bg_grad.dir = lv_obj_get_style_bg_grad_dir(obj, part);
  80:../../Middlewares/LVGL/GUI/lvgl/src/core/lv_obj_draw.c ****                 if(draw_dsc->bg_grad.dir != LV_GRAD_DIR_NONE) {
  81:../../Middlewares/LVGL/GUI/lvgl/src/core/lv_obj_draw.c ****                     draw_dsc->bg_grad.stops[0].color = draw_dsc->bg_color;
  82:../../Middlewares/LVGL/GUI/lvgl/src/core/lv_obj_draw.c ****                     lv_color_t bg_grad_color = lv_obj_get_style_bg_grad_color_filtered(obj, part);
  83:../../Middlewares/LVGL/GUI/lvgl/src/core/lv_obj_draw.c ****                     draw_dsc->bg_grad.stops[1].color = normal_apply_layer_recolor(obj, part, &draw_
  84:../../Middlewares/LVGL/GUI/lvgl/src/core/lv_obj_draw.c ****                     draw_dsc->bg_grad.stops[0].frac = lv_obj_get_style_bg_main_stop(obj, part);
  85:../../Middlewares/LVGL/GUI/lvgl/src/core/lv_obj_draw.c ****                     draw_dsc->bg_grad.stops[1].frac = lv_obj_get_style_bg_grad_stop(obj, part);
  86:../../Middlewares/LVGL/GUI/lvgl/src/core/lv_obj_draw.c ****                     draw_dsc->bg_grad.stops[0].opa = lv_obj_get_style_bg_main_opa(obj, part);
  87:../../Middlewares/LVGL/GUI/lvgl/src/core/lv_obj_draw.c ****                     draw_dsc->bg_grad.stops[1].opa = lv_obj_get_style_bg_grad_opa(obj, part);
  88:../../Middlewares/LVGL/GUI/lvgl/src/core/lv_obj_draw.c ****                 }
ARM GAS  C:\Users\28576\AppData\Local\Temp\cclWIAwm.s 			page 3


  89:../../Middlewares/LVGL/GUI/lvgl/src/core/lv_obj_draw.c ****             }
  90:../../Middlewares/LVGL/GUI/lvgl/src/core/lv_obj_draw.c ****         }
  91:../../Middlewares/LVGL/GUI/lvgl/src/core/lv_obj_draw.c ****     }
  92:../../Middlewares/LVGL/GUI/lvgl/src/core/lv_obj_draw.c **** 
  93:../../Middlewares/LVGL/GUI/lvgl/src/core/lv_obj_draw.c ****     if(draw_dsc->border_opa != LV_OPA_TRANSP) {
  94:../../Middlewares/LVGL/GUI/lvgl/src/core/lv_obj_draw.c ****         draw_dsc->border_width = lv_obj_get_style_border_width(obj, part);
  95:../../Middlewares/LVGL/GUI/lvgl/src/core/lv_obj_draw.c ****         if(draw_dsc->border_width) {
  96:../../Middlewares/LVGL/GUI/lvgl/src/core/lv_obj_draw.c ****             draw_dsc->border_opa = lv_obj_get_style_border_opa(obj, part);
  97:../../Middlewares/LVGL/GUI/lvgl/src/core/lv_obj_draw.c ****             if(draw_dsc->border_opa > LV_OPA_MIN) {
  98:../../Middlewares/LVGL/GUI/lvgl/src/core/lv_obj_draw.c ****                 draw_dsc->border_side = lv_obj_get_style_border_side(obj, part);
  99:../../Middlewares/LVGL/GUI/lvgl/src/core/lv_obj_draw.c ****                 lv_color_t border_color = lv_obj_get_style_border_color_filtered(obj, part);
 100:../../Middlewares/LVGL/GUI/lvgl/src/core/lv_obj_draw.c ****                 draw_dsc->border_color = normal_apply_layer_recolor(obj, part, &draw_dsc->base, bor
 101:../../Middlewares/LVGL/GUI/lvgl/src/core/lv_obj_draw.c ****             }
 102:../../Middlewares/LVGL/GUI/lvgl/src/core/lv_obj_draw.c ****         }
 103:../../Middlewares/LVGL/GUI/lvgl/src/core/lv_obj_draw.c ****     }
 104:../../Middlewares/LVGL/GUI/lvgl/src/core/lv_obj_draw.c **** 
 105:../../Middlewares/LVGL/GUI/lvgl/src/core/lv_obj_draw.c ****     if(draw_dsc->outline_opa != LV_OPA_TRANSP) {
 106:../../Middlewares/LVGL/GUI/lvgl/src/core/lv_obj_draw.c ****         draw_dsc->outline_width = lv_obj_get_style_outline_width(obj, part);
 107:../../Middlewares/LVGL/GUI/lvgl/src/core/lv_obj_draw.c ****         if(draw_dsc->outline_width) {
 108:../../Middlewares/LVGL/GUI/lvgl/src/core/lv_obj_draw.c ****             draw_dsc->outline_opa = lv_obj_get_style_outline_opa(obj, part);
 109:../../Middlewares/LVGL/GUI/lvgl/src/core/lv_obj_draw.c ****             if(draw_dsc->outline_opa > LV_OPA_MIN) {
 110:../../Middlewares/LVGL/GUI/lvgl/src/core/lv_obj_draw.c ****                 draw_dsc->outline_pad = lv_obj_get_style_outline_pad(obj, part);
 111:../../Middlewares/LVGL/GUI/lvgl/src/core/lv_obj_draw.c ****                 lv_color_t outline_color = lv_obj_get_style_outline_color_filtered(obj, part);
 112:../../Middlewares/LVGL/GUI/lvgl/src/core/lv_obj_draw.c ****                 draw_dsc->outline_color = normal_apply_layer_recolor(obj, part, &draw_dsc->base, ou
 113:../../Middlewares/LVGL/GUI/lvgl/src/core/lv_obj_draw.c ****             }
 114:../../Middlewares/LVGL/GUI/lvgl/src/core/lv_obj_draw.c ****         }
 115:../../Middlewares/LVGL/GUI/lvgl/src/core/lv_obj_draw.c ****     }
 116:../../Middlewares/LVGL/GUI/lvgl/src/core/lv_obj_draw.c **** 
 117:../../Middlewares/LVGL/GUI/lvgl/src/core/lv_obj_draw.c ****     if(draw_dsc->bg_image_opa != LV_OPA_TRANSP) {
 118:../../Middlewares/LVGL/GUI/lvgl/src/core/lv_obj_draw.c ****         draw_dsc->bg_image_src = lv_obj_get_style_bg_image_src(obj, part);
 119:../../Middlewares/LVGL/GUI/lvgl/src/core/lv_obj_draw.c ****         if(draw_dsc->bg_image_src) {
 120:../../Middlewares/LVGL/GUI/lvgl/src/core/lv_obj_draw.c ****             draw_dsc->bg_image_opa = lv_obj_get_style_bg_image_opa(obj, part);
 121:../../Middlewares/LVGL/GUI/lvgl/src/core/lv_obj_draw.c ****             if(draw_dsc->bg_image_opa > LV_OPA_MIN) {
 122:../../Middlewares/LVGL/GUI/lvgl/src/core/lv_obj_draw.c ****                 if(lv_image_src_get_type(draw_dsc->bg_image_src) == LV_IMAGE_SRC_SYMBOL) {
 123:../../Middlewares/LVGL/GUI/lvgl/src/core/lv_obj_draw.c ****                     draw_dsc->bg_image_symbol_font = lv_obj_get_style_text_font(obj, part);
 124:../../Middlewares/LVGL/GUI/lvgl/src/core/lv_obj_draw.c ****                     lv_color_t text_color = lv_obj_get_style_text_color_filtered(obj, part);
 125:../../Middlewares/LVGL/GUI/lvgl/src/core/lv_obj_draw.c ****                     draw_dsc->bg_image_recolor = normal_apply_layer_recolor(obj, part, &draw_dsc->b
 126:../../Middlewares/LVGL/GUI/lvgl/src/core/lv_obj_draw.c ****                 }
 127:../../Middlewares/LVGL/GUI/lvgl/src/core/lv_obj_draw.c ****                 else {
 128:../../Middlewares/LVGL/GUI/lvgl/src/core/lv_obj_draw.c ****                     lv_color_t bg_image_recolor = lv_obj_get_style_bg_image_recolor_filtered(obj, p
 129:../../Middlewares/LVGL/GUI/lvgl/src/core/lv_obj_draw.c ****                     lv_opa_t bg_image_recolor_opa = lv_obj_get_style_bg_image_recolor_opa(obj, part
 130:../../Middlewares/LVGL/GUI/lvgl/src/core/lv_obj_draw.c ****                     lv_color32_t result = image_apply_layer_recolor(obj, part, &draw_dsc->base, bg_
 131:../../Middlewares/LVGL/GUI/lvgl/src/core/lv_obj_draw.c ****                     draw_dsc->bg_image_recolor_opa = result.alpha;
 132:../../Middlewares/LVGL/GUI/lvgl/src/core/lv_obj_draw.c ****                     draw_dsc->bg_image_recolor = lv_color_make(result.red, result.green, result.blu
 133:../../Middlewares/LVGL/GUI/lvgl/src/core/lv_obj_draw.c ****                     draw_dsc->bg_image_tiled = lv_obj_get_style_bg_image_tiled(obj, part);
 134:../../Middlewares/LVGL/GUI/lvgl/src/core/lv_obj_draw.c ****                 }
 135:../../Middlewares/LVGL/GUI/lvgl/src/core/lv_obj_draw.c ****             }
 136:../../Middlewares/LVGL/GUI/lvgl/src/core/lv_obj_draw.c ****         }
 137:../../Middlewares/LVGL/GUI/lvgl/src/core/lv_obj_draw.c ****     }
 138:../../Middlewares/LVGL/GUI/lvgl/src/core/lv_obj_draw.c **** 
 139:../../Middlewares/LVGL/GUI/lvgl/src/core/lv_obj_draw.c ****     if(draw_dsc->shadow_opa) {
 140:../../Middlewares/LVGL/GUI/lvgl/src/core/lv_obj_draw.c ****         draw_dsc->shadow_width = lv_obj_get_style_shadow_width(obj, part);
 141:../../Middlewares/LVGL/GUI/lvgl/src/core/lv_obj_draw.c ****         if(draw_dsc->shadow_width) {
 142:../../Middlewares/LVGL/GUI/lvgl/src/core/lv_obj_draw.c ****             if(draw_dsc->shadow_opa > LV_OPA_MIN) {
 143:../../Middlewares/LVGL/GUI/lvgl/src/core/lv_obj_draw.c ****                 draw_dsc->shadow_opa = lv_obj_get_style_shadow_opa(obj, part);
 144:../../Middlewares/LVGL/GUI/lvgl/src/core/lv_obj_draw.c ****                 if(draw_dsc->shadow_opa > LV_OPA_MIN) {
 145:../../Middlewares/LVGL/GUI/lvgl/src/core/lv_obj_draw.c ****                     draw_dsc->shadow_offset_x = lv_obj_get_style_shadow_offset_x(obj, part);
ARM GAS  C:\Users\28576\AppData\Local\Temp\cclWIAwm.s 			page 4


 146:../../Middlewares/LVGL/GUI/lvgl/src/core/lv_obj_draw.c ****                     draw_dsc->shadow_offset_y = lv_obj_get_style_shadow_offset_y(obj, part);
 147:../../Middlewares/LVGL/GUI/lvgl/src/core/lv_obj_draw.c ****                     draw_dsc->shadow_spread = lv_obj_get_style_shadow_spread(obj, part);
 148:../../Middlewares/LVGL/GUI/lvgl/src/core/lv_obj_draw.c ****                     lv_color_t shadow_color = lv_obj_get_style_shadow_color_filtered(obj, part);
 149:../../Middlewares/LVGL/GUI/lvgl/src/core/lv_obj_draw.c ****                     draw_dsc->shadow_color = normal_apply_layer_recolor(obj, part, &draw_dsc->base,
 150:../../Middlewares/LVGL/GUI/lvgl/src/core/lv_obj_draw.c ****                 }
 151:../../Middlewares/LVGL/GUI/lvgl/src/core/lv_obj_draw.c ****             }
 152:../../Middlewares/LVGL/GUI/lvgl/src/core/lv_obj_draw.c ****         }
 153:../../Middlewares/LVGL/GUI/lvgl/src/core/lv_obj_draw.c ****     }
 154:../../Middlewares/LVGL/GUI/lvgl/src/core/lv_obj_draw.c **** 
 155:../../Middlewares/LVGL/GUI/lvgl/src/core/lv_obj_draw.c ****     if(opa < LV_OPA_MAX) {
 156:../../Middlewares/LVGL/GUI/lvgl/src/core/lv_obj_draw.c ****         draw_dsc->bg_opa = LV_OPA_MIX2(draw_dsc->bg_opa, opa);
 157:../../Middlewares/LVGL/GUI/lvgl/src/core/lv_obj_draw.c ****         draw_dsc->bg_image_opa = LV_OPA_MIX2(draw_dsc->bg_image_opa, opa);
 158:../../Middlewares/LVGL/GUI/lvgl/src/core/lv_obj_draw.c ****         draw_dsc->border_opa = LV_OPA_MIX2(draw_dsc->border_opa, opa);
 159:../../Middlewares/LVGL/GUI/lvgl/src/core/lv_obj_draw.c ****         draw_dsc->shadow_opa = LV_OPA_MIX2(draw_dsc->shadow_opa, opa);
 160:../../Middlewares/LVGL/GUI/lvgl/src/core/lv_obj_draw.c ****         draw_dsc->outline_opa = LV_OPA_MIX2(draw_dsc->outline_opa, opa);
 161:../../Middlewares/LVGL/GUI/lvgl/src/core/lv_obj_draw.c ****     }
 162:../../Middlewares/LVGL/GUI/lvgl/src/core/lv_obj_draw.c **** 
 163:../../Middlewares/LVGL/GUI/lvgl/src/core/lv_obj_draw.c ****     LV_PROFILER_DRAW_END;
 164:../../Middlewares/LVGL/GUI/lvgl/src/core/lv_obj_draw.c **** }
 165:../../Middlewares/LVGL/GUI/lvgl/src/core/lv_obj_draw.c **** 
 166:../../Middlewares/LVGL/GUI/lvgl/src/core/lv_obj_draw.c **** void lv_obj_init_draw_label_dsc(lv_obj_t * obj, lv_part_t part, lv_draw_label_dsc_t * draw_dsc)
 167:../../Middlewares/LVGL/GUI/lvgl/src/core/lv_obj_draw.c **** {
 168:../../Middlewares/LVGL/GUI/lvgl/src/core/lv_obj_draw.c ****     LV_PROFILER_DRAW_BEGIN;
 169:../../Middlewares/LVGL/GUI/lvgl/src/core/lv_obj_draw.c ****     draw_dsc->base.obj = obj;
 170:../../Middlewares/LVGL/GUI/lvgl/src/core/lv_obj_draw.c ****     draw_dsc->base.part = part;
 171:../../Middlewares/LVGL/GUI/lvgl/src/core/lv_obj_draw.c **** 
 172:../../Middlewares/LVGL/GUI/lvgl/src/core/lv_obj_draw.c ****     draw_dsc->opa = lv_obj_get_style_text_opa(obj, part);
 173:../../Middlewares/LVGL/GUI/lvgl/src/core/lv_obj_draw.c ****     if(draw_dsc->opa <= LV_OPA_MIN) {
 174:../../Middlewares/LVGL/GUI/lvgl/src/core/lv_obj_draw.c ****         LV_PROFILER_DRAW_END;
 175:../../Middlewares/LVGL/GUI/lvgl/src/core/lv_obj_draw.c ****         return;
 176:../../Middlewares/LVGL/GUI/lvgl/src/core/lv_obj_draw.c ****     }
 177:../../Middlewares/LVGL/GUI/lvgl/src/core/lv_obj_draw.c **** 
 178:../../Middlewares/LVGL/GUI/lvgl/src/core/lv_obj_draw.c ****     lv_opa_t opa = get_layer_opa(obj, part, &draw_dsc->base);
 179:../../Middlewares/LVGL/GUI/lvgl/src/core/lv_obj_draw.c ****     if(opa < LV_OPA_MAX) {
 180:../../Middlewares/LVGL/GUI/lvgl/src/core/lv_obj_draw.c ****         draw_dsc->opa = LV_OPA_MIX2(draw_dsc->opa, opa);
 181:../../Middlewares/LVGL/GUI/lvgl/src/core/lv_obj_draw.c ****     }
 182:../../Middlewares/LVGL/GUI/lvgl/src/core/lv_obj_draw.c ****     if(draw_dsc->opa <= LV_OPA_MIN) {
 183:../../Middlewares/LVGL/GUI/lvgl/src/core/lv_obj_draw.c ****         LV_PROFILER_DRAW_END;
 184:../../Middlewares/LVGL/GUI/lvgl/src/core/lv_obj_draw.c ****         return;
 185:../../Middlewares/LVGL/GUI/lvgl/src/core/lv_obj_draw.c ****     }
 186:../../Middlewares/LVGL/GUI/lvgl/src/core/lv_obj_draw.c **** 
 187:../../Middlewares/LVGL/GUI/lvgl/src/core/lv_obj_draw.c ****     lv_color_t text_color = lv_obj_get_style_text_color_filtered(obj, part);
 188:../../Middlewares/LVGL/GUI/lvgl/src/core/lv_obj_draw.c ****     draw_dsc->color = normal_apply_layer_recolor(obj, part, &draw_dsc->base, text_color);
 189:../../Middlewares/LVGL/GUI/lvgl/src/core/lv_obj_draw.c ****     draw_dsc->letter_space = lv_obj_get_style_text_letter_space(obj, part);
 190:../../Middlewares/LVGL/GUI/lvgl/src/core/lv_obj_draw.c ****     draw_dsc->line_space = lv_obj_get_style_text_line_space(obj, part);
 191:../../Middlewares/LVGL/GUI/lvgl/src/core/lv_obj_draw.c ****     draw_dsc->decor = lv_obj_get_style_text_decor(obj, part);
 192:../../Middlewares/LVGL/GUI/lvgl/src/core/lv_obj_draw.c **** 
 193:../../Middlewares/LVGL/GUI/lvgl/src/core/lv_obj_draw.c ****     draw_dsc->font = lv_obj_get_style_text_font(obj, part);
 194:../../Middlewares/LVGL/GUI/lvgl/src/core/lv_obj_draw.c **** 
 195:../../Middlewares/LVGL/GUI/lvgl/src/core/lv_obj_draw.c **** #if LV_USE_BIDI
 196:../../Middlewares/LVGL/GUI/lvgl/src/core/lv_obj_draw.c ****     draw_dsc->bidi_dir = lv_obj_get_style_base_dir(obj, LV_PART_MAIN);
 197:../../Middlewares/LVGL/GUI/lvgl/src/core/lv_obj_draw.c **** #endif
 198:../../Middlewares/LVGL/GUI/lvgl/src/core/lv_obj_draw.c **** 
 199:../../Middlewares/LVGL/GUI/lvgl/src/core/lv_obj_draw.c ****     draw_dsc->align = lv_obj_get_style_text_align(obj, part);
 200:../../Middlewares/LVGL/GUI/lvgl/src/core/lv_obj_draw.c **** 
 201:../../Middlewares/LVGL/GUI/lvgl/src/core/lv_obj_draw.c ****     LV_PROFILER_DRAW_END;
 202:../../Middlewares/LVGL/GUI/lvgl/src/core/lv_obj_draw.c **** }
ARM GAS  C:\Users\28576\AppData\Local\Temp\cclWIAwm.s 			page 5


 203:../../Middlewares/LVGL/GUI/lvgl/src/core/lv_obj_draw.c **** 
 204:../../Middlewares/LVGL/GUI/lvgl/src/core/lv_obj_draw.c **** void lv_obj_init_draw_image_dsc(lv_obj_t * obj, lv_part_t part, lv_draw_image_dsc_t * draw_dsc)
 205:../../Middlewares/LVGL/GUI/lvgl/src/core/lv_obj_draw.c **** {
 206:../../Middlewares/LVGL/GUI/lvgl/src/core/lv_obj_draw.c ****     LV_PROFILER_DRAW_BEGIN;
 207:../../Middlewares/LVGL/GUI/lvgl/src/core/lv_obj_draw.c ****     draw_dsc->base.obj = obj;
 208:../../Middlewares/LVGL/GUI/lvgl/src/core/lv_obj_draw.c ****     draw_dsc->base.part = part;
 209:../../Middlewares/LVGL/GUI/lvgl/src/core/lv_obj_draw.c **** 
 210:../../Middlewares/LVGL/GUI/lvgl/src/core/lv_obj_draw.c ****     draw_dsc->opa = lv_obj_get_style_image_opa(obj, part);
 211:../../Middlewares/LVGL/GUI/lvgl/src/core/lv_obj_draw.c ****     if(draw_dsc->opa <= LV_OPA_MIN) {
 212:../../Middlewares/LVGL/GUI/lvgl/src/core/lv_obj_draw.c ****         LV_PROFILER_DRAW_END;
 213:../../Middlewares/LVGL/GUI/lvgl/src/core/lv_obj_draw.c ****         return;
 214:../../Middlewares/LVGL/GUI/lvgl/src/core/lv_obj_draw.c ****     }
 215:../../Middlewares/LVGL/GUI/lvgl/src/core/lv_obj_draw.c **** 
 216:../../Middlewares/LVGL/GUI/lvgl/src/core/lv_obj_draw.c ****     lv_opa_t opa = get_layer_opa(obj, part, &draw_dsc->base);
 217:../../Middlewares/LVGL/GUI/lvgl/src/core/lv_obj_draw.c ****     if(opa < LV_OPA_MAX) {
 218:../../Middlewares/LVGL/GUI/lvgl/src/core/lv_obj_draw.c ****         draw_dsc->opa = LV_OPA_MIX2(draw_dsc->opa, opa);
 219:../../Middlewares/LVGL/GUI/lvgl/src/core/lv_obj_draw.c ****     }
 220:../../Middlewares/LVGL/GUI/lvgl/src/core/lv_obj_draw.c ****     if(draw_dsc->opa <= LV_OPA_MIN) {
 221:../../Middlewares/LVGL/GUI/lvgl/src/core/lv_obj_draw.c ****         LV_PROFILER_DRAW_END;
 222:../../Middlewares/LVGL/GUI/lvgl/src/core/lv_obj_draw.c ****         return;
 223:../../Middlewares/LVGL/GUI/lvgl/src/core/lv_obj_draw.c ****     }
 224:../../Middlewares/LVGL/GUI/lvgl/src/core/lv_obj_draw.c **** 
 225:../../Middlewares/LVGL/GUI/lvgl/src/core/lv_obj_draw.c ****     draw_dsc->rotation = 0;
 226:../../Middlewares/LVGL/GUI/lvgl/src/core/lv_obj_draw.c ****     draw_dsc->scale_x = LV_SCALE_NONE;
 227:../../Middlewares/LVGL/GUI/lvgl/src/core/lv_obj_draw.c ****     draw_dsc->scale_y = LV_SCALE_NONE;
 228:../../Middlewares/LVGL/GUI/lvgl/src/core/lv_obj_draw.c ****     draw_dsc->pivot.x = lv_area_get_width(&obj->coords) / 2;
 229:../../Middlewares/LVGL/GUI/lvgl/src/core/lv_obj_draw.c ****     draw_dsc->pivot.y = lv_area_get_height(&obj->coords) / 2;
 230:../../Middlewares/LVGL/GUI/lvgl/src/core/lv_obj_draw.c **** 
 231:../../Middlewares/LVGL/GUI/lvgl/src/core/lv_obj_draw.c ****     lv_color_t recolor = lv_obj_get_style_image_recolor_filtered(obj, part);
 232:../../Middlewares/LVGL/GUI/lvgl/src/core/lv_obj_draw.c ****     lv_opa_t recolor_opa = lv_obj_get_style_image_recolor_opa(obj, part);
 233:../../Middlewares/LVGL/GUI/lvgl/src/core/lv_obj_draw.c ****     lv_color32_t result = image_apply_layer_recolor(obj, part, &draw_dsc->base, recolor, recolor_op
 234:../../Middlewares/LVGL/GUI/lvgl/src/core/lv_obj_draw.c ****     draw_dsc->recolor_opa = result.alpha;
 235:../../Middlewares/LVGL/GUI/lvgl/src/core/lv_obj_draw.c ****     draw_dsc->recolor = lv_color_make(result.red, result.green, result.blue);
 236:../../Middlewares/LVGL/GUI/lvgl/src/core/lv_obj_draw.c **** 
 237:../../Middlewares/LVGL/GUI/lvgl/src/core/lv_obj_draw.c ****     if(part != LV_PART_MAIN) draw_dsc->blend_mode = lv_obj_get_style_blend_mode(obj, part);
 238:../../Middlewares/LVGL/GUI/lvgl/src/core/lv_obj_draw.c **** 
 239:../../Middlewares/LVGL/GUI/lvgl/src/core/lv_obj_draw.c ****     LV_PROFILER_DRAW_END;
 240:../../Middlewares/LVGL/GUI/lvgl/src/core/lv_obj_draw.c **** }
 241:../../Middlewares/LVGL/GUI/lvgl/src/core/lv_obj_draw.c **** 
 242:../../Middlewares/LVGL/GUI/lvgl/src/core/lv_obj_draw.c **** void lv_obj_init_draw_line_dsc(lv_obj_t * obj, lv_part_t part, lv_draw_line_dsc_t * draw_dsc)
 243:../../Middlewares/LVGL/GUI/lvgl/src/core/lv_obj_draw.c **** {
 244:../../Middlewares/LVGL/GUI/lvgl/src/core/lv_obj_draw.c ****     LV_PROFILER_DRAW_BEGIN;
 245:../../Middlewares/LVGL/GUI/lvgl/src/core/lv_obj_draw.c ****     draw_dsc->base.obj = obj;
 246:../../Middlewares/LVGL/GUI/lvgl/src/core/lv_obj_draw.c ****     draw_dsc->base.part = part;
 247:../../Middlewares/LVGL/GUI/lvgl/src/core/lv_obj_draw.c **** 
 248:../../Middlewares/LVGL/GUI/lvgl/src/core/lv_obj_draw.c ****     draw_dsc->opa = lv_obj_get_style_line_opa(obj, part);
 249:../../Middlewares/LVGL/GUI/lvgl/src/core/lv_obj_draw.c ****     if(draw_dsc->opa <= LV_OPA_MIN) {
 250:../../Middlewares/LVGL/GUI/lvgl/src/core/lv_obj_draw.c ****         LV_PROFILER_DRAW_END;
 251:../../Middlewares/LVGL/GUI/lvgl/src/core/lv_obj_draw.c ****         return;
 252:../../Middlewares/LVGL/GUI/lvgl/src/core/lv_obj_draw.c ****     }
 253:../../Middlewares/LVGL/GUI/lvgl/src/core/lv_obj_draw.c **** 
 254:../../Middlewares/LVGL/GUI/lvgl/src/core/lv_obj_draw.c ****     lv_opa_t opa = get_layer_opa(obj, part, &draw_dsc->base);
 255:../../Middlewares/LVGL/GUI/lvgl/src/core/lv_obj_draw.c ****     if(opa < LV_OPA_MAX) {
 256:../../Middlewares/LVGL/GUI/lvgl/src/core/lv_obj_draw.c ****         draw_dsc->opa = LV_OPA_MIX2(draw_dsc->opa, opa);
 257:../../Middlewares/LVGL/GUI/lvgl/src/core/lv_obj_draw.c ****     }
 258:../../Middlewares/LVGL/GUI/lvgl/src/core/lv_obj_draw.c ****     if(draw_dsc->opa <= LV_OPA_MIN) {
 259:../../Middlewares/LVGL/GUI/lvgl/src/core/lv_obj_draw.c ****         LV_PROFILER_DRAW_END;
ARM GAS  C:\Users\28576\AppData\Local\Temp\cclWIAwm.s 			page 6


 260:../../Middlewares/LVGL/GUI/lvgl/src/core/lv_obj_draw.c ****         return;
 261:../../Middlewares/LVGL/GUI/lvgl/src/core/lv_obj_draw.c ****     }
 262:../../Middlewares/LVGL/GUI/lvgl/src/core/lv_obj_draw.c **** 
 263:../../Middlewares/LVGL/GUI/lvgl/src/core/lv_obj_draw.c ****     draw_dsc->width = lv_obj_get_style_line_width(obj, part);
 264:../../Middlewares/LVGL/GUI/lvgl/src/core/lv_obj_draw.c ****     if(draw_dsc->width == 0) {
 265:../../Middlewares/LVGL/GUI/lvgl/src/core/lv_obj_draw.c ****         LV_PROFILER_DRAW_END;
 266:../../Middlewares/LVGL/GUI/lvgl/src/core/lv_obj_draw.c ****         return;
 267:../../Middlewares/LVGL/GUI/lvgl/src/core/lv_obj_draw.c ****     }
 268:../../Middlewares/LVGL/GUI/lvgl/src/core/lv_obj_draw.c **** 
 269:../../Middlewares/LVGL/GUI/lvgl/src/core/lv_obj_draw.c ****     lv_color_t line_color = lv_obj_get_style_line_color_filtered(obj, part);
 270:../../Middlewares/LVGL/GUI/lvgl/src/core/lv_obj_draw.c ****     draw_dsc->color = normal_apply_layer_recolor(obj, part, &draw_dsc->base, line_color);
 271:../../Middlewares/LVGL/GUI/lvgl/src/core/lv_obj_draw.c **** 
 272:../../Middlewares/LVGL/GUI/lvgl/src/core/lv_obj_draw.c ****     draw_dsc->dash_width = lv_obj_get_style_line_dash_width(obj, part);
 273:../../Middlewares/LVGL/GUI/lvgl/src/core/lv_obj_draw.c ****     if(draw_dsc->dash_width) {
 274:../../Middlewares/LVGL/GUI/lvgl/src/core/lv_obj_draw.c ****         draw_dsc->dash_gap = lv_obj_get_style_line_dash_gap(obj, part);
 275:../../Middlewares/LVGL/GUI/lvgl/src/core/lv_obj_draw.c ****     }
 276:../../Middlewares/LVGL/GUI/lvgl/src/core/lv_obj_draw.c **** 
 277:../../Middlewares/LVGL/GUI/lvgl/src/core/lv_obj_draw.c ****     draw_dsc->round_start = lv_obj_get_style_line_rounded(obj, part);
 278:../../Middlewares/LVGL/GUI/lvgl/src/core/lv_obj_draw.c ****     draw_dsc->round_end = draw_dsc->round_start;
 279:../../Middlewares/LVGL/GUI/lvgl/src/core/lv_obj_draw.c **** 
 280:../../Middlewares/LVGL/GUI/lvgl/src/core/lv_obj_draw.c ****     LV_PROFILER_DRAW_END;
 281:../../Middlewares/LVGL/GUI/lvgl/src/core/lv_obj_draw.c **** }
 282:../../Middlewares/LVGL/GUI/lvgl/src/core/lv_obj_draw.c **** 
 283:../../Middlewares/LVGL/GUI/lvgl/src/core/lv_obj_draw.c **** void lv_obj_init_draw_arc_dsc(lv_obj_t * obj, lv_part_t part, lv_draw_arc_dsc_t * draw_dsc)
 284:../../Middlewares/LVGL/GUI/lvgl/src/core/lv_obj_draw.c **** {
 285:../../Middlewares/LVGL/GUI/lvgl/src/core/lv_obj_draw.c ****     LV_PROFILER_DRAW_BEGIN;
 286:../../Middlewares/LVGL/GUI/lvgl/src/core/lv_obj_draw.c ****     draw_dsc->base.obj = obj;
 287:../../Middlewares/LVGL/GUI/lvgl/src/core/lv_obj_draw.c ****     draw_dsc->base.part = part;
 288:../../Middlewares/LVGL/GUI/lvgl/src/core/lv_obj_draw.c **** 
 289:../../Middlewares/LVGL/GUI/lvgl/src/core/lv_obj_draw.c ****     draw_dsc->width = lv_obj_get_style_arc_width(obj, part);
 290:../../Middlewares/LVGL/GUI/lvgl/src/core/lv_obj_draw.c ****     if(draw_dsc->width == 0) {
 291:../../Middlewares/LVGL/GUI/lvgl/src/core/lv_obj_draw.c ****         LV_PROFILER_DRAW_END;
 292:../../Middlewares/LVGL/GUI/lvgl/src/core/lv_obj_draw.c ****         return;
 293:../../Middlewares/LVGL/GUI/lvgl/src/core/lv_obj_draw.c ****     }
 294:../../Middlewares/LVGL/GUI/lvgl/src/core/lv_obj_draw.c **** 
 295:../../Middlewares/LVGL/GUI/lvgl/src/core/lv_obj_draw.c ****     draw_dsc->opa = lv_obj_get_style_arc_opa(obj, part);
 296:../../Middlewares/LVGL/GUI/lvgl/src/core/lv_obj_draw.c ****     if(draw_dsc->opa <= LV_OPA_MIN) {
 297:../../Middlewares/LVGL/GUI/lvgl/src/core/lv_obj_draw.c ****         LV_PROFILER_DRAW_END;
 298:../../Middlewares/LVGL/GUI/lvgl/src/core/lv_obj_draw.c ****         return;
 299:../../Middlewares/LVGL/GUI/lvgl/src/core/lv_obj_draw.c ****     }
 300:../../Middlewares/LVGL/GUI/lvgl/src/core/lv_obj_draw.c **** 
 301:../../Middlewares/LVGL/GUI/lvgl/src/core/lv_obj_draw.c ****     lv_opa_t opa = get_layer_opa(obj, part, &draw_dsc->base);
 302:../../Middlewares/LVGL/GUI/lvgl/src/core/lv_obj_draw.c ****     if(opa < LV_OPA_MAX) {
 303:../../Middlewares/LVGL/GUI/lvgl/src/core/lv_obj_draw.c ****         draw_dsc->opa = LV_OPA_MIX2(draw_dsc->opa, opa);
 304:../../Middlewares/LVGL/GUI/lvgl/src/core/lv_obj_draw.c ****     }
 305:../../Middlewares/LVGL/GUI/lvgl/src/core/lv_obj_draw.c ****     if(draw_dsc->opa <= LV_OPA_MIN) {
 306:../../Middlewares/LVGL/GUI/lvgl/src/core/lv_obj_draw.c ****         LV_PROFILER_DRAW_END;
 307:../../Middlewares/LVGL/GUI/lvgl/src/core/lv_obj_draw.c ****         return;
 308:../../Middlewares/LVGL/GUI/lvgl/src/core/lv_obj_draw.c ****     }
 309:../../Middlewares/LVGL/GUI/lvgl/src/core/lv_obj_draw.c **** 
 310:../../Middlewares/LVGL/GUI/lvgl/src/core/lv_obj_draw.c ****     lv_color_t arc_color = lv_obj_get_style_arc_color_filtered(obj, part);
 311:../../Middlewares/LVGL/GUI/lvgl/src/core/lv_obj_draw.c ****     draw_dsc->color = normal_apply_layer_recolor(obj, part, &draw_dsc->base, arc_color);
 312:../../Middlewares/LVGL/GUI/lvgl/src/core/lv_obj_draw.c ****     draw_dsc->img_src = lv_obj_get_style_arc_image_src(obj, part);
 313:../../Middlewares/LVGL/GUI/lvgl/src/core/lv_obj_draw.c **** 
 314:../../Middlewares/LVGL/GUI/lvgl/src/core/lv_obj_draw.c ****     draw_dsc->rounded = lv_obj_get_style_arc_rounded(obj, part);
 315:../../Middlewares/LVGL/GUI/lvgl/src/core/lv_obj_draw.c ****     LV_PROFILER_DRAW_END;
 316:../../Middlewares/LVGL/GUI/lvgl/src/core/lv_obj_draw.c **** }
ARM GAS  C:\Users\28576\AppData\Local\Temp\cclWIAwm.s 			page 7


 317:../../Middlewares/LVGL/GUI/lvgl/src/core/lv_obj_draw.c **** 
 318:../../Middlewares/LVGL/GUI/lvgl/src/core/lv_obj_draw.c **** int32_t lv_obj_calculate_ext_draw_size(lv_obj_t * obj, lv_part_t part)
 319:../../Middlewares/LVGL/GUI/lvgl/src/core/lv_obj_draw.c **** {
 320:../../Middlewares/LVGL/GUI/lvgl/src/core/lv_obj_draw.c ****     LV_PROFILER_DRAW_BEGIN;
 321:../../Middlewares/LVGL/GUI/lvgl/src/core/lv_obj_draw.c ****     int32_t s = 0;
 322:../../Middlewares/LVGL/GUI/lvgl/src/core/lv_obj_draw.c **** 
 323:../../Middlewares/LVGL/GUI/lvgl/src/core/lv_obj_draw.c ****     int32_t sh_width = lv_obj_get_style_shadow_width(obj, part);
 324:../../Middlewares/LVGL/GUI/lvgl/src/core/lv_obj_draw.c ****     if(sh_width) {
 325:../../Middlewares/LVGL/GUI/lvgl/src/core/lv_obj_draw.c ****         lv_opa_t sh_opa = lv_obj_get_style_shadow_opa(obj, part);
 326:../../Middlewares/LVGL/GUI/lvgl/src/core/lv_obj_draw.c ****         if(sh_opa > LV_OPA_MIN) {
 327:../../Middlewares/LVGL/GUI/lvgl/src/core/lv_obj_draw.c ****             sh_width = sh_width / 2 + 1;    /*The blur adds only half width*/
 328:../../Middlewares/LVGL/GUI/lvgl/src/core/lv_obj_draw.c ****             sh_width += lv_obj_get_style_shadow_spread(obj, part);
 329:../../Middlewares/LVGL/GUI/lvgl/src/core/lv_obj_draw.c ****             int32_t sh_ofs_x = lv_obj_get_style_shadow_offset_x(obj, part);
 330:../../Middlewares/LVGL/GUI/lvgl/src/core/lv_obj_draw.c ****             int32_t sh_ofs_y = lv_obj_get_style_shadow_offset_y(obj, part);
 331:../../Middlewares/LVGL/GUI/lvgl/src/core/lv_obj_draw.c ****             sh_width += LV_MAX(LV_ABS(sh_ofs_x), LV_ABS(sh_ofs_y));
 332:../../Middlewares/LVGL/GUI/lvgl/src/core/lv_obj_draw.c ****             s = LV_MAX(s, sh_width);
 333:../../Middlewares/LVGL/GUI/lvgl/src/core/lv_obj_draw.c ****         }
 334:../../Middlewares/LVGL/GUI/lvgl/src/core/lv_obj_draw.c ****     }
 335:../../Middlewares/LVGL/GUI/lvgl/src/core/lv_obj_draw.c **** 
 336:../../Middlewares/LVGL/GUI/lvgl/src/core/lv_obj_draw.c ****     int32_t outline_width = lv_obj_get_style_outline_width(obj, part);
 337:../../Middlewares/LVGL/GUI/lvgl/src/core/lv_obj_draw.c ****     if(outline_width) {
 338:../../Middlewares/LVGL/GUI/lvgl/src/core/lv_obj_draw.c ****         lv_opa_t outline_opa = lv_obj_get_style_outline_opa(obj, part);
 339:../../Middlewares/LVGL/GUI/lvgl/src/core/lv_obj_draw.c ****         if(outline_opa > LV_OPA_MIN) {
 340:../../Middlewares/LVGL/GUI/lvgl/src/core/lv_obj_draw.c ****             int32_t outline_pad = lv_obj_get_style_outline_pad(obj, part);
 341:../../Middlewares/LVGL/GUI/lvgl/src/core/lv_obj_draw.c ****             s = LV_MAX(s, outline_pad + outline_width);
 342:../../Middlewares/LVGL/GUI/lvgl/src/core/lv_obj_draw.c ****         }
 343:../../Middlewares/LVGL/GUI/lvgl/src/core/lv_obj_draw.c ****     }
 344:../../Middlewares/LVGL/GUI/lvgl/src/core/lv_obj_draw.c **** 
 345:../../Middlewares/LVGL/GUI/lvgl/src/core/lv_obj_draw.c ****     int32_t w = lv_obj_get_style_transform_width(obj, part);
 346:../../Middlewares/LVGL/GUI/lvgl/src/core/lv_obj_draw.c ****     int32_t h = lv_obj_get_style_transform_height(obj, part);
 347:../../Middlewares/LVGL/GUI/lvgl/src/core/lv_obj_draw.c ****     int32_t wh = LV_MAX(w, h);
 348:../../Middlewares/LVGL/GUI/lvgl/src/core/lv_obj_draw.c ****     if(wh > 0) s += wh;
 349:../../Middlewares/LVGL/GUI/lvgl/src/core/lv_obj_draw.c **** 
 350:../../Middlewares/LVGL/GUI/lvgl/src/core/lv_obj_draw.c ****     LV_PROFILER_DRAW_END;
 351:../../Middlewares/LVGL/GUI/lvgl/src/core/lv_obj_draw.c ****     return s;
 352:../../Middlewares/LVGL/GUI/lvgl/src/core/lv_obj_draw.c **** }
 353:../../Middlewares/LVGL/GUI/lvgl/src/core/lv_obj_draw.c **** 
 354:../../Middlewares/LVGL/GUI/lvgl/src/core/lv_obj_draw.c **** void lv_obj_refresh_ext_draw_size(lv_obj_t * obj)
 355:../../Middlewares/LVGL/GUI/lvgl/src/core/lv_obj_draw.c **** {
 356:../../Middlewares/LVGL/GUI/lvgl/src/core/lv_obj_draw.c ****     LV_PROFILER_DRAW_BEGIN;
 357:../../Middlewares/LVGL/GUI/lvgl/src/core/lv_obj_draw.c ****     LV_ASSERT_OBJ(obj, MY_CLASS);
 358:../../Middlewares/LVGL/GUI/lvgl/src/core/lv_obj_draw.c **** 
 359:../../Middlewares/LVGL/GUI/lvgl/src/core/lv_obj_draw.c ****     int32_t s_old = lv_obj_get_ext_draw_size(obj);
 360:../../Middlewares/LVGL/GUI/lvgl/src/core/lv_obj_draw.c ****     int32_t s_new = 0;
 361:../../Middlewares/LVGL/GUI/lvgl/src/core/lv_obj_draw.c ****     lv_obj_send_event(obj, LV_EVENT_REFR_EXT_DRAW_SIZE, &s_new);
 362:../../Middlewares/LVGL/GUI/lvgl/src/core/lv_obj_draw.c **** 
 363:../../Middlewares/LVGL/GUI/lvgl/src/core/lv_obj_draw.c ****     /*Store the result if the special attrs already allocated*/
 364:../../Middlewares/LVGL/GUI/lvgl/src/core/lv_obj_draw.c ****     if(obj->spec_attr) {
 365:../../Middlewares/LVGL/GUI/lvgl/src/core/lv_obj_draw.c ****         obj->spec_attr->ext_draw_size = s_new;
 366:../../Middlewares/LVGL/GUI/lvgl/src/core/lv_obj_draw.c ****     }
 367:../../Middlewares/LVGL/GUI/lvgl/src/core/lv_obj_draw.c ****     /*Allocate spec. attrs. only if the result is not zero.
 368:../../Middlewares/LVGL/GUI/lvgl/src/core/lv_obj_draw.c ****      *Zero is the default value if the spec. attr. are not defined.*/
 369:../../Middlewares/LVGL/GUI/lvgl/src/core/lv_obj_draw.c ****     else if(s_new != 0) {
 370:../../Middlewares/LVGL/GUI/lvgl/src/core/lv_obj_draw.c ****         lv_obj_allocate_spec_attr(obj);
 371:../../Middlewares/LVGL/GUI/lvgl/src/core/lv_obj_draw.c ****         obj->spec_attr->ext_draw_size = s_new;
 372:../../Middlewares/LVGL/GUI/lvgl/src/core/lv_obj_draw.c ****     }
 373:../../Middlewares/LVGL/GUI/lvgl/src/core/lv_obj_draw.c **** 
ARM GAS  C:\Users\28576\AppData\Local\Temp\cclWIAwm.s 			page 8


 374:../../Middlewares/LVGL/GUI/lvgl/src/core/lv_obj_draw.c ****     if(s_new != s_old) lv_obj_invalidate(obj);
 375:../../Middlewares/LVGL/GUI/lvgl/src/core/lv_obj_draw.c ****     LV_PROFILER_DRAW_END;
 376:../../Middlewares/LVGL/GUI/lvgl/src/core/lv_obj_draw.c **** }
 377:../../Middlewares/LVGL/GUI/lvgl/src/core/lv_obj_draw.c **** 
 378:../../Middlewares/LVGL/GUI/lvgl/src/core/lv_obj_draw.c **** int32_t lv_obj_get_ext_draw_size(const lv_obj_t * obj)
 379:../../Middlewares/LVGL/GUI/lvgl/src/core/lv_obj_draw.c **** {
 380:../../Middlewares/LVGL/GUI/lvgl/src/core/lv_obj_draw.c ****     if(obj->spec_attr) return obj->spec_attr->ext_draw_size;
 381:../../Middlewares/LVGL/GUI/lvgl/src/core/lv_obj_draw.c ****     else return 0;
 382:../../Middlewares/LVGL/GUI/lvgl/src/core/lv_obj_draw.c **** }
 383:../../Middlewares/LVGL/GUI/lvgl/src/core/lv_obj_draw.c **** 
 384:../../Middlewares/LVGL/GUI/lvgl/src/core/lv_obj_draw.c **** lv_layer_type_t lv_obj_get_layer_type(const lv_obj_t * obj)
 385:../../Middlewares/LVGL/GUI/lvgl/src/core/lv_obj_draw.c **** {
 386:../../Middlewares/LVGL/GUI/lvgl/src/core/lv_obj_draw.c **** 
 387:../../Middlewares/LVGL/GUI/lvgl/src/core/lv_obj_draw.c ****     if(obj->spec_attr) return (lv_layer_type_t)obj->spec_attr->layer_type;
 388:../../Middlewares/LVGL/GUI/lvgl/src/core/lv_obj_draw.c ****     else return LV_LAYER_TYPE_NONE;
 389:../../Middlewares/LVGL/GUI/lvgl/src/core/lv_obj_draw.c **** }
 390:../../Middlewares/LVGL/GUI/lvgl/src/core/lv_obj_draw.c **** 
 391:../../Middlewares/LVGL/GUI/lvgl/src/core/lv_obj_draw.c **** /**********************
 392:../../Middlewares/LVGL/GUI/lvgl/src/core/lv_obj_draw.c ****  *   STATIC FUNCTIONS
 393:../../Middlewares/LVGL/GUI/lvgl/src/core/lv_obj_draw.c ****  **********************/
 394:../../Middlewares/LVGL/GUI/lvgl/src/core/lv_obj_draw.c **** 
 395:../../Middlewares/LVGL/GUI/lvgl/src/core/lv_obj_draw.c **** static inline lv_opa_t get_layer_opa(const lv_obj_t * obj, lv_part_t part, const lv_draw_dsc_base_t
 396:../../Middlewares/LVGL/GUI/lvgl/src/core/lv_obj_draw.c **** {
  28              		.loc 1 396 1 view -0
  29              		.cfi_startproc
  30              		@ args = 0, pretend = 0, frame = 8
  31              		@ frame_needed = 0, uses_anonymous_args = 0
  32              		.loc 1 396 1 is_stmt 0 view .LVU1
  33 0000 10B5     		push	{r4, lr}
  34              	.LCFI0:
  35              		.cfi_def_cfa_offset 8
  36              		.cfi_offset 4, -8
  37              		.cfi_offset 14, -4
  38 0002 82B0     		sub	sp, sp, #8
  39              	.LCFI1:
  40              		.cfi_def_cfa_offset 16
 397:../../Middlewares/LVGL/GUI/lvgl/src/core/lv_obj_draw.c ****     if(base_dsc->layer) {
  41              		.loc 1 397 5 is_stmt 1 view .LVU2
  42              		.loc 1 397 16 is_stmt 0 view .LVU3
  43 0004 1369     		ldr	r3, [r2, #16]
  44              		.loc 1 397 7 view .LVU4
  45 0006 7BB1     		cbz	r3, .L2
 398:../../Middlewares/LVGL/GUI/lvgl/src/core/lv_obj_draw.c ****         /* Accessing the layer opa directly is faster than using get style opa recursive */
 399:../../Middlewares/LVGL/GUI/lvgl/src/core/lv_obj_draw.c ****         if(part == LV_PART_MAIN) {
  46              		.loc 1 399 9 is_stmt 1 view .LVU5
  47              		.loc 1 399 11 is_stmt 0 view .LVU6
  48 0008 19B9     		cbnz	r1, .L3
 400:../../Middlewares/LVGL/GUI/lvgl/src/core/lv_obj_draw.c ****             return base_dsc->layer->opa;
  49              		.loc 1 400 13 is_stmt 1 view .LVU7
  50              		.loc 1 400 35 is_stmt 0 view .LVU8
  51 000a 93F83800 		ldrb	r0, [r3, #56]	@ zero_extendqisi2
  52              	.LVL1:
  53              	.L4:
 401:../../Middlewares/LVGL/GUI/lvgl/src/core/lv_obj_draw.c ****         }
 402:../../Middlewares/LVGL/GUI/lvgl/src/core/lv_obj_draw.c **** 
 403:../../Middlewares/LVGL/GUI/lvgl/src/core/lv_obj_draw.c ****         return LV_OPA_MIX2(base_dsc->layer->opa, lv_obj_get_style_opa(obj, part));
 404:../../Middlewares/LVGL/GUI/lvgl/src/core/lv_obj_draw.c ****     }
ARM GAS  C:\Users\28576\AppData\Local\Temp\cclWIAwm.s 			page 9


 405:../../Middlewares/LVGL/GUI/lvgl/src/core/lv_obj_draw.c **** 
 406:../../Middlewares/LVGL/GUI/lvgl/src/core/lv_obj_draw.c ****     /* fallback to old recursive style opa */
 407:../../Middlewares/LVGL/GUI/lvgl/src/core/lv_obj_draw.c ****     return lv_obj_get_style_opa_recursive(obj, part);
 408:../../Middlewares/LVGL/GUI/lvgl/src/core/lv_obj_draw.c **** }
  54              		.loc 1 408 1 view .LVU9
  55 000e 02B0     		add	sp, sp, #8
  56              	.LCFI2:
  57              		.cfi_remember_state
  58              		.cfi_def_cfa_offset 8
  59              		@ sp needed
  60 0010 10BD     		pop	{r4, pc}
  61              	.LVL2:
  62              	.L3:
  63              	.LCFI3:
  64              		.cfi_restore_state
 403:../../Middlewares/LVGL/GUI/lvgl/src/core/lv_obj_draw.c ****     }
  65              		.loc 1 403 9 is_stmt 1 view .LVU10
 403:../../Middlewares/LVGL/GUI/lvgl/src/core/lv_obj_draw.c ****     }
  66              		.loc 1 403 16 is_stmt 0 view .LVU11
  67 0012 93F83840 		ldrb	r4, [r3, #56]	@ zero_extendqisi2
  68              	.LVL3:
  69              	.LBB119:
  70              	.LBI119:
  71              		.file 2 "../../Middlewares/LVGL/GUI/lvgl/src/core/lv_obj_style_gen.h"
   1:../../Middlewares/LVGL/GUI/lvgl/src/core/lv_obj_style_gen.h **** 
   2:../../Middlewares/LVGL/GUI/lvgl/src/core/lv_obj_style_gen.h **** /*
   3:../../Middlewares/LVGL/GUI/lvgl/src/core/lv_obj_style_gen.h ****  **********************************************************************
   4:../../Middlewares/LVGL/GUI/lvgl/src/core/lv_obj_style_gen.h ****  *                            DO NOT EDIT
   5:../../Middlewares/LVGL/GUI/lvgl/src/core/lv_obj_style_gen.h ****  * This file is automatically generated by "style_api_gen.py"
   6:../../Middlewares/LVGL/GUI/lvgl/src/core/lv_obj_style_gen.h ****  **********************************************************************
   7:../../Middlewares/LVGL/GUI/lvgl/src/core/lv_obj_style_gen.h ****  */
   8:../../Middlewares/LVGL/GUI/lvgl/src/core/lv_obj_style_gen.h **** 
   9:../../Middlewares/LVGL/GUI/lvgl/src/core/lv_obj_style_gen.h **** 
  10:../../Middlewares/LVGL/GUI/lvgl/src/core/lv_obj_style_gen.h **** #ifndef LV_OBJ_STYLE_GEN_H
  11:../../Middlewares/LVGL/GUI/lvgl/src/core/lv_obj_style_gen.h **** #define LV_OBJ_STYLE_GEN_H
  12:../../Middlewares/LVGL/GUI/lvgl/src/core/lv_obj_style_gen.h **** 
  13:../../Middlewares/LVGL/GUI/lvgl/src/core/lv_obj_style_gen.h **** #ifdef __cplusplus
  14:../../Middlewares/LVGL/GUI/lvgl/src/core/lv_obj_style_gen.h **** extern "C" {
  15:../../Middlewares/LVGL/GUI/lvgl/src/core/lv_obj_style_gen.h **** #endif
  16:../../Middlewares/LVGL/GUI/lvgl/src/core/lv_obj_style_gen.h **** 
  17:../../Middlewares/LVGL/GUI/lvgl/src/core/lv_obj_style_gen.h **** #include "../misc/lv_area.h"
  18:../../Middlewares/LVGL/GUI/lvgl/src/core/lv_obj_style_gen.h **** #include "../misc/lv_style.h"
  19:../../Middlewares/LVGL/GUI/lvgl/src/core/lv_obj_style_gen.h **** #include "../core/lv_obj_style.h"
  20:../../Middlewares/LVGL/GUI/lvgl/src/core/lv_obj_style_gen.h **** #include "../misc/lv_types.h"
  21:../../Middlewares/LVGL/GUI/lvgl/src/core/lv_obj_style_gen.h **** 
  22:../../Middlewares/LVGL/GUI/lvgl/src/core/lv_obj_style_gen.h **** static inline int32_t lv_obj_get_style_width(const lv_obj_t * obj, lv_part_t part)
  23:../../Middlewares/LVGL/GUI/lvgl/src/core/lv_obj_style_gen.h **** {
  24:../../Middlewares/LVGL/GUI/lvgl/src/core/lv_obj_style_gen.h ****     lv_style_value_t v = lv_obj_get_style_prop(obj, part, LV_STYLE_WIDTH);
  25:../../Middlewares/LVGL/GUI/lvgl/src/core/lv_obj_style_gen.h ****     return (int32_t)v.num;
  26:../../Middlewares/LVGL/GUI/lvgl/src/core/lv_obj_style_gen.h **** }
  27:../../Middlewares/LVGL/GUI/lvgl/src/core/lv_obj_style_gen.h **** 
  28:../../Middlewares/LVGL/GUI/lvgl/src/core/lv_obj_style_gen.h **** static inline int32_t lv_obj_get_style_min_width(const lv_obj_t * obj, lv_part_t part)
  29:../../Middlewares/LVGL/GUI/lvgl/src/core/lv_obj_style_gen.h **** {
  30:../../Middlewares/LVGL/GUI/lvgl/src/core/lv_obj_style_gen.h ****     lv_style_value_t v = lv_obj_get_style_prop(obj, part, LV_STYLE_MIN_WIDTH);
  31:../../Middlewares/LVGL/GUI/lvgl/src/core/lv_obj_style_gen.h ****     return (int32_t)v.num;
  32:../../Middlewares/LVGL/GUI/lvgl/src/core/lv_obj_style_gen.h **** }
  33:../../Middlewares/LVGL/GUI/lvgl/src/core/lv_obj_style_gen.h **** 
ARM GAS  C:\Users\28576\AppData\Local\Temp\cclWIAwm.s 			page 10


  34:../../Middlewares/LVGL/GUI/lvgl/src/core/lv_obj_style_gen.h **** static inline int32_t lv_obj_get_style_max_width(const lv_obj_t * obj, lv_part_t part)
  35:../../Middlewares/LVGL/GUI/lvgl/src/core/lv_obj_style_gen.h **** {
  36:../../Middlewares/LVGL/GUI/lvgl/src/core/lv_obj_style_gen.h ****     lv_style_value_t v = lv_obj_get_style_prop(obj, part, LV_STYLE_MAX_WIDTH);
  37:../../Middlewares/LVGL/GUI/lvgl/src/core/lv_obj_style_gen.h ****     return (int32_t)v.num;
  38:../../Middlewares/LVGL/GUI/lvgl/src/core/lv_obj_style_gen.h **** }
  39:../../Middlewares/LVGL/GUI/lvgl/src/core/lv_obj_style_gen.h **** 
  40:../../Middlewares/LVGL/GUI/lvgl/src/core/lv_obj_style_gen.h **** static inline int32_t lv_obj_get_style_height(const lv_obj_t * obj, lv_part_t part)
  41:../../Middlewares/LVGL/GUI/lvgl/src/core/lv_obj_style_gen.h **** {
  42:../../Middlewares/LVGL/GUI/lvgl/src/core/lv_obj_style_gen.h ****     lv_style_value_t v = lv_obj_get_style_prop(obj, part, LV_STYLE_HEIGHT);
  43:../../Middlewares/LVGL/GUI/lvgl/src/core/lv_obj_style_gen.h ****     return (int32_t)v.num;
  44:../../Middlewares/LVGL/GUI/lvgl/src/core/lv_obj_style_gen.h **** }
  45:../../Middlewares/LVGL/GUI/lvgl/src/core/lv_obj_style_gen.h **** 
  46:../../Middlewares/LVGL/GUI/lvgl/src/core/lv_obj_style_gen.h **** static inline int32_t lv_obj_get_style_min_height(const lv_obj_t * obj, lv_part_t part)
  47:../../Middlewares/LVGL/GUI/lvgl/src/core/lv_obj_style_gen.h **** {
  48:../../Middlewares/LVGL/GUI/lvgl/src/core/lv_obj_style_gen.h ****     lv_style_value_t v = lv_obj_get_style_prop(obj, part, LV_STYLE_MIN_HEIGHT);
  49:../../Middlewares/LVGL/GUI/lvgl/src/core/lv_obj_style_gen.h ****     return (int32_t)v.num;
  50:../../Middlewares/LVGL/GUI/lvgl/src/core/lv_obj_style_gen.h **** }
  51:../../Middlewares/LVGL/GUI/lvgl/src/core/lv_obj_style_gen.h **** 
  52:../../Middlewares/LVGL/GUI/lvgl/src/core/lv_obj_style_gen.h **** static inline int32_t lv_obj_get_style_max_height(const lv_obj_t * obj, lv_part_t part)
  53:../../Middlewares/LVGL/GUI/lvgl/src/core/lv_obj_style_gen.h **** {
  54:../../Middlewares/LVGL/GUI/lvgl/src/core/lv_obj_style_gen.h ****     lv_style_value_t v = lv_obj_get_style_prop(obj, part, LV_STYLE_MAX_HEIGHT);
  55:../../Middlewares/LVGL/GUI/lvgl/src/core/lv_obj_style_gen.h ****     return (int32_t)v.num;
  56:../../Middlewares/LVGL/GUI/lvgl/src/core/lv_obj_style_gen.h **** }
  57:../../Middlewares/LVGL/GUI/lvgl/src/core/lv_obj_style_gen.h **** 
  58:../../Middlewares/LVGL/GUI/lvgl/src/core/lv_obj_style_gen.h **** static inline int32_t lv_obj_get_style_length(const lv_obj_t * obj, lv_part_t part)
  59:../../Middlewares/LVGL/GUI/lvgl/src/core/lv_obj_style_gen.h **** {
  60:../../Middlewares/LVGL/GUI/lvgl/src/core/lv_obj_style_gen.h ****     lv_style_value_t v = lv_obj_get_style_prop(obj, part, LV_STYLE_LENGTH);
  61:../../Middlewares/LVGL/GUI/lvgl/src/core/lv_obj_style_gen.h ****     return (int32_t)v.num;
  62:../../Middlewares/LVGL/GUI/lvgl/src/core/lv_obj_style_gen.h **** }
  63:../../Middlewares/LVGL/GUI/lvgl/src/core/lv_obj_style_gen.h **** 
  64:../../Middlewares/LVGL/GUI/lvgl/src/core/lv_obj_style_gen.h **** static inline int32_t lv_obj_get_style_x(const lv_obj_t * obj, lv_part_t part)
  65:../../Middlewares/LVGL/GUI/lvgl/src/core/lv_obj_style_gen.h **** {
  66:../../Middlewares/LVGL/GUI/lvgl/src/core/lv_obj_style_gen.h ****     lv_style_value_t v = lv_obj_get_style_prop(obj, part, LV_STYLE_X);
  67:../../Middlewares/LVGL/GUI/lvgl/src/core/lv_obj_style_gen.h ****     return (int32_t)v.num;
  68:../../Middlewares/LVGL/GUI/lvgl/src/core/lv_obj_style_gen.h **** }
  69:../../Middlewares/LVGL/GUI/lvgl/src/core/lv_obj_style_gen.h **** 
  70:../../Middlewares/LVGL/GUI/lvgl/src/core/lv_obj_style_gen.h **** static inline int32_t lv_obj_get_style_y(const lv_obj_t * obj, lv_part_t part)
  71:../../Middlewares/LVGL/GUI/lvgl/src/core/lv_obj_style_gen.h **** {
  72:../../Middlewares/LVGL/GUI/lvgl/src/core/lv_obj_style_gen.h ****     lv_style_value_t v = lv_obj_get_style_prop(obj, part, LV_STYLE_Y);
  73:../../Middlewares/LVGL/GUI/lvgl/src/core/lv_obj_style_gen.h ****     return (int32_t)v.num;
  74:../../Middlewares/LVGL/GUI/lvgl/src/core/lv_obj_style_gen.h **** }
  75:../../Middlewares/LVGL/GUI/lvgl/src/core/lv_obj_style_gen.h **** 
  76:../../Middlewares/LVGL/GUI/lvgl/src/core/lv_obj_style_gen.h **** static inline lv_align_t lv_obj_get_style_align(const lv_obj_t * obj, lv_part_t part)
  77:../../Middlewares/LVGL/GUI/lvgl/src/core/lv_obj_style_gen.h **** {
  78:../../Middlewares/LVGL/GUI/lvgl/src/core/lv_obj_style_gen.h ****     lv_style_value_t v = lv_obj_get_style_prop(obj, part, LV_STYLE_ALIGN);
  79:../../Middlewares/LVGL/GUI/lvgl/src/core/lv_obj_style_gen.h ****     return (lv_align_t)v.num;
  80:../../Middlewares/LVGL/GUI/lvgl/src/core/lv_obj_style_gen.h **** }
  81:../../Middlewares/LVGL/GUI/lvgl/src/core/lv_obj_style_gen.h **** 
  82:../../Middlewares/LVGL/GUI/lvgl/src/core/lv_obj_style_gen.h **** static inline int32_t lv_obj_get_style_transform_width(const lv_obj_t * obj, lv_part_t part)
  83:../../Middlewares/LVGL/GUI/lvgl/src/core/lv_obj_style_gen.h **** {
  84:../../Middlewares/LVGL/GUI/lvgl/src/core/lv_obj_style_gen.h ****     lv_style_value_t v = lv_obj_get_style_prop(obj, part, LV_STYLE_TRANSFORM_WIDTH);
  85:../../Middlewares/LVGL/GUI/lvgl/src/core/lv_obj_style_gen.h ****     return (int32_t)v.num;
  86:../../Middlewares/LVGL/GUI/lvgl/src/core/lv_obj_style_gen.h **** }
  87:../../Middlewares/LVGL/GUI/lvgl/src/core/lv_obj_style_gen.h **** 
  88:../../Middlewares/LVGL/GUI/lvgl/src/core/lv_obj_style_gen.h **** static inline int32_t lv_obj_get_style_transform_height(const lv_obj_t * obj, lv_part_t part)
  89:../../Middlewares/LVGL/GUI/lvgl/src/core/lv_obj_style_gen.h **** {
  90:../../Middlewares/LVGL/GUI/lvgl/src/core/lv_obj_style_gen.h ****     lv_style_value_t v = lv_obj_get_style_prop(obj, part, LV_STYLE_TRANSFORM_HEIGHT);
ARM GAS  C:\Users\28576\AppData\Local\Temp\cclWIAwm.s 			page 11


  91:../../Middlewares/LVGL/GUI/lvgl/src/core/lv_obj_style_gen.h ****     return (int32_t)v.num;
  92:../../Middlewares/LVGL/GUI/lvgl/src/core/lv_obj_style_gen.h **** }
  93:../../Middlewares/LVGL/GUI/lvgl/src/core/lv_obj_style_gen.h **** 
  94:../../Middlewares/LVGL/GUI/lvgl/src/core/lv_obj_style_gen.h **** static inline int32_t lv_obj_get_style_translate_x(const lv_obj_t * obj, lv_part_t part)
  95:../../Middlewares/LVGL/GUI/lvgl/src/core/lv_obj_style_gen.h **** {
  96:../../Middlewares/LVGL/GUI/lvgl/src/core/lv_obj_style_gen.h ****     lv_style_value_t v = lv_obj_get_style_prop(obj, part, LV_STYLE_TRANSLATE_X);
  97:../../Middlewares/LVGL/GUI/lvgl/src/core/lv_obj_style_gen.h ****     return (int32_t)v.num;
  98:../../Middlewares/LVGL/GUI/lvgl/src/core/lv_obj_style_gen.h **** }
  99:../../Middlewares/LVGL/GUI/lvgl/src/core/lv_obj_style_gen.h **** 
 100:../../Middlewares/LVGL/GUI/lvgl/src/core/lv_obj_style_gen.h **** static inline int32_t lv_obj_get_style_translate_y(const lv_obj_t * obj, lv_part_t part)
 101:../../Middlewares/LVGL/GUI/lvgl/src/core/lv_obj_style_gen.h **** {
 102:../../Middlewares/LVGL/GUI/lvgl/src/core/lv_obj_style_gen.h ****     lv_style_value_t v = lv_obj_get_style_prop(obj, part, LV_STYLE_TRANSLATE_Y);
 103:../../Middlewares/LVGL/GUI/lvgl/src/core/lv_obj_style_gen.h ****     return (int32_t)v.num;
 104:../../Middlewares/LVGL/GUI/lvgl/src/core/lv_obj_style_gen.h **** }
 105:../../Middlewares/LVGL/GUI/lvgl/src/core/lv_obj_style_gen.h **** 
 106:../../Middlewares/LVGL/GUI/lvgl/src/core/lv_obj_style_gen.h **** static inline int32_t lv_obj_get_style_translate_radial(const lv_obj_t * obj, lv_part_t part)
 107:../../Middlewares/LVGL/GUI/lvgl/src/core/lv_obj_style_gen.h **** {
 108:../../Middlewares/LVGL/GUI/lvgl/src/core/lv_obj_style_gen.h ****     lv_style_value_t v = lv_obj_get_style_prop(obj, part, LV_STYLE_TRANSLATE_RADIAL);
 109:../../Middlewares/LVGL/GUI/lvgl/src/core/lv_obj_style_gen.h ****     return (int32_t)v.num;
 110:../../Middlewares/LVGL/GUI/lvgl/src/core/lv_obj_style_gen.h **** }
 111:../../Middlewares/LVGL/GUI/lvgl/src/core/lv_obj_style_gen.h **** 
 112:../../Middlewares/LVGL/GUI/lvgl/src/core/lv_obj_style_gen.h **** static inline int32_t lv_obj_get_style_transform_scale_x(const lv_obj_t * obj, lv_part_t part)
 113:../../Middlewares/LVGL/GUI/lvgl/src/core/lv_obj_style_gen.h **** {
 114:../../Middlewares/LVGL/GUI/lvgl/src/core/lv_obj_style_gen.h ****     lv_style_value_t v = lv_obj_get_style_prop(obj, part, LV_STYLE_TRANSFORM_SCALE_X);
 115:../../Middlewares/LVGL/GUI/lvgl/src/core/lv_obj_style_gen.h ****     return (int32_t)v.num;
 116:../../Middlewares/LVGL/GUI/lvgl/src/core/lv_obj_style_gen.h **** }
 117:../../Middlewares/LVGL/GUI/lvgl/src/core/lv_obj_style_gen.h **** 
 118:../../Middlewares/LVGL/GUI/lvgl/src/core/lv_obj_style_gen.h **** static inline int32_t lv_obj_get_style_transform_scale_y(const lv_obj_t * obj, lv_part_t part)
 119:../../Middlewares/LVGL/GUI/lvgl/src/core/lv_obj_style_gen.h **** {
 120:../../Middlewares/LVGL/GUI/lvgl/src/core/lv_obj_style_gen.h ****     lv_style_value_t v = lv_obj_get_style_prop(obj, part, LV_STYLE_TRANSFORM_SCALE_Y);
 121:../../Middlewares/LVGL/GUI/lvgl/src/core/lv_obj_style_gen.h ****     return (int32_t)v.num;
 122:../../Middlewares/LVGL/GUI/lvgl/src/core/lv_obj_style_gen.h **** }
 123:../../Middlewares/LVGL/GUI/lvgl/src/core/lv_obj_style_gen.h **** 
 124:../../Middlewares/LVGL/GUI/lvgl/src/core/lv_obj_style_gen.h **** static inline int32_t lv_obj_get_style_transform_rotation(const lv_obj_t * obj, lv_part_t part)
 125:../../Middlewares/LVGL/GUI/lvgl/src/core/lv_obj_style_gen.h **** {
 126:../../Middlewares/LVGL/GUI/lvgl/src/core/lv_obj_style_gen.h ****     lv_style_value_t v = lv_obj_get_style_prop(obj, part, LV_STYLE_TRANSFORM_ROTATION);
 127:../../Middlewares/LVGL/GUI/lvgl/src/core/lv_obj_style_gen.h ****     return (int32_t)v.num;
 128:../../Middlewares/LVGL/GUI/lvgl/src/core/lv_obj_style_gen.h **** }
 129:../../Middlewares/LVGL/GUI/lvgl/src/core/lv_obj_style_gen.h **** 
 130:../../Middlewares/LVGL/GUI/lvgl/src/core/lv_obj_style_gen.h **** static inline int32_t lv_obj_get_style_transform_pivot_x(const lv_obj_t * obj, lv_part_t part)
 131:../../Middlewares/LVGL/GUI/lvgl/src/core/lv_obj_style_gen.h **** {
 132:../../Middlewares/LVGL/GUI/lvgl/src/core/lv_obj_style_gen.h ****     lv_style_value_t v = lv_obj_get_style_prop(obj, part, LV_STYLE_TRANSFORM_PIVOT_X);
 133:../../Middlewares/LVGL/GUI/lvgl/src/core/lv_obj_style_gen.h ****     return (int32_t)v.num;
 134:../../Middlewares/LVGL/GUI/lvgl/src/core/lv_obj_style_gen.h **** }
 135:../../Middlewares/LVGL/GUI/lvgl/src/core/lv_obj_style_gen.h **** 
 136:../../Middlewares/LVGL/GUI/lvgl/src/core/lv_obj_style_gen.h **** static inline int32_t lv_obj_get_style_transform_pivot_y(const lv_obj_t * obj, lv_part_t part)
 137:../../Middlewares/LVGL/GUI/lvgl/src/core/lv_obj_style_gen.h **** {
 138:../../Middlewares/LVGL/GUI/lvgl/src/core/lv_obj_style_gen.h ****     lv_style_value_t v = lv_obj_get_style_prop(obj, part, LV_STYLE_TRANSFORM_PIVOT_Y);
 139:../../Middlewares/LVGL/GUI/lvgl/src/core/lv_obj_style_gen.h ****     return (int32_t)v.num;
 140:../../Middlewares/LVGL/GUI/lvgl/src/core/lv_obj_style_gen.h **** }
 141:../../Middlewares/LVGL/GUI/lvgl/src/core/lv_obj_style_gen.h **** 
 142:../../Middlewares/LVGL/GUI/lvgl/src/core/lv_obj_style_gen.h **** static inline int32_t lv_obj_get_style_transform_skew_x(const lv_obj_t * obj, lv_part_t part)
 143:../../Middlewares/LVGL/GUI/lvgl/src/core/lv_obj_style_gen.h **** {
 144:../../Middlewares/LVGL/GUI/lvgl/src/core/lv_obj_style_gen.h ****     lv_style_value_t v = lv_obj_get_style_prop(obj, part, LV_STYLE_TRANSFORM_SKEW_X);
 145:../../Middlewares/LVGL/GUI/lvgl/src/core/lv_obj_style_gen.h ****     return (int32_t)v.num;
 146:../../Middlewares/LVGL/GUI/lvgl/src/core/lv_obj_style_gen.h **** }
 147:../../Middlewares/LVGL/GUI/lvgl/src/core/lv_obj_style_gen.h **** 
ARM GAS  C:\Users\28576\AppData\Local\Temp\cclWIAwm.s 			page 12


 148:../../Middlewares/LVGL/GUI/lvgl/src/core/lv_obj_style_gen.h **** static inline int32_t lv_obj_get_style_transform_skew_y(const lv_obj_t * obj, lv_part_t part)
 149:../../Middlewares/LVGL/GUI/lvgl/src/core/lv_obj_style_gen.h **** {
 150:../../Middlewares/LVGL/GUI/lvgl/src/core/lv_obj_style_gen.h ****     lv_style_value_t v = lv_obj_get_style_prop(obj, part, LV_STYLE_TRANSFORM_SKEW_Y);
 151:../../Middlewares/LVGL/GUI/lvgl/src/core/lv_obj_style_gen.h ****     return (int32_t)v.num;
 152:../../Middlewares/LVGL/GUI/lvgl/src/core/lv_obj_style_gen.h **** }
 153:../../Middlewares/LVGL/GUI/lvgl/src/core/lv_obj_style_gen.h **** 
 154:../../Middlewares/LVGL/GUI/lvgl/src/core/lv_obj_style_gen.h **** static inline int32_t lv_obj_get_style_pad_top(const lv_obj_t * obj, lv_part_t part)
 155:../../Middlewares/LVGL/GUI/lvgl/src/core/lv_obj_style_gen.h **** {
 156:../../Middlewares/LVGL/GUI/lvgl/src/core/lv_obj_style_gen.h ****     lv_style_value_t v = lv_obj_get_style_prop(obj, part, LV_STYLE_PAD_TOP);
 157:../../Middlewares/LVGL/GUI/lvgl/src/core/lv_obj_style_gen.h ****     return (int32_t)v.num;
 158:../../Middlewares/LVGL/GUI/lvgl/src/core/lv_obj_style_gen.h **** }
 159:../../Middlewares/LVGL/GUI/lvgl/src/core/lv_obj_style_gen.h **** 
 160:../../Middlewares/LVGL/GUI/lvgl/src/core/lv_obj_style_gen.h **** static inline int32_t lv_obj_get_style_pad_bottom(const lv_obj_t * obj, lv_part_t part)
 161:../../Middlewares/LVGL/GUI/lvgl/src/core/lv_obj_style_gen.h **** {
 162:../../Middlewares/LVGL/GUI/lvgl/src/core/lv_obj_style_gen.h ****     lv_style_value_t v = lv_obj_get_style_prop(obj, part, LV_STYLE_PAD_BOTTOM);
 163:../../Middlewares/LVGL/GUI/lvgl/src/core/lv_obj_style_gen.h ****     return (int32_t)v.num;
 164:../../Middlewares/LVGL/GUI/lvgl/src/core/lv_obj_style_gen.h **** }
 165:../../Middlewares/LVGL/GUI/lvgl/src/core/lv_obj_style_gen.h **** 
 166:../../Middlewares/LVGL/GUI/lvgl/src/core/lv_obj_style_gen.h **** static inline int32_t lv_obj_get_style_pad_left(const lv_obj_t * obj, lv_part_t part)
 167:../../Middlewares/LVGL/GUI/lvgl/src/core/lv_obj_style_gen.h **** {
 168:../../Middlewares/LVGL/GUI/lvgl/src/core/lv_obj_style_gen.h ****     lv_style_value_t v = lv_obj_get_style_prop(obj, part, LV_STYLE_PAD_LEFT);
 169:../../Middlewares/LVGL/GUI/lvgl/src/core/lv_obj_style_gen.h ****     return (int32_t)v.num;
 170:../../Middlewares/LVGL/GUI/lvgl/src/core/lv_obj_style_gen.h **** }
 171:../../Middlewares/LVGL/GUI/lvgl/src/core/lv_obj_style_gen.h **** 
 172:../../Middlewares/LVGL/GUI/lvgl/src/core/lv_obj_style_gen.h **** static inline int32_t lv_obj_get_style_pad_right(const lv_obj_t * obj, lv_part_t part)
 173:../../Middlewares/LVGL/GUI/lvgl/src/core/lv_obj_style_gen.h **** {
 174:../../Middlewares/LVGL/GUI/lvgl/src/core/lv_obj_style_gen.h ****     lv_style_value_t v = lv_obj_get_style_prop(obj, part, LV_STYLE_PAD_RIGHT);
 175:../../Middlewares/LVGL/GUI/lvgl/src/core/lv_obj_style_gen.h ****     return (int32_t)v.num;
 176:../../Middlewares/LVGL/GUI/lvgl/src/core/lv_obj_style_gen.h **** }
 177:../../Middlewares/LVGL/GUI/lvgl/src/core/lv_obj_style_gen.h **** 
 178:../../Middlewares/LVGL/GUI/lvgl/src/core/lv_obj_style_gen.h **** static inline int32_t lv_obj_get_style_pad_row(const lv_obj_t * obj, lv_part_t part)
 179:../../Middlewares/LVGL/GUI/lvgl/src/core/lv_obj_style_gen.h **** {
 180:../../Middlewares/LVGL/GUI/lvgl/src/core/lv_obj_style_gen.h ****     lv_style_value_t v = lv_obj_get_style_prop(obj, part, LV_STYLE_PAD_ROW);
 181:../../Middlewares/LVGL/GUI/lvgl/src/core/lv_obj_style_gen.h ****     return (int32_t)v.num;
 182:../../Middlewares/LVGL/GUI/lvgl/src/core/lv_obj_style_gen.h **** }
 183:../../Middlewares/LVGL/GUI/lvgl/src/core/lv_obj_style_gen.h **** 
 184:../../Middlewares/LVGL/GUI/lvgl/src/core/lv_obj_style_gen.h **** static inline int32_t lv_obj_get_style_pad_column(const lv_obj_t * obj, lv_part_t part)
 185:../../Middlewares/LVGL/GUI/lvgl/src/core/lv_obj_style_gen.h **** {
 186:../../Middlewares/LVGL/GUI/lvgl/src/core/lv_obj_style_gen.h ****     lv_style_value_t v = lv_obj_get_style_prop(obj, part, LV_STYLE_PAD_COLUMN);
 187:../../Middlewares/LVGL/GUI/lvgl/src/core/lv_obj_style_gen.h ****     return (int32_t)v.num;
 188:../../Middlewares/LVGL/GUI/lvgl/src/core/lv_obj_style_gen.h **** }
 189:../../Middlewares/LVGL/GUI/lvgl/src/core/lv_obj_style_gen.h **** 
 190:../../Middlewares/LVGL/GUI/lvgl/src/core/lv_obj_style_gen.h **** static inline int32_t lv_obj_get_style_pad_radial(const lv_obj_t * obj, lv_part_t part)
 191:../../Middlewares/LVGL/GUI/lvgl/src/core/lv_obj_style_gen.h **** {
 192:../../Middlewares/LVGL/GUI/lvgl/src/core/lv_obj_style_gen.h ****     lv_style_value_t v = lv_obj_get_style_prop(obj, part, LV_STYLE_PAD_RADIAL);
 193:../../Middlewares/LVGL/GUI/lvgl/src/core/lv_obj_style_gen.h ****     return (int32_t)v.num;
 194:../../Middlewares/LVGL/GUI/lvgl/src/core/lv_obj_style_gen.h **** }
 195:../../Middlewares/LVGL/GUI/lvgl/src/core/lv_obj_style_gen.h **** 
 196:../../Middlewares/LVGL/GUI/lvgl/src/core/lv_obj_style_gen.h **** static inline int32_t lv_obj_get_style_margin_top(const lv_obj_t * obj, lv_part_t part)
 197:../../Middlewares/LVGL/GUI/lvgl/src/core/lv_obj_style_gen.h **** {
 198:../../Middlewares/LVGL/GUI/lvgl/src/core/lv_obj_style_gen.h ****     lv_style_value_t v = lv_obj_get_style_prop(obj, part, LV_STYLE_MARGIN_TOP);
 199:../../Middlewares/LVGL/GUI/lvgl/src/core/lv_obj_style_gen.h ****     return (int32_t)v.num;
 200:../../Middlewares/LVGL/GUI/lvgl/src/core/lv_obj_style_gen.h **** }
 201:../../Middlewares/LVGL/GUI/lvgl/src/core/lv_obj_style_gen.h **** 
 202:../../Middlewares/LVGL/GUI/lvgl/src/core/lv_obj_style_gen.h **** static inline int32_t lv_obj_get_style_margin_bottom(const lv_obj_t * obj, lv_part_t part)
 203:../../Middlewares/LVGL/GUI/lvgl/src/core/lv_obj_style_gen.h **** {
 204:../../Middlewares/LVGL/GUI/lvgl/src/core/lv_obj_style_gen.h ****     lv_style_value_t v = lv_obj_get_style_prop(obj, part, LV_STYLE_MARGIN_BOTTOM);
ARM GAS  C:\Users\28576\AppData\Local\Temp\cclWIAwm.s 			page 13


 205:../../Middlewares/LVGL/GUI/lvgl/src/core/lv_obj_style_gen.h ****     return (int32_t)v.num;
 206:../../Middlewares/LVGL/GUI/lvgl/src/core/lv_obj_style_gen.h **** }
 207:../../Middlewares/LVGL/GUI/lvgl/src/core/lv_obj_style_gen.h **** 
 208:../../Middlewares/LVGL/GUI/lvgl/src/core/lv_obj_style_gen.h **** static inline int32_t lv_obj_get_style_margin_left(const lv_obj_t * obj, lv_part_t part)
 209:../../Middlewares/LVGL/GUI/lvgl/src/core/lv_obj_style_gen.h **** {
 210:../../Middlewares/LVGL/GUI/lvgl/src/core/lv_obj_style_gen.h ****     lv_style_value_t v = lv_obj_get_style_prop(obj, part, LV_STYLE_MARGIN_LEFT);
 211:../../Middlewares/LVGL/GUI/lvgl/src/core/lv_obj_style_gen.h ****     return (int32_t)v.num;
 212:../../Middlewares/LVGL/GUI/lvgl/src/core/lv_obj_style_gen.h **** }
 213:../../Middlewares/LVGL/GUI/lvgl/src/core/lv_obj_style_gen.h **** 
 214:../../Middlewares/LVGL/GUI/lvgl/src/core/lv_obj_style_gen.h **** static inline int32_t lv_obj_get_style_margin_right(const lv_obj_t * obj, lv_part_t part)
 215:../../Middlewares/LVGL/GUI/lvgl/src/core/lv_obj_style_gen.h **** {
 216:../../Middlewares/LVGL/GUI/lvgl/src/core/lv_obj_style_gen.h ****     lv_style_value_t v = lv_obj_get_style_prop(obj, part, LV_STYLE_MARGIN_RIGHT);
 217:../../Middlewares/LVGL/GUI/lvgl/src/core/lv_obj_style_gen.h ****     return (int32_t)v.num;
 218:../../Middlewares/LVGL/GUI/lvgl/src/core/lv_obj_style_gen.h **** }
 219:../../Middlewares/LVGL/GUI/lvgl/src/core/lv_obj_style_gen.h **** 
 220:../../Middlewares/LVGL/GUI/lvgl/src/core/lv_obj_style_gen.h **** static inline lv_color_t lv_obj_get_style_bg_color(const lv_obj_t * obj, lv_part_t part)
 221:../../Middlewares/LVGL/GUI/lvgl/src/core/lv_obj_style_gen.h **** {
 222:../../Middlewares/LVGL/GUI/lvgl/src/core/lv_obj_style_gen.h ****     lv_style_value_t v = lv_obj_get_style_prop(obj, part, LV_STYLE_BG_COLOR);
 223:../../Middlewares/LVGL/GUI/lvgl/src/core/lv_obj_style_gen.h ****     return v.color;
 224:../../Middlewares/LVGL/GUI/lvgl/src/core/lv_obj_style_gen.h **** }
 225:../../Middlewares/LVGL/GUI/lvgl/src/core/lv_obj_style_gen.h **** 
 226:../../Middlewares/LVGL/GUI/lvgl/src/core/lv_obj_style_gen.h **** static inline lv_color_t lv_obj_get_style_bg_color_filtered(const lv_obj_t * obj, lv_part_t part)
 227:../../Middlewares/LVGL/GUI/lvgl/src/core/lv_obj_style_gen.h **** {
 228:../../Middlewares/LVGL/GUI/lvgl/src/core/lv_obj_style_gen.h ****     lv_style_value_t v = lv_obj_style_apply_color_filter(obj, part, lv_obj_get_style_prop(obj, part
 229:../../Middlewares/LVGL/GUI/lvgl/src/core/lv_obj_style_gen.h ****     return v.color;
 230:../../Middlewares/LVGL/GUI/lvgl/src/core/lv_obj_style_gen.h **** }
 231:../../Middlewares/LVGL/GUI/lvgl/src/core/lv_obj_style_gen.h **** 
 232:../../Middlewares/LVGL/GUI/lvgl/src/core/lv_obj_style_gen.h **** static inline lv_opa_t lv_obj_get_style_bg_opa(const lv_obj_t * obj, lv_part_t part)
 233:../../Middlewares/LVGL/GUI/lvgl/src/core/lv_obj_style_gen.h **** {
 234:../../Middlewares/LVGL/GUI/lvgl/src/core/lv_obj_style_gen.h ****     lv_style_value_t v = lv_obj_get_style_prop(obj, part, LV_STYLE_BG_OPA);
 235:../../Middlewares/LVGL/GUI/lvgl/src/core/lv_obj_style_gen.h ****     return (lv_opa_t)v.num;
 236:../../Middlewares/LVGL/GUI/lvgl/src/core/lv_obj_style_gen.h **** }
 237:../../Middlewares/LVGL/GUI/lvgl/src/core/lv_obj_style_gen.h **** 
 238:../../Middlewares/LVGL/GUI/lvgl/src/core/lv_obj_style_gen.h **** static inline lv_color_t lv_obj_get_style_bg_grad_color(const lv_obj_t * obj, lv_part_t part)
 239:../../Middlewares/LVGL/GUI/lvgl/src/core/lv_obj_style_gen.h **** {
 240:../../Middlewares/LVGL/GUI/lvgl/src/core/lv_obj_style_gen.h ****     lv_style_value_t v = lv_obj_get_style_prop(obj, part, LV_STYLE_BG_GRAD_COLOR);
 241:../../Middlewares/LVGL/GUI/lvgl/src/core/lv_obj_style_gen.h ****     return v.color;
 242:../../Middlewares/LVGL/GUI/lvgl/src/core/lv_obj_style_gen.h **** }
 243:../../Middlewares/LVGL/GUI/lvgl/src/core/lv_obj_style_gen.h **** 
 244:../../Middlewares/LVGL/GUI/lvgl/src/core/lv_obj_style_gen.h **** static inline lv_color_t lv_obj_get_style_bg_grad_color_filtered(const lv_obj_t * obj, lv_part_t pa
 245:../../Middlewares/LVGL/GUI/lvgl/src/core/lv_obj_style_gen.h **** {
 246:../../Middlewares/LVGL/GUI/lvgl/src/core/lv_obj_style_gen.h ****     lv_style_value_t v = lv_obj_style_apply_color_filter(obj, part, lv_obj_get_style_prop(obj, part
 247:../../Middlewares/LVGL/GUI/lvgl/src/core/lv_obj_style_gen.h ****     return v.color;
 248:../../Middlewares/LVGL/GUI/lvgl/src/core/lv_obj_style_gen.h **** }
 249:../../Middlewares/LVGL/GUI/lvgl/src/core/lv_obj_style_gen.h **** 
 250:../../Middlewares/LVGL/GUI/lvgl/src/core/lv_obj_style_gen.h **** static inline lv_grad_dir_t lv_obj_get_style_bg_grad_dir(const lv_obj_t * obj, lv_part_t part)
 251:../../Middlewares/LVGL/GUI/lvgl/src/core/lv_obj_style_gen.h **** {
 252:../../Middlewares/LVGL/GUI/lvgl/src/core/lv_obj_style_gen.h ****     lv_style_value_t v = lv_obj_get_style_prop(obj, part, LV_STYLE_BG_GRAD_DIR);
 253:../../Middlewares/LVGL/GUI/lvgl/src/core/lv_obj_style_gen.h ****     return (lv_grad_dir_t)v.num;
 254:../../Middlewares/LVGL/GUI/lvgl/src/core/lv_obj_style_gen.h **** }
 255:../../Middlewares/LVGL/GUI/lvgl/src/core/lv_obj_style_gen.h **** 
 256:../../Middlewares/LVGL/GUI/lvgl/src/core/lv_obj_style_gen.h **** static inline int32_t lv_obj_get_style_bg_main_stop(const lv_obj_t * obj, lv_part_t part)
 257:../../Middlewares/LVGL/GUI/lvgl/src/core/lv_obj_style_gen.h **** {
 258:../../Middlewares/LVGL/GUI/lvgl/src/core/lv_obj_style_gen.h ****     lv_style_value_t v = lv_obj_get_style_prop(obj, part, LV_STYLE_BG_MAIN_STOP);
 259:../../Middlewares/LVGL/GUI/lvgl/src/core/lv_obj_style_gen.h ****     return (int32_t)v.num;
 260:../../Middlewares/LVGL/GUI/lvgl/src/core/lv_obj_style_gen.h **** }
 261:../../Middlewares/LVGL/GUI/lvgl/src/core/lv_obj_style_gen.h **** 
ARM GAS  C:\Users\28576\AppData\Local\Temp\cclWIAwm.s 			page 14


 262:../../Middlewares/LVGL/GUI/lvgl/src/core/lv_obj_style_gen.h **** static inline int32_t lv_obj_get_style_bg_grad_stop(const lv_obj_t * obj, lv_part_t part)
 263:../../Middlewares/LVGL/GUI/lvgl/src/core/lv_obj_style_gen.h **** {
 264:../../Middlewares/LVGL/GUI/lvgl/src/core/lv_obj_style_gen.h ****     lv_style_value_t v = lv_obj_get_style_prop(obj, part, LV_STYLE_BG_GRAD_STOP);
 265:../../Middlewares/LVGL/GUI/lvgl/src/core/lv_obj_style_gen.h ****     return (int32_t)v.num;
 266:../../Middlewares/LVGL/GUI/lvgl/src/core/lv_obj_style_gen.h **** }
 267:../../Middlewares/LVGL/GUI/lvgl/src/core/lv_obj_style_gen.h **** 
 268:../../Middlewares/LVGL/GUI/lvgl/src/core/lv_obj_style_gen.h **** static inline lv_opa_t lv_obj_get_style_bg_main_opa(const lv_obj_t * obj, lv_part_t part)
 269:../../Middlewares/LVGL/GUI/lvgl/src/core/lv_obj_style_gen.h **** {
 270:../../Middlewares/LVGL/GUI/lvgl/src/core/lv_obj_style_gen.h ****     lv_style_value_t v = lv_obj_get_style_prop(obj, part, LV_STYLE_BG_MAIN_OPA);
 271:../../Middlewares/LVGL/GUI/lvgl/src/core/lv_obj_style_gen.h ****     return (lv_opa_t)v.num;
 272:../../Middlewares/LVGL/GUI/lvgl/src/core/lv_obj_style_gen.h **** }
 273:../../Middlewares/LVGL/GUI/lvgl/src/core/lv_obj_style_gen.h **** 
 274:../../Middlewares/LVGL/GUI/lvgl/src/core/lv_obj_style_gen.h **** static inline lv_opa_t lv_obj_get_style_bg_grad_opa(const lv_obj_t * obj, lv_part_t part)
 275:../../Middlewares/LVGL/GUI/lvgl/src/core/lv_obj_style_gen.h **** {
 276:../../Middlewares/LVGL/GUI/lvgl/src/core/lv_obj_style_gen.h ****     lv_style_value_t v = lv_obj_get_style_prop(obj, part, LV_STYLE_BG_GRAD_OPA);
 277:../../Middlewares/LVGL/GUI/lvgl/src/core/lv_obj_style_gen.h ****     return (lv_opa_t)v.num;
 278:../../Middlewares/LVGL/GUI/lvgl/src/core/lv_obj_style_gen.h **** }
 279:../../Middlewares/LVGL/GUI/lvgl/src/core/lv_obj_style_gen.h **** 
 280:../../Middlewares/LVGL/GUI/lvgl/src/core/lv_obj_style_gen.h **** static inline const lv_grad_dsc_t * lv_obj_get_style_bg_grad(const lv_obj_t * obj, lv_part_t part)
 281:../../Middlewares/LVGL/GUI/lvgl/src/core/lv_obj_style_gen.h **** {
 282:../../Middlewares/LVGL/GUI/lvgl/src/core/lv_obj_style_gen.h ****     lv_style_value_t v = lv_obj_get_style_prop(obj, part, LV_STYLE_BG_GRAD);
 283:../../Middlewares/LVGL/GUI/lvgl/src/core/lv_obj_style_gen.h ****     return (const lv_grad_dsc_t *)v.ptr;
 284:../../Middlewares/LVGL/GUI/lvgl/src/core/lv_obj_style_gen.h **** }
 285:../../Middlewares/LVGL/GUI/lvgl/src/core/lv_obj_style_gen.h **** 
 286:../../Middlewares/LVGL/GUI/lvgl/src/core/lv_obj_style_gen.h **** static inline const void * lv_obj_get_style_bg_image_src(const lv_obj_t * obj, lv_part_t part)
 287:../../Middlewares/LVGL/GUI/lvgl/src/core/lv_obj_style_gen.h **** {
 288:../../Middlewares/LVGL/GUI/lvgl/src/core/lv_obj_style_gen.h ****     lv_style_value_t v = lv_obj_get_style_prop(obj, part, LV_STYLE_BG_IMAGE_SRC);
 289:../../Middlewares/LVGL/GUI/lvgl/src/core/lv_obj_style_gen.h ****     return (const void *)v.ptr;
 290:../../Middlewares/LVGL/GUI/lvgl/src/core/lv_obj_style_gen.h **** }
 291:../../Middlewares/LVGL/GUI/lvgl/src/core/lv_obj_style_gen.h **** 
 292:../../Middlewares/LVGL/GUI/lvgl/src/core/lv_obj_style_gen.h **** static inline lv_opa_t lv_obj_get_style_bg_image_opa(const lv_obj_t * obj, lv_part_t part)
 293:../../Middlewares/LVGL/GUI/lvgl/src/core/lv_obj_style_gen.h **** {
 294:../../Middlewares/LVGL/GUI/lvgl/src/core/lv_obj_style_gen.h ****     lv_style_value_t v = lv_obj_get_style_prop(obj, part, LV_STYLE_BG_IMAGE_OPA);
 295:../../Middlewares/LVGL/GUI/lvgl/src/core/lv_obj_style_gen.h ****     return (lv_opa_t)v.num;
 296:../../Middlewares/LVGL/GUI/lvgl/src/core/lv_obj_style_gen.h **** }
 297:../../Middlewares/LVGL/GUI/lvgl/src/core/lv_obj_style_gen.h **** 
 298:../../Middlewares/LVGL/GUI/lvgl/src/core/lv_obj_style_gen.h **** static inline lv_color_t lv_obj_get_style_bg_image_recolor(const lv_obj_t * obj, lv_part_t part)
 299:../../Middlewares/LVGL/GUI/lvgl/src/core/lv_obj_style_gen.h **** {
 300:../../Middlewares/LVGL/GUI/lvgl/src/core/lv_obj_style_gen.h ****     lv_style_value_t v = lv_obj_get_style_prop(obj, part, LV_STYLE_BG_IMAGE_RECOLOR);
 301:../../Middlewares/LVGL/GUI/lvgl/src/core/lv_obj_style_gen.h ****     return v.color;
 302:../../Middlewares/LVGL/GUI/lvgl/src/core/lv_obj_style_gen.h **** }
 303:../../Middlewares/LVGL/GUI/lvgl/src/core/lv_obj_style_gen.h **** 
 304:../../Middlewares/LVGL/GUI/lvgl/src/core/lv_obj_style_gen.h **** static inline lv_color_t lv_obj_get_style_bg_image_recolor_filtered(const lv_obj_t * obj, lv_part_t
 305:../../Middlewares/LVGL/GUI/lvgl/src/core/lv_obj_style_gen.h **** {
 306:../../Middlewares/LVGL/GUI/lvgl/src/core/lv_obj_style_gen.h ****     lv_style_value_t v = lv_obj_style_apply_color_filter(obj, part, lv_obj_get_style_prop(obj, part
 307:../../Middlewares/LVGL/GUI/lvgl/src/core/lv_obj_style_gen.h ****     return v.color;
 308:../../Middlewares/LVGL/GUI/lvgl/src/core/lv_obj_style_gen.h **** }
 309:../../Middlewares/LVGL/GUI/lvgl/src/core/lv_obj_style_gen.h **** 
 310:../../Middlewares/LVGL/GUI/lvgl/src/core/lv_obj_style_gen.h **** static inline lv_opa_t lv_obj_get_style_bg_image_recolor_opa(const lv_obj_t * obj, lv_part_t part)
 311:../../Middlewares/LVGL/GUI/lvgl/src/core/lv_obj_style_gen.h **** {
 312:../../Middlewares/LVGL/GUI/lvgl/src/core/lv_obj_style_gen.h ****     lv_style_value_t v = lv_obj_get_style_prop(obj, part, LV_STYLE_BG_IMAGE_RECOLOR_OPA);
 313:../../Middlewares/LVGL/GUI/lvgl/src/core/lv_obj_style_gen.h ****     return (lv_opa_t)v.num;
 314:../../Middlewares/LVGL/GUI/lvgl/src/core/lv_obj_style_gen.h **** }
 315:../../Middlewares/LVGL/GUI/lvgl/src/core/lv_obj_style_gen.h **** 
 316:../../Middlewares/LVGL/GUI/lvgl/src/core/lv_obj_style_gen.h **** static inline bool lv_obj_get_style_bg_image_tiled(const lv_obj_t * obj, lv_part_t part)
 317:../../Middlewares/LVGL/GUI/lvgl/src/core/lv_obj_style_gen.h **** {
 318:../../Middlewares/LVGL/GUI/lvgl/src/core/lv_obj_style_gen.h ****     lv_style_value_t v = lv_obj_get_style_prop(obj, part, LV_STYLE_BG_IMAGE_TILED);
ARM GAS  C:\Users\28576\AppData\Local\Temp\cclWIAwm.s 			page 15


 319:../../Middlewares/LVGL/GUI/lvgl/src/core/lv_obj_style_gen.h ****     return (bool)v.num;
 320:../../Middlewares/LVGL/GUI/lvgl/src/core/lv_obj_style_gen.h **** }
 321:../../Middlewares/LVGL/GUI/lvgl/src/core/lv_obj_style_gen.h **** 
 322:../../Middlewares/LVGL/GUI/lvgl/src/core/lv_obj_style_gen.h **** static inline lv_color_t lv_obj_get_style_border_color(const lv_obj_t * obj, lv_part_t part)
 323:../../Middlewares/LVGL/GUI/lvgl/src/core/lv_obj_style_gen.h **** {
 324:../../Middlewares/LVGL/GUI/lvgl/src/core/lv_obj_style_gen.h ****     lv_style_value_t v = lv_obj_get_style_prop(obj, part, LV_STYLE_BORDER_COLOR);
 325:../../Middlewares/LVGL/GUI/lvgl/src/core/lv_obj_style_gen.h ****     return v.color;
 326:../../Middlewares/LVGL/GUI/lvgl/src/core/lv_obj_style_gen.h **** }
 327:../../Middlewares/LVGL/GUI/lvgl/src/core/lv_obj_style_gen.h **** 
 328:../../Middlewares/LVGL/GUI/lvgl/src/core/lv_obj_style_gen.h **** static inline lv_color_t lv_obj_get_style_border_color_filtered(const lv_obj_t * obj, lv_part_t par
 329:../../Middlewares/LVGL/GUI/lvgl/src/core/lv_obj_style_gen.h **** {
 330:../../Middlewares/LVGL/GUI/lvgl/src/core/lv_obj_style_gen.h ****     lv_style_value_t v = lv_obj_style_apply_color_filter(obj, part, lv_obj_get_style_prop(obj, part
 331:../../Middlewares/LVGL/GUI/lvgl/src/core/lv_obj_style_gen.h ****     return v.color;
 332:../../Middlewares/LVGL/GUI/lvgl/src/core/lv_obj_style_gen.h **** }
 333:../../Middlewares/LVGL/GUI/lvgl/src/core/lv_obj_style_gen.h **** 
 334:../../Middlewares/LVGL/GUI/lvgl/src/core/lv_obj_style_gen.h **** static inline lv_opa_t lv_obj_get_style_border_opa(const lv_obj_t * obj, lv_part_t part)
 335:../../Middlewares/LVGL/GUI/lvgl/src/core/lv_obj_style_gen.h **** {
 336:../../Middlewares/LVGL/GUI/lvgl/src/core/lv_obj_style_gen.h ****     lv_style_value_t v = lv_obj_get_style_prop(obj, part, LV_STYLE_BORDER_OPA);
 337:../../Middlewares/LVGL/GUI/lvgl/src/core/lv_obj_style_gen.h ****     return (lv_opa_t)v.num;
 338:../../Middlewares/LVGL/GUI/lvgl/src/core/lv_obj_style_gen.h **** }
 339:../../Middlewares/LVGL/GUI/lvgl/src/core/lv_obj_style_gen.h **** 
 340:../../Middlewares/LVGL/GUI/lvgl/src/core/lv_obj_style_gen.h **** static inline int32_t lv_obj_get_style_border_width(const lv_obj_t * obj, lv_part_t part)
 341:../../Middlewares/LVGL/GUI/lvgl/src/core/lv_obj_style_gen.h **** {
 342:../../Middlewares/LVGL/GUI/lvgl/src/core/lv_obj_style_gen.h ****     lv_style_value_t v = lv_obj_get_style_prop(obj, part, LV_STYLE_BORDER_WIDTH);
 343:../../Middlewares/LVGL/GUI/lvgl/src/core/lv_obj_style_gen.h ****     return (int32_t)v.num;
 344:../../Middlewares/LVGL/GUI/lvgl/src/core/lv_obj_style_gen.h **** }
 345:../../Middlewares/LVGL/GUI/lvgl/src/core/lv_obj_style_gen.h **** 
 346:../../Middlewares/LVGL/GUI/lvgl/src/core/lv_obj_style_gen.h **** static inline lv_border_side_t lv_obj_get_style_border_side(const lv_obj_t * obj, lv_part_t part)
 347:../../Middlewares/LVGL/GUI/lvgl/src/core/lv_obj_style_gen.h **** {
 348:../../Middlewares/LVGL/GUI/lvgl/src/core/lv_obj_style_gen.h ****     lv_style_value_t v = lv_obj_get_style_prop(obj, part, LV_STYLE_BORDER_SIDE);
 349:../../Middlewares/LVGL/GUI/lvgl/src/core/lv_obj_style_gen.h ****     return (lv_border_side_t)v.num;
 350:../../Middlewares/LVGL/GUI/lvgl/src/core/lv_obj_style_gen.h **** }
 351:../../Middlewares/LVGL/GUI/lvgl/src/core/lv_obj_style_gen.h **** 
 352:../../Middlewares/LVGL/GUI/lvgl/src/core/lv_obj_style_gen.h **** static inline bool lv_obj_get_style_border_post(const lv_obj_t * obj, lv_part_t part)
 353:../../Middlewares/LVGL/GUI/lvgl/src/core/lv_obj_style_gen.h **** {
 354:../../Middlewares/LVGL/GUI/lvgl/src/core/lv_obj_style_gen.h ****     lv_style_value_t v = lv_obj_get_style_prop(obj, part, LV_STYLE_BORDER_POST);
 355:../../Middlewares/LVGL/GUI/lvgl/src/core/lv_obj_style_gen.h ****     return (bool)v.num;
 356:../../Middlewares/LVGL/GUI/lvgl/src/core/lv_obj_style_gen.h **** }
 357:../../Middlewares/LVGL/GUI/lvgl/src/core/lv_obj_style_gen.h **** 
 358:../../Middlewares/LVGL/GUI/lvgl/src/core/lv_obj_style_gen.h **** static inline int32_t lv_obj_get_style_outline_width(const lv_obj_t * obj, lv_part_t part)
 359:../../Middlewares/LVGL/GUI/lvgl/src/core/lv_obj_style_gen.h **** {
 360:../../Middlewares/LVGL/GUI/lvgl/src/core/lv_obj_style_gen.h ****     lv_style_value_t v = lv_obj_get_style_prop(obj, part, LV_STYLE_OUTLINE_WIDTH);
 361:../../Middlewares/LVGL/GUI/lvgl/src/core/lv_obj_style_gen.h ****     return (int32_t)v.num;
 362:../../Middlewares/LVGL/GUI/lvgl/src/core/lv_obj_style_gen.h **** }
 363:../../Middlewares/LVGL/GUI/lvgl/src/core/lv_obj_style_gen.h **** 
 364:../../Middlewares/LVGL/GUI/lvgl/src/core/lv_obj_style_gen.h **** static inline lv_color_t lv_obj_get_style_outline_color(const lv_obj_t * obj, lv_part_t part)
 365:../../Middlewares/LVGL/GUI/lvgl/src/core/lv_obj_style_gen.h **** {
 366:../../Middlewares/LVGL/GUI/lvgl/src/core/lv_obj_style_gen.h ****     lv_style_value_t v = lv_obj_get_style_prop(obj, part, LV_STYLE_OUTLINE_COLOR);
 367:../../Middlewares/LVGL/GUI/lvgl/src/core/lv_obj_style_gen.h ****     return v.color;
 368:../../Middlewares/LVGL/GUI/lvgl/src/core/lv_obj_style_gen.h **** }
 369:../../Middlewares/LVGL/GUI/lvgl/src/core/lv_obj_style_gen.h **** 
 370:../../Middlewares/LVGL/GUI/lvgl/src/core/lv_obj_style_gen.h **** static inline lv_color_t lv_obj_get_style_outline_color_filtered(const lv_obj_t * obj, lv_part_t pa
 371:../../Middlewares/LVGL/GUI/lvgl/src/core/lv_obj_style_gen.h **** {
 372:../../Middlewares/LVGL/GUI/lvgl/src/core/lv_obj_style_gen.h ****     lv_style_value_t v = lv_obj_style_apply_color_filter(obj, part, lv_obj_get_style_prop(obj, part
 373:../../Middlewares/LVGL/GUI/lvgl/src/core/lv_obj_style_gen.h ****     return v.color;
 374:../../Middlewares/LVGL/GUI/lvgl/src/core/lv_obj_style_gen.h **** }
 375:../../Middlewares/LVGL/GUI/lvgl/src/core/lv_obj_style_gen.h **** 
ARM GAS  C:\Users\28576\AppData\Local\Temp\cclWIAwm.s 			page 16


 376:../../Middlewares/LVGL/GUI/lvgl/src/core/lv_obj_style_gen.h **** static inline lv_opa_t lv_obj_get_style_outline_opa(const lv_obj_t * obj, lv_part_t part)
 377:../../Middlewares/LVGL/GUI/lvgl/src/core/lv_obj_style_gen.h **** {
 378:../../Middlewares/LVGL/GUI/lvgl/src/core/lv_obj_style_gen.h ****     lv_style_value_t v = lv_obj_get_style_prop(obj, part, LV_STYLE_OUTLINE_OPA);
 379:../../Middlewares/LVGL/GUI/lvgl/src/core/lv_obj_style_gen.h ****     return (lv_opa_t)v.num;
 380:../../Middlewares/LVGL/GUI/lvgl/src/core/lv_obj_style_gen.h **** }
 381:../../Middlewares/LVGL/GUI/lvgl/src/core/lv_obj_style_gen.h **** 
 382:../../Middlewares/LVGL/GUI/lvgl/src/core/lv_obj_style_gen.h **** static inline int32_t lv_obj_get_style_outline_pad(const lv_obj_t * obj, lv_part_t part)
 383:../../Middlewares/LVGL/GUI/lvgl/src/core/lv_obj_style_gen.h **** {
 384:../../Middlewares/LVGL/GUI/lvgl/src/core/lv_obj_style_gen.h ****     lv_style_value_t v = lv_obj_get_style_prop(obj, part, LV_STYLE_OUTLINE_PAD);
 385:../../Middlewares/LVGL/GUI/lvgl/src/core/lv_obj_style_gen.h ****     return (int32_t)v.num;
 386:../../Middlewares/LVGL/GUI/lvgl/src/core/lv_obj_style_gen.h **** }
 387:../../Middlewares/LVGL/GUI/lvgl/src/core/lv_obj_style_gen.h **** 
 388:../../Middlewares/LVGL/GUI/lvgl/src/core/lv_obj_style_gen.h **** static inline int32_t lv_obj_get_style_shadow_width(const lv_obj_t * obj, lv_part_t part)
 389:../../Middlewares/LVGL/GUI/lvgl/src/core/lv_obj_style_gen.h **** {
 390:../../Middlewares/LVGL/GUI/lvgl/src/core/lv_obj_style_gen.h ****     lv_style_value_t v = lv_obj_get_style_prop(obj, part, LV_STYLE_SHADOW_WIDTH);
 391:../../Middlewares/LVGL/GUI/lvgl/src/core/lv_obj_style_gen.h ****     return (int32_t)v.num;
 392:../../Middlewares/LVGL/GUI/lvgl/src/core/lv_obj_style_gen.h **** }
 393:../../Middlewares/LVGL/GUI/lvgl/src/core/lv_obj_style_gen.h **** 
 394:../../Middlewares/LVGL/GUI/lvgl/src/core/lv_obj_style_gen.h **** static inline int32_t lv_obj_get_style_shadow_offset_x(const lv_obj_t * obj, lv_part_t part)
 395:../../Middlewares/LVGL/GUI/lvgl/src/core/lv_obj_style_gen.h **** {
 396:../../Middlewares/LVGL/GUI/lvgl/src/core/lv_obj_style_gen.h ****     lv_style_value_t v = lv_obj_get_style_prop(obj, part, LV_STYLE_SHADOW_OFFSET_X);
 397:../../Middlewares/LVGL/GUI/lvgl/src/core/lv_obj_style_gen.h ****     return (int32_t)v.num;
 398:../../Middlewares/LVGL/GUI/lvgl/src/core/lv_obj_style_gen.h **** }
 399:../../Middlewares/LVGL/GUI/lvgl/src/core/lv_obj_style_gen.h **** 
 400:../../Middlewares/LVGL/GUI/lvgl/src/core/lv_obj_style_gen.h **** static inline int32_t lv_obj_get_style_shadow_offset_y(const lv_obj_t * obj, lv_part_t part)
 401:../../Middlewares/LVGL/GUI/lvgl/src/core/lv_obj_style_gen.h **** {
 402:../../Middlewares/LVGL/GUI/lvgl/src/core/lv_obj_style_gen.h ****     lv_style_value_t v = lv_obj_get_style_prop(obj, part, LV_STYLE_SHADOW_OFFSET_Y);
 403:../../Middlewares/LVGL/GUI/lvgl/src/core/lv_obj_style_gen.h ****     return (int32_t)v.num;
 404:../../Middlewares/LVGL/GUI/lvgl/src/core/lv_obj_style_gen.h **** }
 405:../../Middlewares/LVGL/GUI/lvgl/src/core/lv_obj_style_gen.h **** 
 406:../../Middlewares/LVGL/GUI/lvgl/src/core/lv_obj_style_gen.h **** static inline int32_t lv_obj_get_style_shadow_spread(const lv_obj_t * obj, lv_part_t part)
 407:../../Middlewares/LVGL/GUI/lvgl/src/core/lv_obj_style_gen.h **** {
 408:../../Middlewares/LVGL/GUI/lvgl/src/core/lv_obj_style_gen.h ****     lv_style_value_t v = lv_obj_get_style_prop(obj, part, LV_STYLE_SHADOW_SPREAD);
 409:../../Middlewares/LVGL/GUI/lvgl/src/core/lv_obj_style_gen.h ****     return (int32_t)v.num;
 410:../../Middlewares/LVGL/GUI/lvgl/src/core/lv_obj_style_gen.h **** }
 411:../../Middlewares/LVGL/GUI/lvgl/src/core/lv_obj_style_gen.h **** 
 412:../../Middlewares/LVGL/GUI/lvgl/src/core/lv_obj_style_gen.h **** static inline lv_color_t lv_obj_get_style_shadow_color(const lv_obj_t * obj, lv_part_t part)
 413:../../Middlewares/LVGL/GUI/lvgl/src/core/lv_obj_style_gen.h **** {
 414:../../Middlewares/LVGL/GUI/lvgl/src/core/lv_obj_style_gen.h ****     lv_style_value_t v = lv_obj_get_style_prop(obj, part, LV_STYLE_SHADOW_COLOR);
 415:../../Middlewares/LVGL/GUI/lvgl/src/core/lv_obj_style_gen.h ****     return v.color;
 416:../../Middlewares/LVGL/GUI/lvgl/src/core/lv_obj_style_gen.h **** }
 417:../../Middlewares/LVGL/GUI/lvgl/src/core/lv_obj_style_gen.h **** 
 418:../../Middlewares/LVGL/GUI/lvgl/src/core/lv_obj_style_gen.h **** static inline lv_color_t lv_obj_get_style_shadow_color_filtered(const lv_obj_t * obj, lv_part_t par
 419:../../Middlewares/LVGL/GUI/lvgl/src/core/lv_obj_style_gen.h **** {
 420:../../Middlewares/LVGL/GUI/lvgl/src/core/lv_obj_style_gen.h ****     lv_style_value_t v = lv_obj_style_apply_color_filter(obj, part, lv_obj_get_style_prop(obj, part
 421:../../Middlewares/LVGL/GUI/lvgl/src/core/lv_obj_style_gen.h ****     return v.color;
 422:../../Middlewares/LVGL/GUI/lvgl/src/core/lv_obj_style_gen.h **** }
 423:../../Middlewares/LVGL/GUI/lvgl/src/core/lv_obj_style_gen.h **** 
 424:../../Middlewares/LVGL/GUI/lvgl/src/core/lv_obj_style_gen.h **** static inline lv_opa_t lv_obj_get_style_shadow_opa(const lv_obj_t * obj, lv_part_t part)
 425:../../Middlewares/LVGL/GUI/lvgl/src/core/lv_obj_style_gen.h **** {
 426:../../Middlewares/LVGL/GUI/lvgl/src/core/lv_obj_style_gen.h ****     lv_style_value_t v = lv_obj_get_style_prop(obj, part, LV_STYLE_SHADOW_OPA);
 427:../../Middlewares/LVGL/GUI/lvgl/src/core/lv_obj_style_gen.h ****     return (lv_opa_t)v.num;
 428:../../Middlewares/LVGL/GUI/lvgl/src/core/lv_obj_style_gen.h **** }
 429:../../Middlewares/LVGL/GUI/lvgl/src/core/lv_obj_style_gen.h **** 
 430:../../Middlewares/LVGL/GUI/lvgl/src/core/lv_obj_style_gen.h **** static inline lv_opa_t lv_obj_get_style_image_opa(const lv_obj_t * obj, lv_part_t part)
 431:../../Middlewares/LVGL/GUI/lvgl/src/core/lv_obj_style_gen.h **** {
 432:../../Middlewares/LVGL/GUI/lvgl/src/core/lv_obj_style_gen.h ****     lv_style_value_t v = lv_obj_get_style_prop(obj, part, LV_STYLE_IMAGE_OPA);
ARM GAS  C:\Users\28576\AppData\Local\Temp\cclWIAwm.s 			page 17


 433:../../Middlewares/LVGL/GUI/lvgl/src/core/lv_obj_style_gen.h ****     return (lv_opa_t)v.num;
 434:../../Middlewares/LVGL/GUI/lvgl/src/core/lv_obj_style_gen.h **** }
 435:../../Middlewares/LVGL/GUI/lvgl/src/core/lv_obj_style_gen.h **** 
 436:../../Middlewares/LVGL/GUI/lvgl/src/core/lv_obj_style_gen.h **** static inline lv_color_t lv_obj_get_style_image_recolor(const lv_obj_t * obj, lv_part_t part)
 437:../../Middlewares/LVGL/GUI/lvgl/src/core/lv_obj_style_gen.h **** {
 438:../../Middlewares/LVGL/GUI/lvgl/src/core/lv_obj_style_gen.h ****     lv_style_value_t v = lv_obj_get_style_prop(obj, part, LV_STYLE_IMAGE_RECOLOR);
 439:../../Middlewares/LVGL/GUI/lvgl/src/core/lv_obj_style_gen.h ****     return v.color;
 440:../../Middlewares/LVGL/GUI/lvgl/src/core/lv_obj_style_gen.h **** }
 441:../../Middlewares/LVGL/GUI/lvgl/src/core/lv_obj_style_gen.h **** 
 442:../../Middlewares/LVGL/GUI/lvgl/src/core/lv_obj_style_gen.h **** static inline lv_color_t lv_obj_get_style_image_recolor_filtered(const lv_obj_t * obj, lv_part_t pa
 443:../../Middlewares/LVGL/GUI/lvgl/src/core/lv_obj_style_gen.h **** {
 444:../../Middlewares/LVGL/GUI/lvgl/src/core/lv_obj_style_gen.h ****     lv_style_value_t v = lv_obj_style_apply_color_filter(obj, part, lv_obj_get_style_prop(obj, part
 445:../../Middlewares/LVGL/GUI/lvgl/src/core/lv_obj_style_gen.h ****     return v.color;
 446:../../Middlewares/LVGL/GUI/lvgl/src/core/lv_obj_style_gen.h **** }
 447:../../Middlewares/LVGL/GUI/lvgl/src/core/lv_obj_style_gen.h **** 
 448:../../Middlewares/LVGL/GUI/lvgl/src/core/lv_obj_style_gen.h **** static inline lv_opa_t lv_obj_get_style_image_recolor_opa(const lv_obj_t * obj, lv_part_t part)
 449:../../Middlewares/LVGL/GUI/lvgl/src/core/lv_obj_style_gen.h **** {
 450:../../Middlewares/LVGL/GUI/lvgl/src/core/lv_obj_style_gen.h ****     lv_style_value_t v = lv_obj_get_style_prop(obj, part, LV_STYLE_IMAGE_RECOLOR_OPA);
 451:../../Middlewares/LVGL/GUI/lvgl/src/core/lv_obj_style_gen.h ****     return (lv_opa_t)v.num;
 452:../../Middlewares/LVGL/GUI/lvgl/src/core/lv_obj_style_gen.h **** }
 453:../../Middlewares/LVGL/GUI/lvgl/src/core/lv_obj_style_gen.h **** 
 454:../../Middlewares/LVGL/GUI/lvgl/src/core/lv_obj_style_gen.h **** static inline int32_t lv_obj_get_style_line_width(const lv_obj_t * obj, lv_part_t part)
 455:../../Middlewares/LVGL/GUI/lvgl/src/core/lv_obj_style_gen.h **** {
 456:../../Middlewares/LVGL/GUI/lvgl/src/core/lv_obj_style_gen.h ****     lv_style_value_t v = lv_obj_get_style_prop(obj, part, LV_STYLE_LINE_WIDTH);
 457:../../Middlewares/LVGL/GUI/lvgl/src/core/lv_obj_style_gen.h ****     return (int32_t)v.num;
 458:../../Middlewares/LVGL/GUI/lvgl/src/core/lv_obj_style_gen.h **** }
 459:../../Middlewares/LVGL/GUI/lvgl/src/core/lv_obj_style_gen.h **** 
 460:../../Middlewares/LVGL/GUI/lvgl/src/core/lv_obj_style_gen.h **** static inline int32_t lv_obj_get_style_line_dash_width(const lv_obj_t * obj, lv_part_t part)
 461:../../Middlewares/LVGL/GUI/lvgl/src/core/lv_obj_style_gen.h **** {
 462:../../Middlewares/LVGL/GUI/lvgl/src/core/lv_obj_style_gen.h ****     lv_style_value_t v = lv_obj_get_style_prop(obj, part, LV_STYLE_LINE_DASH_WIDTH);
 463:../../Middlewares/LVGL/GUI/lvgl/src/core/lv_obj_style_gen.h ****     return (int32_t)v.num;
 464:../../Middlewares/LVGL/GUI/lvgl/src/core/lv_obj_style_gen.h **** }
 465:../../Middlewares/LVGL/GUI/lvgl/src/core/lv_obj_style_gen.h **** 
 466:../../Middlewares/LVGL/GUI/lvgl/src/core/lv_obj_style_gen.h **** static inline int32_t lv_obj_get_style_line_dash_gap(const lv_obj_t * obj, lv_part_t part)
 467:../../Middlewares/LVGL/GUI/lvgl/src/core/lv_obj_style_gen.h **** {
 468:../../Middlewares/LVGL/GUI/lvgl/src/core/lv_obj_style_gen.h ****     lv_style_value_t v = lv_obj_get_style_prop(obj, part, LV_STYLE_LINE_DASH_GAP);
 469:../../Middlewares/LVGL/GUI/lvgl/src/core/lv_obj_style_gen.h ****     return (int32_t)v.num;
 470:../../Middlewares/LVGL/GUI/lvgl/src/core/lv_obj_style_gen.h **** }
 471:../../Middlewares/LVGL/GUI/lvgl/src/core/lv_obj_style_gen.h **** 
 472:../../Middlewares/LVGL/GUI/lvgl/src/core/lv_obj_style_gen.h **** static inline bool lv_obj_get_style_line_rounded(const lv_obj_t * obj, lv_part_t part)
 473:../../Middlewares/LVGL/GUI/lvgl/src/core/lv_obj_style_gen.h **** {
 474:../../Middlewares/LVGL/GUI/lvgl/src/core/lv_obj_style_gen.h ****     lv_style_value_t v = lv_obj_get_style_prop(obj, part, LV_STYLE_LINE_ROUNDED);
 475:../../Middlewares/LVGL/GUI/lvgl/src/core/lv_obj_style_gen.h ****     return (bool)v.num;
 476:../../Middlewares/LVGL/GUI/lvgl/src/core/lv_obj_style_gen.h **** }
 477:../../Middlewares/LVGL/GUI/lvgl/src/core/lv_obj_style_gen.h **** 
 478:../../Middlewares/LVGL/GUI/lvgl/src/core/lv_obj_style_gen.h **** static inline lv_color_t lv_obj_get_style_line_color(const lv_obj_t * obj, lv_part_t part)
 479:../../Middlewares/LVGL/GUI/lvgl/src/core/lv_obj_style_gen.h **** {
 480:../../Middlewares/LVGL/GUI/lvgl/src/core/lv_obj_style_gen.h ****     lv_style_value_t v = lv_obj_get_style_prop(obj, part, LV_STYLE_LINE_COLOR);
 481:../../Middlewares/LVGL/GUI/lvgl/src/core/lv_obj_style_gen.h ****     return v.color;
 482:../../Middlewares/LVGL/GUI/lvgl/src/core/lv_obj_style_gen.h **** }
 483:../../Middlewares/LVGL/GUI/lvgl/src/core/lv_obj_style_gen.h **** 
 484:../../Middlewares/LVGL/GUI/lvgl/src/core/lv_obj_style_gen.h **** static inline lv_color_t lv_obj_get_style_line_color_filtered(const lv_obj_t * obj, lv_part_t part)
 485:../../Middlewares/LVGL/GUI/lvgl/src/core/lv_obj_style_gen.h **** {
 486:../../Middlewares/LVGL/GUI/lvgl/src/core/lv_obj_style_gen.h ****     lv_style_value_t v = lv_obj_style_apply_color_filter(obj, part, lv_obj_get_style_prop(obj, part
 487:../../Middlewares/LVGL/GUI/lvgl/src/core/lv_obj_style_gen.h ****     return v.color;
 488:../../Middlewares/LVGL/GUI/lvgl/src/core/lv_obj_style_gen.h **** }
 489:../../Middlewares/LVGL/GUI/lvgl/src/core/lv_obj_style_gen.h **** 
ARM GAS  C:\Users\28576\AppData\Local\Temp\cclWIAwm.s 			page 18


 490:../../Middlewares/LVGL/GUI/lvgl/src/core/lv_obj_style_gen.h **** static inline lv_opa_t lv_obj_get_style_line_opa(const lv_obj_t * obj, lv_part_t part)
 491:../../Middlewares/LVGL/GUI/lvgl/src/core/lv_obj_style_gen.h **** {
 492:../../Middlewares/LVGL/GUI/lvgl/src/core/lv_obj_style_gen.h ****     lv_style_value_t v = lv_obj_get_style_prop(obj, part, LV_STYLE_LINE_OPA);
 493:../../Middlewares/LVGL/GUI/lvgl/src/core/lv_obj_style_gen.h ****     return (lv_opa_t)v.num;
 494:../../Middlewares/LVGL/GUI/lvgl/src/core/lv_obj_style_gen.h **** }
 495:../../Middlewares/LVGL/GUI/lvgl/src/core/lv_obj_style_gen.h **** 
 496:../../Middlewares/LVGL/GUI/lvgl/src/core/lv_obj_style_gen.h **** static inline int32_t lv_obj_get_style_arc_width(const lv_obj_t * obj, lv_part_t part)
 497:../../Middlewares/LVGL/GUI/lvgl/src/core/lv_obj_style_gen.h **** {
 498:../../Middlewares/LVGL/GUI/lvgl/src/core/lv_obj_style_gen.h ****     lv_style_value_t v = lv_obj_get_style_prop(obj, part, LV_STYLE_ARC_WIDTH);
 499:../../Middlewares/LVGL/GUI/lvgl/src/core/lv_obj_style_gen.h ****     return (int32_t)v.num;
 500:../../Middlewares/LVGL/GUI/lvgl/src/core/lv_obj_style_gen.h **** }
 501:../../Middlewares/LVGL/GUI/lvgl/src/core/lv_obj_style_gen.h **** 
 502:../../Middlewares/LVGL/GUI/lvgl/src/core/lv_obj_style_gen.h **** static inline bool lv_obj_get_style_arc_rounded(const lv_obj_t * obj, lv_part_t part)
 503:../../Middlewares/LVGL/GUI/lvgl/src/core/lv_obj_style_gen.h **** {
 504:../../Middlewares/LVGL/GUI/lvgl/src/core/lv_obj_style_gen.h ****     lv_style_value_t v = lv_obj_get_style_prop(obj, part, LV_STYLE_ARC_ROUNDED);
 505:../../Middlewares/LVGL/GUI/lvgl/src/core/lv_obj_style_gen.h ****     return (bool)v.num;
 506:../../Middlewares/LVGL/GUI/lvgl/src/core/lv_obj_style_gen.h **** }
 507:../../Middlewares/LVGL/GUI/lvgl/src/core/lv_obj_style_gen.h **** 
 508:../../Middlewares/LVGL/GUI/lvgl/src/core/lv_obj_style_gen.h **** static inline lv_color_t lv_obj_get_style_arc_color(const lv_obj_t * obj, lv_part_t part)
 509:../../Middlewares/LVGL/GUI/lvgl/src/core/lv_obj_style_gen.h **** {
 510:../../Middlewares/LVGL/GUI/lvgl/src/core/lv_obj_style_gen.h ****     lv_style_value_t v = lv_obj_get_style_prop(obj, part, LV_STYLE_ARC_COLOR);
 511:../../Middlewares/LVGL/GUI/lvgl/src/core/lv_obj_style_gen.h ****     return v.color;
 512:../../Middlewares/LVGL/GUI/lvgl/src/core/lv_obj_style_gen.h **** }
 513:../../Middlewares/LVGL/GUI/lvgl/src/core/lv_obj_style_gen.h **** 
 514:../../Middlewares/LVGL/GUI/lvgl/src/core/lv_obj_style_gen.h **** static inline lv_color_t lv_obj_get_style_arc_color_filtered(const lv_obj_t * obj, lv_part_t part)
 515:../../Middlewares/LVGL/GUI/lvgl/src/core/lv_obj_style_gen.h **** {
 516:../../Middlewares/LVGL/GUI/lvgl/src/core/lv_obj_style_gen.h ****     lv_style_value_t v = lv_obj_style_apply_color_filter(obj, part, lv_obj_get_style_prop(obj, part
 517:../../Middlewares/LVGL/GUI/lvgl/src/core/lv_obj_style_gen.h ****     return v.color;
 518:../../Middlewares/LVGL/GUI/lvgl/src/core/lv_obj_style_gen.h **** }
 519:../../Middlewares/LVGL/GUI/lvgl/src/core/lv_obj_style_gen.h **** 
 520:../../Middlewares/LVGL/GUI/lvgl/src/core/lv_obj_style_gen.h **** static inline lv_opa_t lv_obj_get_style_arc_opa(const lv_obj_t * obj, lv_part_t part)
 521:../../Middlewares/LVGL/GUI/lvgl/src/core/lv_obj_style_gen.h **** {
 522:../../Middlewares/LVGL/GUI/lvgl/src/core/lv_obj_style_gen.h ****     lv_style_value_t v = lv_obj_get_style_prop(obj, part, LV_STYLE_ARC_OPA);
 523:../../Middlewares/LVGL/GUI/lvgl/src/core/lv_obj_style_gen.h ****     return (lv_opa_t)v.num;
 524:../../Middlewares/LVGL/GUI/lvgl/src/core/lv_obj_style_gen.h **** }
 525:../../Middlewares/LVGL/GUI/lvgl/src/core/lv_obj_style_gen.h **** 
 526:../../Middlewares/LVGL/GUI/lvgl/src/core/lv_obj_style_gen.h **** static inline const void * lv_obj_get_style_arc_image_src(const lv_obj_t * obj, lv_part_t part)
 527:../../Middlewares/LVGL/GUI/lvgl/src/core/lv_obj_style_gen.h **** {
 528:../../Middlewares/LVGL/GUI/lvgl/src/core/lv_obj_style_gen.h ****     lv_style_value_t v = lv_obj_get_style_prop(obj, part, LV_STYLE_ARC_IMAGE_SRC);
 529:../../Middlewares/LVGL/GUI/lvgl/src/core/lv_obj_style_gen.h ****     return (const void *)v.ptr;
 530:../../Middlewares/LVGL/GUI/lvgl/src/core/lv_obj_style_gen.h **** }
 531:../../Middlewares/LVGL/GUI/lvgl/src/core/lv_obj_style_gen.h **** 
 532:../../Middlewares/LVGL/GUI/lvgl/src/core/lv_obj_style_gen.h **** static inline lv_color_t lv_obj_get_style_text_color(const lv_obj_t * obj, lv_part_t part)
 533:../../Middlewares/LVGL/GUI/lvgl/src/core/lv_obj_style_gen.h **** {
 534:../../Middlewares/LVGL/GUI/lvgl/src/core/lv_obj_style_gen.h ****     lv_style_value_t v = lv_obj_get_style_prop(obj, part, LV_STYLE_TEXT_COLOR);
 535:../../Middlewares/LVGL/GUI/lvgl/src/core/lv_obj_style_gen.h ****     return v.color;
 536:../../Middlewares/LVGL/GUI/lvgl/src/core/lv_obj_style_gen.h **** }
 537:../../Middlewares/LVGL/GUI/lvgl/src/core/lv_obj_style_gen.h **** 
 538:../../Middlewares/LVGL/GUI/lvgl/src/core/lv_obj_style_gen.h **** static inline lv_color_t lv_obj_get_style_text_color_filtered(const lv_obj_t * obj, lv_part_t part)
 539:../../Middlewares/LVGL/GUI/lvgl/src/core/lv_obj_style_gen.h **** {
 540:../../Middlewares/LVGL/GUI/lvgl/src/core/lv_obj_style_gen.h ****     lv_style_value_t v = lv_obj_style_apply_color_filter(obj, part, lv_obj_get_style_prop(obj, part
 541:../../Middlewares/LVGL/GUI/lvgl/src/core/lv_obj_style_gen.h ****     return v.color;
 542:../../Middlewares/LVGL/GUI/lvgl/src/core/lv_obj_style_gen.h **** }
 543:../../Middlewares/LVGL/GUI/lvgl/src/core/lv_obj_style_gen.h **** 
 544:../../Middlewares/LVGL/GUI/lvgl/src/core/lv_obj_style_gen.h **** static inline lv_opa_t lv_obj_get_style_text_opa(const lv_obj_t * obj, lv_part_t part)
 545:../../Middlewares/LVGL/GUI/lvgl/src/core/lv_obj_style_gen.h **** {
 546:../../Middlewares/LVGL/GUI/lvgl/src/core/lv_obj_style_gen.h ****     lv_style_value_t v = lv_obj_get_style_prop(obj, part, LV_STYLE_TEXT_OPA);
ARM GAS  C:\Users\28576\AppData\Local\Temp\cclWIAwm.s 			page 19


 547:../../Middlewares/LVGL/GUI/lvgl/src/core/lv_obj_style_gen.h ****     return (lv_opa_t)v.num;
 548:../../Middlewares/LVGL/GUI/lvgl/src/core/lv_obj_style_gen.h **** }
 549:../../Middlewares/LVGL/GUI/lvgl/src/core/lv_obj_style_gen.h **** 
 550:../../Middlewares/LVGL/GUI/lvgl/src/core/lv_obj_style_gen.h **** static inline const lv_font_t * lv_obj_get_style_text_font(const lv_obj_t * obj, lv_part_t part)
 551:../../Middlewares/LVGL/GUI/lvgl/src/core/lv_obj_style_gen.h **** {
 552:../../Middlewares/LVGL/GUI/lvgl/src/core/lv_obj_style_gen.h ****     lv_style_value_t v = lv_obj_get_style_prop(obj, part, LV_STYLE_TEXT_FONT);
 553:../../Middlewares/LVGL/GUI/lvgl/src/core/lv_obj_style_gen.h ****     return (const lv_font_t *)v.ptr;
 554:../../Middlewares/LVGL/GUI/lvgl/src/core/lv_obj_style_gen.h **** }
 555:../../Middlewares/LVGL/GUI/lvgl/src/core/lv_obj_style_gen.h **** 
 556:../../Middlewares/LVGL/GUI/lvgl/src/core/lv_obj_style_gen.h **** static inline int32_t lv_obj_get_style_text_letter_space(const lv_obj_t * obj, lv_part_t part)
 557:../../Middlewares/LVGL/GUI/lvgl/src/core/lv_obj_style_gen.h **** {
 558:../../Middlewares/LVGL/GUI/lvgl/src/core/lv_obj_style_gen.h ****     lv_style_value_t v = lv_obj_get_style_prop(obj, part, LV_STYLE_TEXT_LETTER_SPACE);
 559:../../Middlewares/LVGL/GUI/lvgl/src/core/lv_obj_style_gen.h ****     return (int32_t)v.num;
 560:../../Middlewares/LVGL/GUI/lvgl/src/core/lv_obj_style_gen.h **** }
 561:../../Middlewares/LVGL/GUI/lvgl/src/core/lv_obj_style_gen.h **** 
 562:../../Middlewares/LVGL/GUI/lvgl/src/core/lv_obj_style_gen.h **** static inline int32_t lv_obj_get_style_text_line_space(const lv_obj_t * obj, lv_part_t part)
 563:../../Middlewares/LVGL/GUI/lvgl/src/core/lv_obj_style_gen.h **** {
 564:../../Middlewares/LVGL/GUI/lvgl/src/core/lv_obj_style_gen.h ****     lv_style_value_t v = lv_obj_get_style_prop(obj, part, LV_STYLE_TEXT_LINE_SPACE);
 565:../../Middlewares/LVGL/GUI/lvgl/src/core/lv_obj_style_gen.h ****     return (int32_t)v.num;
 566:../../Middlewares/LVGL/GUI/lvgl/src/core/lv_obj_style_gen.h **** }
 567:../../Middlewares/LVGL/GUI/lvgl/src/core/lv_obj_style_gen.h **** 
 568:../../Middlewares/LVGL/GUI/lvgl/src/core/lv_obj_style_gen.h **** static inline lv_text_decor_t lv_obj_get_style_text_decor(const lv_obj_t * obj, lv_part_t part)
 569:../../Middlewares/LVGL/GUI/lvgl/src/core/lv_obj_style_gen.h **** {
 570:../../Middlewares/LVGL/GUI/lvgl/src/core/lv_obj_style_gen.h ****     lv_style_value_t v = lv_obj_get_style_prop(obj, part, LV_STYLE_TEXT_DECOR);
 571:../../Middlewares/LVGL/GUI/lvgl/src/core/lv_obj_style_gen.h ****     return (lv_text_decor_t)v.num;
 572:../../Middlewares/LVGL/GUI/lvgl/src/core/lv_obj_style_gen.h **** }
 573:../../Middlewares/LVGL/GUI/lvgl/src/core/lv_obj_style_gen.h **** 
 574:../../Middlewares/LVGL/GUI/lvgl/src/core/lv_obj_style_gen.h **** static inline lv_text_align_t lv_obj_get_style_text_align(const lv_obj_t * obj, lv_part_t part)
 575:../../Middlewares/LVGL/GUI/lvgl/src/core/lv_obj_style_gen.h **** {
 576:../../Middlewares/LVGL/GUI/lvgl/src/core/lv_obj_style_gen.h ****     lv_style_value_t v = lv_obj_get_style_prop(obj, part, LV_STYLE_TEXT_ALIGN);
 577:../../Middlewares/LVGL/GUI/lvgl/src/core/lv_obj_style_gen.h ****     return (lv_text_align_t)v.num;
 578:../../Middlewares/LVGL/GUI/lvgl/src/core/lv_obj_style_gen.h **** }
 579:../../Middlewares/LVGL/GUI/lvgl/src/core/lv_obj_style_gen.h **** 
 580:../../Middlewares/LVGL/GUI/lvgl/src/core/lv_obj_style_gen.h **** static inline lv_color_t lv_obj_get_style_text_outline_stroke_color(const lv_obj_t * obj, lv_part_t
 581:../../Middlewares/LVGL/GUI/lvgl/src/core/lv_obj_style_gen.h **** {
 582:../../Middlewares/LVGL/GUI/lvgl/src/core/lv_obj_style_gen.h ****     lv_style_value_t v = lv_obj_get_style_prop(obj, part, LV_STYLE_TEXT_OUTLINE_STROKE_COLOR);
 583:../../Middlewares/LVGL/GUI/lvgl/src/core/lv_obj_style_gen.h ****     return v.color;
 584:../../Middlewares/LVGL/GUI/lvgl/src/core/lv_obj_style_gen.h **** }
 585:../../Middlewares/LVGL/GUI/lvgl/src/core/lv_obj_style_gen.h **** 
 586:../../Middlewares/LVGL/GUI/lvgl/src/core/lv_obj_style_gen.h **** static inline lv_color_t lv_obj_get_style_text_outline_stroke_color_filtered(const lv_obj_t * obj, 
 587:../../Middlewares/LVGL/GUI/lvgl/src/core/lv_obj_style_gen.h **** {
 588:../../Middlewares/LVGL/GUI/lvgl/src/core/lv_obj_style_gen.h ****     lv_style_value_t v = lv_obj_style_apply_color_filter(obj, part, lv_obj_get_style_prop(obj, part
 589:../../Middlewares/LVGL/GUI/lvgl/src/core/lv_obj_style_gen.h ****     return v.color;
 590:../../Middlewares/LVGL/GUI/lvgl/src/core/lv_obj_style_gen.h **** }
 591:../../Middlewares/LVGL/GUI/lvgl/src/core/lv_obj_style_gen.h **** 
 592:../../Middlewares/LVGL/GUI/lvgl/src/core/lv_obj_style_gen.h **** static inline int32_t lv_obj_get_style_text_outline_stroke_width(const lv_obj_t * obj, lv_part_t pa
 593:../../Middlewares/LVGL/GUI/lvgl/src/core/lv_obj_style_gen.h **** {
 594:../../Middlewares/LVGL/GUI/lvgl/src/core/lv_obj_style_gen.h ****     lv_style_value_t v = lv_obj_get_style_prop(obj, part, LV_STYLE_TEXT_OUTLINE_STROKE_WIDTH);
 595:../../Middlewares/LVGL/GUI/lvgl/src/core/lv_obj_style_gen.h ****     return (int32_t)v.num;
 596:../../Middlewares/LVGL/GUI/lvgl/src/core/lv_obj_style_gen.h **** }
 597:../../Middlewares/LVGL/GUI/lvgl/src/core/lv_obj_style_gen.h **** 
 598:../../Middlewares/LVGL/GUI/lvgl/src/core/lv_obj_style_gen.h **** static inline lv_opa_t lv_obj_get_style_text_outline_stroke_opa(const lv_obj_t * obj, lv_part_t par
 599:../../Middlewares/LVGL/GUI/lvgl/src/core/lv_obj_style_gen.h **** {
 600:../../Middlewares/LVGL/GUI/lvgl/src/core/lv_obj_style_gen.h ****     lv_style_value_t v = lv_obj_get_style_prop(obj, part, LV_STYLE_TEXT_OUTLINE_STROKE_OPA);
 601:../../Middlewares/LVGL/GUI/lvgl/src/core/lv_obj_style_gen.h ****     return (lv_opa_t)v.num;
 602:../../Middlewares/LVGL/GUI/lvgl/src/core/lv_obj_style_gen.h **** }
 603:../../Middlewares/LVGL/GUI/lvgl/src/core/lv_obj_style_gen.h **** 
ARM GAS  C:\Users\28576\AppData\Local\Temp\cclWIAwm.s 			page 20


 604:../../Middlewares/LVGL/GUI/lvgl/src/core/lv_obj_style_gen.h **** static inline int32_t lv_obj_get_style_radius(const lv_obj_t * obj, lv_part_t part)
 605:../../Middlewares/LVGL/GUI/lvgl/src/core/lv_obj_style_gen.h **** {
 606:../../Middlewares/LVGL/GUI/lvgl/src/core/lv_obj_style_gen.h ****     lv_style_value_t v = lv_obj_get_style_prop(obj, part, LV_STYLE_RADIUS);
 607:../../Middlewares/LVGL/GUI/lvgl/src/core/lv_obj_style_gen.h ****     return (int32_t)v.num;
 608:../../Middlewares/LVGL/GUI/lvgl/src/core/lv_obj_style_gen.h **** }
 609:../../Middlewares/LVGL/GUI/lvgl/src/core/lv_obj_style_gen.h **** 
 610:../../Middlewares/LVGL/GUI/lvgl/src/core/lv_obj_style_gen.h **** static inline int32_t lv_obj_get_style_radial_offset(const lv_obj_t * obj, lv_part_t part)
 611:../../Middlewares/LVGL/GUI/lvgl/src/core/lv_obj_style_gen.h **** {
 612:../../Middlewares/LVGL/GUI/lvgl/src/core/lv_obj_style_gen.h ****     lv_style_value_t v = lv_obj_get_style_prop(obj, part, LV_STYLE_RADIAL_OFFSET);
 613:../../Middlewares/LVGL/GUI/lvgl/src/core/lv_obj_style_gen.h ****     return (int32_t)v.num;
 614:../../Middlewares/LVGL/GUI/lvgl/src/core/lv_obj_style_gen.h **** }
 615:../../Middlewares/LVGL/GUI/lvgl/src/core/lv_obj_style_gen.h **** 
 616:../../Middlewares/LVGL/GUI/lvgl/src/core/lv_obj_style_gen.h **** static inline bool lv_obj_get_style_clip_corner(const lv_obj_t * obj, lv_part_t part)
 617:../../Middlewares/LVGL/GUI/lvgl/src/core/lv_obj_style_gen.h **** {
 618:../../Middlewares/LVGL/GUI/lvgl/src/core/lv_obj_style_gen.h ****     lv_style_value_t v = lv_obj_get_style_prop(obj, part, LV_STYLE_CLIP_CORNER);
 619:../../Middlewares/LVGL/GUI/lvgl/src/core/lv_obj_style_gen.h ****     return (bool)v.num;
 620:../../Middlewares/LVGL/GUI/lvgl/src/core/lv_obj_style_gen.h **** }
 621:../../Middlewares/LVGL/GUI/lvgl/src/core/lv_obj_style_gen.h **** 
 622:../../Middlewares/LVGL/GUI/lvgl/src/core/lv_obj_style_gen.h **** static inline lv_opa_t lv_obj_get_style_opa(const lv_obj_t * obj, lv_part_t part)
  72              		.loc 2 622 24 is_stmt 1 view .LVU12
  73              	.LBB120:
 623:../../Middlewares/LVGL/GUI/lvgl/src/core/lv_obj_style_gen.h **** {
 624:../../Middlewares/LVGL/GUI/lvgl/src/core/lv_obj_style_gen.h ****     lv_style_value_t v = lv_obj_get_style_prop(obj, part, LV_STYLE_OPA);
  74              		.loc 2 624 5 view .LVU13
  75              		.loc 2 624 26 is_stmt 0 view .LVU14
  76 0016 6222     		movs	r2, #98
  77              	.LVL4:
  78              		.loc 2 624 26 view .LVU15
  79 0018 FFF7FEFF 		bl	lv_obj_get_style_prop
  80              	.LVL5:
  81              		.loc 2 624 26 view .LVU16
  82 001c 0190     		str	r0, [sp, #4]
 625:../../Middlewares/LVGL/GUI/lvgl/src/core/lv_obj_style_gen.h ****     return (lv_opa_t)v.num;
  83              		.loc 2 625 5 is_stmt 1 view .LVU17
  84              	.LVL6:
  85              		.loc 2 625 5 is_stmt 0 view .LVU18
  86              	.LBE120:
  87              	.LBE119:
 403:../../Middlewares/LVGL/GUI/lvgl/src/core/lv_obj_draw.c ****     }
  88              		.loc 1 403 16 discriminator 1 view .LVU19
  89 001e C0B2     		uxtb	r0, r0
  90 0020 04FB00F0 		mul	r0, r4, r0
  91 0024 000A     		lsrs	r0, r0, #8
 403:../../Middlewares/LVGL/GUI/lvgl/src/core/lv_obj_draw.c ****     }
  92              		.loc 1 403 16 view .LVU20
  93 0026 F2E7     		b	.L4
  94              	.LVL7:
  95              	.L2:
 407:../../Middlewares/LVGL/GUI/lvgl/src/core/lv_obj_draw.c **** }
  96              		.loc 1 407 5 is_stmt 1 view .LVU21
 407:../../Middlewares/LVGL/GUI/lvgl/src/core/lv_obj_draw.c **** }
  97              		.loc 1 407 12 is_stmt 0 view .LVU22
  98 0028 FFF7FEFF 		bl	lv_obj_get_style_opa_recursive
  99              	.LVL8:
 407:../../Middlewares/LVGL/GUI/lvgl/src/core/lv_obj_draw.c **** }
 100              		.loc 1 407 12 view .LVU23
 101 002c EFE7     		b	.L4
ARM GAS  C:\Users\28576\AppData\Local\Temp\cclWIAwm.s 			page 21


 102              		.cfi_endproc
 103              	.LFE181:
 105              		.section	.text.lv_obj_get_style_bg_color_filtered,"ax",%progbits
 106              		.align	1
 107              		.syntax unified
 108              		.thumb
 109              		.thumb_func
 111              	lv_obj_get_style_bg_color_filtered:
 112              	.LVL9:
 113              	.LFB62:
 227:../../Middlewares/LVGL/GUI/lvgl/src/core/lv_obj_style_gen.h ****     lv_style_value_t v = lv_obj_style_apply_color_filter(obj, part, lv_obj_get_style_prop(obj, part
 114              		.loc 2 227 1 is_stmt 1 view -0
 115              		.cfi_startproc
 116              		@ args = 0, pretend = 0, frame = 16
 117              		@ frame_needed = 0, uses_anonymous_args = 0
 227:../../Middlewares/LVGL/GUI/lvgl/src/core/lv_obj_style_gen.h ****     lv_style_value_t v = lv_obj_style_apply_color_filter(obj, part, lv_obj_get_style_prop(obj, part
 118              		.loc 2 227 1 is_stmt 0 view .LVU25
 119 0000 30B5     		push	{r4, r5, lr}
 120              	.LCFI4:
 121              		.cfi_def_cfa_offset 12
 122              		.cfi_offset 4, -12
 123              		.cfi_offset 5, -8
 124              		.cfi_offset 14, -4
 125 0002 85B0     		sub	sp, sp, #20
 126              	.LCFI5:
 127              		.cfi_def_cfa_offset 32
 128 0004 0546     		mov	r5, r0
 129 0006 0C46     		mov	r4, r1
 228:../../Middlewares/LVGL/GUI/lvgl/src/core/lv_obj_style_gen.h ****     return v.color;
 130              		.loc 2 228 5 is_stmt 1 view .LVU26
 228:../../Middlewares/LVGL/GUI/lvgl/src/core/lv_obj_style_gen.h ****     return v.color;
 131              		.loc 2 228 26 is_stmt 0 view .LVU27
 132 0008 1C22     		movs	r2, #28
 133 000a FFF7FEFF 		bl	lv_obj_get_style_prop
 134              	.LVL10:
 228:../../Middlewares/LVGL/GUI/lvgl/src/core/lv_obj_style_gen.h ****     return v.color;
 135              		.loc 2 228 26 view .LVU28
 136 000e 0246     		mov	r2, r0
 137 0010 0290     		str	r0, [sp, #8]
 228:../../Middlewares/LVGL/GUI/lvgl/src/core/lv_obj_style_gen.h ****     return v.color;
 138              		.loc 2 228 26 discriminator 1 view .LVU29
 139 0012 2146     		mov	r1, r4
 140 0014 2846     		mov	r0, r5
 141 0016 FFF7FEFF 		bl	lv_obj_style_apply_color_filter
 142              	.LVL11:
 143 001a 0190     		str	r0, [sp, #4]
 229:../../Middlewares/LVGL/GUI/lvgl/src/core/lv_obj_style_gen.h **** }
 144              		.loc 2 229 5 is_stmt 1 view .LVU30
 229:../../Middlewares/LVGL/GUI/lvgl/src/core/lv_obj_style_gen.h **** }
 145              		.loc 2 229 13 is_stmt 0 view .LVU31
 146 001c ADF80C00 		strh	r0, [sp, #12]	@ movhi
 147 0020 030C     		lsrs	r3, r0, #16
 148 0022 8DF80E30 		strb	r3, [sp, #14]
 149 0026 0020     		movs	r0, #0
 150 0028 9DF80C30 		ldrb	r3, [sp, #12]	@ zero_extendqisi2
 151 002c 63F30700 		bfi	r0, r3, #0, #8
 152 0030 9DF80D30 		ldrb	r3, [sp, #13]	@ zero_extendqisi2
ARM GAS  C:\Users\28576\AppData\Local\Temp\cclWIAwm.s 			page 22


 153 0034 63F30F20 		bfi	r0, r3, #8, #8
 154 0038 9DF80E30 		ldrb	r3, [sp, #14]	@ zero_extendqisi2
 155 003c 63F31740 		bfi	r0, r3, #16, #8
 230:../../Middlewares/LVGL/GUI/lvgl/src/core/lv_obj_style_gen.h **** 
 156              		.loc 2 230 1 view .LVU32
 157 0040 05B0     		add	sp, sp, #20
 158              	.LCFI6:
 159              		.cfi_def_cfa_offset 12
 160              		@ sp needed
 161 0042 30BD     		pop	{r4, r5, pc}
 230:../../Middlewares/LVGL/GUI/lvgl/src/core/lv_obj_style_gen.h **** 
 162              		.loc 2 230 1 view .LVU33
 163              		.cfi_endproc
 164              	.LFE62:
 166              		.section	.text.lv_obj_get_style_bg_grad_color_filtered,"ax",%progbits
 167              		.align	1
 168              		.syntax unified
 169              		.thumb
 170              		.thumb_func
 172              	lv_obj_get_style_bg_grad_color_filtered:
 173              	.LVL12:
 174              	.LFB65:
 245:../../Middlewares/LVGL/GUI/lvgl/src/core/lv_obj_style_gen.h ****     lv_style_value_t v = lv_obj_style_apply_color_filter(obj, part, lv_obj_get_style_prop(obj, part
 175              		.loc 2 245 1 is_stmt 1 view -0
 176              		.cfi_startproc
 177              		@ args = 0, pretend = 0, frame = 16
 178              		@ frame_needed = 0, uses_anonymous_args = 0
 245:../../Middlewares/LVGL/GUI/lvgl/src/core/lv_obj_style_gen.h ****     lv_style_value_t v = lv_obj_style_apply_color_filter(obj, part, lv_obj_get_style_prop(obj, part
 179              		.loc 2 245 1 is_stmt 0 view .LVU35
 180 0000 30B5     		push	{r4, r5, lr}
 181              	.LCFI7:
 182              		.cfi_def_cfa_offset 12
 183              		.cfi_offset 4, -12
 184              		.cfi_offset 5, -8
 185              		.cfi_offset 14, -4
 186 0002 85B0     		sub	sp, sp, #20
 187              	.LCFI8:
 188              		.cfi_def_cfa_offset 32
 189 0004 0546     		mov	r5, r0
 190 0006 0C46     		mov	r4, r1
 246:../../Middlewares/LVGL/GUI/lvgl/src/core/lv_obj_style_gen.h ****     return v.color;
 191              		.loc 2 246 5 is_stmt 1 view .LVU36
 246:../../Middlewares/LVGL/GUI/lvgl/src/core/lv_obj_style_gen.h ****     return v.color;
 192              		.loc 2 246 26 is_stmt 0 view .LVU37
 193 0008 2322     		movs	r2, #35
 194 000a FFF7FEFF 		bl	lv_obj_get_style_prop
 195              	.LVL13:
 246:../../Middlewares/LVGL/GUI/lvgl/src/core/lv_obj_style_gen.h ****     return v.color;
 196              		.loc 2 246 26 view .LVU38
 197 000e 0246     		mov	r2, r0
 198 0010 0290     		str	r0, [sp, #8]
 246:../../Middlewares/LVGL/GUI/lvgl/src/core/lv_obj_style_gen.h ****     return v.color;
 199              		.loc 2 246 26 discriminator 1 view .LVU39
 200 0012 2146     		mov	r1, r4
 201 0014 2846     		mov	r0, r5
 202 0016 FFF7FEFF 		bl	lv_obj_style_apply_color_filter
 203              	.LVL14:
ARM GAS  C:\Users\28576\AppData\Local\Temp\cclWIAwm.s 			page 23


 204 001a 0190     		str	r0, [sp, #4]
 247:../../Middlewares/LVGL/GUI/lvgl/src/core/lv_obj_style_gen.h **** }
 205              		.loc 2 247 5 is_stmt 1 view .LVU40
 247:../../Middlewares/LVGL/GUI/lvgl/src/core/lv_obj_style_gen.h **** }
 206              		.loc 2 247 13 is_stmt 0 view .LVU41
 207 001c ADF80C00 		strh	r0, [sp, #12]	@ movhi
 208 0020 030C     		lsrs	r3, r0, #16
 209 0022 8DF80E30 		strb	r3, [sp, #14]
 210 0026 0020     		movs	r0, #0
 211 0028 9DF80C30 		ldrb	r3, [sp, #12]	@ zero_extendqisi2
 212 002c 63F30700 		bfi	r0, r3, #0, #8
 213 0030 9DF80D30 		ldrb	r3, [sp, #13]	@ zero_extendqisi2
 214 0034 63F30F20 		bfi	r0, r3, #8, #8
 215 0038 9DF80E30 		ldrb	r3, [sp, #14]	@ zero_extendqisi2
 216 003c 63F31740 		bfi	r0, r3, #16, #8
 248:../../Middlewares/LVGL/GUI/lvgl/src/core/lv_obj_style_gen.h **** 
 217              		.loc 2 248 1 view .LVU42
 218 0040 05B0     		add	sp, sp, #20
 219              	.LCFI9:
 220              		.cfi_def_cfa_offset 12
 221              		@ sp needed
 222 0042 30BD     		pop	{r4, r5, pc}
 248:../../Middlewares/LVGL/GUI/lvgl/src/core/lv_obj_style_gen.h **** 
 223              		.loc 2 248 1 view .LVU43
 224              		.cfi_endproc
 225              	.LFE65:
 227              		.section	.text.lv_obj_get_style_border_color_filtered,"ax",%progbits
 228              		.align	1
 229              		.syntax unified
 230              		.thumb
 231              		.thumb_func
 233              	lv_obj_get_style_border_color_filtered:
 234              	.LVL15:
 235              	.LFB79:
 329:../../Middlewares/LVGL/GUI/lvgl/src/core/lv_obj_style_gen.h ****     lv_style_value_t v = lv_obj_style_apply_color_filter(obj, part, lv_obj_get_style_prop(obj, part
 236              		.loc 2 329 1 is_stmt 1 view -0
 237              		.cfi_startproc
 238              		@ args = 0, pretend = 0, frame = 16
 239              		@ frame_needed = 0, uses_anonymous_args = 0
 329:../../Middlewares/LVGL/GUI/lvgl/src/core/lv_obj_style_gen.h ****     lv_style_value_t v = lv_obj_style_apply_color_filter(obj, part, lv_obj_get_style_prop(obj, part
 240              		.loc 2 329 1 is_stmt 0 view .LVU45
 241 0000 30B5     		push	{r4, r5, lr}
 242              	.LCFI10:
 243              		.cfi_def_cfa_offset 12
 244              		.cfi_offset 4, -12
 245              		.cfi_offset 5, -8
 246              		.cfi_offset 14, -4
 247 0002 85B0     		sub	sp, sp, #20
 248              	.LCFI11:
 249              		.cfi_def_cfa_offset 32
 250 0004 0546     		mov	r5, r0
 251 0006 0C46     		mov	r4, r1
 330:../../Middlewares/LVGL/GUI/lvgl/src/core/lv_obj_style_gen.h ****     return v.color;
 252              		.loc 2 330 5 is_stmt 1 view .LVU46
 330:../../Middlewares/LVGL/GUI/lvgl/src/core/lv_obj_style_gen.h ****     return v.color;
 253              		.loc 2 330 26 is_stmt 0 view .LVU47
 254 0008 3122     		movs	r2, #49
ARM GAS  C:\Users\28576\AppData\Local\Temp\cclWIAwm.s 			page 24


 255 000a FFF7FEFF 		bl	lv_obj_get_style_prop
 256              	.LVL16:
 330:../../Middlewares/LVGL/GUI/lvgl/src/core/lv_obj_style_gen.h ****     return v.color;
 257              		.loc 2 330 26 view .LVU48
 258 000e 0246     		mov	r2, r0
 259 0010 0290     		str	r0, [sp, #8]
 330:../../Middlewares/LVGL/GUI/lvgl/src/core/lv_obj_style_gen.h ****     return v.color;
 260              		.loc 2 330 26 discriminator 1 view .LVU49
 261 0012 2146     		mov	r1, r4
 262 0014 2846     		mov	r0, r5
 263 0016 FFF7FEFF 		bl	lv_obj_style_apply_color_filter
 264              	.LVL17:
 265 001a 0190     		str	r0, [sp, #4]
 331:../../Middlewares/LVGL/GUI/lvgl/src/core/lv_obj_style_gen.h **** }
 266              		.loc 2 331 5 is_stmt 1 view .LVU50
 331:../../Middlewares/LVGL/GUI/lvgl/src/core/lv_obj_style_gen.h **** }
 267              		.loc 2 331 13 is_stmt 0 view .LVU51
 268 001c ADF80C00 		strh	r0, [sp, #12]	@ movhi
 269 0020 030C     		lsrs	r3, r0, #16
 270 0022 8DF80E30 		strb	r3, [sp, #14]
 271 0026 0020     		movs	r0, #0
 272 0028 9DF80C30 		ldrb	r3, [sp, #12]	@ zero_extendqisi2
 273 002c 63F30700 		bfi	r0, r3, #0, #8
 274 0030 9DF80D30 		ldrb	r3, [sp, #13]	@ zero_extendqisi2
 275 0034 63F30F20 		bfi	r0, r3, #8, #8
 276 0038 9DF80E30 		ldrb	r3, [sp, #14]	@ zero_extendqisi2
 277 003c 63F31740 		bfi	r0, r3, #16, #8
 332:../../Middlewares/LVGL/GUI/lvgl/src/core/lv_obj_style_gen.h **** 
 278              		.loc 2 332 1 view .LVU52
 279 0040 05B0     		add	sp, sp, #20
 280              	.LCFI12:
 281              		.cfi_def_cfa_offset 12
 282              		@ sp needed
 283 0042 30BD     		pop	{r4, r5, pc}
 332:../../Middlewares/LVGL/GUI/lvgl/src/core/lv_obj_style_gen.h **** 
 284              		.loc 2 332 1 view .LVU53
 285              		.cfi_endproc
 286              	.LFE79:
 288              		.section	.text.lv_obj_get_style_outline_color_filtered,"ax",%progbits
 289              		.align	1
 290              		.syntax unified
 291              		.thumb
 292              		.thumb_func
 294              	lv_obj_get_style_outline_color_filtered:
 295              	.LVL18:
 296              	.LFB86:
 371:../../Middlewares/LVGL/GUI/lvgl/src/core/lv_obj_style_gen.h ****     lv_style_value_t v = lv_obj_style_apply_color_filter(obj, part, lv_obj_get_style_prop(obj, part
 297              		.loc 2 371 1 is_stmt 1 view -0
 298              		.cfi_startproc
 299              		@ args = 0, pretend = 0, frame = 16
 300              		@ frame_needed = 0, uses_anonymous_args = 0
 371:../../Middlewares/LVGL/GUI/lvgl/src/core/lv_obj_style_gen.h ****     lv_style_value_t v = lv_obj_style_apply_color_filter(obj, part, lv_obj_get_style_prop(obj, part
 301              		.loc 2 371 1 is_stmt 0 view .LVU55
 302 0000 30B5     		push	{r4, r5, lr}
 303              	.LCFI13:
 304              		.cfi_def_cfa_offset 12
 305              		.cfi_offset 4, -12
ARM GAS  C:\Users\28576\AppData\Local\Temp\cclWIAwm.s 			page 25


 306              		.cfi_offset 5, -8
 307              		.cfi_offset 14, -4
 308 0002 85B0     		sub	sp, sp, #20
 309              	.LCFI14:
 310              		.cfi_def_cfa_offset 32
 311 0004 0546     		mov	r5, r0
 312 0006 0C46     		mov	r4, r1
 372:../../Middlewares/LVGL/GUI/lvgl/src/core/lv_obj_style_gen.h ****     return v.color;
 313              		.loc 2 372 5 is_stmt 1 view .LVU56
 372:../../Middlewares/LVGL/GUI/lvgl/src/core/lv_obj_style_gen.h ****     return v.color;
 314              		.loc 2 372 26 is_stmt 0 view .LVU57
 315 0008 3922     		movs	r2, #57
 316 000a FFF7FEFF 		bl	lv_obj_get_style_prop
 317              	.LVL19:
 372:../../Middlewares/LVGL/GUI/lvgl/src/core/lv_obj_style_gen.h ****     return v.color;
 318              		.loc 2 372 26 view .LVU58
 319 000e 0246     		mov	r2, r0
 320 0010 0290     		str	r0, [sp, #8]
 372:../../Middlewares/LVGL/GUI/lvgl/src/core/lv_obj_style_gen.h ****     return v.color;
 321              		.loc 2 372 26 discriminator 1 view .LVU59
 322 0012 2146     		mov	r1, r4
 323 0014 2846     		mov	r0, r5
 324 0016 FFF7FEFF 		bl	lv_obj_style_apply_color_filter
 325              	.LVL20:
 326 001a 0190     		str	r0, [sp, #4]
 373:../../Middlewares/LVGL/GUI/lvgl/src/core/lv_obj_style_gen.h **** }
 327              		.loc 2 373 5 is_stmt 1 view .LVU60
 373:../../Middlewares/LVGL/GUI/lvgl/src/core/lv_obj_style_gen.h **** }
 328              		.loc 2 373 13 is_stmt 0 view .LVU61
 329 001c ADF80C00 		strh	r0, [sp, #12]	@ movhi
 330 0020 030C     		lsrs	r3, r0, #16
 331 0022 8DF80E30 		strb	r3, [sp, #14]
 332 0026 0020     		movs	r0, #0
 333 0028 9DF80C30 		ldrb	r3, [sp, #12]	@ zero_extendqisi2
 334 002c 63F30700 		bfi	r0, r3, #0, #8
 335 0030 9DF80D30 		ldrb	r3, [sp, #13]	@ zero_extendqisi2
 336 0034 63F30F20 		bfi	r0, r3, #8, #8
 337 0038 9DF80E30 		ldrb	r3, [sp, #14]	@ zero_extendqisi2
 338 003c 63F31740 		bfi	r0, r3, #16, #8
 374:../../Middlewares/LVGL/GUI/lvgl/src/core/lv_obj_style_gen.h **** 
 339              		.loc 2 374 1 view .LVU62
 340 0040 05B0     		add	sp, sp, #20
 341              	.LCFI15:
 342              		.cfi_def_cfa_offset 12
 343              		@ sp needed
 344 0042 30BD     		pop	{r4, r5, pc}
 374:../../Middlewares/LVGL/GUI/lvgl/src/core/lv_obj_style_gen.h **** 
 345              		.loc 2 374 1 view .LVU63
 346              		.cfi_endproc
 347              	.LFE86:
 349              		.section	.text.lv_obj_get_style_text_color_filtered,"ax",%progbits
 350              		.align	1
 351              		.syntax unified
 352              		.thumb
 353              		.thumb_func
 355              	lv_obj_get_style_text_color_filtered:
 356              	.LVL21:
ARM GAS  C:\Users\28576\AppData\Local\Temp\cclWIAwm.s 			page 26


 357              	.LFB114:
 539:../../Middlewares/LVGL/GUI/lvgl/src/core/lv_obj_style_gen.h ****     lv_style_value_t v = lv_obj_style_apply_color_filter(obj, part, lv_obj_get_style_prop(obj, part
 358              		.loc 2 539 1 is_stmt 1 view -0
 359              		.cfi_startproc
 360              		@ args = 0, pretend = 0, frame = 16
 361              		@ frame_needed = 0, uses_anonymous_args = 0
 539:../../Middlewares/LVGL/GUI/lvgl/src/core/lv_obj_style_gen.h ****     lv_style_value_t v = lv_obj_style_apply_color_filter(obj, part, lv_obj_get_style_prop(obj, part
 362              		.loc 2 539 1 is_stmt 0 view .LVU65
 363 0000 30B5     		push	{r4, r5, lr}
 364              	.LCFI16:
 365              		.cfi_def_cfa_offset 12
 366              		.cfi_offset 4, -12
 367              		.cfi_offset 5, -8
 368              		.cfi_offset 14, -4
 369 0002 85B0     		sub	sp, sp, #20
 370              	.LCFI17:
 371              		.cfi_def_cfa_offset 32
 372 0004 0546     		mov	r5, r0
 373 0006 0C46     		mov	r4, r1
 540:../../Middlewares/LVGL/GUI/lvgl/src/core/lv_obj_style_gen.h ****     return v.color;
 374              		.loc 2 540 5 is_stmt 1 view .LVU66
 540:../../Middlewares/LVGL/GUI/lvgl/src/core/lv_obj_style_gen.h ****     return v.color;
 375              		.loc 2 540 26 is_stmt 0 view .LVU67
 376 0008 5822     		movs	r2, #88
 377 000a FFF7FEFF 		bl	lv_obj_get_style_prop
 378              	.LVL22:
 540:../../Middlewares/LVGL/GUI/lvgl/src/core/lv_obj_style_gen.h ****     return v.color;
 379              		.loc 2 540 26 view .LVU68
 380 000e 0246     		mov	r2, r0
 381 0010 0290     		str	r0, [sp, #8]
 540:../../Middlewares/LVGL/GUI/lvgl/src/core/lv_obj_style_gen.h ****     return v.color;
 382              		.loc 2 540 26 discriminator 1 view .LVU69
 383 0012 2146     		mov	r1, r4
 384 0014 2846     		mov	r0, r5
 385 0016 FFF7FEFF 		bl	lv_obj_style_apply_color_filter
 386              	.LVL23:
 387 001a 0190     		str	r0, [sp, #4]
 541:../../Middlewares/LVGL/GUI/lvgl/src/core/lv_obj_style_gen.h **** }
 388              		.loc 2 541 5 is_stmt 1 view .LVU70
 541:../../Middlewares/LVGL/GUI/lvgl/src/core/lv_obj_style_gen.h **** }
 389              		.loc 2 541 13 is_stmt 0 view .LVU71
 390 001c ADF80C00 		strh	r0, [sp, #12]	@ movhi
 391 0020 030C     		lsrs	r3, r0, #16
 392 0022 8DF80E30 		strb	r3, [sp, #14]
 393 0026 0020     		movs	r0, #0
 394 0028 9DF80C30 		ldrb	r3, [sp, #12]	@ zero_extendqisi2
 395 002c 63F30700 		bfi	r0, r3, #0, #8
 396 0030 9DF80D30 		ldrb	r3, [sp, #13]	@ zero_extendqisi2
 397 0034 63F30F20 		bfi	r0, r3, #8, #8
 398 0038 9DF80E30 		ldrb	r3, [sp, #14]	@ zero_extendqisi2
 399 003c 63F31740 		bfi	r0, r3, #16, #8
 542:../../Middlewares/LVGL/GUI/lvgl/src/core/lv_obj_style_gen.h **** 
 400              		.loc 2 542 1 view .LVU72
 401 0040 05B0     		add	sp, sp, #20
 402              	.LCFI18:
 403              		.cfi_def_cfa_offset 12
 404              		@ sp needed
ARM GAS  C:\Users\28576\AppData\Local\Temp\cclWIAwm.s 			page 27


 405 0042 30BD     		pop	{r4, r5, pc}
 542:../../Middlewares/LVGL/GUI/lvgl/src/core/lv_obj_style_gen.h **** 
 406              		.loc 2 542 1 view .LVU73
 407              		.cfi_endproc
 408              	.LFE114:
 410              		.section	.text.lv_obj_get_style_bg_image_recolor_filtered,"ax",%progbits
 411              		.align	1
 412              		.syntax unified
 413              		.thumb
 414              		.thumb_func
 416              	lv_obj_get_style_bg_image_recolor_filtered:
 417              	.LVL24:
 418              	.LFB75:
 305:../../Middlewares/LVGL/GUI/lvgl/src/core/lv_obj_style_gen.h ****     lv_style_value_t v = lv_obj_style_apply_color_filter(obj, part, lv_obj_get_style_prop(obj, part
 419              		.loc 2 305 1 is_stmt 1 view -0
 420              		.cfi_startproc
 421              		@ args = 0, pretend = 0, frame = 16
 422              		@ frame_needed = 0, uses_anonymous_args = 0
 305:../../Middlewares/LVGL/GUI/lvgl/src/core/lv_obj_style_gen.h ****     lv_style_value_t v = lv_obj_style_apply_color_filter(obj, part, lv_obj_get_style_prop(obj, part
 423              		.loc 2 305 1 is_stmt 0 view .LVU75
 424 0000 30B5     		push	{r4, r5, lr}
 425              	.LCFI19:
 426              		.cfi_def_cfa_offset 12
 427              		.cfi_offset 4, -12
 428              		.cfi_offset 5, -8
 429              		.cfi_offset 14, -4
 430 0002 85B0     		sub	sp, sp, #20
 431              	.LCFI20:
 432              		.cfi_def_cfa_offset 32
 433 0004 0546     		mov	r5, r0
 434 0006 0C46     		mov	r4, r1
 306:../../Middlewares/LVGL/GUI/lvgl/src/core/lv_obj_style_gen.h ****     return v.color;
 435              		.loc 2 306 5 is_stmt 1 view .LVU76
 306:../../Middlewares/LVGL/GUI/lvgl/src/core/lv_obj_style_gen.h ****     return v.color;
 436              		.loc 2 306 26 is_stmt 0 view .LVU77
 437 0008 2A22     		movs	r2, #42
 438 000a FFF7FEFF 		bl	lv_obj_get_style_prop
 439              	.LVL25:
 306:../../Middlewares/LVGL/GUI/lvgl/src/core/lv_obj_style_gen.h ****     return v.color;
 440              		.loc 2 306 26 view .LVU78
 441 000e 0246     		mov	r2, r0
 442 0010 0290     		str	r0, [sp, #8]
 306:../../Middlewares/LVGL/GUI/lvgl/src/core/lv_obj_style_gen.h ****     return v.color;
 443              		.loc 2 306 26 discriminator 1 view .LVU79
 444 0012 2146     		mov	r1, r4
 445 0014 2846     		mov	r0, r5
 446 0016 FFF7FEFF 		bl	lv_obj_style_apply_color_filter
 447              	.LVL26:
 448 001a 0190     		str	r0, [sp, #4]
 307:../../Middlewares/LVGL/GUI/lvgl/src/core/lv_obj_style_gen.h **** }
 449              		.loc 2 307 5 is_stmt 1 view .LVU80
 307:../../Middlewares/LVGL/GUI/lvgl/src/core/lv_obj_style_gen.h **** }
 450              		.loc 2 307 13 is_stmt 0 view .LVU81
 451 001c ADF80C00 		strh	r0, [sp, #12]	@ movhi
 452 0020 030C     		lsrs	r3, r0, #16
 453 0022 8DF80E30 		strb	r3, [sp, #14]
 454 0026 0020     		movs	r0, #0
ARM GAS  C:\Users\28576\AppData\Local\Temp\cclWIAwm.s 			page 28


 455 0028 9DF80C30 		ldrb	r3, [sp, #12]	@ zero_extendqisi2
 456 002c 63F30700 		bfi	r0, r3, #0, #8
 457 0030 9DF80D30 		ldrb	r3, [sp, #13]	@ zero_extendqisi2
 458 0034 63F30F20 		bfi	r0, r3, #8, #8
 459 0038 9DF80E30 		ldrb	r3, [sp, #14]	@ zero_extendqisi2
 460 003c 63F31740 		bfi	r0, r3, #16, #8
 308:../../Middlewares/LVGL/GUI/lvgl/src/core/lv_obj_style_gen.h **** 
 461              		.loc 2 308 1 view .LVU82
 462 0040 05B0     		add	sp, sp, #20
 463              	.LCFI21:
 464              		.cfi_def_cfa_offset 12
 465              		@ sp needed
 466 0042 30BD     		pop	{r4, r5, pc}
 308:../../Middlewares/LVGL/GUI/lvgl/src/core/lv_obj_style_gen.h **** 
 467              		.loc 2 308 1 view .LVU83
 468              		.cfi_endproc
 469              	.LFE75:
 471              		.section	.text.lv_obj_get_style_shadow_color_filtered,"ax",%progbits
 472              		.align	1
 473              		.syntax unified
 474              		.thumb
 475              		.thumb_func
 477              	lv_obj_get_style_shadow_color_filtered:
 478              	.LVL27:
 479              	.LFB94:
 419:../../Middlewares/LVGL/GUI/lvgl/src/core/lv_obj_style_gen.h ****     lv_style_value_t v = lv_obj_style_apply_color_filter(obj, part, lv_obj_get_style_prop(obj, part
 480              		.loc 2 419 1 is_stmt 1 view -0
 481              		.cfi_startproc
 482              		@ args = 0, pretend = 0, frame = 16
 483              		@ frame_needed = 0, uses_anonymous_args = 0
 419:../../Middlewares/LVGL/GUI/lvgl/src/core/lv_obj_style_gen.h ****     lv_style_value_t v = lv_obj_style_apply_color_filter(obj, part, lv_obj_get_style_prop(obj, part
 484              		.loc 2 419 1 is_stmt 0 view .LVU85
 485 0000 30B5     		push	{r4, r5, lr}
 486              	.LCFI22:
 487              		.cfi_def_cfa_offset 12
 488              		.cfi_offset 4, -12
 489              		.cfi_offset 5, -8
 490              		.cfi_offset 14, -4
 491 0002 85B0     		sub	sp, sp, #20
 492              	.LCFI23:
 493              		.cfi_def_cfa_offset 32
 494 0004 0546     		mov	r5, r0
 495 0006 0C46     		mov	r4, r1
 420:../../Middlewares/LVGL/GUI/lvgl/src/core/lv_obj_style_gen.h ****     return v.color;
 496              		.loc 2 420 5 is_stmt 1 view .LVU86
 420:../../Middlewares/LVGL/GUI/lvgl/src/core/lv_obj_style_gen.h ****     return v.color;
 497              		.loc 2 420 26 is_stmt 0 view .LVU87
 498 0008 3D22     		movs	r2, #61
 499 000a FFF7FEFF 		bl	lv_obj_get_style_prop
 500              	.LVL28:
 420:../../Middlewares/LVGL/GUI/lvgl/src/core/lv_obj_style_gen.h ****     return v.color;
 501              		.loc 2 420 26 view .LVU88
 502 000e 0246     		mov	r2, r0
 503 0010 0290     		str	r0, [sp, #8]
 420:../../Middlewares/LVGL/GUI/lvgl/src/core/lv_obj_style_gen.h ****     return v.color;
 504              		.loc 2 420 26 discriminator 1 view .LVU89
 505 0012 2146     		mov	r1, r4
ARM GAS  C:\Users\28576\AppData\Local\Temp\cclWIAwm.s 			page 29


 506 0014 2846     		mov	r0, r5
 507 0016 FFF7FEFF 		bl	lv_obj_style_apply_color_filter
 508              	.LVL29:
 509 001a 0190     		str	r0, [sp, #4]
 421:../../Middlewares/LVGL/GUI/lvgl/src/core/lv_obj_style_gen.h **** }
 510              		.loc 2 421 5 is_stmt 1 view .LVU90
 421:../../Middlewares/LVGL/GUI/lvgl/src/core/lv_obj_style_gen.h **** }
 511              		.loc 2 421 13 is_stmt 0 view .LVU91
 512 001c ADF80C00 		strh	r0, [sp, #12]	@ movhi
 513 0020 030C     		lsrs	r3, r0, #16
 514 0022 8DF80E30 		strb	r3, [sp, #14]
 515 0026 0020     		movs	r0, #0
 516 0028 9DF80C30 		ldrb	r3, [sp, #12]	@ zero_extendqisi2
 517 002c 63F30700 		bfi	r0, r3, #0, #8
 518 0030 9DF80D30 		ldrb	r3, [sp, #13]	@ zero_extendqisi2
 519 0034 63F30F20 		bfi	r0, r3, #8, #8
 520 0038 9DF80E30 		ldrb	r3, [sp, #14]	@ zero_extendqisi2
 521 003c 63F31740 		bfi	r0, r3, #16, #8
 422:../../Middlewares/LVGL/GUI/lvgl/src/core/lv_obj_style_gen.h **** 
 522              		.loc 2 422 1 view .LVU92
 523 0040 05B0     		add	sp, sp, #20
 524              	.LCFI24:
 525              		.cfi_def_cfa_offset 12
 526              		@ sp needed
 527 0042 30BD     		pop	{r4, r5, pc}
 422:../../Middlewares/LVGL/GUI/lvgl/src/core/lv_obj_style_gen.h **** 
 528              		.loc 2 422 1 view .LVU93
 529              		.cfi_endproc
 530              	.LFE94:
 532              		.section	.text.lv_obj_get_style_image_recolor_filtered,"ax",%progbits
 533              		.align	1
 534              		.syntax unified
 535              		.thumb
 536              		.thumb_func
 538              	lv_obj_get_style_image_recolor_filtered:
 539              	.LVL30:
 540              	.LFB98:
 443:../../Middlewares/LVGL/GUI/lvgl/src/core/lv_obj_style_gen.h ****     lv_style_value_t v = lv_obj_style_apply_color_filter(obj, part, lv_obj_get_style_prop(obj, part
 541              		.loc 2 443 1 is_stmt 1 view -0
 542              		.cfi_startproc
 543              		@ args = 0, pretend = 0, frame = 16
 544              		@ frame_needed = 0, uses_anonymous_args = 0
 443:../../Middlewares/LVGL/GUI/lvgl/src/core/lv_obj_style_gen.h ****     lv_style_value_t v = lv_obj_style_apply_color_filter(obj, part, lv_obj_get_style_prop(obj, part
 545              		.loc 2 443 1 is_stmt 0 view .LVU95
 546 0000 30B5     		push	{r4, r5, lr}
 547              	.LCFI25:
 548              		.cfi_def_cfa_offset 12
 549              		.cfi_offset 4, -12
 550              		.cfi_offset 5, -8
 551              		.cfi_offset 14, -4
 552 0002 85B0     		sub	sp, sp, #20
 553              	.LCFI26:
 554              		.cfi_def_cfa_offset 32
 555 0004 0546     		mov	r5, r0
 556 0006 0C46     		mov	r4, r1
 444:../../Middlewares/LVGL/GUI/lvgl/src/core/lv_obj_style_gen.h ****     return v.color;
 557              		.loc 2 444 5 is_stmt 1 view .LVU96
ARM GAS  C:\Users\28576\AppData\Local\Temp\cclWIAwm.s 			page 30


 444:../../Middlewares/LVGL/GUI/lvgl/src/core/lv_obj_style_gen.h ****     return v.color;
 558              		.loc 2 444 26 is_stmt 0 view .LVU97
 559 0008 4522     		movs	r2, #69
 560 000a FFF7FEFF 		bl	lv_obj_get_style_prop
 561              	.LVL31:
 444:../../Middlewares/LVGL/GUI/lvgl/src/core/lv_obj_style_gen.h ****     return v.color;
 562              		.loc 2 444 26 view .LVU98
 563 000e 0246     		mov	r2, r0
 564 0010 0290     		str	r0, [sp, #8]
 444:../../Middlewares/LVGL/GUI/lvgl/src/core/lv_obj_style_gen.h ****     return v.color;
 565              		.loc 2 444 26 discriminator 1 view .LVU99
 566 0012 2146     		mov	r1, r4
 567 0014 2846     		mov	r0, r5
 568 0016 FFF7FEFF 		bl	lv_obj_style_apply_color_filter
 569              	.LVL32:
 570 001a 0190     		str	r0, [sp, #4]
 445:../../Middlewares/LVGL/GUI/lvgl/src/core/lv_obj_style_gen.h **** }
 571              		.loc 2 445 5 is_stmt 1 view .LVU100
 445:../../Middlewares/LVGL/GUI/lvgl/src/core/lv_obj_style_gen.h **** }
 572              		.loc 2 445 13 is_stmt 0 view .LVU101
 573 001c ADF80C00 		strh	r0, [sp, #12]	@ movhi
 574 0020 030C     		lsrs	r3, r0, #16
 575 0022 8DF80E30 		strb	r3, [sp, #14]
 576 0026 0020     		movs	r0, #0
 577 0028 9DF80C30 		ldrb	r3, [sp, #12]	@ zero_extendqisi2
 578 002c 63F30700 		bfi	r0, r3, #0, #8
 579 0030 9DF80D30 		ldrb	r3, [sp, #13]	@ zero_extendqisi2
 580 0034 63F30F20 		bfi	r0, r3, #8, #8
 581 0038 9DF80E30 		ldrb	r3, [sp, #14]	@ zero_extendqisi2
 582 003c 63F31740 		bfi	r0, r3, #16, #8
 446:../../Middlewares/LVGL/GUI/lvgl/src/core/lv_obj_style_gen.h **** 
 583              		.loc 2 446 1 view .LVU102
 584 0040 05B0     		add	sp, sp, #20
 585              	.LCFI27:
 586              		.cfi_def_cfa_offset 12
 587              		@ sp needed
 588 0042 30BD     		pop	{r4, r5, pc}
 446:../../Middlewares/LVGL/GUI/lvgl/src/core/lv_obj_style_gen.h **** 
 589              		.loc 2 446 1 view .LVU103
 590              		.cfi_endproc
 591              	.LFE98:
 593              		.section	.text.lv_obj_get_style_line_color_filtered,"ax",%progbits
 594              		.align	1
 595              		.syntax unified
 596              		.thumb
 597              		.thumb_func
 599              	lv_obj_get_style_line_color_filtered:
 600              	.LVL33:
 601              	.LFB105:
 485:../../Middlewares/LVGL/GUI/lvgl/src/core/lv_obj_style_gen.h ****     lv_style_value_t v = lv_obj_style_apply_color_filter(obj, part, lv_obj_get_style_prop(obj, part
 602              		.loc 2 485 1 is_stmt 1 view -0
 603              		.cfi_startproc
 604              		@ args = 0, pretend = 0, frame = 16
 605              		@ frame_needed = 0, uses_anonymous_args = 0
 485:../../Middlewares/LVGL/GUI/lvgl/src/core/lv_obj_style_gen.h ****     lv_style_value_t v = lv_obj_style_apply_color_filter(obj, part, lv_obj_get_style_prop(obj, part
 606              		.loc 2 485 1 is_stmt 0 view .LVU105
 607 0000 30B5     		push	{r4, r5, lr}
ARM GAS  C:\Users\28576\AppData\Local\Temp\cclWIAwm.s 			page 31


 608              	.LCFI28:
 609              		.cfi_def_cfa_offset 12
 610              		.cfi_offset 4, -12
 611              		.cfi_offset 5, -8
 612              		.cfi_offset 14, -4
 613 0002 85B0     		sub	sp, sp, #20
 614              	.LCFI29:
 615              		.cfi_def_cfa_offset 32
 616 0004 0546     		mov	r5, r0
 617 0006 0C46     		mov	r4, r1
 486:../../Middlewares/LVGL/GUI/lvgl/src/core/lv_obj_style_gen.h ****     return v.color;
 618              		.loc 2 486 5 is_stmt 1 view .LVU106
 486:../../Middlewares/LVGL/GUI/lvgl/src/core/lv_obj_style_gen.h ****     return v.color;
 619              		.loc 2 486 26 is_stmt 0 view .LVU107
 620 0008 4C22     		movs	r2, #76
 621 000a FFF7FEFF 		bl	lv_obj_get_style_prop
 622              	.LVL34:
 486:../../Middlewares/LVGL/GUI/lvgl/src/core/lv_obj_style_gen.h ****     return v.color;
 623              		.loc 2 486 26 view .LVU108
 624 000e 0246     		mov	r2, r0
 625 0010 0290     		str	r0, [sp, #8]
 486:../../Middlewares/LVGL/GUI/lvgl/src/core/lv_obj_style_gen.h ****     return v.color;
 626              		.loc 2 486 26 discriminator 1 view .LVU109
 627 0012 2146     		mov	r1, r4
 628 0014 2846     		mov	r0, r5
 629 0016 FFF7FEFF 		bl	lv_obj_style_apply_color_filter
 630              	.LVL35:
 631 001a 0190     		str	r0, [sp, #4]
 487:../../Middlewares/LVGL/GUI/lvgl/src/core/lv_obj_style_gen.h **** }
 632              		.loc 2 487 5 is_stmt 1 view .LVU110
 487:../../Middlewares/LVGL/GUI/lvgl/src/core/lv_obj_style_gen.h **** }
 633              		.loc 2 487 13 is_stmt 0 view .LVU111
 634 001c ADF80C00 		strh	r0, [sp, #12]	@ movhi
 635 0020 030C     		lsrs	r3, r0, #16
 636 0022 8DF80E30 		strb	r3, [sp, #14]
 637 0026 0020     		movs	r0, #0
 638 0028 9DF80C30 		ldrb	r3, [sp, #12]	@ zero_extendqisi2
 639 002c 63F30700 		bfi	r0, r3, #0, #8
 640 0030 9DF80D30 		ldrb	r3, [sp, #13]	@ zero_extendqisi2
 641 0034 63F30F20 		bfi	r0, r3, #8, #8
 642 0038 9DF80E30 		ldrb	r3, [sp, #14]	@ zero_extendqisi2
 643 003c 63F31740 		bfi	r0, r3, #16, #8
 488:../../Middlewares/LVGL/GUI/lvgl/src/core/lv_obj_style_gen.h **** 
 644              		.loc 2 488 1 view .LVU112
 645 0040 05B0     		add	sp, sp, #20
 646              	.LCFI30:
 647              		.cfi_def_cfa_offset 12
 648              		@ sp needed
 649 0042 30BD     		pop	{r4, r5, pc}
 488:../../Middlewares/LVGL/GUI/lvgl/src/core/lv_obj_style_gen.h **** 
 650              		.loc 2 488 1 view .LVU113
 651              		.cfi_endproc
 652              	.LFE105:
 654              		.section	.text.lv_obj_get_style_arc_color_filtered,"ax",%progbits
 655              		.align	1
 656              		.syntax unified
 657              		.thumb
ARM GAS  C:\Users\28576\AppData\Local\Temp\cclWIAwm.s 			page 32


 658              		.thumb_func
 660              	lv_obj_get_style_arc_color_filtered:
 661              	.LVL36:
 662              	.LFB110:
 515:../../Middlewares/LVGL/GUI/lvgl/src/core/lv_obj_style_gen.h ****     lv_style_value_t v = lv_obj_style_apply_color_filter(obj, part, lv_obj_get_style_prop(obj, part
 663              		.loc 2 515 1 is_stmt 1 view -0
 664              		.cfi_startproc
 665              		@ args = 0, pretend = 0, frame = 16
 666              		@ frame_needed = 0, uses_anonymous_args = 0
 515:../../Middlewares/LVGL/GUI/lvgl/src/core/lv_obj_style_gen.h ****     lv_style_value_t v = lv_obj_style_apply_color_filter(obj, part, lv_obj_get_style_prop(obj, part
 667              		.loc 2 515 1 is_stmt 0 view .LVU115
 668 0000 30B5     		push	{r4, r5, lr}
 669              	.LCFI31:
 670              		.cfi_def_cfa_offset 12
 671              		.cfi_offset 4, -12
 672              		.cfi_offset 5, -8
 673              		.cfi_offset 14, -4
 674 0002 85B0     		sub	sp, sp, #20
 675              	.LCFI32:
 676              		.cfi_def_cfa_offset 32
 677 0004 0546     		mov	r5, r0
 678 0006 0C46     		mov	r4, r1
 516:../../Middlewares/LVGL/GUI/lvgl/src/core/lv_obj_style_gen.h ****     return v.color;
 679              		.loc 2 516 5 is_stmt 1 view .LVU116
 516:../../Middlewares/LVGL/GUI/lvgl/src/core/lv_obj_style_gen.h ****     return v.color;
 680              		.loc 2 516 26 is_stmt 0 view .LVU117
 681 0008 5222     		movs	r2, #82
 682 000a FFF7FEFF 		bl	lv_obj_get_style_prop
 683              	.LVL37:
 516:../../Middlewares/LVGL/GUI/lvgl/src/core/lv_obj_style_gen.h ****     return v.color;
 684              		.loc 2 516 26 view .LVU118
 685 000e 0246     		mov	r2, r0
 686 0010 0290     		str	r0, [sp, #8]
 516:../../Middlewares/LVGL/GUI/lvgl/src/core/lv_obj_style_gen.h ****     return v.color;
 687              		.loc 2 516 26 discriminator 1 view .LVU119
 688 0012 2146     		mov	r1, r4
 689 0014 2846     		mov	r0, r5
 690 0016 FFF7FEFF 		bl	lv_obj_style_apply_color_filter
 691              	.LVL38:
 692 001a 0190     		str	r0, [sp, #4]
 517:../../Middlewares/LVGL/GUI/lvgl/src/core/lv_obj_style_gen.h **** }
 693              		.loc 2 517 5 is_stmt 1 view .LVU120
 517:../../Middlewares/LVGL/GUI/lvgl/src/core/lv_obj_style_gen.h **** }
 694              		.loc 2 517 13 is_stmt 0 view .LVU121
 695 001c ADF80C00 		strh	r0, [sp, #12]	@ movhi
 696 0020 030C     		lsrs	r3, r0, #16
 697 0022 8DF80E30 		strb	r3, [sp, #14]
 698 0026 0020     		movs	r0, #0
 699 0028 9DF80C30 		ldrb	r3, [sp, #12]	@ zero_extendqisi2
 700 002c 63F30700 		bfi	r0, r3, #0, #8
 701 0030 9DF80D30 		ldrb	r3, [sp, #13]	@ zero_extendqisi2
 702 0034 63F30F20 		bfi	r0, r3, #8, #8
 703 0038 9DF80E30 		ldrb	r3, [sp, #14]	@ zero_extendqisi2
 704 003c 63F31740 		bfi	r0, r3, #16, #8
 518:../../Middlewares/LVGL/GUI/lvgl/src/core/lv_obj_style_gen.h **** 
 705              		.loc 2 518 1 view .LVU122
 706 0040 05B0     		add	sp, sp, #20
ARM GAS  C:\Users\28576\AppData\Local\Temp\cclWIAwm.s 			page 33


 707              	.LCFI33:
 708              		.cfi_def_cfa_offset 12
 709              		@ sp needed
 710 0042 30BD     		pop	{r4, r5, pc}
 518:../../Middlewares/LVGL/GUI/lvgl/src/core/lv_obj_style_gen.h **** 
 711              		.loc 2 518 1 view .LVU123
 712              		.cfi_endproc
 713              	.LFE110:
 715              		.section	.text.image_apply_layer_recolor,"ax",%progbits
 716              		.align	1
 717              		.syntax unified
 718              		.thumb
 719              		.thumb_func
 721              	image_apply_layer_recolor:
 722              	.LVL39:
 723              	.LFB183:
 409:../../Middlewares/LVGL/GUI/lvgl/src/core/lv_obj_draw.c **** 
 410:../../Middlewares/LVGL/GUI/lvgl/src/core/lv_obj_draw.c **** 
 411:../../Middlewares/LVGL/GUI/lvgl/src/core/lv_obj_draw.c **** static lv_color_t normal_apply_layer_recolor(const lv_obj_t * obj, lv_part_t part,  const lv_draw_d
 412:../../Middlewares/LVGL/GUI/lvgl/src/core/lv_obj_draw.c ****                                              lv_color_t color)
 413:../../Middlewares/LVGL/GUI/lvgl/src/core/lv_obj_draw.c **** {
 414:../../Middlewares/LVGL/GUI/lvgl/src/core/lv_obj_draw.c ****     lv_color32_t recolor;
 415:../../Middlewares/LVGL/GUI/lvgl/src/core/lv_obj_draw.c **** 
 416:../../Middlewares/LVGL/GUI/lvgl/src/core/lv_obj_draw.c ****     if(base_dsc->layer) {
 417:../../Middlewares/LVGL/GUI/lvgl/src/core/lv_obj_draw.c ****         recolor = base_dsc->layer->recolor;
 418:../../Middlewares/LVGL/GUI/lvgl/src/core/lv_obj_draw.c ****         if(part != LV_PART_MAIN) {
 419:../../Middlewares/LVGL/GUI/lvgl/src/core/lv_obj_draw.c ****             recolor = lv_obj_style_apply_recolor(obj, part, recolor);
 420:../../Middlewares/LVGL/GUI/lvgl/src/core/lv_obj_draw.c ****         }
 421:../../Middlewares/LVGL/GUI/lvgl/src/core/lv_obj_draw.c ****     }
 422:../../Middlewares/LVGL/GUI/lvgl/src/core/lv_obj_draw.c ****     else {
 423:../../Middlewares/LVGL/GUI/lvgl/src/core/lv_obj_draw.c ****         recolor = lv_obj_get_style_recolor_recursive(obj, part);
 424:../../Middlewares/LVGL/GUI/lvgl/src/core/lv_obj_draw.c ****     }
 425:../../Middlewares/LVGL/GUI/lvgl/src/core/lv_obj_draw.c **** 
 426:../../Middlewares/LVGL/GUI/lvgl/src/core/lv_obj_draw.c ****     return lv_color_mix(lv_color_make(recolor.red, recolor.green, recolor.blue), color, recolor.alp
 427:../../Middlewares/LVGL/GUI/lvgl/src/core/lv_obj_draw.c **** }
 428:../../Middlewares/LVGL/GUI/lvgl/src/core/lv_obj_draw.c **** 
 429:../../Middlewares/LVGL/GUI/lvgl/src/core/lv_obj_draw.c **** 
 430:../../Middlewares/LVGL/GUI/lvgl/src/core/lv_obj_draw.c **** static lv_color32_t image_apply_layer_recolor(const lv_obj_t * obj, lv_part_t part,
 431:../../Middlewares/LVGL/GUI/lvgl/src/core/lv_obj_draw.c ****                                               const lv_draw_dsc_base_t * base_dsc, lv_color_t color
 432:../../Middlewares/LVGL/GUI/lvgl/src/core/lv_obj_draw.c **** {
 724              		.loc 1 432 1 is_stmt 1 view -0
 725              		.cfi_startproc
 726              		@ args = 4, pretend = 0, frame = 24
 727              		@ frame_needed = 0, uses_anonymous_args = 0
 728              		.loc 1 432 1 is_stmt 0 view .LVU125
 729 0000 10B5     		push	{r4, lr}
 730              	.LCFI34:
 731              		.cfi_def_cfa_offset 8
 732              		.cfi_offset 4, -8
 733              		.cfi_offset 14, -4
 734 0002 86B0     		sub	sp, sp, #24
 735              	.LCFI35:
 736              		.cfi_def_cfa_offset 32
 737 0004 8446     		mov	ip, r0
 738 0006 0193     		str	r3, [sp, #4]
 739 0008 9DF82040 		ldrb	r4, [sp, #32]	@ zero_extendqisi2
 433:../../Middlewares/LVGL/GUI/lvgl/src/core/lv_obj_draw.c ****     lv_color32_t recolor;
ARM GAS  C:\Users\28576\AppData\Local\Temp\cclWIAwm.s 			page 34


 740              		.loc 1 433 5 is_stmt 1 view .LVU126
 434:../../Middlewares/LVGL/GUI/lvgl/src/core/lv_obj_draw.c **** 
 435:../../Middlewares/LVGL/GUI/lvgl/src/core/lv_obj_draw.c ****     if(base_dsc->layer) {
 741              		.loc 1 435 5 view .LVU127
 742              		.loc 1 435 16 is_stmt 0 view .LVU128
 743 000c 1369     		ldr	r3, [r2, #16]
 744              		.loc 1 435 7 view .LVU129
 745 000e 2BB3     		cbz	r3, .L27
 436:../../Middlewares/LVGL/GUI/lvgl/src/core/lv_obj_draw.c ****         recolor = base_dsc->layer->recolor;
 746              		.loc 1 436 9 is_stmt 1 view .LVU130
 747              		.loc 1 436 17 is_stmt 0 view .LVU131
 748 0010 D3F83900 		ldr	r0, [r3, #57]	@ unaligned
 749              	.LVL40:
 750              		.loc 1 436 17 view .LVU132
 751 0014 0390     		str	r0, [sp, #12]
 437:../../Middlewares/LVGL/GUI/lvgl/src/core/lv_obj_draw.c ****         if(part != LV_PART_MAIN) {
 752              		.loc 1 437 9 is_stmt 1 view .LVU133
 753              		.loc 1 437 11 is_stmt 0 view .LVU134
 754 0016 D9B9     		cbnz	r1, .L33
 755              	.LVL41:
 756              	.L28:
 438:../../Middlewares/LVGL/GUI/lvgl/src/core/lv_obj_draw.c ****             recolor = lv_obj_style_apply_recolor(obj, part, recolor);
 439:../../Middlewares/LVGL/GUI/lvgl/src/core/lv_obj_draw.c ****         }
 440:../../Middlewares/LVGL/GUI/lvgl/src/core/lv_obj_draw.c ****     }
 441:../../Middlewares/LVGL/GUI/lvgl/src/core/lv_obj_draw.c ****     else {
 442:../../Middlewares/LVGL/GUI/lvgl/src/core/lv_obj_draw.c ****         recolor = lv_obj_get_style_recolor_recursive(obj, part);
 443:../../Middlewares/LVGL/GUI/lvgl/src/core/lv_obj_draw.c ****     }
 444:../../Middlewares/LVGL/GUI/lvgl/src/core/lv_obj_draw.c **** 
 445:../../Middlewares/LVGL/GUI/lvgl/src/core/lv_obj_draw.c ****     if(opa > LV_OPA_TRANSP && recolor.alpha > LV_OPA_TRANSP) {
 757              		.loc 1 445 5 is_stmt 1 view .LVU135
 758              		.loc 1 445 7 is_stmt 0 view .LVU136
 759 0018 14B1     		cbz	r4, .L29
 760              		.loc 1 445 38 discriminator 1 view .LVU137
 761 001a 9DF80F30 		ldrb	r3, [sp, #15]	@ zero_extendqisi2
 762              		.loc 1 445 28 discriminator 1 view .LVU138
 763 001e 0BBB     		cbnz	r3, .L34
 764              	.L29:
 446:../../Middlewares/LVGL/GUI/lvgl/src/core/lv_obj_draw.c ****         return lv_color_over32(recolor, lv_color_to_32(color, opa));
 447:../../Middlewares/LVGL/GUI/lvgl/src/core/lv_obj_draw.c ****     }
 448:../../Middlewares/LVGL/GUI/lvgl/src/core/lv_obj_draw.c ****     else if(recolor.alpha > LV_OPA_TRANSP) {
 765              		.loc 1 448 10 is_stmt 1 view .LVU139
 766              		.loc 1 448 20 is_stmt 0 view .LVU140
 767 0020 9DF80F30 		ldrb	r3, [sp, #15]	@ zero_extendqisi2
 768              		.loc 1 448 12 view .LVU141
 769 0024 4BB3     		cbz	r3, .L31
 449:../../Middlewares/LVGL/GUI/lvgl/src/core/lv_obj_draw.c ****         return recolor;
 770              		.loc 1 449 9 is_stmt 1 view .LVU142
 771              		.loc 1 449 16 is_stmt 0 view .LVU143
 772 0026 039B     		ldr	r3, [sp, #12]
 773 0028 0493     		str	r3, [sp, #16]
 774              	.L30:
 450:../../Middlewares/LVGL/GUI/lvgl/src/core/lv_obj_draw.c ****     }
 451:../../Middlewares/LVGL/GUI/lvgl/src/core/lv_obj_draw.c ****     else {
 452:../../Middlewares/LVGL/GUI/lvgl/src/core/lv_obj_draw.c ****         return lv_color_to_32(color, opa);
 453:../../Middlewares/LVGL/GUI/lvgl/src/core/lv_obj_draw.c ****     }
 454:../../Middlewares/LVGL/GUI/lvgl/src/core/lv_obj_draw.c **** }
 775              		.loc 1 454 1 view .LVU144
ARM GAS  C:\Users\28576\AppData\Local\Temp\cclWIAwm.s 			page 35


 776 002a 0020     		movs	r0, #0
 777 002c 9DF81030 		ldrb	r3, [sp, #16]	@ zero_extendqisi2
 778 0030 63F30700 		bfi	r0, r3, #0, #8
 779 0034 9DF81130 		ldrb	r3, [sp, #17]	@ zero_extendqisi2
 780 0038 63F30F20 		bfi	r0, r3, #8, #8
 781 003c 9DF81230 		ldrb	r3, [sp, #18]	@ zero_extendqisi2
 782 0040 63F31740 		bfi	r0, r3, #16, #8
 783 0044 9DF81330 		ldrb	r3, [sp, #19]	@ zero_extendqisi2
 784 0048 63F31F60 		bfi	r0, r3, #24, #8
 785 004c 06B0     		add	sp, sp, #24
 786              	.LCFI36:
 787              		.cfi_remember_state
 788              		.cfi_def_cfa_offset 8
 789              		@ sp needed
 790 004e 10BD     		pop	{r4, pc}
 791              	.LVL42:
 792              	.L33:
 793              	.LCFI37:
 794              		.cfi_restore_state
 438:../../Middlewares/LVGL/GUI/lvgl/src/core/lv_obj_draw.c ****         }
 795              		.loc 1 438 13 is_stmt 1 view .LVU145
 438:../../Middlewares/LVGL/GUI/lvgl/src/core/lv_obj_draw.c ****         }
 796              		.loc 1 438 23 is_stmt 0 view .LVU146
 797 0050 0246     		mov	r2, r0
 798              	.LVL43:
 438:../../Middlewares/LVGL/GUI/lvgl/src/core/lv_obj_draw.c ****         }
 799              		.loc 1 438 23 view .LVU147
 800 0052 6046     		mov	r0, ip
 801 0054 FFF7FEFF 		bl	lv_obj_style_apply_recolor
 802              	.LVL44:
 438:../../Middlewares/LVGL/GUI/lvgl/src/core/lv_obj_draw.c ****         }
 803              		.loc 1 438 23 view .LVU148
 804 0058 0390     		str	r0, [sp, #12]
 805 005a DDE7     		b	.L28
 806              	.LVL45:
 807              	.L27:
 442:../../Middlewares/LVGL/GUI/lvgl/src/core/lv_obj_draw.c ****     }
 808              		.loc 1 442 9 is_stmt 1 view .LVU149
 442:../../Middlewares/LVGL/GUI/lvgl/src/core/lv_obj_draw.c ****     }
 809              		.loc 1 442 19 is_stmt 0 view .LVU150
 810 005c FFF7FEFF 		bl	lv_obj_get_style_recolor_recursive
 811              	.LVL46:
 442:../../Middlewares/LVGL/GUI/lvgl/src/core/lv_obj_draw.c ****     }
 812              		.loc 1 442 19 view .LVU151
 813 0060 0390     		str	r0, [sp, #12]
 814 0062 D9E7     		b	.L28
 815              	.L34:
 446:../../Middlewares/LVGL/GUI/lvgl/src/core/lv_obj_draw.c ****     }
 816              		.loc 1 446 9 is_stmt 1 view .LVU152
 446:../../Middlewares/LVGL/GUI/lvgl/src/core/lv_obj_draw.c ****     }
 817              		.loc 1 446 16 is_stmt 0 view .LVU153
 818 0064 2146     		mov	r1, r4
 819 0066 0198     		ldr	r0, [sp, #4]
 820 0068 FFF7FEFF 		bl	lv_color_to_32
 821              	.LVL47:
 822 006c 0146     		mov	r1, r0
 823 006e 0590     		str	r0, [sp, #20]
ARM GAS  C:\Users\28576\AppData\Local\Temp\cclWIAwm.s 			page 36


 446:../../Middlewares/LVGL/GUI/lvgl/src/core/lv_obj_draw.c ****     }
 824              		.loc 1 446 16 discriminator 1 view .LVU154
 825 0070 0398     		ldr	r0, [sp, #12]
 826 0072 FFF7FEFF 		bl	lv_color_over32
 827              	.LVL48:
 828 0076 0490     		str	r0, [sp, #16]
 446:../../Middlewares/LVGL/GUI/lvgl/src/core/lv_obj_draw.c ****     }
 829              		.loc 1 446 16 view .LVU155
 830 0078 D7E7     		b	.L30
 831              	.L31:
 452:../../Middlewares/LVGL/GUI/lvgl/src/core/lv_obj_draw.c ****     }
 832              		.loc 1 452 9 is_stmt 1 view .LVU156
 452:../../Middlewares/LVGL/GUI/lvgl/src/core/lv_obj_draw.c ****     }
 833              		.loc 1 452 16 is_stmt 0 view .LVU157
 834 007a 2146     		mov	r1, r4
 835 007c 0198     		ldr	r0, [sp, #4]
 836 007e FFF7FEFF 		bl	lv_color_to_32
 837              	.LVL49:
 838 0082 0490     		str	r0, [sp, #16]
 839 0084 D1E7     		b	.L30
 840              		.cfi_endproc
 841              	.LFE183:
 843              		.section	.text.normal_apply_layer_recolor,"ax",%progbits
 844              		.align	1
 845              		.syntax unified
 846              		.thumb
 847              		.thumb_func
 849              	normal_apply_layer_recolor:
 850              	.LVL50:
 851              	.LFB182:
 413:../../Middlewares/LVGL/GUI/lvgl/src/core/lv_obj_draw.c ****     lv_color32_t recolor;
 852              		.loc 1 413 1 is_stmt 1 view -0
 853              		.cfi_startproc
 854              		@ args = 0, pretend = 0, frame = 24
 855              		@ frame_needed = 0, uses_anonymous_args = 0
 413:../../Middlewares/LVGL/GUI/lvgl/src/core/lv_obj_draw.c ****     lv_color32_t recolor;
 856              		.loc 1 413 1 is_stmt 0 view .LVU159
 857 0000 00B5     		push	{lr}
 858              	.LCFI38:
 859              		.cfi_def_cfa_offset 4
 860              		.cfi_offset 14, -4
 861 0002 87B0     		sub	sp, sp, #28
 862              	.LCFI39:
 863              		.cfi_def_cfa_offset 32
 864 0004 8446     		mov	ip, r0
 865 0006 0193     		str	r3, [sp, #4]
 414:../../Middlewares/LVGL/GUI/lvgl/src/core/lv_obj_draw.c **** 
 866              		.loc 1 414 5 is_stmt 1 view .LVU160
 416:../../Middlewares/LVGL/GUI/lvgl/src/core/lv_obj_draw.c ****         recolor = base_dsc->layer->recolor;
 867              		.loc 1 416 5 view .LVU161
 416:../../Middlewares/LVGL/GUI/lvgl/src/core/lv_obj_draw.c ****         recolor = base_dsc->layer->recolor;
 868              		.loc 1 416 16 is_stmt 0 view .LVU162
 869 0008 1369     		ldr	r3, [r2, #16]
 416:../../Middlewares/LVGL/GUI/lvgl/src/core/lv_obj_draw.c ****         recolor = base_dsc->layer->recolor;
 870              		.loc 1 416 7 view .LVU163
 871 000a D3B3     		cbz	r3, .L36
 417:../../Middlewares/LVGL/GUI/lvgl/src/core/lv_obj_draw.c ****         if(part != LV_PART_MAIN) {
ARM GAS  C:\Users\28576\AppData\Local\Temp\cclWIAwm.s 			page 37


 872              		.loc 1 417 9 is_stmt 1 view .LVU164
 417:../../Middlewares/LVGL/GUI/lvgl/src/core/lv_obj_draw.c ****         if(part != LV_PART_MAIN) {
 873              		.loc 1 417 17 is_stmt 0 view .LVU165
 874 000c D3F83900 		ldr	r0, [r3, #57]	@ unaligned
 875              	.LVL51:
 417:../../Middlewares/LVGL/GUI/lvgl/src/core/lv_obj_draw.c ****         if(part != LV_PART_MAIN) {
 876              		.loc 1 417 17 view .LVU166
 877 0010 0390     		str	r0, [sp, #12]
 418:../../Middlewares/LVGL/GUI/lvgl/src/core/lv_obj_draw.c ****             recolor = lv_obj_style_apply_recolor(obj, part, recolor);
 878              		.loc 1 418 9 is_stmt 1 view .LVU167
 418:../../Middlewares/LVGL/GUI/lvgl/src/core/lv_obj_draw.c ****             recolor = lv_obj_style_apply_recolor(obj, part, recolor);
 879              		.loc 1 418 11 is_stmt 0 view .LVU168
 880 0012 81BB     		cbnz	r1, .L39
 881              	.LVL52:
 882              	.L37:
 426:../../Middlewares/LVGL/GUI/lvgl/src/core/lv_obj_draw.c **** }
 883              		.loc 1 426 5 is_stmt 1 view .LVU169
 426:../../Middlewares/LVGL/GUI/lvgl/src/core/lv_obj_draw.c **** }
 884              		.loc 1 426 12 is_stmt 0 view .LVU170
 885 0014 9DF80C20 		ldrb	r2, [sp, #12]	@ zero_extendqisi2
 886 0018 9DF80D10 		ldrb	r1, [sp, #13]	@ zero_extendqisi2
 887 001c 9DF80E00 		ldrb	r0, [sp, #14]	@ zero_extendqisi2
 888 0020 FFF7FEFF 		bl	lv_color_make
 889              	.LVL53:
 890 0024 8DF81400 		strb	r0, [sp, #20]
 891 0028 C0F30723 		ubfx	r3, r0, #8, #8
 892 002c 8DF81530 		strb	r3, [sp, #21]
 893 0030 C0F30740 		ubfx	r0, r0, #16, #8
 894 0034 8DF81600 		strb	r0, [sp, #22]
 426:../../Middlewares/LVGL/GUI/lvgl/src/core/lv_obj_draw.c **** }
 895              		.loc 1 426 12 discriminator 1 view .LVU171
 896 0038 9DF80F20 		ldrb	r2, [sp, #15]	@ zero_extendqisi2
 897 003c 0199     		ldr	r1, [sp, #4]
 898 003e 0598     		ldr	r0, [sp, #20]
 899 0040 FFF7FEFF 		bl	lv_color_mix
 900              	.LVL54:
 901 0044 8DF81000 		strb	r0, [sp, #16]
 902 0048 C0F30723 		ubfx	r3, r0, #8, #8
 903 004c 8DF81130 		strb	r3, [sp, #17]
 904 0050 C0F30740 		ubfx	r0, r0, #16, #8
 905 0054 8DF81200 		strb	r0, [sp, #18]
 426:../../Middlewares/LVGL/GUI/lvgl/src/core/lv_obj_draw.c **** }
 906              		.loc 1 426 12 view .LVU172
 907 0058 0020     		movs	r0, #0
 908 005a 9DF81030 		ldrb	r3, [sp, #16]	@ zero_extendqisi2
 909 005e 63F30700 		bfi	r0, r3, #0, #8
 910 0062 9DF81130 		ldrb	r3, [sp, #17]	@ zero_extendqisi2
 911 0066 63F30F20 		bfi	r0, r3, #8, #8
 912 006a 9DF81230 		ldrb	r3, [sp, #18]	@ zero_extendqisi2
 913 006e 63F31740 		bfi	r0, r3, #16, #8
 427:../../Middlewares/LVGL/GUI/lvgl/src/core/lv_obj_draw.c **** 
 914              		.loc 1 427 1 view .LVU173
 915 0072 07B0     		add	sp, sp, #28
 916              	.LCFI40:
 917              		.cfi_remember_state
 918              		.cfi_def_cfa_offset 4
 919              		@ sp needed
ARM GAS  C:\Users\28576\AppData\Local\Temp\cclWIAwm.s 			page 38


 920 0074 00BD     		pop	{pc}
 921              	.LVL55:
 922              	.L39:
 923              	.LCFI41:
 924              		.cfi_restore_state
 419:../../Middlewares/LVGL/GUI/lvgl/src/core/lv_obj_draw.c ****         }
 925              		.loc 1 419 13 is_stmt 1 view .LVU174
 419:../../Middlewares/LVGL/GUI/lvgl/src/core/lv_obj_draw.c ****         }
 926              		.loc 1 419 23 is_stmt 0 view .LVU175
 927 0076 0246     		mov	r2, r0
 928              	.LVL56:
 419:../../Middlewares/LVGL/GUI/lvgl/src/core/lv_obj_draw.c ****         }
 929              		.loc 1 419 23 view .LVU176
 930 0078 6046     		mov	r0, ip
 931 007a FFF7FEFF 		bl	lv_obj_style_apply_recolor
 932              	.LVL57:
 419:../../Middlewares/LVGL/GUI/lvgl/src/core/lv_obj_draw.c ****         }
 933              		.loc 1 419 23 view .LVU177
 934 007e 0390     		str	r0, [sp, #12]
 935 0080 C8E7     		b	.L37
 936              	.LVL58:
 937              	.L36:
 423:../../Middlewares/LVGL/GUI/lvgl/src/core/lv_obj_draw.c ****     }
 938              		.loc 1 423 9 is_stmt 1 view .LVU178
 423:../../Middlewares/LVGL/GUI/lvgl/src/core/lv_obj_draw.c ****     }
 939              		.loc 1 423 19 is_stmt 0 view .LVU179
 940 0082 FFF7FEFF 		bl	lv_obj_get_style_recolor_recursive
 941              	.LVL59:
 423:../../Middlewares/LVGL/GUI/lvgl/src/core/lv_obj_draw.c ****     }
 942              		.loc 1 423 19 view .LVU180
 943 0086 0390     		str	r0, [sp, #12]
 944 0088 C4E7     		b	.L37
 945              		.cfi_endproc
 946              	.LFE182:
 948              		.section	.text.lv_obj_init_draw_rect_dsc,"ax",%progbits
 949              		.align	1
 950              		.global	lv_obj_init_draw_rect_dsc
 951              		.syntax unified
 952              		.thumb
 953              		.thumb_func
 955              	lv_obj_init_draw_rect_dsc:
 956              	.LVL60:
 957              	.LFB172:
  49:../../Middlewares/LVGL/GUI/lvgl/src/core/lv_obj_draw.c ****     LV_PROFILER_DRAW_BEGIN;
 958              		.loc 1 49 1 is_stmt 1 view -0
 959              		.cfi_startproc
 960              		@ args = 0, pretend = 0, frame = 16
 961              		@ frame_needed = 0, uses_anonymous_args = 0
  49:../../Middlewares/LVGL/GUI/lvgl/src/core/lv_obj_draw.c ****     LV_PROFILER_DRAW_BEGIN;
 962              		.loc 1 49 1 is_stmt 0 view .LVU182
 963 0000 F0B5     		push	{r4, r5, r6, r7, lr}
 964              	.LCFI42:
 965              		.cfi_def_cfa_offset 20
 966              		.cfi_offset 4, -20
 967              		.cfi_offset 5, -16
 968              		.cfi_offset 6, -12
 969              		.cfi_offset 7, -8
ARM GAS  C:\Users\28576\AppData\Local\Temp\cclWIAwm.s 			page 39


 970              		.cfi_offset 14, -4
 971 0002 87B0     		sub	sp, sp, #28
 972              	.LCFI43:
 973              		.cfi_def_cfa_offset 48
 974 0004 0746     		mov	r7, r0
 975 0006 0D46     		mov	r5, r1
 976 0008 1446     		mov	r4, r2
  50:../../Middlewares/LVGL/GUI/lvgl/src/core/lv_obj_draw.c ****     draw_dsc->base.obj = obj;
 977              		.loc 1 50 27 is_stmt 1 view .LVU183
  51:../../Middlewares/LVGL/GUI/lvgl/src/core/lv_obj_draw.c ****     draw_dsc->base.part = part;
 978              		.loc 1 51 5 view .LVU184
  51:../../Middlewares/LVGL/GUI/lvgl/src/core/lv_obj_draw.c ****     draw_dsc->base.part = part;
 979              		.loc 1 51 24 is_stmt 0 view .LVU185
 980 000a 1060     		str	r0, [r2]
  52:../../Middlewares/LVGL/GUI/lvgl/src/core/lv_obj_draw.c **** 
 981              		.loc 1 52 5 is_stmt 1 view .LVU186
  52:../../Middlewares/LVGL/GUI/lvgl/src/core/lv_obj_draw.c **** 
 982              		.loc 1 52 25 is_stmt 0 view .LVU187
 983 000c 5160     		str	r1, [r2, #4]
  54:../../Middlewares/LVGL/GUI/lvgl/src/core/lv_obj_draw.c ****     if(part != LV_PART_MAIN) {
 984              		.loc 1 54 5 is_stmt 1 view .LVU188
  54:../../Middlewares/LVGL/GUI/lvgl/src/core/lv_obj_draw.c ****     if(part != LV_PART_MAIN) {
 985              		.loc 1 54 20 is_stmt 0 view .LVU189
 986 000e FFF7FEFF 		bl	get_layer_opa
 987              	.LVL61:
  54:../../Middlewares/LVGL/GUI/lvgl/src/core/lv_obj_draw.c ****     if(part != LV_PART_MAIN) {
 988              		.loc 1 54 20 view .LVU190
 989 0012 0646     		mov	r6, r0
 990              	.LVL62:
  55:../../Middlewares/LVGL/GUI/lvgl/src/core/lv_obj_draw.c ****         if(opa <= LV_OPA_MIN) {
 991              		.loc 1 55 5 is_stmt 1 view .LVU191
  55:../../Middlewares/LVGL/GUI/lvgl/src/core/lv_obj_draw.c ****         if(opa <= LV_OPA_MIN) {
 992              		.loc 1 55 7 is_stmt 0 view .LVU192
 993 0014 0DB1     		cbz	r5, .L41
  56:../../Middlewares/LVGL/GUI/lvgl/src/core/lv_obj_draw.c ****             draw_dsc->bg_opa = LV_OPA_TRANSP;
 994              		.loc 1 56 9 is_stmt 1 view .LVU193
  56:../../Middlewares/LVGL/GUI/lvgl/src/core/lv_obj_draw.c ****             draw_dsc->bg_opa = LV_OPA_TRANSP;
 995              		.loc 1 56 11 is_stmt 0 view .LVU194
 996 0016 0228     		cmp	r0, #2
 997 0018 4AD9     		bls	.L52
 998              	.L41:
  67:../../Middlewares/LVGL/GUI/lvgl/src/core/lv_obj_draw.c **** 
 999              		.loc 1 67 5 is_stmt 1 view .LVU195
 1000              	.LVL63:
 1001              	.LBB121:
 1002              	.LBI121:
 604:../../Middlewares/LVGL/GUI/lvgl/src/core/lv_obj_style_gen.h **** {
 1003              		.loc 2 604 23 view .LVU196
 1004              	.LBB122:
 606:../../Middlewares/LVGL/GUI/lvgl/src/core/lv_obj_style_gen.h ****     return (int32_t)v.num;
 1005              		.loc 2 606 5 view .LVU197
 606:../../Middlewares/LVGL/GUI/lvgl/src/core/lv_obj_style_gen.h ****     return (int32_t)v.num;
 1006              		.loc 2 606 26 is_stmt 0 view .LVU198
 1007 001a 0C22     		movs	r2, #12
 1008 001c 2946     		mov	r1, r5
 1009 001e 3846     		mov	r0, r7
 1010              	.LVL64:
ARM GAS  C:\Users\28576\AppData\Local\Temp\cclWIAwm.s 			page 40


 606:../../Middlewares/LVGL/GUI/lvgl/src/core/lv_obj_style_gen.h ****     return (int32_t)v.num;
 1011              		.loc 2 606 26 view .LVU199
 1012 0020 FFF7FEFF 		bl	lv_obj_get_style_prop
 1013              	.LVL65:
 1014 0024 0590     		str	r0, [sp, #20]
 607:../../Middlewares/LVGL/GUI/lvgl/src/core/lv_obj_style_gen.h **** }
 1015              		.loc 2 607 5 is_stmt 1 view .LVU200
 1016              	.LVL66:
 607:../../Middlewares/LVGL/GUI/lvgl/src/core/lv_obj_style_gen.h **** }
 1017              		.loc 2 607 5 is_stmt 0 view .LVU201
 1018              	.LBE122:
 1019              	.LBE121:
  67:../../Middlewares/LVGL/GUI/lvgl/src/core/lv_obj_draw.c **** 
 1020              		.loc 1 67 22 discriminator 1 view .LVU202
 1021 0026 E061     		str	r0, [r4, #28]
  69:../../Middlewares/LVGL/GUI/lvgl/src/core/lv_obj_draw.c ****         draw_dsc->bg_opa = lv_obj_get_style_bg_opa(obj, part);
 1022              		.loc 1 69 5 is_stmt 1 view .LVU203
  69:../../Middlewares/LVGL/GUI/lvgl/src/core/lv_obj_draw.c ****         draw_dsc->bg_opa = lv_obj_get_style_bg_opa(obj, part);
 1023              		.loc 1 69 16 is_stmt 0 view .LVU204
 1024 0028 94F82030 		ldrb	r3, [r4, #32]	@ zero_extendqisi2
  69:../../Middlewares/LVGL/GUI/lvgl/src/core/lv_obj_draw.c ****         draw_dsc->bg_opa = lv_obj_get_style_bg_opa(obj, part);
 1025              		.loc 1 69 7 view .LVU205
 1026 002c 002B     		cmp	r3, #0
 1027 002e 4BD1     		bne	.L53
 1028              	.L43:
  93:../../Middlewares/LVGL/GUI/lvgl/src/core/lv_obj_draw.c ****         draw_dsc->border_width = lv_obj_get_style_border_width(obj, part);
 1029              		.loc 1 93 5 is_stmt 1 view .LVU206
  93:../../Middlewares/LVGL/GUI/lvgl/src/core/lv_obj_draw.c ****         draw_dsc->border_width = lv_obj_get_style_border_width(obj, part);
 1030              		.loc 1 93 16 is_stmt 0 view .LVU207
 1031 0030 94F84830 		ldrb	r3, [r4, #72]	@ zero_extendqisi2
  93:../../Middlewares/LVGL/GUI/lvgl/src/core/lv_obj_draw.c ****         draw_dsc->border_width = lv_obj_get_style_border_width(obj, part);
 1032              		.loc 1 93 7 view .LVU208
 1033 0034 002B     		cmp	r3, #0
 1034 0036 40F0D980 		bne	.L54
 1035              	.L46:
 105:../../Middlewares/LVGL/GUI/lvgl/src/core/lv_obj_draw.c ****         draw_dsc->outline_width = lv_obj_get_style_outline_width(obj, part);
 1036              		.loc 1 105 5 is_stmt 1 view .LVU209
 105:../../Middlewares/LVGL/GUI/lvgl/src/core/lv_obj_draw.c ****         draw_dsc->outline_width = lv_obj_get_style_outline_width(obj, part);
 1037              		.loc 1 105 16 is_stmt 0 view .LVU210
 1038 003a 94F85830 		ldrb	r3, [r4, #88]	@ zero_extendqisi2
 105:../../Middlewares/LVGL/GUI/lvgl/src/core/lv_obj_draw.c ****         draw_dsc->outline_width = lv_obj_get_style_outline_width(obj, part);
 1039              		.loc 1 105 7 view .LVU211
 1040 003e 002B     		cmp	r3, #0
 1041 0040 40F01581 		bne	.L55
 1042              	.L47:
 117:../../Middlewares/LVGL/GUI/lvgl/src/core/lv_obj_draw.c ****         draw_dsc->bg_image_src = lv_obj_get_style_bg_image_src(obj, part);
 1043              		.loc 1 117 5 is_stmt 1 view .LVU212
 117:../../Middlewares/LVGL/GUI/lvgl/src/core/lv_obj_draw.c ****         draw_dsc->bg_image_src = lv_obj_get_style_bg_image_src(obj, part);
 1044              		.loc 1 117 16 is_stmt 0 view .LVU213
 1045 0044 94F83B30 		ldrb	r3, [r4, #59]	@ zero_extendqisi2
 117:../../Middlewares/LVGL/GUI/lvgl/src/core/lv_obj_draw.c ****         draw_dsc->bg_image_src = lv_obj_get_style_bg_image_src(obj, part);
 1046              		.loc 1 117 7 view .LVU214
 1047 0048 002B     		cmp	r3, #0
 1048 004a 40F04C81 		bne	.L56
 1049              	.L48:
 139:../../Middlewares/LVGL/GUI/lvgl/src/core/lv_obj_draw.c ****         draw_dsc->shadow_width = lv_obj_get_style_shadow_width(obj, part);
 1050              		.loc 1 139 5 is_stmt 1 view .LVU215
ARM GAS  C:\Users\28576\AppData\Local\Temp\cclWIAwm.s 			page 41


 139:../../Middlewares/LVGL/GUI/lvgl/src/core/lv_obj_draw.c ****         draw_dsc->shadow_width = lv_obj_get_style_shadow_width(obj, part);
 1051              		.loc 1 139 16 is_stmt 0 view .LVU216
 1052 004e 94F86C30 		ldrb	r3, [r4, #108]	@ zero_extendqisi2
 139:../../Middlewares/LVGL/GUI/lvgl/src/core/lv_obj_draw.c ****         draw_dsc->shadow_width = lv_obj_get_style_shadow_width(obj, part);
 1053              		.loc 1 139 7 view .LVU217
 1054 0052 002B     		cmp	r3, #0
 1055 0054 40F0C781 		bne	.L57
 1056              	.L50:
 155:../../Middlewares/LVGL/GUI/lvgl/src/core/lv_obj_draw.c ****         draw_dsc->bg_opa = LV_OPA_MIX2(draw_dsc->bg_opa, opa);
 1057              		.loc 1 155 5 is_stmt 1 view .LVU218
 155:../../Middlewares/LVGL/GUI/lvgl/src/core/lv_obj_draw.c ****         draw_dsc->bg_opa = LV_OPA_MIX2(draw_dsc->bg_opa, opa);
 1058              		.loc 1 155 7 is_stmt 0 view .LVU219
 1059 0058 FC2E     		cmp	r6, #252
 1060 005a 27D8     		bhi	.L40
 156:../../Middlewares/LVGL/GUI/lvgl/src/core/lv_obj_draw.c ****         draw_dsc->bg_image_opa = LV_OPA_MIX2(draw_dsc->bg_image_opa, opa);
 1061              		.loc 1 156 9 is_stmt 1 view .LVU220
 156:../../Middlewares/LVGL/GUI/lvgl/src/core/lv_obj_draw.c ****         draw_dsc->bg_image_opa = LV_OPA_MIX2(draw_dsc->bg_image_opa, opa);
 1062              		.loc 1 156 28 is_stmt 0 view .LVU221
 1063 005c 94F82030 		ldrb	r3, [r4, #32]	@ zero_extendqisi2
 1064 0060 06FB03F3 		mul	r3, r6, r3
 1065 0064 C3F30723 		ubfx	r3, r3, #8, #8
 156:../../Middlewares/LVGL/GUI/lvgl/src/core/lv_obj_draw.c ****         draw_dsc->bg_image_opa = LV_OPA_MIX2(draw_dsc->bg_image_opa, opa);
 1066              		.loc 1 156 26 view .LVU222
 1067 0068 84F82030 		strb	r3, [r4, #32]
 157:../../Middlewares/LVGL/GUI/lvgl/src/core/lv_obj_draw.c ****         draw_dsc->border_opa = LV_OPA_MIX2(draw_dsc->border_opa, opa);
 1068              		.loc 1 157 9 is_stmt 1 view .LVU223
 157:../../Middlewares/LVGL/GUI/lvgl/src/core/lv_obj_draw.c ****         draw_dsc->border_opa = LV_OPA_MIX2(draw_dsc->border_opa, opa);
 1069              		.loc 1 157 34 is_stmt 0 view .LVU224
 1070 006c 94F83B30 		ldrb	r3, [r4, #59]	@ zero_extendqisi2
 1071 0070 06FB03F3 		mul	r3, r6, r3
 1072 0074 C3F30723 		ubfx	r3, r3, #8, #8
 157:../../Middlewares/LVGL/GUI/lvgl/src/core/lv_obj_draw.c ****         draw_dsc->border_opa = LV_OPA_MIX2(draw_dsc->border_opa, opa);
 1073              		.loc 1 157 32 view .LVU225
 1074 0078 84F83B30 		strb	r3, [r4, #59]
 158:../../Middlewares/LVGL/GUI/lvgl/src/core/lv_obj_draw.c ****         draw_dsc->shadow_opa = LV_OPA_MIX2(draw_dsc->shadow_opa, opa);
 1075              		.loc 1 158 9 is_stmt 1 view .LVU226
 158:../../Middlewares/LVGL/GUI/lvgl/src/core/lv_obj_draw.c ****         draw_dsc->shadow_opa = LV_OPA_MIX2(draw_dsc->shadow_opa, opa);
 1076              		.loc 1 158 32 is_stmt 0 view .LVU227
 1077 007c 94F84830 		ldrb	r3, [r4, #72]	@ zero_extendqisi2
 1078 0080 06FB03F3 		mul	r3, r6, r3
 1079 0084 C3F30723 		ubfx	r3, r3, #8, #8
 158:../../Middlewares/LVGL/GUI/lvgl/src/core/lv_obj_draw.c ****         draw_dsc->shadow_opa = LV_OPA_MIX2(draw_dsc->shadow_opa, opa);
 1080              		.loc 1 158 30 view .LVU228
 1081 0088 84F84830 		strb	r3, [r4, #72]
 159:../../Middlewares/LVGL/GUI/lvgl/src/core/lv_obj_draw.c ****         draw_dsc->outline_opa = LV_OPA_MIX2(draw_dsc->outline_opa, opa);
 1082              		.loc 1 159 9 is_stmt 1 view .LVU229
 159:../../Middlewares/LVGL/GUI/lvgl/src/core/lv_obj_draw.c ****         draw_dsc->outline_opa = LV_OPA_MIX2(draw_dsc->outline_opa, opa);
 1083              		.loc 1 159 32 is_stmt 0 view .LVU230
 1084 008c 94F86C30 		ldrb	r3, [r4, #108]	@ zero_extendqisi2
 1085 0090 06FB03F3 		mul	r3, r6, r3
 1086 0094 C3F30723 		ubfx	r3, r3, #8, #8
 159:../../Middlewares/LVGL/GUI/lvgl/src/core/lv_obj_draw.c ****         draw_dsc->outline_opa = LV_OPA_MIX2(draw_dsc->outline_opa, opa);
 1087              		.loc 1 159 30 view .LVU231
 1088 0098 84F86C30 		strb	r3, [r4, #108]
 160:../../Middlewares/LVGL/GUI/lvgl/src/core/lv_obj_draw.c ****     }
 1089              		.loc 1 160 9 is_stmt 1 view .LVU232
 160:../../Middlewares/LVGL/GUI/lvgl/src/core/lv_obj_draw.c ****     }
ARM GAS  C:\Users\28576\AppData\Local\Temp\cclWIAwm.s 			page 42


 1090              		.loc 1 160 33 is_stmt 0 view .LVU233
 1091 009c 94F85830 		ldrb	r3, [r4, #88]	@ zero_extendqisi2
 1092 00a0 03FB06F6 		mul	r6, r3, r6
 1093 00a4 C6F30726 		ubfx	r6, r6, #8, #8
 160:../../Middlewares/LVGL/GUI/lvgl/src/core/lv_obj_draw.c ****     }
 1094              		.loc 1 160 31 view .LVU234
 1095 00a8 84F85860 		strb	r6, [r4, #88]
 163:../../Middlewares/LVGL/GUI/lvgl/src/core/lv_obj_draw.c **** }
 1096              		.loc 1 163 25 is_stmt 1 view .LVU235
 1097              	.L40:
 164:../../Middlewares/LVGL/GUI/lvgl/src/core/lv_obj_draw.c **** 
 1098              		.loc 1 164 1 is_stmt 0 view .LVU236
 1099 00ac 07B0     		add	sp, sp, #28
 1100              	.LCFI44:
 1101              		.cfi_remember_state
 1102              		.cfi_def_cfa_offset 20
 1103              		@ sp needed
 1104 00ae F0BD     		pop	{r4, r5, r6, r7, pc}
 1105              	.LVL67:
 1106              	.L52:
 1107              	.LCFI45:
 1108              		.cfi_restore_state
  57:../../Middlewares/LVGL/GUI/lvgl/src/core/lv_obj_draw.c ****             draw_dsc->bg_image_opa = LV_OPA_TRANSP;
 1109              		.loc 1 57 13 is_stmt 1 view .LVU237
  57:../../Middlewares/LVGL/GUI/lvgl/src/core/lv_obj_draw.c ****             draw_dsc->bg_image_opa = LV_OPA_TRANSP;
 1110              		.loc 1 57 30 is_stmt 0 view .LVU238
 1111 00b0 0023     		movs	r3, #0
 1112 00b2 84F82030 		strb	r3, [r4, #32]
  58:../../Middlewares/LVGL/GUI/lvgl/src/core/lv_obj_draw.c ****             draw_dsc->border_opa = LV_OPA_TRANSP;
 1113              		.loc 1 58 13 is_stmt 1 view .LVU239
  58:../../Middlewares/LVGL/GUI/lvgl/src/core/lv_obj_draw.c ****             draw_dsc->border_opa = LV_OPA_TRANSP;
 1114              		.loc 1 58 36 is_stmt 0 view .LVU240
 1115 00b6 84F83B30 		strb	r3, [r4, #59]
  59:../../Middlewares/LVGL/GUI/lvgl/src/core/lv_obj_draw.c ****             draw_dsc->outline_opa = LV_OPA_TRANSP;
 1116              		.loc 1 59 13 is_stmt 1 view .LVU241
  59:../../Middlewares/LVGL/GUI/lvgl/src/core/lv_obj_draw.c ****             draw_dsc->outline_opa = LV_OPA_TRANSP;
 1117              		.loc 1 59 34 is_stmt 0 view .LVU242
 1118 00ba 84F84830 		strb	r3, [r4, #72]
  60:../../Middlewares/LVGL/GUI/lvgl/src/core/lv_obj_draw.c ****             draw_dsc->shadow_opa = LV_OPA_TRANSP;
 1119              		.loc 1 60 13 is_stmt 1 view .LVU243
  60:../../Middlewares/LVGL/GUI/lvgl/src/core/lv_obj_draw.c ****             draw_dsc->shadow_opa = LV_OPA_TRANSP;
 1120              		.loc 1 60 35 is_stmt 0 view .LVU244
 1121 00be 84F85830 		strb	r3, [r4, #88]
  61:../../Middlewares/LVGL/GUI/lvgl/src/core/lv_obj_draw.c ****             LV_PROFILER_DRAW_END;
 1122              		.loc 1 61 13 is_stmt 1 view .LVU245
  61:../../Middlewares/LVGL/GUI/lvgl/src/core/lv_obj_draw.c ****             LV_PROFILER_DRAW_END;
 1123              		.loc 1 61 34 is_stmt 0 view .LVU246
 1124 00c2 84F86C30 		strb	r3, [r4, #108]
  62:../../Middlewares/LVGL/GUI/lvgl/src/core/lv_obj_draw.c ****             return;
 1125              		.loc 1 62 33 is_stmt 1 view .LVU247
  63:../../Middlewares/LVGL/GUI/lvgl/src/core/lv_obj_draw.c ****         }
 1126              		.loc 1 63 13 view .LVU248
 1127 00c6 F1E7     		b	.L40
 1128              	.LVL68:
 1129              	.L53:
  70:../../Middlewares/LVGL/GUI/lvgl/src/core/lv_obj_draw.c ****         if(draw_dsc->bg_opa > LV_OPA_MIN) {
 1130              		.loc 1 70 9 view .LVU249
ARM GAS  C:\Users\28576\AppData\Local\Temp\cclWIAwm.s 			page 43


 1131              	.LBB123:
 1132              	.LBI123:
 232:../../Middlewares/LVGL/GUI/lvgl/src/core/lv_obj_style_gen.h **** {
 1133              		.loc 2 232 24 view .LVU250
 1134              	.LBB124:
 234:../../Middlewares/LVGL/GUI/lvgl/src/core/lv_obj_style_gen.h ****     return (lv_opa_t)v.num;
 1135              		.loc 2 234 5 view .LVU251
 234:../../Middlewares/LVGL/GUI/lvgl/src/core/lv_obj_style_gen.h ****     return (lv_opa_t)v.num;
 1136              		.loc 2 234 26 is_stmt 0 view .LVU252
 1137 00c8 1D22     		movs	r2, #29
 1138 00ca 2946     		mov	r1, r5
 1139 00cc 3846     		mov	r0, r7
 1140 00ce FFF7FEFF 		bl	lv_obj_get_style_prop
 1141              	.LVL69:
 1142 00d2 0590     		str	r0, [sp, #20]
 235:../../Middlewares/LVGL/GUI/lvgl/src/core/lv_obj_style_gen.h **** }
 1143              		.loc 2 235 5 is_stmt 1 view .LVU253
 235:../../Middlewares/LVGL/GUI/lvgl/src/core/lv_obj_style_gen.h **** }
 1144              		.loc 2 235 12 is_stmt 0 view .LVU254
 1145 00d4 C0B2     		uxtb	r0, r0
 1146              	.LVL70:
 235:../../Middlewares/LVGL/GUI/lvgl/src/core/lv_obj_style_gen.h **** }
 1147              		.loc 2 235 12 view .LVU255
 1148              	.LBE124:
 1149              	.LBE123:
  70:../../Middlewares/LVGL/GUI/lvgl/src/core/lv_obj_draw.c ****         if(draw_dsc->bg_opa > LV_OPA_MIN) {
 1150              		.loc 1 70 26 discriminator 1 view .LVU256
 1151 00d6 84F82000 		strb	r0, [r4, #32]
  71:../../Middlewares/LVGL/GUI/lvgl/src/core/lv_obj_draw.c ****             lv_color_t bg_color = lv_obj_get_style_bg_color_filtered(obj, part);
 1152              		.loc 1 71 9 is_stmt 1 view .LVU257
  71:../../Middlewares/LVGL/GUI/lvgl/src/core/lv_obj_draw.c ****             lv_color_t bg_color = lv_obj_get_style_bg_color_filtered(obj, part);
 1153              		.loc 1 71 11 is_stmt 0 view .LVU258
 1154 00da 0228     		cmp	r0, #2
 1155 00dc A8D9     		bls	.L43
 1156              	.LBB125:
  72:../../Middlewares/LVGL/GUI/lvgl/src/core/lv_obj_draw.c ****             draw_dsc->bg_color = normal_apply_layer_recolor(obj, part, &draw_dsc->base, bg_color);
 1157              		.loc 1 72 13 is_stmt 1 view .LVU259
  72:../../Middlewares/LVGL/GUI/lvgl/src/core/lv_obj_draw.c ****             draw_dsc->bg_color = normal_apply_layer_recolor(obj, part, &draw_dsc->base, bg_color);
 1158              		.loc 1 72 35 is_stmt 0 view .LVU260
 1159 00de 2946     		mov	r1, r5
 1160 00e0 3846     		mov	r0, r7
 1161 00e2 FFF7FEFF 		bl	lv_obj_get_style_bg_color_filtered
 1162              	.LVL71:
 1163 00e6 8DF80C00 		strb	r0, [sp, #12]
 1164 00ea C0F30723 		ubfx	r3, r0, #8, #8
 1165 00ee 8DF80D30 		strb	r3, [sp, #13]
 1166 00f2 C0F30740 		ubfx	r0, r0, #16, #8
 1167 00f6 8DF80E00 		strb	r0, [sp, #14]
  73:../../Middlewares/LVGL/GUI/lvgl/src/core/lv_obj_draw.c ****             const lv_grad_dsc_t * grad = lv_obj_get_style_bg_grad(obj, part);
 1168              		.loc 1 73 13 is_stmt 1 view .LVU261
  73:../../Middlewares/LVGL/GUI/lvgl/src/core/lv_obj_draw.c ****             const lv_grad_dsc_t * grad = lv_obj_get_style_bg_grad(obj, part);
 1169              		.loc 1 73 34 is_stmt 0 view .LVU262
 1170 00fa 039B     		ldr	r3, [sp, #12]
 1171 00fc 2246     		mov	r2, r4
 1172 00fe 2946     		mov	r1, r5
 1173 0100 3846     		mov	r0, r7
 1174 0102 FFF7FEFF 		bl	normal_apply_layer_recolor
ARM GAS  C:\Users\28576\AppData\Local\Temp\cclWIAwm.s 			page 44


 1175              	.LVL72:
 1176 0106 84F82100 		strb	r0, [r4, #33]
 1177 010a C0F30723 		ubfx	r3, r0, #8, #8
 1178 010e 84F82230 		strb	r3, [r4, #34]
 1179 0112 C0F30740 		ubfx	r0, r0, #16, #8
 1180 0116 84F82300 		strb	r0, [r4, #35]
  74:../../Middlewares/LVGL/GUI/lvgl/src/core/lv_obj_draw.c ****             if(grad && grad->dir != LV_GRAD_DIR_NONE) {
 1181              		.loc 1 74 13 is_stmt 1 view .LVU263
 1182              	.LVL73:
 1183              	.LBB126:
 1184              	.LBI126:
 280:../../Middlewares/LVGL/GUI/lvgl/src/core/lv_obj_style_gen.h **** {
 1185              		.loc 2 280 37 view .LVU264
 1186              	.LBB127:
 282:../../Middlewares/LVGL/GUI/lvgl/src/core/lv_obj_style_gen.h ****     return (const lv_grad_dsc_t *)v.ptr;
 1187              		.loc 2 282 5 view .LVU265
 282:../../Middlewares/LVGL/GUI/lvgl/src/core/lv_obj_style_gen.h ****     return (const lv_grad_dsc_t *)v.ptr;
 1188              		.loc 2 282 26 is_stmt 0 view .LVU266
 1189 011a 2622     		movs	r2, #38
 1190 011c 2946     		mov	r1, r5
 1191 011e 3846     		mov	r0, r7
 1192 0120 FFF7FEFF 		bl	lv_obj_get_style_prop
 1193              	.LVL74:
 1194 0124 0590     		str	r0, [sp, #20]
 283:../../Middlewares/LVGL/GUI/lvgl/src/core/lv_obj_style_gen.h **** }
 1195              		.loc 2 283 5 is_stmt 1 view .LVU267
 1196              	.LVL75:
 283:../../Middlewares/LVGL/GUI/lvgl/src/core/lv_obj_style_gen.h **** }
 1197              		.loc 2 283 5 is_stmt 0 view .LVU268
 1198              	.LBE127:
 1199              	.LBE126:
  75:../../Middlewares/LVGL/GUI/lvgl/src/core/lv_obj_draw.c ****                 lv_memcpy(&draw_dsc->bg_grad, grad, sizeof(*grad));
 1200              		.loc 1 75 13 is_stmt 1 view .LVU269
  75:../../Middlewares/LVGL/GUI/lvgl/src/core/lv_obj_draw.c ****                 lv_memcpy(&draw_dsc->bg_grad, grad, sizeof(*grad));
 1201              		.loc 1 75 15 is_stmt 0 view .LVU270
 1202 0126 18B1     		cbz	r0, .L44
  75:../../Middlewares/LVGL/GUI/lvgl/src/core/lv_obj_draw.c ****                 lv_memcpy(&draw_dsc->bg_grad, grad, sizeof(*grad));
 1203              		.loc 1 75 34 discriminator 1 view .LVU271
 1204 0128 C37A     		ldrb	r3, [r0, #11]	@ zero_extendqisi2
  75:../../Middlewares/LVGL/GUI/lvgl/src/core/lv_obj_draw.c ****                 lv_memcpy(&draw_dsc->bg_grad, grad, sizeof(*grad));
 1205              		.loc 1 75 21 discriminator 1 view .LVU272
 1206 012a 13F00F0F 		tst	r3, #15
 1207 012e 56D1     		bne	.L58
 1208              	.L44:
  79:../../Middlewares/LVGL/GUI/lvgl/src/core/lv_obj_draw.c ****                 if(draw_dsc->bg_grad.dir != LV_GRAD_DIR_NONE) {
 1209              		.loc 1 79 17 is_stmt 1 view .LVU273
 1210              	.LVL76:
 1211              	.LBB128:
 1212              	.LBI128:
 250:../../Middlewares/LVGL/GUI/lvgl/src/core/lv_obj_style_gen.h **** {
 1213              		.loc 2 250 29 view .LVU274
 1214              	.LBB129:
 252:../../Middlewares/LVGL/GUI/lvgl/src/core/lv_obj_style_gen.h ****     return (lv_grad_dir_t)v.num;
 1215              		.loc 2 252 5 view .LVU275
 252:../../Middlewares/LVGL/GUI/lvgl/src/core/lv_obj_style_gen.h ****     return (lv_grad_dir_t)v.num;
 1216              		.loc 2 252 26 is_stmt 0 view .LVU276
 1217 0130 2022     		movs	r2, #32
ARM GAS  C:\Users\28576\AppData\Local\Temp\cclWIAwm.s 			page 45


 1218 0132 2946     		mov	r1, r5
 1219 0134 3846     		mov	r0, r7
 1220              	.LVL77:
 252:../../Middlewares/LVGL/GUI/lvgl/src/core/lv_obj_style_gen.h ****     return (lv_grad_dir_t)v.num;
 1221              		.loc 2 252 26 view .LVU277
 1222 0136 FFF7FEFF 		bl	lv_obj_get_style_prop
 1223              	.LVL78:
 252:../../Middlewares/LVGL/GUI/lvgl/src/core/lv_obj_style_gen.h ****     return (lv_grad_dir_t)v.num;
 1224              		.loc 2 252 26 view .LVU278
 1225 013a 0590     		str	r0, [sp, #20]
 253:../../Middlewares/LVGL/GUI/lvgl/src/core/lv_obj_style_gen.h **** }
 1226              		.loc 2 253 5 is_stmt 1 view .LVU279
 1227              	.LVL79:
 253:../../Middlewares/LVGL/GUI/lvgl/src/core/lv_obj_style_gen.h **** }
 1228              		.loc 2 253 5 is_stmt 0 view .LVU280
 1229              	.LBE129:
 1230              	.LBE128:
  79:../../Middlewares/LVGL/GUI/lvgl/src/core/lv_obj_draw.c ****                 if(draw_dsc->bg_grad.dir != LV_GRAD_DIR_NONE) {
 1231              		.loc 1 79 39 discriminator 1 view .LVU281
 1232 013c 94F82F30 		ldrb	r3, [r4, #47]	@ zero_extendqisi2
 1233 0140 60F30303 		bfi	r3, r0, #0, #4
 1234 0144 84F82F30 		strb	r3, [r4, #47]
  80:../../Middlewares/LVGL/GUI/lvgl/src/core/lv_obj_draw.c ****                     draw_dsc->bg_grad.stops[0].color = draw_dsc->bg_color;
 1235              		.loc 1 80 17 is_stmt 1 view .LVU282
  80:../../Middlewares/LVGL/GUI/lvgl/src/core/lv_obj_draw.c ****                     draw_dsc->bg_grad.stops[0].color = draw_dsc->bg_color;
 1236              		.loc 1 80 42 is_stmt 0 view .LVU283
 1237 0148 DBB2     		uxtb	r3, r3
  80:../../Middlewares/LVGL/GUI/lvgl/src/core/lv_obj_draw.c ****                     draw_dsc->bg_grad.stops[0].color = draw_dsc->bg_color;
 1238              		.loc 1 80 19 view .LVU284
 1239 014a 13F00F0F 		tst	r3, #15
 1240 014e 3FF46FAF 		beq	.L43
 1241              	.LBB130:
  81:../../Middlewares/LVGL/GUI/lvgl/src/core/lv_obj_draw.c ****                     lv_color_t bg_grad_color = lv_obj_get_style_bg_grad_color_filtered(obj, part);
 1242              		.loc 1 81 21 is_stmt 1 view .LVU285
  81:../../Middlewares/LVGL/GUI/lvgl/src/core/lv_obj_draw.c ****                     lv_color_t bg_grad_color = lv_obj_get_style_bg_grad_color_filtered(obj, part);
 1243              		.loc 1 81 54 is_stmt 0 view .LVU286
 1244 0152 B4F82120 		ldrh	r2, [r4, #33]	@ unaligned
 1245 0156 94F82330 		ldrb	r3, [r4, #35]	@ zero_extendqisi2
 1246 015a A284     		strh	r2, [r4, #36]	@ unaligned
 1247 015c 84F82630 		strb	r3, [r4, #38]
  82:../../Middlewares/LVGL/GUI/lvgl/src/core/lv_obj_draw.c ****                     draw_dsc->bg_grad.stops[1].color = normal_apply_layer_recolor(obj, part, &draw_
 1248              		.loc 1 82 21 is_stmt 1 view .LVU287
  82:../../Middlewares/LVGL/GUI/lvgl/src/core/lv_obj_draw.c ****                     draw_dsc->bg_grad.stops[1].color = normal_apply_layer_recolor(obj, part, &draw_
 1249              		.loc 1 82 48 is_stmt 0 view .LVU288
 1250 0160 2946     		mov	r1, r5
 1251 0162 3846     		mov	r0, r7
 1252 0164 FFF7FEFF 		bl	lv_obj_get_style_bg_grad_color_filtered
 1253              	.LVL80:
 1254 0168 8DF81000 		strb	r0, [sp, #16]
 1255 016c C0F30723 		ubfx	r3, r0, #8, #8
 1256 0170 8DF81130 		strb	r3, [sp, #17]
 1257 0174 C0F30740 		ubfx	r0, r0, #16, #8
 1258 0178 8DF81200 		strb	r0, [sp, #18]
  83:../../Middlewares/LVGL/GUI/lvgl/src/core/lv_obj_draw.c ****                     draw_dsc->bg_grad.stops[0].frac = lv_obj_get_style_bg_main_stop(obj, part);
 1259              		.loc 1 83 21 is_stmt 1 view .LVU289
  83:../../Middlewares/LVGL/GUI/lvgl/src/core/lv_obj_draw.c ****                     draw_dsc->bg_grad.stops[0].frac = lv_obj_get_style_bg_main_stop(obj, part);
 1260              		.loc 1 83 56 is_stmt 0 view .LVU290
ARM GAS  C:\Users\28576\AppData\Local\Temp\cclWIAwm.s 			page 46


 1261 017c 049B     		ldr	r3, [sp, #16]
 1262 017e 2246     		mov	r2, r4
 1263 0180 2946     		mov	r1, r5
 1264 0182 3846     		mov	r0, r7
 1265 0184 FFF7FEFF 		bl	normal_apply_layer_recolor
 1266              	.LVL81:
 1267 0188 84F82900 		strb	r0, [r4, #41]
 1268 018c C0F30723 		ubfx	r3, r0, #8, #8
 1269 0190 84F82A30 		strb	r3, [r4, #42]
 1270 0194 C0F30740 		ubfx	r0, r0, #16, #8
 1271 0198 84F82B00 		strb	r0, [r4, #43]
  84:../../Middlewares/LVGL/GUI/lvgl/src/core/lv_obj_draw.c ****                     draw_dsc->bg_grad.stops[1].frac = lv_obj_get_style_bg_grad_stop(obj, part);
 1272              		.loc 1 84 21 is_stmt 1 view .LVU291
 1273              	.LVL82:
 1274              	.LBB131:
 1275              	.LBI131:
 256:../../Middlewares/LVGL/GUI/lvgl/src/core/lv_obj_style_gen.h **** {
 1276              		.loc 2 256 23 view .LVU292
 1277              	.LBB132:
 258:../../Middlewares/LVGL/GUI/lvgl/src/core/lv_obj_style_gen.h ****     return (int32_t)v.num;
 1278              		.loc 2 258 5 view .LVU293
 258:../../Middlewares/LVGL/GUI/lvgl/src/core/lv_obj_style_gen.h ****     return (int32_t)v.num;
 1279              		.loc 2 258 26 is_stmt 0 view .LVU294
 1280 019c 2122     		movs	r2, #33
 1281 019e 2946     		mov	r1, r5
 1282 01a0 3846     		mov	r0, r7
 1283 01a2 FFF7FEFF 		bl	lv_obj_get_style_prop
 1284              	.LVL83:
 1285 01a6 0590     		str	r0, [sp, #20]
 259:../../Middlewares/LVGL/GUI/lvgl/src/core/lv_obj_style_gen.h **** }
 1286              		.loc 2 259 5 is_stmt 1 view .LVU295
 1287              	.LVL84:
 259:../../Middlewares/LVGL/GUI/lvgl/src/core/lv_obj_style_gen.h **** }
 1288              		.loc 2 259 5 is_stmt 0 view .LVU296
 1289              	.LBE132:
 1290              	.LBE131:
  84:../../Middlewares/LVGL/GUI/lvgl/src/core/lv_obj_draw.c ****                     draw_dsc->bg_grad.stops[1].frac = lv_obj_get_style_bg_grad_stop(obj, part);
 1291              		.loc 1 84 53 discriminator 1 view .LVU297
 1292 01a8 84F82800 		strb	r0, [r4, #40]
  85:../../Middlewares/LVGL/GUI/lvgl/src/core/lv_obj_draw.c ****                     draw_dsc->bg_grad.stops[0].opa = lv_obj_get_style_bg_main_opa(obj, part);
 1293              		.loc 1 85 21 is_stmt 1 view .LVU298
 1294              	.LVL85:
 1295              	.LBB133:
 1296              	.LBI133:
 262:../../Middlewares/LVGL/GUI/lvgl/src/core/lv_obj_style_gen.h **** {
 1297              		.loc 2 262 23 view .LVU299
 1298              	.LBB134:
 264:../../Middlewares/LVGL/GUI/lvgl/src/core/lv_obj_style_gen.h ****     return (int32_t)v.num;
 1299              		.loc 2 264 5 view .LVU300
 264:../../Middlewares/LVGL/GUI/lvgl/src/core/lv_obj_style_gen.h ****     return (int32_t)v.num;
 1300              		.loc 2 264 26 is_stmt 0 view .LVU301
 1301 01ac 2222     		movs	r2, #34
 1302 01ae 2946     		mov	r1, r5
 1303 01b0 3846     		mov	r0, r7
 1304 01b2 FFF7FEFF 		bl	lv_obj_get_style_prop
 1305              	.LVL86:
 1306 01b6 0590     		str	r0, [sp, #20]
ARM GAS  C:\Users\28576\AppData\Local\Temp\cclWIAwm.s 			page 47


 265:../../Middlewares/LVGL/GUI/lvgl/src/core/lv_obj_style_gen.h **** }
 1307              		.loc 2 265 5 is_stmt 1 view .LVU302
 1308              	.LVL87:
 265:../../Middlewares/LVGL/GUI/lvgl/src/core/lv_obj_style_gen.h **** }
 1309              		.loc 2 265 5 is_stmt 0 view .LVU303
 1310              	.LBE134:
 1311              	.LBE133:
  85:../../Middlewares/LVGL/GUI/lvgl/src/core/lv_obj_draw.c ****                     draw_dsc->bg_grad.stops[0].opa = lv_obj_get_style_bg_main_opa(obj, part);
 1312              		.loc 1 85 53 discriminator 1 view .LVU304
 1313 01b8 84F82D00 		strb	r0, [r4, #45]
  86:../../Middlewares/LVGL/GUI/lvgl/src/core/lv_obj_draw.c ****                     draw_dsc->bg_grad.stops[1].opa = lv_obj_get_style_bg_grad_opa(obj, part);
 1314              		.loc 1 86 21 is_stmt 1 view .LVU305
 1315              	.LVL88:
 1316              	.LBB135:
 1317              	.LBI135:
 268:../../Middlewares/LVGL/GUI/lvgl/src/core/lv_obj_style_gen.h **** {
 1318              		.loc 2 268 24 view .LVU306
 1319              	.LBB136:
 270:../../Middlewares/LVGL/GUI/lvgl/src/core/lv_obj_style_gen.h ****     return (lv_opa_t)v.num;
 1320              		.loc 2 270 5 view .LVU307
 270:../../Middlewares/LVGL/GUI/lvgl/src/core/lv_obj_style_gen.h ****     return (lv_opa_t)v.num;
 1321              		.loc 2 270 26 is_stmt 0 view .LVU308
 1322 01bc 2422     		movs	r2, #36
 1323 01be 2946     		mov	r1, r5
 1324 01c0 3846     		mov	r0, r7
 1325 01c2 FFF7FEFF 		bl	lv_obj_get_style_prop
 1326              	.LVL89:
 1327 01c6 0590     		str	r0, [sp, #20]
 271:../../Middlewares/LVGL/GUI/lvgl/src/core/lv_obj_style_gen.h **** }
 1328              		.loc 2 271 5 is_stmt 1 view .LVU309
 1329              	.LVL90:
 271:../../Middlewares/LVGL/GUI/lvgl/src/core/lv_obj_style_gen.h **** }
 1330              		.loc 2 271 5 is_stmt 0 view .LVU310
 1331              	.LBE136:
 1332              	.LBE135:
  86:../../Middlewares/LVGL/GUI/lvgl/src/core/lv_obj_draw.c ****                     draw_dsc->bg_grad.stops[1].opa = lv_obj_get_style_bg_grad_opa(obj, part);
 1333              		.loc 1 86 52 discriminator 1 view .LVU311
 1334 01c8 84F82700 		strb	r0, [r4, #39]
  87:../../Middlewares/LVGL/GUI/lvgl/src/core/lv_obj_draw.c ****                 }
 1335              		.loc 1 87 21 is_stmt 1 view .LVU312
 1336              	.LVL91:
 1337              	.LBB137:
 1338              	.LBI137:
 274:../../Middlewares/LVGL/GUI/lvgl/src/core/lv_obj_style_gen.h **** {
 1339              		.loc 2 274 24 view .LVU313
 1340              	.LBB138:
 276:../../Middlewares/LVGL/GUI/lvgl/src/core/lv_obj_style_gen.h ****     return (lv_opa_t)v.num;
 1341              		.loc 2 276 5 view .LVU314
 276:../../Middlewares/LVGL/GUI/lvgl/src/core/lv_obj_style_gen.h ****     return (lv_opa_t)v.num;
 1342              		.loc 2 276 26 is_stmt 0 view .LVU315
 1343 01cc 2522     		movs	r2, #37
 1344 01ce 2946     		mov	r1, r5
 1345 01d0 3846     		mov	r0, r7
 1346 01d2 FFF7FEFF 		bl	lv_obj_get_style_prop
 1347              	.LVL92:
 1348 01d6 0590     		str	r0, [sp, #20]
 277:../../Middlewares/LVGL/GUI/lvgl/src/core/lv_obj_style_gen.h **** }
ARM GAS  C:\Users\28576\AppData\Local\Temp\cclWIAwm.s 			page 48


 1349              		.loc 2 277 5 is_stmt 1 view .LVU316
 1350              	.LVL93:
 277:../../Middlewares/LVGL/GUI/lvgl/src/core/lv_obj_style_gen.h **** }
 1351              		.loc 2 277 5 is_stmt 0 view .LVU317
 1352              	.LBE138:
 1353              	.LBE137:
  87:../../Middlewares/LVGL/GUI/lvgl/src/core/lv_obj_draw.c ****                 }
 1354              		.loc 1 87 52 discriminator 1 view .LVU318
 1355 01d8 84F82C00 		strb	r0, [r4, #44]
 1356 01dc 28E7     		b	.L43
 1357              	.LVL94:
 1358              	.L58:
  87:../../Middlewares/LVGL/GUI/lvgl/src/core/lv_obj_draw.c ****                 }
 1359              		.loc 1 87 52 discriminator 1 view .LVU319
 1360              	.LBE130:
  76:../../Middlewares/LVGL/GUI/lvgl/src/core/lv_obj_draw.c ****             }
 1361              		.loc 1 76 17 is_stmt 1 view .LVU320
 1362 01de 0C22     		movs	r2, #12
 1363 01e0 0146     		mov	r1, r0
 1364 01e2 04F12400 		add	r0, r4, #36
 1365              	.LVL95:
  76:../../Middlewares/LVGL/GUI/lvgl/src/core/lv_obj_draw.c ****             }
 1366              		.loc 1 76 17 is_stmt 0 view .LVU321
 1367 01e6 FFF7FEFF 		bl	lv_memcpy
 1368              	.LVL96:
  76:../../Middlewares/LVGL/GUI/lvgl/src/core/lv_obj_draw.c ****             }
 1369              		.loc 1 76 17 view .LVU322
 1370 01ea 21E7     		b	.L43
 1371              	.LVL97:
 1372              	.L54:
  76:../../Middlewares/LVGL/GUI/lvgl/src/core/lv_obj_draw.c ****             }
 1373              		.loc 1 76 17 view .LVU323
 1374              	.LBE125:
  94:../../Middlewares/LVGL/GUI/lvgl/src/core/lv_obj_draw.c ****         if(draw_dsc->border_width) {
 1375              		.loc 1 94 9 is_stmt 1 view .LVU324
 1376              	.LBB139:
 1377              	.LBI139:
 340:../../Middlewares/LVGL/GUI/lvgl/src/core/lv_obj_style_gen.h **** {
 1378              		.loc 2 340 23 view .LVU325
 1379              	.LBB140:
 342:../../Middlewares/LVGL/GUI/lvgl/src/core/lv_obj_style_gen.h ****     return (int32_t)v.num;
 1380              		.loc 2 342 5 view .LVU326
 342:../../Middlewares/LVGL/GUI/lvgl/src/core/lv_obj_style_gen.h ****     return (int32_t)v.num;
 1381              		.loc 2 342 26 is_stmt 0 view .LVU327
 1382 01ec 3022     		movs	r2, #48
 1383 01ee 2946     		mov	r1, r5
 1384 01f0 3846     		mov	r0, r7
 1385 01f2 FFF7FEFF 		bl	lv_obj_get_style_prop
 1386              	.LVL98:
 1387 01f6 0590     		str	r0, [sp, #20]
 343:../../Middlewares/LVGL/GUI/lvgl/src/core/lv_obj_style_gen.h **** }
 1388              		.loc 2 343 5 is_stmt 1 view .LVU328
 1389              	.LVL99:
 343:../../Middlewares/LVGL/GUI/lvgl/src/core/lv_obj_style_gen.h **** }
 1390              		.loc 2 343 5 is_stmt 0 view .LVU329
 1391              	.LBE140:
 1392              	.LBE139:
ARM GAS  C:\Users\28576\AppData\Local\Temp\cclWIAwm.s 			page 49


  94:../../Middlewares/LVGL/GUI/lvgl/src/core/lv_obj_draw.c ****         if(draw_dsc->border_width) {
 1393              		.loc 1 94 32 discriminator 1 view .LVU330
 1394 01f8 6064     		str	r0, [r4, #68]
  95:../../Middlewares/LVGL/GUI/lvgl/src/core/lv_obj_draw.c ****             draw_dsc->border_opa = lv_obj_get_style_border_opa(obj, part);
 1395              		.loc 1 95 9 is_stmt 1 view .LVU331
  95:../../Middlewares/LVGL/GUI/lvgl/src/core/lv_obj_draw.c ****             draw_dsc->border_opa = lv_obj_get_style_border_opa(obj, part);
 1396              		.loc 1 95 11 is_stmt 0 view .LVU332
 1397 01fa 0028     		cmp	r0, #0
 1398 01fc 3FF41DAF 		beq	.L46
  96:../../Middlewares/LVGL/GUI/lvgl/src/core/lv_obj_draw.c ****             if(draw_dsc->border_opa > LV_OPA_MIN) {
 1399              		.loc 1 96 13 is_stmt 1 view .LVU333
 1400              	.LVL100:
 1401              	.LBB141:
 1402              	.LBI141:
 334:../../Middlewares/LVGL/GUI/lvgl/src/core/lv_obj_style_gen.h **** {
 1403              		.loc 2 334 24 view .LVU334
 1404              	.LBB142:
 336:../../Middlewares/LVGL/GUI/lvgl/src/core/lv_obj_style_gen.h ****     return (lv_opa_t)v.num;
 1405              		.loc 2 336 5 view .LVU335
 336:../../Middlewares/LVGL/GUI/lvgl/src/core/lv_obj_style_gen.h ****     return (lv_opa_t)v.num;
 1406              		.loc 2 336 26 is_stmt 0 view .LVU336
 1407 0200 3222     		movs	r2, #50
 1408 0202 2946     		mov	r1, r5
 1409 0204 3846     		mov	r0, r7
 1410 0206 FFF7FEFF 		bl	lv_obj_get_style_prop
 1411              	.LVL101:
 1412 020a 0590     		str	r0, [sp, #20]
 337:../../Middlewares/LVGL/GUI/lvgl/src/core/lv_obj_style_gen.h **** }
 1413              		.loc 2 337 5 is_stmt 1 view .LVU337
 337:../../Middlewares/LVGL/GUI/lvgl/src/core/lv_obj_style_gen.h **** }
 1414              		.loc 2 337 12 is_stmt 0 view .LVU338
 1415 020c C0B2     		uxtb	r0, r0
 1416              	.LVL102:
 337:../../Middlewares/LVGL/GUI/lvgl/src/core/lv_obj_style_gen.h **** }
 1417              		.loc 2 337 12 view .LVU339
 1418              	.LBE142:
 1419              	.LBE141:
  96:../../Middlewares/LVGL/GUI/lvgl/src/core/lv_obj_draw.c ****             if(draw_dsc->border_opa > LV_OPA_MIN) {
 1420              		.loc 1 96 34 discriminator 1 view .LVU340
 1421 020e 84F84800 		strb	r0, [r4, #72]
  97:../../Middlewares/LVGL/GUI/lvgl/src/core/lv_obj_draw.c ****                 draw_dsc->border_side = lv_obj_get_style_border_side(obj, part);
 1422              		.loc 1 97 13 is_stmt 1 view .LVU341
  97:../../Middlewares/LVGL/GUI/lvgl/src/core/lv_obj_draw.c ****                 draw_dsc->border_side = lv_obj_get_style_border_side(obj, part);
 1423              		.loc 1 97 15 is_stmt 0 view .LVU342
 1424 0212 0228     		cmp	r0, #2
 1425 0214 7FF611AF 		bls	.L46
 1426              	.LBB143:
  98:../../Middlewares/LVGL/GUI/lvgl/src/core/lv_obj_draw.c ****                 lv_color_t border_color = lv_obj_get_style_border_color_filtered(obj, part);
 1427              		.loc 1 98 17 is_stmt 1 view .LVU343
 1428              	.LVL103:
 1429              	.LBB144:
 1430              	.LBI144:
 346:../../Middlewares/LVGL/GUI/lvgl/src/core/lv_obj_style_gen.h **** {
 1431              		.loc 2 346 32 view .LVU344
 1432              	.LBB145:
 348:../../Middlewares/LVGL/GUI/lvgl/src/core/lv_obj_style_gen.h ****     return (lv_border_side_t)v.num;
 1433              		.loc 2 348 5 view .LVU345
ARM GAS  C:\Users\28576\AppData\Local\Temp\cclWIAwm.s 			page 50


 348:../../Middlewares/LVGL/GUI/lvgl/src/core/lv_obj_style_gen.h ****     return (lv_border_side_t)v.num;
 1434              		.loc 2 348 26 is_stmt 0 view .LVU346
 1435 0218 3422     		movs	r2, #52
 1436 021a 2946     		mov	r1, r5
 1437 021c 3846     		mov	r0, r7
 1438 021e FFF7FEFF 		bl	lv_obj_get_style_prop
 1439              	.LVL104:
 1440 0222 0590     		str	r0, [sp, #20]
 349:../../Middlewares/LVGL/GUI/lvgl/src/core/lv_obj_style_gen.h **** }
 1441              		.loc 2 349 5 is_stmt 1 view .LVU347
 1442              	.LVL105:
 349:../../Middlewares/LVGL/GUI/lvgl/src/core/lv_obj_style_gen.h **** }
 1443              		.loc 2 349 5 is_stmt 0 view .LVU348
 1444              	.LBE145:
 1445              	.LBE144:
  98:../../Middlewares/LVGL/GUI/lvgl/src/core/lv_obj_draw.c ****                 lv_color_t border_color = lv_obj_get_style_border_color_filtered(obj, part);
 1446              		.loc 1 98 39 discriminator 1 view .LVU349
 1447 0224 94F84930 		ldrb	r3, [r4, #73]	@ zero_extendqisi2
 1448 0228 60F30403 		bfi	r3, r0, #0, #5
 1449 022c 84F84930 		strb	r3, [r4, #73]
  99:../../Middlewares/LVGL/GUI/lvgl/src/core/lv_obj_draw.c ****                 draw_dsc->border_color = normal_apply_layer_recolor(obj, part, &draw_dsc->base, bor
 1450              		.loc 1 99 17 is_stmt 1 view .LVU350
  99:../../Middlewares/LVGL/GUI/lvgl/src/core/lv_obj_draw.c ****                 draw_dsc->border_color = normal_apply_layer_recolor(obj, part, &draw_dsc->base, bor
 1451              		.loc 1 99 43 is_stmt 0 view .LVU351
 1452 0230 2946     		mov	r1, r5
 1453 0232 3846     		mov	r0, r7
 1454 0234 FFF7FEFF 		bl	lv_obj_get_style_border_color_filtered
 1455              	.LVL106:
 1456 0238 8DF81400 		strb	r0, [sp, #20]
 1457 023c C0F30723 		ubfx	r3, r0, #8, #8
 1458 0240 8DF81530 		strb	r3, [sp, #21]
 1459 0244 C0F30740 		ubfx	r0, r0, #16, #8
 1460 0248 8DF81600 		strb	r0, [sp, #22]
 100:../../Middlewares/LVGL/GUI/lvgl/src/core/lv_obj_draw.c ****             }
 1461              		.loc 1 100 17 is_stmt 1 view .LVU352
 100:../../Middlewares/LVGL/GUI/lvgl/src/core/lv_obj_draw.c ****             }
 1462              		.loc 1 100 42 is_stmt 0 view .LVU353
 1463 024c 059B     		ldr	r3, [sp, #20]
 1464 024e 2246     		mov	r2, r4
 1465 0250 2946     		mov	r1, r5
 1466 0252 3846     		mov	r0, r7
 1467 0254 FFF7FEFF 		bl	normal_apply_layer_recolor
 1468              	.LVL107:
 1469 0258 84F83E00 		strb	r0, [r4, #62]
 1470 025c C0F30723 		ubfx	r3, r0, #8, #8
 1471 0260 84F83F30 		strb	r3, [r4, #63]
 1472 0264 C0F30740 		ubfx	r0, r0, #16, #8
 1473 0268 84F84000 		strb	r0, [r4, #64]
 1474 026c E5E6     		b	.L46
 1475              	.L55:
 100:../../Middlewares/LVGL/GUI/lvgl/src/core/lv_obj_draw.c ****             }
 1476              		.loc 1 100 42 view .LVU354
 1477              	.LBE143:
 106:../../Middlewares/LVGL/GUI/lvgl/src/core/lv_obj_draw.c ****         if(draw_dsc->outline_width) {
 1478              		.loc 1 106 9 is_stmt 1 view .LVU355
 1479              	.LVL108:
 1480              	.LBB146:
ARM GAS  C:\Users\28576\AppData\Local\Temp\cclWIAwm.s 			page 51


 1481              	.LBI146:
 358:../../Middlewares/LVGL/GUI/lvgl/src/core/lv_obj_style_gen.h **** {
 1482              		.loc 2 358 23 view .LVU356
 1483              	.LBB147:
 360:../../Middlewares/LVGL/GUI/lvgl/src/core/lv_obj_style_gen.h ****     return (int32_t)v.num;
 1484              		.loc 2 360 5 view .LVU357
 360:../../Middlewares/LVGL/GUI/lvgl/src/core/lv_obj_style_gen.h ****     return (int32_t)v.num;
 1485              		.loc 2 360 26 is_stmt 0 view .LVU358
 1486 026e 3822     		movs	r2, #56
 1487 0270 2946     		mov	r1, r5
 1488 0272 3846     		mov	r0, r7
 1489 0274 FFF7FEFF 		bl	lv_obj_get_style_prop
 1490              	.LVL109:
 1491 0278 0590     		str	r0, [sp, #20]
 361:../../Middlewares/LVGL/GUI/lvgl/src/core/lv_obj_style_gen.h **** }
 1492              		.loc 2 361 5 is_stmt 1 view .LVU359
 1493              	.LVL110:
 361:../../Middlewares/LVGL/GUI/lvgl/src/core/lv_obj_style_gen.h **** }
 1494              		.loc 2 361 5 is_stmt 0 view .LVU360
 1495              	.LBE147:
 1496              	.LBE146:
 106:../../Middlewares/LVGL/GUI/lvgl/src/core/lv_obj_draw.c ****         if(draw_dsc->outline_width) {
 1497              		.loc 1 106 33 discriminator 1 view .LVU361
 1498 027a 2065     		str	r0, [r4, #80]
 107:../../Middlewares/LVGL/GUI/lvgl/src/core/lv_obj_draw.c ****             draw_dsc->outline_opa = lv_obj_get_style_outline_opa(obj, part);
 1499              		.loc 1 107 9 is_stmt 1 view .LVU362
 107:../../Middlewares/LVGL/GUI/lvgl/src/core/lv_obj_draw.c ****             draw_dsc->outline_opa = lv_obj_get_style_outline_opa(obj, part);
 1500              		.loc 1 107 11 is_stmt 0 view .LVU363
 1501 027c 0028     		cmp	r0, #0
 1502 027e 3FF4E1AE 		beq	.L47
 108:../../Middlewares/LVGL/GUI/lvgl/src/core/lv_obj_draw.c ****             if(draw_dsc->outline_opa > LV_OPA_MIN) {
 1503              		.loc 1 108 13 is_stmt 1 view .LVU364
 1504              	.LVL111:
 1505              	.LBB148:
 1506              	.LBI148:
 376:../../Middlewares/LVGL/GUI/lvgl/src/core/lv_obj_style_gen.h **** {
 1507              		.loc 2 376 24 view .LVU365
 1508              	.LBB149:
 378:../../Middlewares/LVGL/GUI/lvgl/src/core/lv_obj_style_gen.h ****     return (lv_opa_t)v.num;
 1509              		.loc 2 378 5 view .LVU366
 378:../../Middlewares/LVGL/GUI/lvgl/src/core/lv_obj_style_gen.h ****     return (lv_opa_t)v.num;
 1510              		.loc 2 378 26 is_stmt 0 view .LVU367
 1511 0282 3A22     		movs	r2, #58
 1512 0284 2946     		mov	r1, r5
 1513 0286 3846     		mov	r0, r7
 1514 0288 FFF7FEFF 		bl	lv_obj_get_style_prop
 1515              	.LVL112:
 1516 028c 0590     		str	r0, [sp, #20]
 379:../../Middlewares/LVGL/GUI/lvgl/src/core/lv_obj_style_gen.h **** }
 1517              		.loc 2 379 5 is_stmt 1 view .LVU368
 379:../../Middlewares/LVGL/GUI/lvgl/src/core/lv_obj_style_gen.h **** }
 1518              		.loc 2 379 12 is_stmt 0 view .LVU369
 1519 028e C0B2     		uxtb	r0, r0
 1520              	.LVL113:
 379:../../Middlewares/LVGL/GUI/lvgl/src/core/lv_obj_style_gen.h **** }
 1521              		.loc 2 379 12 view .LVU370
 1522              	.LBE149:
ARM GAS  C:\Users\28576\AppData\Local\Temp\cclWIAwm.s 			page 52


 1523              	.LBE148:
 108:../../Middlewares/LVGL/GUI/lvgl/src/core/lv_obj_draw.c ****             if(draw_dsc->outline_opa > LV_OPA_MIN) {
 1524              		.loc 1 108 35 discriminator 1 view .LVU371
 1525 0290 84F85800 		strb	r0, [r4, #88]
 109:../../Middlewares/LVGL/GUI/lvgl/src/core/lv_obj_draw.c ****                 draw_dsc->outline_pad = lv_obj_get_style_outline_pad(obj, part);
 1526              		.loc 1 109 13 is_stmt 1 view .LVU372
 109:../../Middlewares/LVGL/GUI/lvgl/src/core/lv_obj_draw.c ****                 draw_dsc->outline_pad = lv_obj_get_style_outline_pad(obj, part);
 1527              		.loc 1 109 15 is_stmt 0 view .LVU373
 1528 0294 0228     		cmp	r0, #2
 1529 0296 7FF6D5AE 		bls	.L47
 1530              	.LBB150:
 110:../../Middlewares/LVGL/GUI/lvgl/src/core/lv_obj_draw.c ****                 lv_color_t outline_color = lv_obj_get_style_outline_color_filtered(obj, part);
 1531              		.loc 1 110 17 is_stmt 1 view .LVU374
 1532              	.LVL114:
 1533              	.LBB151:
 1534              	.LBI151:
 382:../../Middlewares/LVGL/GUI/lvgl/src/core/lv_obj_style_gen.h **** {
 1535              		.loc 2 382 23 view .LVU375
 1536              	.LBB152:
 384:../../Middlewares/LVGL/GUI/lvgl/src/core/lv_obj_style_gen.h ****     return (int32_t)v.num;
 1537              		.loc 2 384 5 view .LVU376
 384:../../Middlewares/LVGL/GUI/lvgl/src/core/lv_obj_style_gen.h ****     return (int32_t)v.num;
 1538              		.loc 2 384 26 is_stmt 0 view .LVU377
 1539 029a 3B22     		movs	r2, #59
 1540 029c 2946     		mov	r1, r5
 1541 029e 3846     		mov	r0, r7
 1542 02a0 FFF7FEFF 		bl	lv_obj_get_style_prop
 1543              	.LVL115:
 1544 02a4 0590     		str	r0, [sp, #20]
 385:../../Middlewares/LVGL/GUI/lvgl/src/core/lv_obj_style_gen.h **** }
 1545              		.loc 2 385 5 is_stmt 1 view .LVU378
 1546              	.LVL116:
 385:../../Middlewares/LVGL/GUI/lvgl/src/core/lv_obj_style_gen.h **** }
 1547              		.loc 2 385 5 is_stmt 0 view .LVU379
 1548              	.LBE152:
 1549              	.LBE151:
 110:../../Middlewares/LVGL/GUI/lvgl/src/core/lv_obj_draw.c ****                 lv_color_t outline_color = lv_obj_get_style_outline_color_filtered(obj, part);
 1550              		.loc 1 110 39 discriminator 1 view .LVU380
 1551 02a6 6065     		str	r0, [r4, #84]
 111:../../Middlewares/LVGL/GUI/lvgl/src/core/lv_obj_draw.c ****                 draw_dsc->outline_color = normal_apply_layer_recolor(obj, part, &draw_dsc->base, ou
 1552              		.loc 1 111 17 is_stmt 1 view .LVU381
 111:../../Middlewares/LVGL/GUI/lvgl/src/core/lv_obj_draw.c ****                 draw_dsc->outline_color = normal_apply_layer_recolor(obj, part, &draw_dsc->base, ou
 1553              		.loc 1 111 44 is_stmt 0 view .LVU382
 1554 02a8 2946     		mov	r1, r5
 1555 02aa 3846     		mov	r0, r7
 1556 02ac FFF7FEFF 		bl	lv_obj_get_style_outline_color_filtered
 1557              	.LVL117:
 1558 02b0 8DF81400 		strb	r0, [sp, #20]
 1559 02b4 C0F30723 		ubfx	r3, r0, #8, #8
 1560 02b8 8DF81530 		strb	r3, [sp, #21]
 1561 02bc C0F30740 		ubfx	r0, r0, #16, #8
 1562 02c0 8DF81600 		strb	r0, [sp, #22]
 112:../../Middlewares/LVGL/GUI/lvgl/src/core/lv_obj_draw.c ****             }
 1563              		.loc 1 112 17 is_stmt 1 view .LVU383
 112:../../Middlewares/LVGL/GUI/lvgl/src/core/lv_obj_draw.c ****             }
 1564              		.loc 1 112 43 is_stmt 0 view .LVU384
 1565 02c4 059B     		ldr	r3, [sp, #20]
ARM GAS  C:\Users\28576\AppData\Local\Temp\cclWIAwm.s 			page 53


 1566 02c6 2246     		mov	r2, r4
 1567 02c8 2946     		mov	r1, r5
 1568 02ca 3846     		mov	r0, r7
 1569 02cc FFF7FEFF 		bl	normal_apply_layer_recolor
 1570              	.LVL118:
 1571 02d0 84F84A00 		strb	r0, [r4, #74]
 1572 02d4 C0F30723 		ubfx	r3, r0, #8, #8
 1573 02d8 84F84B30 		strb	r3, [r4, #75]
 1574 02dc C0F30740 		ubfx	r0, r0, #16, #8
 1575 02e0 84F84C00 		strb	r0, [r4, #76]
 1576 02e4 AEE6     		b	.L47
 1577              	.L56:
 112:../../Middlewares/LVGL/GUI/lvgl/src/core/lv_obj_draw.c ****             }
 1578              		.loc 1 112 43 view .LVU385
 1579              	.LBE150:
 118:../../Middlewares/LVGL/GUI/lvgl/src/core/lv_obj_draw.c ****         if(draw_dsc->bg_image_src) {
 1580              		.loc 1 118 9 is_stmt 1 view .LVU386
 1581              	.LVL119:
 1582              	.LBB153:
 1583              	.LBI153:
 286:../../Middlewares/LVGL/GUI/lvgl/src/core/lv_obj_style_gen.h **** {
 1584              		.loc 2 286 28 view .LVU387
 1585              	.LBB154:
 288:../../Middlewares/LVGL/GUI/lvgl/src/core/lv_obj_style_gen.h ****     return (const void *)v.ptr;
 1586              		.loc 2 288 5 view .LVU388
 288:../../Middlewares/LVGL/GUI/lvgl/src/core/lv_obj_style_gen.h ****     return (const void *)v.ptr;
 1587              		.loc 2 288 26 is_stmt 0 view .LVU389
 1588 02e6 2822     		movs	r2, #40
 1589 02e8 2946     		mov	r1, r5
 1590 02ea 3846     		mov	r0, r7
 1591 02ec FFF7FEFF 		bl	lv_obj_get_style_prop
 1592              	.LVL120:
 1593 02f0 0590     		str	r0, [sp, #20]
 289:../../Middlewares/LVGL/GUI/lvgl/src/core/lv_obj_style_gen.h **** }
 1594              		.loc 2 289 5 is_stmt 1 view .LVU390
 1595              	.LVL121:
 289:../../Middlewares/LVGL/GUI/lvgl/src/core/lv_obj_style_gen.h **** }
 1596              		.loc 2 289 5 is_stmt 0 view .LVU391
 1597              	.LBE154:
 1598              	.LBE153:
 118:../../Middlewares/LVGL/GUI/lvgl/src/core/lv_obj_draw.c ****         if(draw_dsc->bg_image_src) {
 1599              		.loc 1 118 32 discriminator 1 view .LVU392
 1600 02f2 2063     		str	r0, [r4, #48]
 119:../../Middlewares/LVGL/GUI/lvgl/src/core/lv_obj_draw.c ****             draw_dsc->bg_image_opa = lv_obj_get_style_bg_image_opa(obj, part);
 1601              		.loc 1 119 9 is_stmt 1 view .LVU393
 119:../../Middlewares/LVGL/GUI/lvgl/src/core/lv_obj_draw.c ****             draw_dsc->bg_image_opa = lv_obj_get_style_bg_image_opa(obj, part);
 1602              		.loc 1 119 11 is_stmt 0 view .LVU394
 1603 02f4 0028     		cmp	r0, #0
 1604 02f6 3FF4AAAE 		beq	.L48
 120:../../Middlewares/LVGL/GUI/lvgl/src/core/lv_obj_draw.c ****             if(draw_dsc->bg_image_opa > LV_OPA_MIN) {
 1605              		.loc 1 120 13 is_stmt 1 view .LVU395
 1606              	.LVL122:
 1607              	.LBB155:
 1608              	.LBI155:
 292:../../Middlewares/LVGL/GUI/lvgl/src/core/lv_obj_style_gen.h **** {
 1609              		.loc 2 292 24 view .LVU396
 1610              	.LBB156:
ARM GAS  C:\Users\28576\AppData\Local\Temp\cclWIAwm.s 			page 54


 294:../../Middlewares/LVGL/GUI/lvgl/src/core/lv_obj_style_gen.h ****     return (lv_opa_t)v.num;
 1611              		.loc 2 294 5 view .LVU397
 294:../../Middlewares/LVGL/GUI/lvgl/src/core/lv_obj_style_gen.h ****     return (lv_opa_t)v.num;
 1612              		.loc 2 294 26 is_stmt 0 view .LVU398
 1613 02fa 2922     		movs	r2, #41
 1614 02fc 2946     		mov	r1, r5
 1615 02fe 3846     		mov	r0, r7
 1616 0300 FFF7FEFF 		bl	lv_obj_get_style_prop
 1617              	.LVL123:
 1618 0304 0590     		str	r0, [sp, #20]
 295:../../Middlewares/LVGL/GUI/lvgl/src/core/lv_obj_style_gen.h **** }
 1619              		.loc 2 295 5 is_stmt 1 view .LVU399
 295:../../Middlewares/LVGL/GUI/lvgl/src/core/lv_obj_style_gen.h **** }
 1620              		.loc 2 295 12 is_stmt 0 view .LVU400
 1621 0306 C0B2     		uxtb	r0, r0
 1622              	.LVL124:
 295:../../Middlewares/LVGL/GUI/lvgl/src/core/lv_obj_style_gen.h **** }
 1623              		.loc 2 295 12 view .LVU401
 1624              	.LBE156:
 1625              	.LBE155:
 120:../../Middlewares/LVGL/GUI/lvgl/src/core/lv_obj_draw.c ****             if(draw_dsc->bg_image_opa > LV_OPA_MIN) {
 1626              		.loc 1 120 36 discriminator 1 view .LVU402
 1627 0308 84F83B00 		strb	r0, [r4, #59]
 121:../../Middlewares/LVGL/GUI/lvgl/src/core/lv_obj_draw.c ****                 if(lv_image_src_get_type(draw_dsc->bg_image_src) == LV_IMAGE_SRC_SYMBOL) {
 1628              		.loc 1 121 13 is_stmt 1 view .LVU403
 121:../../Middlewares/LVGL/GUI/lvgl/src/core/lv_obj_draw.c ****                 if(lv_image_src_get_type(draw_dsc->bg_image_src) == LV_IMAGE_SRC_SYMBOL) {
 1629              		.loc 1 121 15 is_stmt 0 view .LVU404
 1630 030c 0228     		cmp	r0, #2
 1631 030e 7FF69EAE 		bls	.L48
 122:../../Middlewares/LVGL/GUI/lvgl/src/core/lv_obj_draw.c ****                     draw_dsc->bg_image_symbol_font = lv_obj_get_style_text_font(obj, part);
 1632              		.loc 1 122 17 is_stmt 1 view .LVU405
 122:../../Middlewares/LVGL/GUI/lvgl/src/core/lv_obj_draw.c ****                     draw_dsc->bg_image_symbol_font = lv_obj_get_style_text_font(obj, part);
 1633              		.loc 1 122 20 is_stmt 0 view .LVU406
 1634 0312 206B     		ldr	r0, [r4, #48]
 1635 0314 FFF7FEFF 		bl	lv_image_src_get_type
 1636              	.LVL125:
 122:../../Middlewares/LVGL/GUI/lvgl/src/core/lv_obj_draw.c ****                     draw_dsc->bg_image_symbol_font = lv_obj_get_style_text_font(obj, part);
 1637              		.loc 1 122 19 discriminator 1 view .LVU407
 1638 0318 0228     		cmp	r0, #2
 1639 031a 3ED0     		beq	.L59
 1640              	.LBB157:
 128:../../Middlewares/LVGL/GUI/lvgl/src/core/lv_obj_draw.c ****                     lv_opa_t bg_image_recolor_opa = lv_obj_get_style_bg_image_recolor_opa(obj, part
 1641              		.loc 1 128 21 is_stmt 1 view .LVU408
 128:../../Middlewares/LVGL/GUI/lvgl/src/core/lv_obj_draw.c ****                     lv_opa_t bg_image_recolor_opa = lv_obj_get_style_bg_image_recolor_opa(obj, part
 1642              		.loc 1 128 51 is_stmt 0 view .LVU409
 1643 031c 2946     		mov	r1, r5
 1644 031e 3846     		mov	r0, r7
 1645 0320 FFF7FEFF 		bl	lv_obj_get_style_bg_image_recolor_filtered
 1646              	.LVL126:
 1647 0324 8DF80C00 		strb	r0, [sp, #12]
 1648 0328 C0F30723 		ubfx	r3, r0, #8, #8
 1649 032c 8DF80D30 		strb	r3, [sp, #13]
 1650 0330 C0F30740 		ubfx	r0, r0, #16, #8
 1651 0334 8DF80E00 		strb	r0, [sp, #14]
 129:../../Middlewares/LVGL/GUI/lvgl/src/core/lv_obj_draw.c ****                     lv_color32_t result = image_apply_layer_recolor(obj, part, &draw_dsc->base, bg_
 1652              		.loc 1 129 21 is_stmt 1 view .LVU410
 1653              	.LVL127:
ARM GAS  C:\Users\28576\AppData\Local\Temp\cclWIAwm.s 			page 55


 1654              	.LBB158:
 1655              	.LBI158:
 310:../../Middlewares/LVGL/GUI/lvgl/src/core/lv_obj_style_gen.h **** {
 1656              		.loc 2 310 24 view .LVU411
 1657              	.LBB159:
 312:../../Middlewares/LVGL/GUI/lvgl/src/core/lv_obj_style_gen.h ****     return (lv_opa_t)v.num;
 1658              		.loc 2 312 5 view .LVU412
 312:../../Middlewares/LVGL/GUI/lvgl/src/core/lv_obj_style_gen.h ****     return (lv_opa_t)v.num;
 1659              		.loc 2 312 26 is_stmt 0 view .LVU413
 1660 0338 2B22     		movs	r2, #43
 1661 033a 2946     		mov	r1, r5
 1662 033c 3846     		mov	r0, r7
 1663 033e FFF7FEFF 		bl	lv_obj_get_style_prop
 1664              	.LVL128:
 1665 0342 0590     		str	r0, [sp, #20]
 313:../../Middlewares/LVGL/GUI/lvgl/src/core/lv_obj_style_gen.h **** }
 1666              		.loc 2 313 5 is_stmt 1 view .LVU414
 313:../../Middlewares/LVGL/GUI/lvgl/src/core/lv_obj_style_gen.h **** }
 1667              		.loc 2 313 12 is_stmt 0 view .LVU415
 1668 0344 C0B2     		uxtb	r0, r0
 1669              	.LVL129:
 313:../../Middlewares/LVGL/GUI/lvgl/src/core/lv_obj_style_gen.h **** }
 1670              		.loc 2 313 12 view .LVU416
 1671              	.LBE159:
 1672              	.LBE158:
 130:../../Middlewares/LVGL/GUI/lvgl/src/core/lv_obj_draw.c ****                     draw_dsc->bg_image_recolor_opa = result.alpha;
 1673              		.loc 1 130 21 is_stmt 1 view .LVU417
 130:../../Middlewares/LVGL/GUI/lvgl/src/core/lv_obj_draw.c ****                     draw_dsc->bg_image_recolor_opa = result.alpha;
 1674              		.loc 1 130 43 is_stmt 0 view .LVU418
 1675 0346 0090     		str	r0, [sp]
 1676 0348 039B     		ldr	r3, [sp, #12]
 1677 034a 2246     		mov	r2, r4
 1678 034c 2946     		mov	r1, r5
 1679 034e 3846     		mov	r0, r7
 1680              	.LVL130:
 130:../../Middlewares/LVGL/GUI/lvgl/src/core/lv_obj_draw.c ****                     draw_dsc->bg_image_recolor_opa = result.alpha;
 1681              		.loc 1 130 43 view .LVU419
 1682 0350 FFF7FEFF 		bl	image_apply_layer_recolor
 1683              	.LVL131:
 130:../../Middlewares/LVGL/GUI/lvgl/src/core/lv_obj_draw.c ****                     draw_dsc->bg_image_recolor_opa = result.alpha;
 1684              		.loc 1 130 43 view .LVU420
 1685 0354 0490     		str	r0, [sp, #16]
 131:../../Middlewares/LVGL/GUI/lvgl/src/core/lv_obj_draw.c ****                     draw_dsc->bg_image_recolor = lv_color_make(result.red, result.green, result.blu
 1686              		.loc 1 131 21 is_stmt 1 view .LVU421
 131:../../Middlewares/LVGL/GUI/lvgl/src/core/lv_obj_draw.c ****                     draw_dsc->bg_image_recolor = lv_color_make(result.red, result.green, result.blu
 1687              		.loc 1 131 60 is_stmt 0 view .LVU422
 1688 0356 9DF81330 		ldrb	r3, [sp, #19]	@ zero_extendqisi2
 131:../../Middlewares/LVGL/GUI/lvgl/src/core/lv_obj_draw.c ****                     draw_dsc->bg_image_recolor = lv_color_make(result.red, result.green, result.blu
 1689              		.loc 1 131 52 view .LVU423
 1690 035a 84F83C30 		strb	r3, [r4, #60]
 132:../../Middlewares/LVGL/GUI/lvgl/src/core/lv_obj_draw.c ****                     draw_dsc->bg_image_tiled = lv_obj_get_style_bg_image_tiled(obj, part);
 1691              		.loc 1 132 21 is_stmt 1 view .LVU424
 132:../../Middlewares/LVGL/GUI/lvgl/src/core/lv_obj_draw.c ****                     draw_dsc->bg_image_tiled = lv_obj_get_style_bg_image_tiled(obj, part);
 1692              		.loc 1 132 50 is_stmt 0 view .LVU425
 1693 035e 9DF81020 		ldrb	r2, [sp, #16]	@ zero_extendqisi2
 1694 0362 9DF81110 		ldrb	r1, [sp, #17]	@ zero_extendqisi2
 1695 0366 9DF81200 		ldrb	r0, [sp, #18]	@ zero_extendqisi2
ARM GAS  C:\Users\28576\AppData\Local\Temp\cclWIAwm.s 			page 56


 1696 036a FFF7FEFF 		bl	lv_color_make
 1697              	.LVL132:
 1698 036e 84F83800 		strb	r0, [r4, #56]
 1699 0372 C0F30723 		ubfx	r3, r0, #8, #8
 1700 0376 84F83930 		strb	r3, [r4, #57]
 1701 037a C0F30740 		ubfx	r0, r0, #16, #8
 1702 037e 84F83A00 		strb	r0, [r4, #58]
 133:../../Middlewares/LVGL/GUI/lvgl/src/core/lv_obj_draw.c ****                 }
 1703              		.loc 1 133 21 is_stmt 1 view .LVU426
 1704              	.LVL133:
 1705              	.LBB160:
 1706              	.LBI160:
 316:../../Middlewares/LVGL/GUI/lvgl/src/core/lv_obj_style_gen.h **** {
 1707              		.loc 2 316 20 view .LVU427
 1708              	.LBB161:
 318:../../Middlewares/LVGL/GUI/lvgl/src/core/lv_obj_style_gen.h ****     return (bool)v.num;
 1709              		.loc 2 318 5 view .LVU428
 318:../../Middlewares/LVGL/GUI/lvgl/src/core/lv_obj_style_gen.h ****     return (bool)v.num;
 1710              		.loc 2 318 26 is_stmt 0 view .LVU429
 1711 0382 2C22     		movs	r2, #44
 1712 0384 2946     		mov	r1, r5
 1713 0386 3846     		mov	r0, r7
 1714 0388 FFF7FEFF 		bl	lv_obj_get_style_prop
 1715              	.LVL134:
 1716 038c 0590     		str	r0, [sp, #20]
 319:../../Middlewares/LVGL/GUI/lvgl/src/core/lv_obj_style_gen.h **** }
 1717              		.loc 2 319 5 is_stmt 1 view .LVU430
 319:../../Middlewares/LVGL/GUI/lvgl/src/core/lv_obj_style_gen.h **** }
 1718              		.loc 2 319 12 is_stmt 0 view .LVU431
 1719 038e 0038     		subs	r0, r0, #0
 1720 0390 18BF     		it	ne
 1721 0392 0120     		movne	r0, #1
 1722              	.LVL135:
 319:../../Middlewares/LVGL/GUI/lvgl/src/core/lv_obj_style_gen.h **** }
 1723              		.loc 2 319 12 view .LVU432
 1724              	.LBE161:
 1725              	.LBE160:
 133:../../Middlewares/LVGL/GUI/lvgl/src/core/lv_obj_draw.c ****                 }
 1726              		.loc 1 133 46 discriminator 1 view .LVU433
 1727 0394 84F83D00 		strb	r0, [r4, #61]
 1728 0398 59E6     		b	.L48
 1729              	.LVL136:
 1730              	.L59:
 133:../../Middlewares/LVGL/GUI/lvgl/src/core/lv_obj_draw.c ****                 }
 1731              		.loc 1 133 46 discriminator 1 view .LVU434
 1732              	.LBE157:
 1733              	.LBB162:
 123:../../Middlewares/LVGL/GUI/lvgl/src/core/lv_obj_draw.c ****                     lv_color_t text_color = lv_obj_get_style_text_color_filtered(obj, part);
 1734              		.loc 1 123 21 is_stmt 1 view .LVU435
 1735              	.LBB163:
 1736              	.LBI163:
 550:../../Middlewares/LVGL/GUI/lvgl/src/core/lv_obj_style_gen.h **** {
 1737              		.loc 2 550 33 view .LVU436
 1738              	.LBB164:
 552:../../Middlewares/LVGL/GUI/lvgl/src/core/lv_obj_style_gen.h ****     return (const lv_font_t *)v.ptr;
 1739              		.loc 2 552 5 view .LVU437
 552:../../Middlewares/LVGL/GUI/lvgl/src/core/lv_obj_style_gen.h ****     return (const lv_font_t *)v.ptr;
ARM GAS  C:\Users\28576\AppData\Local\Temp\cclWIAwm.s 			page 57


 1740              		.loc 2 552 26 is_stmt 0 view .LVU438
 1741 039a 5A22     		movs	r2, #90
 1742 039c 2946     		mov	r1, r5
 1743 039e 3846     		mov	r0, r7
 1744 03a0 FFF7FEFF 		bl	lv_obj_get_style_prop
 1745              	.LVL137:
 1746 03a4 0590     		str	r0, [sp, #20]
 553:../../Middlewares/LVGL/GUI/lvgl/src/core/lv_obj_style_gen.h **** }
 1747              		.loc 2 553 5 is_stmt 1 view .LVU439
 1748              	.LVL138:
 553:../../Middlewares/LVGL/GUI/lvgl/src/core/lv_obj_style_gen.h **** }
 1749              		.loc 2 553 5 is_stmt 0 view .LVU440
 1750              	.LBE164:
 1751              	.LBE163:
 123:../../Middlewares/LVGL/GUI/lvgl/src/core/lv_obj_draw.c ****                     lv_color_t text_color = lv_obj_get_style_text_color_filtered(obj, part);
 1752              		.loc 1 123 52 discriminator 1 view .LVU441
 1753 03a6 6063     		str	r0, [r4, #52]
 124:../../Middlewares/LVGL/GUI/lvgl/src/core/lv_obj_draw.c ****                     draw_dsc->bg_image_recolor = normal_apply_layer_recolor(obj, part, &draw_dsc->b
 1754              		.loc 1 124 21 is_stmt 1 view .LVU442
 124:../../Middlewares/LVGL/GUI/lvgl/src/core/lv_obj_draw.c ****                     draw_dsc->bg_image_recolor = normal_apply_layer_recolor(obj, part, &draw_dsc->b
 1755              		.loc 1 124 45 is_stmt 0 view .LVU443
 1756 03a8 2946     		mov	r1, r5
 1757 03aa 3846     		mov	r0, r7
 1758 03ac FFF7FEFF 		bl	lv_obj_get_style_text_color_filtered
 1759              	.LVL139:
 1760 03b0 8DF81400 		strb	r0, [sp, #20]
 1761 03b4 C0F30723 		ubfx	r3, r0, #8, #8
 1762 03b8 8DF81530 		strb	r3, [sp, #21]
 1763 03bc C0F30740 		ubfx	r0, r0, #16, #8
 1764 03c0 8DF81600 		strb	r0, [sp, #22]
 125:../../Middlewares/LVGL/GUI/lvgl/src/core/lv_obj_draw.c ****                 }
 1765              		.loc 1 125 21 is_stmt 1 view .LVU444
 125:../../Middlewares/LVGL/GUI/lvgl/src/core/lv_obj_draw.c ****                 }
 1766              		.loc 1 125 50 is_stmt 0 view .LVU445
 1767 03c4 059B     		ldr	r3, [sp, #20]
 1768 03c6 2246     		mov	r2, r4
 1769 03c8 2946     		mov	r1, r5
 1770 03ca 3846     		mov	r0, r7
 1771 03cc FFF7FEFF 		bl	normal_apply_layer_recolor
 1772              	.LVL140:
 1773 03d0 84F83800 		strb	r0, [r4, #56]
 1774 03d4 C0F30723 		ubfx	r3, r0, #8, #8
 1775 03d8 84F83930 		strb	r3, [r4, #57]
 1776 03dc C0F30740 		ubfx	r0, r0, #16, #8
 1777 03e0 84F83A00 		strb	r0, [r4, #58]
 1778              	.LBE162:
 1779 03e4 33E6     		b	.L48
 1780              	.L57:
 140:../../Middlewares/LVGL/GUI/lvgl/src/core/lv_obj_draw.c ****         if(draw_dsc->shadow_width) {
 1781              		.loc 1 140 9 is_stmt 1 view .LVU446
 1782              	.LVL141:
 1783              	.LBB165:
 1784              	.LBI165:
 388:../../Middlewares/LVGL/GUI/lvgl/src/core/lv_obj_style_gen.h **** {
 1785              		.loc 2 388 23 view .LVU447
 1786              	.LBB166:
 390:../../Middlewares/LVGL/GUI/lvgl/src/core/lv_obj_style_gen.h ****     return (int32_t)v.num;
ARM GAS  C:\Users\28576\AppData\Local\Temp\cclWIAwm.s 			page 58


 1787              		.loc 2 390 5 view .LVU448
 390:../../Middlewares/LVGL/GUI/lvgl/src/core/lv_obj_style_gen.h ****     return (int32_t)v.num;
 1788              		.loc 2 390 26 is_stmt 0 view .LVU449
 1789 03e6 3C22     		movs	r2, #60
 1790 03e8 2946     		mov	r1, r5
 1791 03ea 3846     		mov	r0, r7
 1792 03ec FFF7FEFF 		bl	lv_obj_get_style_prop
 1793              	.LVL142:
 1794 03f0 0590     		str	r0, [sp, #20]
 391:../../Middlewares/LVGL/GUI/lvgl/src/core/lv_obj_style_gen.h **** }
 1795              		.loc 2 391 5 is_stmt 1 view .LVU450
 1796              	.LVL143:
 391:../../Middlewares/LVGL/GUI/lvgl/src/core/lv_obj_style_gen.h **** }
 1797              		.loc 2 391 5 is_stmt 0 view .LVU451
 1798              	.LBE166:
 1799              	.LBE165:
 140:../../Middlewares/LVGL/GUI/lvgl/src/core/lv_obj_draw.c ****         if(draw_dsc->shadow_width) {
 1800              		.loc 1 140 32 discriminator 1 view .LVU452
 1801 03f2 E065     		str	r0, [r4, #92]
 141:../../Middlewares/LVGL/GUI/lvgl/src/core/lv_obj_draw.c ****             if(draw_dsc->shadow_opa > LV_OPA_MIN) {
 1802              		.loc 1 141 9 is_stmt 1 view .LVU453
 141:../../Middlewares/LVGL/GUI/lvgl/src/core/lv_obj_draw.c ****             if(draw_dsc->shadow_opa > LV_OPA_MIN) {
 1803              		.loc 1 141 11 is_stmt 0 view .LVU454
 1804 03f4 0028     		cmp	r0, #0
 1805 03f6 3FF42FAE 		beq	.L50
 142:../../Middlewares/LVGL/GUI/lvgl/src/core/lv_obj_draw.c ****                 draw_dsc->shadow_opa = lv_obj_get_style_shadow_opa(obj, part);
 1806              		.loc 1 142 13 is_stmt 1 view .LVU455
 142:../../Middlewares/LVGL/GUI/lvgl/src/core/lv_obj_draw.c ****                 draw_dsc->shadow_opa = lv_obj_get_style_shadow_opa(obj, part);
 1807              		.loc 1 142 24 is_stmt 0 view .LVU456
 1808 03fa 94F86C30 		ldrb	r3, [r4, #108]	@ zero_extendqisi2
 142:../../Middlewares/LVGL/GUI/lvgl/src/core/lv_obj_draw.c ****                 draw_dsc->shadow_opa = lv_obj_get_style_shadow_opa(obj, part);
 1809              		.loc 1 142 15 view .LVU457
 1810 03fe 022B     		cmp	r3, #2
 1811 0400 7FF62AAE 		bls	.L50
 143:../../Middlewares/LVGL/GUI/lvgl/src/core/lv_obj_draw.c ****                 if(draw_dsc->shadow_opa > LV_OPA_MIN) {
 1812              		.loc 1 143 17 is_stmt 1 view .LVU458
 1813              	.LVL144:
 1814              	.LBB167:
 1815              	.LBI167:
 424:../../Middlewares/LVGL/GUI/lvgl/src/core/lv_obj_style_gen.h **** {
 1816              		.loc 2 424 24 view .LVU459
 1817              	.LBB168:
 426:../../Middlewares/LVGL/GUI/lvgl/src/core/lv_obj_style_gen.h ****     return (lv_opa_t)v.num;
 1818              		.loc 2 426 5 view .LVU460
 426:../../Middlewares/LVGL/GUI/lvgl/src/core/lv_obj_style_gen.h ****     return (lv_opa_t)v.num;
 1819              		.loc 2 426 26 is_stmt 0 view .LVU461
 1820 0404 3E22     		movs	r2, #62
 1821 0406 2946     		mov	r1, r5
 1822 0408 3846     		mov	r0, r7
 1823 040a FFF7FEFF 		bl	lv_obj_get_style_prop
 1824              	.LVL145:
 1825 040e 0590     		str	r0, [sp, #20]
 427:../../Middlewares/LVGL/GUI/lvgl/src/core/lv_obj_style_gen.h **** }
 1826              		.loc 2 427 5 is_stmt 1 view .LVU462
 427:../../Middlewares/LVGL/GUI/lvgl/src/core/lv_obj_style_gen.h **** }
 1827              		.loc 2 427 12 is_stmt 0 view .LVU463
 1828 0410 C3B2     		uxtb	r3, r0
ARM GAS  C:\Users\28576\AppData\Local\Temp\cclWIAwm.s 			page 59


 1829              	.LVL146:
 427:../../Middlewares/LVGL/GUI/lvgl/src/core/lv_obj_style_gen.h **** }
 1830              		.loc 2 427 12 view .LVU464
 1831              	.LBE168:
 1832              	.LBE167:
 143:../../Middlewares/LVGL/GUI/lvgl/src/core/lv_obj_draw.c ****                 if(draw_dsc->shadow_opa > LV_OPA_MIN) {
 1833              		.loc 1 143 38 discriminator 1 view .LVU465
 1834 0412 84F86C30 		strb	r3, [r4, #108]
 144:../../Middlewares/LVGL/GUI/lvgl/src/core/lv_obj_draw.c ****                     draw_dsc->shadow_offset_x = lv_obj_get_style_shadow_offset_x(obj, part);
 1835              		.loc 1 144 17 is_stmt 1 view .LVU466
 144:../../Middlewares/LVGL/GUI/lvgl/src/core/lv_obj_draw.c ****                     draw_dsc->shadow_offset_x = lv_obj_get_style_shadow_offset_x(obj, part);
 1836              		.loc 1 144 19 is_stmt 0 view .LVU467
 1837 0416 022B     		cmp	r3, #2
 1838 0418 7FF61EAE 		bls	.L50
 1839              	.LBB169:
 145:../../Middlewares/LVGL/GUI/lvgl/src/core/lv_obj_draw.c ****                     draw_dsc->shadow_offset_y = lv_obj_get_style_shadow_offset_y(obj, part);
 1840              		.loc 1 145 21 is_stmt 1 view .LVU468
 1841              	.LVL147:
 1842              	.LBB170:
 1843              	.LBI170:
 394:../../Middlewares/LVGL/GUI/lvgl/src/core/lv_obj_style_gen.h **** {
 1844              		.loc 2 394 23 view .LVU469
 1845              	.LBB171:
 396:../../Middlewares/LVGL/GUI/lvgl/src/core/lv_obj_style_gen.h ****     return (int32_t)v.num;
 1846              		.loc 2 396 5 view .LVU470
 396:../../Middlewares/LVGL/GUI/lvgl/src/core/lv_obj_style_gen.h ****     return (int32_t)v.num;
 1847              		.loc 2 396 26 is_stmt 0 view .LVU471
 1848 041c 4022     		movs	r2, #64
 1849 041e 2946     		mov	r1, r5
 1850 0420 3846     		mov	r0, r7
 1851 0422 FFF7FEFF 		bl	lv_obj_get_style_prop
 1852              	.LVL148:
 1853 0426 0590     		str	r0, [sp, #20]
 397:../../Middlewares/LVGL/GUI/lvgl/src/core/lv_obj_style_gen.h **** }
 1854              		.loc 2 397 5 is_stmt 1 view .LVU472
 1855              	.LVL149:
 397:../../Middlewares/LVGL/GUI/lvgl/src/core/lv_obj_style_gen.h **** }
 1856              		.loc 2 397 5 is_stmt 0 view .LVU473
 1857              	.LBE171:
 1858              	.LBE170:
 145:../../Middlewares/LVGL/GUI/lvgl/src/core/lv_obj_draw.c ****                     draw_dsc->shadow_offset_y = lv_obj_get_style_shadow_offset_y(obj, part);
 1859              		.loc 1 145 47 discriminator 1 view .LVU474
 1860 0428 2066     		str	r0, [r4, #96]
 146:../../Middlewares/LVGL/GUI/lvgl/src/core/lv_obj_draw.c ****                     draw_dsc->shadow_spread = lv_obj_get_style_shadow_spread(obj, part);
 1861              		.loc 1 146 21 is_stmt 1 view .LVU475
 1862              	.LVL150:
 1863              	.LBB172:
 1864              	.LBI172:
 400:../../Middlewares/LVGL/GUI/lvgl/src/core/lv_obj_style_gen.h **** {
 1865              		.loc 2 400 23 view .LVU476
 1866              	.LBB173:
 402:../../Middlewares/LVGL/GUI/lvgl/src/core/lv_obj_style_gen.h ****     return (int32_t)v.num;
 1867              		.loc 2 402 5 view .LVU477
 402:../../Middlewares/LVGL/GUI/lvgl/src/core/lv_obj_style_gen.h ****     return (int32_t)v.num;
 1868              		.loc 2 402 26 is_stmt 0 view .LVU478
 1869 042a 4122     		movs	r2, #65
 1870 042c 2946     		mov	r1, r5
ARM GAS  C:\Users\28576\AppData\Local\Temp\cclWIAwm.s 			page 60


 1871 042e 3846     		mov	r0, r7
 1872 0430 FFF7FEFF 		bl	lv_obj_get_style_prop
 1873              	.LVL151:
 1874 0434 0590     		str	r0, [sp, #20]
 403:../../Middlewares/LVGL/GUI/lvgl/src/core/lv_obj_style_gen.h **** }
 1875              		.loc 2 403 5 is_stmt 1 view .LVU479
 1876              	.LVL152:
 403:../../Middlewares/LVGL/GUI/lvgl/src/core/lv_obj_style_gen.h **** }
 1877              		.loc 2 403 5 is_stmt 0 view .LVU480
 1878              	.LBE173:
 1879              	.LBE172:
 146:../../Middlewares/LVGL/GUI/lvgl/src/core/lv_obj_draw.c ****                     draw_dsc->shadow_spread = lv_obj_get_style_shadow_spread(obj, part);
 1880              		.loc 1 146 47 discriminator 1 view .LVU481
 1881 0436 6066     		str	r0, [r4, #100]
 147:../../Middlewares/LVGL/GUI/lvgl/src/core/lv_obj_draw.c ****                     lv_color_t shadow_color = lv_obj_get_style_shadow_color_filtered(obj, part);
 1882              		.loc 1 147 21 is_stmt 1 view .LVU482
 1883              	.LVL153:
 1884              	.LBB174:
 1885              	.LBI174:
 406:../../Middlewares/LVGL/GUI/lvgl/src/core/lv_obj_style_gen.h **** {
 1886              		.loc 2 406 23 view .LVU483
 1887              	.LBB175:
 408:../../Middlewares/LVGL/GUI/lvgl/src/core/lv_obj_style_gen.h ****     return (int32_t)v.num;
 1888              		.loc 2 408 5 view .LVU484
 408:../../Middlewares/LVGL/GUI/lvgl/src/core/lv_obj_style_gen.h ****     return (int32_t)v.num;
 1889              		.loc 2 408 26 is_stmt 0 view .LVU485
 1890 0438 4222     		movs	r2, #66
 1891 043a 2946     		mov	r1, r5
 1892 043c 3846     		mov	r0, r7
 1893 043e FFF7FEFF 		bl	lv_obj_get_style_prop
 1894              	.LVL154:
 1895 0442 0590     		str	r0, [sp, #20]
 409:../../Middlewares/LVGL/GUI/lvgl/src/core/lv_obj_style_gen.h **** }
 1896              		.loc 2 409 5 is_stmt 1 view .LVU486
 1897              	.LVL155:
 409:../../Middlewares/LVGL/GUI/lvgl/src/core/lv_obj_style_gen.h **** }
 1898              		.loc 2 409 5 is_stmt 0 view .LVU487
 1899              	.LBE175:
 1900              	.LBE174:
 147:../../Middlewares/LVGL/GUI/lvgl/src/core/lv_obj_draw.c ****                     lv_color_t shadow_color = lv_obj_get_style_shadow_color_filtered(obj, part);
 1901              		.loc 1 147 45 discriminator 1 view .LVU488
 1902 0444 A066     		str	r0, [r4, #104]
 148:../../Middlewares/LVGL/GUI/lvgl/src/core/lv_obj_draw.c ****                     draw_dsc->shadow_color = normal_apply_layer_recolor(obj, part, &draw_dsc->base,
 1903              		.loc 1 148 21 is_stmt 1 view .LVU489
 148:../../Middlewares/LVGL/GUI/lvgl/src/core/lv_obj_draw.c ****                     draw_dsc->shadow_color = normal_apply_layer_recolor(obj, part, &draw_dsc->base,
 1904              		.loc 1 148 47 is_stmt 0 view .LVU490
 1905 0446 2946     		mov	r1, r5
 1906 0448 3846     		mov	r0, r7
 1907 044a FFF7FEFF 		bl	lv_obj_get_style_shadow_color_filtered
 1908              	.LVL156:
 1909 044e 8DF81400 		strb	r0, [sp, #20]
 1910 0452 C0F30723 		ubfx	r3, r0, #8, #8
 1911 0456 8DF81530 		strb	r3, [sp, #21]
 1912 045a C0F30740 		ubfx	r0, r0, #16, #8
 1913 045e 8DF81600 		strb	r0, [sp, #22]
 149:../../Middlewares/LVGL/GUI/lvgl/src/core/lv_obj_draw.c ****                 }
 1914              		.loc 1 149 21 is_stmt 1 view .LVU491
ARM GAS  C:\Users\28576\AppData\Local\Temp\cclWIAwm.s 			page 61


 149:../../Middlewares/LVGL/GUI/lvgl/src/core/lv_obj_draw.c ****                 }
 1915              		.loc 1 149 46 is_stmt 0 view .LVU492
 1916 0462 059B     		ldr	r3, [sp, #20]
 1917 0464 2246     		mov	r2, r4
 1918 0466 2946     		mov	r1, r5
 1919 0468 3846     		mov	r0, r7
 1920 046a FFF7FEFF 		bl	normal_apply_layer_recolor
 1921              	.LVL157:
 1922 046e 84F85900 		strb	r0, [r4, #89]
 1923 0472 C0F30723 		ubfx	r3, r0, #8, #8
 1924 0476 84F85A30 		strb	r3, [r4, #90]
 1925 047a C0F30740 		ubfx	r0, r0, #16, #8
 1926 047e 84F85B00 		strb	r0, [r4, #91]
 1927 0482 E9E5     		b	.L50
 1928              	.LBE169:
 1929              		.cfi_endproc
 1930              	.LFE172:
 1932              		.section	.text.lv_obj_init_draw_label_dsc,"ax",%progbits
 1933              		.align	1
 1934              		.global	lv_obj_init_draw_label_dsc
 1935              		.syntax unified
 1936              		.thumb
 1937              		.thumb_func
 1939              	lv_obj_init_draw_label_dsc:
 1940              	.LVL158:
 1941              	.LFB173:
 167:../../Middlewares/LVGL/GUI/lvgl/src/core/lv_obj_draw.c ****     LV_PROFILER_DRAW_BEGIN;
 1942              		.loc 1 167 1 is_stmt 1 view -0
 1943              		.cfi_startproc
 1944              		@ args = 0, pretend = 0, frame = 8
 1945              		@ frame_needed = 0, uses_anonymous_args = 0
 167:../../Middlewares/LVGL/GUI/lvgl/src/core/lv_obj_draw.c ****     LV_PROFILER_DRAW_BEGIN;
 1946              		.loc 1 167 1 is_stmt 0 view .LVU494
 1947 0000 70B5     		push	{r4, r5, r6, lr}
 1948              	.LCFI46:
 1949              		.cfi_def_cfa_offset 16
 1950              		.cfi_offset 4, -16
 1951              		.cfi_offset 5, -12
 1952              		.cfi_offset 6, -8
 1953              		.cfi_offset 14, -4
 1954 0002 82B0     		sub	sp, sp, #8
 1955              	.LCFI47:
 1956              		.cfi_def_cfa_offset 24
 1957 0004 0546     		mov	r5, r0
 1958 0006 0E46     		mov	r6, r1
 1959 0008 1446     		mov	r4, r2
 168:../../Middlewares/LVGL/GUI/lvgl/src/core/lv_obj_draw.c ****     draw_dsc->base.obj = obj;
 1960              		.loc 1 168 27 is_stmt 1 view .LVU495
 169:../../Middlewares/LVGL/GUI/lvgl/src/core/lv_obj_draw.c ****     draw_dsc->base.part = part;
 1961              		.loc 1 169 5 view .LVU496
 169:../../Middlewares/LVGL/GUI/lvgl/src/core/lv_obj_draw.c ****     draw_dsc->base.part = part;
 1962              		.loc 1 169 24 is_stmt 0 view .LVU497
 1963 000a 1060     		str	r0, [r2]
 170:../../Middlewares/LVGL/GUI/lvgl/src/core/lv_obj_draw.c **** 
 1964              		.loc 1 170 5 is_stmt 1 view .LVU498
 170:../../Middlewares/LVGL/GUI/lvgl/src/core/lv_obj_draw.c **** 
 1965              		.loc 1 170 25 is_stmt 0 view .LVU499
ARM GAS  C:\Users\28576\AppData\Local\Temp\cclWIAwm.s 			page 62


 1966 000c 5160     		str	r1, [r2, #4]
 172:../../Middlewares/LVGL/GUI/lvgl/src/core/lv_obj_draw.c ****     if(draw_dsc->opa <= LV_OPA_MIN) {
 1967              		.loc 1 172 5 is_stmt 1 view .LVU500
 1968              	.LVL159:
 1969              	.LBB176:
 1970              	.LBI176:
 544:../../Middlewares/LVGL/GUI/lvgl/src/core/lv_obj_style_gen.h **** {
 1971              		.loc 2 544 24 view .LVU501
 1972              	.LBB177:
 546:../../Middlewares/LVGL/GUI/lvgl/src/core/lv_obj_style_gen.h ****     return (lv_opa_t)v.num;
 1973              		.loc 2 546 5 view .LVU502
 546:../../Middlewares/LVGL/GUI/lvgl/src/core/lv_obj_style_gen.h ****     return (lv_opa_t)v.num;
 1974              		.loc 2 546 26 is_stmt 0 view .LVU503
 1975 000e 5922     		movs	r2, #89
 1976              	.LVL160:
 546:../../Middlewares/LVGL/GUI/lvgl/src/core/lv_obj_style_gen.h ****     return (lv_opa_t)v.num;
 1977              		.loc 2 546 26 view .LVU504
 1978 0010 FFF7FEFF 		bl	lv_obj_get_style_prop
 1979              	.LVL161:
 546:../../Middlewares/LVGL/GUI/lvgl/src/core/lv_obj_style_gen.h ****     return (lv_opa_t)v.num;
 1980              		.loc 2 546 26 view .LVU505
 1981 0014 0090     		str	r0, [sp]
 547:../../Middlewares/LVGL/GUI/lvgl/src/core/lv_obj_style_gen.h **** }
 1982              		.loc 2 547 5 is_stmt 1 view .LVU506
 547:../../Middlewares/LVGL/GUI/lvgl/src/core/lv_obj_style_gen.h **** }
 1983              		.loc 2 547 12 is_stmt 0 view .LVU507
 1984 0016 C3B2     		uxtb	r3, r0
 1985              	.LVL162:
 547:../../Middlewares/LVGL/GUI/lvgl/src/core/lv_obj_style_gen.h **** }
 1986              		.loc 2 547 12 view .LVU508
 1987              	.LBE177:
 1988              	.LBE176:
 172:../../Middlewares/LVGL/GUI/lvgl/src/core/lv_obj_draw.c ****     if(draw_dsc->opa <= LV_OPA_MIN) {
 1989              		.loc 1 172 19 discriminator 1 view .LVU509
 1990 0018 84F85830 		strb	r3, [r4, #88]
 173:../../Middlewares/LVGL/GUI/lvgl/src/core/lv_obj_draw.c ****         LV_PROFILER_DRAW_END;
 1991              		.loc 1 173 5 is_stmt 1 view .LVU510
 173:../../Middlewares/LVGL/GUI/lvgl/src/core/lv_obj_draw.c ****         LV_PROFILER_DRAW_END;
 1992              		.loc 1 173 7 is_stmt 0 view .LVU511
 1993 001c 022B     		cmp	r3, #2
 1994 001e 01D8     		bhi	.L65
 1995              	.L60:
 202:../../Middlewares/LVGL/GUI/lvgl/src/core/lv_obj_draw.c **** 
 1996              		.loc 1 202 1 view .LVU512
 1997 0020 02B0     		add	sp, sp, #8
 1998              	.LCFI48:
 1999              		.cfi_remember_state
 2000              		.cfi_def_cfa_offset 16
 2001              		@ sp needed
 2002 0022 70BD     		pop	{r4, r5, r6, pc}
 2003              	.LVL163:
 2004              	.L65:
 2005              	.LCFI49:
 2006              		.cfi_restore_state
 178:../../Middlewares/LVGL/GUI/lvgl/src/core/lv_obj_draw.c ****     if(opa < LV_OPA_MAX) {
 2007              		.loc 1 178 5 is_stmt 1 view .LVU513
 178:../../Middlewares/LVGL/GUI/lvgl/src/core/lv_obj_draw.c ****     if(opa < LV_OPA_MAX) {
ARM GAS  C:\Users\28576\AppData\Local\Temp\cclWIAwm.s 			page 63


 2008              		.loc 1 178 20 is_stmt 0 view .LVU514
 2009 0024 2246     		mov	r2, r4
 2010 0026 3146     		mov	r1, r6
 2011 0028 2846     		mov	r0, r5
 2012 002a FFF7FEFF 		bl	get_layer_opa
 2013              	.LVL164:
 179:../../Middlewares/LVGL/GUI/lvgl/src/core/lv_obj_draw.c ****         draw_dsc->opa = LV_OPA_MIX2(draw_dsc->opa, opa);
 2014              		.loc 1 179 5 is_stmt 1 view .LVU515
 179:../../Middlewares/LVGL/GUI/lvgl/src/core/lv_obj_draw.c ****         draw_dsc->opa = LV_OPA_MIX2(draw_dsc->opa, opa);
 2015              		.loc 1 179 7 is_stmt 0 view .LVU516
 2016 002e FC28     		cmp	r0, #252
 2017 0030 07D8     		bhi	.L62
 180:../../Middlewares/LVGL/GUI/lvgl/src/core/lv_obj_draw.c ****     }
 2018              		.loc 1 180 9 is_stmt 1 view .LVU517
 180:../../Middlewares/LVGL/GUI/lvgl/src/core/lv_obj_draw.c ****     }
 2019              		.loc 1 180 25 is_stmt 0 view .LVU518
 2020 0032 94F85830 		ldrb	r3, [r4, #88]	@ zero_extendqisi2
 2021 0036 03FB00F0 		mul	r0, r3, r0
 2022              	.LVL165:
 180:../../Middlewares/LVGL/GUI/lvgl/src/core/lv_obj_draw.c ****     }
 2023              		.loc 1 180 25 view .LVU519
 2024 003a C0F30720 		ubfx	r0, r0, #8, #8
 180:../../Middlewares/LVGL/GUI/lvgl/src/core/lv_obj_draw.c ****     }
 2025              		.loc 1 180 23 view .LVU520
 2026 003e 84F85800 		strb	r0, [r4, #88]
 2027              	.L62:
 182:../../Middlewares/LVGL/GUI/lvgl/src/core/lv_obj_draw.c ****         LV_PROFILER_DRAW_END;
 2028              		.loc 1 182 5 is_stmt 1 view .LVU521
 182:../../Middlewares/LVGL/GUI/lvgl/src/core/lv_obj_draw.c ****         LV_PROFILER_DRAW_END;
 2029              		.loc 1 182 16 is_stmt 0 view .LVU522
 2030 0042 94F85830 		ldrb	r3, [r4, #88]	@ zero_extendqisi2
 182:../../Middlewares/LVGL/GUI/lvgl/src/core/lv_obj_draw.c ****         LV_PROFILER_DRAW_END;
 2031              		.loc 1 182 7 view .LVU523
 2032 0046 022B     		cmp	r3, #2
 2033 0048 EAD9     		bls	.L60
 187:../../Middlewares/LVGL/GUI/lvgl/src/core/lv_obj_draw.c ****     draw_dsc->color = normal_apply_layer_recolor(obj, part, &draw_dsc->base, text_color);
 2034              		.loc 1 187 5 is_stmt 1 view .LVU524
 187:../../Middlewares/LVGL/GUI/lvgl/src/core/lv_obj_draw.c ****     draw_dsc->color = normal_apply_layer_recolor(obj, part, &draw_dsc->base, text_color);
 2035              		.loc 1 187 29 is_stmt 0 view .LVU525
 2036 004a 3146     		mov	r1, r6
 2037 004c 2846     		mov	r0, r5
 2038 004e FFF7FEFF 		bl	lv_obj_get_style_text_color_filtered
 2039              	.LVL166:
 2040 0052 8DF80400 		strb	r0, [sp, #4]
 2041 0056 C0F30723 		ubfx	r3, r0, #8, #8
 2042 005a 8DF80530 		strb	r3, [sp, #5]
 2043 005e C0F30740 		ubfx	r0, r0, #16, #8
 2044 0062 8DF80600 		strb	r0, [sp, #6]
 188:../../Middlewares/LVGL/GUI/lvgl/src/core/lv_obj_draw.c ****     draw_dsc->letter_space = lv_obj_get_style_text_letter_space(obj, part);
 2045              		.loc 1 188 5 is_stmt 1 view .LVU526
 188:../../Middlewares/LVGL/GUI/lvgl/src/core/lv_obj_draw.c ****     draw_dsc->letter_space = lv_obj_get_style_text_letter_space(obj, part);
 2046              		.loc 1 188 23 is_stmt 0 view .LVU527
 2047 0066 019B     		ldr	r3, [sp, #4]
 2048 0068 2246     		mov	r2, r4
 2049 006a 3146     		mov	r1, r6
 2050 006c 2846     		mov	r0, r5
 2051 006e FFF7FEFF 		bl	normal_apply_layer_recolor
ARM GAS  C:\Users\28576\AppData\Local\Temp\cclWIAwm.s 			page 64


 2052              	.LVL167:
 2053 0072 84F82C00 		strb	r0, [r4, #44]
 2054 0076 C0F30723 		ubfx	r3, r0, #8, #8
 2055 007a 84F82D30 		strb	r3, [r4, #45]
 2056 007e C0F30740 		ubfx	r0, r0, #16, #8
 2057 0082 84F82E00 		strb	r0, [r4, #46]
 189:../../Middlewares/LVGL/GUI/lvgl/src/core/lv_obj_draw.c ****     draw_dsc->line_space = lv_obj_get_style_text_line_space(obj, part);
 2058              		.loc 1 189 5 is_stmt 1 view .LVU528
 2059              	.LVL168:
 2060              	.LBB178:
 2061              	.LBI178:
 556:../../Middlewares/LVGL/GUI/lvgl/src/core/lv_obj_style_gen.h **** {
 2062              		.loc 2 556 23 view .LVU529
 2063              	.LBB179:
 558:../../Middlewares/LVGL/GUI/lvgl/src/core/lv_obj_style_gen.h ****     return (int32_t)v.num;
 2064              		.loc 2 558 5 view .LVU530
 558:../../Middlewares/LVGL/GUI/lvgl/src/core/lv_obj_style_gen.h ****     return (int32_t)v.num;
 2065              		.loc 2 558 26 is_stmt 0 view .LVU531
 2066 0086 5B22     		movs	r2, #91
 2067 0088 3146     		mov	r1, r6
 2068 008a 2846     		mov	r0, r5
 2069 008c FFF7FEFF 		bl	lv_obj_get_style_prop
 2070              	.LVL169:
 2071 0090 0090     		str	r0, [sp]
 559:../../Middlewares/LVGL/GUI/lvgl/src/core/lv_obj_style_gen.h **** }
 2072              		.loc 2 559 5 is_stmt 1 view .LVU532
 2073              	.LVL170:
 559:../../Middlewares/LVGL/GUI/lvgl/src/core/lv_obj_style_gen.h **** }
 2074              		.loc 2 559 5 is_stmt 0 view .LVU533
 2075              	.LBE179:
 2076              	.LBE178:
 189:../../Middlewares/LVGL/GUI/lvgl/src/core/lv_obj_draw.c ****     draw_dsc->line_space = lv_obj_get_style_text_line_space(obj, part);
 2077              		.loc 1 189 28 discriminator 1 view .LVU534
 2078 0092 6063     		str	r0, [r4, #52]
 190:../../Middlewares/LVGL/GUI/lvgl/src/core/lv_obj_draw.c ****     draw_dsc->decor = lv_obj_get_style_text_decor(obj, part);
 2079              		.loc 1 190 5 is_stmt 1 view .LVU535
 2080              	.LVL171:
 2081              	.LBB180:
 2082              	.LBI180:
 562:../../Middlewares/LVGL/GUI/lvgl/src/core/lv_obj_style_gen.h **** {
 2083              		.loc 2 562 23 view .LVU536
 2084              	.LBB181:
 564:../../Middlewares/LVGL/GUI/lvgl/src/core/lv_obj_style_gen.h ****     return (int32_t)v.num;
 2085              		.loc 2 564 5 view .LVU537
 564:../../Middlewares/LVGL/GUI/lvgl/src/core/lv_obj_style_gen.h ****     return (int32_t)v.num;
 2086              		.loc 2 564 26 is_stmt 0 view .LVU538
 2087 0094 5C22     		movs	r2, #92
 2088 0096 3146     		mov	r1, r6
 2089 0098 2846     		mov	r0, r5
 2090 009a FFF7FEFF 		bl	lv_obj_get_style_prop
 2091              	.LVL172:
 2092 009e 0090     		str	r0, [sp]
 565:../../Middlewares/LVGL/GUI/lvgl/src/core/lv_obj_style_gen.h **** }
 2093              		.loc 2 565 5 is_stmt 1 view .LVU539
 2094              	.LVL173:
 565:../../Middlewares/LVGL/GUI/lvgl/src/core/lv_obj_style_gen.h **** }
 2095              		.loc 2 565 5 is_stmt 0 view .LVU540
ARM GAS  C:\Users\28576\AppData\Local\Temp\cclWIAwm.s 			page 65


 2096              	.LBE181:
 2097              	.LBE180:
 190:../../Middlewares/LVGL/GUI/lvgl/src/core/lv_obj_draw.c ****     draw_dsc->decor = lv_obj_get_style_text_decor(obj, part);
 2098              		.loc 1 190 26 discriminator 1 view .LVU541
 2099 00a0 2063     		str	r0, [r4, #48]
 191:../../Middlewares/LVGL/GUI/lvgl/src/core/lv_obj_draw.c **** 
 2100              		.loc 1 191 5 is_stmt 1 view .LVU542
 2101              	.LVL174:
 2102              	.LBB182:
 2103              	.LBI182:
 568:../../Middlewares/LVGL/GUI/lvgl/src/core/lv_obj_style_gen.h **** {
 2104              		.loc 2 568 31 view .LVU543
 2105              	.LBB183:
 570:../../Middlewares/LVGL/GUI/lvgl/src/core/lv_obj_style_gen.h ****     return (lv_text_decor_t)v.num;
 2106              		.loc 2 570 5 view .LVU544
 570:../../Middlewares/LVGL/GUI/lvgl/src/core/lv_obj_style_gen.h ****     return (lv_text_decor_t)v.num;
 2107              		.loc 2 570 26 is_stmt 0 view .LVU545
 2108 00a2 5D22     		movs	r2, #93
 2109 00a4 3146     		mov	r1, r6
 2110 00a6 2846     		mov	r0, r5
 2111 00a8 FFF7FEFF 		bl	lv_obj_get_style_prop
 2112              	.LVL175:
 2113 00ac 0090     		str	r0, [sp]
 571:../../Middlewares/LVGL/GUI/lvgl/src/core/lv_obj_style_gen.h **** }
 2114              		.loc 2 571 5 is_stmt 1 view .LVU546
 2115              	.LVL176:
 571:../../Middlewares/LVGL/GUI/lvgl/src/core/lv_obj_style_gen.h **** }
 2116              		.loc 2 571 5 is_stmt 0 view .LVU547
 2117              	.LBE183:
 2118              	.LBE182:
 191:../../Middlewares/LVGL/GUI/lvgl/src/core/lv_obj_draw.c **** 
 2119              		.loc 1 191 21 discriminator 1 view .LVU548
 2120 00ae 94F85B30 		ldrb	r3, [r4, #91]	@ zero_extendqisi2
 2121 00b2 60F30203 		bfi	r3, r0, #0, #3
 2122 00b6 84F85B30 		strb	r3, [r4, #91]
 193:../../Middlewares/LVGL/GUI/lvgl/src/core/lv_obj_draw.c **** 
 2123              		.loc 1 193 5 is_stmt 1 view .LVU549
 2124              	.LVL177:
 2125              	.LBB184:
 2126              	.LBI184:
 550:../../Middlewares/LVGL/GUI/lvgl/src/core/lv_obj_style_gen.h **** {
 2127              		.loc 2 550 33 view .LVU550
 2128              	.LBB185:
 552:../../Middlewares/LVGL/GUI/lvgl/src/core/lv_obj_style_gen.h ****     return (const lv_font_t *)v.ptr;
 2129              		.loc 2 552 5 view .LVU551
 552:../../Middlewares/LVGL/GUI/lvgl/src/core/lv_obj_style_gen.h ****     return (const lv_font_t *)v.ptr;
 2130              		.loc 2 552 26 is_stmt 0 view .LVU552
 2131 00ba 5A22     		movs	r2, #90
 2132 00bc 3146     		mov	r1, r6
 2133 00be 2846     		mov	r0, r5
 2134 00c0 FFF7FEFF 		bl	lv_obj_get_style_prop
 2135              	.LVL178:
 2136 00c4 0090     		str	r0, [sp]
 553:../../Middlewares/LVGL/GUI/lvgl/src/core/lv_obj_style_gen.h **** }
 2137              		.loc 2 553 5 is_stmt 1 view .LVU553
 2138              	.LVL179:
 553:../../Middlewares/LVGL/GUI/lvgl/src/core/lv_obj_style_gen.h **** }
ARM GAS  C:\Users\28576\AppData\Local\Temp\cclWIAwm.s 			page 66


 2139              		.loc 2 553 5 is_stmt 0 view .LVU554
 2140              	.LBE185:
 2141              	.LBE184:
 193:../../Middlewares/LVGL/GUI/lvgl/src/core/lv_obj_draw.c **** 
 2142              		.loc 1 193 20 discriminator 1 view .LVU555
 2143 00c6 A062     		str	r0, [r4, #40]
 199:../../Middlewares/LVGL/GUI/lvgl/src/core/lv_obj_draw.c **** 
 2144              		.loc 1 199 5 is_stmt 1 view .LVU556
 2145              	.LVL180:
 2146              	.LBB186:
 2147              	.LBI186:
 574:../../Middlewares/LVGL/GUI/lvgl/src/core/lv_obj_style_gen.h **** {
 2148              		.loc 2 574 31 view .LVU557
 2149              	.LBB187:
 576:../../Middlewares/LVGL/GUI/lvgl/src/core/lv_obj_style_gen.h ****     return (lv_text_align_t)v.num;
 2150              		.loc 2 576 5 view .LVU558
 576:../../Middlewares/LVGL/GUI/lvgl/src/core/lv_obj_style_gen.h ****     return (lv_text_align_t)v.num;
 2151              		.loc 2 576 26 is_stmt 0 view .LVU559
 2152 00c8 5E22     		movs	r2, #94
 2153 00ca 3146     		mov	r1, r6
 2154 00cc 2846     		mov	r0, r5
 2155 00ce FFF7FEFF 		bl	lv_obj_get_style_prop
 2156              	.LVL181:
 2157 00d2 0090     		str	r0, [sp]
 577:../../Middlewares/LVGL/GUI/lvgl/src/core/lv_obj_style_gen.h **** }
 2158              		.loc 2 577 5 is_stmt 1 view .LVU560
 2159              	.LVL182:
 577:../../Middlewares/LVGL/GUI/lvgl/src/core/lv_obj_style_gen.h **** }
 2160              		.loc 2 577 5 is_stmt 0 view .LVU561
 2161              	.LBE187:
 2162              	.LBE186:
 199:../../Middlewares/LVGL/GUI/lvgl/src/core/lv_obj_draw.c **** 
 2163              		.loc 1 199 21 discriminator 1 view .LVU562
 2164 00d4 84F85900 		strb	r0, [r4, #89]
 201:../../Middlewares/LVGL/GUI/lvgl/src/core/lv_obj_draw.c **** }
 2165              		.loc 1 201 25 is_stmt 1 view .LVU563
 2166 00d8 A2E7     		b	.L60
 2167              		.cfi_endproc
 2168              	.LFE173:
 2170              		.section	.text.lv_obj_init_draw_image_dsc,"ax",%progbits
 2171              		.align	1
 2172              		.global	lv_obj_init_draw_image_dsc
 2173              		.syntax unified
 2174              		.thumb
 2175              		.thumb_func
 2177              	lv_obj_init_draw_image_dsc:
 2178              	.LVL183:
 2179              	.LFB174:
 205:../../Middlewares/LVGL/GUI/lvgl/src/core/lv_obj_draw.c ****     LV_PROFILER_DRAW_BEGIN;
 2180              		.loc 1 205 1 view -0
 2181              		.cfi_startproc
 2182              		@ args = 0, pretend = 0, frame = 16
 2183              		@ frame_needed = 0, uses_anonymous_args = 0
 205:../../Middlewares/LVGL/GUI/lvgl/src/core/lv_obj_draw.c ****     LV_PROFILER_DRAW_BEGIN;
 2184              		.loc 1 205 1 is_stmt 0 view .LVU565
 2185 0000 F0B5     		push	{r4, r5, r6, r7, lr}
 2186              	.LCFI50:
ARM GAS  C:\Users\28576\AppData\Local\Temp\cclWIAwm.s 			page 67


 2187              		.cfi_def_cfa_offset 20
 2188              		.cfi_offset 4, -20
 2189              		.cfi_offset 5, -16
 2190              		.cfi_offset 6, -12
 2191              		.cfi_offset 7, -8
 2192              		.cfi_offset 14, -4
 2193 0002 87B0     		sub	sp, sp, #28
 2194              	.LCFI51:
 2195              		.cfi_def_cfa_offset 48
 2196 0004 0546     		mov	r5, r0
 2197 0006 0E46     		mov	r6, r1
 2198 0008 1446     		mov	r4, r2
 206:../../Middlewares/LVGL/GUI/lvgl/src/core/lv_obj_draw.c ****     draw_dsc->base.obj = obj;
 2199              		.loc 1 206 27 is_stmt 1 view .LVU566
 207:../../Middlewares/LVGL/GUI/lvgl/src/core/lv_obj_draw.c ****     draw_dsc->base.part = part;
 2200              		.loc 1 207 5 view .LVU567
 207:../../Middlewares/LVGL/GUI/lvgl/src/core/lv_obj_draw.c ****     draw_dsc->base.part = part;
 2201              		.loc 1 207 24 is_stmt 0 view .LVU568
 2202 000a 1060     		str	r0, [r2]
 208:../../Middlewares/LVGL/GUI/lvgl/src/core/lv_obj_draw.c **** 
 2203              		.loc 1 208 5 is_stmt 1 view .LVU569
 208:../../Middlewares/LVGL/GUI/lvgl/src/core/lv_obj_draw.c **** 
 2204              		.loc 1 208 25 is_stmt 0 view .LVU570
 2205 000c 5160     		str	r1, [r2, #4]
 210:../../Middlewares/LVGL/GUI/lvgl/src/core/lv_obj_draw.c ****     if(draw_dsc->opa <= LV_OPA_MIN) {
 2206              		.loc 1 210 5 is_stmt 1 view .LVU571
 2207              	.LVL184:
 2208              	.LBB188:
 2209              	.LBI188:
 430:../../Middlewares/LVGL/GUI/lvgl/src/core/lv_obj_style_gen.h **** {
 2210              		.loc 2 430 24 view .LVU572
 2211              	.LBB189:
 432:../../Middlewares/LVGL/GUI/lvgl/src/core/lv_obj_style_gen.h ****     return (lv_opa_t)v.num;
 2212              		.loc 2 432 5 view .LVU573
 432:../../Middlewares/LVGL/GUI/lvgl/src/core/lv_obj_style_gen.h ****     return (lv_opa_t)v.num;
 2213              		.loc 2 432 26 is_stmt 0 view .LVU574
 2214 000e 4422     		movs	r2, #68
 2215              	.LVL185:
 432:../../Middlewares/LVGL/GUI/lvgl/src/core/lv_obj_style_gen.h ****     return (lv_opa_t)v.num;
 2216              		.loc 2 432 26 view .LVU575
 2217 0010 FFF7FEFF 		bl	lv_obj_get_style_prop
 2218              	.LVL186:
 432:../../Middlewares/LVGL/GUI/lvgl/src/core/lv_obj_style_gen.h ****     return (lv_opa_t)v.num;
 2219              		.loc 2 432 26 view .LVU576
 2220 0014 0390     		str	r0, [sp, #12]
 433:../../Middlewares/LVGL/GUI/lvgl/src/core/lv_obj_style_gen.h **** }
 2221              		.loc 2 433 5 is_stmt 1 view .LVU577
 433:../../Middlewares/LVGL/GUI/lvgl/src/core/lv_obj_style_gen.h **** }
 2222              		.loc 2 433 12 is_stmt 0 view .LVU578
 2223 0016 C3B2     		uxtb	r3, r0
 2224              	.LVL187:
 433:../../Middlewares/LVGL/GUI/lvgl/src/core/lv_obj_style_gen.h **** }
 2225              		.loc 2 433 12 view .LVU579
 2226              	.LBE189:
 2227              	.LBE188:
 210:../../Middlewares/LVGL/GUI/lvgl/src/core/lv_obj_draw.c ****     if(draw_dsc->opa <= LV_OPA_MIN) {
 2228              		.loc 1 210 19 discriminator 1 view .LVU580
ARM GAS  C:\Users\28576\AppData\Local\Temp\cclWIAwm.s 			page 68


 2229 0018 84F85030 		strb	r3, [r4, #80]
 211:../../Middlewares/LVGL/GUI/lvgl/src/core/lv_obj_draw.c ****         LV_PROFILER_DRAW_END;
 2230              		.loc 1 211 5 is_stmt 1 view .LVU581
 211:../../Middlewares/LVGL/GUI/lvgl/src/core/lv_obj_draw.c ****         LV_PROFILER_DRAW_END;
 2231              		.loc 1 211 7 is_stmt 0 view .LVU582
 2232 001c 022B     		cmp	r3, #2
 2233 001e 01D8     		bhi	.L74
 2234              	.L66:
 240:../../Middlewares/LVGL/GUI/lvgl/src/core/lv_obj_draw.c **** 
 2235              		.loc 1 240 1 view .LVU583
 2236 0020 07B0     		add	sp, sp, #28
 2237              	.LCFI52:
 2238              		.cfi_remember_state
 2239              		.cfi_def_cfa_offset 20
 2240              		@ sp needed
 2241 0022 F0BD     		pop	{r4, r5, r6, r7, pc}
 2242              	.LVL188:
 2243              	.L74:
 2244              	.LCFI53:
 2245              		.cfi_restore_state
 216:../../Middlewares/LVGL/GUI/lvgl/src/core/lv_obj_draw.c ****     if(opa < LV_OPA_MAX) {
 2246              		.loc 1 216 5 is_stmt 1 view .LVU584
 216:../../Middlewares/LVGL/GUI/lvgl/src/core/lv_obj_draw.c ****     if(opa < LV_OPA_MAX) {
 2247              		.loc 1 216 20 is_stmt 0 view .LVU585
 2248 0024 2246     		mov	r2, r4
 2249 0026 3146     		mov	r1, r6
 2250 0028 2846     		mov	r0, r5
 2251 002a FFF7FEFF 		bl	get_layer_opa
 2252              	.LVL189:
 217:../../Middlewares/LVGL/GUI/lvgl/src/core/lv_obj_draw.c ****         draw_dsc->opa = LV_OPA_MIX2(draw_dsc->opa, opa);
 2253              		.loc 1 217 5 is_stmt 1 view .LVU586
 217:../../Middlewares/LVGL/GUI/lvgl/src/core/lv_obj_draw.c ****         draw_dsc->opa = LV_OPA_MIX2(draw_dsc->opa, opa);
 2254              		.loc 1 217 7 is_stmt 0 view .LVU587
 2255 002e FC28     		cmp	r0, #252
 2256 0030 07D8     		bhi	.L68
 218:../../Middlewares/LVGL/GUI/lvgl/src/core/lv_obj_draw.c ****     }
 2257              		.loc 1 218 9 is_stmt 1 view .LVU588
 218:../../Middlewares/LVGL/GUI/lvgl/src/core/lv_obj_draw.c ****     }
 2258              		.loc 1 218 25 is_stmt 0 view .LVU589
 2259 0032 94F85030 		ldrb	r3, [r4, #80]	@ zero_extendqisi2
 2260 0036 03FB00F0 		mul	r0, r3, r0
 2261              	.LVL190:
 218:../../Middlewares/LVGL/GUI/lvgl/src/core/lv_obj_draw.c ****     }
 2262              		.loc 1 218 25 view .LVU590
 2263 003a C0F30720 		ubfx	r0, r0, #8, #8
 218:../../Middlewares/LVGL/GUI/lvgl/src/core/lv_obj_draw.c ****     }
 2264              		.loc 1 218 23 view .LVU591
 2265 003e 84F85000 		strb	r0, [r4, #80]
 2266              	.L68:
 220:../../Middlewares/LVGL/GUI/lvgl/src/core/lv_obj_draw.c ****         LV_PROFILER_DRAW_END;
 2267              		.loc 1 220 5 is_stmt 1 view .LVU592
 220:../../Middlewares/LVGL/GUI/lvgl/src/core/lv_obj_draw.c ****         LV_PROFILER_DRAW_END;
 2268              		.loc 1 220 16 is_stmt 0 view .LVU593
 2269 0042 94F85030 		ldrb	r3, [r4, #80]	@ zero_extendqisi2
 220:../../Middlewares/LVGL/GUI/lvgl/src/core/lv_obj_draw.c ****         LV_PROFILER_DRAW_END;
 2270              		.loc 1 220 7 view .LVU594
 2271 0046 022B     		cmp	r3, #2
ARM GAS  C:\Users\28576\AppData\Local\Temp\cclWIAwm.s 			page 69


 2272 0048 EAD9     		bls	.L66
 225:../../Middlewares/LVGL/GUI/lvgl/src/core/lv_obj_draw.c ****     draw_dsc->scale_x = LV_SCALE_NONE;
 2273              		.loc 1 225 5 is_stmt 1 view .LVU595
 225:../../Middlewares/LVGL/GUI/lvgl/src/core/lv_obj_draw.c ****     draw_dsc->scale_x = LV_SCALE_NONE;
 2274              		.loc 1 225 24 is_stmt 0 view .LVU596
 2275 004a 0023     		movs	r3, #0
 2276 004c 2363     		str	r3, [r4, #48]
 226:../../Middlewares/LVGL/GUI/lvgl/src/core/lv_obj_draw.c ****     draw_dsc->scale_y = LV_SCALE_NONE;
 2277              		.loc 1 226 5 is_stmt 1 view .LVU597
 226:../../Middlewares/LVGL/GUI/lvgl/src/core/lv_obj_draw.c ****     draw_dsc->scale_y = LV_SCALE_NONE;
 2278              		.loc 1 226 23 is_stmt 0 view .LVU598
 2279 004e 4FF48073 		mov	r3, #256
 2280 0052 6363     		str	r3, [r4, #52]
 227:../../Middlewares/LVGL/GUI/lvgl/src/core/lv_obj_draw.c ****     draw_dsc->pivot.x = lv_area_get_width(&obj->coords) / 2;
 2281              		.loc 1 227 5 is_stmt 1 view .LVU599
 227:../../Middlewares/LVGL/GUI/lvgl/src/core/lv_obj_draw.c ****     draw_dsc->pivot.x = lv_area_get_width(&obj->coords) / 2;
 2282              		.loc 1 227 23 is_stmt 0 view .LVU600
 2283 0054 A363     		str	r3, [r4, #56]
 228:../../Middlewares/LVGL/GUI/lvgl/src/core/lv_obj_draw.c ****     draw_dsc->pivot.y = lv_area_get_height(&obj->coords) / 2;
 2284              		.loc 1 228 5 is_stmt 1 view .LVU601
 228:../../Middlewares/LVGL/GUI/lvgl/src/core/lv_obj_draw.c ****     draw_dsc->pivot.y = lv_area_get_height(&obj->coords) / 2;
 2285              		.loc 1 228 43 is_stmt 0 view .LVU602
 2286 0056 05F11403 		add	r3, r5, #20
 2287 005a 1F46     		mov	r7, r3
 228:../../Middlewares/LVGL/GUI/lvgl/src/core/lv_obj_draw.c ****     draw_dsc->pivot.y = lv_area_get_height(&obj->coords) / 2;
 2288              		.loc 1 228 25 view .LVU603
 2289 005c 1846     		mov	r0, r3
 2290 005e FFF7FEFF 		bl	lv_area_get_width
 2291              	.LVL191:
 228:../../Middlewares/LVGL/GUI/lvgl/src/core/lv_obj_draw.c ****     draw_dsc->pivot.y = lv_area_get_height(&obj->coords) / 2;
 2292              		.loc 1 228 57 discriminator 1 view .LVU604
 2293 0062 0028     		cmp	r0, #0
 2294 0064 4ADB     		blt	.L75
 2295              	.L69:
 2296 0066 4010     		asrs	r0, r0, #1
 228:../../Middlewares/LVGL/GUI/lvgl/src/core/lv_obj_draw.c ****     draw_dsc->pivot.y = lv_area_get_height(&obj->coords) / 2;
 2297              		.loc 1 228 23 discriminator 1 view .LVU605
 2298 0068 6064     		str	r0, [r4, #68]
 229:../../Middlewares/LVGL/GUI/lvgl/src/core/lv_obj_draw.c **** 
 2299              		.loc 1 229 5 is_stmt 1 view .LVU606
 229:../../Middlewares/LVGL/GUI/lvgl/src/core/lv_obj_draw.c **** 
 2300              		.loc 1 229 25 is_stmt 0 view .LVU607
 2301 006a 3846     		mov	r0, r7
 2302 006c FFF7FEFF 		bl	lv_area_get_height
 2303              	.LVL192:
 229:../../Middlewares/LVGL/GUI/lvgl/src/core/lv_obj_draw.c **** 
 2304              		.loc 1 229 58 discriminator 1 view .LVU608
 2305 0070 0028     		cmp	r0, #0
 2306 0072 45DB     		blt	.L76
 2307              	.L70:
 2308 0074 4010     		asrs	r0, r0, #1
 229:../../Middlewares/LVGL/GUI/lvgl/src/core/lv_obj_draw.c **** 
 2309              		.loc 1 229 23 discriminator 1 view .LVU609
 2310 0076 A064     		str	r0, [r4, #72]
 231:../../Middlewares/LVGL/GUI/lvgl/src/core/lv_obj_draw.c ****     lv_opa_t recolor_opa = lv_obj_get_style_image_recolor_opa(obj, part);
 2311              		.loc 1 231 5 is_stmt 1 view .LVU610
 231:../../Middlewares/LVGL/GUI/lvgl/src/core/lv_obj_draw.c ****     lv_opa_t recolor_opa = lv_obj_get_style_image_recolor_opa(obj, part);
ARM GAS  C:\Users\28576\AppData\Local\Temp\cclWIAwm.s 			page 70


 2312              		.loc 1 231 26 is_stmt 0 view .LVU611
 2313 0078 3146     		mov	r1, r6
 2314 007a 2846     		mov	r0, r5
 2315 007c FFF7FEFF 		bl	lv_obj_get_style_image_recolor_filtered
 2316              	.LVL193:
 2317 0080 8DF81400 		strb	r0, [sp, #20]
 2318 0084 C0F30723 		ubfx	r3, r0, #8, #8
 2319 0088 8DF81530 		strb	r3, [sp, #21]
 2320 008c C0F30740 		ubfx	r0, r0, #16, #8
 2321 0090 8DF81600 		strb	r0, [sp, #22]
 232:../../Middlewares/LVGL/GUI/lvgl/src/core/lv_obj_draw.c ****     lv_color32_t result = image_apply_layer_recolor(obj, part, &draw_dsc->base, recolor, recolor_op
 2322              		.loc 1 232 5 is_stmt 1 view .LVU612
 2323              	.LVL194:
 2324              	.LBB190:
 2325              	.LBI190:
 448:../../Middlewares/LVGL/GUI/lvgl/src/core/lv_obj_style_gen.h **** {
 2326              		.loc 2 448 24 view .LVU613
 2327              	.LBB191:
 450:../../Middlewares/LVGL/GUI/lvgl/src/core/lv_obj_style_gen.h ****     return (lv_opa_t)v.num;
 2328              		.loc 2 450 5 view .LVU614
 450:../../Middlewares/LVGL/GUI/lvgl/src/core/lv_obj_style_gen.h ****     return (lv_opa_t)v.num;
 2329              		.loc 2 450 26 is_stmt 0 view .LVU615
 2330 0094 4622     		movs	r2, #70
 2331 0096 3146     		mov	r1, r6
 2332 0098 2846     		mov	r0, r5
 2333 009a FFF7FEFF 		bl	lv_obj_get_style_prop
 2334              	.LVL195:
 2335 009e 0390     		str	r0, [sp, #12]
 451:../../Middlewares/LVGL/GUI/lvgl/src/core/lv_obj_style_gen.h **** }
 2336              		.loc 2 451 5 is_stmt 1 view .LVU616
 451:../../Middlewares/LVGL/GUI/lvgl/src/core/lv_obj_style_gen.h **** }
 2337              		.loc 2 451 12 is_stmt 0 view .LVU617
 2338 00a0 C0B2     		uxtb	r0, r0
 2339              	.LVL196:
 451:../../Middlewares/LVGL/GUI/lvgl/src/core/lv_obj_style_gen.h **** }
 2340              		.loc 2 451 12 view .LVU618
 2341              	.LBE191:
 2342              	.LBE190:
 233:../../Middlewares/LVGL/GUI/lvgl/src/core/lv_obj_draw.c ****     draw_dsc->recolor_opa = result.alpha;
 2343              		.loc 1 233 5 is_stmt 1 view .LVU619
 233:../../Middlewares/LVGL/GUI/lvgl/src/core/lv_obj_draw.c ****     draw_dsc->recolor_opa = result.alpha;
 2344              		.loc 1 233 27 is_stmt 0 view .LVU620
 2345 00a2 0090     		str	r0, [sp]
 2346 00a4 059B     		ldr	r3, [sp, #20]
 2347 00a6 2246     		mov	r2, r4
 2348 00a8 3146     		mov	r1, r6
 2349 00aa 2846     		mov	r0, r5
 2350              	.LVL197:
 233:../../Middlewares/LVGL/GUI/lvgl/src/core/lv_obj_draw.c ****     draw_dsc->recolor_opa = result.alpha;
 2351              		.loc 1 233 27 view .LVU621
 2352 00ac FFF7FEFF 		bl	image_apply_layer_recolor
 2353              	.LVL198:
 233:../../Middlewares/LVGL/GUI/lvgl/src/core/lv_obj_draw.c ****     draw_dsc->recolor_opa = result.alpha;
 2354              		.loc 1 233 27 view .LVU622
 2355 00b0 0490     		str	r0, [sp, #16]
 234:../../Middlewares/LVGL/GUI/lvgl/src/core/lv_obj_draw.c ****     draw_dsc->recolor = lv_color_make(result.red, result.green, result.blue);
 2356              		.loc 1 234 5 is_stmt 1 view .LVU623
ARM GAS  C:\Users\28576\AppData\Local\Temp\cclWIAwm.s 			page 71


 234:../../Middlewares/LVGL/GUI/lvgl/src/core/lv_obj_draw.c ****     draw_dsc->recolor = lv_color_make(result.red, result.green, result.blue);
 2357              		.loc 1 234 35 is_stmt 0 view .LVU624
 2358 00b2 9DF81330 		ldrb	r3, [sp, #19]	@ zero_extendqisi2
 234:../../Middlewares/LVGL/GUI/lvgl/src/core/lv_obj_draw.c ****     draw_dsc->recolor = lv_color_make(result.red, result.green, result.blue);
 2359              		.loc 1 234 27 view .LVU625
 2360 00b6 84F84F30 		strb	r3, [r4, #79]
 235:../../Middlewares/LVGL/GUI/lvgl/src/core/lv_obj_draw.c **** 
 2361              		.loc 1 235 5 is_stmt 1 view .LVU626
 235:../../Middlewares/LVGL/GUI/lvgl/src/core/lv_obj_draw.c **** 
 2362              		.loc 1 235 25 is_stmt 0 view .LVU627
 2363 00ba 9DF81020 		ldrb	r2, [sp, #16]	@ zero_extendqisi2
 2364 00be 9DF81110 		ldrb	r1, [sp, #17]	@ zero_extendqisi2
 2365 00c2 9DF81200 		ldrb	r0, [sp, #18]	@ zero_extendqisi2
 2366 00c6 FFF7FEFF 		bl	lv_color_make
 2367              	.LVL199:
 2368 00ca 84F84C00 		strb	r0, [r4, #76]
 2369 00ce C0F30723 		ubfx	r3, r0, #8, #8
 2370 00d2 84F84D30 		strb	r3, [r4, #77]
 2371 00d6 C0F30740 		ubfx	r0, r0, #16, #8
 2372 00da 84F84E00 		strb	r0, [r4, #78]
 237:../../Middlewares/LVGL/GUI/lvgl/src/core/lv_obj_draw.c **** 
 2373              		.loc 1 237 5 is_stmt 1 view .LVU628
 237:../../Middlewares/LVGL/GUI/lvgl/src/core/lv_obj_draw.c **** 
 2374              		.loc 1 237 7 is_stmt 0 view .LVU629
 2375 00de 002E     		cmp	r6, #0
 2376 00e0 9ED0     		beq	.L66
 237:../../Middlewares/LVGL/GUI/lvgl/src/core/lv_obj_draw.c **** 
 2377              		.loc 1 237 30 is_stmt 1 discriminator 1 view .LVU630
 2378              	.LVL200:
 2379              	.LBB192:
 2380              	.LBI192:
 626:../../Middlewares/LVGL/GUI/lvgl/src/core/lv_obj_style_gen.h **** }
 627:../../Middlewares/LVGL/GUI/lvgl/src/core/lv_obj_style_gen.h **** 
 628:../../Middlewares/LVGL/GUI/lvgl/src/core/lv_obj_style_gen.h **** static inline lv_opa_t lv_obj_get_style_opa_layered(const lv_obj_t * obj, lv_part_t part)
 629:../../Middlewares/LVGL/GUI/lvgl/src/core/lv_obj_style_gen.h **** {
 630:../../Middlewares/LVGL/GUI/lvgl/src/core/lv_obj_style_gen.h ****     lv_style_value_t v = lv_obj_get_style_prop(obj, part, LV_STYLE_OPA_LAYERED);
 631:../../Middlewares/LVGL/GUI/lvgl/src/core/lv_obj_style_gen.h ****     return (lv_opa_t)v.num;
 632:../../Middlewares/LVGL/GUI/lvgl/src/core/lv_obj_style_gen.h **** }
 633:../../Middlewares/LVGL/GUI/lvgl/src/core/lv_obj_style_gen.h **** 
 634:../../Middlewares/LVGL/GUI/lvgl/src/core/lv_obj_style_gen.h **** static inline const lv_color_filter_dsc_t * lv_obj_get_style_color_filter_dsc(const lv_obj_t * obj,
 635:../../Middlewares/LVGL/GUI/lvgl/src/core/lv_obj_style_gen.h **** {
 636:../../Middlewares/LVGL/GUI/lvgl/src/core/lv_obj_style_gen.h ****     lv_style_value_t v = lv_obj_get_style_prop(obj, part, LV_STYLE_COLOR_FILTER_DSC);
 637:../../Middlewares/LVGL/GUI/lvgl/src/core/lv_obj_style_gen.h ****     return (const lv_color_filter_dsc_t *)v.ptr;
 638:../../Middlewares/LVGL/GUI/lvgl/src/core/lv_obj_style_gen.h **** }
 639:../../Middlewares/LVGL/GUI/lvgl/src/core/lv_obj_style_gen.h **** 
 640:../../Middlewares/LVGL/GUI/lvgl/src/core/lv_obj_style_gen.h **** static inline lv_opa_t lv_obj_get_style_color_filter_opa(const lv_obj_t * obj, lv_part_t part)
 641:../../Middlewares/LVGL/GUI/lvgl/src/core/lv_obj_style_gen.h **** {
 642:../../Middlewares/LVGL/GUI/lvgl/src/core/lv_obj_style_gen.h ****     lv_style_value_t v = lv_obj_get_style_prop(obj, part, LV_STYLE_COLOR_FILTER_OPA);
 643:../../Middlewares/LVGL/GUI/lvgl/src/core/lv_obj_style_gen.h ****     return (lv_opa_t)v.num;
 644:../../Middlewares/LVGL/GUI/lvgl/src/core/lv_obj_style_gen.h **** }
 645:../../Middlewares/LVGL/GUI/lvgl/src/core/lv_obj_style_gen.h **** 
 646:../../Middlewares/LVGL/GUI/lvgl/src/core/lv_obj_style_gen.h **** static inline lv_color_t lv_obj_get_style_recolor(const lv_obj_t * obj, lv_part_t part)
 647:../../Middlewares/LVGL/GUI/lvgl/src/core/lv_obj_style_gen.h **** {
 648:../../Middlewares/LVGL/GUI/lvgl/src/core/lv_obj_style_gen.h ****     lv_style_value_t v = lv_obj_get_style_prop(obj, part, LV_STYLE_RECOLOR);
 649:../../Middlewares/LVGL/GUI/lvgl/src/core/lv_obj_style_gen.h ****     return v.color;
 650:../../Middlewares/LVGL/GUI/lvgl/src/core/lv_obj_style_gen.h **** }
 651:../../Middlewares/LVGL/GUI/lvgl/src/core/lv_obj_style_gen.h **** 
ARM GAS  C:\Users\28576\AppData\Local\Temp\cclWIAwm.s 			page 72


 652:../../Middlewares/LVGL/GUI/lvgl/src/core/lv_obj_style_gen.h **** static inline lv_opa_t lv_obj_get_style_recolor_opa(const lv_obj_t * obj, lv_part_t part)
 653:../../Middlewares/LVGL/GUI/lvgl/src/core/lv_obj_style_gen.h **** {
 654:../../Middlewares/LVGL/GUI/lvgl/src/core/lv_obj_style_gen.h ****     lv_style_value_t v = lv_obj_get_style_prop(obj, part, LV_STYLE_RECOLOR_OPA);
 655:../../Middlewares/LVGL/GUI/lvgl/src/core/lv_obj_style_gen.h ****     return (lv_opa_t)v.num;
 656:../../Middlewares/LVGL/GUI/lvgl/src/core/lv_obj_style_gen.h **** }
 657:../../Middlewares/LVGL/GUI/lvgl/src/core/lv_obj_style_gen.h **** 
 658:../../Middlewares/LVGL/GUI/lvgl/src/core/lv_obj_style_gen.h **** static inline const lv_anim_t * lv_obj_get_style_anim(const lv_obj_t * obj, lv_part_t part)
 659:../../Middlewares/LVGL/GUI/lvgl/src/core/lv_obj_style_gen.h **** {
 660:../../Middlewares/LVGL/GUI/lvgl/src/core/lv_obj_style_gen.h ****     lv_style_value_t v = lv_obj_get_style_prop(obj, part, LV_STYLE_ANIM);
 661:../../Middlewares/LVGL/GUI/lvgl/src/core/lv_obj_style_gen.h ****     return (const lv_anim_t *)v.ptr;
 662:../../Middlewares/LVGL/GUI/lvgl/src/core/lv_obj_style_gen.h **** }
 663:../../Middlewares/LVGL/GUI/lvgl/src/core/lv_obj_style_gen.h **** 
 664:../../Middlewares/LVGL/GUI/lvgl/src/core/lv_obj_style_gen.h **** static inline uint32_t lv_obj_get_style_anim_duration(const lv_obj_t * obj, lv_part_t part)
 665:../../Middlewares/LVGL/GUI/lvgl/src/core/lv_obj_style_gen.h **** {
 666:../../Middlewares/LVGL/GUI/lvgl/src/core/lv_obj_style_gen.h ****     lv_style_value_t v = lv_obj_get_style_prop(obj, part, LV_STYLE_ANIM_DURATION);
 667:../../Middlewares/LVGL/GUI/lvgl/src/core/lv_obj_style_gen.h ****     return (uint32_t)v.num;
 668:../../Middlewares/LVGL/GUI/lvgl/src/core/lv_obj_style_gen.h **** }
 669:../../Middlewares/LVGL/GUI/lvgl/src/core/lv_obj_style_gen.h **** 
 670:../../Middlewares/LVGL/GUI/lvgl/src/core/lv_obj_style_gen.h **** static inline const lv_style_transition_dsc_t * lv_obj_get_style_transition(const lv_obj_t * obj, l
 671:../../Middlewares/LVGL/GUI/lvgl/src/core/lv_obj_style_gen.h **** {
 672:../../Middlewares/LVGL/GUI/lvgl/src/core/lv_obj_style_gen.h ****     lv_style_value_t v = lv_obj_get_style_prop(obj, part, LV_STYLE_TRANSITION);
 673:../../Middlewares/LVGL/GUI/lvgl/src/core/lv_obj_style_gen.h ****     return (const lv_style_transition_dsc_t *)v.ptr;
 674:../../Middlewares/LVGL/GUI/lvgl/src/core/lv_obj_style_gen.h **** }
 675:../../Middlewares/LVGL/GUI/lvgl/src/core/lv_obj_style_gen.h **** 
 676:../../Middlewares/LVGL/GUI/lvgl/src/core/lv_obj_style_gen.h **** static inline lv_blend_mode_t lv_obj_get_style_blend_mode(const lv_obj_t * obj, lv_part_t part)
 2381              		.loc 2 676 31 view .LVU631
 2382              	.LBB193:
 677:../../Middlewares/LVGL/GUI/lvgl/src/core/lv_obj_style_gen.h **** {
 678:../../Middlewares/LVGL/GUI/lvgl/src/core/lv_obj_style_gen.h ****     lv_style_value_t v = lv_obj_get_style_prop(obj, part, LV_STYLE_BLEND_MODE);
 2383              		.loc 2 678 5 view .LVU632
 2384              		.loc 2 678 26 is_stmt 0 view .LVU633
 2385 00e2 6922     		movs	r2, #105
 2386 00e4 3146     		mov	r1, r6
 2387 00e6 2846     		mov	r0, r5
 2388 00e8 FFF7FEFF 		bl	lv_obj_get_style_prop
 2389              	.LVL201:
 2390 00ec 0390     		str	r0, [sp, #12]
 679:../../Middlewares/LVGL/GUI/lvgl/src/core/lv_obj_style_gen.h ****     return (lv_blend_mode_t)v.num;
 2391              		.loc 2 679 5 is_stmt 1 view .LVU634
 2392              	.LVL202:
 2393              		.loc 2 679 5 is_stmt 0 view .LVU635
 2394              	.LBE193:
 2395              	.LBE192:
 237:../../Middlewares/LVGL/GUI/lvgl/src/core/lv_obj_draw.c **** 
 2396              		.loc 1 237 51 discriminator 2 view .LVU636
 2397 00ee 94F85130 		ldrb	r3, [r4, #81]	@ zero_extendqisi2
 2398 00f2 60F30303 		bfi	r3, r0, #0, #4
 2399 00f6 84F85130 		strb	r3, [r4, #81]
 239:../../Middlewares/LVGL/GUI/lvgl/src/core/lv_obj_draw.c **** }
 2400              		.loc 1 239 25 is_stmt 1 view .LVU637
 2401 00fa 91E7     		b	.L66
 2402              	.LVL203:
 2403              	.L75:
 228:../../Middlewares/LVGL/GUI/lvgl/src/core/lv_obj_draw.c ****     draw_dsc->pivot.y = lv_area_get_height(&obj->coords) / 2;
 2404              		.loc 1 228 57 is_stmt 0 discriminator 1 view .LVU638
 2405 00fc 0130     		adds	r0, r0, #1
 2406 00fe B2E7     		b	.L69
ARM GAS  C:\Users\28576\AppData\Local\Temp\cclWIAwm.s 			page 73


 2407              	.L76:
 229:../../Middlewares/LVGL/GUI/lvgl/src/core/lv_obj_draw.c **** 
 2408              		.loc 1 229 58 discriminator 1 view .LVU639
 2409 0100 0130     		adds	r0, r0, #1
 2410 0102 B7E7     		b	.L70
 2411              		.cfi_endproc
 2412              	.LFE174:
 2414              		.section	.text.lv_obj_init_draw_line_dsc,"ax",%progbits
 2415              		.align	1
 2416              		.global	lv_obj_init_draw_line_dsc
 2417              		.syntax unified
 2418              		.thumb
 2419              		.thumb_func
 2421              	lv_obj_init_draw_line_dsc:
 2422              	.LVL204:
 2423              	.LFB175:
 243:../../Middlewares/LVGL/GUI/lvgl/src/core/lv_obj_draw.c ****     LV_PROFILER_DRAW_BEGIN;
 2424              		.loc 1 243 1 is_stmt 1 view -0
 2425              		.cfi_startproc
 2426              		@ args = 0, pretend = 0, frame = 8
 2427              		@ frame_needed = 0, uses_anonymous_args = 0
 243:../../Middlewares/LVGL/GUI/lvgl/src/core/lv_obj_draw.c ****     LV_PROFILER_DRAW_BEGIN;
 2428              		.loc 1 243 1 is_stmt 0 view .LVU641
 2429 0000 70B5     		push	{r4, r5, r6, lr}
 2430              	.LCFI54:
 2431              		.cfi_def_cfa_offset 16
 2432              		.cfi_offset 4, -16
 2433              		.cfi_offset 5, -12
 2434              		.cfi_offset 6, -8
 2435              		.cfi_offset 14, -4
 2436 0002 82B0     		sub	sp, sp, #8
 2437              	.LCFI55:
 2438              		.cfi_def_cfa_offset 24
 2439 0004 0546     		mov	r5, r0
 2440 0006 0E46     		mov	r6, r1
 2441 0008 1446     		mov	r4, r2
 244:../../Middlewares/LVGL/GUI/lvgl/src/core/lv_obj_draw.c ****     draw_dsc->base.obj = obj;
 2442              		.loc 1 244 27 is_stmt 1 view .LVU642
 245:../../Middlewares/LVGL/GUI/lvgl/src/core/lv_obj_draw.c ****     draw_dsc->base.part = part;
 2443              		.loc 1 245 5 view .LVU643
 245:../../Middlewares/LVGL/GUI/lvgl/src/core/lv_obj_draw.c ****     draw_dsc->base.part = part;
 2444              		.loc 1 245 24 is_stmt 0 view .LVU644
 2445 000a 1060     		str	r0, [r2]
 246:../../Middlewares/LVGL/GUI/lvgl/src/core/lv_obj_draw.c **** 
 2446              		.loc 1 246 5 is_stmt 1 view .LVU645
 246:../../Middlewares/LVGL/GUI/lvgl/src/core/lv_obj_draw.c **** 
 2447              		.loc 1 246 25 is_stmt 0 view .LVU646
 2448 000c 5160     		str	r1, [r2, #4]
 248:../../Middlewares/LVGL/GUI/lvgl/src/core/lv_obj_draw.c ****     if(draw_dsc->opa <= LV_OPA_MIN) {
 2449              		.loc 1 248 5 is_stmt 1 view .LVU647
 2450              	.LVL205:
 2451              	.LBB194:
 2452              	.LBI194:
 490:../../Middlewares/LVGL/GUI/lvgl/src/core/lv_obj_style_gen.h **** {
 2453              		.loc 2 490 24 view .LVU648
 2454              	.LBB195:
 492:../../Middlewares/LVGL/GUI/lvgl/src/core/lv_obj_style_gen.h ****     return (lv_opa_t)v.num;
ARM GAS  C:\Users\28576\AppData\Local\Temp\cclWIAwm.s 			page 74


 2455              		.loc 2 492 5 view .LVU649
 492:../../Middlewares/LVGL/GUI/lvgl/src/core/lv_obj_style_gen.h ****     return (lv_opa_t)v.num;
 2456              		.loc 2 492 26 is_stmt 0 view .LVU650
 2457 000e 4D22     		movs	r2, #77
 2458              	.LVL206:
 492:../../Middlewares/LVGL/GUI/lvgl/src/core/lv_obj_style_gen.h ****     return (lv_opa_t)v.num;
 2459              		.loc 2 492 26 view .LVU651
 2460 0010 FFF7FEFF 		bl	lv_obj_get_style_prop
 2461              	.LVL207:
 492:../../Middlewares/LVGL/GUI/lvgl/src/core/lv_obj_style_gen.h ****     return (lv_opa_t)v.num;
 2462              		.loc 2 492 26 view .LVU652
 2463 0014 0090     		str	r0, [sp]
 493:../../Middlewares/LVGL/GUI/lvgl/src/core/lv_obj_style_gen.h **** }
 2464              		.loc 2 493 5 is_stmt 1 view .LVU653
 493:../../Middlewares/LVGL/GUI/lvgl/src/core/lv_obj_style_gen.h **** }
 2465              		.loc 2 493 12 is_stmt 0 view .LVU654
 2466 0016 C3B2     		uxtb	r3, r0
 2467              	.LVL208:
 493:../../Middlewares/LVGL/GUI/lvgl/src/core/lv_obj_style_gen.h **** }
 2468              		.loc 2 493 12 view .LVU655
 2469              	.LBE195:
 2470              	.LBE194:
 248:../../Middlewares/LVGL/GUI/lvgl/src/core/lv_obj_draw.c ****     if(draw_dsc->opa <= LV_OPA_MIN) {
 2471              		.loc 1 248 19 discriminator 1 view .LVU656
 2472 0018 84F83C30 		strb	r3, [r4, #60]
 249:../../Middlewares/LVGL/GUI/lvgl/src/core/lv_obj_draw.c ****         LV_PROFILER_DRAW_END;
 2473              		.loc 1 249 5 is_stmt 1 view .LVU657
 249:../../Middlewares/LVGL/GUI/lvgl/src/core/lv_obj_draw.c ****         LV_PROFILER_DRAW_END;
 2474              		.loc 1 249 7 is_stmt 0 view .LVU658
 2475 001c 022B     		cmp	r3, #2
 2476 001e 01D8     		bhi	.L83
 2477              	.L77:
 281:../../Middlewares/LVGL/GUI/lvgl/src/core/lv_obj_draw.c **** 
 2478              		.loc 1 281 1 view .LVU659
 2479 0020 02B0     		add	sp, sp, #8
 2480              	.LCFI56:
 2481              		.cfi_remember_state
 2482              		.cfi_def_cfa_offset 16
 2483              		@ sp needed
 2484 0022 70BD     		pop	{r4, r5, r6, pc}
 2485              	.LVL209:
 2486              	.L83:
 2487              	.LCFI57:
 2488              		.cfi_restore_state
 254:../../Middlewares/LVGL/GUI/lvgl/src/core/lv_obj_draw.c ****     if(opa < LV_OPA_MAX) {
 2489              		.loc 1 254 5 is_stmt 1 view .LVU660
 254:../../Middlewares/LVGL/GUI/lvgl/src/core/lv_obj_draw.c ****     if(opa < LV_OPA_MAX) {
 2490              		.loc 1 254 20 is_stmt 0 view .LVU661
 2491 0024 2246     		mov	r2, r4
 2492 0026 3146     		mov	r1, r6
 2493 0028 2846     		mov	r0, r5
 2494 002a FFF7FEFF 		bl	get_layer_opa
 2495              	.LVL210:
 255:../../Middlewares/LVGL/GUI/lvgl/src/core/lv_obj_draw.c ****         draw_dsc->opa = LV_OPA_MIX2(draw_dsc->opa, opa);
 2496              		.loc 1 255 5 is_stmt 1 view .LVU662
 255:../../Middlewares/LVGL/GUI/lvgl/src/core/lv_obj_draw.c ****         draw_dsc->opa = LV_OPA_MIX2(draw_dsc->opa, opa);
 2497              		.loc 1 255 7 is_stmt 0 view .LVU663
ARM GAS  C:\Users\28576\AppData\Local\Temp\cclWIAwm.s 			page 75


 2498 002e FC28     		cmp	r0, #252
 2499 0030 07D8     		bhi	.L79
 256:../../Middlewares/LVGL/GUI/lvgl/src/core/lv_obj_draw.c ****     }
 2500              		.loc 1 256 9 is_stmt 1 view .LVU664
 256:../../Middlewares/LVGL/GUI/lvgl/src/core/lv_obj_draw.c ****     }
 2501              		.loc 1 256 25 is_stmt 0 view .LVU665
 2502 0032 94F83C30 		ldrb	r3, [r4, #60]	@ zero_extendqisi2
 2503 0036 03FB00F0 		mul	r0, r3, r0
 2504              	.LVL211:
 256:../../Middlewares/LVGL/GUI/lvgl/src/core/lv_obj_draw.c ****     }
 2505              		.loc 1 256 25 view .LVU666
 2506 003a C0F30720 		ubfx	r0, r0, #8, #8
 256:../../Middlewares/LVGL/GUI/lvgl/src/core/lv_obj_draw.c ****     }
 2507              		.loc 1 256 23 view .LVU667
 2508 003e 84F83C00 		strb	r0, [r4, #60]
 2509              	.L79:
 258:../../Middlewares/LVGL/GUI/lvgl/src/core/lv_obj_draw.c ****         LV_PROFILER_DRAW_END;
 2510              		.loc 1 258 5 is_stmt 1 view .LVU668
 258:../../Middlewares/LVGL/GUI/lvgl/src/core/lv_obj_draw.c ****         LV_PROFILER_DRAW_END;
 2511              		.loc 1 258 16 is_stmt 0 view .LVU669
 2512 0042 94F83C30 		ldrb	r3, [r4, #60]	@ zero_extendqisi2
 258:../../Middlewares/LVGL/GUI/lvgl/src/core/lv_obj_draw.c ****         LV_PROFILER_DRAW_END;
 2513              		.loc 1 258 7 view .LVU670
 2514 0046 022B     		cmp	r3, #2
 2515 0048 EAD9     		bls	.L77
 263:../../Middlewares/LVGL/GUI/lvgl/src/core/lv_obj_draw.c ****     if(draw_dsc->width == 0) {
 2516              		.loc 1 263 5 is_stmt 1 view .LVU671
 2517              	.LVL212:
 2518              	.LBB196:
 2519              	.LBI196:
 454:../../Middlewares/LVGL/GUI/lvgl/src/core/lv_obj_style_gen.h **** {
 2520              		.loc 2 454 23 view .LVU672
 2521              	.LBB197:
 456:../../Middlewares/LVGL/GUI/lvgl/src/core/lv_obj_style_gen.h ****     return (int32_t)v.num;
 2522              		.loc 2 456 5 view .LVU673
 456:../../Middlewares/LVGL/GUI/lvgl/src/core/lv_obj_style_gen.h ****     return (int32_t)v.num;
 2523              		.loc 2 456 26 is_stmt 0 view .LVU674
 2524 004a 4822     		movs	r2, #72
 2525 004c 3146     		mov	r1, r6
 2526 004e 2846     		mov	r0, r5
 2527 0050 FFF7FEFF 		bl	lv_obj_get_style_prop
 2528              	.LVL213:
 2529 0054 0090     		str	r0, [sp]
 457:../../Middlewares/LVGL/GUI/lvgl/src/core/lv_obj_style_gen.h **** }
 2530              		.loc 2 457 5 is_stmt 1 view .LVU675
 2531              	.LVL214:
 457:../../Middlewares/LVGL/GUI/lvgl/src/core/lv_obj_style_gen.h **** }
 2532              		.loc 2 457 5 is_stmt 0 view .LVU676
 2533              	.LBE197:
 2534              	.LBE196:
 263:../../Middlewares/LVGL/GUI/lvgl/src/core/lv_obj_draw.c ****     if(draw_dsc->width == 0) {
 2535              		.loc 1 263 21 discriminator 1 view .LVU677
 2536 0056 2063     		str	r0, [r4, #48]
 264:../../Middlewares/LVGL/GUI/lvgl/src/core/lv_obj_draw.c ****         LV_PROFILER_DRAW_END;
 2537              		.loc 1 264 5 is_stmt 1 view .LVU678
 264:../../Middlewares/LVGL/GUI/lvgl/src/core/lv_obj_draw.c ****         LV_PROFILER_DRAW_END;
 2538              		.loc 1 264 7 is_stmt 0 view .LVU679
ARM GAS  C:\Users\28576\AppData\Local\Temp\cclWIAwm.s 			page 76


 2539 0058 0028     		cmp	r0, #0
 2540 005a E1D0     		beq	.L77
 269:../../Middlewares/LVGL/GUI/lvgl/src/core/lv_obj_draw.c ****     draw_dsc->color = normal_apply_layer_recolor(obj, part, &draw_dsc->base, line_color);
 2541              		.loc 1 269 5 is_stmt 1 view .LVU680
 269:../../Middlewares/LVGL/GUI/lvgl/src/core/lv_obj_draw.c ****     draw_dsc->color = normal_apply_layer_recolor(obj, part, &draw_dsc->base, line_color);
 2542              		.loc 1 269 29 is_stmt 0 view .LVU681
 2543 005c 3146     		mov	r1, r6
 2544 005e 2846     		mov	r0, r5
 2545 0060 FFF7FEFF 		bl	lv_obj_get_style_line_color_filtered
 2546              	.LVL215:
 2547 0064 8DF80400 		strb	r0, [sp, #4]
 2548 0068 C0F30723 		ubfx	r3, r0, #8, #8
 2549 006c 8DF80530 		strb	r3, [sp, #5]
 2550 0070 C0F30740 		ubfx	r0, r0, #16, #8
 2551 0074 8DF80600 		strb	r0, [sp, #6]
 270:../../Middlewares/LVGL/GUI/lvgl/src/core/lv_obj_draw.c **** 
 2552              		.loc 1 270 5 is_stmt 1 view .LVU682
 270:../../Middlewares/LVGL/GUI/lvgl/src/core/lv_obj_draw.c **** 
 2553              		.loc 1 270 23 is_stmt 0 view .LVU683
 2554 0078 019B     		ldr	r3, [sp, #4]
 2555 007a 2246     		mov	r2, r4
 2556 007c 3146     		mov	r1, r6
 2557 007e 2846     		mov	r0, r5
 2558 0080 FFF7FEFF 		bl	normal_apply_layer_recolor
 2559              	.LVL216:
 2560 0084 84F82C00 		strb	r0, [r4, #44]
 2561 0088 C0F30723 		ubfx	r3, r0, #8, #8
 2562 008c 84F82D30 		strb	r3, [r4, #45]
 2563 0090 C0F30740 		ubfx	r0, r0, #16, #8
 2564 0094 84F82E00 		strb	r0, [r4, #46]
 272:../../Middlewares/LVGL/GUI/lvgl/src/core/lv_obj_draw.c ****     if(draw_dsc->dash_width) {
 2565              		.loc 1 272 5 is_stmt 1 view .LVU684
 2566              	.LVL217:
 2567              	.LBB198:
 2568              	.LBI198:
 460:../../Middlewares/LVGL/GUI/lvgl/src/core/lv_obj_style_gen.h **** {
 2569              		.loc 2 460 23 view .LVU685
 2570              	.LBB199:
 462:../../Middlewares/LVGL/GUI/lvgl/src/core/lv_obj_style_gen.h ****     return (int32_t)v.num;
 2571              		.loc 2 462 5 view .LVU686
 462:../../Middlewares/LVGL/GUI/lvgl/src/core/lv_obj_style_gen.h ****     return (int32_t)v.num;
 2572              		.loc 2 462 26 is_stmt 0 view .LVU687
 2573 0098 4922     		movs	r2, #73
 2574 009a 3146     		mov	r1, r6
 2575 009c 2846     		mov	r0, r5
 2576 009e FFF7FEFF 		bl	lv_obj_get_style_prop
 2577              	.LVL218:
 2578 00a2 0090     		str	r0, [sp]
 463:../../Middlewares/LVGL/GUI/lvgl/src/core/lv_obj_style_gen.h **** }
 2579              		.loc 2 463 5 is_stmt 1 view .LVU688
 2580              	.LVL219:
 463:../../Middlewares/LVGL/GUI/lvgl/src/core/lv_obj_style_gen.h **** }
 2581              		.loc 2 463 5 is_stmt 0 view .LVU689
 2582              	.LBE199:
 2583              	.LBE198:
 272:../../Middlewares/LVGL/GUI/lvgl/src/core/lv_obj_draw.c ****     if(draw_dsc->dash_width) {
 2584              		.loc 1 272 26 discriminator 1 view .LVU690
ARM GAS  C:\Users\28576\AppData\Local\Temp\cclWIAwm.s 			page 77


 2585 00a4 6063     		str	r0, [r4, #52]
 273:../../Middlewares/LVGL/GUI/lvgl/src/core/lv_obj_draw.c ****         draw_dsc->dash_gap = lv_obj_get_style_line_dash_gap(obj, part);
 2586              		.loc 1 273 5 is_stmt 1 view .LVU691
 273:../../Middlewares/LVGL/GUI/lvgl/src/core/lv_obj_draw.c ****         draw_dsc->dash_gap = lv_obj_get_style_line_dash_gap(obj, part);
 2587              		.loc 1 273 7 is_stmt 0 view .LVU692
 2588 00a6 A0B9     		cbnz	r0, .L84
 2589              	.L80:
 277:../../Middlewares/LVGL/GUI/lvgl/src/core/lv_obj_draw.c ****     draw_dsc->round_end = draw_dsc->round_start;
 2590              		.loc 1 277 5 is_stmt 1 view .LVU693
 2591              	.LVL220:
 2592              	.LBB200:
 2593              	.LBI200:
 472:../../Middlewares/LVGL/GUI/lvgl/src/core/lv_obj_style_gen.h **** {
 2594              		.loc 2 472 20 view .LVU694
 2595              	.LBB201:
 474:../../Middlewares/LVGL/GUI/lvgl/src/core/lv_obj_style_gen.h ****     return (bool)v.num;
 2596              		.loc 2 474 5 view .LVU695
 474:../../Middlewares/LVGL/GUI/lvgl/src/core/lv_obj_style_gen.h ****     return (bool)v.num;
 2597              		.loc 2 474 26 is_stmt 0 view .LVU696
 2598 00a8 4B22     		movs	r2, #75
 2599 00aa 3146     		mov	r1, r6
 2600 00ac 2846     		mov	r0, r5
 2601 00ae FFF7FEFF 		bl	lv_obj_get_style_prop
 2602              	.LVL221:
 2603 00b2 0090     		str	r0, [sp]
 475:../../Middlewares/LVGL/GUI/lvgl/src/core/lv_obj_style_gen.h **** }
 2604              		.loc 2 475 5 is_stmt 1 view .LVU697
 475:../../Middlewares/LVGL/GUI/lvgl/src/core/lv_obj_style_gen.h **** }
 2605              		.loc 2 475 12 is_stmt 0 view .LVU698
 2606 00b4 0038     		subs	r0, r0, #0
 2607 00b6 18BF     		it	ne
 2608 00b8 0120     		movne	r0, #1
 2609              	.LVL222:
 475:../../Middlewares/LVGL/GUI/lvgl/src/core/lv_obj_style_gen.h **** }
 2610              		.loc 2 475 12 view .LVU699
 2611              	.LBE201:
 2612              	.LBE200:
 277:../../Middlewares/LVGL/GUI/lvgl/src/core/lv_obj_draw.c ****     draw_dsc->round_end = draw_dsc->round_start;
 2613              		.loc 1 277 27 discriminator 1 view .LVU700
 2614 00ba 94F83D30 		ldrb	r3, [r4, #61]	@ zero_extendqisi2
 2615 00be 60F30003 		bfi	r3, r0, #0, #1
 2616 00c2 84F83D30 		strb	r3, [r4, #61]
 278:../../Middlewares/LVGL/GUI/lvgl/src/core/lv_obj_draw.c **** 
 2617              		.loc 1 278 5 is_stmt 1 view .LVU701
 278:../../Middlewares/LVGL/GUI/lvgl/src/core/lv_obj_draw.c **** 
 2618              		.loc 1 278 25 is_stmt 0 view .LVU702
 2619 00c6 DBB2     		uxtb	r3, r3
 2620 00c8 60F34103 		bfi	r3, r0, #1, #1
 2621 00cc 84F83D30 		strb	r3, [r4, #61]
 280:../../Middlewares/LVGL/GUI/lvgl/src/core/lv_obj_draw.c **** }
 2622              		.loc 1 280 25 is_stmt 1 view .LVU703
 2623 00d0 A6E7     		b	.L77
 2624              	.L84:
 274:../../Middlewares/LVGL/GUI/lvgl/src/core/lv_obj_draw.c ****     }
 2625              		.loc 1 274 9 view .LVU704
 2626              	.LVL223:
 2627              	.LBB202:
ARM GAS  C:\Users\28576\AppData\Local\Temp\cclWIAwm.s 			page 78


 2628              	.LBI202:
 466:../../Middlewares/LVGL/GUI/lvgl/src/core/lv_obj_style_gen.h **** {
 2629              		.loc 2 466 23 view .LVU705
 2630              	.LBB203:
 468:../../Middlewares/LVGL/GUI/lvgl/src/core/lv_obj_style_gen.h ****     return (int32_t)v.num;
 2631              		.loc 2 468 5 view .LVU706
 468:../../Middlewares/LVGL/GUI/lvgl/src/core/lv_obj_style_gen.h ****     return (int32_t)v.num;
 2632              		.loc 2 468 26 is_stmt 0 view .LVU707
 2633 00d2 4A22     		movs	r2, #74
 2634 00d4 3146     		mov	r1, r6
 2635 00d6 2846     		mov	r0, r5
 2636 00d8 FFF7FEFF 		bl	lv_obj_get_style_prop
 2637              	.LVL224:
 2638 00dc 0090     		str	r0, [sp]
 469:../../Middlewares/LVGL/GUI/lvgl/src/core/lv_obj_style_gen.h **** }
 2639              		.loc 2 469 5 is_stmt 1 view .LVU708
 2640              	.LVL225:
 469:../../Middlewares/LVGL/GUI/lvgl/src/core/lv_obj_style_gen.h **** }
 2641              		.loc 2 469 5 is_stmt 0 view .LVU709
 2642              	.LBE203:
 2643              	.LBE202:
 274:../../Middlewares/LVGL/GUI/lvgl/src/core/lv_obj_draw.c ****     }
 2644              		.loc 1 274 28 discriminator 1 view .LVU710
 2645 00de A063     		str	r0, [r4, #56]
 2646 00e0 E2E7     		b	.L80
 2647              		.cfi_endproc
 2648              	.LFE175:
 2650              		.section	.text.lv_obj_init_draw_arc_dsc,"ax",%progbits
 2651              		.align	1
 2652              		.global	lv_obj_init_draw_arc_dsc
 2653              		.syntax unified
 2654              		.thumb
 2655              		.thumb_func
 2657              	lv_obj_init_draw_arc_dsc:
 2658              	.LVL226:
 2659              	.LFB176:
 284:../../Middlewares/LVGL/GUI/lvgl/src/core/lv_obj_draw.c ****     LV_PROFILER_DRAW_BEGIN;
 2660              		.loc 1 284 1 is_stmt 1 view -0
 2661              		.cfi_startproc
 2662              		@ args = 0, pretend = 0, frame = 8
 2663              		@ frame_needed = 0, uses_anonymous_args = 0
 284:../../Middlewares/LVGL/GUI/lvgl/src/core/lv_obj_draw.c ****     LV_PROFILER_DRAW_BEGIN;
 2664              		.loc 1 284 1 is_stmt 0 view .LVU712
 2665 0000 70B5     		push	{r4, r5, r6, lr}
 2666              	.LCFI58:
 2667              		.cfi_def_cfa_offset 16
 2668              		.cfi_offset 4, -16
 2669              		.cfi_offset 5, -12
 2670              		.cfi_offset 6, -8
 2671              		.cfi_offset 14, -4
 2672 0002 82B0     		sub	sp, sp, #8
 2673              	.LCFI59:
 2674              		.cfi_def_cfa_offset 24
 2675 0004 0546     		mov	r5, r0
 2676 0006 0E46     		mov	r6, r1
 2677 0008 1446     		mov	r4, r2
 285:../../Middlewares/LVGL/GUI/lvgl/src/core/lv_obj_draw.c ****     draw_dsc->base.obj = obj;
ARM GAS  C:\Users\28576\AppData\Local\Temp\cclWIAwm.s 			page 79


 2678              		.loc 1 285 27 is_stmt 1 view .LVU713
 286:../../Middlewares/LVGL/GUI/lvgl/src/core/lv_obj_draw.c ****     draw_dsc->base.part = part;
 2679              		.loc 1 286 5 view .LVU714
 286:../../Middlewares/LVGL/GUI/lvgl/src/core/lv_obj_draw.c ****     draw_dsc->base.part = part;
 2680              		.loc 1 286 24 is_stmt 0 view .LVU715
 2681 000a 1060     		str	r0, [r2]
 287:../../Middlewares/LVGL/GUI/lvgl/src/core/lv_obj_draw.c **** 
 2682              		.loc 1 287 5 is_stmt 1 view .LVU716
 287:../../Middlewares/LVGL/GUI/lvgl/src/core/lv_obj_draw.c **** 
 2683              		.loc 1 287 25 is_stmt 0 view .LVU717
 2684 000c 5160     		str	r1, [r2, #4]
 289:../../Middlewares/LVGL/GUI/lvgl/src/core/lv_obj_draw.c ****     if(draw_dsc->width == 0) {
 2685              		.loc 1 289 5 is_stmt 1 view .LVU718
 2686              	.LVL227:
 2687              	.LBB204:
 2688              	.LBI204:
 496:../../Middlewares/LVGL/GUI/lvgl/src/core/lv_obj_style_gen.h **** {
 2689              		.loc 2 496 23 view .LVU719
 2690              	.LBB205:
 498:../../Middlewares/LVGL/GUI/lvgl/src/core/lv_obj_style_gen.h ****     return (int32_t)v.num;
 2691              		.loc 2 498 5 view .LVU720
 498:../../Middlewares/LVGL/GUI/lvgl/src/core/lv_obj_style_gen.h ****     return (int32_t)v.num;
 2692              		.loc 2 498 26 is_stmt 0 view .LVU721
 2693 000e 5022     		movs	r2, #80
 2694              	.LVL228:
 498:../../Middlewares/LVGL/GUI/lvgl/src/core/lv_obj_style_gen.h ****     return (int32_t)v.num;
 2695              		.loc 2 498 26 view .LVU722
 2696 0010 FFF7FEFF 		bl	lv_obj_get_style_prop
 2697              	.LVL229:
 498:../../Middlewares/LVGL/GUI/lvgl/src/core/lv_obj_style_gen.h ****     return (int32_t)v.num;
 2698              		.loc 2 498 26 view .LVU723
 2699 0014 0090     		str	r0, [sp]
 499:../../Middlewares/LVGL/GUI/lvgl/src/core/lv_obj_style_gen.h **** }
 2700              		.loc 2 499 5 is_stmt 1 view .LVU724
 2701              	.LVL230:
 499:../../Middlewares/LVGL/GUI/lvgl/src/core/lv_obj_style_gen.h **** }
 2702              		.loc 2 499 5 is_stmt 0 view .LVU725
 2703              	.LBE205:
 2704              	.LBE204:
 289:../../Middlewares/LVGL/GUI/lvgl/src/core/lv_obj_draw.c ****     if(draw_dsc->width == 0) {
 2705              		.loc 1 289 21 discriminator 1 view .LVU726
 2706 0016 2062     		str	r0, [r4, #32]
 290:../../Middlewares/LVGL/GUI/lvgl/src/core/lv_obj_draw.c ****         LV_PROFILER_DRAW_END;
 2707              		.loc 1 290 5 is_stmt 1 view .LVU727
 290:../../Middlewares/LVGL/GUI/lvgl/src/core/lv_obj_draw.c ****         LV_PROFILER_DRAW_END;
 2708              		.loc 1 290 7 is_stmt 0 view .LVU728
 2709 0018 08B9     		cbnz	r0, .L90
 2710              	.L85:
 316:../../Middlewares/LVGL/GUI/lvgl/src/core/lv_obj_draw.c **** 
 2711              		.loc 1 316 1 view .LVU729
 2712 001a 02B0     		add	sp, sp, #8
 2713              	.LCFI60:
 2714              		.cfi_remember_state
 2715              		.cfi_def_cfa_offset 16
 2716              		@ sp needed
 2717 001c 70BD     		pop	{r4, r5, r6, pc}
 2718              	.LVL231:
ARM GAS  C:\Users\28576\AppData\Local\Temp\cclWIAwm.s 			page 80


 2719              	.L90:
 2720              	.LCFI61:
 2721              		.cfi_restore_state
 295:../../Middlewares/LVGL/GUI/lvgl/src/core/lv_obj_draw.c ****     if(draw_dsc->opa <= LV_OPA_MIN) {
 2722              		.loc 1 295 5 is_stmt 1 view .LVU730
 2723              	.LBB206:
 2724              	.LBI206:
 520:../../Middlewares/LVGL/GUI/lvgl/src/core/lv_obj_style_gen.h **** {
 2725              		.loc 2 520 24 view .LVU731
 2726              	.LBB207:
 522:../../Middlewares/LVGL/GUI/lvgl/src/core/lv_obj_style_gen.h ****     return (lv_opa_t)v.num;
 2727              		.loc 2 522 5 view .LVU732
 522:../../Middlewares/LVGL/GUI/lvgl/src/core/lv_obj_style_gen.h ****     return (lv_opa_t)v.num;
 2728              		.loc 2 522 26 is_stmt 0 view .LVU733
 2729 001e 5322     		movs	r2, #83
 2730 0020 3146     		mov	r1, r6
 2731 0022 2846     		mov	r0, r5
 2732 0024 FFF7FEFF 		bl	lv_obj_get_style_prop
 2733              	.LVL232:
 2734 0028 0090     		str	r0, [sp]
 523:../../Middlewares/LVGL/GUI/lvgl/src/core/lv_obj_style_gen.h **** }
 2735              		.loc 2 523 5 is_stmt 1 view .LVU734
 523:../../Middlewares/LVGL/GUI/lvgl/src/core/lv_obj_style_gen.h **** }
 2736              		.loc 2 523 12 is_stmt 0 view .LVU735
 2737 002a C0B2     		uxtb	r0, r0
 2738              	.LVL233:
 523:../../Middlewares/LVGL/GUI/lvgl/src/core/lv_obj_style_gen.h **** }
 2739              		.loc 2 523 12 view .LVU736
 2740              	.LBE207:
 2741              	.LBE206:
 295:../../Middlewares/LVGL/GUI/lvgl/src/core/lv_obj_draw.c ****     if(draw_dsc->opa <= LV_OPA_MIN) {
 2742              		.loc 1 295 19 discriminator 1 view .LVU737
 2743 002c 84F83C00 		strb	r0, [r4, #60]
 296:../../Middlewares/LVGL/GUI/lvgl/src/core/lv_obj_draw.c ****         LV_PROFILER_DRAW_END;
 2744              		.loc 1 296 5 is_stmt 1 view .LVU738
 296:../../Middlewares/LVGL/GUI/lvgl/src/core/lv_obj_draw.c ****         LV_PROFILER_DRAW_END;
 2745              		.loc 1 296 7 is_stmt 0 view .LVU739
 2746 0030 0228     		cmp	r0, #2
 2747 0032 F2D9     		bls	.L85
 301:../../Middlewares/LVGL/GUI/lvgl/src/core/lv_obj_draw.c ****     if(opa < LV_OPA_MAX) {
 2748              		.loc 1 301 5 is_stmt 1 view .LVU740
 301:../../Middlewares/LVGL/GUI/lvgl/src/core/lv_obj_draw.c ****     if(opa < LV_OPA_MAX) {
 2749              		.loc 1 301 20 is_stmt 0 view .LVU741
 2750 0034 2246     		mov	r2, r4
 2751 0036 3146     		mov	r1, r6
 2752 0038 2846     		mov	r0, r5
 2753 003a FFF7FEFF 		bl	get_layer_opa
 2754              	.LVL234:
 302:../../Middlewares/LVGL/GUI/lvgl/src/core/lv_obj_draw.c ****         draw_dsc->opa = LV_OPA_MIX2(draw_dsc->opa, opa);
 2755              		.loc 1 302 5 is_stmt 1 view .LVU742
 302:../../Middlewares/LVGL/GUI/lvgl/src/core/lv_obj_draw.c ****         draw_dsc->opa = LV_OPA_MIX2(draw_dsc->opa, opa);
 2756              		.loc 1 302 7 is_stmt 0 view .LVU743
 2757 003e FC28     		cmp	r0, #252
 2758 0040 07D8     		bhi	.L87
 303:../../Middlewares/LVGL/GUI/lvgl/src/core/lv_obj_draw.c ****     }
 2759              		.loc 1 303 9 is_stmt 1 view .LVU744
 303:../../Middlewares/LVGL/GUI/lvgl/src/core/lv_obj_draw.c ****     }
ARM GAS  C:\Users\28576\AppData\Local\Temp\cclWIAwm.s 			page 81


 2760              		.loc 1 303 25 is_stmt 0 view .LVU745
 2761 0042 94F83C30 		ldrb	r3, [r4, #60]	@ zero_extendqisi2
 2762 0046 03FB00F0 		mul	r0, r3, r0
 2763              	.LVL235:
 303:../../Middlewares/LVGL/GUI/lvgl/src/core/lv_obj_draw.c ****     }
 2764              		.loc 1 303 25 view .LVU746
 2765 004a C0F30720 		ubfx	r0, r0, #8, #8
 303:../../Middlewares/LVGL/GUI/lvgl/src/core/lv_obj_draw.c ****     }
 2766              		.loc 1 303 23 view .LVU747
 2767 004e 84F83C00 		strb	r0, [r4, #60]
 2768              	.L87:
 305:../../Middlewares/LVGL/GUI/lvgl/src/core/lv_obj_draw.c ****         LV_PROFILER_DRAW_END;
 2769              		.loc 1 305 5 is_stmt 1 view .LVU748
 305:../../Middlewares/LVGL/GUI/lvgl/src/core/lv_obj_draw.c ****         LV_PROFILER_DRAW_END;
 2770              		.loc 1 305 16 is_stmt 0 view .LVU749
 2771 0052 94F83C30 		ldrb	r3, [r4, #60]	@ zero_extendqisi2
 305:../../Middlewares/LVGL/GUI/lvgl/src/core/lv_obj_draw.c ****         LV_PROFILER_DRAW_END;
 2772              		.loc 1 305 7 view .LVU750
 2773 0056 022B     		cmp	r3, #2
 2774 0058 DFD9     		bls	.L85
 310:../../Middlewares/LVGL/GUI/lvgl/src/core/lv_obj_draw.c ****     draw_dsc->color = normal_apply_layer_recolor(obj, part, &draw_dsc->base, arc_color);
 2775              		.loc 1 310 5 is_stmt 1 view .LVU751
 310:../../Middlewares/LVGL/GUI/lvgl/src/core/lv_obj_draw.c ****     draw_dsc->color = normal_apply_layer_recolor(obj, part, &draw_dsc->base, arc_color);
 2776              		.loc 1 310 28 is_stmt 0 view .LVU752
 2777 005a 3146     		mov	r1, r6
 2778 005c 2846     		mov	r0, r5
 2779 005e FFF7FEFF 		bl	lv_obj_get_style_arc_color_filtered
 2780              	.LVL236:
 2781 0062 8DF80400 		strb	r0, [sp, #4]
 2782 0066 C0F30723 		ubfx	r3, r0, #8, #8
 2783 006a 8DF80530 		strb	r3, [sp, #5]
 2784 006e C0F30740 		ubfx	r0, r0, #16, #8
 2785 0072 8DF80600 		strb	r0, [sp, #6]
 311:../../Middlewares/LVGL/GUI/lvgl/src/core/lv_obj_draw.c ****     draw_dsc->img_src = lv_obj_get_style_arc_image_src(obj, part);
 2786              		.loc 1 311 5 is_stmt 1 view .LVU753
 311:../../Middlewares/LVGL/GUI/lvgl/src/core/lv_obj_draw.c ****     draw_dsc->img_src = lv_obj_get_style_arc_image_src(obj, part);
 2787              		.loc 1 311 23 is_stmt 0 view .LVU754
 2788 0076 019B     		ldr	r3, [sp, #4]
 2789 0078 2246     		mov	r2, r4
 2790 007a 3146     		mov	r1, r6
 2791 007c 2846     		mov	r0, r5
 2792 007e FFF7FEFF 		bl	normal_apply_layer_recolor
 2793              	.LVL237:
 2794 0082 2077     		strb	r0, [r4, #28]
 2795 0084 C0F30723 		ubfx	r3, r0, #8, #8
 2796 0088 6377     		strb	r3, [r4, #29]
 2797 008a C0F30740 		ubfx	r0, r0, #16, #8
 2798 008e A077     		strb	r0, [r4, #30]
 312:../../Middlewares/LVGL/GUI/lvgl/src/core/lv_obj_draw.c **** 
 2799              		.loc 1 312 5 is_stmt 1 view .LVU755
 2800              	.LVL238:
 2801              	.LBB208:
 2802              	.LBI208:
 526:../../Middlewares/LVGL/GUI/lvgl/src/core/lv_obj_style_gen.h **** {
 2803              		.loc 2 526 28 view .LVU756
 2804              	.LBB209:
 528:../../Middlewares/LVGL/GUI/lvgl/src/core/lv_obj_style_gen.h ****     return (const void *)v.ptr;
ARM GAS  C:\Users\28576\AppData\Local\Temp\cclWIAwm.s 			page 82


 2805              		.loc 2 528 5 view .LVU757
 528:../../Middlewares/LVGL/GUI/lvgl/src/core/lv_obj_style_gen.h ****     return (const void *)v.ptr;
 2806              		.loc 2 528 26 is_stmt 0 view .LVU758
 2807 0090 5422     		movs	r2, #84
 2808 0092 3146     		mov	r1, r6
 2809 0094 2846     		mov	r0, r5
 2810 0096 FFF7FEFF 		bl	lv_obj_get_style_prop
 2811              	.LVL239:
 2812 009a 0090     		str	r0, [sp]
 529:../../Middlewares/LVGL/GUI/lvgl/src/core/lv_obj_style_gen.h **** }
 2813              		.loc 2 529 5 is_stmt 1 view .LVU759
 2814              	.LVL240:
 529:../../Middlewares/LVGL/GUI/lvgl/src/core/lv_obj_style_gen.h **** }
 2815              		.loc 2 529 5 is_stmt 0 view .LVU760
 2816              	.LBE209:
 2817              	.LBE208:
 312:../../Middlewares/LVGL/GUI/lvgl/src/core/lv_obj_draw.c **** 
 2818              		.loc 1 312 23 discriminator 1 view .LVU761
 2819 009c A063     		str	r0, [r4, #56]
 314:../../Middlewares/LVGL/GUI/lvgl/src/core/lv_obj_draw.c ****     LV_PROFILER_DRAW_END;
 2820              		.loc 1 314 5 is_stmt 1 view .LVU762
 2821              	.LVL241:
 2822              	.LBB210:
 2823              	.LBI210:
 502:../../Middlewares/LVGL/GUI/lvgl/src/core/lv_obj_style_gen.h **** {
 2824              		.loc 2 502 20 view .LVU763
 2825              	.LBB211:
 504:../../Middlewares/LVGL/GUI/lvgl/src/core/lv_obj_style_gen.h ****     return (bool)v.num;
 2826              		.loc 2 504 5 view .LVU764
 504:../../Middlewares/LVGL/GUI/lvgl/src/core/lv_obj_style_gen.h ****     return (bool)v.num;
 2827              		.loc 2 504 26 is_stmt 0 view .LVU765
 2828 009e 5122     		movs	r2, #81
 2829 00a0 3146     		mov	r1, r6
 2830 00a2 2846     		mov	r0, r5
 2831 00a4 FFF7FEFF 		bl	lv_obj_get_style_prop
 2832              	.LVL242:
 2833 00a8 0090     		str	r0, [sp]
 505:../../Middlewares/LVGL/GUI/lvgl/src/core/lv_obj_style_gen.h **** }
 2834              		.loc 2 505 5 is_stmt 1 view .LVU766
 505:../../Middlewares/LVGL/GUI/lvgl/src/core/lv_obj_style_gen.h **** }
 2835              		.loc 2 505 12 is_stmt 0 view .LVU767
 2836 00aa 0038     		subs	r0, r0, #0
 2837 00ac 18BF     		it	ne
 2838 00ae 0120     		movne	r0, #1
 2839              	.LVL243:
 505:../../Middlewares/LVGL/GUI/lvgl/src/core/lv_obj_style_gen.h **** }
 2840              		.loc 2 505 12 view .LVU768
 2841              	.LBE211:
 2842              	.LBE210:
 314:../../Middlewares/LVGL/GUI/lvgl/src/core/lv_obj_draw.c ****     LV_PROFILER_DRAW_END;
 2843              		.loc 1 314 23 discriminator 1 view .LVU769
 2844 00b0 94F83D30 		ldrb	r3, [r4, #61]	@ zero_extendqisi2
 2845 00b4 60F30003 		bfi	r3, r0, #0, #1
 2846 00b8 84F83D30 		strb	r3, [r4, #61]
 315:../../Middlewares/LVGL/GUI/lvgl/src/core/lv_obj_draw.c **** }
 2847              		.loc 1 315 25 is_stmt 1 view .LVU770
 2848 00bc ADE7     		b	.L85
ARM GAS  C:\Users\28576\AppData\Local\Temp\cclWIAwm.s 			page 83


 2849              		.cfi_endproc
 2850              	.LFE176:
 2852              		.section	.text.lv_obj_calculate_ext_draw_size,"ax",%progbits
 2853              		.align	1
 2854              		.global	lv_obj_calculate_ext_draw_size
 2855              		.syntax unified
 2856              		.thumb
 2857              		.thumb_func
 2859              	lv_obj_calculate_ext_draw_size:
 2860              	.LVL244:
 2861              	.LFB177:
 319:../../Middlewares/LVGL/GUI/lvgl/src/core/lv_obj_draw.c ****     LV_PROFILER_DRAW_BEGIN;
 2862              		.loc 1 319 1 view -0
 2863              		.cfi_startproc
 2864              		@ args = 0, pretend = 0, frame = 8
 2865              		@ frame_needed = 0, uses_anonymous_args = 0
 319:../../Middlewares/LVGL/GUI/lvgl/src/core/lv_obj_draw.c ****     LV_PROFILER_DRAW_BEGIN;
 2866              		.loc 1 319 1 is_stmt 0 view .LVU772
 2867 0000 F0B5     		push	{r4, r5, r6, r7, lr}
 2868              	.LCFI62:
 2869              		.cfi_def_cfa_offset 20
 2870              		.cfi_offset 4, -20
 2871              		.cfi_offset 5, -16
 2872              		.cfi_offset 6, -12
 2873              		.cfi_offset 7, -8
 2874              		.cfi_offset 14, -4
 2875 0002 83B0     		sub	sp, sp, #12
 2876              	.LCFI63:
 2877              		.cfi_def_cfa_offset 32
 2878 0004 0446     		mov	r4, r0
 2879 0006 0D46     		mov	r5, r1
 320:../../Middlewares/LVGL/GUI/lvgl/src/core/lv_obj_draw.c ****     int32_t s = 0;
 2880              		.loc 1 320 27 is_stmt 1 view .LVU773
 321:../../Middlewares/LVGL/GUI/lvgl/src/core/lv_obj_draw.c **** 
 2881              		.loc 1 321 5 view .LVU774
 2882              	.LVL245:
 323:../../Middlewares/LVGL/GUI/lvgl/src/core/lv_obj_draw.c ****     if(sh_width) {
 2883              		.loc 1 323 5 view .LVU775
 2884              	.LBB212:
 2885              	.LBI212:
 388:../../Middlewares/LVGL/GUI/lvgl/src/core/lv_obj_style_gen.h **** {
 2886              		.loc 2 388 23 view .LVU776
 2887              	.LBB213:
 390:../../Middlewares/LVGL/GUI/lvgl/src/core/lv_obj_style_gen.h ****     return (int32_t)v.num;
 2888              		.loc 2 390 5 view .LVU777
 390:../../Middlewares/LVGL/GUI/lvgl/src/core/lv_obj_style_gen.h ****     return (int32_t)v.num;
 2889              		.loc 2 390 26 is_stmt 0 view .LVU778
 2890 0008 3C22     		movs	r2, #60
 2891 000a FFF7FEFF 		bl	lv_obj_get_style_prop
 2892              	.LVL246:
 390:../../Middlewares/LVGL/GUI/lvgl/src/core/lv_obj_style_gen.h ****     return (int32_t)v.num;
 2893              		.loc 2 390 26 view .LVU779
 2894 000e 0190     		str	r0, [sp, #4]
 391:../../Middlewares/LVGL/GUI/lvgl/src/core/lv_obj_style_gen.h **** }
 2895              		.loc 2 391 5 is_stmt 1 view .LVU780
 391:../../Middlewares/LVGL/GUI/lvgl/src/core/lv_obj_style_gen.h **** }
 2896              		.loc 2 391 12 is_stmt 0 view .LVU781
ARM GAS  C:\Users\28576\AppData\Local\Temp\cclWIAwm.s 			page 84


 2897 0010 0746     		mov	r7, r0
 2898              	.LVL247:
 391:../../Middlewares/LVGL/GUI/lvgl/src/core/lv_obj_style_gen.h **** }
 2899              		.loc 2 391 12 view .LVU782
 2900              	.LBE213:
 2901              	.LBE212:
 324:../../Middlewares/LVGL/GUI/lvgl/src/core/lv_obj_draw.c ****         lv_opa_t sh_opa = lv_obj_get_style_shadow_opa(obj, part);
 2902              		.loc 1 324 5 is_stmt 1 view .LVU783
 324:../../Middlewares/LVGL/GUI/lvgl/src/core/lv_obj_draw.c ****         lv_opa_t sh_opa = lv_obj_get_style_shadow_opa(obj, part);
 2903              		.loc 1 324 7 is_stmt 0 view .LVU784
 2904 0012 F0B9     		cbnz	r0, .L98
 2905              	.LVL248:
 2906              	.L92:
 336:../../Middlewares/LVGL/GUI/lvgl/src/core/lv_obj_draw.c ****     if(outline_width) {
 2907              		.loc 1 336 5 is_stmt 1 view .LVU785
 2908              	.LBB214:
 2909              	.LBI214:
 358:../../Middlewares/LVGL/GUI/lvgl/src/core/lv_obj_style_gen.h **** {
 2910              		.loc 2 358 23 view .LVU786
 2911              	.LBB215:
 360:../../Middlewares/LVGL/GUI/lvgl/src/core/lv_obj_style_gen.h ****     return (int32_t)v.num;
 2912              		.loc 2 360 5 view .LVU787
 360:../../Middlewares/LVGL/GUI/lvgl/src/core/lv_obj_style_gen.h ****     return (int32_t)v.num;
 2913              		.loc 2 360 26 is_stmt 0 view .LVU788
 2914 0014 3822     		movs	r2, #56
 2915 0016 2946     		mov	r1, r5
 2916 0018 2046     		mov	r0, r4
 2917 001a FFF7FEFF 		bl	lv_obj_get_style_prop
 2918              	.LVL249:
 2919 001e 0646     		mov	r6, r0
 2920 0020 0190     		str	r0, [sp, #4]
 361:../../Middlewares/LVGL/GUI/lvgl/src/core/lv_obj_style_gen.h **** }
 2921              		.loc 2 361 5 is_stmt 1 view .LVU789
 2922              	.LVL250:
 361:../../Middlewares/LVGL/GUI/lvgl/src/core/lv_obj_style_gen.h **** }
 2923              		.loc 2 361 5 is_stmt 0 view .LVU790
 2924              	.LBE215:
 2925              	.LBE214:
 337:../../Middlewares/LVGL/GUI/lvgl/src/core/lv_obj_draw.c ****         lv_opa_t outline_opa = lv_obj_get_style_outline_opa(obj, part);
 2926              		.loc 1 337 5 is_stmt 1 view .LVU791
 337:../../Middlewares/LVGL/GUI/lvgl/src/core/lv_obj_draw.c ****         lv_opa_t outline_opa = lv_obj_get_style_outline_opa(obj, part);
 2927              		.loc 1 337 7 is_stmt 0 view .LVU792
 2928 0022 0028     		cmp	r0, #0
 2929 0024 47D1     		bne	.L99
 2930              	.LVL251:
 2931              	.L94:
 345:../../Middlewares/LVGL/GUI/lvgl/src/core/lv_obj_draw.c ****     int32_t h = lv_obj_get_style_transform_height(obj, part);
 2932              		.loc 1 345 5 is_stmt 1 view .LVU793
 2933              	.LBB216:
 2934              	.LBI216:
  82:../../Middlewares/LVGL/GUI/lvgl/src/core/lv_obj_style_gen.h **** {
 2935              		.loc 2 82 23 view .LVU794
 2936              	.LBB217:
  84:../../Middlewares/LVGL/GUI/lvgl/src/core/lv_obj_style_gen.h ****     return (int32_t)v.num;
 2937              		.loc 2 84 5 view .LVU795
  84:../../Middlewares/LVGL/GUI/lvgl/src/core/lv_obj_style_gen.h ****     return (int32_t)v.num;
 2938              		.loc 2 84 26 is_stmt 0 view .LVU796
ARM GAS  C:\Users\28576\AppData\Local\Temp\cclWIAwm.s 			page 85


 2939 0026 6A22     		movs	r2, #106
 2940 0028 2946     		mov	r1, r5
 2941 002a 2046     		mov	r0, r4
 2942 002c FFF7FEFF 		bl	lv_obj_get_style_prop
 2943              	.LVL252:
 2944 0030 0646     		mov	r6, r0
 2945 0032 0190     		str	r0, [sp, #4]
  85:../../Middlewares/LVGL/GUI/lvgl/src/core/lv_obj_style_gen.h **** }
 2946              		.loc 2 85 5 is_stmt 1 view .LVU797
 2947              	.LVL253:
  85:../../Middlewares/LVGL/GUI/lvgl/src/core/lv_obj_style_gen.h **** }
 2948              		.loc 2 85 5 is_stmt 0 view .LVU798
 2949              	.LBE217:
 2950              	.LBE216:
 346:../../Middlewares/LVGL/GUI/lvgl/src/core/lv_obj_draw.c ****     int32_t wh = LV_MAX(w, h);
 2951              		.loc 1 346 5 is_stmt 1 view .LVU799
 2952              	.LBB218:
 2953              	.LBI218:
  88:../../Middlewares/LVGL/GUI/lvgl/src/core/lv_obj_style_gen.h **** {
 2954              		.loc 2 88 23 view .LVU800
 2955              	.LBB219:
  90:../../Middlewares/LVGL/GUI/lvgl/src/core/lv_obj_style_gen.h ****     return (int32_t)v.num;
 2956              		.loc 2 90 5 view .LVU801
  90:../../Middlewares/LVGL/GUI/lvgl/src/core/lv_obj_style_gen.h ****     return (int32_t)v.num;
 2957              		.loc 2 90 26 is_stmt 0 view .LVU802
 2958 0034 6B22     		movs	r2, #107
 2959 0036 2946     		mov	r1, r5
 2960 0038 2046     		mov	r0, r4
 2961              	.LVL254:
  90:../../Middlewares/LVGL/GUI/lvgl/src/core/lv_obj_style_gen.h ****     return (int32_t)v.num;
 2962              		.loc 2 90 26 view .LVU803
 2963 003a FFF7FEFF 		bl	lv_obj_get_style_prop
 2964              	.LVL255:
 2965 003e 0190     		str	r0, [sp, #4]
  91:../../Middlewares/LVGL/GUI/lvgl/src/core/lv_obj_style_gen.h **** }
 2966              		.loc 2 91 5 is_stmt 1 view .LVU804
 2967              	.LVL256:
  91:../../Middlewares/LVGL/GUI/lvgl/src/core/lv_obj_style_gen.h **** }
 2968              		.loc 2 91 5 is_stmt 0 view .LVU805
 2969              	.LBE219:
 2970              	.LBE218:
 347:../../Middlewares/LVGL/GUI/lvgl/src/core/lv_obj_draw.c ****     if(wh > 0) s += wh;
 2971              		.loc 1 347 5 is_stmt 1 view .LVU806
 347:../../Middlewares/LVGL/GUI/lvgl/src/core/lv_obj_draw.c ****     if(wh > 0) s += wh;
 2972              		.loc 1 347 13 is_stmt 0 view .LVU807
 2973 0040 B042     		cmp	r0, r6
 2974 0042 B8BF     		it	lt
 2975 0044 3046     		movlt	r0, r6
 2976              	.LVL257:
 348:../../Middlewares/LVGL/GUI/lvgl/src/core/lv_obj_draw.c **** 
 2977              		.loc 1 348 5 is_stmt 1 view .LVU808
 348:../../Middlewares/LVGL/GUI/lvgl/src/core/lv_obj_draw.c **** 
 2978              		.loc 1 348 7 is_stmt 0 view .LVU809
 2979 0046 0028     		cmp	r0, #0
 2980 0048 00DD     		ble	.L91
 348:../../Middlewares/LVGL/GUI/lvgl/src/core/lv_obj_draw.c **** 
 2981              		.loc 1 348 16 is_stmt 1 discriminator 1 view .LVU810
ARM GAS  C:\Users\28576\AppData\Local\Temp\cclWIAwm.s 			page 86


 348:../../Middlewares/LVGL/GUI/lvgl/src/core/lv_obj_draw.c **** 
 2982              		.loc 1 348 18 is_stmt 0 discriminator 1 view .LVU811
 2983 004a 0744     		add	r7, r7, r0
 2984              	.LVL258:
 350:../../Middlewares/LVGL/GUI/lvgl/src/core/lv_obj_draw.c ****     return s;
 2985              		.loc 1 350 25 is_stmt 1 view .LVU812
 351:../../Middlewares/LVGL/GUI/lvgl/src/core/lv_obj_draw.c **** }
 2986              		.loc 1 351 5 view .LVU813
 2987              	.L91:
 352:../../Middlewares/LVGL/GUI/lvgl/src/core/lv_obj_draw.c **** 
 2988              		.loc 1 352 1 is_stmt 0 view .LVU814
 2989 004c 3846     		mov	r0, r7
 2990              	.LVL259:
 352:../../Middlewares/LVGL/GUI/lvgl/src/core/lv_obj_draw.c **** 
 2991              		.loc 1 352 1 view .LVU815
 2992 004e 03B0     		add	sp, sp, #12
 2993              	.LCFI64:
 2994              		.cfi_remember_state
 2995              		.cfi_def_cfa_offset 20
 2996              		@ sp needed
 2997 0050 F0BD     		pop	{r4, r5, r6, r7, pc}
 2998              	.LVL260:
 2999              	.L98:
 3000              	.LCFI65:
 3001              		.cfi_restore_state
 3002              	.LBB220:
 325:../../Middlewares/LVGL/GUI/lvgl/src/core/lv_obj_draw.c ****         if(sh_opa > LV_OPA_MIN) {
 3003              		.loc 1 325 9 is_stmt 1 view .LVU816
 3004              	.LBB221:
 3005              	.LBI221:
 424:../../Middlewares/LVGL/GUI/lvgl/src/core/lv_obj_style_gen.h **** {
 3006              		.loc 2 424 24 view .LVU817
 3007              	.LBB222:
 426:../../Middlewares/LVGL/GUI/lvgl/src/core/lv_obj_style_gen.h ****     return (lv_opa_t)v.num;
 3008              		.loc 2 426 5 view .LVU818
 426:../../Middlewares/LVGL/GUI/lvgl/src/core/lv_obj_style_gen.h ****     return (lv_opa_t)v.num;
 3009              		.loc 2 426 26 is_stmt 0 view .LVU819
 3010 0052 3E22     		movs	r2, #62
 3011 0054 2946     		mov	r1, r5
 3012 0056 2046     		mov	r0, r4
 3013              	.LVL261:
 426:../../Middlewares/LVGL/GUI/lvgl/src/core/lv_obj_style_gen.h ****     return (lv_opa_t)v.num;
 3014              		.loc 2 426 26 view .LVU820
 3015 0058 FFF7FEFF 		bl	lv_obj_get_style_prop
 3016              	.LVL262:
 3017 005c 0190     		str	r0, [sp, #4]
 427:../../Middlewares/LVGL/GUI/lvgl/src/core/lv_obj_style_gen.h **** }
 3018              		.loc 2 427 5 is_stmt 1 view .LVU821
 427:../../Middlewares/LVGL/GUI/lvgl/src/core/lv_obj_style_gen.h **** }
 3019              		.loc 2 427 12 is_stmt 0 view .LVU822
 3020 005e C0B2     		uxtb	r0, r0
 3021              	.LVL263:
 427:../../Middlewares/LVGL/GUI/lvgl/src/core/lv_obj_style_gen.h **** }
 3022              		.loc 2 427 12 view .LVU823
 3023              	.LBE222:
 3024              	.LBE221:
 326:../../Middlewares/LVGL/GUI/lvgl/src/core/lv_obj_draw.c ****             sh_width = sh_width / 2 + 1;    /*The blur adds only half width*/
ARM GAS  C:\Users\28576\AppData\Local\Temp\cclWIAwm.s 			page 87


 3025              		.loc 1 326 9 is_stmt 1 view .LVU824
 326:../../Middlewares/LVGL/GUI/lvgl/src/core/lv_obj_draw.c ****             sh_width = sh_width / 2 + 1;    /*The blur adds only half width*/
 3026              		.loc 1 326 11 is_stmt 0 view .LVU825
 3027 0060 0228     		cmp	r0, #2
 3028 0062 01D8     		bhi	.L100
 3029              	.LBE220:
 321:../../Middlewares/LVGL/GUI/lvgl/src/core/lv_obj_draw.c **** 
 3030              		.loc 1 321 13 view .LVU826
 3031 0064 0027     		movs	r7, #0
 3032              	.LVL264:
 321:../../Middlewares/LVGL/GUI/lvgl/src/core/lv_obj_draw.c **** 
 3033              		.loc 1 321 13 view .LVU827
 3034 0066 D5E7     		b	.L92
 3035              	.LVL265:
 3036              	.L100:
 3037              	.LBB230:
 3038              	.LBB223:
 327:../../Middlewares/LVGL/GUI/lvgl/src/core/lv_obj_draw.c ****             sh_width += lv_obj_get_style_shadow_spread(obj, part);
 3039              		.loc 1 327 13 is_stmt 1 view .LVU828
 327:../../Middlewares/LVGL/GUI/lvgl/src/core/lv_obj_draw.c ****             sh_width += lv_obj_get_style_shadow_spread(obj, part);
 3040              		.loc 1 327 33 is_stmt 0 view .LVU829
 3041 0068 002F     		cmp	r7, #0
 3042 006a 22DB     		blt	.L101
 3043              	.LVL266:
 3044              	.L93:
 327:../../Middlewares/LVGL/GUI/lvgl/src/core/lv_obj_draw.c ****             sh_width += lv_obj_get_style_shadow_spread(obj, part);
 3045              		.loc 1 327 33 view .LVU830
 3046 006c 7F10     		asrs	r7, r7, #1
 327:../../Middlewares/LVGL/GUI/lvgl/src/core/lv_obj_draw.c ****             sh_width += lv_obj_get_style_shadow_spread(obj, part);
 3047              		.loc 1 327 22 view .LVU831
 3048 006e 0137     		adds	r7, r7, #1
 3049              	.LVL267:
 328:../../Middlewares/LVGL/GUI/lvgl/src/core/lv_obj_draw.c ****             int32_t sh_ofs_x = lv_obj_get_style_shadow_offset_x(obj, part);
 3050              		.loc 1 328 13 is_stmt 1 view .LVU832
 3051              	.LBB224:
 3052              	.LBI224:
 406:../../Middlewares/LVGL/GUI/lvgl/src/core/lv_obj_style_gen.h **** {
 3053              		.loc 2 406 23 view .LVU833
 3054              	.LBB225:
 408:../../Middlewares/LVGL/GUI/lvgl/src/core/lv_obj_style_gen.h ****     return (int32_t)v.num;
 3055              		.loc 2 408 5 view .LVU834
 408:../../Middlewares/LVGL/GUI/lvgl/src/core/lv_obj_style_gen.h ****     return (int32_t)v.num;
 3056              		.loc 2 408 26 is_stmt 0 view .LVU835
 3057 0070 4222     		movs	r2, #66
 3058 0072 2946     		mov	r1, r5
 3059 0074 2046     		mov	r0, r4
 3060              	.LVL268:
 408:../../Middlewares/LVGL/GUI/lvgl/src/core/lv_obj_style_gen.h ****     return (int32_t)v.num;
 3061              		.loc 2 408 26 view .LVU836
 3062 0076 FFF7FEFF 		bl	lv_obj_get_style_prop
 3063              	.LVL269:
 408:../../Middlewares/LVGL/GUI/lvgl/src/core/lv_obj_style_gen.h ****     return (int32_t)v.num;
 3064              		.loc 2 408 26 view .LVU837
 3065 007a 0190     		str	r0, [sp, #4]
 409:../../Middlewares/LVGL/GUI/lvgl/src/core/lv_obj_style_gen.h **** }
 3066              		.loc 2 409 5 is_stmt 1 view .LVU838
 3067              	.LVL270:
ARM GAS  C:\Users\28576\AppData\Local\Temp\cclWIAwm.s 			page 88


 409:../../Middlewares/LVGL/GUI/lvgl/src/core/lv_obj_style_gen.h **** }
 3068              		.loc 2 409 5 is_stmt 0 view .LVU839
 3069              	.LBE225:
 3070              	.LBE224:
 328:../../Middlewares/LVGL/GUI/lvgl/src/core/lv_obj_draw.c ****             int32_t sh_ofs_x = lv_obj_get_style_shadow_offset_x(obj, part);
 3071              		.loc 1 328 22 discriminator 1 view .LVU840
 3072 007c 0744     		add	r7, r7, r0
 3073              	.LVL271:
 329:../../Middlewares/LVGL/GUI/lvgl/src/core/lv_obj_draw.c ****             int32_t sh_ofs_y = lv_obj_get_style_shadow_offset_y(obj, part);
 3074              		.loc 1 329 13 is_stmt 1 view .LVU841
 3075              	.LBB226:
 3076              	.LBI226:
 394:../../Middlewares/LVGL/GUI/lvgl/src/core/lv_obj_style_gen.h **** {
 3077              		.loc 2 394 23 view .LVU842
 3078              	.LBB227:
 396:../../Middlewares/LVGL/GUI/lvgl/src/core/lv_obj_style_gen.h ****     return (int32_t)v.num;
 3079              		.loc 2 396 5 view .LVU843
 396:../../Middlewares/LVGL/GUI/lvgl/src/core/lv_obj_style_gen.h ****     return (int32_t)v.num;
 3080              		.loc 2 396 26 is_stmt 0 view .LVU844
 3081 007e 4022     		movs	r2, #64
 3082 0080 2946     		mov	r1, r5
 3083 0082 2046     		mov	r0, r4
 3084 0084 FFF7FEFF 		bl	lv_obj_get_style_prop
 3085              	.LVL272:
 3086 0088 0646     		mov	r6, r0
 3087 008a 0190     		str	r0, [sp, #4]
 397:../../Middlewares/LVGL/GUI/lvgl/src/core/lv_obj_style_gen.h **** }
 3088              		.loc 2 397 5 is_stmt 1 view .LVU845
 3089              	.LVL273:
 397:../../Middlewares/LVGL/GUI/lvgl/src/core/lv_obj_style_gen.h **** }
 3090              		.loc 2 397 5 is_stmt 0 view .LVU846
 3091              	.LBE227:
 3092              	.LBE226:
 330:../../Middlewares/LVGL/GUI/lvgl/src/core/lv_obj_draw.c ****             sh_width += LV_MAX(LV_ABS(sh_ofs_x), LV_ABS(sh_ofs_y));
 3093              		.loc 1 330 13 is_stmt 1 view .LVU847
 3094              	.LBB228:
 3095              	.LBI228:
 400:../../Middlewares/LVGL/GUI/lvgl/src/core/lv_obj_style_gen.h **** {
 3096              		.loc 2 400 23 view .LVU848
 3097              	.LBB229:
 402:../../Middlewares/LVGL/GUI/lvgl/src/core/lv_obj_style_gen.h ****     return (int32_t)v.num;
 3098              		.loc 2 402 5 view .LVU849
 402:../../Middlewares/LVGL/GUI/lvgl/src/core/lv_obj_style_gen.h ****     return (int32_t)v.num;
 3099              		.loc 2 402 26 is_stmt 0 view .LVU850
 3100 008c 4122     		movs	r2, #65
 3101 008e 2946     		mov	r1, r5
 3102 0090 2046     		mov	r0, r4
 3103              	.LVL274:
 402:../../Middlewares/LVGL/GUI/lvgl/src/core/lv_obj_style_gen.h ****     return (int32_t)v.num;
 3104              		.loc 2 402 26 view .LVU851
 3105 0092 FFF7FEFF 		bl	lv_obj_get_style_prop
 3106              	.LVL275:
 3107 0096 0190     		str	r0, [sp, #4]
 403:../../Middlewares/LVGL/GUI/lvgl/src/core/lv_obj_style_gen.h **** }
 3108              		.loc 2 403 5 is_stmt 1 view .LVU852
 3109              	.LVL276:
 403:../../Middlewares/LVGL/GUI/lvgl/src/core/lv_obj_style_gen.h **** }
ARM GAS  C:\Users\28576\AppData\Local\Temp\cclWIAwm.s 			page 89


 3110              		.loc 2 403 5 is_stmt 0 view .LVU853
 3111              	.LBE229:
 3112              	.LBE228:
 331:../../Middlewares/LVGL/GUI/lvgl/src/core/lv_obj_draw.c ****             s = LV_MAX(s, sh_width);
 3113              		.loc 1 331 13 is_stmt 1 view .LVU854
 331:../../Middlewares/LVGL/GUI/lvgl/src/core/lv_obj_draw.c ****             s = LV_MAX(s, sh_width);
 3114              		.loc 1 331 25 is_stmt 0 view .LVU855
 3115 0098 0028     		cmp	r0, #0
 3116 009a B8BF     		it	lt
 3117 009c 4042     		rsblt	r0, r0, #0
 3118              	.LVL277:
 331:../../Middlewares/LVGL/GUI/lvgl/src/core/lv_obj_draw.c ****             s = LV_MAX(s, sh_width);
 3119              		.loc 1 331 25 view .LVU856
 3120 009e 002E     		cmp	r6, #0
 3121 00a0 B8BF     		it	lt
 3122 00a2 7642     		rsblt	r6, r6, #0
 3123              	.LVL278:
 331:../../Middlewares/LVGL/GUI/lvgl/src/core/lv_obj_draw.c ****             s = LV_MAX(s, sh_width);
 3124              		.loc 1 331 22 view .LVU857
 3125 00a4 B042     		cmp	r0, r6
 3126 00a6 ACBF     		ite	ge
 3127 00a8 3F18     		addge	r7, r7, r0
 3128 00aa BF19     		addlt	r7, r7, r6
 3129              	.LVL279:
 332:../../Middlewares/LVGL/GUI/lvgl/src/core/lv_obj_draw.c ****         }
 3130              		.loc 1 332 13 is_stmt 1 view .LVU858
 332:../../Middlewares/LVGL/GUI/lvgl/src/core/lv_obj_draw.c ****         }
 3131              		.loc 1 332 15 is_stmt 0 view .LVU859
 3132 00ac 27EAE777 		bic	r7, r7, r7, asr #31
 3133              	.LVL280:
 332:../../Middlewares/LVGL/GUI/lvgl/src/core/lv_obj_draw.c ****         }
 3134              		.loc 1 332 15 view .LVU860
 3135 00b0 B0E7     		b	.L92
 3136              	.LVL281:
 3137              	.L101:
 327:../../Middlewares/LVGL/GUI/lvgl/src/core/lv_obj_draw.c ****             sh_width += lv_obj_get_style_shadow_spread(obj, part);
 3138              		.loc 1 327 33 view .LVU861
 3139 00b2 0137     		adds	r7, r7, #1
 3140              	.LVL282:
 327:../../Middlewares/LVGL/GUI/lvgl/src/core/lv_obj_draw.c ****             sh_width += lv_obj_get_style_shadow_spread(obj, part);
 3141              		.loc 1 327 33 view .LVU862
 3142 00b4 DAE7     		b	.L93
 3143              	.LVL283:
 3144              	.L99:
 327:../../Middlewares/LVGL/GUI/lvgl/src/core/lv_obj_draw.c ****             sh_width += lv_obj_get_style_shadow_spread(obj, part);
 3145              		.loc 1 327 33 view .LVU863
 3146              	.LBE223:
 3147              	.LBE230:
 3148              	.LBB231:
 338:../../Middlewares/LVGL/GUI/lvgl/src/core/lv_obj_draw.c ****         if(outline_opa > LV_OPA_MIN) {
 3149              		.loc 1 338 9 is_stmt 1 view .LVU864
 3150              	.LBB232:
 3151              	.LBI232:
 376:../../Middlewares/LVGL/GUI/lvgl/src/core/lv_obj_style_gen.h **** {
 3152              		.loc 2 376 24 view .LVU865
 3153              	.LBB233:
 378:../../Middlewares/LVGL/GUI/lvgl/src/core/lv_obj_style_gen.h ****     return (lv_opa_t)v.num;
ARM GAS  C:\Users\28576\AppData\Local\Temp\cclWIAwm.s 			page 90


 3154              		.loc 2 378 5 view .LVU866
 378:../../Middlewares/LVGL/GUI/lvgl/src/core/lv_obj_style_gen.h ****     return (lv_opa_t)v.num;
 3155              		.loc 2 378 26 is_stmt 0 view .LVU867
 3156 00b6 3A22     		movs	r2, #58
 3157 00b8 2946     		mov	r1, r5
 3158 00ba 2046     		mov	r0, r4
 3159              	.LVL284:
 378:../../Middlewares/LVGL/GUI/lvgl/src/core/lv_obj_style_gen.h ****     return (lv_opa_t)v.num;
 3160              		.loc 2 378 26 view .LVU868
 3161 00bc FFF7FEFF 		bl	lv_obj_get_style_prop
 3162              	.LVL285:
 3163 00c0 0190     		str	r0, [sp, #4]
 379:../../Middlewares/LVGL/GUI/lvgl/src/core/lv_obj_style_gen.h **** }
 3164              		.loc 2 379 5 is_stmt 1 view .LVU869
 379:../../Middlewares/LVGL/GUI/lvgl/src/core/lv_obj_style_gen.h **** }
 3165              		.loc 2 379 12 is_stmt 0 view .LVU870
 3166 00c2 C0B2     		uxtb	r0, r0
 3167              	.LVL286:
 379:../../Middlewares/LVGL/GUI/lvgl/src/core/lv_obj_style_gen.h **** }
 3168              		.loc 2 379 12 view .LVU871
 3169              	.LBE233:
 3170              	.LBE232:
 339:../../Middlewares/LVGL/GUI/lvgl/src/core/lv_obj_draw.c ****             int32_t outline_pad = lv_obj_get_style_outline_pad(obj, part);
 3171              		.loc 1 339 9 is_stmt 1 view .LVU872
 339:../../Middlewares/LVGL/GUI/lvgl/src/core/lv_obj_draw.c ****             int32_t outline_pad = lv_obj_get_style_outline_pad(obj, part);
 3172              		.loc 1 339 11 is_stmt 0 view .LVU873
 3173 00c4 0228     		cmp	r0, #2
 3174 00c6 AED9     		bls	.L94
 3175              	.LBB234:
 340:../../Middlewares/LVGL/GUI/lvgl/src/core/lv_obj_draw.c ****             s = LV_MAX(s, outline_pad + outline_width);
 3176              		.loc 1 340 13 is_stmt 1 view .LVU874
 3177              	.LVL287:
 3178              	.LBB235:
 3179              	.LBI235:
 382:../../Middlewares/LVGL/GUI/lvgl/src/core/lv_obj_style_gen.h **** {
 3180              		.loc 2 382 23 view .LVU875
 3181              	.LBB236:
 384:../../Middlewares/LVGL/GUI/lvgl/src/core/lv_obj_style_gen.h ****     return (int32_t)v.num;
 3182              		.loc 2 384 5 view .LVU876
 384:../../Middlewares/LVGL/GUI/lvgl/src/core/lv_obj_style_gen.h ****     return (int32_t)v.num;
 3183              		.loc 2 384 26 is_stmt 0 view .LVU877
 3184 00c8 3B22     		movs	r2, #59
 3185 00ca 2946     		mov	r1, r5
 3186 00cc 2046     		mov	r0, r4
 3187              	.LVL288:
 384:../../Middlewares/LVGL/GUI/lvgl/src/core/lv_obj_style_gen.h ****     return (int32_t)v.num;
 3188              		.loc 2 384 26 view .LVU878
 3189 00ce FFF7FEFF 		bl	lv_obj_get_style_prop
 3190              	.LVL289:
 384:../../Middlewares/LVGL/GUI/lvgl/src/core/lv_obj_style_gen.h ****     return (int32_t)v.num;
 3191              		.loc 2 384 26 view .LVU879
 3192 00d2 0190     		str	r0, [sp, #4]
 385:../../Middlewares/LVGL/GUI/lvgl/src/core/lv_obj_style_gen.h **** }
 3193              		.loc 2 385 5 is_stmt 1 view .LVU880
 3194              	.LVL290:
 385:../../Middlewares/LVGL/GUI/lvgl/src/core/lv_obj_style_gen.h **** }
 3195              		.loc 2 385 5 is_stmt 0 view .LVU881
ARM GAS  C:\Users\28576\AppData\Local\Temp\cclWIAwm.s 			page 91


 3196              	.LBE236:
 3197              	.LBE235:
 341:../../Middlewares/LVGL/GUI/lvgl/src/core/lv_obj_draw.c ****         }
 3198              		.loc 1 341 13 is_stmt 1 view .LVU882
 341:../../Middlewares/LVGL/GUI/lvgl/src/core/lv_obj_draw.c ****         }
 3199              		.loc 1 341 17 is_stmt 0 view .LVU883
 3200 00d4 0644     		add	r6, r6, r0
 3201              	.LVL291:
 341:../../Middlewares/LVGL/GUI/lvgl/src/core/lv_obj_draw.c ****         }
 3202              		.loc 1 341 15 view .LVU884
 3203 00d6 B742     		cmp	r7, r6
 3204 00d8 B8BF     		it	lt
 3205 00da 3746     		movlt	r7, r6
 3206              	.LVL292:
 341:../../Middlewares/LVGL/GUI/lvgl/src/core/lv_obj_draw.c ****         }
 3207              		.loc 1 341 15 view .LVU885
 3208 00dc A3E7     		b	.L94
 3209              	.LBE234:
 3210              	.LBE231:
 3211              		.cfi_endproc
 3212              	.LFE177:
 3214              		.section	.text.lv_obj_get_ext_draw_size,"ax",%progbits
 3215              		.align	1
 3216              		.global	lv_obj_get_ext_draw_size
 3217              		.syntax unified
 3218              		.thumb
 3219              		.thumb_func
 3221              	lv_obj_get_ext_draw_size:
 3222              	.LVL293:
 3223              	.LFB179:
 379:../../Middlewares/LVGL/GUI/lvgl/src/core/lv_obj_draw.c ****     if(obj->spec_attr) return obj->spec_attr->ext_draw_size;
 3224              		.loc 1 379 1 is_stmt 1 view -0
 3225              		.cfi_startproc
 3226              		@ args = 0, pretend = 0, frame = 0
 3227              		@ frame_needed = 0, uses_anonymous_args = 0
 3228              		@ link register save eliminated.
 380:../../Middlewares/LVGL/GUI/lvgl/src/core/lv_obj_draw.c ****     else return 0;
 3229              		.loc 1 380 5 view .LVU887
 380:../../Middlewares/LVGL/GUI/lvgl/src/core/lv_obj_draw.c ****     else return 0;
 3230              		.loc 1 380 11 is_stmt 0 view .LVU888
 3231 0000 8368     		ldr	r3, [r0, #8]
 380:../../Middlewares/LVGL/GUI/lvgl/src/core/lv_obj_draw.c ****     else return 0;
 3232              		.loc 1 380 7 view .LVU889
 3233 0002 0BB1     		cbz	r3, .L104
 380:../../Middlewares/LVGL/GUI/lvgl/src/core/lv_obj_draw.c ****     else return 0;
 3234              		.loc 1 380 24 is_stmt 1 discriminator 1 view .LVU890
 380:../../Middlewares/LVGL/GUI/lvgl/src/core/lv_obj_draw.c ****     else return 0;
 3235              		.loc 1 380 45 is_stmt 0 discriminator 1 view .LVU891
 3236 0004 D86A     		ldr	r0, [r3, #44]
 3237              	.LVL294:
 380:../../Middlewares/LVGL/GUI/lvgl/src/core/lv_obj_draw.c ****     else return 0;
 3238              		.loc 1 380 45 view .LVU892
 3239 0006 7047     		bx	lr
 3240              	.LVL295:
 3241              	.L104:
 381:../../Middlewares/LVGL/GUI/lvgl/src/core/lv_obj_draw.c **** }
 3242              		.loc 1 381 17 view .LVU893
ARM GAS  C:\Users\28576\AppData\Local\Temp\cclWIAwm.s 			page 92


 3243 0008 1846     		mov	r0, r3
 3244              	.LVL296:
 382:../../Middlewares/LVGL/GUI/lvgl/src/core/lv_obj_draw.c **** 
 3245              		.loc 1 382 1 view .LVU894
 3246 000a 7047     		bx	lr
 3247              		.cfi_endproc
 3248              	.LFE179:
 3250              		.section	.text.lv_obj_refresh_ext_draw_size,"ax",%progbits
 3251              		.align	1
 3252              		.global	lv_obj_refresh_ext_draw_size
 3253              		.syntax unified
 3254              		.thumb
 3255              		.thumb_func
 3257              	lv_obj_refresh_ext_draw_size:
 3258              	.LVL297:
 3259              	.LFB178:
 355:../../Middlewares/LVGL/GUI/lvgl/src/core/lv_obj_draw.c ****     LV_PROFILER_DRAW_BEGIN;
 3260              		.loc 1 355 1 is_stmt 1 view -0
 3261              		.cfi_startproc
 3262              		@ args = 0, pretend = 0, frame = 8
 3263              		@ frame_needed = 0, uses_anonymous_args = 0
 356:../../Middlewares/LVGL/GUI/lvgl/src/core/lv_obj_draw.c ****     LV_ASSERT_OBJ(obj, MY_CLASS);
 3264              		.loc 1 356 27 view .LVU896
 357:../../Middlewares/LVGL/GUI/lvgl/src/core/lv_obj_draw.c **** 
 3265              		.loc 1 357 5 view .LVU897
 357:../../Middlewares/LVGL/GUI/lvgl/src/core/lv_obj_draw.c **** 
 3266              		.loc 1 357 5 view .LVU898
 3267 0000 A8B1     		cbz	r0, .L107
 355:../../Middlewares/LVGL/GUI/lvgl/src/core/lv_obj_draw.c ****     LV_PROFILER_DRAW_BEGIN;
 3268              		.loc 1 355 1 is_stmt 0 view .LVU899
 3269 0002 30B5     		push	{r4, r5, lr}
 3270              	.LCFI66:
 3271              		.cfi_def_cfa_offset 12
 3272              		.cfi_offset 4, -12
 3273              		.cfi_offset 5, -8
 3274              		.cfi_offset 14, -4
 3275 0004 83B0     		sub	sp, sp, #12
 3276              	.LCFI67:
 3277              		.cfi_def_cfa_offset 24
 3278 0006 0446     		mov	r4, r0
 357:../../Middlewares/LVGL/GUI/lvgl/src/core/lv_obj_draw.c **** 
 3279              		.loc 1 357 5 is_stmt 1 view .LVU900
 357:../../Middlewares/LVGL/GUI/lvgl/src/core/lv_obj_draw.c **** 
 3280              		.loc 1 357 33 view .LVU901
 359:../../Middlewares/LVGL/GUI/lvgl/src/core/lv_obj_draw.c ****     int32_t s_new = 0;
 3281              		.loc 1 359 5 view .LVU902
 359:../../Middlewares/LVGL/GUI/lvgl/src/core/lv_obj_draw.c ****     int32_t s_new = 0;
 3282              		.loc 1 359 21 is_stmt 0 view .LVU903
 3283 0008 FFF7FEFF 		bl	lv_obj_get_ext_draw_size
 3284              	.LVL298:
 359:../../Middlewares/LVGL/GUI/lvgl/src/core/lv_obj_draw.c ****     int32_t s_new = 0;
 3285              		.loc 1 359 21 view .LVU904
 3286 000c 0546     		mov	r5, r0
 3287              	.LVL299:
 360:../../Middlewares/LVGL/GUI/lvgl/src/core/lv_obj_draw.c ****     lv_obj_send_event(obj, LV_EVENT_REFR_EXT_DRAW_SIZE, &s_new);
 3288              		.loc 1 360 5 is_stmt 1 view .LVU905
 360:../../Middlewares/LVGL/GUI/lvgl/src/core/lv_obj_draw.c ****     lv_obj_send_event(obj, LV_EVENT_REFR_EXT_DRAW_SIZE, &s_new);
ARM GAS  C:\Users\28576\AppData\Local\Temp\cclWIAwm.s 			page 93


 3289              		.loc 1 360 13 is_stmt 0 view .LVU906
 3290 000e 0023     		movs	r3, #0
 3291 0010 0193     		str	r3, [sp, #4]
 361:../../Middlewares/LVGL/GUI/lvgl/src/core/lv_obj_draw.c **** 
 3292              		.loc 1 361 5 is_stmt 1 view .LVU907
 3293 0012 01AA     		add	r2, sp, #4
 3294 0014 1B21     		movs	r1, #27
 3295 0016 2046     		mov	r0, r4
 3296              	.LVL300:
 361:../../Middlewares/LVGL/GUI/lvgl/src/core/lv_obj_draw.c **** 
 3297              		.loc 1 361 5 is_stmt 0 view .LVU908
 3298 0018 FFF7FEFF 		bl	lv_obj_send_event
 3299              	.LVL301:
 364:../../Middlewares/LVGL/GUI/lvgl/src/core/lv_obj_draw.c ****         obj->spec_attr->ext_draw_size = s_new;
 3300              		.loc 1 364 5 is_stmt 1 view .LVU909
 364:../../Middlewares/LVGL/GUI/lvgl/src/core/lv_obj_draw.c ****         obj->spec_attr->ext_draw_size = s_new;
 3301              		.loc 1 364 11 is_stmt 0 view .LVU910
 3302 001c A368     		ldr	r3, [r4, #8]
 364:../../Middlewares/LVGL/GUI/lvgl/src/core/lv_obj_draw.c ****         obj->spec_attr->ext_draw_size = s_new;
 3303              		.loc 1 364 7 view .LVU911
 3304 001e 3BB1     		cbz	r3, .L108
 365:../../Middlewares/LVGL/GUI/lvgl/src/core/lv_obj_draw.c ****     }
 3305              		.loc 1 365 9 is_stmt 1 view .LVU912
 365:../../Middlewares/LVGL/GUI/lvgl/src/core/lv_obj_draw.c ****     }
 3306              		.loc 1 365 39 is_stmt 0 view .LVU913
 3307 0020 019A     		ldr	r2, [sp, #4]
 3308 0022 DA62     		str	r2, [r3, #44]
 3309              	.L109:
 374:../../Middlewares/LVGL/GUI/lvgl/src/core/lv_obj_draw.c ****     LV_PROFILER_DRAW_END;
 3310              		.loc 1 374 5 is_stmt 1 view .LVU914
 374:../../Middlewares/LVGL/GUI/lvgl/src/core/lv_obj_draw.c ****     LV_PROFILER_DRAW_END;
 3311              		.loc 1 374 14 is_stmt 0 view .LVU915
 3312 0024 019B     		ldr	r3, [sp, #4]
 374:../../Middlewares/LVGL/GUI/lvgl/src/core/lv_obj_draw.c ****     LV_PROFILER_DRAW_END;
 3313              		.loc 1 374 7 view .LVU916
 3314 0026 AB42     		cmp	r3, r5
 3315 0028 0CD1     		bne	.L113
 3316              	.L105:
 376:../../Middlewares/LVGL/GUI/lvgl/src/core/lv_obj_draw.c **** 
 3317              		.loc 1 376 1 view .LVU917
 3318 002a 03B0     		add	sp, sp, #12
 3319              	.LCFI68:
 3320              		.cfi_def_cfa_offset 12
 3321              		@ sp needed
 3322 002c 30BD     		pop	{r4, r5, pc}
 3323              	.LVL302:
 3324              	.L107:
 3325              	.LCFI69:
 3326              		.cfi_def_cfa_offset 0
 3327              		.cfi_restore 4
 3328              		.cfi_restore 5
 3329              		.cfi_restore 14
 357:../../Middlewares/LVGL/GUI/lvgl/src/core/lv_obj_draw.c **** 
 3330              		.loc 1 357 5 is_stmt 1 view .LVU918
 357:../../Middlewares/LVGL/GUI/lvgl/src/core/lv_obj_draw.c **** 
 3331              		.loc 1 357 5 view .LVU919
 357:../../Middlewares/LVGL/GUI/lvgl/src/core/lv_obj_draw.c **** 
ARM GAS  C:\Users\28576\AppData\Local\Temp\cclWIAwm.s 			page 94


 3332              		.loc 1 357 5 view .LVU920
 357:../../Middlewares/LVGL/GUI/lvgl/src/core/lv_obj_draw.c **** 
 3333              		.loc 1 357 5 view .LVU921
 357:../../Middlewares/LVGL/GUI/lvgl/src/core/lv_obj_draw.c **** 
 3334              		.loc 1 357 5 view .LVU922
 3335 002e FEE7     		b	.L107
 3336              	.LVL303:
 3337              	.L108:
 3338              	.LCFI70:
 3339              		.cfi_def_cfa_offset 24
 3340              		.cfi_offset 4, -12
 3341              		.cfi_offset 5, -8
 3342              		.cfi_offset 14, -4
 369:../../Middlewares/LVGL/GUI/lvgl/src/core/lv_obj_draw.c ****         lv_obj_allocate_spec_attr(obj);
 3343              		.loc 1 369 10 view .LVU923
 369:../../Middlewares/LVGL/GUI/lvgl/src/core/lv_obj_draw.c ****         lv_obj_allocate_spec_attr(obj);
 3344              		.loc 1 369 19 is_stmt 0 view .LVU924
 3345 0030 019B     		ldr	r3, [sp, #4]
 369:../../Middlewares/LVGL/GUI/lvgl/src/core/lv_obj_draw.c ****         lv_obj_allocate_spec_attr(obj);
 3346              		.loc 1 369 12 view .LVU925
 3347 0032 002B     		cmp	r3, #0
 3348 0034 F6D0     		beq	.L109
 370:../../Middlewares/LVGL/GUI/lvgl/src/core/lv_obj_draw.c ****         obj->spec_attr->ext_draw_size = s_new;
 3349              		.loc 1 370 9 is_stmt 1 view .LVU926
 3350 0036 2046     		mov	r0, r4
 3351 0038 FFF7FEFF 		bl	lv_obj_allocate_spec_attr
 3352              	.LVL304:
 371:../../Middlewares/LVGL/GUI/lvgl/src/core/lv_obj_draw.c ****     }
 3353              		.loc 1 371 9 view .LVU927
 371:../../Middlewares/LVGL/GUI/lvgl/src/core/lv_obj_draw.c ****     }
 3354              		.loc 1 371 12 is_stmt 0 view .LVU928
 3355 003c A368     		ldr	r3, [r4, #8]
 371:../../Middlewares/LVGL/GUI/lvgl/src/core/lv_obj_draw.c ****     }
 3356              		.loc 1 371 39 view .LVU929
 3357 003e 019A     		ldr	r2, [sp, #4]
 3358 0040 DA62     		str	r2, [r3, #44]
 3359 0042 EFE7     		b	.L109
 3360              	.L113:
 374:../../Middlewares/LVGL/GUI/lvgl/src/core/lv_obj_draw.c ****     LV_PROFILER_DRAW_END;
 3361              		.loc 1 374 24 is_stmt 1 discriminator 1 view .LVU930
 3362 0044 2046     		mov	r0, r4
 3363 0046 FFF7FEFF 		bl	lv_obj_invalidate
 3364              	.LVL305:
 375:../../Middlewares/LVGL/GUI/lvgl/src/core/lv_obj_draw.c **** }
 3365              		.loc 1 375 25 view .LVU931
 376:../../Middlewares/LVGL/GUI/lvgl/src/core/lv_obj_draw.c **** 
 3366              		.loc 1 376 1 is_stmt 0 view .LVU932
 3367 004a EEE7     		b	.L105
 3368              		.cfi_endproc
 3369              	.LFE178:
 3371              		.section	.text.lv_obj_get_layer_type,"ax",%progbits
 3372              		.align	1
 3373              		.global	lv_obj_get_layer_type
 3374              		.syntax unified
 3375              		.thumb
 3376              		.thumb_func
 3378              	lv_obj_get_layer_type:
ARM GAS  C:\Users\28576\AppData\Local\Temp\cclWIAwm.s 			page 95


 3379              	.LVL306:
 3380              	.LFB180:
 385:../../Middlewares/LVGL/GUI/lvgl/src/core/lv_obj_draw.c **** 
 3381              		.loc 1 385 1 is_stmt 1 view -0
 3382              		.cfi_startproc
 3383              		@ args = 0, pretend = 0, frame = 0
 3384              		@ frame_needed = 0, uses_anonymous_args = 0
 3385              		@ link register save eliminated.
 387:../../Middlewares/LVGL/GUI/lvgl/src/core/lv_obj_draw.c ****     else return LV_LAYER_TYPE_NONE;
 3386              		.loc 1 387 5 view .LVU934
 387:../../Middlewares/LVGL/GUI/lvgl/src/core/lv_obj_draw.c ****     else return LV_LAYER_TYPE_NONE;
 3387              		.loc 1 387 11 is_stmt 0 view .LVU935
 3388 0000 8368     		ldr	r3, [r0, #8]
 387:../../Middlewares/LVGL/GUI/lvgl/src/core/lv_obj_draw.c ****     else return LV_LAYER_TYPE_NONE;
 3389              		.loc 1 387 7 view .LVU936
 3390 0002 23B1     		cbz	r3, .L116
 387:../../Middlewares/LVGL/GUI/lvgl/src/core/lv_obj_draw.c ****     else return LV_LAYER_TYPE_NONE;
 3391              		.loc 1 387 24 is_stmt 1 discriminator 1 view .LVU937
 387:../../Middlewares/LVGL/GUI/lvgl/src/core/lv_obj_draw.c ****     else return LV_LAYER_TYPE_NONE;
 3392              		.loc 1 387 62 is_stmt 0 discriminator 1 view .LVU938
 3393 0004 93F83300 		ldrb	r0, [r3, #51]	@ zero_extendqisi2
 3394              	.LVL307:
 387:../../Middlewares/LVGL/GUI/lvgl/src/core/lv_obj_draw.c ****     else return LV_LAYER_TYPE_NONE;
 3395              		.loc 1 387 62 discriminator 1 view .LVU939
 3396 0008 C0F38100 		ubfx	r0, r0, #2, #2
 387:../../Middlewares/LVGL/GUI/lvgl/src/core/lv_obj_draw.c ****     else return LV_LAYER_TYPE_NONE;
 3397              		.loc 1 387 31 view .LVU940
 3398 000c 7047     		bx	lr
 3399              	.LVL308:
 3400              	.L116:
 388:../../Middlewares/LVGL/GUI/lvgl/src/core/lv_obj_draw.c **** }
 3401              		.loc 1 388 17 view .LVU941
 3402 000e 1846     		mov	r0, r3
 3403              	.LVL309:
 389:../../Middlewares/LVGL/GUI/lvgl/src/core/lv_obj_draw.c **** 
 3404              		.loc 1 389 1 view .LVU942
 3405 0010 7047     		bx	lr
 3406              		.cfi_endproc
 3407              	.LFE180:
 3409              		.text
 3410              	.Letext0:
 3411              		.file 3 "C:/Users/28576/AppData/Roaming/xPacks/@xpack-dev-tools/arm-none-eabi-gcc/15.2.1-1.1.1/.co
 3412              		.file 4 "C:/Users/28576/AppData/Roaming/xPacks/@xpack-dev-tools/arm-none-eabi-gcc/15.2.1-1.1.1/.co
 3413              		.file 5 "C:/Users/28576/AppData/Roaming/xPacks/@xpack-dev-tools/arm-none-eabi-gcc/15.2.1-1.1.1/.co
 3414              		.file 6 "../../Middlewares/LVGL/GUI/lvgl/src/core/../misc/lv_types.h"
 3415              		.file 7 "../../Middlewares/LVGL/GUI/lvgl/src/core/lv_obj_private.h"
 3416              		.file 8 "../../Middlewares/LVGL/GUI/lvgl/src/core/../draw/lv_draw.h"
 3417              		.file 9 "H:/STM32H7/RGB_LVGL/Middlewares/LVGL/GUI/lvgl/src/font/lv_font.h"
 3418              		.file 10 "../../Middlewares/LVGL/GUI/lvgl/src/core/../draw/lv_draw_image.h"
 3419              		.file 11 "H:/STM32H7/RGB_LVGL/Middlewares/LVGL/GUI/lvgl/src/misc/lv_array.h"
 3420              		.file 12 "H:/STM32H7/RGB_LVGL/Middlewares/LVGL/GUI/lvgl/src/draw/lv_draw_buf.h"
 3421              		.file 13 "H:/STM32H7/RGB_LVGL/Middlewares/LVGL/GUI/lvgl/src/misc/lv_area.h"
 3422              		.file 14 "H:/STM32H7/RGB_LVGL/Middlewares/LVGL/GUI/lvgl/src/misc/lv_color.h"
 3423              		.file 15 "H:/STM32H7/RGB_LVGL/Middlewares/LVGL/GUI/lvgl/src/draw/lv_image_dsc.h"
 3424              		.file 16 "H:/STM32H7/RGB_LVGL/Middlewares/LVGL/GUI/lvgl/src/misc/lv_text.h"
 3425              		.file 17 "H:/STM32H7/RGB_LVGL/Middlewares/LVGL/GUI/lvgl/src/misc/lv_bidi.h"
 3426              		.file 18 "H:/STM32H7/RGB_LVGL/Middlewares/LVGL/GUI/lvgl/src/misc/lv_grad.h"
ARM GAS  C:\Users\28576\AppData\Local\Temp\cclWIAwm.s 			page 96


 3427              		.file 19 "H:/STM32H7/RGB_LVGL/Middlewares/LVGL/GUI/lvgl/src/misc/lv_style.h"
 3428              		.file 20 "../../Middlewares/LVGL/GUI/lvgl/src/core/../draw/lv_image_decoder.h"
 3429              		.file 21 "../../Middlewares/LVGL/GUI/lvgl/src/core/../draw/lv_draw_rect.h"
 3430              		.file 22 "../../Middlewares/LVGL/GUI/lvgl/src/core/../draw/lv_draw_label.h"
 3431              		.file 23 "../../Middlewares/LVGL/GUI/lvgl/src/core/../draw/lv_draw_line.h"
 3432              		.file 24 "../../Middlewares/LVGL/GUI/lvgl/src/core/../draw/lv_draw_arc.h"
 3433              		.file 25 "../../Middlewares/LVGL/GUI/lvgl/src/core/lv_obj_draw.h"
 3434              		.file 26 "H:/STM32H7/RGB_LVGL/Middlewares/LVGL/GUI/lvgl/src/misc/lv_event.h"
 3435              		.file 27 "../../Middlewares/LVGL/GUI/lvgl/src/core/lv_obj.h"
 3436              		.file 28 "../../Middlewares/LVGL/GUI/lvgl/src/core/lv_obj_pos.h"
 3437              		.file 29 "../../Middlewares/LVGL/GUI/lvgl/src/core/lv_obj_event.h"
 3438              		.file 30 "H:/STM32H7/RGB_LVGL/Middlewares/LVGL/GUI/lvgl/src/misc/lv_color_op.h"
 3439              		.file 31 "../../Middlewares/LVGL/GUI/lvgl/src/core/lv_obj_style.h"
 3440              		.file 32 "H:/STM32H7/RGB_LVGL/Middlewares/LVGL/GUI/lvgl/src/stdlib/lv_string.h"
ARM GAS  C:\Users\28576\AppData\Local\Temp\cclWIAwm.s 			page 97


DEFINED SYMBOLS
                            *ABS*:00000000 lv_obj_draw.c
C:\Users\28576\AppData\Local\Temp\cclWIAwm.s:20     .text.get_layer_opa:00000000 $t
C:\Users\28576\AppData\Local\Temp\cclWIAwm.s:25     .text.get_layer_opa:00000000 get_layer_opa
C:\Users\28576\AppData\Local\Temp\cclWIAwm.s:106    .text.lv_obj_get_style_bg_color_filtered:00000000 $t
C:\Users\28576\AppData\Local\Temp\cclWIAwm.s:111    .text.lv_obj_get_style_bg_color_filtered:00000000 lv_obj_get_style_bg_color_filtered
C:\Users\28576\AppData\Local\Temp\cclWIAwm.s:167    .text.lv_obj_get_style_bg_grad_color_filtered:00000000 $t
C:\Users\28576\AppData\Local\Temp\cclWIAwm.s:172    .text.lv_obj_get_style_bg_grad_color_filtered:00000000 lv_obj_get_style_bg_grad_color_filtered
C:\Users\28576\AppData\Local\Temp\cclWIAwm.s:228    .text.lv_obj_get_style_border_color_filtered:00000000 $t
C:\Users\28576\AppData\Local\Temp\cclWIAwm.s:233    .text.lv_obj_get_style_border_color_filtered:00000000 lv_obj_get_style_border_color_filtered
C:\Users\28576\AppData\Local\Temp\cclWIAwm.s:289    .text.lv_obj_get_style_outline_color_filtered:00000000 $t
C:\Users\28576\AppData\Local\Temp\cclWIAwm.s:294    .text.lv_obj_get_style_outline_color_filtered:00000000 lv_obj_get_style_outline_color_filtered
C:\Users\28576\AppData\Local\Temp\cclWIAwm.s:350    .text.lv_obj_get_style_text_color_filtered:00000000 $t
C:\Users\28576\AppData\Local\Temp\cclWIAwm.s:355    .text.lv_obj_get_style_text_color_filtered:00000000 lv_obj_get_style_text_color_filtered
C:\Users\28576\AppData\Local\Temp\cclWIAwm.s:411    .text.lv_obj_get_style_bg_image_recolor_filtered:00000000 $t
C:\Users\28576\AppData\Local\Temp\cclWIAwm.s:416    .text.lv_obj_get_style_bg_image_recolor_filtered:00000000 lv_obj_get_style_bg_image_recolor_filtered
C:\Users\28576\AppData\Local\Temp\cclWIAwm.s:472    .text.lv_obj_get_style_shadow_color_filtered:00000000 $t
C:\Users\28576\AppData\Local\Temp\cclWIAwm.s:477    .text.lv_obj_get_style_shadow_color_filtered:00000000 lv_obj_get_style_shadow_color_filtered
C:\Users\28576\AppData\Local\Temp\cclWIAwm.s:533    .text.lv_obj_get_style_image_recolor_filtered:00000000 $t
C:\Users\28576\AppData\Local\Temp\cclWIAwm.s:538    .text.lv_obj_get_style_image_recolor_filtered:00000000 lv_obj_get_style_image_recolor_filtered
C:\Users\28576\AppData\Local\Temp\cclWIAwm.s:594    .text.lv_obj_get_style_line_color_filtered:00000000 $t
C:\Users\28576\AppData\Local\Temp\cclWIAwm.s:599    .text.lv_obj_get_style_line_color_filtered:00000000 lv_obj_get_style_line_color_filtered
C:\Users\28576\AppData\Local\Temp\cclWIAwm.s:655    .text.lv_obj_get_style_arc_color_filtered:00000000 $t
C:\Users\28576\AppData\Local\Temp\cclWIAwm.s:660    .text.lv_obj_get_style_arc_color_filtered:00000000 lv_obj_get_style_arc_color_filtered
C:\Users\28576\AppData\Local\Temp\cclWIAwm.s:716    .text.image_apply_layer_recolor:00000000 $t
C:\Users\28576\AppData\Local\Temp\cclWIAwm.s:721    .text.image_apply_layer_recolor:00000000 image_apply_layer_recolor
C:\Users\28576\AppData\Local\Temp\cclWIAwm.s:844    .text.normal_apply_layer_recolor:00000000 $t
C:\Users\28576\AppData\Local\Temp\cclWIAwm.s:849    .text.normal_apply_layer_recolor:00000000 normal_apply_layer_recolor
C:\Users\28576\AppData\Local\Temp\cclWIAwm.s:949    .text.lv_obj_init_draw_rect_dsc:00000000 $t
C:\Users\28576\AppData\Local\Temp\cclWIAwm.s:955    .text.lv_obj_init_draw_rect_dsc:00000000 lv_obj_init_draw_rect_dsc
C:\Users\28576\AppData\Local\Temp\cclWIAwm.s:1933   .text.lv_obj_init_draw_label_dsc:00000000 $t
C:\Users\28576\AppData\Local\Temp\cclWIAwm.s:1939   .text.lv_obj_init_draw_label_dsc:00000000 lv_obj_init_draw_label_dsc
C:\Users\28576\AppData\Local\Temp\cclWIAwm.s:2171   .text.lv_obj_init_draw_image_dsc:00000000 $t
C:\Users\28576\AppData\Local\Temp\cclWIAwm.s:2177   .text.lv_obj_init_draw_image_dsc:00000000 lv_obj_init_draw_image_dsc
C:\Users\28576\AppData\Local\Temp\cclWIAwm.s:2415   .text.lv_obj_init_draw_line_dsc:00000000 $t
C:\Users\28576\AppData\Local\Temp\cclWIAwm.s:2421   .text.lv_obj_init_draw_line_dsc:00000000 lv_obj_init_draw_line_dsc
C:\Users\28576\AppData\Local\Temp\cclWIAwm.s:2651   .text.lv_obj_init_draw_arc_dsc:00000000 $t
C:\Users\28576\AppData\Local\Temp\cclWIAwm.s:2657   .text.lv_obj_init_draw_arc_dsc:00000000 lv_obj_init_draw_arc_dsc
C:\Users\28576\AppData\Local\Temp\cclWIAwm.s:2853   .text.lv_obj_calculate_ext_draw_size:00000000 $t
C:\Users\28576\AppData\Local\Temp\cclWIAwm.s:2859   .text.lv_obj_calculate_ext_draw_size:00000000 lv_obj_calculate_ext_draw_size
C:\Users\28576\AppData\Local\Temp\cclWIAwm.s:3215   .text.lv_obj_get_ext_draw_size:00000000 $t
C:\Users\28576\AppData\Local\Temp\cclWIAwm.s:3221   .text.lv_obj_get_ext_draw_size:00000000 lv_obj_get_ext_draw_size
C:\Users\28576\AppData\Local\Temp\cclWIAwm.s:3251   .text.lv_obj_refresh_ext_draw_size:00000000 $t
C:\Users\28576\AppData\Local\Temp\cclWIAwm.s:3257   .text.lv_obj_refresh_ext_draw_size:00000000 lv_obj_refresh_ext_draw_size
C:\Users\28576\AppData\Local\Temp\cclWIAwm.s:3372   .text.lv_obj_get_layer_type:00000000 $t
C:\Users\28576\AppData\Local\Temp\cclWIAwm.s:3378   .text.lv_obj_get_layer_type:00000000 lv_obj_get_layer_type

UNDEFINED SYMBOLS
lv_obj_get_style_prop
lv_obj_get_style_opa_recursive
lv_obj_style_apply_color_filter
lv_obj_style_apply_recolor
lv_obj_get_style_recolor_recursive
lv_color_to_32
lv_color_over32
lv_color_make
lv_color_mix
ARM GAS  C:\Users\28576\AppData\Local\Temp\cclWIAwm.s 			page 98


lv_memcpy
lv_image_src_get_type
lv_area_get_width
lv_area_get_height
lv_obj_send_event
lv_obj_allocate_spec_attr
lv_obj_invalidate
