ARM GAS  C:\Users\28576\AppData\Local\Temp\ccFkI9MQ.s 			page 1


   1              		.cpu cortex-m7
   2              		.arch armv7e-m
   3              		.fpu fpv5-d16
   4              		.eabi_attribute 28, 1
   5              		.eabi_attribute 20, 1
   6              		.eabi_attribute 21, 1
   7              		.eabi_attribute 23, 3
   8              		.eabi_attribute 24, 1
   9              		.eabi_attribute 25, 1
  10              		.eabi_attribute 26, 1
  11              		.eabi_attribute 30, 1
  12              		.eabi_attribute 34, 1
  13              		.eabi_attribute 18, 4
  14              		.file	"lv_rb.c"
  15              		.text
  16              	.Ltext0:
  17              		.cfi_sections	.debug_frame
  18              		.file 1 "../../Middlewares/LVGL/GUI/lvgl/src/misc/lv_rb.c"
  19              		.section	.text.rb_find_leaf_parent,"ax",%progbits
  20              		.align	1
  21              		.syntax unified
  22              		.thumb
  23              		.thumb_func
  25              	rb_find_leaf_parent:
  26              	.LVL0:
  27              	.LFB15:
   1:../../Middlewares/LVGL/GUI/lvgl/src/misc/lv_rb.c **** /**
   2:../../Middlewares/LVGL/GUI/lvgl/src/misc/lv_rb.c ****  * @file lv_rb.c
   3:../../Middlewares/LVGL/GUI/lvgl/src/misc/lv_rb.c ****  *
   4:../../Middlewares/LVGL/GUI/lvgl/src/misc/lv_rb.c ****  */
   5:../../Middlewares/LVGL/GUI/lvgl/src/misc/lv_rb.c **** 
   6:../../Middlewares/LVGL/GUI/lvgl/src/misc/lv_rb.c **** /*********************
   7:../../Middlewares/LVGL/GUI/lvgl/src/misc/lv_rb.c ****  *      INCLUDES
   8:../../Middlewares/LVGL/GUI/lvgl/src/misc/lv_rb.c ****  *********************/
   9:../../Middlewares/LVGL/GUI/lvgl/src/misc/lv_rb.c **** #include "lv_rb_private.h"
  10:../../Middlewares/LVGL/GUI/lvgl/src/misc/lv_rb.c **** #include "../stdlib/lv_string.h"
  11:../../Middlewares/LVGL/GUI/lvgl/src/misc/lv_rb.c **** 
  12:../../Middlewares/LVGL/GUI/lvgl/src/misc/lv_rb.c **** /*********************
  13:../../Middlewares/LVGL/GUI/lvgl/src/misc/lv_rb.c ****  *      DEFINES
  14:../../Middlewares/LVGL/GUI/lvgl/src/misc/lv_rb.c ****  *********************/
  15:../../Middlewares/LVGL/GUI/lvgl/src/misc/lv_rb.c **** 
  16:../../Middlewares/LVGL/GUI/lvgl/src/misc/lv_rb.c **** /**********************
  17:../../Middlewares/LVGL/GUI/lvgl/src/misc/lv_rb.c ****  *      TYPEDEFS
  18:../../Middlewares/LVGL/GUI/lvgl/src/misc/lv_rb.c ****  **********************/
  19:../../Middlewares/LVGL/GUI/lvgl/src/misc/lv_rb.c **** 
  20:../../Middlewares/LVGL/GUI/lvgl/src/misc/lv_rb.c **** /**********************
  21:../../Middlewares/LVGL/GUI/lvgl/src/misc/lv_rb.c ****  *  STATIC PROTOTYPES
  22:../../Middlewares/LVGL/GUI/lvgl/src/misc/lv_rb.c ****  **********************/
  23:../../Middlewares/LVGL/GUI/lvgl/src/misc/lv_rb.c **** 
  24:../../Middlewares/LVGL/GUI/lvgl/src/misc/lv_rb.c **** static lv_rb_node_t * rb_create_node(lv_rb_t * tree);
  25:../../Middlewares/LVGL/GUI/lvgl/src/misc/lv_rb.c **** static lv_rb_node_t * rb_find_leaf_parent(lv_rb_t * tree, lv_rb_node_t * node);
  26:../../Middlewares/LVGL/GUI/lvgl/src/misc/lv_rb.c **** static void rb_right_rotate(lv_rb_t * tree, lv_rb_node_t * node);
  27:../../Middlewares/LVGL/GUI/lvgl/src/misc/lv_rb.c **** static void rb_left_rotate(lv_rb_t * tree, lv_rb_node_t * node);
  28:../../Middlewares/LVGL/GUI/lvgl/src/misc/lv_rb.c **** static void rb_insert_color(lv_rb_t * tree, lv_rb_node_t * node);
  29:../../Middlewares/LVGL/GUI/lvgl/src/misc/lv_rb.c **** static void rb_delete_color(lv_rb_t * tree, lv_rb_node_t * node1, lv_rb_node_t * node2);
  30:../../Middlewares/LVGL/GUI/lvgl/src/misc/lv_rb.c **** 
  31:../../Middlewares/LVGL/GUI/lvgl/src/misc/lv_rb.c **** /**********************
ARM GAS  C:\Users\28576\AppData\Local\Temp\ccFkI9MQ.s 			page 2


  32:../../Middlewares/LVGL/GUI/lvgl/src/misc/lv_rb.c ****  *  GLOBAL VARIABLES
  33:../../Middlewares/LVGL/GUI/lvgl/src/misc/lv_rb.c ****  **********************/
  34:../../Middlewares/LVGL/GUI/lvgl/src/misc/lv_rb.c **** 
  35:../../Middlewares/LVGL/GUI/lvgl/src/misc/lv_rb.c **** /**********************
  36:../../Middlewares/LVGL/GUI/lvgl/src/misc/lv_rb.c ****  *  STATIC VARIABLES
  37:../../Middlewares/LVGL/GUI/lvgl/src/misc/lv_rb.c ****  **********************/
  38:../../Middlewares/LVGL/GUI/lvgl/src/misc/lv_rb.c **** 
  39:../../Middlewares/LVGL/GUI/lvgl/src/misc/lv_rb.c **** /**********************
  40:../../Middlewares/LVGL/GUI/lvgl/src/misc/lv_rb.c ****  *      MACROS
  41:../../Middlewares/LVGL/GUI/lvgl/src/misc/lv_rb.c ****  **********************/
  42:../../Middlewares/LVGL/GUI/lvgl/src/misc/lv_rb.c **** 
  43:../../Middlewares/LVGL/GUI/lvgl/src/misc/lv_rb.c **** /**********************
  44:../../Middlewares/LVGL/GUI/lvgl/src/misc/lv_rb.c ****  *   GLOBAL FUNCTIONS
  45:../../Middlewares/LVGL/GUI/lvgl/src/misc/lv_rb.c ****  **********************/
  46:../../Middlewares/LVGL/GUI/lvgl/src/misc/lv_rb.c **** 
  47:../../Middlewares/LVGL/GUI/lvgl/src/misc/lv_rb.c **** bool lv_rb_init(lv_rb_t * tree, lv_rb_compare_t compare, size_t node_size)
  48:../../Middlewares/LVGL/GUI/lvgl/src/misc/lv_rb.c **** {
  49:../../Middlewares/LVGL/GUI/lvgl/src/misc/lv_rb.c ****     LV_ASSERT_NULL(tree);
  50:../../Middlewares/LVGL/GUI/lvgl/src/misc/lv_rb.c ****     LV_ASSERT_NULL(compare);
  51:../../Middlewares/LVGL/GUI/lvgl/src/misc/lv_rb.c ****     LV_ASSERT(node_size > 0);
  52:../../Middlewares/LVGL/GUI/lvgl/src/misc/lv_rb.c **** 
  53:../../Middlewares/LVGL/GUI/lvgl/src/misc/lv_rb.c ****     if(tree == NULL || compare == NULL || node_size == 0) {
  54:../../Middlewares/LVGL/GUI/lvgl/src/misc/lv_rb.c ****         return false;
  55:../../Middlewares/LVGL/GUI/lvgl/src/misc/lv_rb.c ****     }
  56:../../Middlewares/LVGL/GUI/lvgl/src/misc/lv_rb.c **** 
  57:../../Middlewares/LVGL/GUI/lvgl/src/misc/lv_rb.c ****     lv_memzero(tree, sizeof(lv_rb_t));
  58:../../Middlewares/LVGL/GUI/lvgl/src/misc/lv_rb.c **** 
  59:../../Middlewares/LVGL/GUI/lvgl/src/misc/lv_rb.c ****     tree->root = NULL;
  60:../../Middlewares/LVGL/GUI/lvgl/src/misc/lv_rb.c ****     tree->compare = compare;
  61:../../Middlewares/LVGL/GUI/lvgl/src/misc/lv_rb.c ****     tree->size = node_size;
  62:../../Middlewares/LVGL/GUI/lvgl/src/misc/lv_rb.c **** 
  63:../../Middlewares/LVGL/GUI/lvgl/src/misc/lv_rb.c ****     return true;
  64:../../Middlewares/LVGL/GUI/lvgl/src/misc/lv_rb.c **** }
  65:../../Middlewares/LVGL/GUI/lvgl/src/misc/lv_rb.c **** 
  66:../../Middlewares/LVGL/GUI/lvgl/src/misc/lv_rb.c **** lv_rb_node_t * lv_rb_insert(lv_rb_t * tree, void * key)
  67:../../Middlewares/LVGL/GUI/lvgl/src/misc/lv_rb.c **** {
  68:../../Middlewares/LVGL/GUI/lvgl/src/misc/lv_rb.c ****     LV_ASSERT_NULL(tree);
  69:../../Middlewares/LVGL/GUI/lvgl/src/misc/lv_rb.c ****     if(tree == NULL) {
  70:../../Middlewares/LVGL/GUI/lvgl/src/misc/lv_rb.c ****         return NULL;
  71:../../Middlewares/LVGL/GUI/lvgl/src/misc/lv_rb.c ****     }
  72:../../Middlewares/LVGL/GUI/lvgl/src/misc/lv_rb.c **** 
  73:../../Middlewares/LVGL/GUI/lvgl/src/misc/lv_rb.c ****     lv_rb_node_t * node = lv_rb_find(tree, key);
  74:../../Middlewares/LVGL/GUI/lvgl/src/misc/lv_rb.c ****     if(node) return node;
  75:../../Middlewares/LVGL/GUI/lvgl/src/misc/lv_rb.c ****     else {
  76:../../Middlewares/LVGL/GUI/lvgl/src/misc/lv_rb.c ****         node = rb_create_node(tree);
  77:../../Middlewares/LVGL/GUI/lvgl/src/misc/lv_rb.c ****         if(node == NULL) return NULL;
  78:../../Middlewares/LVGL/GUI/lvgl/src/misc/lv_rb.c **** 
  79:../../Middlewares/LVGL/GUI/lvgl/src/misc/lv_rb.c ****         if(tree->root == NULL) {
  80:../../Middlewares/LVGL/GUI/lvgl/src/misc/lv_rb.c ****             tree->root = node;
  81:../../Middlewares/LVGL/GUI/lvgl/src/misc/lv_rb.c ****             node->parent = NULL;
  82:../../Middlewares/LVGL/GUI/lvgl/src/misc/lv_rb.c ****             node->color = LV_RB_COLOR_BLACK;
  83:../../Middlewares/LVGL/GUI/lvgl/src/misc/lv_rb.c ****             return node;
  84:../../Middlewares/LVGL/GUI/lvgl/src/misc/lv_rb.c ****         }
  85:../../Middlewares/LVGL/GUI/lvgl/src/misc/lv_rb.c ****     }
  86:../../Middlewares/LVGL/GUI/lvgl/src/misc/lv_rb.c **** 
  87:../../Middlewares/LVGL/GUI/lvgl/src/misc/lv_rb.c ****     void * new_data = node->data;
  88:../../Middlewares/LVGL/GUI/lvgl/src/misc/lv_rb.c ****     node->data = key;
ARM GAS  C:\Users\28576\AppData\Local\Temp\ccFkI9MQ.s 			page 3


  89:../../Middlewares/LVGL/GUI/lvgl/src/misc/lv_rb.c ****     lv_rb_node_t * parent = rb_find_leaf_parent(tree, node);
  90:../../Middlewares/LVGL/GUI/lvgl/src/misc/lv_rb.c **** 
  91:../../Middlewares/LVGL/GUI/lvgl/src/misc/lv_rb.c ****     node->parent = parent;
  92:../../Middlewares/LVGL/GUI/lvgl/src/misc/lv_rb.c ****     node->color = LV_RB_COLOR_RED;
  93:../../Middlewares/LVGL/GUI/lvgl/src/misc/lv_rb.c **** 
  94:../../Middlewares/LVGL/GUI/lvgl/src/misc/lv_rb.c ****     if(tree->compare(key, parent->data) < 0) parent->left = node;
  95:../../Middlewares/LVGL/GUI/lvgl/src/misc/lv_rb.c ****     else parent->right = node;
  96:../../Middlewares/LVGL/GUI/lvgl/src/misc/lv_rb.c **** 
  97:../../Middlewares/LVGL/GUI/lvgl/src/misc/lv_rb.c ****     rb_insert_color(tree, node);
  98:../../Middlewares/LVGL/GUI/lvgl/src/misc/lv_rb.c **** 
  99:../../Middlewares/LVGL/GUI/lvgl/src/misc/lv_rb.c ****     node->data = new_data;
 100:../../Middlewares/LVGL/GUI/lvgl/src/misc/lv_rb.c ****     return node;
 101:../../Middlewares/LVGL/GUI/lvgl/src/misc/lv_rb.c **** }
 102:../../Middlewares/LVGL/GUI/lvgl/src/misc/lv_rb.c **** 
 103:../../Middlewares/LVGL/GUI/lvgl/src/misc/lv_rb.c **** lv_rb_node_t * lv_rb_find(lv_rb_t * tree, const void * key)
 104:../../Middlewares/LVGL/GUI/lvgl/src/misc/lv_rb.c **** {
 105:../../Middlewares/LVGL/GUI/lvgl/src/misc/lv_rb.c ****     LV_ASSERT_NULL(tree);
 106:../../Middlewares/LVGL/GUI/lvgl/src/misc/lv_rb.c ****     if(tree == NULL) {
 107:../../Middlewares/LVGL/GUI/lvgl/src/misc/lv_rb.c ****         return NULL;
 108:../../Middlewares/LVGL/GUI/lvgl/src/misc/lv_rb.c ****     }
 109:../../Middlewares/LVGL/GUI/lvgl/src/misc/lv_rb.c **** 
 110:../../Middlewares/LVGL/GUI/lvgl/src/misc/lv_rb.c ****     lv_rb_node_t * current = tree->root;
 111:../../Middlewares/LVGL/GUI/lvgl/src/misc/lv_rb.c **** 
 112:../../Middlewares/LVGL/GUI/lvgl/src/misc/lv_rb.c ****     while(current != NULL) {
 113:../../Middlewares/LVGL/GUI/lvgl/src/misc/lv_rb.c ****         lv_rb_compare_res_t cmp = tree->compare(key, current->data);
 114:../../Middlewares/LVGL/GUI/lvgl/src/misc/lv_rb.c **** 
 115:../../Middlewares/LVGL/GUI/lvgl/src/misc/lv_rb.c ****         if(cmp == 0) {
 116:../../Middlewares/LVGL/GUI/lvgl/src/misc/lv_rb.c ****             return current;
 117:../../Middlewares/LVGL/GUI/lvgl/src/misc/lv_rb.c ****         }
 118:../../Middlewares/LVGL/GUI/lvgl/src/misc/lv_rb.c ****         else if(cmp < 0) {
 119:../../Middlewares/LVGL/GUI/lvgl/src/misc/lv_rb.c ****             current = current->left;
 120:../../Middlewares/LVGL/GUI/lvgl/src/misc/lv_rb.c ****         }
 121:../../Middlewares/LVGL/GUI/lvgl/src/misc/lv_rb.c ****         else {
 122:../../Middlewares/LVGL/GUI/lvgl/src/misc/lv_rb.c ****             current = current->right;
 123:../../Middlewares/LVGL/GUI/lvgl/src/misc/lv_rb.c ****         }
 124:../../Middlewares/LVGL/GUI/lvgl/src/misc/lv_rb.c ****     }
 125:../../Middlewares/LVGL/GUI/lvgl/src/misc/lv_rb.c **** 
 126:../../Middlewares/LVGL/GUI/lvgl/src/misc/lv_rb.c ****     return NULL;
 127:../../Middlewares/LVGL/GUI/lvgl/src/misc/lv_rb.c **** }
 128:../../Middlewares/LVGL/GUI/lvgl/src/misc/lv_rb.c **** 
 129:../../Middlewares/LVGL/GUI/lvgl/src/misc/lv_rb.c **** void * lv_rb_remove_node(lv_rb_t * tree, lv_rb_node_t * node)
 130:../../Middlewares/LVGL/GUI/lvgl/src/misc/lv_rb.c **** {
 131:../../Middlewares/LVGL/GUI/lvgl/src/misc/lv_rb.c ****     lv_rb_node_t * child = NULL;
 132:../../Middlewares/LVGL/GUI/lvgl/src/misc/lv_rb.c ****     lv_rb_node_t * parent = NULL;
 133:../../Middlewares/LVGL/GUI/lvgl/src/misc/lv_rb.c ****     lv_rb_color_t color = LV_RB_COLOR_BLACK;
 134:../../Middlewares/LVGL/GUI/lvgl/src/misc/lv_rb.c **** 
 135:../../Middlewares/LVGL/GUI/lvgl/src/misc/lv_rb.c ****     if(node->left != NULL && node->right != NULL) {
 136:../../Middlewares/LVGL/GUI/lvgl/src/misc/lv_rb.c ****         lv_rb_node_t * replace = node;
 137:../../Middlewares/LVGL/GUI/lvgl/src/misc/lv_rb.c ****         replace = lv_rb_minimum_from(replace->right);
 138:../../Middlewares/LVGL/GUI/lvgl/src/misc/lv_rb.c **** 
 139:../../Middlewares/LVGL/GUI/lvgl/src/misc/lv_rb.c ****         if(node->parent != NULL) {
 140:../../Middlewares/LVGL/GUI/lvgl/src/misc/lv_rb.c ****             if(node->parent->left == node) {
 141:../../Middlewares/LVGL/GUI/lvgl/src/misc/lv_rb.c ****                 node->parent->left = replace;
 142:../../Middlewares/LVGL/GUI/lvgl/src/misc/lv_rb.c ****             }
 143:../../Middlewares/LVGL/GUI/lvgl/src/misc/lv_rb.c ****             else {
 144:../../Middlewares/LVGL/GUI/lvgl/src/misc/lv_rb.c ****                 node->parent->right = replace;
 145:../../Middlewares/LVGL/GUI/lvgl/src/misc/lv_rb.c ****             }
ARM GAS  C:\Users\28576\AppData\Local\Temp\ccFkI9MQ.s 			page 4


 146:../../Middlewares/LVGL/GUI/lvgl/src/misc/lv_rb.c ****         }
 147:../../Middlewares/LVGL/GUI/lvgl/src/misc/lv_rb.c ****         else {
 148:../../Middlewares/LVGL/GUI/lvgl/src/misc/lv_rb.c ****             tree->root = replace;
 149:../../Middlewares/LVGL/GUI/lvgl/src/misc/lv_rb.c ****         }
 150:../../Middlewares/LVGL/GUI/lvgl/src/misc/lv_rb.c **** 
 151:../../Middlewares/LVGL/GUI/lvgl/src/misc/lv_rb.c ****         child = replace->right;
 152:../../Middlewares/LVGL/GUI/lvgl/src/misc/lv_rb.c ****         parent = replace->parent;
 153:../../Middlewares/LVGL/GUI/lvgl/src/misc/lv_rb.c ****         color = replace->color;
 154:../../Middlewares/LVGL/GUI/lvgl/src/misc/lv_rb.c **** 
 155:../../Middlewares/LVGL/GUI/lvgl/src/misc/lv_rb.c ****         if(parent == node) {
 156:../../Middlewares/LVGL/GUI/lvgl/src/misc/lv_rb.c ****             parent = replace;
 157:../../Middlewares/LVGL/GUI/lvgl/src/misc/lv_rb.c ****         }
 158:../../Middlewares/LVGL/GUI/lvgl/src/misc/lv_rb.c ****         else {
 159:../../Middlewares/LVGL/GUI/lvgl/src/misc/lv_rb.c ****             if(child != NULL) {
 160:../../Middlewares/LVGL/GUI/lvgl/src/misc/lv_rb.c ****                 child->parent = parent;
 161:../../Middlewares/LVGL/GUI/lvgl/src/misc/lv_rb.c ****             }
 162:../../Middlewares/LVGL/GUI/lvgl/src/misc/lv_rb.c ****             parent->left = child;
 163:../../Middlewares/LVGL/GUI/lvgl/src/misc/lv_rb.c ****             replace->right = node->right;
 164:../../Middlewares/LVGL/GUI/lvgl/src/misc/lv_rb.c ****             node->right->parent = replace;
 165:../../Middlewares/LVGL/GUI/lvgl/src/misc/lv_rb.c ****         }
 166:../../Middlewares/LVGL/GUI/lvgl/src/misc/lv_rb.c **** 
 167:../../Middlewares/LVGL/GUI/lvgl/src/misc/lv_rb.c ****         replace->parent = node->parent;
 168:../../Middlewares/LVGL/GUI/lvgl/src/misc/lv_rb.c ****         replace->color = node->color;
 169:../../Middlewares/LVGL/GUI/lvgl/src/misc/lv_rb.c ****         replace->left = node->left;
 170:../../Middlewares/LVGL/GUI/lvgl/src/misc/lv_rb.c ****         node->left->parent = replace;
 171:../../Middlewares/LVGL/GUI/lvgl/src/misc/lv_rb.c **** 
 172:../../Middlewares/LVGL/GUI/lvgl/src/misc/lv_rb.c ****         if(color == LV_RB_COLOR_BLACK) {
 173:../../Middlewares/LVGL/GUI/lvgl/src/misc/lv_rb.c ****             rb_delete_color(tree, child, parent);
 174:../../Middlewares/LVGL/GUI/lvgl/src/misc/lv_rb.c ****         }
 175:../../Middlewares/LVGL/GUI/lvgl/src/misc/lv_rb.c **** 
 176:../../Middlewares/LVGL/GUI/lvgl/src/misc/lv_rb.c ****         void * data = node->data;
 177:../../Middlewares/LVGL/GUI/lvgl/src/misc/lv_rb.c ****         lv_free(node);
 178:../../Middlewares/LVGL/GUI/lvgl/src/misc/lv_rb.c ****         return data;
 179:../../Middlewares/LVGL/GUI/lvgl/src/misc/lv_rb.c ****     }
 180:../../Middlewares/LVGL/GUI/lvgl/src/misc/lv_rb.c **** 
 181:../../Middlewares/LVGL/GUI/lvgl/src/misc/lv_rb.c ****     child = node->right != NULL ? node->right : node->left;
 182:../../Middlewares/LVGL/GUI/lvgl/src/misc/lv_rb.c ****     parent = node->parent;
 183:../../Middlewares/LVGL/GUI/lvgl/src/misc/lv_rb.c ****     color = node->color;
 184:../../Middlewares/LVGL/GUI/lvgl/src/misc/lv_rb.c **** 
 185:../../Middlewares/LVGL/GUI/lvgl/src/misc/lv_rb.c ****     if(child != NULL) {
 186:../../Middlewares/LVGL/GUI/lvgl/src/misc/lv_rb.c ****         child->parent = parent;
 187:../../Middlewares/LVGL/GUI/lvgl/src/misc/lv_rb.c ****     }
 188:../../Middlewares/LVGL/GUI/lvgl/src/misc/lv_rb.c **** 
 189:../../Middlewares/LVGL/GUI/lvgl/src/misc/lv_rb.c ****     if(parent != NULL) {
 190:../../Middlewares/LVGL/GUI/lvgl/src/misc/lv_rb.c ****         if(parent->left == node) {
 191:../../Middlewares/LVGL/GUI/lvgl/src/misc/lv_rb.c ****             parent->left = child;
 192:../../Middlewares/LVGL/GUI/lvgl/src/misc/lv_rb.c ****         }
 193:../../Middlewares/LVGL/GUI/lvgl/src/misc/lv_rb.c ****         else {
 194:../../Middlewares/LVGL/GUI/lvgl/src/misc/lv_rb.c ****             parent->right = child;
 195:../../Middlewares/LVGL/GUI/lvgl/src/misc/lv_rb.c ****         }
 196:../../Middlewares/LVGL/GUI/lvgl/src/misc/lv_rb.c ****     }
 197:../../Middlewares/LVGL/GUI/lvgl/src/misc/lv_rb.c ****     else {
 198:../../Middlewares/LVGL/GUI/lvgl/src/misc/lv_rb.c ****         tree->root = child;
 199:../../Middlewares/LVGL/GUI/lvgl/src/misc/lv_rb.c ****     }
 200:../../Middlewares/LVGL/GUI/lvgl/src/misc/lv_rb.c **** 
 201:../../Middlewares/LVGL/GUI/lvgl/src/misc/lv_rb.c ****     if(color == LV_RB_COLOR_BLACK) {
 202:../../Middlewares/LVGL/GUI/lvgl/src/misc/lv_rb.c ****         rb_delete_color(tree, child, parent);
ARM GAS  C:\Users\28576\AppData\Local\Temp\ccFkI9MQ.s 			page 5


 203:../../Middlewares/LVGL/GUI/lvgl/src/misc/lv_rb.c ****     }
 204:../../Middlewares/LVGL/GUI/lvgl/src/misc/lv_rb.c **** 
 205:../../Middlewares/LVGL/GUI/lvgl/src/misc/lv_rb.c ****     void * data = node->data;
 206:../../Middlewares/LVGL/GUI/lvgl/src/misc/lv_rb.c ****     lv_free(node);
 207:../../Middlewares/LVGL/GUI/lvgl/src/misc/lv_rb.c ****     return data;
 208:../../Middlewares/LVGL/GUI/lvgl/src/misc/lv_rb.c **** }
 209:../../Middlewares/LVGL/GUI/lvgl/src/misc/lv_rb.c **** 
 210:../../Middlewares/LVGL/GUI/lvgl/src/misc/lv_rb.c **** void * lv_rb_remove(lv_rb_t * tree, const void * key)
 211:../../Middlewares/LVGL/GUI/lvgl/src/misc/lv_rb.c **** {
 212:../../Middlewares/LVGL/GUI/lvgl/src/misc/lv_rb.c ****     LV_ASSERT_NULL(tree);
 213:../../Middlewares/LVGL/GUI/lvgl/src/misc/lv_rb.c ****     if(tree == NULL) {
 214:../../Middlewares/LVGL/GUI/lvgl/src/misc/lv_rb.c ****         return NULL;
 215:../../Middlewares/LVGL/GUI/lvgl/src/misc/lv_rb.c ****     }
 216:../../Middlewares/LVGL/GUI/lvgl/src/misc/lv_rb.c **** 
 217:../../Middlewares/LVGL/GUI/lvgl/src/misc/lv_rb.c ****     lv_rb_node_t * node = lv_rb_find(tree, key);
 218:../../Middlewares/LVGL/GUI/lvgl/src/misc/lv_rb.c ****     LV_ASSERT_NULL(node);
 219:../../Middlewares/LVGL/GUI/lvgl/src/misc/lv_rb.c ****     if(node == NULL) {
 220:../../Middlewares/LVGL/GUI/lvgl/src/misc/lv_rb.c ****         LV_LOG_WARN("rb delete %d not found", (int)(uintptr_t)key);
 221:../../Middlewares/LVGL/GUI/lvgl/src/misc/lv_rb.c ****         return NULL;
 222:../../Middlewares/LVGL/GUI/lvgl/src/misc/lv_rb.c ****     }
 223:../../Middlewares/LVGL/GUI/lvgl/src/misc/lv_rb.c **** 
 224:../../Middlewares/LVGL/GUI/lvgl/src/misc/lv_rb.c ****     return lv_rb_remove_node(tree, node);
 225:../../Middlewares/LVGL/GUI/lvgl/src/misc/lv_rb.c **** }
 226:../../Middlewares/LVGL/GUI/lvgl/src/misc/lv_rb.c **** 
 227:../../Middlewares/LVGL/GUI/lvgl/src/misc/lv_rb.c **** bool lv_rb_drop_node(lv_rb_t * tree, lv_rb_node_t * node)
 228:../../Middlewares/LVGL/GUI/lvgl/src/misc/lv_rb.c **** {
 229:../../Middlewares/LVGL/GUI/lvgl/src/misc/lv_rb.c ****     LV_ASSERT_NULL(tree);
 230:../../Middlewares/LVGL/GUI/lvgl/src/misc/lv_rb.c ****     if(tree == NULL) {
 231:../../Middlewares/LVGL/GUI/lvgl/src/misc/lv_rb.c ****         return false;
 232:../../Middlewares/LVGL/GUI/lvgl/src/misc/lv_rb.c ****     }
 233:../../Middlewares/LVGL/GUI/lvgl/src/misc/lv_rb.c **** 
 234:../../Middlewares/LVGL/GUI/lvgl/src/misc/lv_rb.c ****     void * data = lv_rb_remove_node(tree, node);
 235:../../Middlewares/LVGL/GUI/lvgl/src/misc/lv_rb.c ****     if(data) {
 236:../../Middlewares/LVGL/GUI/lvgl/src/misc/lv_rb.c ****         lv_free(data);
 237:../../Middlewares/LVGL/GUI/lvgl/src/misc/lv_rb.c ****         return true;
 238:../../Middlewares/LVGL/GUI/lvgl/src/misc/lv_rb.c ****     }
 239:../../Middlewares/LVGL/GUI/lvgl/src/misc/lv_rb.c ****     return false;
 240:../../Middlewares/LVGL/GUI/lvgl/src/misc/lv_rb.c **** }
 241:../../Middlewares/LVGL/GUI/lvgl/src/misc/lv_rb.c **** 
 242:../../Middlewares/LVGL/GUI/lvgl/src/misc/lv_rb.c **** bool lv_rb_drop(lv_rb_t * tree, const void * key)
 243:../../Middlewares/LVGL/GUI/lvgl/src/misc/lv_rb.c **** {
 244:../../Middlewares/LVGL/GUI/lvgl/src/misc/lv_rb.c ****     LV_ASSERT_NULL(tree);
 245:../../Middlewares/LVGL/GUI/lvgl/src/misc/lv_rb.c ****     if(tree == NULL) {
 246:../../Middlewares/LVGL/GUI/lvgl/src/misc/lv_rb.c ****         return false;
 247:../../Middlewares/LVGL/GUI/lvgl/src/misc/lv_rb.c ****     }
 248:../../Middlewares/LVGL/GUI/lvgl/src/misc/lv_rb.c **** 
 249:../../Middlewares/LVGL/GUI/lvgl/src/misc/lv_rb.c ****     void * data = lv_rb_remove(tree, key);
 250:../../Middlewares/LVGL/GUI/lvgl/src/misc/lv_rb.c ****     if(data) {
 251:../../Middlewares/LVGL/GUI/lvgl/src/misc/lv_rb.c ****         lv_free(data);
 252:../../Middlewares/LVGL/GUI/lvgl/src/misc/lv_rb.c ****         return true;
 253:../../Middlewares/LVGL/GUI/lvgl/src/misc/lv_rb.c ****     }
 254:../../Middlewares/LVGL/GUI/lvgl/src/misc/lv_rb.c ****     return false;
 255:../../Middlewares/LVGL/GUI/lvgl/src/misc/lv_rb.c **** }
 256:../../Middlewares/LVGL/GUI/lvgl/src/misc/lv_rb.c **** 
 257:../../Middlewares/LVGL/GUI/lvgl/src/misc/lv_rb.c **** void lv_rb_destroy(lv_rb_t * tree)
 258:../../Middlewares/LVGL/GUI/lvgl/src/misc/lv_rb.c **** {
 259:../../Middlewares/LVGL/GUI/lvgl/src/misc/lv_rb.c ****     LV_ASSERT_NULL(tree);
ARM GAS  C:\Users\28576\AppData\Local\Temp\ccFkI9MQ.s 			page 6


 260:../../Middlewares/LVGL/GUI/lvgl/src/misc/lv_rb.c **** 
 261:../../Middlewares/LVGL/GUI/lvgl/src/misc/lv_rb.c ****     if(tree == NULL) {
 262:../../Middlewares/LVGL/GUI/lvgl/src/misc/lv_rb.c ****         return;
 263:../../Middlewares/LVGL/GUI/lvgl/src/misc/lv_rb.c ****     }
 264:../../Middlewares/LVGL/GUI/lvgl/src/misc/lv_rb.c **** 
 265:../../Middlewares/LVGL/GUI/lvgl/src/misc/lv_rb.c ****     lv_rb_node_t * node = tree->root;
 266:../../Middlewares/LVGL/GUI/lvgl/src/misc/lv_rb.c ****     lv_rb_node_t * parent = NULL;
 267:../../Middlewares/LVGL/GUI/lvgl/src/misc/lv_rb.c **** 
 268:../../Middlewares/LVGL/GUI/lvgl/src/misc/lv_rb.c ****     while(node != NULL) {
 269:../../Middlewares/LVGL/GUI/lvgl/src/misc/lv_rb.c ****         if(node->left != NULL) {
 270:../../Middlewares/LVGL/GUI/lvgl/src/misc/lv_rb.c ****             node = node->left;
 271:../../Middlewares/LVGL/GUI/lvgl/src/misc/lv_rb.c ****         }
 272:../../Middlewares/LVGL/GUI/lvgl/src/misc/lv_rb.c ****         else if(node->right != NULL) {
 273:../../Middlewares/LVGL/GUI/lvgl/src/misc/lv_rb.c ****             node = node->right;
 274:../../Middlewares/LVGL/GUI/lvgl/src/misc/lv_rb.c ****         }
 275:../../Middlewares/LVGL/GUI/lvgl/src/misc/lv_rb.c ****         else {
 276:../../Middlewares/LVGL/GUI/lvgl/src/misc/lv_rb.c ****             parent = node->parent;
 277:../../Middlewares/LVGL/GUI/lvgl/src/misc/lv_rb.c ****             if(parent != NULL) {
 278:../../Middlewares/LVGL/GUI/lvgl/src/misc/lv_rb.c ****                 if(parent->left == node) {
 279:../../Middlewares/LVGL/GUI/lvgl/src/misc/lv_rb.c ****                     parent->left = NULL;
 280:../../Middlewares/LVGL/GUI/lvgl/src/misc/lv_rb.c ****                 }
 281:../../Middlewares/LVGL/GUI/lvgl/src/misc/lv_rb.c ****                 else {
 282:../../Middlewares/LVGL/GUI/lvgl/src/misc/lv_rb.c ****                     parent->right = NULL;
 283:../../Middlewares/LVGL/GUI/lvgl/src/misc/lv_rb.c ****                 }
 284:../../Middlewares/LVGL/GUI/lvgl/src/misc/lv_rb.c ****             }
 285:../../Middlewares/LVGL/GUI/lvgl/src/misc/lv_rb.c ****             lv_free(node->data);
 286:../../Middlewares/LVGL/GUI/lvgl/src/misc/lv_rb.c ****             lv_free(node);
 287:../../Middlewares/LVGL/GUI/lvgl/src/misc/lv_rb.c ****             node = parent;
 288:../../Middlewares/LVGL/GUI/lvgl/src/misc/lv_rb.c ****         }
 289:../../Middlewares/LVGL/GUI/lvgl/src/misc/lv_rb.c ****     }
 290:../../Middlewares/LVGL/GUI/lvgl/src/misc/lv_rb.c ****     tree->root = NULL;
 291:../../Middlewares/LVGL/GUI/lvgl/src/misc/lv_rb.c **** }
 292:../../Middlewares/LVGL/GUI/lvgl/src/misc/lv_rb.c **** 
 293:../../Middlewares/LVGL/GUI/lvgl/src/misc/lv_rb.c **** lv_rb_node_t * lv_rb_minimum(lv_rb_t * tree)
 294:../../Middlewares/LVGL/GUI/lvgl/src/misc/lv_rb.c **** {
 295:../../Middlewares/LVGL/GUI/lvgl/src/misc/lv_rb.c ****     LV_ASSERT_NULL(tree);
 296:../../Middlewares/LVGL/GUI/lvgl/src/misc/lv_rb.c ****     if(tree == NULL) {
 297:../../Middlewares/LVGL/GUI/lvgl/src/misc/lv_rb.c ****         return NULL;
 298:../../Middlewares/LVGL/GUI/lvgl/src/misc/lv_rb.c ****     }
 299:../../Middlewares/LVGL/GUI/lvgl/src/misc/lv_rb.c ****     return lv_rb_minimum_from(tree->root);
 300:../../Middlewares/LVGL/GUI/lvgl/src/misc/lv_rb.c **** }
 301:../../Middlewares/LVGL/GUI/lvgl/src/misc/lv_rb.c **** 
 302:../../Middlewares/LVGL/GUI/lvgl/src/misc/lv_rb.c **** lv_rb_node_t * lv_rb_maximum(lv_rb_t * tree)
 303:../../Middlewares/LVGL/GUI/lvgl/src/misc/lv_rb.c **** {
 304:../../Middlewares/LVGL/GUI/lvgl/src/misc/lv_rb.c ****     LV_ASSERT_NULL(tree);
 305:../../Middlewares/LVGL/GUI/lvgl/src/misc/lv_rb.c ****     if(tree == NULL) {
 306:../../Middlewares/LVGL/GUI/lvgl/src/misc/lv_rb.c ****         return NULL;
 307:../../Middlewares/LVGL/GUI/lvgl/src/misc/lv_rb.c ****     }
 308:../../Middlewares/LVGL/GUI/lvgl/src/misc/lv_rb.c ****     return lv_rb_maximum_from(tree->root);
 309:../../Middlewares/LVGL/GUI/lvgl/src/misc/lv_rb.c **** }
 310:../../Middlewares/LVGL/GUI/lvgl/src/misc/lv_rb.c **** 
 311:../../Middlewares/LVGL/GUI/lvgl/src/misc/lv_rb.c **** lv_rb_node_t * lv_rb_minimum_from(lv_rb_node_t * node)
 312:../../Middlewares/LVGL/GUI/lvgl/src/misc/lv_rb.c **** {
 313:../../Middlewares/LVGL/GUI/lvgl/src/misc/lv_rb.c ****     while(node->left != NULL) {
 314:../../Middlewares/LVGL/GUI/lvgl/src/misc/lv_rb.c ****         node = node->left;
 315:../../Middlewares/LVGL/GUI/lvgl/src/misc/lv_rb.c ****     }
 316:../../Middlewares/LVGL/GUI/lvgl/src/misc/lv_rb.c **** 
ARM GAS  C:\Users\28576\AppData\Local\Temp\ccFkI9MQ.s 			page 7


 317:../../Middlewares/LVGL/GUI/lvgl/src/misc/lv_rb.c ****     return node;
 318:../../Middlewares/LVGL/GUI/lvgl/src/misc/lv_rb.c **** }
 319:../../Middlewares/LVGL/GUI/lvgl/src/misc/lv_rb.c **** 
 320:../../Middlewares/LVGL/GUI/lvgl/src/misc/lv_rb.c **** lv_rb_node_t * lv_rb_maximum_from(lv_rb_node_t * node)
 321:../../Middlewares/LVGL/GUI/lvgl/src/misc/lv_rb.c **** {
 322:../../Middlewares/LVGL/GUI/lvgl/src/misc/lv_rb.c ****     while(node->right != NULL) {
 323:../../Middlewares/LVGL/GUI/lvgl/src/misc/lv_rb.c ****         node = node->right;
 324:../../Middlewares/LVGL/GUI/lvgl/src/misc/lv_rb.c ****     }
 325:../../Middlewares/LVGL/GUI/lvgl/src/misc/lv_rb.c **** 
 326:../../Middlewares/LVGL/GUI/lvgl/src/misc/lv_rb.c ****     return node;
 327:../../Middlewares/LVGL/GUI/lvgl/src/misc/lv_rb.c **** }
 328:../../Middlewares/LVGL/GUI/lvgl/src/misc/lv_rb.c **** 
 329:../../Middlewares/LVGL/GUI/lvgl/src/misc/lv_rb.c **** /**********************
 330:../../Middlewares/LVGL/GUI/lvgl/src/misc/lv_rb.c ****  *   STATIC FUNCTIONS
 331:../../Middlewares/LVGL/GUI/lvgl/src/misc/lv_rb.c ****  **********************/
 332:../../Middlewares/LVGL/GUI/lvgl/src/misc/lv_rb.c **** 
 333:../../Middlewares/LVGL/GUI/lvgl/src/misc/lv_rb.c **** static lv_rb_node_t * rb_create_node(lv_rb_t * tree)
 334:../../Middlewares/LVGL/GUI/lvgl/src/misc/lv_rb.c **** {
 335:../../Middlewares/LVGL/GUI/lvgl/src/misc/lv_rb.c ****     lv_rb_node_t * node = lv_malloc_zeroed(sizeof(lv_rb_node_t));
 336:../../Middlewares/LVGL/GUI/lvgl/src/misc/lv_rb.c ****     LV_ASSERT_MALLOC(node);
 337:../../Middlewares/LVGL/GUI/lvgl/src/misc/lv_rb.c ****     if(node == NULL) {
 338:../../Middlewares/LVGL/GUI/lvgl/src/misc/lv_rb.c ****         return NULL;
 339:../../Middlewares/LVGL/GUI/lvgl/src/misc/lv_rb.c ****     }
 340:../../Middlewares/LVGL/GUI/lvgl/src/misc/lv_rb.c **** 
 341:../../Middlewares/LVGL/GUI/lvgl/src/misc/lv_rb.c ****     node->data = lv_malloc_zeroed(tree->size);
 342:../../Middlewares/LVGL/GUI/lvgl/src/misc/lv_rb.c ****     LV_ASSERT_MALLOC(node->data);
 343:../../Middlewares/LVGL/GUI/lvgl/src/misc/lv_rb.c ****     if(node->data == NULL) {
 344:../../Middlewares/LVGL/GUI/lvgl/src/misc/lv_rb.c ****         lv_free(node);
 345:../../Middlewares/LVGL/GUI/lvgl/src/misc/lv_rb.c ****         return NULL;
 346:../../Middlewares/LVGL/GUI/lvgl/src/misc/lv_rb.c ****     }
 347:../../Middlewares/LVGL/GUI/lvgl/src/misc/lv_rb.c **** 
 348:../../Middlewares/LVGL/GUI/lvgl/src/misc/lv_rb.c ****     node->color = LV_RB_COLOR_RED;
 349:../../Middlewares/LVGL/GUI/lvgl/src/misc/lv_rb.c ****     node->left = NULL;
 350:../../Middlewares/LVGL/GUI/lvgl/src/misc/lv_rb.c ****     node->right = NULL;
 351:../../Middlewares/LVGL/GUI/lvgl/src/misc/lv_rb.c **** 
 352:../../Middlewares/LVGL/GUI/lvgl/src/misc/lv_rb.c ****     return node;
 353:../../Middlewares/LVGL/GUI/lvgl/src/misc/lv_rb.c **** }
 354:../../Middlewares/LVGL/GUI/lvgl/src/misc/lv_rb.c **** 
 355:../../Middlewares/LVGL/GUI/lvgl/src/misc/lv_rb.c **** static lv_rb_node_t * rb_find_leaf_parent(lv_rb_t * tree, lv_rb_node_t * node)
 356:../../Middlewares/LVGL/GUI/lvgl/src/misc/lv_rb.c **** {
  28              		.loc 1 356 1 view -0
  29              		.cfi_startproc
  30              		@ args = 0, pretend = 0, frame = 0
  31              		@ frame_needed = 0, uses_anonymous_args = 0
  32              		.loc 1 356 1 is_stmt 0 view .LVU1
  33 0000 70B5     		push	{r4, r5, r6, lr}
  34              	.LCFI0:
  35              		.cfi_def_cfa_offset 16
  36              		.cfi_offset 4, -16
  37              		.cfi_offset 5, -12
  38              		.cfi_offset 6, -8
  39              		.cfi_offset 14, -4
  40 0002 0546     		mov	r5, r0
  41 0004 0E46     		mov	r6, r1
 357:../../Middlewares/LVGL/GUI/lvgl/src/misc/lv_rb.c ****     lv_rb_node_t * current = tree->root;
  42              		.loc 1 357 5 is_stmt 1 view .LVU2
  43              		.loc 1 357 20 is_stmt 0 view .LVU3
ARM GAS  C:\Users\28576\AppData\Local\Temp\ccFkI9MQ.s 			page 8


  44 0006 0468     		ldr	r4, [r0]
  45              	.LVL1:
 358:../../Middlewares/LVGL/GUI/lvgl/src/misc/lv_rb.c ****     lv_rb_node_t * parent = current;
  46              		.loc 1 358 5 is_stmt 1 view .LVU4
 359:../../Middlewares/LVGL/GUI/lvgl/src/misc/lv_rb.c **** 
 360:../../Middlewares/LVGL/GUI/lvgl/src/misc/lv_rb.c ****     while(current != NULL) {
  47              		.loc 1 360 5 view .LVU5
 358:../../Middlewares/LVGL/GUI/lvgl/src/misc/lv_rb.c ****     lv_rb_node_t * parent = current;
  48              		.loc 1 358 20 is_stmt 0 view .LVU6
  49 0008 2046     		mov	r0, r4
  50              	.LVL2:
  51              		.loc 1 360 10 view .LVU7
  52 000a 02E0     		b	.L2
  53              	.LVL3:
  54              	.L8:
 361:../../Middlewares/LVGL/GUI/lvgl/src/misc/lv_rb.c ****         parent = current;
 362:../../Middlewares/LVGL/GUI/lvgl/src/misc/lv_rb.c **** 
 363:../../Middlewares/LVGL/GUI/lvgl/src/misc/lv_rb.c ****         if(tree->compare(node->data, current->data) < 0) {
 364:../../Middlewares/LVGL/GUI/lvgl/src/misc/lv_rb.c ****             current = current->left;
  55              		.loc 1 364 13 is_stmt 1 view .LVU8
  56              		.loc 1 364 21 is_stmt 0 view .LVU9
  57 000c 6368     		ldr	r3, [r4, #4]
  58              	.LVL4:
  59              	.L4:
 356:../../Middlewares/LVGL/GUI/lvgl/src/misc/lv_rb.c ****     lv_rb_node_t * current = tree->root;
  60              		.loc 1 356 1 view .LVU10
  61 000e 2046     		mov	r0, r4
  62 0010 1C46     		mov	r4, r3
  63              	.LVL5:
  64              	.L2:
 360:../../Middlewares/LVGL/GUI/lvgl/src/misc/lv_rb.c ****         parent = current;
  65              		.loc 1 360 19 is_stmt 1 view .LVU11
  66 0012 3CB1     		cbz	r4, .L7
 361:../../Middlewares/LVGL/GUI/lvgl/src/misc/lv_rb.c ****         parent = current;
  67              		.loc 1 361 9 view .LVU12
  68              	.LVL6:
 363:../../Middlewares/LVGL/GUI/lvgl/src/misc/lv_rb.c ****             current = current->left;
  69              		.loc 1 363 9 view .LVU13
 363:../../Middlewares/LVGL/GUI/lvgl/src/misc/lv_rb.c ****             current = current->left;
  70              		.loc 1 363 16 is_stmt 0 view .LVU14
  71 0014 6B68     		ldr	r3, [r5, #4]
 363:../../Middlewares/LVGL/GUI/lvgl/src/misc/lv_rb.c ****             current = current->left;
  72              		.loc 1 363 12 view .LVU15
  73 0016 2169     		ldr	r1, [r4, #16]
  74 0018 3069     		ldr	r0, [r6, #16]
  75 001a 9847     		blx	r3
  76              	.LVL7:
 363:../../Middlewares/LVGL/GUI/lvgl/src/misc/lv_rb.c ****             current = current->left;
  77              		.loc 1 363 11 discriminator 1 view .LVU16
  78 001c 0028     		cmp	r0, #0
  79 001e F5DB     		blt	.L8
 365:../../Middlewares/LVGL/GUI/lvgl/src/misc/lv_rb.c ****         }
 366:../../Middlewares/LVGL/GUI/lvgl/src/misc/lv_rb.c ****         else {
 367:../../Middlewares/LVGL/GUI/lvgl/src/misc/lv_rb.c ****             current = current->right;
  80              		.loc 1 367 13 is_stmt 1 view .LVU17
  81              		.loc 1 367 21 is_stmt 0 view .LVU18
  82 0020 A368     		ldr	r3, [r4, #8]
ARM GAS  C:\Users\28576\AppData\Local\Temp\ccFkI9MQ.s 			page 9


  83              	.LVL8:
  84              		.loc 1 367 21 view .LVU19
  85 0022 F4E7     		b	.L4
  86              	.LVL9:
  87              	.L7:
 368:../../Middlewares/LVGL/GUI/lvgl/src/misc/lv_rb.c ****         }
 369:../../Middlewares/LVGL/GUI/lvgl/src/misc/lv_rb.c ****     }
 370:../../Middlewares/LVGL/GUI/lvgl/src/misc/lv_rb.c **** 
 371:../../Middlewares/LVGL/GUI/lvgl/src/misc/lv_rb.c ****     return parent;
  88              		.loc 1 371 5 is_stmt 1 view .LVU20
 372:../../Middlewares/LVGL/GUI/lvgl/src/misc/lv_rb.c **** }
  89              		.loc 1 372 1 is_stmt 0 view .LVU21
  90 0024 70BD     		pop	{r4, r5, r6, pc}
  91              		.loc 1 372 1 view .LVU22
  92              		.cfi_endproc
  93              	.LFE15:
  95              		.section	.text.rb_right_rotate,"ax",%progbits
  96              		.align	1
  97              		.syntax unified
  98              		.thumb
  99              		.thumb_func
 101              	rb_right_rotate:
 102              	.LVL10:
 103              	.LFB16:
 373:../../Middlewares/LVGL/GUI/lvgl/src/misc/lv_rb.c **** 
 374:../../Middlewares/LVGL/GUI/lvgl/src/misc/lv_rb.c **** static void rb_right_rotate(lv_rb_t * tree, lv_rb_node_t * node)
 375:../../Middlewares/LVGL/GUI/lvgl/src/misc/lv_rb.c **** {
 104              		.loc 1 375 1 is_stmt 1 view -0
 105              		.cfi_startproc
 106              		@ args = 0, pretend = 0, frame = 0
 107              		@ frame_needed = 0, uses_anonymous_args = 0
 108              		@ link register save eliminated.
 376:../../Middlewares/LVGL/GUI/lvgl/src/misc/lv_rb.c ****     lv_rb_node_t * left = node->left;
 109              		.loc 1 376 5 view .LVU24
 110              		.loc 1 376 20 is_stmt 0 view .LVU25
 111 0000 4B68     		ldr	r3, [r1, #4]
 112              	.LVL11:
 377:../../Middlewares/LVGL/GUI/lvgl/src/misc/lv_rb.c ****     node->left = left->right;
 113              		.loc 1 377 5 is_stmt 1 view .LVU26
 114              		.loc 1 377 22 is_stmt 0 view .LVU27
 115 0002 9A68     		ldr	r2, [r3, #8]
 116              		.loc 1 377 16 view .LVU28
 117 0004 4A60     		str	r2, [r1, #4]
 378:../../Middlewares/LVGL/GUI/lvgl/src/misc/lv_rb.c **** 
 379:../../Middlewares/LVGL/GUI/lvgl/src/misc/lv_rb.c ****     if(left->right != NULL) {
 118              		.loc 1 379 5 is_stmt 1 view .LVU29
 119              		.loc 1 379 7 is_stmt 0 view .LVU30
 120 0006 02B1     		cbz	r2, .L10
 380:../../Middlewares/LVGL/GUI/lvgl/src/misc/lv_rb.c ****         left->right->parent = node;
 121              		.loc 1 380 9 is_stmt 1 view .LVU31
 122              		.loc 1 380 29 is_stmt 0 view .LVU32
 123 0008 1160     		str	r1, [r2]
 124              	.L10:
 381:../../Middlewares/LVGL/GUI/lvgl/src/misc/lv_rb.c ****     }
 382:../../Middlewares/LVGL/GUI/lvgl/src/misc/lv_rb.c **** 
 383:../../Middlewares/LVGL/GUI/lvgl/src/misc/lv_rb.c ****     left->parent = node->parent;
 125              		.loc 1 383 5 is_stmt 1 view .LVU33
ARM GAS  C:\Users\28576\AppData\Local\Temp\ccFkI9MQ.s 			page 10


 126              		.loc 1 383 24 is_stmt 0 view .LVU34
 127 000a 0A68     		ldr	r2, [r1]
 128              		.loc 1 383 18 view .LVU35
 129 000c 1A60     		str	r2, [r3]
 384:../../Middlewares/LVGL/GUI/lvgl/src/misc/lv_rb.c **** 
 385:../../Middlewares/LVGL/GUI/lvgl/src/misc/lv_rb.c ****     if(node->parent == NULL) {
 130              		.loc 1 385 5 is_stmt 1 view .LVU36
 131              		.loc 1 385 7 is_stmt 0 view .LVU37
 132 000e 32B1     		cbz	r2, .L14
 386:../../Middlewares/LVGL/GUI/lvgl/src/misc/lv_rb.c ****         tree->root = left;
 387:../../Middlewares/LVGL/GUI/lvgl/src/misc/lv_rb.c ****     }
 388:../../Middlewares/LVGL/GUI/lvgl/src/misc/lv_rb.c ****     else if(node == node->parent->right) {
 133              		.loc 1 388 10 is_stmt 1 view .LVU38
 134              		.loc 1 388 33 is_stmt 0 view .LVU39
 135 0010 9068     		ldr	r0, [r2, #8]
 136              	.LVL12:
 137              		.loc 1 388 12 view .LVU40
 138 0012 8842     		cmp	r0, r1
 139 0014 05D0     		beq	.L15
 389:../../Middlewares/LVGL/GUI/lvgl/src/misc/lv_rb.c ****         node->parent->right = left;
 390:../../Middlewares/LVGL/GUI/lvgl/src/misc/lv_rb.c ****     }
 391:../../Middlewares/LVGL/GUI/lvgl/src/misc/lv_rb.c ****     else {
 392:../../Middlewares/LVGL/GUI/lvgl/src/misc/lv_rb.c ****         node->parent->left = left;
 140              		.loc 1 392 9 is_stmt 1 view .LVU41
 141              		.loc 1 392 28 is_stmt 0 view .LVU42
 142 0016 5360     		str	r3, [r2, #4]
 143              	.L12:
 393:../../Middlewares/LVGL/GUI/lvgl/src/misc/lv_rb.c ****     }
 394:../../Middlewares/LVGL/GUI/lvgl/src/misc/lv_rb.c **** 
 395:../../Middlewares/LVGL/GUI/lvgl/src/misc/lv_rb.c ****     left->right = node;
 144              		.loc 1 395 5 is_stmt 1 view .LVU43
 145              		.loc 1 395 17 is_stmt 0 view .LVU44
 146 0018 9960     		str	r1, [r3, #8]
 396:../../Middlewares/LVGL/GUI/lvgl/src/misc/lv_rb.c ****     node->parent = left;
 147              		.loc 1 396 5 is_stmt 1 view .LVU45
 148              		.loc 1 396 18 is_stmt 0 view .LVU46
 149 001a 0B60     		str	r3, [r1]
 397:../../Middlewares/LVGL/GUI/lvgl/src/misc/lv_rb.c **** }
 150              		.loc 1 397 1 view .LVU47
 151 001c 7047     		bx	lr
 152              	.LVL13:
 153              	.L14:
 386:../../Middlewares/LVGL/GUI/lvgl/src/misc/lv_rb.c ****     }
 154              		.loc 1 386 9 is_stmt 1 view .LVU48
 386:../../Middlewares/LVGL/GUI/lvgl/src/misc/lv_rb.c ****     }
 155              		.loc 1 386 20 is_stmt 0 view .LVU49
 156 001e 0360     		str	r3, [r0]
 157 0020 FAE7     		b	.L12
 158              	.LVL14:
 159              	.L15:
 389:../../Middlewares/LVGL/GUI/lvgl/src/misc/lv_rb.c ****     }
 160              		.loc 1 389 9 is_stmt 1 view .LVU50
 389:../../Middlewares/LVGL/GUI/lvgl/src/misc/lv_rb.c ****     }
 161              		.loc 1 389 29 is_stmt 0 view .LVU51
 162 0022 9360     		str	r3, [r2, #8]
 163 0024 F8E7     		b	.L12
 164              		.cfi_endproc
ARM GAS  C:\Users\28576\AppData\Local\Temp\ccFkI9MQ.s 			page 11


 165              	.LFE16:
 167              		.section	.text.rb_left_rotate,"ax",%progbits
 168              		.align	1
 169              		.syntax unified
 170              		.thumb
 171              		.thumb_func
 173              	rb_left_rotate:
 174              	.LVL15:
 175              	.LFB17:
 398:../../Middlewares/LVGL/GUI/lvgl/src/misc/lv_rb.c **** 
 399:../../Middlewares/LVGL/GUI/lvgl/src/misc/lv_rb.c **** static void rb_left_rotate(lv_rb_t * tree, lv_rb_node_t * node)
 400:../../Middlewares/LVGL/GUI/lvgl/src/misc/lv_rb.c **** {
 176              		.loc 1 400 1 is_stmt 1 view -0
 177              		.cfi_startproc
 178              		@ args = 0, pretend = 0, frame = 0
 179              		@ frame_needed = 0, uses_anonymous_args = 0
 180              		@ link register save eliminated.
 401:../../Middlewares/LVGL/GUI/lvgl/src/misc/lv_rb.c ****     lv_rb_node_t * right = node->right;
 181              		.loc 1 401 5 view .LVU53
 182              		.loc 1 401 20 is_stmt 0 view .LVU54
 183 0000 8B68     		ldr	r3, [r1, #8]
 184              	.LVL16:
 402:../../Middlewares/LVGL/GUI/lvgl/src/misc/lv_rb.c ****     node->right = right->left;
 185              		.loc 1 402 5 is_stmt 1 view .LVU55
 186              		.loc 1 402 24 is_stmt 0 view .LVU56
 187 0002 5A68     		ldr	r2, [r3, #4]
 188              		.loc 1 402 17 view .LVU57
 189 0004 8A60     		str	r2, [r1, #8]
 403:../../Middlewares/LVGL/GUI/lvgl/src/misc/lv_rb.c **** 
 404:../../Middlewares/LVGL/GUI/lvgl/src/misc/lv_rb.c ****     if(right->left != NULL) {
 190              		.loc 1 404 5 is_stmt 1 view .LVU58
 191              		.loc 1 404 7 is_stmt 0 view .LVU59
 192 0006 02B1     		cbz	r2, .L17
 405:../../Middlewares/LVGL/GUI/lvgl/src/misc/lv_rb.c ****         right->left->parent = node;
 193              		.loc 1 405 9 is_stmt 1 view .LVU60
 194              		.loc 1 405 29 is_stmt 0 view .LVU61
 195 0008 1160     		str	r1, [r2]
 196              	.L17:
 406:../../Middlewares/LVGL/GUI/lvgl/src/misc/lv_rb.c ****     }
 407:../../Middlewares/LVGL/GUI/lvgl/src/misc/lv_rb.c **** 
 408:../../Middlewares/LVGL/GUI/lvgl/src/misc/lv_rb.c ****     right->parent = node->parent;
 197              		.loc 1 408 5 is_stmt 1 view .LVU62
 198              		.loc 1 408 25 is_stmt 0 view .LVU63
 199 000a 0A68     		ldr	r2, [r1]
 200              		.loc 1 408 19 view .LVU64
 201 000c 1A60     		str	r2, [r3]
 409:../../Middlewares/LVGL/GUI/lvgl/src/misc/lv_rb.c **** 
 410:../../Middlewares/LVGL/GUI/lvgl/src/misc/lv_rb.c ****     if(node->parent == NULL) {
 202              		.loc 1 410 5 is_stmt 1 view .LVU65
 203              		.loc 1 410 7 is_stmt 0 view .LVU66
 204 000e 32B1     		cbz	r2, .L21
 411:../../Middlewares/LVGL/GUI/lvgl/src/misc/lv_rb.c ****         tree->root = right;
 412:../../Middlewares/LVGL/GUI/lvgl/src/misc/lv_rb.c ****     }
 413:../../Middlewares/LVGL/GUI/lvgl/src/misc/lv_rb.c ****     else if(node == node->parent->left) {
 205              		.loc 1 413 10 is_stmt 1 view .LVU67
 206              		.loc 1 413 33 is_stmt 0 view .LVU68
 207 0010 5068     		ldr	r0, [r2, #4]
ARM GAS  C:\Users\28576\AppData\Local\Temp\ccFkI9MQ.s 			page 12


 208              	.LVL17:
 209              		.loc 1 413 12 view .LVU69
 210 0012 8842     		cmp	r0, r1
 211 0014 05D0     		beq	.L22
 414:../../Middlewares/LVGL/GUI/lvgl/src/misc/lv_rb.c ****         node->parent->left = right;
 415:../../Middlewares/LVGL/GUI/lvgl/src/misc/lv_rb.c ****     }
 416:../../Middlewares/LVGL/GUI/lvgl/src/misc/lv_rb.c ****     else {
 417:../../Middlewares/LVGL/GUI/lvgl/src/misc/lv_rb.c ****         node->parent->right = right;
 212              		.loc 1 417 9 is_stmt 1 view .LVU70
 213              		.loc 1 417 29 is_stmt 0 view .LVU71
 214 0016 9360     		str	r3, [r2, #8]
 215              	.L19:
 418:../../Middlewares/LVGL/GUI/lvgl/src/misc/lv_rb.c ****     }
 419:../../Middlewares/LVGL/GUI/lvgl/src/misc/lv_rb.c **** 
 420:../../Middlewares/LVGL/GUI/lvgl/src/misc/lv_rb.c ****     right->left = node;
 216              		.loc 1 420 5 is_stmt 1 view .LVU72
 217              		.loc 1 420 17 is_stmt 0 view .LVU73
 218 0018 5960     		str	r1, [r3, #4]
 421:../../Middlewares/LVGL/GUI/lvgl/src/misc/lv_rb.c ****     node->parent = right;
 219              		.loc 1 421 5 is_stmt 1 view .LVU74
 220              		.loc 1 421 18 is_stmt 0 view .LVU75
 221 001a 0B60     		str	r3, [r1]
 422:../../Middlewares/LVGL/GUI/lvgl/src/misc/lv_rb.c **** }
 222              		.loc 1 422 1 view .LVU76
 223 001c 7047     		bx	lr
 224              	.LVL18:
 225              	.L21:
 411:../../Middlewares/LVGL/GUI/lvgl/src/misc/lv_rb.c ****     }
 226              		.loc 1 411 9 is_stmt 1 view .LVU77
 411:../../Middlewares/LVGL/GUI/lvgl/src/misc/lv_rb.c ****     }
 227              		.loc 1 411 20 is_stmt 0 view .LVU78
 228 001e 0360     		str	r3, [r0]
 229 0020 FAE7     		b	.L19
 230              	.LVL19:
 231              	.L22:
 414:../../Middlewares/LVGL/GUI/lvgl/src/misc/lv_rb.c ****     }
 232              		.loc 1 414 9 is_stmt 1 view .LVU79
 414:../../Middlewares/LVGL/GUI/lvgl/src/misc/lv_rb.c ****     }
 233              		.loc 1 414 28 is_stmt 0 view .LVU80
 234 0022 5360     		str	r3, [r2, #4]
 235 0024 F8E7     		b	.L19
 236              		.cfi_endproc
 237              	.LFE17:
 239              		.section	.text.rb_insert_color,"ax",%progbits
 240              		.align	1
 241              		.syntax unified
 242              		.thumb
 243              		.thumb_func
 245              	rb_insert_color:
 246              	.LVL20:
 247              	.LFB18:
 423:../../Middlewares/LVGL/GUI/lvgl/src/misc/lv_rb.c **** 
 424:../../Middlewares/LVGL/GUI/lvgl/src/misc/lv_rb.c **** static void rb_insert_color(lv_rb_t * tree, lv_rb_node_t * node)
 425:../../Middlewares/LVGL/GUI/lvgl/src/misc/lv_rb.c **** {
 248              		.loc 1 425 1 is_stmt 1 view -0
 249              		.cfi_startproc
 250              		@ args = 0, pretend = 0, frame = 0
ARM GAS  C:\Users\28576\AppData\Local\Temp\ccFkI9MQ.s 			page 13


 251              		@ frame_needed = 0, uses_anonymous_args = 0
 252              		.loc 1 425 1 is_stmt 0 view .LVU82
 253 0000 F8B5     		push	{r3, r4, r5, r6, r7, lr}
 254              	.LCFI1:
 255              		.cfi_def_cfa_offset 24
 256              		.cfi_offset 3, -24
 257              		.cfi_offset 4, -20
 258              		.cfi_offset 5, -16
 259              		.cfi_offset 6, -12
 260              		.cfi_offset 7, -8
 261              		.cfi_offset 14, -4
 262 0002 0746     		mov	r7, r0
 263 0004 0E46     		mov	r6, r1
 426:../../Middlewares/LVGL/GUI/lvgl/src/misc/lv_rb.c ****     lv_rb_node_t * parent = NULL;
 264              		.loc 1 426 5 is_stmt 1 view .LVU83
 265              	.LVL21:
 427:../../Middlewares/LVGL/GUI/lvgl/src/misc/lv_rb.c ****     lv_rb_node_t * gparent = NULL;
 266              		.loc 1 427 5 view .LVU84
 428:../../Middlewares/LVGL/GUI/lvgl/src/misc/lv_rb.c **** 
 429:../../Middlewares/LVGL/GUI/lvgl/src/misc/lv_rb.c ****     while((parent = node->parent) && parent->color == LV_RB_COLOR_RED) {
 267              		.loc 1 429 5 view .LVU85
 268              		.loc 1 429 10 is_stmt 0 view .LVU86
 269 0006 29E0     		b	.L24
 270              	.LVL22:
 271              	.L37:
 272              	.LBB4:
 430:../../Middlewares/LVGL/GUI/lvgl/src/misc/lv_rb.c ****         gparent = parent->parent;
 431:../../Middlewares/LVGL/GUI/lvgl/src/misc/lv_rb.c **** 
 432:../../Middlewares/LVGL/GUI/lvgl/src/misc/lv_rb.c ****         if(parent == gparent->left) {
 433:../../Middlewares/LVGL/GUI/lvgl/src/misc/lv_rb.c ****             {
 434:../../Middlewares/LVGL/GUI/lvgl/src/misc/lv_rb.c ****                 lv_rb_node_t * uncle = gparent->right;
 273              		.loc 1 434 17 is_stmt 1 view .LVU87
 274              		.loc 1 434 32 is_stmt 0 view .LVU88
 275 0008 AB68     		ldr	r3, [r5, #8]
 276              	.LVL23:
 435:../../Middlewares/LVGL/GUI/lvgl/src/misc/lv_rb.c ****                 if(uncle && uncle->color == LV_RB_COLOR_RED) {
 277              		.loc 1 435 17 is_stmt 1 view .LVU89
 278              		.loc 1 435 19 is_stmt 0 view .LVU90
 279 000a 0BB1     		cbz	r3, .L26
 280              		.loc 1 435 34 discriminator 1 view .LVU91
 281 000c 1A7B     		ldrb	r2, [r3, #12]	@ zero_extendqisi2
 282              		.loc 1 435 26 discriminator 1 view .LVU92
 283 000e 5AB1     		cbz	r2, .L34
 284              	.L26:
 285              		.loc 1 435 26 discriminator 1 view .LVU93
 286              	.LBE4:
 436:../../Middlewares/LVGL/GUI/lvgl/src/misc/lv_rb.c ****                     uncle->color = LV_RB_COLOR_BLACK;
 437:../../Middlewares/LVGL/GUI/lvgl/src/misc/lv_rb.c ****                     parent->color = LV_RB_COLOR_BLACK;
 438:../../Middlewares/LVGL/GUI/lvgl/src/misc/lv_rb.c ****                     gparent->color = LV_RB_COLOR_RED;
 439:../../Middlewares/LVGL/GUI/lvgl/src/misc/lv_rb.c ****                     node = gparent;
 440:../../Middlewares/LVGL/GUI/lvgl/src/misc/lv_rb.c ****                     continue;
 441:../../Middlewares/LVGL/GUI/lvgl/src/misc/lv_rb.c ****                 }
 442:../../Middlewares/LVGL/GUI/lvgl/src/misc/lv_rb.c ****             }
 443:../../Middlewares/LVGL/GUI/lvgl/src/misc/lv_rb.c **** 
 444:../../Middlewares/LVGL/GUI/lvgl/src/misc/lv_rb.c ****             if(parent->right == node) {
 287              		.loc 1 444 13 is_stmt 1 view .LVU94
 288              		.loc 1 444 22 is_stmt 0 view .LVU95
ARM GAS  C:\Users\28576\AppData\Local\Temp\ccFkI9MQ.s 			page 14


 289 0010 A368     		ldr	r3, [r4, #8]
 290              	.LVL24:
 291              		.loc 1 444 15 view .LVU96
 292 0012 B342     		cmp	r3, r6
 293 0014 0FD0     		beq	.L35
 294              	.LVL25:
 295              	.L28:
 445:../../Middlewares/LVGL/GUI/lvgl/src/misc/lv_rb.c ****                 lv_rb_node_t * tmp;
 446:../../Middlewares/LVGL/GUI/lvgl/src/misc/lv_rb.c ****                 rb_left_rotate(tree, parent);
 447:../../Middlewares/LVGL/GUI/lvgl/src/misc/lv_rb.c ****                 tmp = parent;
 448:../../Middlewares/LVGL/GUI/lvgl/src/misc/lv_rb.c ****                 parent = node;
 449:../../Middlewares/LVGL/GUI/lvgl/src/misc/lv_rb.c ****                 node = tmp;
 450:../../Middlewares/LVGL/GUI/lvgl/src/misc/lv_rb.c ****             }
 451:../../Middlewares/LVGL/GUI/lvgl/src/misc/lv_rb.c **** 
 452:../../Middlewares/LVGL/GUI/lvgl/src/misc/lv_rb.c ****             parent->color = LV_RB_COLOR_BLACK;
 296              		.loc 1 452 13 is_stmt 1 view .LVU97
 297              		.loc 1 452 27 is_stmt 0 view .LVU98
 298 0016 0123     		movs	r3, #1
 299 0018 2373     		strb	r3, [r4, #12]
 453:../../Middlewares/LVGL/GUI/lvgl/src/misc/lv_rb.c ****             gparent->color = LV_RB_COLOR_RED;
 300              		.loc 1 453 13 is_stmt 1 view .LVU99
 301              		.loc 1 453 28 is_stmt 0 view .LVU100
 302 001a 0023     		movs	r3, #0
 303 001c 2B73     		strb	r3, [r5, #12]
 454:../../Middlewares/LVGL/GUI/lvgl/src/misc/lv_rb.c ****             rb_right_rotate(tree, gparent);
 304              		.loc 1 454 13 is_stmt 1 view .LVU101
 305 001e 2946     		mov	r1, r5
 306 0020 3846     		mov	r0, r7
 307 0022 FFF7FEFF 		bl	rb_right_rotate
 308              	.LVL26:
 309 0026 19E0     		b	.L24
 310              	.LVL27:
 311              	.L34:
 312              	.LBB5:
 436:../../Middlewares/LVGL/GUI/lvgl/src/misc/lv_rb.c ****                     parent->color = LV_RB_COLOR_BLACK;
 313              		.loc 1 436 21 view .LVU102
 436:../../Middlewares/LVGL/GUI/lvgl/src/misc/lv_rb.c ****                     parent->color = LV_RB_COLOR_BLACK;
 314              		.loc 1 436 34 is_stmt 0 view .LVU103
 315 0028 0122     		movs	r2, #1
 316 002a 1A73     		strb	r2, [r3, #12]
 437:../../Middlewares/LVGL/GUI/lvgl/src/misc/lv_rb.c ****                     gparent->color = LV_RB_COLOR_RED;
 317              		.loc 1 437 21 is_stmt 1 view .LVU104
 437:../../Middlewares/LVGL/GUI/lvgl/src/misc/lv_rb.c ****                     gparent->color = LV_RB_COLOR_RED;
 318              		.loc 1 437 35 is_stmt 0 view .LVU105
 319 002c 2273     		strb	r2, [r4, #12]
 438:../../Middlewares/LVGL/GUI/lvgl/src/misc/lv_rb.c ****                     node = gparent;
 320              		.loc 1 438 21 is_stmt 1 view .LVU106
 438:../../Middlewares/LVGL/GUI/lvgl/src/misc/lv_rb.c ****                     node = gparent;
 321              		.loc 1 438 36 is_stmt 0 view .LVU107
 322 002e 0023     		movs	r3, #0
 323              	.LVL28:
 438:../../Middlewares/LVGL/GUI/lvgl/src/misc/lv_rb.c ****                     node = gparent;
 324              		.loc 1 438 36 view .LVU108
 325 0030 2B73     		strb	r3, [r5, #12]
 439:../../Middlewares/LVGL/GUI/lvgl/src/misc/lv_rb.c ****                     continue;
 326              		.loc 1 439 21 is_stmt 1 view .LVU109
 327              	.LVL29:
ARM GAS  C:\Users\28576\AppData\Local\Temp\ccFkI9MQ.s 			page 15


 440:../../Middlewares/LVGL/GUI/lvgl/src/misc/lv_rb.c ****                 }
 328              		.loc 1 440 21 view .LVU110
 439:../../Middlewares/LVGL/GUI/lvgl/src/misc/lv_rb.c ****                     continue;
 329              		.loc 1 439 26 is_stmt 0 view .LVU111
 330 0032 2E46     		mov	r6, r5
 440:../../Middlewares/LVGL/GUI/lvgl/src/misc/lv_rb.c ****                 }
 331              		.loc 1 440 21 view .LVU112
 332 0034 12E0     		b	.L24
 333              	.LVL30:
 334              	.L35:
 440:../../Middlewares/LVGL/GUI/lvgl/src/misc/lv_rb.c ****                 }
 335              		.loc 1 440 21 view .LVU113
 336              	.LBE5:
 337              	.LBB6:
 445:../../Middlewares/LVGL/GUI/lvgl/src/misc/lv_rb.c ****                 rb_left_rotate(tree, parent);
 338              		.loc 1 445 17 is_stmt 1 view .LVU114
 446:../../Middlewares/LVGL/GUI/lvgl/src/misc/lv_rb.c ****                 tmp = parent;
 339              		.loc 1 446 17 view .LVU115
 340 0036 2146     		mov	r1, r4
 341 0038 3846     		mov	r0, r7
 342 003a FFF7FEFF 		bl	rb_left_rotate
 343              	.LVL31:
 447:../../Middlewares/LVGL/GUI/lvgl/src/misc/lv_rb.c ****                 parent = node;
 344              		.loc 1 447 17 view .LVU116
 448:../../Middlewares/LVGL/GUI/lvgl/src/misc/lv_rb.c ****                 node = tmp;
 345              		.loc 1 448 17 view .LVU117
 449:../../Middlewares/LVGL/GUI/lvgl/src/misc/lv_rb.c ****             }
 346              		.loc 1 449 17 view .LVU118
 446:../../Middlewares/LVGL/GUI/lvgl/src/misc/lv_rb.c ****                 tmp = parent;
 347              		.loc 1 446 17 is_stmt 0 view .LVU119
 348 003e 3346     		mov	r3, r6
 449:../../Middlewares/LVGL/GUI/lvgl/src/misc/lv_rb.c ****             }
 349              		.loc 1 449 22 view .LVU120
 350 0040 2646     		mov	r6, r4
 351              	.LVL32:
 448:../../Middlewares/LVGL/GUI/lvgl/src/misc/lv_rb.c ****                 node = tmp;
 352              		.loc 1 448 24 view .LVU121
 353 0042 1C46     		mov	r4, r3
 354              	.LVL33:
 448:../../Middlewares/LVGL/GUI/lvgl/src/misc/lv_rb.c ****                 node = tmp;
 355              		.loc 1 448 24 view .LVU122
 356 0044 E7E7     		b	.L28
 357              	.LVL34:
 358              	.L29:
 448:../../Middlewares/LVGL/GUI/lvgl/src/misc/lv_rb.c ****                 node = tmp;
 359              		.loc 1 448 24 view .LVU123
 360              	.LBE6:
 455:../../Middlewares/LVGL/GUI/lvgl/src/misc/lv_rb.c ****         }
 456:../../Middlewares/LVGL/GUI/lvgl/src/misc/lv_rb.c ****         else {
 457:../../Middlewares/LVGL/GUI/lvgl/src/misc/lv_rb.c ****             {
 458:../../Middlewares/LVGL/GUI/lvgl/src/misc/lv_rb.c ****                 lv_rb_node_t * uncle = gparent->left;
 459:../../Middlewares/LVGL/GUI/lvgl/src/misc/lv_rb.c ****                 if(uncle && uncle->color == LV_RB_COLOR_RED) {
 460:../../Middlewares/LVGL/GUI/lvgl/src/misc/lv_rb.c ****                     uncle->color = LV_RB_COLOR_BLACK;
 461:../../Middlewares/LVGL/GUI/lvgl/src/misc/lv_rb.c ****                     parent->color = LV_RB_COLOR_BLACK;
 462:../../Middlewares/LVGL/GUI/lvgl/src/misc/lv_rb.c ****                     gparent->color = LV_RB_COLOR_RED;
 463:../../Middlewares/LVGL/GUI/lvgl/src/misc/lv_rb.c ****                     node = gparent;
 464:../../Middlewares/LVGL/GUI/lvgl/src/misc/lv_rb.c ****                     continue;
ARM GAS  C:\Users\28576\AppData\Local\Temp\ccFkI9MQ.s 			page 16


 465:../../Middlewares/LVGL/GUI/lvgl/src/misc/lv_rb.c ****                 }
 466:../../Middlewares/LVGL/GUI/lvgl/src/misc/lv_rb.c ****             }
 467:../../Middlewares/LVGL/GUI/lvgl/src/misc/lv_rb.c **** 
 468:../../Middlewares/LVGL/GUI/lvgl/src/misc/lv_rb.c ****             if(parent->left == node) {
 361              		.loc 1 468 13 is_stmt 1 view .LVU124
 362              		.loc 1 468 22 is_stmt 0 view .LVU125
 363 0046 6368     		ldr	r3, [r4, #4]
 364              	.LVL35:
 365              		.loc 1 468 15 view .LVU126
 366 0048 B342     		cmp	r3, r6
 367 004a 1BD0     		beq	.L36
 368              	.LVL36:
 369              	.L30:
 469:../../Middlewares/LVGL/GUI/lvgl/src/misc/lv_rb.c ****                 lv_rb_node_t * tmp;
 470:../../Middlewares/LVGL/GUI/lvgl/src/misc/lv_rb.c ****                 rb_right_rotate(tree, parent);
 471:../../Middlewares/LVGL/GUI/lvgl/src/misc/lv_rb.c ****                 tmp = parent;
 472:../../Middlewares/LVGL/GUI/lvgl/src/misc/lv_rb.c ****                 parent = node;
 473:../../Middlewares/LVGL/GUI/lvgl/src/misc/lv_rb.c ****                 node = tmp;
 474:../../Middlewares/LVGL/GUI/lvgl/src/misc/lv_rb.c ****             }
 475:../../Middlewares/LVGL/GUI/lvgl/src/misc/lv_rb.c **** 
 476:../../Middlewares/LVGL/GUI/lvgl/src/misc/lv_rb.c ****             parent->color = LV_RB_COLOR_BLACK;
 370              		.loc 1 476 13 is_stmt 1 view .LVU127
 371              		.loc 1 476 27 is_stmt 0 view .LVU128
 372 004c 0123     		movs	r3, #1
 373 004e 2373     		strb	r3, [r4, #12]
 477:../../Middlewares/LVGL/GUI/lvgl/src/misc/lv_rb.c ****             gparent->color = LV_RB_COLOR_RED;
 374              		.loc 1 477 13 is_stmt 1 view .LVU129
 375              		.loc 1 477 28 is_stmt 0 view .LVU130
 376 0050 0023     		movs	r3, #0
 377 0052 2B73     		strb	r3, [r5, #12]
 478:../../Middlewares/LVGL/GUI/lvgl/src/misc/lv_rb.c ****             rb_left_rotate(tree, gparent);
 378              		.loc 1 478 13 is_stmt 1 view .LVU131
 379 0054 2946     		mov	r1, r5
 380 0056 3846     		mov	r0, r7
 381 0058 FFF7FEFF 		bl	rb_left_rotate
 382              	.LVL37:
 383              	.L24:
 429:../../Middlewares/LVGL/GUI/lvgl/src/misc/lv_rb.c ****         gparent = parent->parent;
 384              		.loc 1 429 35 view .LVU132
 429:../../Middlewares/LVGL/GUI/lvgl/src/misc/lv_rb.c ****         gparent = parent->parent;
 385              		.loc 1 429 19 is_stmt 0 view .LVU133
 386 005c 3468     		ldr	r4, [r6]
 387              	.LVL38:
 429:../../Middlewares/LVGL/GUI/lvgl/src/misc/lv_rb.c ****         gparent = parent->parent;
 388              		.loc 1 429 35 view .LVU134
 389 005e CCB1     		cbz	r4, .L31
 429:../../Middlewares/LVGL/GUI/lvgl/src/misc/lv_rb.c ****         gparent = parent->parent;
 390              		.loc 1 429 44 discriminator 1 view .LVU135
 391 0060 237B     		ldrb	r3, [r4, #12]	@ zero_extendqisi2
 429:../../Middlewares/LVGL/GUI/lvgl/src/misc/lv_rb.c ****         gparent = parent->parent;
 392              		.loc 1 429 35 discriminator 1 view .LVU136
 393 0062 BBB9     		cbnz	r3, .L31
 430:../../Middlewares/LVGL/GUI/lvgl/src/misc/lv_rb.c **** 
 394              		.loc 1 430 9 is_stmt 1 view .LVU137
 430:../../Middlewares/LVGL/GUI/lvgl/src/misc/lv_rb.c **** 
 395              		.loc 1 430 17 is_stmt 0 view .LVU138
 396 0064 2568     		ldr	r5, [r4]
ARM GAS  C:\Users\28576\AppData\Local\Temp\ccFkI9MQ.s 			page 17


 397              	.LVL39:
 432:../../Middlewares/LVGL/GUI/lvgl/src/misc/lv_rb.c ****             {
 398              		.loc 1 432 9 is_stmt 1 view .LVU139
 432:../../Middlewares/LVGL/GUI/lvgl/src/misc/lv_rb.c ****             {
 399              		.loc 1 432 29 is_stmt 0 view .LVU140
 400 0066 6B68     		ldr	r3, [r5, #4]
 432:../../Middlewares/LVGL/GUI/lvgl/src/misc/lv_rb.c ****             {
 401              		.loc 1 432 11 view .LVU141
 402 0068 A342     		cmp	r3, r4
 403 006a CDD0     		beq	.L37
 404              	.LBB7:
 458:../../Middlewares/LVGL/GUI/lvgl/src/misc/lv_rb.c ****                 if(uncle && uncle->color == LV_RB_COLOR_RED) {
 405              		.loc 1 458 17 is_stmt 1 view .LVU142
 406              	.LVL40:
 459:../../Middlewares/LVGL/GUI/lvgl/src/misc/lv_rb.c ****                     uncle->color = LV_RB_COLOR_BLACK;
 407              		.loc 1 459 17 view .LVU143
 459:../../Middlewares/LVGL/GUI/lvgl/src/misc/lv_rb.c ****                     uncle->color = LV_RB_COLOR_BLACK;
 408              		.loc 1 459 19 is_stmt 0 view .LVU144
 409 006c 002B     		cmp	r3, #0
 410 006e EAD0     		beq	.L29
 459:../../Middlewares/LVGL/GUI/lvgl/src/misc/lv_rb.c ****                     uncle->color = LV_RB_COLOR_BLACK;
 411              		.loc 1 459 34 discriminator 1 view .LVU145
 412 0070 1A7B     		ldrb	r2, [r3, #12]	@ zero_extendqisi2
 459:../../Middlewares/LVGL/GUI/lvgl/src/misc/lv_rb.c ****                     uncle->color = LV_RB_COLOR_BLACK;
 413              		.loc 1 459 26 discriminator 1 view .LVU146
 414 0072 002A     		cmp	r2, #0
 415 0074 E7D1     		bne	.L29
 460:../../Middlewares/LVGL/GUI/lvgl/src/misc/lv_rb.c ****                     parent->color = LV_RB_COLOR_BLACK;
 416              		.loc 1 460 21 is_stmt 1 view .LVU147
 460:../../Middlewares/LVGL/GUI/lvgl/src/misc/lv_rb.c ****                     parent->color = LV_RB_COLOR_BLACK;
 417              		.loc 1 460 34 is_stmt 0 view .LVU148
 418 0076 0122     		movs	r2, #1
 419 0078 1A73     		strb	r2, [r3, #12]
 461:../../Middlewares/LVGL/GUI/lvgl/src/misc/lv_rb.c ****                     gparent->color = LV_RB_COLOR_RED;
 420              		.loc 1 461 21 is_stmt 1 view .LVU149
 461:../../Middlewares/LVGL/GUI/lvgl/src/misc/lv_rb.c ****                     gparent->color = LV_RB_COLOR_RED;
 421              		.loc 1 461 35 is_stmt 0 view .LVU150
 422 007a 2273     		strb	r2, [r4, #12]
 462:../../Middlewares/LVGL/GUI/lvgl/src/misc/lv_rb.c ****                     node = gparent;
 423              		.loc 1 462 21 is_stmt 1 view .LVU151
 462:../../Middlewares/LVGL/GUI/lvgl/src/misc/lv_rb.c ****                     node = gparent;
 424              		.loc 1 462 36 is_stmt 0 view .LVU152
 425 007c 0023     		movs	r3, #0
 426              	.LVL41:
 462:../../Middlewares/LVGL/GUI/lvgl/src/misc/lv_rb.c ****                     node = gparent;
 427              		.loc 1 462 36 view .LVU153
 428 007e 2B73     		strb	r3, [r5, #12]
 463:../../Middlewares/LVGL/GUI/lvgl/src/misc/lv_rb.c ****                     continue;
 429              		.loc 1 463 21 is_stmt 1 view .LVU154
 430              	.LVL42:
 464:../../Middlewares/LVGL/GUI/lvgl/src/misc/lv_rb.c ****                 }
 431              		.loc 1 464 21 view .LVU155
 463:../../Middlewares/LVGL/GUI/lvgl/src/misc/lv_rb.c ****                     continue;
 432              		.loc 1 463 26 is_stmt 0 view .LVU156
 433 0080 2E46     		mov	r6, r5
 464:../../Middlewares/LVGL/GUI/lvgl/src/misc/lv_rb.c ****                 }
 434              		.loc 1 464 21 view .LVU157
ARM GAS  C:\Users\28576\AppData\Local\Temp\ccFkI9MQ.s 			page 18


 435 0082 EBE7     		b	.L24
 436              	.LVL43:
 437              	.L36:
 464:../../Middlewares/LVGL/GUI/lvgl/src/misc/lv_rb.c ****                 }
 438              		.loc 1 464 21 view .LVU158
 439              	.LBE7:
 440              	.LBB8:
 469:../../Middlewares/LVGL/GUI/lvgl/src/misc/lv_rb.c ****                 rb_right_rotate(tree, parent);
 441              		.loc 1 469 17 is_stmt 1 view .LVU159
 470:../../Middlewares/LVGL/GUI/lvgl/src/misc/lv_rb.c ****                 tmp = parent;
 442              		.loc 1 470 17 view .LVU160
 443 0084 2146     		mov	r1, r4
 444 0086 3846     		mov	r0, r7
 445 0088 FFF7FEFF 		bl	rb_right_rotate
 446              	.LVL44:
 471:../../Middlewares/LVGL/GUI/lvgl/src/misc/lv_rb.c ****                 parent = node;
 447              		.loc 1 471 17 view .LVU161
 472:../../Middlewares/LVGL/GUI/lvgl/src/misc/lv_rb.c ****                 node = tmp;
 448              		.loc 1 472 17 view .LVU162
 473:../../Middlewares/LVGL/GUI/lvgl/src/misc/lv_rb.c ****             }
 449              		.loc 1 473 17 view .LVU163
 470:../../Middlewares/LVGL/GUI/lvgl/src/misc/lv_rb.c ****                 tmp = parent;
 450              		.loc 1 470 17 is_stmt 0 view .LVU164
 451 008c 3346     		mov	r3, r6
 473:../../Middlewares/LVGL/GUI/lvgl/src/misc/lv_rb.c ****             }
 452              		.loc 1 473 22 view .LVU165
 453 008e 2646     		mov	r6, r4
 454              	.LVL45:
 472:../../Middlewares/LVGL/GUI/lvgl/src/misc/lv_rb.c ****                 node = tmp;
 455              		.loc 1 472 24 view .LVU166
 456 0090 1C46     		mov	r4, r3
 457              	.LVL46:
 472:../../Middlewares/LVGL/GUI/lvgl/src/misc/lv_rb.c ****                 node = tmp;
 458              		.loc 1 472 24 view .LVU167
 459 0092 DBE7     		b	.L30
 460              	.LVL47:
 461              	.L31:
 472:../../Middlewares/LVGL/GUI/lvgl/src/misc/lv_rb.c ****                 node = tmp;
 462              		.loc 1 472 24 view .LVU168
 463              	.LBE8:
 479:../../Middlewares/LVGL/GUI/lvgl/src/misc/lv_rb.c ****         }
 480:../../Middlewares/LVGL/GUI/lvgl/src/misc/lv_rb.c ****     }
 481:../../Middlewares/LVGL/GUI/lvgl/src/misc/lv_rb.c **** 
 482:../../Middlewares/LVGL/GUI/lvgl/src/misc/lv_rb.c ****     tree->root->color = LV_RB_COLOR_BLACK;
 464              		.loc 1 482 5 is_stmt 1 view .LVU169
 465              		.loc 1 482 9 is_stmt 0 view .LVU170
 466 0094 3B68     		ldr	r3, [r7]
 467              		.loc 1 482 23 view .LVU171
 468 0096 0122     		movs	r2, #1
 469 0098 1A73     		strb	r2, [r3, #12]
 483:../../Middlewares/LVGL/GUI/lvgl/src/misc/lv_rb.c **** }
 470              		.loc 1 483 1 view .LVU172
 471 009a F8BD     		pop	{r3, r4, r5, r6, r7, pc}
 472              		.loc 1 483 1 view .LVU173
 473              		.cfi_endproc
 474              	.LFE18:
 476              		.section	.text.rb_delete_color,"ax",%progbits
ARM GAS  C:\Users\28576\AppData\Local\Temp\ccFkI9MQ.s 			page 19


 477              		.align	1
 478              		.syntax unified
 479              		.thumb
 480              		.thumb_func
 482              	rb_delete_color:
 483              	.LVL48:
 484              	.LFB19:
 484:../../Middlewares/LVGL/GUI/lvgl/src/misc/lv_rb.c **** 
 485:../../Middlewares/LVGL/GUI/lvgl/src/misc/lv_rb.c **** static void rb_delete_color(lv_rb_t * tree, lv_rb_node_t * node1, lv_rb_node_t * node2)
 486:../../Middlewares/LVGL/GUI/lvgl/src/misc/lv_rb.c **** {
 485              		.loc 1 486 1 is_stmt 1 view -0
 486              		.cfi_startproc
 487              		@ args = 0, pretend = 0, frame = 0
 488              		@ frame_needed = 0, uses_anonymous_args = 0
 489              		.loc 1 486 1 is_stmt 0 view .LVU175
 490 0000 38B5     		push	{r3, r4, r5, lr}
 491              	.LCFI2:
 492              		.cfi_def_cfa_offset 16
 493              		.cfi_offset 3, -16
 494              		.cfi_offset 4, -12
 495              		.cfi_offset 5, -8
 496              		.cfi_offset 14, -4
 497 0002 1446     		mov	r4, r2
 487:../../Middlewares/LVGL/GUI/lvgl/src/misc/lv_rb.c ****     LV_ASSERT_NULL(tree);
 498              		.loc 1 487 5 is_stmt 1 view .LVU176
 499              		.loc 1 487 5 view .LVU177
 500 0004 0546     		mov	r5, r0
 501 0006 0028     		cmp	r0, #0
 502 0008 44D1     		bne	.L39
 503              	.L40:
 504              		.loc 1 487 5 view .LVU178
 505              		.loc 1 487 5 view .LVU179
 506              		.loc 1 487 5 view .LVU180
 507              		.loc 1 487 5 view .LVU181
 508              		.loc 1 487 5 view .LVU182
 509 000a FEE7     		b	.L40
 510              	.LVL49:
 511              	.L61:
 512              	.LBB9:
 488:../../Middlewares/LVGL/GUI/lvgl/src/misc/lv_rb.c ****     if(tree == NULL) {
 489:../../Middlewares/LVGL/GUI/lvgl/src/misc/lv_rb.c ****         return;
 490:../../Middlewares/LVGL/GUI/lvgl/src/misc/lv_rb.c ****     }
 491:../../Middlewares/LVGL/GUI/lvgl/src/misc/lv_rb.c **** 
 492:../../Middlewares/LVGL/GUI/lvgl/src/misc/lv_rb.c ****     while((node1 == NULL || node1->color == LV_RB_COLOR_BLACK) && node1 != tree->root) {
 493:../../Middlewares/LVGL/GUI/lvgl/src/misc/lv_rb.c ****         if(node2->left == node1) {
 494:../../Middlewares/LVGL/GUI/lvgl/src/misc/lv_rb.c ****             lv_rb_node_t * pNode2 = node2->right;
 513              		.loc 1 494 13 view .LVU183
 514              		.loc 1 494 28 is_stmt 0 view .LVU184
 515 000c A168     		ldr	r1, [r4, #8]
 516              	.LVL50:
 495:../../Middlewares/LVGL/GUI/lvgl/src/misc/lv_rb.c ****             if(pNode2->color == LV_RB_COLOR_RED) {
 517              		.loc 1 495 13 is_stmt 1 view .LVU185
 518              		.loc 1 495 22 is_stmt 0 view .LVU186
 519 000e 0B7B     		ldrb	r3, [r1, #12]	@ zero_extendqisi2
 520              		.loc 1 495 15 view .LVU187
 521 0010 6BB1     		cbz	r3, .L60
 522              	.LVL51:
ARM GAS  C:\Users\28576\AppData\Local\Temp\ccFkI9MQ.s 			page 20


 523              	.L42:
 496:../../Middlewares/LVGL/GUI/lvgl/src/misc/lv_rb.c ****                 pNode2->color = LV_RB_COLOR_BLACK;
 497:../../Middlewares/LVGL/GUI/lvgl/src/misc/lv_rb.c ****                 node2->color = LV_RB_COLOR_RED;
 498:../../Middlewares/LVGL/GUI/lvgl/src/misc/lv_rb.c ****                 rb_left_rotate(tree, node2);
 499:../../Middlewares/LVGL/GUI/lvgl/src/misc/lv_rb.c ****                 pNode2 = node2->right;
 500:../../Middlewares/LVGL/GUI/lvgl/src/misc/lv_rb.c ****             }
 501:../../Middlewares/LVGL/GUI/lvgl/src/misc/lv_rb.c **** 
 502:../../Middlewares/LVGL/GUI/lvgl/src/misc/lv_rb.c ****             if((pNode2->left == NULL || pNode2->left->color == LV_RB_COLOR_BLACK)
 524              		.loc 1 502 13 is_stmt 1 view .LVU188
 525              		.loc 1 502 23 is_stmt 0 view .LVU189
 526 0012 4B68     		ldr	r3, [r1, #4]
 527              		.loc 1 502 15 view .LVU190
 528 0014 13B1     		cbz	r3, .L43
 529              		.loc 1 502 53 discriminator 1 view .LVU191
 530 0016 1A7B     		ldrb	r2, [r3, #12]	@ zero_extendqisi2
 531              		.loc 1 502 38 discriminator 1 view .LVU192
 532 0018 012A     		cmp	r2, #1
 533 001a 12D1     		bne	.L44
 534              	.L43:
 503:../../Middlewares/LVGL/GUI/lvgl/src/misc/lv_rb.c ****                && (pNode2->right == NULL || pNode2->right->color == LV_RB_COLOR_BLACK)) {
 535              		.loc 1 503 26 view .LVU193
 536 001c 8A68     		ldr	r2, [r1, #8]
 537              		.loc 1 503 16 view .LVU194
 538 001e 12B1     		cbz	r2, .L45
 539              		.loc 1 503 58 discriminator 1 view .LVU195
 540 0020 127B     		ldrb	r2, [r2, #12]	@ zero_extendqisi2
 541              		.loc 1 503 42 discriminator 1 view .LVU196
 542 0022 012A     		cmp	r2, #1
 543 0024 0DD1     		bne	.L44
 544              	.L45:
 504:../../Middlewares/LVGL/GUI/lvgl/src/misc/lv_rb.c ****                 pNode2->color = LV_RB_COLOR_RED;
 545              		.loc 1 504 17 is_stmt 1 view .LVU197
 546              		.loc 1 504 31 is_stmt 0 view .LVU198
 547 0026 0023     		movs	r3, #0
 548 0028 0B73     		strb	r3, [r1, #12]
 505:../../Middlewares/LVGL/GUI/lvgl/src/misc/lv_rb.c ****                 node1 = node2;
 549              		.loc 1 505 17 is_stmt 1 view .LVU199
 550              	.LVL52:
 506:../../Middlewares/LVGL/GUI/lvgl/src/misc/lv_rb.c ****                 node2 = node2->parent;
 551              		.loc 1 506 17 view .LVU200
 552              		.loc 1 506 23 is_stmt 0 view .LVU201
 553 002a 2368     		ldr	r3, [r4]
 554              	.LVL53:
 555              		.loc 1 506 23 view .LVU202
 556              	.LBE9:
 557 002c 30E0     		b	.L46
 558              	.LVL54:
 559              	.L60:
 560              	.LBB10:
 496:../../Middlewares/LVGL/GUI/lvgl/src/misc/lv_rb.c ****                 node2->color = LV_RB_COLOR_RED;
 561              		.loc 1 496 17 is_stmt 1 view .LVU203
 496:../../Middlewares/LVGL/GUI/lvgl/src/misc/lv_rb.c ****                 node2->color = LV_RB_COLOR_RED;
 562              		.loc 1 496 31 is_stmt 0 view .LVU204
 563 002e 0123     		movs	r3, #1
 564 0030 0B73     		strb	r3, [r1, #12]
 497:../../Middlewares/LVGL/GUI/lvgl/src/misc/lv_rb.c ****                 rb_left_rotate(tree, node2);
 565              		.loc 1 497 17 is_stmt 1 view .LVU205
ARM GAS  C:\Users\28576\AppData\Local\Temp\ccFkI9MQ.s 			page 21


 497:../../Middlewares/LVGL/GUI/lvgl/src/misc/lv_rb.c ****                 rb_left_rotate(tree, node2);
 566              		.loc 1 497 30 is_stmt 0 view .LVU206
 567 0032 0023     		movs	r3, #0
 568 0034 2373     		strb	r3, [r4, #12]
 498:../../Middlewares/LVGL/GUI/lvgl/src/misc/lv_rb.c ****                 pNode2 = node2->right;
 569              		.loc 1 498 17 is_stmt 1 view .LVU207
 570 0036 2146     		mov	r1, r4
 571              	.LVL55:
 498:../../Middlewares/LVGL/GUI/lvgl/src/misc/lv_rb.c ****                 pNode2 = node2->right;
 572              		.loc 1 498 17 is_stmt 0 view .LVU208
 573 0038 2846     		mov	r0, r5
 574 003a FFF7FEFF 		bl	rb_left_rotate
 575              	.LVL56:
 499:../../Middlewares/LVGL/GUI/lvgl/src/misc/lv_rb.c ****             }
 576              		.loc 1 499 17 is_stmt 1 view .LVU209
 499:../../Middlewares/LVGL/GUI/lvgl/src/misc/lv_rb.c ****             }
 577              		.loc 1 499 24 is_stmt 0 view .LVU210
 578 003e A168     		ldr	r1, [r4, #8]
 579 0040 E7E7     		b	.L42
 580              	.LVL57:
 581              	.L44:
 507:../../Middlewares/LVGL/GUI/lvgl/src/misc/lv_rb.c ****             }
 508:../../Middlewares/LVGL/GUI/lvgl/src/misc/lv_rb.c ****             else {
 509:../../Middlewares/LVGL/GUI/lvgl/src/misc/lv_rb.c ****                 if(pNode2->right == NULL || pNode2->right->color == LV_RB_COLOR_BLACK) {
 582              		.loc 1 509 17 is_stmt 1 view .LVU211
 583              		.loc 1 509 26 is_stmt 0 view .LVU212
 584 0042 8A68     		ldr	r2, [r1, #8]
 585              		.loc 1 509 19 view .LVU213
 586 0044 72B1     		cbz	r2, .L47
 587              		.loc 1 509 58 discriminator 1 view .LVU214
 588 0046 127B     		ldrb	r2, [r2, #12]	@ zero_extendqisi2
 589              		.loc 1 509 42 discriminator 1 view .LVU215
 590 0048 012A     		cmp	r2, #1
 591 004a 0BD0     		beq	.L47
 592              	.LVL58:
 593              	.L48:
 510:../../Middlewares/LVGL/GUI/lvgl/src/misc/lv_rb.c ****                     pNode2->left->color = LV_RB_COLOR_BLACK;
 511:../../Middlewares/LVGL/GUI/lvgl/src/misc/lv_rb.c ****                     pNode2->color = LV_RB_COLOR_RED;
 512:../../Middlewares/LVGL/GUI/lvgl/src/misc/lv_rb.c ****                     rb_right_rotate(tree, pNode2);
 513:../../Middlewares/LVGL/GUI/lvgl/src/misc/lv_rb.c ****                     pNode2 = node2->right;
 514:../../Middlewares/LVGL/GUI/lvgl/src/misc/lv_rb.c ****                 }
 515:../../Middlewares/LVGL/GUI/lvgl/src/misc/lv_rb.c ****                 pNode2->color = node2->color;
 594              		.loc 1 515 17 is_stmt 1 view .LVU216
 595              		.loc 1 515 38 is_stmt 0 view .LVU217
 596 004c 237B     		ldrb	r3, [r4, #12]	@ zero_extendqisi2
 597              		.loc 1 515 31 view .LVU218
 598 004e 0B73     		strb	r3, [r1, #12]
 516:../../Middlewares/LVGL/GUI/lvgl/src/misc/lv_rb.c ****                 node2->color = LV_RB_COLOR_BLACK;
 599              		.loc 1 516 17 is_stmt 1 view .LVU219
 600              		.loc 1 516 30 is_stmt 0 view .LVU220
 601 0050 0123     		movs	r3, #1
 602 0052 2373     		strb	r3, [r4, #12]
 517:../../Middlewares/LVGL/GUI/lvgl/src/misc/lv_rb.c ****                 pNode2->right->color = LV_RB_COLOR_BLACK;
 603              		.loc 1 517 17 is_stmt 1 view .LVU221
 604              		.loc 1 517 23 is_stmt 0 view .LVU222
 605 0054 8A68     		ldr	r2, [r1, #8]
 606              		.loc 1 517 38 view .LVU223
ARM GAS  C:\Users\28576\AppData\Local\Temp\ccFkI9MQ.s 			page 22


 607 0056 1373     		strb	r3, [r2, #12]
 518:../../Middlewares/LVGL/GUI/lvgl/src/misc/lv_rb.c ****                 rb_left_rotate(tree, node2);
 608              		.loc 1 518 17 is_stmt 1 view .LVU224
 609 0058 2146     		mov	r1, r4
 610              	.LVL59:
 611              		.loc 1 518 17 is_stmt 0 view .LVU225
 612 005a 2846     		mov	r0, r5
 613 005c FFF7FEFF 		bl	rb_left_rotate
 614              	.LVL60:
 519:../../Middlewares/LVGL/GUI/lvgl/src/misc/lv_rb.c ****                 node1 = tree->root;
 615              		.loc 1 519 17 is_stmt 1 view .LVU226
 616              		.loc 1 519 23 is_stmt 0 view .LVU227
 617 0060 2968     		ldr	r1, [r5]
 618              	.LVL61:
 520:../../Middlewares/LVGL/GUI/lvgl/src/misc/lv_rb.c ****                 break;
 619              		.loc 1 520 17 is_stmt 1 view .LVU228
 620 0062 3DE0     		b	.L49
 621              	.LVL62:
 622              	.L47:
 510:../../Middlewares/LVGL/GUI/lvgl/src/misc/lv_rb.c ****                     pNode2->color = LV_RB_COLOR_RED;
 623              		.loc 1 510 21 view .LVU229
 510:../../Middlewares/LVGL/GUI/lvgl/src/misc/lv_rb.c ****                     pNode2->color = LV_RB_COLOR_RED;
 624              		.loc 1 510 41 is_stmt 0 view .LVU230
 625 0064 0122     		movs	r2, #1
 626 0066 1A73     		strb	r2, [r3, #12]
 511:../../Middlewares/LVGL/GUI/lvgl/src/misc/lv_rb.c ****                     rb_right_rotate(tree, pNode2);
 627              		.loc 1 511 21 is_stmt 1 view .LVU231
 511:../../Middlewares/LVGL/GUI/lvgl/src/misc/lv_rb.c ****                     rb_right_rotate(tree, pNode2);
 628              		.loc 1 511 35 is_stmt 0 view .LVU232
 629 0068 0023     		movs	r3, #0
 630 006a 0B73     		strb	r3, [r1, #12]
 512:../../Middlewares/LVGL/GUI/lvgl/src/misc/lv_rb.c ****                     pNode2 = node2->right;
 631              		.loc 1 512 21 is_stmt 1 view .LVU233
 632 006c 2846     		mov	r0, r5
 633 006e FFF7FEFF 		bl	rb_right_rotate
 634              	.LVL63:
 513:../../Middlewares/LVGL/GUI/lvgl/src/misc/lv_rb.c ****                 }
 635              		.loc 1 513 21 view .LVU234
 513:../../Middlewares/LVGL/GUI/lvgl/src/misc/lv_rb.c ****                 }
 636              		.loc 1 513 28 is_stmt 0 view .LVU235
 637 0072 A168     		ldr	r1, [r4, #8]
 638 0074 EAE7     		b	.L48
 639              	.LVL64:
 640              	.L50:
 513:../../Middlewares/LVGL/GUI/lvgl/src/misc/lv_rb.c ****                 }
 641              		.loc 1 513 28 view .LVU236
 642              	.LBE10:
 643              	.LBB11:
 521:../../Middlewares/LVGL/GUI/lvgl/src/misc/lv_rb.c ****             }
 522:../../Middlewares/LVGL/GUI/lvgl/src/misc/lv_rb.c ****         }
 523:../../Middlewares/LVGL/GUI/lvgl/src/misc/lv_rb.c ****         else {
 524:../../Middlewares/LVGL/GUI/lvgl/src/misc/lv_rb.c ****             lv_rb_node_t * pNode2 = node2->left;
 525:../../Middlewares/LVGL/GUI/lvgl/src/misc/lv_rb.c ****             if(pNode2->color == LV_RB_COLOR_RED) {
 526:../../Middlewares/LVGL/GUI/lvgl/src/misc/lv_rb.c ****                 pNode2->color = LV_RB_COLOR_BLACK;
 527:../../Middlewares/LVGL/GUI/lvgl/src/misc/lv_rb.c ****                 node2->color = LV_RB_COLOR_RED;
 528:../../Middlewares/LVGL/GUI/lvgl/src/misc/lv_rb.c ****                 rb_right_rotate(tree, node2);
 529:../../Middlewares/LVGL/GUI/lvgl/src/misc/lv_rb.c ****                 pNode2 = node2->left;
ARM GAS  C:\Users\28576\AppData\Local\Temp\ccFkI9MQ.s 			page 23


 530:../../Middlewares/LVGL/GUI/lvgl/src/misc/lv_rb.c ****             }
 531:../../Middlewares/LVGL/GUI/lvgl/src/misc/lv_rb.c **** 
 532:../../Middlewares/LVGL/GUI/lvgl/src/misc/lv_rb.c ****             if((pNode2->left == NULL || pNode2->left->color == LV_RB_COLOR_BLACK)
 644              		.loc 1 532 13 is_stmt 1 view .LVU237
 645              		.loc 1 532 23 is_stmt 0 view .LVU238
 646 0076 5A68     		ldr	r2, [r3, #4]
 647              		.loc 1 532 15 view .LVU239
 648 0078 12B1     		cbz	r2, .L51
 649              		.loc 1 532 53 discriminator 1 view .LVU240
 650 007a 117B     		ldrb	r1, [r2, #12]	@ zero_extendqisi2
 651              		.loc 1 532 38 discriminator 1 view .LVU241
 652 007c 0129     		cmp	r1, #1
 653 007e 20D1     		bne	.L52
 654              	.L51:
 533:../../Middlewares/LVGL/GUI/lvgl/src/misc/lv_rb.c ****                && (pNode2->right == NULL || pNode2->right->color == LV_RB_COLOR_BLACK)) {
 655              		.loc 1 533 26 view .LVU242
 656 0080 9968     		ldr	r1, [r3, #8]
 657              		.loc 1 533 16 view .LVU243
 658 0082 11B1     		cbz	r1, .L53
 659              		.loc 1 533 58 discriminator 1 view .LVU244
 660 0084 097B     		ldrb	r1, [r1, #12]	@ zero_extendqisi2
 661              		.loc 1 533 42 discriminator 1 view .LVU245
 662 0086 0129     		cmp	r1, #1
 663 0088 1BD1     		bne	.L52
 664              	.L53:
 534:../../Middlewares/LVGL/GUI/lvgl/src/misc/lv_rb.c ****                 pNode2->color = LV_RB_COLOR_RED;
 665              		.loc 1 534 17 is_stmt 1 view .LVU246
 666              		.loc 1 534 31 is_stmt 0 view .LVU247
 667 008a 0022     		movs	r2, #0
 668 008c 1A73     		strb	r2, [r3, #12]
 535:../../Middlewares/LVGL/GUI/lvgl/src/misc/lv_rb.c ****                 node1 = node2;
 669              		.loc 1 535 17 is_stmt 1 view .LVU248
 670              	.LVL65:
 536:../../Middlewares/LVGL/GUI/lvgl/src/misc/lv_rb.c ****                 node2 = node2->parent;
 671              		.loc 1 536 17 view .LVU249
 672              		.loc 1 536 23 is_stmt 0 view .LVU250
 673 008e 2368     		ldr	r3, [r4]
 674              	.LVL66:
 675              	.L46:
 676              		.loc 1 536 23 view .LVU251
 677              	.LBE11:
 486:../../Middlewares/LVGL/GUI/lvgl/src/misc/lv_rb.c ****     LV_ASSERT_NULL(tree);
 678              		.loc 1 486 1 view .LVU252
 679 0090 2146     		mov	r1, r4
 680 0092 1C46     		mov	r4, r3
 681              	.LVL67:
 682              	.L39:
 492:../../Middlewares/LVGL/GUI/lvgl/src/misc/lv_rb.c ****         if(node2->left == node1) {
 683              		.loc 1 492 64 is_stmt 1 view .LVU253
 684 0094 11B1     		cbz	r1, .L56
 492:../../Middlewares/LVGL/GUI/lvgl/src/misc/lv_rb.c ****         if(node2->left == node1) {
 685              		.loc 1 492 34 is_stmt 0 discriminator 2 view .LVU254
 686 0096 0B7B     		ldrb	r3, [r1, #12]	@ zero_extendqisi2
 492:../../Middlewares/LVGL/GUI/lvgl/src/misc/lv_rb.c ****         if(node2->left == node1) {
 687              		.loc 1 492 26 discriminator 2 view .LVU255
 688 0098 012B     		cmp	r3, #1
 689 009a 21D1     		bne	.L49
ARM GAS  C:\Users\28576\AppData\Local\Temp\ccFkI9MQ.s 			page 24


 690              	.L56:
 492:../../Middlewares/LVGL/GUI/lvgl/src/misc/lv_rb.c ****         if(node2->left == node1) {
 691              		.loc 1 492 80 discriminator 3 view .LVU256
 692 009c 2B68     		ldr	r3, [r5]
 492:../../Middlewares/LVGL/GUI/lvgl/src/misc/lv_rb.c ****         if(node2->left == node1) {
 693              		.loc 1 492 64 discriminator 3 view .LVU257
 694 009e 8B42     		cmp	r3, r1
 695 00a0 1ED0     		beq	.L49
 493:../../Middlewares/LVGL/GUI/lvgl/src/misc/lv_rb.c ****             lv_rb_node_t * pNode2 = node2->right;
 696              		.loc 1 493 9 is_stmt 1 view .LVU258
 493:../../Middlewares/LVGL/GUI/lvgl/src/misc/lv_rb.c ****             lv_rb_node_t * pNode2 = node2->right;
 697              		.loc 1 493 17 is_stmt 0 view .LVU259
 698 00a2 6368     		ldr	r3, [r4, #4]
 493:../../Middlewares/LVGL/GUI/lvgl/src/misc/lv_rb.c ****             lv_rb_node_t * pNode2 = node2->right;
 699              		.loc 1 493 11 view .LVU260
 700 00a4 8B42     		cmp	r3, r1
 701 00a6 B1D0     		beq	.L61
 702              	.LBB12:
 524:../../Middlewares/LVGL/GUI/lvgl/src/misc/lv_rb.c ****             if(pNode2->color == LV_RB_COLOR_RED) {
 703              		.loc 1 524 13 is_stmt 1 view .LVU261
 704              	.LVL68:
 525:../../Middlewares/LVGL/GUI/lvgl/src/misc/lv_rb.c ****                 pNode2->color = LV_RB_COLOR_BLACK;
 705              		.loc 1 525 13 view .LVU262
 525:../../Middlewares/LVGL/GUI/lvgl/src/misc/lv_rb.c ****                 pNode2->color = LV_RB_COLOR_BLACK;
 706              		.loc 1 525 22 is_stmt 0 view .LVU263
 707 00a8 1A7B     		ldrb	r2, [r3, #12]	@ zero_extendqisi2
 525:../../Middlewares/LVGL/GUI/lvgl/src/misc/lv_rb.c ****                 pNode2->color = LV_RB_COLOR_BLACK;
 708              		.loc 1 525 15 view .LVU264
 709 00aa 002A     		cmp	r2, #0
 710 00ac E3D1     		bne	.L50
 526:../../Middlewares/LVGL/GUI/lvgl/src/misc/lv_rb.c ****                 node2->color = LV_RB_COLOR_RED;
 711              		.loc 1 526 17 is_stmt 1 view .LVU265
 526:../../Middlewares/LVGL/GUI/lvgl/src/misc/lv_rb.c ****                 node2->color = LV_RB_COLOR_RED;
 712              		.loc 1 526 31 is_stmt 0 view .LVU266
 713 00ae 0122     		movs	r2, #1
 714 00b0 1A73     		strb	r2, [r3, #12]
 527:../../Middlewares/LVGL/GUI/lvgl/src/misc/lv_rb.c ****                 rb_right_rotate(tree, node2);
 715              		.loc 1 527 17 is_stmt 1 view .LVU267
 527:../../Middlewares/LVGL/GUI/lvgl/src/misc/lv_rb.c ****                 rb_right_rotate(tree, node2);
 716              		.loc 1 527 30 is_stmt 0 view .LVU268
 717 00b2 0023     		movs	r3, #0
 718              	.LVL69:
 527:../../Middlewares/LVGL/GUI/lvgl/src/misc/lv_rb.c ****                 rb_right_rotate(tree, node2);
 719              		.loc 1 527 30 view .LVU269
 720 00b4 2373     		strb	r3, [r4, #12]
 528:../../Middlewares/LVGL/GUI/lvgl/src/misc/lv_rb.c ****                 pNode2 = node2->left;
 721              		.loc 1 528 17 is_stmt 1 view .LVU270
 722 00b6 2146     		mov	r1, r4
 723              	.LVL70:
 528:../../Middlewares/LVGL/GUI/lvgl/src/misc/lv_rb.c ****                 pNode2 = node2->left;
 724              		.loc 1 528 17 is_stmt 0 view .LVU271
 725 00b8 2846     		mov	r0, r5
 726 00ba FFF7FEFF 		bl	rb_right_rotate
 727              	.LVL71:
 529:../../Middlewares/LVGL/GUI/lvgl/src/misc/lv_rb.c ****             }
 728              		.loc 1 529 17 is_stmt 1 view .LVU272
 529:../../Middlewares/LVGL/GUI/lvgl/src/misc/lv_rb.c ****             }
ARM GAS  C:\Users\28576\AppData\Local\Temp\ccFkI9MQ.s 			page 25


 729              		.loc 1 529 24 is_stmt 0 view .LVU273
 730 00be 6368     		ldr	r3, [r4, #4]
 731 00c0 D9E7     		b	.L50
 732              	.LVL72:
 733              	.L52:
 537:../../Middlewares/LVGL/GUI/lvgl/src/misc/lv_rb.c ****             }
 538:../../Middlewares/LVGL/GUI/lvgl/src/misc/lv_rb.c ****             else {
 539:../../Middlewares/LVGL/GUI/lvgl/src/misc/lv_rb.c ****                 if(pNode2->left == NULL || pNode2->left->color == LV_RB_COLOR_BLACK) {
 734              		.loc 1 539 17 is_stmt 1 view .LVU274
 735              		.loc 1 539 19 is_stmt 0 view .LVU275
 736 00c2 8AB1     		cbz	r2, .L54
 737              		.loc 1 539 56 discriminator 1 view .LVU276
 738 00c4 127B     		ldrb	r2, [r2, #12]	@ zero_extendqisi2
 739              		.loc 1 539 41 discriminator 1 view .LVU277
 740 00c6 012A     		cmp	r2, #1
 741 00c8 0ED0     		beq	.L54
 742              	.LVL73:
 743              	.L55:
 540:../../Middlewares/LVGL/GUI/lvgl/src/misc/lv_rb.c ****                     pNode2->right->color = LV_RB_COLOR_BLACK;
 541:../../Middlewares/LVGL/GUI/lvgl/src/misc/lv_rb.c ****                     pNode2->color = LV_RB_COLOR_RED;
 542:../../Middlewares/LVGL/GUI/lvgl/src/misc/lv_rb.c ****                     rb_left_rotate(tree, pNode2);
 543:../../Middlewares/LVGL/GUI/lvgl/src/misc/lv_rb.c ****                     pNode2 = node2->left;
 544:../../Middlewares/LVGL/GUI/lvgl/src/misc/lv_rb.c ****                 }
 545:../../Middlewares/LVGL/GUI/lvgl/src/misc/lv_rb.c ****                 pNode2->color = node2->color;
 744              		.loc 1 545 17 is_stmt 1 view .LVU278
 745              		.loc 1 545 38 is_stmt 0 view .LVU279
 746 00ca 227B     		ldrb	r2, [r4, #12]	@ zero_extendqisi2
 747              		.loc 1 545 31 view .LVU280
 748 00cc 1A73     		strb	r2, [r3, #12]
 546:../../Middlewares/LVGL/GUI/lvgl/src/misc/lv_rb.c ****                 node2->color = LV_RB_COLOR_BLACK;
 749              		.loc 1 546 17 is_stmt 1 view .LVU281
 750              		.loc 1 546 30 is_stmt 0 view .LVU282
 751 00ce 0122     		movs	r2, #1
 752 00d0 2273     		strb	r2, [r4, #12]
 547:../../Middlewares/LVGL/GUI/lvgl/src/misc/lv_rb.c ****                 pNode2->left->color = LV_RB_COLOR_BLACK;
 753              		.loc 1 547 17 is_stmt 1 view .LVU283
 754              		.loc 1 547 23 is_stmt 0 view .LVU284
 755 00d2 5B68     		ldr	r3, [r3, #4]
 756              	.LVL74:
 757              		.loc 1 547 37 view .LVU285
 758 00d4 1A73     		strb	r2, [r3, #12]
 548:../../Middlewares/LVGL/GUI/lvgl/src/misc/lv_rb.c ****                 rb_right_rotate(tree, node2);
 759              		.loc 1 548 17 is_stmt 1 view .LVU286
 760 00d6 2146     		mov	r1, r4
 761 00d8 2846     		mov	r0, r5
 762 00da FFF7FEFF 		bl	rb_right_rotate
 763              	.LVL75:
 549:../../Middlewares/LVGL/GUI/lvgl/src/misc/lv_rb.c ****                 node1 = tree->root;
 764              		.loc 1 549 17 view .LVU287
 765              		.loc 1 549 23 is_stmt 0 view .LVU288
 766 00de 2968     		ldr	r1, [r5]
 767              	.LVL76:
 550:../../Middlewares/LVGL/GUI/lvgl/src/misc/lv_rb.c ****                 break;
 768              		.loc 1 550 17 is_stmt 1 view .LVU289
 769              	.L49:
 770              		.loc 1 550 17 is_stmt 0 view .LVU290
 771              	.LBE12:
ARM GAS  C:\Users\28576\AppData\Local\Temp\ccFkI9MQ.s 			page 26


 551:../../Middlewares/LVGL/GUI/lvgl/src/misc/lv_rb.c ****             }
 552:../../Middlewares/LVGL/GUI/lvgl/src/misc/lv_rb.c ****         }
 553:../../Middlewares/LVGL/GUI/lvgl/src/misc/lv_rb.c ****     }
 554:../../Middlewares/LVGL/GUI/lvgl/src/misc/lv_rb.c ****     if(node1 != NULL)
 772              		.loc 1 554 5 is_stmt 1 view .LVU291
 773              		.loc 1 554 7 is_stmt 0 view .LVU292
 774 00e0 09B1     		cbz	r1, .L38
 555:../../Middlewares/LVGL/GUI/lvgl/src/misc/lv_rb.c ****         node1->color = LV_RB_COLOR_BLACK;
 775              		.loc 1 555 9 is_stmt 1 view .LVU293
 776              		.loc 1 555 22 is_stmt 0 view .LVU294
 777 00e2 0123     		movs	r3, #1
 778 00e4 0B73     		strb	r3, [r1, #12]
 779              	.L38:
 556:../../Middlewares/LVGL/GUI/lvgl/src/misc/lv_rb.c **** }
 780              		.loc 1 556 1 view .LVU295
 781 00e6 38BD     		pop	{r3, r4, r5, pc}
 782              	.LVL77:
 783              	.L54:
 784              	.LBB13:
 540:../../Middlewares/LVGL/GUI/lvgl/src/misc/lv_rb.c ****                     pNode2->color = LV_RB_COLOR_RED;
 785              		.loc 1 540 21 is_stmt 1 view .LVU296
 540:../../Middlewares/LVGL/GUI/lvgl/src/misc/lv_rb.c ****                     pNode2->color = LV_RB_COLOR_RED;
 786              		.loc 1 540 27 is_stmt 0 view .LVU297
 787 00e8 9A68     		ldr	r2, [r3, #8]
 540:../../Middlewares/LVGL/GUI/lvgl/src/misc/lv_rb.c ****                     pNode2->color = LV_RB_COLOR_RED;
 788              		.loc 1 540 42 view .LVU298
 789 00ea 0121     		movs	r1, #1
 790 00ec 1173     		strb	r1, [r2, #12]
 541:../../Middlewares/LVGL/GUI/lvgl/src/misc/lv_rb.c ****                     rb_left_rotate(tree, pNode2);
 791              		.loc 1 541 21 is_stmt 1 view .LVU299
 541:../../Middlewares/LVGL/GUI/lvgl/src/misc/lv_rb.c ****                     rb_left_rotate(tree, pNode2);
 792              		.loc 1 541 35 is_stmt 0 view .LVU300
 793 00ee 0022     		movs	r2, #0
 794 00f0 1A73     		strb	r2, [r3, #12]
 542:../../Middlewares/LVGL/GUI/lvgl/src/misc/lv_rb.c ****                     pNode2 = node2->left;
 795              		.loc 1 542 21 is_stmt 1 view .LVU301
 796 00f2 1946     		mov	r1, r3
 797 00f4 2846     		mov	r0, r5
 798 00f6 FFF7FEFF 		bl	rb_left_rotate
 799              	.LVL78:
 543:../../Middlewares/LVGL/GUI/lvgl/src/misc/lv_rb.c ****                 }
 800              		.loc 1 543 21 view .LVU302
 543:../../Middlewares/LVGL/GUI/lvgl/src/misc/lv_rb.c ****                 }
 801              		.loc 1 543 28 is_stmt 0 view .LVU303
 802 00fa 6368     		ldr	r3, [r4, #4]
 803 00fc E5E7     		b	.L55
 804              	.LBE13:
 805              		.cfi_endproc
 806              	.LFE19:
 808              		.section	.text.rb_create_node,"ax",%progbits
 809              		.align	1
 810              		.syntax unified
 811              		.thumb
 812              		.thumb_func
 814              	rb_create_node:
 815              	.LVL79:
 816              	.LFB14:
ARM GAS  C:\Users\28576\AppData\Local\Temp\ccFkI9MQ.s 			page 27


 334:../../Middlewares/LVGL/GUI/lvgl/src/misc/lv_rb.c ****     lv_rb_node_t * node = lv_malloc_zeroed(sizeof(lv_rb_node_t));
 817              		.loc 1 334 1 is_stmt 1 view -0
 818              		.cfi_startproc
 819              		@ args = 0, pretend = 0, frame = 0
 820              		@ frame_needed = 0, uses_anonymous_args = 0
 334:../../Middlewares/LVGL/GUI/lvgl/src/misc/lv_rb.c ****     lv_rb_node_t * node = lv_malloc_zeroed(sizeof(lv_rb_node_t));
 821              		.loc 1 334 1 is_stmt 0 view .LVU305
 822 0000 38B5     		push	{r3, r4, r5, lr}
 823              	.LCFI3:
 824              		.cfi_def_cfa_offset 16
 825              		.cfi_offset 3, -16
 826              		.cfi_offset 4, -12
 827              		.cfi_offset 5, -8
 828              		.cfi_offset 14, -4
 829 0002 0546     		mov	r5, r0
 335:../../Middlewares/LVGL/GUI/lvgl/src/misc/lv_rb.c ****     LV_ASSERT_MALLOC(node);
 830              		.loc 1 335 5 is_stmt 1 view .LVU306
 335:../../Middlewares/LVGL/GUI/lvgl/src/misc/lv_rb.c ****     LV_ASSERT_MALLOC(node);
 831              		.loc 1 335 27 is_stmt 0 view .LVU307
 832 0004 1420     		movs	r0, #20
 833              	.LVL80:
 335:../../Middlewares/LVGL/GUI/lvgl/src/misc/lv_rb.c ****     LV_ASSERT_MALLOC(node);
 834              		.loc 1 335 27 view .LVU308
 835 0006 FFF7FEFF 		bl	lv_malloc_zeroed
 836              	.LVL81:
 336:../../Middlewares/LVGL/GUI/lvgl/src/misc/lv_rb.c ****     if(node == NULL) {
 837              		.loc 1 336 5 is_stmt 1 view .LVU309
 336:../../Middlewares/LVGL/GUI/lvgl/src/misc/lv_rb.c ****     if(node == NULL) {
 838              		.loc 1 336 5 view .LVU310
 839 000a 58B1     		cbz	r0, .L64
 840 000c 0446     		mov	r4, r0
 336:../../Middlewares/LVGL/GUI/lvgl/src/misc/lv_rb.c ****     if(node == NULL) {
 841              		.loc 1 336 5 view .LVU311
 336:../../Middlewares/LVGL/GUI/lvgl/src/misc/lv_rb.c ****     if(node == NULL) {
 842              		.loc 1 336 27 view .LVU312
 337:../../Middlewares/LVGL/GUI/lvgl/src/misc/lv_rb.c ****         return NULL;
 843              		.loc 1 337 5 view .LVU313
 341:../../Middlewares/LVGL/GUI/lvgl/src/misc/lv_rb.c ****     LV_ASSERT_MALLOC(node->data);
 844              		.loc 1 341 5 view .LVU314
 341:../../Middlewares/LVGL/GUI/lvgl/src/misc/lv_rb.c ****     LV_ASSERT_MALLOC(node->data);
 845              		.loc 1 341 18 is_stmt 0 view .LVU315
 846 000e A868     		ldr	r0, [r5, #8]
 847              	.LVL82:
 341:../../Middlewares/LVGL/GUI/lvgl/src/misc/lv_rb.c ****     LV_ASSERT_MALLOC(node->data);
 848              		.loc 1 341 18 view .LVU316
 849 0010 FFF7FEFF 		bl	lv_malloc_zeroed
 850              	.LVL83:
 341:../../Middlewares/LVGL/GUI/lvgl/src/misc/lv_rb.c ****     LV_ASSERT_MALLOC(node->data);
 851              		.loc 1 341 16 discriminator 1 view .LVU317
 852 0014 2061     		str	r0, [r4, #16]
 342:../../Middlewares/LVGL/GUI/lvgl/src/misc/lv_rb.c ****     if(node->data == NULL) {
 853              		.loc 1 342 5 is_stmt 1 view .LVU318
 342:../../Middlewares/LVGL/GUI/lvgl/src/misc/lv_rb.c ****     if(node->data == NULL) {
 854              		.loc 1 342 5 view .LVU319
 855 0016 30B1     		cbz	r0, .L66
 342:../../Middlewares/LVGL/GUI/lvgl/src/misc/lv_rb.c ****     if(node->data == NULL) {
 856              		.loc 1 342 5 view .LVU320
ARM GAS  C:\Users\28576\AppData\Local\Temp\ccFkI9MQ.s 			page 28


 342:../../Middlewares/LVGL/GUI/lvgl/src/misc/lv_rb.c ****     if(node->data == NULL) {
 857              		.loc 1 342 33 view .LVU321
 343:../../Middlewares/LVGL/GUI/lvgl/src/misc/lv_rb.c ****         lv_free(node);
 858              		.loc 1 343 5 view .LVU322
 348:../../Middlewares/LVGL/GUI/lvgl/src/misc/lv_rb.c ****     node->left = NULL;
 859              		.loc 1 348 5 view .LVU323
 348:../../Middlewares/LVGL/GUI/lvgl/src/misc/lv_rb.c ****     node->left = NULL;
 860              		.loc 1 348 17 is_stmt 0 view .LVU324
 861 0018 0023     		movs	r3, #0
 862 001a 2373     		strb	r3, [r4, #12]
 349:../../Middlewares/LVGL/GUI/lvgl/src/misc/lv_rb.c ****     node->right = NULL;
 863              		.loc 1 349 5 is_stmt 1 view .LVU325
 349:../../Middlewares/LVGL/GUI/lvgl/src/misc/lv_rb.c ****     node->right = NULL;
 864              		.loc 1 349 16 is_stmt 0 view .LVU326
 865 001c 6360     		str	r3, [r4, #4]
 350:../../Middlewares/LVGL/GUI/lvgl/src/misc/lv_rb.c **** 
 866              		.loc 1 350 5 is_stmt 1 view .LVU327
 350:../../Middlewares/LVGL/GUI/lvgl/src/misc/lv_rb.c **** 
 867              		.loc 1 350 17 is_stmt 0 view .LVU328
 868 001e A360     		str	r3, [r4, #8]
 352:../../Middlewares/LVGL/GUI/lvgl/src/misc/lv_rb.c **** }
 869              		.loc 1 352 5 is_stmt 1 view .LVU329
 353:../../Middlewares/LVGL/GUI/lvgl/src/misc/lv_rb.c **** 
 870              		.loc 1 353 1 is_stmt 0 view .LVU330
 871 0020 2046     		mov	r0, r4
 872 0022 38BD     		pop	{r3, r4, r5, pc}
 873              	.LVL84:
 874              	.L64:
 336:../../Middlewares/LVGL/GUI/lvgl/src/misc/lv_rb.c ****     if(node == NULL) {
 875              		.loc 1 336 5 is_stmt 1 view .LVU331
 336:../../Middlewares/LVGL/GUI/lvgl/src/misc/lv_rb.c ****     if(node == NULL) {
 876              		.loc 1 336 5 view .LVU332
 336:../../Middlewares/LVGL/GUI/lvgl/src/misc/lv_rb.c ****     if(node == NULL) {
 877              		.loc 1 336 5 view .LVU333
 336:../../Middlewares/LVGL/GUI/lvgl/src/misc/lv_rb.c ****     if(node == NULL) {
 878              		.loc 1 336 5 view .LVU334
 336:../../Middlewares/LVGL/GUI/lvgl/src/misc/lv_rb.c ****     if(node == NULL) {
 879              		.loc 1 336 5 view .LVU335
 880 0024 FEE7     		b	.L64
 881              	.LVL85:
 882              	.L66:
 342:../../Middlewares/LVGL/GUI/lvgl/src/misc/lv_rb.c ****     if(node->data == NULL) {
 883              		.loc 1 342 5 view .LVU336
 342:../../Middlewares/LVGL/GUI/lvgl/src/misc/lv_rb.c ****     if(node->data == NULL) {
 884              		.loc 1 342 5 view .LVU337
 342:../../Middlewares/LVGL/GUI/lvgl/src/misc/lv_rb.c ****     if(node->data == NULL) {
 885              		.loc 1 342 5 view .LVU338
 342:../../Middlewares/LVGL/GUI/lvgl/src/misc/lv_rb.c ****     if(node->data == NULL) {
 886              		.loc 1 342 5 view .LVU339
 342:../../Middlewares/LVGL/GUI/lvgl/src/misc/lv_rb.c ****     if(node->data == NULL) {
 887              		.loc 1 342 5 view .LVU340
 888 0026 FEE7     		b	.L66
 889              		.cfi_endproc
 890              	.LFE14:
 892              		.section	.text.lv_rb_init,"ax",%progbits
 893              		.align	1
 894              		.global	lv_rb_init
ARM GAS  C:\Users\28576\AppData\Local\Temp\ccFkI9MQ.s 			page 29


 895              		.syntax unified
 896              		.thumb
 897              		.thumb_func
 899              	lv_rb_init:
 900              	.LVL86:
 901              	.LFB2:
  48:../../Middlewares/LVGL/GUI/lvgl/src/misc/lv_rb.c ****     LV_ASSERT_NULL(tree);
 902              		.loc 1 48 1 view -0
 903              		.cfi_startproc
 904              		@ args = 0, pretend = 0, frame = 0
 905              		@ frame_needed = 0, uses_anonymous_args = 0
  49:../../Middlewares/LVGL/GUI/lvgl/src/misc/lv_rb.c ****     LV_ASSERT_NULL(compare);
 906              		.loc 1 49 5 view .LVU342
  49:../../Middlewares/LVGL/GUI/lvgl/src/misc/lv_rb.c ****     LV_ASSERT_NULL(compare);
 907              		.loc 1 49 5 view .LVU343
 908 0000 30B1     		cbz	r0, .L70
  48:../../Middlewares/LVGL/GUI/lvgl/src/misc/lv_rb.c ****     LV_ASSERT_NULL(tree);
 909              		.loc 1 48 1 is_stmt 0 view .LVU344
 910 0002 70B5     		push	{r4, r5, r6, lr}
 911              	.LCFI4:
 912              		.cfi_def_cfa_offset 16
 913              		.cfi_offset 4, -16
 914              		.cfi_offset 5, -12
 915              		.cfi_offset 6, -8
 916              		.cfi_offset 14, -4
 917 0004 0D46     		mov	r5, r1
 918 0006 1646     		mov	r6, r2
 919 0008 0446     		mov	r4, r0
  49:../../Middlewares/LVGL/GUI/lvgl/src/misc/lv_rb.c ****     LV_ASSERT_NULL(compare);
 920              		.loc 1 49 5 is_stmt 1 view .LVU345
  49:../../Middlewares/LVGL/GUI/lvgl/src/misc/lv_rb.c ****     LV_ASSERT_NULL(compare);
 921              		.loc 1 49 25 view .LVU346
  50:../../Middlewares/LVGL/GUI/lvgl/src/misc/lv_rb.c ****     LV_ASSERT(node_size > 0);
 922              		.loc 1 50 5 view .LVU347
  50:../../Middlewares/LVGL/GUI/lvgl/src/misc/lv_rb.c ****     LV_ASSERT(node_size > 0);
 923              		.loc 1 50 5 view .LVU348
 924 000a 11B1     		cbz	r1, .L72
  50:../../Middlewares/LVGL/GUI/lvgl/src/misc/lv_rb.c ****     LV_ASSERT(node_size > 0);
 925              		.loc 1 50 5 view .LVU349
  50:../../Middlewares/LVGL/GUI/lvgl/src/misc/lv_rb.c ****     LV_ASSERT(node_size > 0);
 926              		.loc 1 50 28 view .LVU350
  51:../../Middlewares/LVGL/GUI/lvgl/src/misc/lv_rb.c **** 
 927              		.loc 1 51 5 view .LVU351
  51:../../Middlewares/LVGL/GUI/lvgl/src/misc/lv_rb.c **** 
 928              		.loc 1 51 5 view .LVU352
 929 000c 12B9     		cbnz	r2, .L73
 930              	.L74:
  51:../../Middlewares/LVGL/GUI/lvgl/src/misc/lv_rb.c **** 
 931              		.loc 1 51 5 view .LVU353
  51:../../Middlewares/LVGL/GUI/lvgl/src/misc/lv_rb.c **** 
 932              		.loc 1 51 5 view .LVU354
  51:../../Middlewares/LVGL/GUI/lvgl/src/misc/lv_rb.c **** 
 933              		.loc 1 51 5 view .LVU355
  51:../../Middlewares/LVGL/GUI/lvgl/src/misc/lv_rb.c **** 
 934              		.loc 1 51 5 view .LVU356
  51:../../Middlewares/LVGL/GUI/lvgl/src/misc/lv_rb.c **** 
 935              		.loc 1 51 5 view .LVU357
ARM GAS  C:\Users\28576\AppData\Local\Temp\ccFkI9MQ.s 			page 30


 936 000e FEE7     		b	.L74
 937              	.L70:
 938              	.LCFI5:
 939              		.cfi_def_cfa_offset 0
 940              		.cfi_restore 4
 941              		.cfi_restore 5
 942              		.cfi_restore 6
 943              		.cfi_restore 14
  49:../../Middlewares/LVGL/GUI/lvgl/src/misc/lv_rb.c ****     LV_ASSERT_NULL(compare);
 944              		.loc 1 49 5 view .LVU358
  49:../../Middlewares/LVGL/GUI/lvgl/src/misc/lv_rb.c ****     LV_ASSERT_NULL(compare);
 945              		.loc 1 49 5 view .LVU359
  49:../../Middlewares/LVGL/GUI/lvgl/src/misc/lv_rb.c ****     LV_ASSERT_NULL(compare);
 946              		.loc 1 49 5 view .LVU360
  49:../../Middlewares/LVGL/GUI/lvgl/src/misc/lv_rb.c ****     LV_ASSERT_NULL(compare);
 947              		.loc 1 49 5 view .LVU361
  49:../../Middlewares/LVGL/GUI/lvgl/src/misc/lv_rb.c ****     LV_ASSERT_NULL(compare);
 948              		.loc 1 49 5 view .LVU362
 949 0010 FEE7     		b	.L70
 950              	.L72:
 951              	.LCFI6:
 952              		.cfi_def_cfa_offset 16
 953              		.cfi_offset 4, -16
 954              		.cfi_offset 5, -12
 955              		.cfi_offset 6, -8
 956              		.cfi_offset 14, -4
  50:../../Middlewares/LVGL/GUI/lvgl/src/misc/lv_rb.c ****     LV_ASSERT(node_size > 0);
 957              		.loc 1 50 5 view .LVU363
  50:../../Middlewares/LVGL/GUI/lvgl/src/misc/lv_rb.c ****     LV_ASSERT(node_size > 0);
 958              		.loc 1 50 5 view .LVU364
  50:../../Middlewares/LVGL/GUI/lvgl/src/misc/lv_rb.c ****     LV_ASSERT(node_size > 0);
 959              		.loc 1 50 5 view .LVU365
  50:../../Middlewares/LVGL/GUI/lvgl/src/misc/lv_rb.c ****     LV_ASSERT(node_size > 0);
 960              		.loc 1 50 5 view .LVU366
  50:../../Middlewares/LVGL/GUI/lvgl/src/misc/lv_rb.c ****     LV_ASSERT(node_size > 0);
 961              		.loc 1 50 5 view .LVU367
 962 0012 FEE7     		b	.L72
 963              	.L73:
  51:../../Middlewares/LVGL/GUI/lvgl/src/misc/lv_rb.c **** 
 964              		.loc 1 51 5 view .LVU368
  53:../../Middlewares/LVGL/GUI/lvgl/src/misc/lv_rb.c ****         return false;
 965              		.loc 1 53 5 view .LVU369
  57:../../Middlewares/LVGL/GUI/lvgl/src/misc/lv_rb.c **** 
 966              		.loc 1 57 5 view .LVU370
 967              	.LVL87:
 968              	.LBB14:
 969              	.LBI14:
 970              		.file 2 "../../Middlewares/LVGL/GUI/lvgl/src/misc/../stdlib/lv_string.h"
   1:../../Middlewares/LVGL/GUI/lvgl/src/misc/../stdlib/lv_string.h **** /**
   2:../../Middlewares/LVGL/GUI/lvgl/src/misc/../stdlib/lv_string.h ****  * @file lv_string.h
   3:../../Middlewares/LVGL/GUI/lvgl/src/misc/../stdlib/lv_string.h ****  *
   4:../../Middlewares/LVGL/GUI/lvgl/src/misc/../stdlib/lv_string.h ****  */
   5:../../Middlewares/LVGL/GUI/lvgl/src/misc/../stdlib/lv_string.h **** 
   6:../../Middlewares/LVGL/GUI/lvgl/src/misc/../stdlib/lv_string.h **** #ifndef LV_STRING_H
   7:../../Middlewares/LVGL/GUI/lvgl/src/misc/../stdlib/lv_string.h **** #define LV_STRING_H
   8:../../Middlewares/LVGL/GUI/lvgl/src/misc/../stdlib/lv_string.h **** 
   9:../../Middlewares/LVGL/GUI/lvgl/src/misc/../stdlib/lv_string.h **** #ifdef __cplusplus
ARM GAS  C:\Users\28576\AppData\Local\Temp\ccFkI9MQ.s 			page 31


  10:../../Middlewares/LVGL/GUI/lvgl/src/misc/../stdlib/lv_string.h **** extern "C" {
  11:../../Middlewares/LVGL/GUI/lvgl/src/misc/../stdlib/lv_string.h **** #endif
  12:../../Middlewares/LVGL/GUI/lvgl/src/misc/../stdlib/lv_string.h **** 
  13:../../Middlewares/LVGL/GUI/lvgl/src/misc/../stdlib/lv_string.h **** /*********************
  14:../../Middlewares/LVGL/GUI/lvgl/src/misc/../stdlib/lv_string.h ****  *      INCLUDES
  15:../../Middlewares/LVGL/GUI/lvgl/src/misc/../stdlib/lv_string.h ****  *********************/
  16:../../Middlewares/LVGL/GUI/lvgl/src/misc/../stdlib/lv_string.h **** #include "../lv_conf_internal.h"
  17:../../Middlewares/LVGL/GUI/lvgl/src/misc/../stdlib/lv_string.h **** #include "../misc/lv_types.h"
  18:../../Middlewares/LVGL/GUI/lvgl/src/misc/../stdlib/lv_string.h **** 
  19:../../Middlewares/LVGL/GUI/lvgl/src/misc/../stdlib/lv_string.h **** /*********************
  20:../../Middlewares/LVGL/GUI/lvgl/src/misc/../stdlib/lv_string.h ****  *      DEFINES
  21:../../Middlewares/LVGL/GUI/lvgl/src/misc/../stdlib/lv_string.h ****  *********************/
  22:../../Middlewares/LVGL/GUI/lvgl/src/misc/../stdlib/lv_string.h **** 
  23:../../Middlewares/LVGL/GUI/lvgl/src/misc/../stdlib/lv_string.h **** /**********************
  24:../../Middlewares/LVGL/GUI/lvgl/src/misc/../stdlib/lv_string.h ****  *      TYPEDEFS
  25:../../Middlewares/LVGL/GUI/lvgl/src/misc/../stdlib/lv_string.h ****  **********************/
  26:../../Middlewares/LVGL/GUI/lvgl/src/misc/../stdlib/lv_string.h **** 
  27:../../Middlewares/LVGL/GUI/lvgl/src/misc/../stdlib/lv_string.h **** /**********************
  28:../../Middlewares/LVGL/GUI/lvgl/src/misc/../stdlib/lv_string.h ****  * GLOBAL PROTOTYPES
  29:../../Middlewares/LVGL/GUI/lvgl/src/misc/../stdlib/lv_string.h ****  **********************/
  30:../../Middlewares/LVGL/GUI/lvgl/src/misc/../stdlib/lv_string.h **** 
  31:../../Middlewares/LVGL/GUI/lvgl/src/misc/../stdlib/lv_string.h **** /**
  32:../../Middlewares/LVGL/GUI/lvgl/src/misc/../stdlib/lv_string.h ****  * @brief Copies a block of memory from a source address to a destination address.
  33:../../Middlewares/LVGL/GUI/lvgl/src/misc/../stdlib/lv_string.h ****  * @param dst Pointer to the destination array where the content is to be copied.
  34:../../Middlewares/LVGL/GUI/lvgl/src/misc/../stdlib/lv_string.h ****  * @param src Pointer to the source of data to be copied.
  35:../../Middlewares/LVGL/GUI/lvgl/src/misc/../stdlib/lv_string.h ****  * @param len Number of bytes to copy.
  36:../../Middlewares/LVGL/GUI/lvgl/src/misc/../stdlib/lv_string.h ****  * @return Pointer to the destination array.
  37:../../Middlewares/LVGL/GUI/lvgl/src/misc/../stdlib/lv_string.h ****  * @note The function does not check for any overlapping of the source and destination memory block
  38:../../Middlewares/LVGL/GUI/lvgl/src/misc/../stdlib/lv_string.h ****  */
  39:../../Middlewares/LVGL/GUI/lvgl/src/misc/../stdlib/lv_string.h **** void * lv_memcpy(void * dst, const void * src, size_t len);
  40:../../Middlewares/LVGL/GUI/lvgl/src/misc/../stdlib/lv_string.h **** 
  41:../../Middlewares/LVGL/GUI/lvgl/src/misc/../stdlib/lv_string.h **** /**
  42:../../Middlewares/LVGL/GUI/lvgl/src/misc/../stdlib/lv_string.h ****  * @brief Fills a block of memory with a specified value.
  43:../../Middlewares/LVGL/GUI/lvgl/src/misc/../stdlib/lv_string.h ****  * @param dst Pointer to the destination array to fill with the specified value.
  44:../../Middlewares/LVGL/GUI/lvgl/src/misc/../stdlib/lv_string.h ****  * @param v Value to be set. The value is passed as an int, but the function fills
  45:../../Middlewares/LVGL/GUI/lvgl/src/misc/../stdlib/lv_string.h ****  *          the block of memory using the unsigned char conversion of this value.
  46:../../Middlewares/LVGL/GUI/lvgl/src/misc/../stdlib/lv_string.h ****  * @param len Number of bytes to be set to the value.
  47:../../Middlewares/LVGL/GUI/lvgl/src/misc/../stdlib/lv_string.h ****  */
  48:../../Middlewares/LVGL/GUI/lvgl/src/misc/../stdlib/lv_string.h **** void lv_memset(void * dst, uint8_t v, size_t len);
  49:../../Middlewares/LVGL/GUI/lvgl/src/misc/../stdlib/lv_string.h **** 
  50:../../Middlewares/LVGL/GUI/lvgl/src/misc/../stdlib/lv_string.h **** /**
  51:../../Middlewares/LVGL/GUI/lvgl/src/misc/../stdlib/lv_string.h ****  * @brief Move a block of memory from source to destination
  52:../../Middlewares/LVGL/GUI/lvgl/src/misc/../stdlib/lv_string.h ****  * @param dst Pointer to the destination array where the content is to be copied.
  53:../../Middlewares/LVGL/GUI/lvgl/src/misc/../stdlib/lv_string.h ****  * @param src Pointer to the source of data to be copied.
  54:../../Middlewares/LVGL/GUI/lvgl/src/misc/../stdlib/lv_string.h ****  * @param len Number of bytes to copy
  55:../../Middlewares/LVGL/GUI/lvgl/src/misc/../stdlib/lv_string.h ****  * @return Pointer to the destination array.
  56:../../Middlewares/LVGL/GUI/lvgl/src/misc/../stdlib/lv_string.h ****  */
  57:../../Middlewares/LVGL/GUI/lvgl/src/misc/../stdlib/lv_string.h **** void * lv_memmove(void * dst, const void * src, size_t len);
  58:../../Middlewares/LVGL/GUI/lvgl/src/misc/../stdlib/lv_string.h **** 
  59:../../Middlewares/LVGL/GUI/lvgl/src/misc/../stdlib/lv_string.h **** /**
  60:../../Middlewares/LVGL/GUI/lvgl/src/misc/../stdlib/lv_string.h ****  * @brief This function will compare two memory blocks
  61:../../Middlewares/LVGL/GUI/lvgl/src/misc/../stdlib/lv_string.h ****  * @param p1 Pointer to the first memory block
  62:../../Middlewares/LVGL/GUI/lvgl/src/misc/../stdlib/lv_string.h ****  * @param p2 Pointer to the second memory block
  63:../../Middlewares/LVGL/GUI/lvgl/src/misc/../stdlib/lv_string.h ****  * @param len Number of bytes to compare
  64:../../Middlewares/LVGL/GUI/lvgl/src/misc/../stdlib/lv_string.h ****  * @return The difference between the value of the first unmatching byte.
  65:../../Middlewares/LVGL/GUI/lvgl/src/misc/../stdlib/lv_string.h ****  */
  66:../../Middlewares/LVGL/GUI/lvgl/src/misc/../stdlib/lv_string.h **** int lv_memcmp(const void * p1, const void * p2, size_t len);
ARM GAS  C:\Users\28576\AppData\Local\Temp\ccFkI9MQ.s 			page 32


  67:../../Middlewares/LVGL/GUI/lvgl/src/misc/../stdlib/lv_string.h **** 
  68:../../Middlewares/LVGL/GUI/lvgl/src/misc/../stdlib/lv_string.h **** /**
  69:../../Middlewares/LVGL/GUI/lvgl/src/misc/../stdlib/lv_string.h ****  * Same as `memset(dst, 0x00, len)`.
  70:../../Middlewares/LVGL/GUI/lvgl/src/misc/../stdlib/lv_string.h ****  * @param dst pointer to the destination buffer
  71:../../Middlewares/LVGL/GUI/lvgl/src/misc/../stdlib/lv_string.h ****  * @param len number of byte to set
  72:../../Middlewares/LVGL/GUI/lvgl/src/misc/../stdlib/lv_string.h ****  */
  73:../../Middlewares/LVGL/GUI/lvgl/src/misc/../stdlib/lv_string.h **** static inline void lv_memzero(void * dst, size_t len)
 971              		.loc 2 73 20 view .LVU371
 972              	.LBB15:
  74:../../Middlewares/LVGL/GUI/lvgl/src/misc/../stdlib/lv_string.h **** {
  75:../../Middlewares/LVGL/GUI/lvgl/src/misc/../stdlib/lv_string.h ****     lv_memset(dst, 0x00, len);
 973              		.loc 2 75 5 view .LVU372
 974 0014 0C22     		movs	r2, #12
 975              	.LVL88:
 976              		.loc 2 75 5 is_stmt 0 view .LVU373
 977 0016 0021     		movs	r1, #0
 978              	.LVL89:
 979              		.loc 2 75 5 view .LVU374
 980 0018 FFF7FEFF 		bl	lv_memset
 981              	.LVL90:
 982              		.loc 2 75 5 view .LVU375
 983              	.LBE15:
 984              	.LBE14:
  59:../../Middlewares/LVGL/GUI/lvgl/src/misc/lv_rb.c ****     tree->compare = compare;
 985              		.loc 1 59 5 is_stmt 1 view .LVU376
  59:../../Middlewares/LVGL/GUI/lvgl/src/misc/lv_rb.c ****     tree->compare = compare;
 986              		.loc 1 59 16 is_stmt 0 view .LVU377
 987 001c 0023     		movs	r3, #0
 988 001e 2360     		str	r3, [r4]
  60:../../Middlewares/LVGL/GUI/lvgl/src/misc/lv_rb.c ****     tree->size = node_size;
 989              		.loc 1 60 5 is_stmt 1 view .LVU378
  60:../../Middlewares/LVGL/GUI/lvgl/src/misc/lv_rb.c ****     tree->size = node_size;
 990              		.loc 1 60 19 is_stmt 0 view .LVU379
 991 0020 6560     		str	r5, [r4, #4]
  61:../../Middlewares/LVGL/GUI/lvgl/src/misc/lv_rb.c **** 
 992              		.loc 1 61 5 is_stmt 1 view .LVU380
  61:../../Middlewares/LVGL/GUI/lvgl/src/misc/lv_rb.c **** 
 993              		.loc 1 61 16 is_stmt 0 view .LVU381
 994 0022 A660     		str	r6, [r4, #8]
  63:../../Middlewares/LVGL/GUI/lvgl/src/misc/lv_rb.c **** }
 995              		.loc 1 63 5 is_stmt 1 view .LVU382
  64:../../Middlewares/LVGL/GUI/lvgl/src/misc/lv_rb.c **** 
 996              		.loc 1 64 1 is_stmt 0 view .LVU383
 997 0024 0120     		movs	r0, #1
 998 0026 70BD     		pop	{r4, r5, r6, pc}
  64:../../Middlewares/LVGL/GUI/lvgl/src/misc/lv_rb.c **** 
 999              		.loc 1 64 1 view .LVU384
 1000              		.cfi_endproc
 1001              	.LFE2:
 1003              		.section	.text.lv_rb_find,"ax",%progbits
 1004              		.align	1
 1005              		.global	lv_rb_find
 1006              		.syntax unified
 1007              		.thumb
 1008              		.thumb_func
 1010              	lv_rb_find:
 1011              	.LVL91:
ARM GAS  C:\Users\28576\AppData\Local\Temp\ccFkI9MQ.s 			page 33


 1012              	.LFB4:
 104:../../Middlewares/LVGL/GUI/lvgl/src/misc/lv_rb.c ****     LV_ASSERT_NULL(tree);
 1013              		.loc 1 104 1 is_stmt 1 view -0
 1014              		.cfi_startproc
 1015              		@ args = 0, pretend = 0, frame = 0
 1016              		@ frame_needed = 0, uses_anonymous_args = 0
 105:../../Middlewares/LVGL/GUI/lvgl/src/misc/lv_rb.c ****     if(tree == NULL) {
 1017              		.loc 1 105 5 view .LVU386
 105:../../Middlewares/LVGL/GUI/lvgl/src/misc/lv_rb.c ****     if(tree == NULL) {
 1018              		.loc 1 105 5 view .LVU387
 1019 0000 20B1     		cbz	r0, .L79
 104:../../Middlewares/LVGL/GUI/lvgl/src/misc/lv_rb.c ****     LV_ASSERT_NULL(tree);
 1020              		.loc 1 104 1 is_stmt 0 view .LVU388
 1021 0002 70B5     		push	{r4, r5, r6, lr}
 1022              	.LCFI7:
 1023              		.cfi_def_cfa_offset 16
 1024              		.cfi_offset 4, -16
 1025              		.cfi_offset 5, -12
 1026              		.cfi_offset 6, -8
 1027              		.cfi_offset 14, -4
 1028 0004 0D46     		mov	r5, r1
 1029 0006 0646     		mov	r6, r0
 105:../../Middlewares/LVGL/GUI/lvgl/src/misc/lv_rb.c ****     if(tree == NULL) {
 1030              		.loc 1 105 5 is_stmt 1 view .LVU389
 105:../../Middlewares/LVGL/GUI/lvgl/src/misc/lv_rb.c ****     if(tree == NULL) {
 1031              		.loc 1 105 25 view .LVU390
 106:../../Middlewares/LVGL/GUI/lvgl/src/misc/lv_rb.c ****         return NULL;
 1032              		.loc 1 106 5 view .LVU391
 110:../../Middlewares/LVGL/GUI/lvgl/src/misc/lv_rb.c **** 
 1033              		.loc 1 110 5 view .LVU392
 110:../../Middlewares/LVGL/GUI/lvgl/src/misc/lv_rb.c **** 
 1034              		.loc 1 110 20 is_stmt 0 view .LVU393
 1035 0008 0468     		ldr	r4, [r0]
 1036              	.LVL92:
 112:../../Middlewares/LVGL/GUI/lvgl/src/misc/lv_rb.c ****         lv_rb_compare_res_t cmp = tree->compare(key, current->data);
 1037              		.loc 1 112 5 is_stmt 1 view .LVU394
 112:../../Middlewares/LVGL/GUI/lvgl/src/misc/lv_rb.c ****         lv_rb_compare_res_t cmp = tree->compare(key, current->data);
 1038              		.loc 1 112 10 is_stmt 0 view .LVU395
 1039 000a 01E0     		b	.L80
 1040              	.LVL93:
 1041              	.L79:
 1042              	.LCFI8:
 1043              		.cfi_def_cfa_offset 0
 1044              		.cfi_restore 4
 1045              		.cfi_restore 5
 1046              		.cfi_restore 6
 1047              		.cfi_restore 14
 105:../../Middlewares/LVGL/GUI/lvgl/src/misc/lv_rb.c ****     if(tree == NULL) {
 1048              		.loc 1 105 5 is_stmt 1 view .LVU396
 105:../../Middlewares/LVGL/GUI/lvgl/src/misc/lv_rb.c ****     if(tree == NULL) {
 1049              		.loc 1 105 5 view .LVU397
 105:../../Middlewares/LVGL/GUI/lvgl/src/misc/lv_rb.c ****     if(tree == NULL) {
 1050              		.loc 1 105 5 view .LVU398
 105:../../Middlewares/LVGL/GUI/lvgl/src/misc/lv_rb.c ****     if(tree == NULL) {
 1051              		.loc 1 105 5 view .LVU399
 105:../../Middlewares/LVGL/GUI/lvgl/src/misc/lv_rb.c ****     if(tree == NULL) {
 1052              		.loc 1 105 5 view .LVU400
ARM GAS  C:\Users\28576\AppData\Local\Temp\ccFkI9MQ.s 			page 34


 1053 000c FEE7     		b	.L79
 1054              	.LVL94:
 1055              	.L87:
 1056              	.LCFI9:
 1057              		.cfi_def_cfa_offset 16
 1058              		.cfi_offset 4, -16
 1059              		.cfi_offset 5, -12
 1060              		.cfi_offset 6, -8
 1061              		.cfi_offset 14, -4
 1062              	.LBB16:
 119:../../Middlewares/LVGL/GUI/lvgl/src/misc/lv_rb.c ****         }
 1063              		.loc 1 119 13 view .LVU401
 119:../../Middlewares/LVGL/GUI/lvgl/src/misc/lv_rb.c ****         }
 1064              		.loc 1 119 21 is_stmt 0 view .LVU402
 1065 000e 6468     		ldr	r4, [r4, #4]
 1066              	.LVL95:
 1067              	.L80:
 119:../../Middlewares/LVGL/GUI/lvgl/src/misc/lv_rb.c ****         }
 1068              		.loc 1 119 21 view .LVU403
 1069              	.LBE16:
 112:../../Middlewares/LVGL/GUI/lvgl/src/misc/lv_rb.c ****         lv_rb_compare_res_t cmp = tree->compare(key, current->data);
 1070              		.loc 1 112 19 is_stmt 1 view .LVU404
 1071 0010 44B1     		cbz	r4, .L77
 1072              	.LBB17:
 113:../../Middlewares/LVGL/GUI/lvgl/src/misc/lv_rb.c **** 
 1073              		.loc 1 113 9 view .LVU405
 113:../../Middlewares/LVGL/GUI/lvgl/src/misc/lv_rb.c **** 
 1074              		.loc 1 113 39 is_stmt 0 view .LVU406
 1075 0012 7368     		ldr	r3, [r6, #4]
 113:../../Middlewares/LVGL/GUI/lvgl/src/misc/lv_rb.c **** 
 1076              		.loc 1 113 35 view .LVU407
 1077 0014 2169     		ldr	r1, [r4, #16]
 1078 0016 2846     		mov	r0, r5
 1079 0018 9847     		blx	r3
 1080              	.LVL96:
 115:../../Middlewares/LVGL/GUI/lvgl/src/misc/lv_rb.c ****             return current;
 1081              		.loc 1 115 9 is_stmt 1 view .LVU408
 115:../../Middlewares/LVGL/GUI/lvgl/src/misc/lv_rb.c ****             return current;
 1082              		.loc 1 115 11 is_stmt 0 view .LVU409
 1083 001a 18B1     		cbz	r0, .L77
 118:../../Middlewares/LVGL/GUI/lvgl/src/misc/lv_rb.c ****             current = current->left;
 1084              		.loc 1 118 14 is_stmt 1 view .LVU410
 118:../../Middlewares/LVGL/GUI/lvgl/src/misc/lv_rb.c ****             current = current->left;
 1085              		.loc 1 118 16 is_stmt 0 view .LVU411
 1086 001c 0028     		cmp	r0, #0
 1087 001e F6DB     		blt	.L87
 122:../../Middlewares/LVGL/GUI/lvgl/src/misc/lv_rb.c ****         }
 1088              		.loc 1 122 13 is_stmt 1 view .LVU412
 122:../../Middlewares/LVGL/GUI/lvgl/src/misc/lv_rb.c ****         }
 1089              		.loc 1 122 21 is_stmt 0 view .LVU413
 1090 0020 A468     		ldr	r4, [r4, #8]
 1091              	.LVL97:
 122:../../Middlewares/LVGL/GUI/lvgl/src/misc/lv_rb.c ****         }
 1092              		.loc 1 122 21 view .LVU414
 1093 0022 F5E7     		b	.L80
 1094              	.LVL98:
 1095              	.L77:
ARM GAS  C:\Users\28576\AppData\Local\Temp\ccFkI9MQ.s 			page 35


 122:../../Middlewares/LVGL/GUI/lvgl/src/misc/lv_rb.c ****         }
 1096              		.loc 1 122 21 view .LVU415
 1097              	.LBE17:
 127:../../Middlewares/LVGL/GUI/lvgl/src/misc/lv_rb.c **** 
 1098              		.loc 1 127 1 view .LVU416
 1099 0024 2046     		mov	r0, r4
 1100 0026 70BD     		pop	{r4, r5, r6, pc}
 127:../../Middlewares/LVGL/GUI/lvgl/src/misc/lv_rb.c **** 
 1101              		.loc 1 127 1 view .LVU417
 1102              		.cfi_endproc
 1103              	.LFE4:
 1105              		.section	.text.lv_rb_insert,"ax",%progbits
 1106              		.align	1
 1107              		.global	lv_rb_insert
 1108              		.syntax unified
 1109              		.thumb
 1110              		.thumb_func
 1112              	lv_rb_insert:
 1113              	.LVL99:
 1114              	.LFB3:
  67:../../Middlewares/LVGL/GUI/lvgl/src/misc/lv_rb.c ****     LV_ASSERT_NULL(tree);
 1115              		.loc 1 67 1 is_stmt 1 view -0
 1116              		.cfi_startproc
 1117              		@ args = 0, pretend = 0, frame = 0
 1118              		@ frame_needed = 0, uses_anonymous_args = 0
  68:../../Middlewares/LVGL/GUI/lvgl/src/misc/lv_rb.c ****     if(tree == NULL) {
 1119              		.loc 1 68 5 view .LVU419
  68:../../Middlewares/LVGL/GUI/lvgl/src/misc/lv_rb.c ****     if(tree == NULL) {
 1120              		.loc 1 68 5 view .LVU420
 1121 0000 50B1     		cbz	r0, .L90
  67:../../Middlewares/LVGL/GUI/lvgl/src/misc/lv_rb.c ****     LV_ASSERT_NULL(tree);
 1122              		.loc 1 67 1 is_stmt 0 view .LVU421
 1123 0002 2DE9F047 		push	{r4, r5, r6, r7, r8, r9, r10, lr}
 1124              	.LCFI10:
 1125              		.cfi_def_cfa_offset 32
 1126              		.cfi_offset 4, -32
 1127              		.cfi_offset 5, -28
 1128              		.cfi_offset 6, -24
 1129              		.cfi_offset 7, -20
 1130              		.cfi_offset 8, -16
 1131              		.cfi_offset 9, -12
 1132              		.cfi_offset 10, -8
 1133              		.cfi_offset 14, -4
 1134 0006 0D46     		mov	r5, r1
 1135 0008 0746     		mov	r7, r0
  68:../../Middlewares/LVGL/GUI/lvgl/src/misc/lv_rb.c ****     if(tree == NULL) {
 1136              		.loc 1 68 5 is_stmt 1 view .LVU422
  68:../../Middlewares/LVGL/GUI/lvgl/src/misc/lv_rb.c ****     if(tree == NULL) {
 1137              		.loc 1 68 25 view .LVU423
  69:../../Middlewares/LVGL/GUI/lvgl/src/misc/lv_rb.c ****         return NULL;
 1138              		.loc 1 69 5 view .LVU424
  73:../../Middlewares/LVGL/GUI/lvgl/src/misc/lv_rb.c ****     if(node) return node;
 1139              		.loc 1 73 5 view .LVU425
  73:../../Middlewares/LVGL/GUI/lvgl/src/misc/lv_rb.c ****     if(node) return node;
 1140              		.loc 1 73 27 is_stmt 0 view .LVU426
 1141 000a FFF7FEFF 		bl	lv_rb_find
 1142              	.LVL100:
ARM GAS  C:\Users\28576\AppData\Local\Temp\ccFkI9MQ.s 			page 36


  74:../../Middlewares/LVGL/GUI/lvgl/src/misc/lv_rb.c ****     else {
 1143              		.loc 1 74 5 is_stmt 1 view .LVU427
  74:../../Middlewares/LVGL/GUI/lvgl/src/misc/lv_rb.c ****     else {
 1144              		.loc 1 74 7 is_stmt 0 view .LVU428
 1145 000e 8046     		mov	r8, r0
 1146 0010 18B1     		cbz	r0, .L97
 1147              	.LVL101:
 1148              	.L88:
 101:../../Middlewares/LVGL/GUI/lvgl/src/misc/lv_rb.c **** 
 1149              		.loc 1 101 1 view .LVU429
 1150 0012 4046     		mov	r0, r8
 1151 0014 BDE8F087 		pop	{r4, r5, r6, r7, r8, r9, r10, pc}
 1152              	.LVL102:
 1153              	.L90:
 1154              	.LCFI11:
 1155              		.cfi_def_cfa_offset 0
 1156              		.cfi_restore 4
 1157              		.cfi_restore 5
 1158              		.cfi_restore 6
 1159              		.cfi_restore 7
 1160              		.cfi_restore 8
 1161              		.cfi_restore 9
 1162              		.cfi_restore 10
 1163              		.cfi_restore 14
  68:../../Middlewares/LVGL/GUI/lvgl/src/misc/lv_rb.c ****     if(tree == NULL) {
 1164              		.loc 1 68 5 is_stmt 1 view .LVU430
  68:../../Middlewares/LVGL/GUI/lvgl/src/misc/lv_rb.c ****     if(tree == NULL) {
 1165              		.loc 1 68 5 view .LVU431
  68:../../Middlewares/LVGL/GUI/lvgl/src/misc/lv_rb.c ****     if(tree == NULL) {
 1166              		.loc 1 68 5 view .LVU432
  68:../../Middlewares/LVGL/GUI/lvgl/src/misc/lv_rb.c ****     if(tree == NULL) {
 1167              		.loc 1 68 5 view .LVU433
  68:../../Middlewares/LVGL/GUI/lvgl/src/misc/lv_rb.c ****     if(tree == NULL) {
 1168              		.loc 1 68 5 view .LVU434
 1169 0018 FEE7     		b	.L90
 1170              	.LVL103:
 1171              	.L97:
 1172              	.LCFI12:
 1173              		.cfi_def_cfa_offset 32
 1174              		.cfi_offset 4, -32
 1175              		.cfi_offset 5, -28
 1176              		.cfi_offset 6, -24
 1177              		.cfi_offset 7, -20
 1178              		.cfi_offset 8, -16
 1179              		.cfi_offset 9, -12
 1180              		.cfi_offset 10, -8
 1181              		.cfi_offset 14, -4
  76:../../Middlewares/LVGL/GUI/lvgl/src/misc/lv_rb.c ****         if(node == NULL) return NULL;
 1182              		.loc 1 76 9 view .LVU435
  76:../../Middlewares/LVGL/GUI/lvgl/src/misc/lv_rb.c ****         if(node == NULL) return NULL;
 1183              		.loc 1 76 16 is_stmt 0 view .LVU436
 1184 001a 3846     		mov	r0, r7
 1185              	.LVL104:
  76:../../Middlewares/LVGL/GUI/lvgl/src/misc/lv_rb.c ****         if(node == NULL) return NULL;
 1186              		.loc 1 76 16 view .LVU437
 1187 001c FFF7FEFF 		bl	rb_create_node
 1188              	.LVL105:
ARM GAS  C:\Users\28576\AppData\Local\Temp\ccFkI9MQ.s 			page 37


  77:../../Middlewares/LVGL/GUI/lvgl/src/misc/lv_rb.c **** 
 1189              		.loc 1 77 9 is_stmt 1 view .LVU438
  77:../../Middlewares/LVGL/GUI/lvgl/src/misc/lv_rb.c **** 
 1190              		.loc 1 77 11 is_stmt 0 view .LVU439
 1191 0020 8046     		mov	r8, r0
 1192 0022 0028     		cmp	r0, #0
 1193 0024 F5D0     		beq	.L88
  79:../../Middlewares/LVGL/GUI/lvgl/src/misc/lv_rb.c ****             tree->root = node;
 1194              		.loc 1 79 9 is_stmt 1 view .LVU440
  79:../../Middlewares/LVGL/GUI/lvgl/src/misc/lv_rb.c ****             tree->root = node;
 1195              		.loc 1 79 16 is_stmt 0 view .LVU441
 1196 0026 3B68     		ldr	r3, [r7]
  79:../../Middlewares/LVGL/GUI/lvgl/src/misc/lv_rb.c ****             tree->root = node;
 1197              		.loc 1 79 11 view .LVU442
 1198 0028 DBB1     		cbz	r3, .L98
  87:../../Middlewares/LVGL/GUI/lvgl/src/misc/lv_rb.c ****     node->data = key;
 1199              		.loc 1 87 5 is_stmt 1 view .LVU443
  87:../../Middlewares/LVGL/GUI/lvgl/src/misc/lv_rb.c ****     node->data = key;
 1200              		.loc 1 87 12 is_stmt 0 view .LVU444
 1201 002a 0269     		ldr	r2, [r0, #16]
 1202 002c 9146     		mov	r9, r2
 1203              	.LVL106:
  88:../../Middlewares/LVGL/GUI/lvgl/src/misc/lv_rb.c ****     lv_rb_node_t * parent = rb_find_leaf_parent(tree, node);
 1204              		.loc 1 88 5 is_stmt 1 view .LVU445
  88:../../Middlewares/LVGL/GUI/lvgl/src/misc/lv_rb.c ****     lv_rb_node_t * parent = rb_find_leaf_parent(tree, node);
 1205              		.loc 1 88 16 is_stmt 0 view .LVU446
 1206 002e 0561     		str	r5, [r0, #16]
  89:../../Middlewares/LVGL/GUI/lvgl/src/misc/lv_rb.c **** 
 1207              		.loc 1 89 5 is_stmt 1 view .LVU447
  89:../../Middlewares/LVGL/GUI/lvgl/src/misc/lv_rb.c **** 
 1208              		.loc 1 89 29 is_stmt 0 view .LVU448
 1209 0030 0146     		mov	r1, r0
 1210 0032 3846     		mov	r0, r7
 1211              	.LVL107:
  89:../../Middlewares/LVGL/GUI/lvgl/src/misc/lv_rb.c **** 
 1212              		.loc 1 89 29 view .LVU449
 1213 0034 FFF7FEFF 		bl	rb_find_leaf_parent
 1214              	.LVL108:
  89:../../Middlewares/LVGL/GUI/lvgl/src/misc/lv_rb.c **** 
 1215              		.loc 1 89 29 view .LVU450
 1216 0038 8246     		mov	r10, r0
 1217              	.LVL109:
  91:../../Middlewares/LVGL/GUI/lvgl/src/misc/lv_rb.c ****     node->color = LV_RB_COLOR_RED;
 1218              		.loc 1 91 5 is_stmt 1 view .LVU451
  91:../../Middlewares/LVGL/GUI/lvgl/src/misc/lv_rb.c ****     node->color = LV_RB_COLOR_RED;
 1219              		.loc 1 91 18 is_stmt 0 view .LVU452
 1220 003a C8F80000 		str	r0, [r8]
  92:../../Middlewares/LVGL/GUI/lvgl/src/misc/lv_rb.c **** 
 1221              		.loc 1 92 5 is_stmt 1 view .LVU453
  92:../../Middlewares/LVGL/GUI/lvgl/src/misc/lv_rb.c **** 
 1222              		.loc 1 92 17 is_stmt 0 view .LVU454
 1223 003e 0023     		movs	r3, #0
 1224 0040 88F80C30 		strb	r3, [r8, #12]
  94:../../Middlewares/LVGL/GUI/lvgl/src/misc/lv_rb.c ****     else parent->right = node;
 1225              		.loc 1 94 5 is_stmt 1 view .LVU455
  94:../../Middlewares/LVGL/GUI/lvgl/src/misc/lv_rb.c ****     else parent->right = node;
 1226              		.loc 1 94 12 is_stmt 0 view .LVU456
ARM GAS  C:\Users\28576\AppData\Local\Temp\ccFkI9MQ.s 			page 38


 1227 0044 7B68     		ldr	r3, [r7, #4]
  94:../../Middlewares/LVGL/GUI/lvgl/src/misc/lv_rb.c ****     else parent->right = node;
 1228              		.loc 1 94 8 view .LVU457
 1229 0046 0169     		ldr	r1, [r0, #16]
 1230 0048 2846     		mov	r0, r5
 1231              	.LVL110:
  94:../../Middlewares/LVGL/GUI/lvgl/src/misc/lv_rb.c ****     else parent->right = node;
 1232              		.loc 1 94 8 view .LVU458
 1233 004a 9847     		blx	r3
 1234              	.LVL111:
  94:../../Middlewares/LVGL/GUI/lvgl/src/misc/lv_rb.c ****     else parent->right = node;
 1235              		.loc 1 94 7 discriminator 1 view .LVU459
 1236 004c 0028     		cmp	r0, #0
 1237 004e 0EDB     		blt	.L99
  95:../../Middlewares/LVGL/GUI/lvgl/src/misc/lv_rb.c **** 
 1238              		.loc 1 95 10 is_stmt 1 view .LVU460
  95:../../Middlewares/LVGL/GUI/lvgl/src/misc/lv_rb.c **** 
 1239              		.loc 1 95 24 is_stmt 0 view .LVU461
 1240 0050 CAF80880 		str	r8, [r10, #8]
 1241              	.L94:
  97:../../Middlewares/LVGL/GUI/lvgl/src/misc/lv_rb.c **** 
 1242              		.loc 1 97 5 is_stmt 1 view .LVU462
 1243 0054 4146     		mov	r1, r8
 1244 0056 3846     		mov	r0, r7
 1245 0058 FFF7FEFF 		bl	rb_insert_color
 1246              	.LVL112:
  99:../../Middlewares/LVGL/GUI/lvgl/src/misc/lv_rb.c ****     return node;
 1247              		.loc 1 99 5 view .LVU463
  99:../../Middlewares/LVGL/GUI/lvgl/src/misc/lv_rb.c ****     return node;
 1248              		.loc 1 99 16 is_stmt 0 view .LVU464
 1249 005c C8F81090 		str	r9, [r8, #16]
 100:../../Middlewares/LVGL/GUI/lvgl/src/misc/lv_rb.c **** }
 1250              		.loc 1 100 5 is_stmt 1 view .LVU465
 100:../../Middlewares/LVGL/GUI/lvgl/src/misc/lv_rb.c **** }
 1251              		.loc 1 100 12 is_stmt 0 view .LVU466
 1252 0060 D7E7     		b	.L88
 1253              	.LVL113:
 1254              	.L98:
  80:../../Middlewares/LVGL/GUI/lvgl/src/misc/lv_rb.c ****             node->parent = NULL;
 1255              		.loc 1 80 13 is_stmt 1 view .LVU467
  80:../../Middlewares/LVGL/GUI/lvgl/src/misc/lv_rb.c ****             node->parent = NULL;
 1256              		.loc 1 80 24 is_stmt 0 view .LVU468
 1257 0062 3860     		str	r0, [r7]
  81:../../Middlewares/LVGL/GUI/lvgl/src/misc/lv_rb.c ****             node->color = LV_RB_COLOR_BLACK;
 1258              		.loc 1 81 13 is_stmt 1 view .LVU469
  81:../../Middlewares/LVGL/GUI/lvgl/src/misc/lv_rb.c ****             node->color = LV_RB_COLOR_BLACK;
 1259              		.loc 1 81 26 is_stmt 0 view .LVU470
 1260 0064 0023     		movs	r3, #0
 1261 0066 0360     		str	r3, [r0]
  82:../../Middlewares/LVGL/GUI/lvgl/src/misc/lv_rb.c ****             return node;
 1262              		.loc 1 82 13 is_stmt 1 view .LVU471
  82:../../Middlewares/LVGL/GUI/lvgl/src/misc/lv_rb.c ****             return node;
 1263              		.loc 1 82 25 is_stmt 0 view .LVU472
 1264 0068 0123     		movs	r3, #1
 1265 006a 0373     		strb	r3, [r0, #12]
  83:../../Middlewares/LVGL/GUI/lvgl/src/misc/lv_rb.c ****         }
 1266              		.loc 1 83 13 is_stmt 1 view .LVU473
ARM GAS  C:\Users\28576\AppData\Local\Temp\ccFkI9MQ.s 			page 39


  83:../../Middlewares/LVGL/GUI/lvgl/src/misc/lv_rb.c ****         }
 1267              		.loc 1 83 20 is_stmt 0 view .LVU474
 1268 006c D1E7     		b	.L88
 1269              	.LVL114:
 1270              	.L99:
  94:../../Middlewares/LVGL/GUI/lvgl/src/misc/lv_rb.c ****     else parent->right = node;
 1271              		.loc 1 94 46 is_stmt 1 discriminator 2 view .LVU475
  94:../../Middlewares/LVGL/GUI/lvgl/src/misc/lv_rb.c ****     else parent->right = node;
 1272              		.loc 1 94 59 is_stmt 0 discriminator 2 view .LVU476
 1273 006e CAF80480 		str	r8, [r10, #4]
 1274 0072 EFE7     		b	.L94
 1275              		.cfi_endproc
 1276              	.LFE3:
 1278              		.section	.text.lv_rb_destroy,"ax",%progbits
 1279              		.align	1
 1280              		.global	lv_rb_destroy
 1281              		.syntax unified
 1282              		.thumb
 1283              		.thumb_func
 1285              	lv_rb_destroy:
 1286              	.LVL115:
 1287              	.LFB9:
 258:../../Middlewares/LVGL/GUI/lvgl/src/misc/lv_rb.c ****     LV_ASSERT_NULL(tree);
 1288              		.loc 1 258 1 is_stmt 1 view -0
 1289              		.cfi_startproc
 1290              		@ args = 0, pretend = 0, frame = 0
 1291              		@ frame_needed = 0, uses_anonymous_args = 0
 259:../../Middlewares/LVGL/GUI/lvgl/src/misc/lv_rb.c **** 
 1292              		.loc 1 259 5 view .LVU478
 259:../../Middlewares/LVGL/GUI/lvgl/src/misc/lv_rb.c **** 
 1293              		.loc 1 259 5 view .LVU479
 1294 0000 38B1     		cbz	r0, .L102
 258:../../Middlewares/LVGL/GUI/lvgl/src/misc/lv_rb.c ****     LV_ASSERT_NULL(tree);
 1295              		.loc 1 258 1 is_stmt 0 view .LVU480
 1296 0002 70B5     		push	{r4, r5, r6, lr}
 1297              	.LCFI13:
 1298              		.cfi_def_cfa_offset 16
 1299              		.cfi_offset 4, -16
 1300              		.cfi_offset 5, -12
 1301              		.cfi_offset 6, -8
 1302              		.cfi_offset 14, -4
 1303 0004 0546     		mov	r5, r0
 259:../../Middlewares/LVGL/GUI/lvgl/src/misc/lv_rb.c **** 
 1304              		.loc 1 259 5 is_stmt 1 view .LVU481
 259:../../Middlewares/LVGL/GUI/lvgl/src/misc/lv_rb.c **** 
 1305              		.loc 1 259 25 view .LVU482
 261:../../Middlewares/LVGL/GUI/lvgl/src/misc/lv_rb.c ****         return;
 1306              		.loc 1 261 5 view .LVU483
 265:../../Middlewares/LVGL/GUI/lvgl/src/misc/lv_rb.c ****     lv_rb_node_t * parent = NULL;
 1307              		.loc 1 265 5 view .LVU484
 265:../../Middlewares/LVGL/GUI/lvgl/src/misc/lv_rb.c ****     lv_rb_node_t * parent = NULL;
 1308              		.loc 1 265 20 is_stmt 0 view .LVU485
 1309 0006 0468     		ldr	r4, [r0]
 1310              	.LVL116:
 266:../../Middlewares/LVGL/GUI/lvgl/src/misc/lv_rb.c **** 
 1311              		.loc 1 266 5 is_stmt 1 view .LVU486
 268:../../Middlewares/LVGL/GUI/lvgl/src/misc/lv_rb.c ****         if(node->left != NULL) {
ARM GAS  C:\Users\28576\AppData\Local\Temp\ccFkI9MQ.s 			page 40


 1312              		.loc 1 268 5 view .LVU487
 1313              	.L104:
 268:../../Middlewares/LVGL/GUI/lvgl/src/misc/lv_rb.c ****         if(node->left != NULL) {
 1314              		.loc 1 268 16 view .LVU488
 1315 0008 DCB1     		cbz	r4, .L113
 269:../../Middlewares/LVGL/GUI/lvgl/src/misc/lv_rb.c ****             node = node->left;
 1316              		.loc 1 269 9 view .LVU489
 269:../../Middlewares/LVGL/GUI/lvgl/src/misc/lv_rb.c ****             node = node->left;
 1317              		.loc 1 269 16 is_stmt 0 view .LVU490
 1318 000a 6368     		ldr	r3, [r4, #4]
 269:../../Middlewares/LVGL/GUI/lvgl/src/misc/lv_rb.c ****             node = node->left;
 1319              		.loc 1 269 11 view .LVU491
 1320 000c 13B1     		cbz	r3, .L114
 270:../../Middlewares/LVGL/GUI/lvgl/src/misc/lv_rb.c ****         }
 1321              		.loc 1 270 18 view .LVU492
 1322 000e 1C46     		mov	r4, r3
 1323              	.LVL117:
 270:../../Middlewares/LVGL/GUI/lvgl/src/misc/lv_rb.c ****         }
 1324              		.loc 1 270 18 view .LVU493
 1325 0010 FAE7     		b	.L104
 1326              	.LVL118:
 1327              	.L102:
 1328              	.LCFI14:
 1329              		.cfi_def_cfa_offset 0
 1330              		.cfi_restore 4
 1331              		.cfi_restore 5
 1332              		.cfi_restore 6
 1333              		.cfi_restore 14
 259:../../Middlewares/LVGL/GUI/lvgl/src/misc/lv_rb.c **** 
 1334              		.loc 1 259 5 is_stmt 1 view .LVU494
 259:../../Middlewares/LVGL/GUI/lvgl/src/misc/lv_rb.c **** 
 1335              		.loc 1 259 5 view .LVU495
 259:../../Middlewares/LVGL/GUI/lvgl/src/misc/lv_rb.c **** 
 1336              		.loc 1 259 5 view .LVU496
 259:../../Middlewares/LVGL/GUI/lvgl/src/misc/lv_rb.c **** 
 1337              		.loc 1 259 5 view .LVU497
 259:../../Middlewares/LVGL/GUI/lvgl/src/misc/lv_rb.c **** 
 1338              		.loc 1 259 5 view .LVU498
 1339 0012 FEE7     		b	.L102
 1340              	.LVL119:
 1341              	.L114:
 1342              	.LCFI15:
 1343              		.cfi_def_cfa_offset 16
 1344              		.cfi_offset 4, -16
 1345              		.cfi_offset 5, -12
 1346              		.cfi_offset 6, -8
 1347              		.cfi_offset 14, -4
 272:../../Middlewares/LVGL/GUI/lvgl/src/misc/lv_rb.c ****             node = node->right;
 1348              		.loc 1 272 14 view .LVU499
 272:../../Middlewares/LVGL/GUI/lvgl/src/misc/lv_rb.c ****             node = node->right;
 1349              		.loc 1 272 21 is_stmt 0 view .LVU500
 1350 0014 A368     		ldr	r3, [r4, #8]
 272:../../Middlewares/LVGL/GUI/lvgl/src/misc/lv_rb.c ****             node = node->right;
 1351              		.loc 1 272 16 view .LVU501
 1352 0016 0BB1     		cbz	r3, .L115
 273:../../Middlewares/LVGL/GUI/lvgl/src/misc/lv_rb.c ****         }
 1353              		.loc 1 273 18 view .LVU502
ARM GAS  C:\Users\28576\AppData\Local\Temp\ccFkI9MQ.s 			page 41


 1354 0018 1C46     		mov	r4, r3
 1355              	.LVL120:
 273:../../Middlewares/LVGL/GUI/lvgl/src/misc/lv_rb.c ****         }
 1356              		.loc 1 273 18 view .LVU503
 1357 001a F5E7     		b	.L104
 1358              	.LVL121:
 1359              	.L115:
 276:../../Middlewares/LVGL/GUI/lvgl/src/misc/lv_rb.c ****             if(parent != NULL) {
 1360              		.loc 1 276 13 is_stmt 1 view .LVU504
 276:../../Middlewares/LVGL/GUI/lvgl/src/misc/lv_rb.c ****             if(parent != NULL) {
 1361              		.loc 1 276 20 is_stmt 0 view .LVU505
 1362 001c 2368     		ldr	r3, [r4]
 1363 001e 1E46     		mov	r6, r3
 1364              	.LVL122:
 277:../../Middlewares/LVGL/GUI/lvgl/src/misc/lv_rb.c ****                 if(parent->left == node) {
 1365              		.loc 1 277 13 is_stmt 1 view .LVU506
 277:../../Middlewares/LVGL/GUI/lvgl/src/misc/lv_rb.c ****                 if(parent->left == node) {
 1366              		.loc 1 277 15 is_stmt 0 view .LVU507
 1367 0020 23B1     		cbz	r3, .L106
 278:../../Middlewares/LVGL/GUI/lvgl/src/misc/lv_rb.c ****                     parent->left = NULL;
 1368              		.loc 1 278 17 is_stmt 1 view .LVU508
 278:../../Middlewares/LVGL/GUI/lvgl/src/misc/lv_rb.c ****                     parent->left = NULL;
 1369              		.loc 1 278 26 is_stmt 0 view .LVU509
 1370 0022 5B68     		ldr	r3, [r3, #4]
 1371              	.LVL123:
 278:../../Middlewares/LVGL/GUI/lvgl/src/misc/lv_rb.c ****                     parent->left = NULL;
 1372              		.loc 1 278 19 view .LVU510
 1373 0024 A342     		cmp	r3, r4
 1374 0026 09D0     		beq	.L116
 282:../../Middlewares/LVGL/GUI/lvgl/src/misc/lv_rb.c ****                 }
 1375              		.loc 1 282 21 is_stmt 1 view .LVU511
 282:../../Middlewares/LVGL/GUI/lvgl/src/misc/lv_rb.c ****                 }
 1376              		.loc 1 282 35 is_stmt 0 view .LVU512
 1377 0028 0023     		movs	r3, #0
 1378 002a B360     		str	r3, [r6, #8]
 1379              	.L106:
 285:../../Middlewares/LVGL/GUI/lvgl/src/misc/lv_rb.c ****             lv_free(node);
 1380              		.loc 1 285 13 is_stmt 1 view .LVU513
 1381 002c 2069     		ldr	r0, [r4, #16]
 1382 002e FFF7FEFF 		bl	lv_free
 1383              	.LVL124:
 286:../../Middlewares/LVGL/GUI/lvgl/src/misc/lv_rb.c ****             node = parent;
 1384              		.loc 1 286 13 view .LVU514
 1385 0032 2046     		mov	r0, r4
 1386 0034 FFF7FEFF 		bl	lv_free
 1387              	.LVL125:
 287:../../Middlewares/LVGL/GUI/lvgl/src/misc/lv_rb.c ****         }
 1388              		.loc 1 287 13 view .LVU515
 287:../../Middlewares/LVGL/GUI/lvgl/src/misc/lv_rb.c ****         }
 1389              		.loc 1 287 18 is_stmt 0 view .LVU516
 1390 0038 3446     		mov	r4, r6
 1391 003a E5E7     		b	.L104
 1392              	.LVL126:
 1393              	.L116:
 279:../../Middlewares/LVGL/GUI/lvgl/src/misc/lv_rb.c ****                 }
 1394              		.loc 1 279 21 is_stmt 1 view .LVU517
 279:../../Middlewares/LVGL/GUI/lvgl/src/misc/lv_rb.c ****                 }
ARM GAS  C:\Users\28576\AppData\Local\Temp\ccFkI9MQ.s 			page 42


 1395              		.loc 1 279 34 is_stmt 0 view .LVU518
 1396 003c 0023     		movs	r3, #0
 1397 003e 7360     		str	r3, [r6, #4]
 1398 0040 F4E7     		b	.L106
 1399              	.LVL127:
 1400              	.L113:
 290:../../Middlewares/LVGL/GUI/lvgl/src/misc/lv_rb.c **** }
 1401              		.loc 1 290 5 is_stmt 1 view .LVU519
 290:../../Middlewares/LVGL/GUI/lvgl/src/misc/lv_rb.c **** }
 1402              		.loc 1 290 16 is_stmt 0 view .LVU520
 1403 0042 2C60     		str	r4, [r5]
 291:../../Middlewares/LVGL/GUI/lvgl/src/misc/lv_rb.c **** 
 1404              		.loc 1 291 1 view .LVU521
 1405 0044 70BD     		pop	{r4, r5, r6, pc}
 291:../../Middlewares/LVGL/GUI/lvgl/src/misc/lv_rb.c **** 
 1406              		.loc 1 291 1 view .LVU522
 1407              		.cfi_endproc
 1408              	.LFE9:
 1410              		.section	.text.lv_rb_minimum_from,"ax",%progbits
 1411              		.align	1
 1412              		.global	lv_rb_minimum_from
 1413              		.syntax unified
 1414              		.thumb
 1415              		.thumb_func
 1417              	lv_rb_minimum_from:
 1418              	.LVL128:
 1419              	.LFB12:
 312:../../Middlewares/LVGL/GUI/lvgl/src/misc/lv_rb.c ****     while(node->left != NULL) {
 1420              		.loc 1 312 1 is_stmt 1 view -0
 1421              		.cfi_startproc
 1422              		@ args = 0, pretend = 0, frame = 0
 1423              		@ frame_needed = 0, uses_anonymous_args = 0
 1424              		@ link register save eliminated.
 312:../../Middlewares/LVGL/GUI/lvgl/src/misc/lv_rb.c ****     while(node->left != NULL) {
 1425              		.loc 1 312 1 is_stmt 0 view .LVU524
 1426 0000 0346     		mov	r3, r0
 313:../../Middlewares/LVGL/GUI/lvgl/src/misc/lv_rb.c ****         node = node->left;
 1427              		.loc 1 313 5 is_stmt 1 view .LVU525
 1428              	.L118:
 1429              	.LVL129:
 313:../../Middlewares/LVGL/GUI/lvgl/src/misc/lv_rb.c ****         node = node->left;
 1430              		.loc 1 313 22 view .LVU526
 1431 0002 1846     		mov	r0, r3
 313:../../Middlewares/LVGL/GUI/lvgl/src/misc/lv_rb.c ****         node = node->left;
 1432              		.loc 1 313 15 is_stmt 0 view .LVU527
 1433 0004 5B68     		ldr	r3, [r3, #4]
 1434              	.LVL130:
 313:../../Middlewares/LVGL/GUI/lvgl/src/misc/lv_rb.c ****         node = node->left;
 1435              		.loc 1 313 22 view .LVU528
 1436 0006 002B     		cmp	r3, #0
 1437 0008 FBD1     		bne	.L118
 317:../../Middlewares/LVGL/GUI/lvgl/src/misc/lv_rb.c **** }
 1438              		.loc 1 317 5 is_stmt 1 view .LVU529
 318:../../Middlewares/LVGL/GUI/lvgl/src/misc/lv_rb.c **** 
 1439              		.loc 1 318 1 is_stmt 0 view .LVU530
 1440 000a 7047     		bx	lr
 1441              		.cfi_endproc
ARM GAS  C:\Users\28576\AppData\Local\Temp\ccFkI9MQ.s 			page 43


 1442              	.LFE12:
 1444              		.section	.text.lv_rb_remove_node,"ax",%progbits
 1445              		.align	1
 1446              		.global	lv_rb_remove_node
 1447              		.syntax unified
 1448              		.thumb
 1449              		.thumb_func
 1451              	lv_rb_remove_node:
 1452              	.LVL131:
 1453              	.LFB5:
 130:../../Middlewares/LVGL/GUI/lvgl/src/misc/lv_rb.c ****     lv_rb_node_t * child = NULL;
 1454              		.loc 1 130 1 is_stmt 1 view -0
 1455              		.cfi_startproc
 1456              		@ args = 0, pretend = 0, frame = 0
 1457              		@ frame_needed = 0, uses_anonymous_args = 0
 130:../../Middlewares/LVGL/GUI/lvgl/src/misc/lv_rb.c ****     lv_rb_node_t * child = NULL;
 1458              		.loc 1 130 1 is_stmt 0 view .LVU532
 1459 0000 38B5     		push	{r3, r4, r5, lr}
 1460              	.LCFI16:
 1461              		.cfi_def_cfa_offset 16
 1462              		.cfi_offset 3, -16
 1463              		.cfi_offset 4, -12
 1464              		.cfi_offset 5, -8
 1465              		.cfi_offset 14, -4
 1466 0002 0546     		mov	r5, r0
 1467 0004 0C46     		mov	r4, r1
 131:../../Middlewares/LVGL/GUI/lvgl/src/misc/lv_rb.c ****     lv_rb_node_t * parent = NULL;
 1468              		.loc 1 131 5 is_stmt 1 view .LVU533
 1469              	.LVL132:
 132:../../Middlewares/LVGL/GUI/lvgl/src/misc/lv_rb.c ****     lv_rb_color_t color = LV_RB_COLOR_BLACK;
 1470              		.loc 1 132 5 view .LVU534
 133:../../Middlewares/LVGL/GUI/lvgl/src/misc/lv_rb.c **** 
 1471              		.loc 1 133 5 view .LVU535
 135:../../Middlewares/LVGL/GUI/lvgl/src/misc/lv_rb.c ****         lv_rb_node_t * replace = node;
 1472              		.loc 1 135 5 view .LVU536
 135:../../Middlewares/LVGL/GUI/lvgl/src/misc/lv_rb.c ****         lv_rb_node_t * replace = node;
 1473              		.loc 1 135 12 is_stmt 0 view .LVU537
 1474 0006 4B68     		ldr	r3, [r1, #4]
 135:../../Middlewares/LVGL/GUI/lvgl/src/misc/lv_rb.c ****         lv_rb_node_t * replace = node;
 1475              		.loc 1 135 7 view .LVU538
 1476 0008 0BB1     		cbz	r3, .L120
 135:../../Middlewares/LVGL/GUI/lvgl/src/misc/lv_rb.c ****         lv_rb_node_t * replace = node;
 1477              		.loc 1 135 34 discriminator 1 view .LVU539
 1478 000a 8868     		ldr	r0, [r1, #8]
 1479              	.LVL133:
 135:../../Middlewares/LVGL/GUI/lvgl/src/misc/lv_rb.c ****         lv_rb_node_t * replace = node;
 1480              		.loc 1 135 27 discriminator 1 view .LVU540
 1481 000c A8B9     		cbnz	r0, .L137
 1482              	.L120:
 181:../../Middlewares/LVGL/GUI/lvgl/src/misc/lv_rb.c ****     parent = node->parent;
 1483              		.loc 1 181 5 is_stmt 1 view .LVU541
 181:../../Middlewares/LVGL/GUI/lvgl/src/misc/lv_rb.c ****     parent = node->parent;
 1484              		.loc 1 181 17 is_stmt 0 view .LVU542
 1485 000e A168     		ldr	r1, [r4, #8]
 1486              	.LVL134:
 181:../../Middlewares/LVGL/GUI/lvgl/src/misc/lv_rb.c ****     parent = node->parent;
 1487              		.loc 1 181 11 view .LVU543
ARM GAS  C:\Users\28576\AppData\Local\Temp\ccFkI9MQ.s 			page 44


 1488 0010 0029     		cmp	r1, #0
 1489 0012 41D0     		beq	.L138
 1490              	.L128:
 1491              	.LVL135:
 182:../../Middlewares/LVGL/GUI/lvgl/src/misc/lv_rb.c ****     color = node->color;
 1492              		.loc 1 182 5 is_stmt 1 view .LVU544
 182:../../Middlewares/LVGL/GUI/lvgl/src/misc/lv_rb.c ****     color = node->color;
 1493              		.loc 1 182 12 is_stmt 0 view .LVU545
 1494 0014 2268     		ldr	r2, [r4]
 1495              	.LVL136:
 183:../../Middlewares/LVGL/GUI/lvgl/src/misc/lv_rb.c **** 
 1496              		.loc 1 183 5 is_stmt 1 view .LVU546
 183:../../Middlewares/LVGL/GUI/lvgl/src/misc/lv_rb.c **** 
 1497              		.loc 1 183 11 is_stmt 0 view .LVU547
 1498 0016 237B     		ldrb	r3, [r4, #12]	@ zero_extendqisi2
 1499              	.LVL137:
 185:../../Middlewares/LVGL/GUI/lvgl/src/misc/lv_rb.c ****         child->parent = parent;
 1500              		.loc 1 185 5 is_stmt 1 view .LVU548
 185:../../Middlewares/LVGL/GUI/lvgl/src/misc/lv_rb.c ****         child->parent = parent;
 1501              		.loc 1 185 7 is_stmt 0 view .LVU549
 1502 0018 01B1     		cbz	r1, .L129
 186:../../Middlewares/LVGL/GUI/lvgl/src/misc/lv_rb.c ****     }
 1503              		.loc 1 186 9 is_stmt 1 view .LVU550
 186:../../Middlewares/LVGL/GUI/lvgl/src/misc/lv_rb.c ****     }
 1504              		.loc 1 186 23 is_stmt 0 view .LVU551
 1505 001a 0A60     		str	r2, [r1]
 1506              	.L129:
 189:../../Middlewares/LVGL/GUI/lvgl/src/misc/lv_rb.c ****         if(parent->left == node) {
 1507              		.loc 1 189 5 is_stmt 1 view .LVU552
 189:../../Middlewares/LVGL/GUI/lvgl/src/misc/lv_rb.c ****         if(parent->left == node) {
 1508              		.loc 1 189 7 is_stmt 0 view .LVU553
 1509 001c 002A     		cmp	r2, #0
 1510 001e 3FD0     		beq	.L130
 190:../../Middlewares/LVGL/GUI/lvgl/src/misc/lv_rb.c ****             parent->left = child;
 1511              		.loc 1 190 9 is_stmt 1 view .LVU554
 190:../../Middlewares/LVGL/GUI/lvgl/src/misc/lv_rb.c ****             parent->left = child;
 1512              		.loc 1 190 18 is_stmt 0 view .LVU555
 1513 0020 5068     		ldr	r0, [r2, #4]
 190:../../Middlewares/LVGL/GUI/lvgl/src/misc/lv_rb.c ****             parent->left = child;
 1514              		.loc 1 190 11 view .LVU556
 1515 0022 A042     		cmp	r0, r4
 1516 0024 3AD0     		beq	.L139
 194:../../Middlewares/LVGL/GUI/lvgl/src/misc/lv_rb.c ****         }
 1517              		.loc 1 194 13 is_stmt 1 view .LVU557
 194:../../Middlewares/LVGL/GUI/lvgl/src/misc/lv_rb.c ****         }
 1518              		.loc 1 194 27 is_stmt 0 view .LVU558
 1519 0026 9160     		str	r1, [r2, #8]
 1520              	.L132:
 201:../../Middlewares/LVGL/GUI/lvgl/src/misc/lv_rb.c ****         rb_delete_color(tree, child, parent);
 1521              		.loc 1 201 5 is_stmt 1 view .LVU559
 201:../../Middlewares/LVGL/GUI/lvgl/src/misc/lv_rb.c ****         rb_delete_color(tree, child, parent);
 1522              		.loc 1 201 7 is_stmt 0 view .LVU560
 1523 0028 012B     		cmp	r3, #1
 1524 002a 3BD0     		beq	.L140
 1525              	.LVL138:
 1526              	.L133:
 205:../../Middlewares/LVGL/GUI/lvgl/src/misc/lv_rb.c ****     lv_free(node);
ARM GAS  C:\Users\28576\AppData\Local\Temp\ccFkI9MQ.s 			page 45


 1527              		.loc 1 205 5 is_stmt 1 view .LVU561
 205:../../Middlewares/LVGL/GUI/lvgl/src/misc/lv_rb.c ****     lv_free(node);
 1528              		.loc 1 205 12 is_stmt 0 view .LVU562
 1529 002c 2369     		ldr	r3, [r4, #16]
 1530 002e 1D46     		mov	r5, r3
 1531              	.LVL139:
 206:../../Middlewares/LVGL/GUI/lvgl/src/misc/lv_rb.c ****     return data;
 1532              		.loc 1 206 5 is_stmt 1 view .LVU563
 1533 0030 2046     		mov	r0, r4
 1534 0032 FFF7FEFF 		bl	lv_free
 1535              	.LVL140:
 207:../../Middlewares/LVGL/GUI/lvgl/src/misc/lv_rb.c **** }
 1536              		.loc 1 207 5 view .LVU564
 1537              	.L119:
 208:../../Middlewares/LVGL/GUI/lvgl/src/misc/lv_rb.c **** 
 1538              		.loc 1 208 1 is_stmt 0 view .LVU565
 1539 0036 2846     		mov	r0, r5
 1540 0038 38BD     		pop	{r3, r4, r5, pc}
 1541              	.LVL141:
 1542              	.L137:
 1543              	.LBB18:
 136:../../Middlewares/LVGL/GUI/lvgl/src/misc/lv_rb.c ****         replace = lv_rb_minimum_from(replace->right);
 1544              		.loc 1 136 9 is_stmt 1 view .LVU566
 137:../../Middlewares/LVGL/GUI/lvgl/src/misc/lv_rb.c **** 
 1545              		.loc 1 137 9 view .LVU567
 137:../../Middlewares/LVGL/GUI/lvgl/src/misc/lv_rb.c **** 
 1546              		.loc 1 137 19 is_stmt 0 view .LVU568
 1547 003a FFF7FEFF 		bl	lv_rb_minimum_from
 1548              	.LVL142:
 137:../../Middlewares/LVGL/GUI/lvgl/src/misc/lv_rb.c **** 
 1549              		.loc 1 137 19 view .LVU569
 1550 003e 0346     		mov	r3, r0
 1551              	.LVL143:
 139:../../Middlewares/LVGL/GUI/lvgl/src/misc/lv_rb.c ****             if(node->parent->left == node) {
 1552              		.loc 1 139 9 is_stmt 1 view .LVU570
 139:../../Middlewares/LVGL/GUI/lvgl/src/misc/lv_rb.c ****             if(node->parent->left == node) {
 1553              		.loc 1 139 16 is_stmt 0 view .LVU571
 1554 0040 2268     		ldr	r2, [r4]
 139:../../Middlewares/LVGL/GUI/lvgl/src/misc/lv_rb.c ****             if(node->parent->left == node) {
 1555              		.loc 1 139 11 view .LVU572
 1556 0042 0AB3     		cbz	r2, .L121
 140:../../Middlewares/LVGL/GUI/lvgl/src/misc/lv_rb.c ****                 node->parent->left = replace;
 1557              		.loc 1 140 13 is_stmt 1 view .LVU573
 140:../../Middlewares/LVGL/GUI/lvgl/src/misc/lv_rb.c ****                 node->parent->left = replace;
 1558              		.loc 1 140 28 is_stmt 0 view .LVU574
 1559 0044 5168     		ldr	r1, [r2, #4]
 140:../../Middlewares/LVGL/GUI/lvgl/src/misc/lv_rb.c ****                 node->parent->left = replace;
 1560              		.loc 1 140 15 view .LVU575
 1561 0046 A142     		cmp	r1, r4
 1562 0048 1CD0     		beq	.L141
 144:../../Middlewares/LVGL/GUI/lvgl/src/misc/lv_rb.c ****             }
 1563              		.loc 1 144 17 is_stmt 1 view .LVU576
 144:../../Middlewares/LVGL/GUI/lvgl/src/misc/lv_rb.c ****             }
 1564              		.loc 1 144 37 is_stmt 0 view .LVU577
 1565 004a 9060     		str	r0, [r2, #8]
 1566              	.L123:
 151:../../Middlewares/LVGL/GUI/lvgl/src/misc/lv_rb.c ****         parent = replace->parent;
ARM GAS  C:\Users\28576\AppData\Local\Temp\ccFkI9MQ.s 			page 46


 1567              		.loc 1 151 9 is_stmt 1 view .LVU578
 151:../../Middlewares/LVGL/GUI/lvgl/src/misc/lv_rb.c ****         parent = replace->parent;
 1568              		.loc 1 151 15 is_stmt 0 view .LVU579
 1569 004c 9968     		ldr	r1, [r3, #8]
 1570              	.LVL144:
 152:../../Middlewares/LVGL/GUI/lvgl/src/misc/lv_rb.c ****         color = replace->color;
 1571              		.loc 1 152 9 is_stmt 1 view .LVU580
 152:../../Middlewares/LVGL/GUI/lvgl/src/misc/lv_rb.c ****         color = replace->color;
 1572              		.loc 1 152 16 is_stmt 0 view .LVU581
 1573 004e 1A68     		ldr	r2, [r3]
 1574              	.LVL145:
 153:../../Middlewares/LVGL/GUI/lvgl/src/misc/lv_rb.c **** 
 1575              		.loc 1 153 9 is_stmt 1 view .LVU582
 153:../../Middlewares/LVGL/GUI/lvgl/src/misc/lv_rb.c **** 
 1576              		.loc 1 153 15 is_stmt 0 view .LVU583
 1577 0050 93F80CC0 		ldrb	ip, [r3, #12]	@ zero_extendqisi2
 1578              	.LVL146:
 155:../../Middlewares/LVGL/GUI/lvgl/src/misc/lv_rb.c ****             parent = replace;
 1579              		.loc 1 155 9 is_stmt 1 view .LVU584
 155:../../Middlewares/LVGL/GUI/lvgl/src/misc/lv_rb.c ****             parent = replace;
 1580              		.loc 1 155 11 is_stmt 0 view .LVU585
 1581 0054 9442     		cmp	r4, r2
 1582 0056 19D0     		beq	.L134
 159:../../Middlewares/LVGL/GUI/lvgl/src/misc/lv_rb.c ****                 child->parent = parent;
 1583              		.loc 1 159 13 is_stmt 1 view .LVU586
 159:../../Middlewares/LVGL/GUI/lvgl/src/misc/lv_rb.c ****                 child->parent = parent;
 1584              		.loc 1 159 15 is_stmt 0 view .LVU587
 1585 0058 01B1     		cbz	r1, .L125
 160:../../Middlewares/LVGL/GUI/lvgl/src/misc/lv_rb.c ****             }
 1586              		.loc 1 160 17 is_stmt 1 view .LVU588
 160:../../Middlewares/LVGL/GUI/lvgl/src/misc/lv_rb.c ****             }
 1587              		.loc 1 160 31 is_stmt 0 view .LVU589
 1588 005a 0A60     		str	r2, [r1]
 1589              	.L125:
 162:../../Middlewares/LVGL/GUI/lvgl/src/misc/lv_rb.c ****             replace->right = node->right;
 1590              		.loc 1 162 13 is_stmt 1 view .LVU590
 162:../../Middlewares/LVGL/GUI/lvgl/src/misc/lv_rb.c ****             replace->right = node->right;
 1591              		.loc 1 162 26 is_stmt 0 view .LVU591
 1592 005c 5160     		str	r1, [r2, #4]
 163:../../Middlewares/LVGL/GUI/lvgl/src/misc/lv_rb.c ****             node->right->parent = replace;
 1593              		.loc 1 163 13 is_stmt 1 view .LVU592
 163:../../Middlewares/LVGL/GUI/lvgl/src/misc/lv_rb.c ****             node->right->parent = replace;
 1594              		.loc 1 163 34 is_stmt 0 view .LVU593
 1595 005e A068     		ldr	r0, [r4, #8]
 1596              	.LVL147:
 163:../../Middlewares/LVGL/GUI/lvgl/src/misc/lv_rb.c ****             node->right->parent = replace;
 1597              		.loc 1 163 28 view .LVU594
 1598 0060 9860     		str	r0, [r3, #8]
 164:../../Middlewares/LVGL/GUI/lvgl/src/misc/lv_rb.c ****         }
 1599              		.loc 1 164 13 is_stmt 1 view .LVU595
 164:../../Middlewares/LVGL/GUI/lvgl/src/misc/lv_rb.c ****         }
 1600              		.loc 1 164 33 is_stmt 0 view .LVU596
 1601 0062 0360     		str	r3, [r0]
 1602              	.LVL148:
 1603              	.L124:
 167:../../Middlewares/LVGL/GUI/lvgl/src/misc/lv_rb.c ****         replace->color = node->color;
 1604              		.loc 1 167 9 is_stmt 1 view .LVU597
ARM GAS  C:\Users\28576\AppData\Local\Temp\ccFkI9MQ.s 			page 47


 167:../../Middlewares/LVGL/GUI/lvgl/src/misc/lv_rb.c ****         replace->color = node->color;
 1605              		.loc 1 167 31 is_stmt 0 view .LVU598
 1606 0064 2068     		ldr	r0, [r4]
 167:../../Middlewares/LVGL/GUI/lvgl/src/misc/lv_rb.c ****         replace->color = node->color;
 1607              		.loc 1 167 25 view .LVU599
 1608 0066 1860     		str	r0, [r3]
 168:../../Middlewares/LVGL/GUI/lvgl/src/misc/lv_rb.c ****         replace->left = node->left;
 1609              		.loc 1 168 9 is_stmt 1 view .LVU600
 168:../../Middlewares/LVGL/GUI/lvgl/src/misc/lv_rb.c ****         replace->left = node->left;
 1610              		.loc 1 168 30 is_stmt 0 view .LVU601
 1611 0068 207B     		ldrb	r0, [r4, #12]	@ zero_extendqisi2
 168:../../Middlewares/LVGL/GUI/lvgl/src/misc/lv_rb.c ****         replace->left = node->left;
 1612              		.loc 1 168 24 view .LVU602
 1613 006a 1873     		strb	r0, [r3, #12]
 169:../../Middlewares/LVGL/GUI/lvgl/src/misc/lv_rb.c ****         node->left->parent = replace;
 1614              		.loc 1 169 9 is_stmt 1 view .LVU603
 169:../../Middlewares/LVGL/GUI/lvgl/src/misc/lv_rb.c ****         node->left->parent = replace;
 1615              		.loc 1 169 29 is_stmt 0 view .LVU604
 1616 006c 6068     		ldr	r0, [r4, #4]
 169:../../Middlewares/LVGL/GUI/lvgl/src/misc/lv_rb.c ****         node->left->parent = replace;
 1617              		.loc 1 169 23 view .LVU605
 1618 006e 5860     		str	r0, [r3, #4]
 170:../../Middlewares/LVGL/GUI/lvgl/src/misc/lv_rb.c **** 
 1619              		.loc 1 170 9 is_stmt 1 view .LVU606
 170:../../Middlewares/LVGL/GUI/lvgl/src/misc/lv_rb.c **** 
 1620              		.loc 1 170 28 is_stmt 0 view .LVU607
 1621 0070 0360     		str	r3, [r0]
 172:../../Middlewares/LVGL/GUI/lvgl/src/misc/lv_rb.c ****             rb_delete_color(tree, child, parent);
 1622              		.loc 1 172 9 is_stmt 1 view .LVU608
 172:../../Middlewares/LVGL/GUI/lvgl/src/misc/lv_rb.c ****             rb_delete_color(tree, child, parent);
 1623              		.loc 1 172 11 is_stmt 0 view .LVU609
 1624 0072 BCF1010F 		cmp	ip, #1
 1625 0076 0BD0     		beq	.L142
 1626              	.LVL149:
 1627              	.L126:
 176:../../Middlewares/LVGL/GUI/lvgl/src/misc/lv_rb.c ****         lv_free(node);
 1628              		.loc 1 176 9 is_stmt 1 view .LVU610
 176:../../Middlewares/LVGL/GUI/lvgl/src/misc/lv_rb.c ****         lv_free(node);
 1629              		.loc 1 176 16 is_stmt 0 view .LVU611
 1630 0078 2369     		ldr	r3, [r4, #16]
 1631 007a 1D46     		mov	r5, r3
 1632              	.LVL150:
 177:../../Middlewares/LVGL/GUI/lvgl/src/misc/lv_rb.c ****         return data;
 1633              		.loc 1 177 9 is_stmt 1 view .LVU612
 1634 007c 2046     		mov	r0, r4
 1635 007e FFF7FEFF 		bl	lv_free
 1636              	.LVL151:
 178:../../Middlewares/LVGL/GUI/lvgl/src/misc/lv_rb.c ****     }
 1637              		.loc 1 178 9 view .LVU613
 178:../../Middlewares/LVGL/GUI/lvgl/src/misc/lv_rb.c ****     }
 1638              		.loc 1 178 16 is_stmt 0 view .LVU614
 1639 0082 D8E7     		b	.L119
 1640              	.LVL152:
 1641              	.L141:
 141:../../Middlewares/LVGL/GUI/lvgl/src/misc/lv_rb.c ****             }
 1642              		.loc 1 141 17 is_stmt 1 view .LVU615
 141:../../Middlewares/LVGL/GUI/lvgl/src/misc/lv_rb.c ****             }
ARM GAS  C:\Users\28576\AppData\Local\Temp\ccFkI9MQ.s 			page 48


 1643              		.loc 1 141 36 is_stmt 0 view .LVU616
 1644 0084 5060     		str	r0, [r2, #4]
 1645 0086 E1E7     		b	.L123
 1646              	.L121:
 148:../../Middlewares/LVGL/GUI/lvgl/src/misc/lv_rb.c ****         }
 1647              		.loc 1 148 13 is_stmt 1 view .LVU617
 148:../../Middlewares/LVGL/GUI/lvgl/src/misc/lv_rb.c ****         }
 1648              		.loc 1 148 24 is_stmt 0 view .LVU618
 1649 0088 2860     		str	r0, [r5]
 1650 008a DFE7     		b	.L123
 1651              	.LVL153:
 1652              	.L134:
 156:../../Middlewares/LVGL/GUI/lvgl/src/misc/lv_rb.c ****         }
 1653              		.loc 1 156 20 view .LVU619
 1654 008c 1A46     		mov	r2, r3
 1655              	.LVL154:
 156:../../Middlewares/LVGL/GUI/lvgl/src/misc/lv_rb.c ****         }
 1656              		.loc 1 156 20 view .LVU620
 1657 008e E9E7     		b	.L124
 1658              	.LVL155:
 1659              	.L142:
 173:../../Middlewares/LVGL/GUI/lvgl/src/misc/lv_rb.c ****         }
 1660              		.loc 1 173 13 is_stmt 1 view .LVU621
 1661 0090 2846     		mov	r0, r5
 1662 0092 FFF7FEFF 		bl	rb_delete_color
 1663              	.LVL156:
 173:../../Middlewares/LVGL/GUI/lvgl/src/misc/lv_rb.c ****         }
 1664              		.loc 1 173 13 is_stmt 0 view .LVU622
 1665 0096 EFE7     		b	.L126
 1666              	.LVL157:
 1667              	.L138:
 173:../../Middlewares/LVGL/GUI/lvgl/src/misc/lv_rb.c ****         }
 1668              		.loc 1 173 13 view .LVU623
 1669              	.LBE18:
 181:../../Middlewares/LVGL/GUI/lvgl/src/misc/lv_rb.c ****     parent = node->parent;
 1670              		.loc 1 181 11 discriminator 2 view .LVU624
 1671 0098 1946     		mov	r1, r3
 1672 009a BBE7     		b	.L128
 1673              	.LVL158:
 1674              	.L139:
 191:../../Middlewares/LVGL/GUI/lvgl/src/misc/lv_rb.c ****         }
 1675              		.loc 1 191 13 is_stmt 1 view .LVU625
 191:../../Middlewares/LVGL/GUI/lvgl/src/misc/lv_rb.c ****         }
 1676              		.loc 1 191 26 is_stmt 0 view .LVU626
 1677 009c 5160     		str	r1, [r2, #4]
 1678 009e C3E7     		b	.L132
 1679              	.L130:
 198:../../Middlewares/LVGL/GUI/lvgl/src/misc/lv_rb.c ****     }
 1680              		.loc 1 198 9 is_stmt 1 view .LVU627
 198:../../Middlewares/LVGL/GUI/lvgl/src/misc/lv_rb.c ****     }
 1681              		.loc 1 198 20 is_stmt 0 view .LVU628
 1682 00a0 2960     		str	r1, [r5]
 1683 00a2 C1E7     		b	.L132
 1684              	.L140:
 202:../../Middlewares/LVGL/GUI/lvgl/src/misc/lv_rb.c ****     }
 1685              		.loc 1 202 9 is_stmt 1 view .LVU629
 1686 00a4 2846     		mov	r0, r5
ARM GAS  C:\Users\28576\AppData\Local\Temp\ccFkI9MQ.s 			page 49


 1687 00a6 FFF7FEFF 		bl	rb_delete_color
 1688              	.LVL159:
 202:../../Middlewares/LVGL/GUI/lvgl/src/misc/lv_rb.c ****     }
 1689              		.loc 1 202 9 is_stmt 0 view .LVU630
 1690 00aa BFE7     		b	.L133
 1691              		.cfi_endproc
 1692              	.LFE5:
 1694              		.section	.text.lv_rb_remove,"ax",%progbits
 1695              		.align	1
 1696              		.global	lv_rb_remove
 1697              		.syntax unified
 1698              		.thumb
 1699              		.thumb_func
 1701              	lv_rb_remove:
 1702              	.LVL160:
 1703              	.LFB6:
 211:../../Middlewares/LVGL/GUI/lvgl/src/misc/lv_rb.c ****     LV_ASSERT_NULL(tree);
 1704              		.loc 1 211 1 is_stmt 1 view -0
 1705              		.cfi_startproc
 1706              		@ args = 0, pretend = 0, frame = 0
 1707              		@ frame_needed = 0, uses_anonymous_args = 0
 212:../../Middlewares/LVGL/GUI/lvgl/src/misc/lv_rb.c ****     if(tree == NULL) {
 1708              		.loc 1 212 5 view .LVU632
 212:../../Middlewares/LVGL/GUI/lvgl/src/misc/lv_rb.c ****     if(tree == NULL) {
 1709              		.loc 1 212 5 view .LVU633
 1710 0000 48B1     		cbz	r0, .L145
 211:../../Middlewares/LVGL/GUI/lvgl/src/misc/lv_rb.c ****     LV_ASSERT_NULL(tree);
 1711              		.loc 1 211 1 is_stmt 0 view .LVU634
 1712 0002 10B5     		push	{r4, lr}
 1713              	.LCFI17:
 1714              		.cfi_def_cfa_offset 8
 1715              		.cfi_offset 4, -8
 1716              		.cfi_offset 14, -4
 1717 0004 0446     		mov	r4, r0
 212:../../Middlewares/LVGL/GUI/lvgl/src/misc/lv_rb.c ****     if(tree == NULL) {
 1718              		.loc 1 212 5 is_stmt 1 view .LVU635
 212:../../Middlewares/LVGL/GUI/lvgl/src/misc/lv_rb.c ****     if(tree == NULL) {
 1719              		.loc 1 212 25 view .LVU636
 213:../../Middlewares/LVGL/GUI/lvgl/src/misc/lv_rb.c ****         return NULL;
 1720              		.loc 1 213 5 view .LVU637
 217:../../Middlewares/LVGL/GUI/lvgl/src/misc/lv_rb.c ****     LV_ASSERT_NULL(node);
 1721              		.loc 1 217 5 view .LVU638
 217:../../Middlewares/LVGL/GUI/lvgl/src/misc/lv_rb.c ****     LV_ASSERT_NULL(node);
 1722              		.loc 1 217 27 is_stmt 0 view .LVU639
 1723 0006 FFF7FEFF 		bl	lv_rb_find
 1724              	.LVL161:
 218:../../Middlewares/LVGL/GUI/lvgl/src/misc/lv_rb.c ****     if(node == NULL) {
 1725              		.loc 1 218 5 is_stmt 1 view .LVU640
 218:../../Middlewares/LVGL/GUI/lvgl/src/misc/lv_rb.c ****     if(node == NULL) {
 1726              		.loc 1 218 5 view .LVU641
 1727 000a 0146     		mov	r1, r0
 1728 000c 20B1     		cbz	r0, .L147
 218:../../Middlewares/LVGL/GUI/lvgl/src/misc/lv_rb.c ****     if(node == NULL) {
 1729              		.loc 1 218 5 view .LVU642
 218:../../Middlewares/LVGL/GUI/lvgl/src/misc/lv_rb.c ****     if(node == NULL) {
 1730              		.loc 1 218 25 view .LVU643
 219:../../Middlewares/LVGL/GUI/lvgl/src/misc/lv_rb.c ****         LV_LOG_WARN("rb delete %d not found", (int)(uintptr_t)key);
ARM GAS  C:\Users\28576\AppData\Local\Temp\ccFkI9MQ.s 			page 50


 1731              		.loc 1 219 5 view .LVU644
 224:../../Middlewares/LVGL/GUI/lvgl/src/misc/lv_rb.c **** }
 1732              		.loc 1 224 5 view .LVU645
 224:../../Middlewares/LVGL/GUI/lvgl/src/misc/lv_rb.c **** }
 1733              		.loc 1 224 12 is_stmt 0 view .LVU646
 1734 000e 2046     		mov	r0, r4
 1735              	.LVL162:
 224:../../Middlewares/LVGL/GUI/lvgl/src/misc/lv_rb.c **** }
 1736              		.loc 1 224 12 view .LVU647
 1737 0010 FFF7FEFF 		bl	lv_rb_remove_node
 1738              	.LVL163:
 225:../../Middlewares/LVGL/GUI/lvgl/src/misc/lv_rb.c **** 
 1739              		.loc 1 225 1 view .LVU648
 1740 0014 10BD     		pop	{r4, pc}
 1741              	.LVL164:
 1742              	.L145:
 1743              	.LCFI18:
 1744              		.cfi_def_cfa_offset 0
 1745              		.cfi_restore 4
 1746              		.cfi_restore 14
 212:../../Middlewares/LVGL/GUI/lvgl/src/misc/lv_rb.c ****     if(tree == NULL) {
 1747              		.loc 1 212 5 is_stmt 1 view .LVU649
 212:../../Middlewares/LVGL/GUI/lvgl/src/misc/lv_rb.c ****     if(tree == NULL) {
 1748              		.loc 1 212 5 view .LVU650
 212:../../Middlewares/LVGL/GUI/lvgl/src/misc/lv_rb.c ****     if(tree == NULL) {
 1749              		.loc 1 212 5 view .LVU651
 212:../../Middlewares/LVGL/GUI/lvgl/src/misc/lv_rb.c ****     if(tree == NULL) {
 1750              		.loc 1 212 5 view .LVU652
 212:../../Middlewares/LVGL/GUI/lvgl/src/misc/lv_rb.c ****     if(tree == NULL) {
 1751              		.loc 1 212 5 view .LVU653
 1752 0016 FEE7     		b	.L145
 1753              	.LVL165:
 1754              	.L147:
 1755              	.LCFI19:
 1756              		.cfi_def_cfa_offset 8
 1757              		.cfi_offset 4, -8
 1758              		.cfi_offset 14, -4
 218:../../Middlewares/LVGL/GUI/lvgl/src/misc/lv_rb.c ****     if(node == NULL) {
 1759              		.loc 1 218 5 view .LVU654
 218:../../Middlewares/LVGL/GUI/lvgl/src/misc/lv_rb.c ****     if(node == NULL) {
 1760              		.loc 1 218 5 view .LVU655
 218:../../Middlewares/LVGL/GUI/lvgl/src/misc/lv_rb.c ****     if(node == NULL) {
 1761              		.loc 1 218 5 view .LVU656
 218:../../Middlewares/LVGL/GUI/lvgl/src/misc/lv_rb.c ****     if(node == NULL) {
 1762              		.loc 1 218 5 view .LVU657
 218:../../Middlewares/LVGL/GUI/lvgl/src/misc/lv_rb.c ****     if(node == NULL) {
 1763              		.loc 1 218 5 view .LVU658
 1764 0018 FEE7     		b	.L147
 1765              		.cfi_endproc
 1766              	.LFE6:
 1768              		.section	.text.lv_rb_drop,"ax",%progbits
 1769              		.align	1
 1770              		.global	lv_rb_drop
 1771              		.syntax unified
 1772              		.thumb
 1773              		.thumb_func
 1775              	lv_rb_drop:
ARM GAS  C:\Users\28576\AppData\Local\Temp\ccFkI9MQ.s 			page 51


 1776              	.LVL166:
 1777              	.LFB8:
 243:../../Middlewares/LVGL/GUI/lvgl/src/misc/lv_rb.c ****     LV_ASSERT_NULL(tree);
 1778              		.loc 1 243 1 view -0
 1779              		.cfi_startproc
 1780              		@ args = 0, pretend = 0, frame = 0
 1781              		@ frame_needed = 0, uses_anonymous_args = 0
 244:../../Middlewares/LVGL/GUI/lvgl/src/misc/lv_rb.c ****     if(tree == NULL) {
 1782              		.loc 1 244 5 view .LVU660
 244:../../Middlewares/LVGL/GUI/lvgl/src/misc/lv_rb.c ****     if(tree == NULL) {
 1783              		.loc 1 244 5 view .LVU661
 1784 0000 20B1     		cbz	r0, .L152
 243:../../Middlewares/LVGL/GUI/lvgl/src/misc/lv_rb.c ****     LV_ASSERT_NULL(tree);
 1785              		.loc 1 243 1 is_stmt 0 view .LVU662
 1786 0002 08B5     		push	{r3, lr}
 1787              	.LCFI20:
 1788              		.cfi_def_cfa_offset 8
 1789              		.cfi_offset 3, -8
 1790              		.cfi_offset 14, -4
 244:../../Middlewares/LVGL/GUI/lvgl/src/misc/lv_rb.c ****     if(tree == NULL) {
 1791              		.loc 1 244 5 is_stmt 1 view .LVU663
 244:../../Middlewares/LVGL/GUI/lvgl/src/misc/lv_rb.c ****     if(tree == NULL) {
 1792              		.loc 1 244 25 view .LVU664
 245:../../Middlewares/LVGL/GUI/lvgl/src/misc/lv_rb.c ****         return false;
 1793              		.loc 1 245 5 view .LVU665
 249:../../Middlewares/LVGL/GUI/lvgl/src/misc/lv_rb.c ****     if(data) {
 1794              		.loc 1 249 5 view .LVU666
 249:../../Middlewares/LVGL/GUI/lvgl/src/misc/lv_rb.c ****     if(data) {
 1795              		.loc 1 249 19 is_stmt 0 view .LVU667
 1796 0004 FFF7FEFF 		bl	lv_rb_remove
 1797              	.LVL167:
 250:../../Middlewares/LVGL/GUI/lvgl/src/misc/lv_rb.c ****         lv_free(data);
 1798              		.loc 1 250 5 is_stmt 1 view .LVU668
 250:../../Middlewares/LVGL/GUI/lvgl/src/misc/lv_rb.c ****         lv_free(data);
 1799              		.loc 1 250 7 is_stmt 0 view .LVU669
 1800 0008 08B9     		cbnz	r0, .L157
 1801              	.LVL168:
 1802              	.L153:
 255:../../Middlewares/LVGL/GUI/lvgl/src/misc/lv_rb.c **** 
 1803              		.loc 1 255 1 view .LVU670
 1804 000a 08BD     		pop	{r3, pc}
 1805              	.LVL169:
 1806              	.L152:
 1807              	.LCFI21:
 1808              		.cfi_def_cfa_offset 0
 1809              		.cfi_restore 3
 1810              		.cfi_restore 14
 244:../../Middlewares/LVGL/GUI/lvgl/src/misc/lv_rb.c ****     if(tree == NULL) {
 1811              		.loc 1 244 5 is_stmt 1 view .LVU671
 244:../../Middlewares/LVGL/GUI/lvgl/src/misc/lv_rb.c ****     if(tree == NULL) {
 1812              		.loc 1 244 5 view .LVU672
 244:../../Middlewares/LVGL/GUI/lvgl/src/misc/lv_rb.c ****     if(tree == NULL) {
 1813              		.loc 1 244 5 view .LVU673
 244:../../Middlewares/LVGL/GUI/lvgl/src/misc/lv_rb.c ****     if(tree == NULL) {
 1814              		.loc 1 244 5 view .LVU674
 244:../../Middlewares/LVGL/GUI/lvgl/src/misc/lv_rb.c ****     if(tree == NULL) {
 1815              		.loc 1 244 5 view .LVU675
ARM GAS  C:\Users\28576\AppData\Local\Temp\ccFkI9MQ.s 			page 52


 1816 000c FEE7     		b	.L152
 1817              	.LVL170:
 1818              	.L157:
 1819              	.LCFI22:
 1820              		.cfi_def_cfa_offset 8
 1821              		.cfi_offset 3, -8
 1822              		.cfi_offset 14, -4
 251:../../Middlewares/LVGL/GUI/lvgl/src/misc/lv_rb.c ****         return true;
 1823              		.loc 1 251 9 view .LVU676
 1824 000e FFF7FEFF 		bl	lv_free
 1825              	.LVL171:
 252:../../Middlewares/LVGL/GUI/lvgl/src/misc/lv_rb.c ****     }
 1826              		.loc 1 252 9 view .LVU677
 252:../../Middlewares/LVGL/GUI/lvgl/src/misc/lv_rb.c ****     }
 1827              		.loc 1 252 16 is_stmt 0 view .LVU678
 1828 0012 0120     		movs	r0, #1
 1829 0014 F9E7     		b	.L153
 1830              		.cfi_endproc
 1831              	.LFE8:
 1833              		.section	.text.lv_rb_drop_node,"ax",%progbits
 1834              		.align	1
 1835              		.global	lv_rb_drop_node
 1836              		.syntax unified
 1837              		.thumb
 1838              		.thumb_func
 1840              	lv_rb_drop_node:
 1841              	.LVL172:
 1842              	.LFB7:
 228:../../Middlewares/LVGL/GUI/lvgl/src/misc/lv_rb.c ****     LV_ASSERT_NULL(tree);
 1843              		.loc 1 228 1 is_stmt 1 view -0
 1844              		.cfi_startproc
 1845              		@ args = 0, pretend = 0, frame = 0
 1846              		@ frame_needed = 0, uses_anonymous_args = 0
 229:../../Middlewares/LVGL/GUI/lvgl/src/misc/lv_rb.c ****     if(tree == NULL) {
 1847              		.loc 1 229 5 view .LVU680
 229:../../Middlewares/LVGL/GUI/lvgl/src/misc/lv_rb.c ****     if(tree == NULL) {
 1848              		.loc 1 229 5 view .LVU681
 1849 0000 20B1     		cbz	r0, .L160
 228:../../Middlewares/LVGL/GUI/lvgl/src/misc/lv_rb.c ****     LV_ASSERT_NULL(tree);
 1850              		.loc 1 228 1 is_stmt 0 view .LVU682
 1851 0002 08B5     		push	{r3, lr}
 1852              	.LCFI23:
 1853              		.cfi_def_cfa_offset 8
 1854              		.cfi_offset 3, -8
 1855              		.cfi_offset 14, -4
 229:../../Middlewares/LVGL/GUI/lvgl/src/misc/lv_rb.c ****     if(tree == NULL) {
 1856              		.loc 1 229 5 is_stmt 1 view .LVU683
 229:../../Middlewares/LVGL/GUI/lvgl/src/misc/lv_rb.c ****     if(tree == NULL) {
 1857              		.loc 1 229 25 view .LVU684
 230:../../Middlewares/LVGL/GUI/lvgl/src/misc/lv_rb.c ****         return false;
 1858              		.loc 1 230 5 view .LVU685
 234:../../Middlewares/LVGL/GUI/lvgl/src/misc/lv_rb.c ****     if(data) {
 1859              		.loc 1 234 5 view .LVU686
 234:../../Middlewares/LVGL/GUI/lvgl/src/misc/lv_rb.c ****     if(data) {
 1860              		.loc 1 234 19 is_stmt 0 view .LVU687
 1861 0004 FFF7FEFF 		bl	lv_rb_remove_node
 1862              	.LVL173:
ARM GAS  C:\Users\28576\AppData\Local\Temp\ccFkI9MQ.s 			page 53


 235:../../Middlewares/LVGL/GUI/lvgl/src/misc/lv_rb.c ****         lv_free(data);
 1863              		.loc 1 235 5 is_stmt 1 view .LVU688
 235:../../Middlewares/LVGL/GUI/lvgl/src/misc/lv_rb.c ****         lv_free(data);
 1864              		.loc 1 235 7 is_stmt 0 view .LVU689
 1865 0008 08B9     		cbnz	r0, .L165
 1866              	.LVL174:
 1867              	.L161:
 240:../../Middlewares/LVGL/GUI/lvgl/src/misc/lv_rb.c **** 
 1868              		.loc 1 240 1 view .LVU690
 1869 000a 08BD     		pop	{r3, pc}
 1870              	.LVL175:
 1871              	.L160:
 1872              	.LCFI24:
 1873              		.cfi_def_cfa_offset 0
 1874              		.cfi_restore 3
 1875              		.cfi_restore 14
 229:../../Middlewares/LVGL/GUI/lvgl/src/misc/lv_rb.c ****     if(tree == NULL) {
 1876              		.loc 1 229 5 is_stmt 1 view .LVU691
 229:../../Middlewares/LVGL/GUI/lvgl/src/misc/lv_rb.c ****     if(tree == NULL) {
 1877              		.loc 1 229 5 view .LVU692
 229:../../Middlewares/LVGL/GUI/lvgl/src/misc/lv_rb.c ****     if(tree == NULL) {
 1878              		.loc 1 229 5 view .LVU693
 229:../../Middlewares/LVGL/GUI/lvgl/src/misc/lv_rb.c ****     if(tree == NULL) {
 1879              		.loc 1 229 5 view .LVU694
 229:../../Middlewares/LVGL/GUI/lvgl/src/misc/lv_rb.c ****     if(tree == NULL) {
 1880              		.loc 1 229 5 view .LVU695
 1881 000c FEE7     		b	.L160
 1882              	.LVL176:
 1883              	.L165:
 1884              	.LCFI25:
 1885              		.cfi_def_cfa_offset 8
 1886              		.cfi_offset 3, -8
 1887              		.cfi_offset 14, -4
 236:../../Middlewares/LVGL/GUI/lvgl/src/misc/lv_rb.c ****         return true;
 1888              		.loc 1 236 9 view .LVU696
 1889 000e FFF7FEFF 		bl	lv_free
 1890              	.LVL177:
 237:../../Middlewares/LVGL/GUI/lvgl/src/misc/lv_rb.c ****     }
 1891              		.loc 1 237 9 view .LVU697
 237:../../Middlewares/LVGL/GUI/lvgl/src/misc/lv_rb.c ****     }
 1892              		.loc 1 237 16 is_stmt 0 view .LVU698
 1893 0012 0120     		movs	r0, #1
 1894 0014 F9E7     		b	.L161
 1895              		.cfi_endproc
 1896              	.LFE7:
 1898              		.section	.text.lv_rb_minimum,"ax",%progbits
 1899              		.align	1
 1900              		.global	lv_rb_minimum
 1901              		.syntax unified
 1902              		.thumb
 1903              		.thumb_func
 1905              	lv_rb_minimum:
 1906              	.LVL178:
 1907              	.LFB10:
 294:../../Middlewares/LVGL/GUI/lvgl/src/misc/lv_rb.c ****     LV_ASSERT_NULL(tree);
 1908              		.loc 1 294 1 is_stmt 1 view -0
 1909              		.cfi_startproc
ARM GAS  C:\Users\28576\AppData\Local\Temp\ccFkI9MQ.s 			page 54


 1910              		@ args = 0, pretend = 0, frame = 0
 1911              		@ frame_needed = 0, uses_anonymous_args = 0
 295:../../Middlewares/LVGL/GUI/lvgl/src/misc/lv_rb.c ****     if(tree == NULL) {
 1912              		.loc 1 295 5 view .LVU700
 295:../../Middlewares/LVGL/GUI/lvgl/src/misc/lv_rb.c ****     if(tree == NULL) {
 1913              		.loc 1 295 5 view .LVU701
 1914 0000 20B1     		cbz	r0, .L168
 294:../../Middlewares/LVGL/GUI/lvgl/src/misc/lv_rb.c ****     LV_ASSERT_NULL(tree);
 1915              		.loc 1 294 1 is_stmt 0 view .LVU702
 1916 0002 08B5     		push	{r3, lr}
 1917              	.LCFI26:
 1918              		.cfi_def_cfa_offset 8
 1919              		.cfi_offset 3, -8
 1920              		.cfi_offset 14, -4
 295:../../Middlewares/LVGL/GUI/lvgl/src/misc/lv_rb.c ****     if(tree == NULL) {
 1921              		.loc 1 295 5 is_stmt 1 view .LVU703
 295:../../Middlewares/LVGL/GUI/lvgl/src/misc/lv_rb.c ****     if(tree == NULL) {
 1922              		.loc 1 295 25 view .LVU704
 296:../../Middlewares/LVGL/GUI/lvgl/src/misc/lv_rb.c ****         return NULL;
 1923              		.loc 1 296 5 view .LVU705
 299:../../Middlewares/LVGL/GUI/lvgl/src/misc/lv_rb.c **** }
 1924              		.loc 1 299 5 view .LVU706
 299:../../Middlewares/LVGL/GUI/lvgl/src/misc/lv_rb.c **** }
 1925              		.loc 1 299 12 is_stmt 0 view .LVU707
 1926 0004 0068     		ldr	r0, [r0]
 1927              	.LVL179:
 299:../../Middlewares/LVGL/GUI/lvgl/src/misc/lv_rb.c **** }
 1928              		.loc 1 299 12 view .LVU708
 1929 0006 FFF7FEFF 		bl	lv_rb_minimum_from
 1930              	.LVL180:
 300:../../Middlewares/LVGL/GUI/lvgl/src/misc/lv_rb.c **** 
 1931              		.loc 1 300 1 view .LVU709
 1932 000a 08BD     		pop	{r3, pc}
 1933              	.LVL181:
 1934              	.L168:
 1935              	.LCFI27:
 1936              		.cfi_def_cfa_offset 0
 1937              		.cfi_restore 3
 1938              		.cfi_restore 14
 295:../../Middlewares/LVGL/GUI/lvgl/src/misc/lv_rb.c ****     if(tree == NULL) {
 1939              		.loc 1 295 5 is_stmt 1 view .LVU710
 295:../../Middlewares/LVGL/GUI/lvgl/src/misc/lv_rb.c ****     if(tree == NULL) {
 1940              		.loc 1 295 5 view .LVU711
 295:../../Middlewares/LVGL/GUI/lvgl/src/misc/lv_rb.c ****     if(tree == NULL) {
 1941              		.loc 1 295 5 view .LVU712
 295:../../Middlewares/LVGL/GUI/lvgl/src/misc/lv_rb.c ****     if(tree == NULL) {
 1942              		.loc 1 295 5 view .LVU713
 295:../../Middlewares/LVGL/GUI/lvgl/src/misc/lv_rb.c ****     if(tree == NULL) {
 1943              		.loc 1 295 5 view .LVU714
 1944 000c FEE7     		b	.L168
 1945              		.cfi_endproc
 1946              	.LFE10:
 1948              		.section	.text.lv_rb_maximum_from,"ax",%progbits
 1949              		.align	1
 1950              		.global	lv_rb_maximum_from
 1951              		.syntax unified
 1952              		.thumb
ARM GAS  C:\Users\28576\AppData\Local\Temp\ccFkI9MQ.s 			page 55


 1953              		.thumb_func
 1955              	lv_rb_maximum_from:
 1956              	.LVL182:
 1957              	.LFB13:
 321:../../Middlewares/LVGL/GUI/lvgl/src/misc/lv_rb.c ****     while(node->right != NULL) {
 1958              		.loc 1 321 1 view -0
 1959              		.cfi_startproc
 1960              		@ args = 0, pretend = 0, frame = 0
 1961              		@ frame_needed = 0, uses_anonymous_args = 0
 1962              		@ link register save eliminated.
 321:../../Middlewares/LVGL/GUI/lvgl/src/misc/lv_rb.c ****     while(node->right != NULL) {
 1963              		.loc 1 321 1 is_stmt 0 view .LVU716
 1964 0000 0346     		mov	r3, r0
 322:../../Middlewares/LVGL/GUI/lvgl/src/misc/lv_rb.c ****         node = node->right;
 1965              		.loc 1 322 5 is_stmt 1 view .LVU717
 1966              	.L172:
 1967              	.LVL183:
 322:../../Middlewares/LVGL/GUI/lvgl/src/misc/lv_rb.c ****         node = node->right;
 1968              		.loc 1 322 23 view .LVU718
 1969 0002 1846     		mov	r0, r3
 322:../../Middlewares/LVGL/GUI/lvgl/src/misc/lv_rb.c ****         node = node->right;
 1970              		.loc 1 322 15 is_stmt 0 view .LVU719
 1971 0004 9B68     		ldr	r3, [r3, #8]
 1972              	.LVL184:
 322:../../Middlewares/LVGL/GUI/lvgl/src/misc/lv_rb.c ****         node = node->right;
 1973              		.loc 1 322 23 view .LVU720
 1974 0006 002B     		cmp	r3, #0
 1975 0008 FBD1     		bne	.L172
 326:../../Middlewares/LVGL/GUI/lvgl/src/misc/lv_rb.c **** }
 1976              		.loc 1 326 5 is_stmt 1 view .LVU721
 327:../../Middlewares/LVGL/GUI/lvgl/src/misc/lv_rb.c **** 
 1977              		.loc 1 327 1 is_stmt 0 view .LVU722
 1978 000a 7047     		bx	lr
 1979              		.cfi_endproc
 1980              	.LFE13:
 1982              		.section	.text.lv_rb_maximum,"ax",%progbits
 1983              		.align	1
 1984              		.global	lv_rb_maximum
 1985              		.syntax unified
 1986              		.thumb
 1987              		.thumb_func
 1989              	lv_rb_maximum:
 1990              	.LVL185:
 1991              	.LFB11:
 303:../../Middlewares/LVGL/GUI/lvgl/src/misc/lv_rb.c ****     LV_ASSERT_NULL(tree);
 1992              		.loc 1 303 1 is_stmt 1 view -0
 1993              		.cfi_startproc
 1994              		@ args = 0, pretend = 0, frame = 0
 1995              		@ frame_needed = 0, uses_anonymous_args = 0
 304:../../Middlewares/LVGL/GUI/lvgl/src/misc/lv_rb.c ****     if(tree == NULL) {
 1996              		.loc 1 304 5 view .LVU724
 304:../../Middlewares/LVGL/GUI/lvgl/src/misc/lv_rb.c ****     if(tree == NULL) {
 1997              		.loc 1 304 5 view .LVU725
 1998 0000 20B1     		cbz	r0, .L175
 303:../../Middlewares/LVGL/GUI/lvgl/src/misc/lv_rb.c ****     LV_ASSERT_NULL(tree);
 1999              		.loc 1 303 1 is_stmt 0 view .LVU726
 2000 0002 08B5     		push	{r3, lr}
ARM GAS  C:\Users\28576\AppData\Local\Temp\ccFkI9MQ.s 			page 56


 2001              	.LCFI28:
 2002              		.cfi_def_cfa_offset 8
 2003              		.cfi_offset 3, -8
 2004              		.cfi_offset 14, -4
 304:../../Middlewares/LVGL/GUI/lvgl/src/misc/lv_rb.c ****     if(tree == NULL) {
 2005              		.loc 1 304 5 is_stmt 1 view .LVU727
 304:../../Middlewares/LVGL/GUI/lvgl/src/misc/lv_rb.c ****     if(tree == NULL) {
 2006              		.loc 1 304 25 view .LVU728
 305:../../Middlewares/LVGL/GUI/lvgl/src/misc/lv_rb.c ****         return NULL;
 2007              		.loc 1 305 5 view .LVU729
 308:../../Middlewares/LVGL/GUI/lvgl/src/misc/lv_rb.c **** }
 2008              		.loc 1 308 5 view .LVU730
 308:../../Middlewares/LVGL/GUI/lvgl/src/misc/lv_rb.c **** }
 2009              		.loc 1 308 12 is_stmt 0 view .LVU731
 2010 0004 0068     		ldr	r0, [r0]
 2011              	.LVL186:
 308:../../Middlewares/LVGL/GUI/lvgl/src/misc/lv_rb.c **** }
 2012              		.loc 1 308 12 view .LVU732
 2013 0006 FFF7FEFF 		bl	lv_rb_maximum_from
 2014              	.LVL187:
 309:../../Middlewares/LVGL/GUI/lvgl/src/misc/lv_rb.c **** 
 2015              		.loc 1 309 1 view .LVU733
 2016 000a 08BD     		pop	{r3, pc}
 2017              	.LVL188:
 2018              	.L175:
 2019              	.LCFI29:
 2020              		.cfi_def_cfa_offset 0
 2021              		.cfi_restore 3
 2022              		.cfi_restore 14
 304:../../Middlewares/LVGL/GUI/lvgl/src/misc/lv_rb.c ****     if(tree == NULL) {
 2023              		.loc 1 304 5 is_stmt 1 view .LVU734
 304:../../Middlewares/LVGL/GUI/lvgl/src/misc/lv_rb.c ****     if(tree == NULL) {
 2024              		.loc 1 304 5 view .LVU735
 304:../../Middlewares/LVGL/GUI/lvgl/src/misc/lv_rb.c ****     if(tree == NULL) {
 2025              		.loc 1 304 5 view .LVU736
 304:../../Middlewares/LVGL/GUI/lvgl/src/misc/lv_rb.c ****     if(tree == NULL) {
 2026              		.loc 1 304 5 view .LVU737
 304:../../Middlewares/LVGL/GUI/lvgl/src/misc/lv_rb.c ****     if(tree == NULL) {
 2027              		.loc 1 304 5 view .LVU738
 2028 000c FEE7     		b	.L175
 2029              		.cfi_endproc
 2030              	.LFE11:
 2032              		.text
 2033              	.Letext0:
 2034              		.file 3 "C:/Users/28576/AppData/Roaming/xPacks/@xpack-dev-tools/arm-none-eabi-gcc/15.2.1-1.1.1/.co
 2035              		.file 4 "C:/Users/28576/AppData/Roaming/xPacks/@xpack-dev-tools/arm-none-eabi-gcc/15.2.1-1.1.1/.co
 2036              		.file 5 "C:/Users/28576/AppData/Roaming/xPacks/@xpack-dev-tools/arm-none-eabi-gcc/15.2.1-1.1.1/.co
 2037              		.file 6 "../../Middlewares/LVGL/GUI/lvgl/src/misc/lv_types.h"
 2038              		.file 7 "../../Middlewares/LVGL/GUI/lvgl/src/misc/lv_rb_private.h"
 2039              		.file 8 "../../Middlewares/LVGL/GUI/lvgl/src/misc/lv_rb.h"
 2040              		.file 9 "../../Middlewares/LVGL/GUI/lvgl/src/misc/../stdlib/lv_mem.h"
ARM GAS  C:\Users\28576\AppData\Local\Temp\ccFkI9MQ.s 			page 57

