ARM GAS  C:\Users\28576\AppData\Local\Temp\cceCo13F.s 			page 1


   1              		.cpu cortex-m7
   2              		.arch armv7e-m
   3              		.fpu fpv5-d16
   4              		.eabi_attribute 28, 1
   5              		.eabi_attribute 20, 1
   6              		.eabi_attribute 21, 1
   7              		.eabi_attribute 23, 3
   8              		.eabi_attribute 24, 1
   9              		.eabi_attribute 25, 1
  10              		.eabi_attribute 26, 1
  11              		.eabi_attribute 30, 1
  12              		.eabi_attribute 34, 1
  13              		.eabi_attribute 18, 4
  14              		.file	"lv_switch.c"
  15              		.text
  16              	.Ltext0:
  17              		.cfi_sections	.debug_frame
  18              		.file 1 "../../Middlewares/LVGL/GUI/lvgl/src/widgets/switch/lv_switch.c"
  19              		.section	.text.lv_switch_anim_completed,"ax",%progbits
  20              		.align	1
  21              		.syntax unified
  22              		.thumb
  23              		.thumb_func
  25              	lv_switch_anim_completed:
  26              	.LVL0:
  27              	.LFB180:
   1:../../Middlewares/LVGL/GUI/lvgl/src/widgets/switch/lv_switch.c **** /**
   2:../../Middlewares/LVGL/GUI/lvgl/src/widgets/switch/lv_switch.c ****  * @file lv_sw.c
   3:../../Middlewares/LVGL/GUI/lvgl/src/widgets/switch/lv_switch.c ****  *
   4:../../Middlewares/LVGL/GUI/lvgl/src/widgets/switch/lv_switch.c ****  */
   5:../../Middlewares/LVGL/GUI/lvgl/src/widgets/switch/lv_switch.c **** 
   6:../../Middlewares/LVGL/GUI/lvgl/src/widgets/switch/lv_switch.c **** /*********************
   7:../../Middlewares/LVGL/GUI/lvgl/src/widgets/switch/lv_switch.c ****  *      INCLUDES
   8:../../Middlewares/LVGL/GUI/lvgl/src/widgets/switch/lv_switch.c ****  *********************/
   9:../../Middlewares/LVGL/GUI/lvgl/src/widgets/switch/lv_switch.c **** #include "lv_switch_private.h"
  10:../../Middlewares/LVGL/GUI/lvgl/src/widgets/switch/lv_switch.c **** #include "../../core/lv_obj_private.h"
  11:../../Middlewares/LVGL/GUI/lvgl/src/widgets/switch/lv_switch.c **** #include "../../core/lv_obj_class_private.h"
  12:../../Middlewares/LVGL/GUI/lvgl/src/widgets/switch/lv_switch.c **** 
  13:../../Middlewares/LVGL/GUI/lvgl/src/widgets/switch/lv_switch.c **** #if LV_USE_SWITCH != 0
  14:../../Middlewares/LVGL/GUI/lvgl/src/widgets/switch/lv_switch.c **** 
  15:../../Middlewares/LVGL/GUI/lvgl/src/widgets/switch/lv_switch.c **** #include "../../misc/lv_assert.h"
  16:../../Middlewares/LVGL/GUI/lvgl/src/widgets/switch/lv_switch.c **** #include "../../misc/lv_math.h"
  17:../../Middlewares/LVGL/GUI/lvgl/src/widgets/switch/lv_switch.c **** #include "../../misc/lv_anim_private.h"
  18:../../Middlewares/LVGL/GUI/lvgl/src/widgets/switch/lv_switch.c **** #include "../../indev/lv_indev.h"
  19:../../Middlewares/LVGL/GUI/lvgl/src/widgets/switch/lv_switch.c **** #include "../../display/lv_display.h"
  20:../../Middlewares/LVGL/GUI/lvgl/src/widgets/switch/lv_switch.c **** 
  21:../../Middlewares/LVGL/GUI/lvgl/src/widgets/switch/lv_switch.c **** /*********************
  22:../../Middlewares/LVGL/GUI/lvgl/src/widgets/switch/lv_switch.c ****  *      DEFINES
  23:../../Middlewares/LVGL/GUI/lvgl/src/widgets/switch/lv_switch.c ****  *********************/
  24:../../Middlewares/LVGL/GUI/lvgl/src/widgets/switch/lv_switch.c **** #define MY_CLASS (&lv_switch_class)
  25:../../Middlewares/LVGL/GUI/lvgl/src/widgets/switch/lv_switch.c **** 
  26:../../Middlewares/LVGL/GUI/lvgl/src/widgets/switch/lv_switch.c **** #define LV_SWITCH_IS_ANIMATING(sw) (((sw)->anim_state) != LV_SWITCH_ANIM_STATE_INV)
  27:../../Middlewares/LVGL/GUI/lvgl/src/widgets/switch/lv_switch.c **** 
  28:../../Middlewares/LVGL/GUI/lvgl/src/widgets/switch/lv_switch.c **** /** Switch animation start value. (Not the real value of the switch just indicates process animatio
  29:../../Middlewares/LVGL/GUI/lvgl/src/widgets/switch/lv_switch.c **** #define LV_SWITCH_ANIM_STATE_START 0
  30:../../Middlewares/LVGL/GUI/lvgl/src/widgets/switch/lv_switch.c **** 
  31:../../Middlewares/LVGL/GUI/lvgl/src/widgets/switch/lv_switch.c **** /** Switch animation end value.  (Not the real value of the switch just indicates process animation
ARM GAS  C:\Users\28576\AppData\Local\Temp\cceCo13F.s 			page 2


  32:../../Middlewares/LVGL/GUI/lvgl/src/widgets/switch/lv_switch.c **** #define LV_SWITCH_ANIM_STATE_END   256
  33:../../Middlewares/LVGL/GUI/lvgl/src/widgets/switch/lv_switch.c **** 
  34:../../Middlewares/LVGL/GUI/lvgl/src/widgets/switch/lv_switch.c **** /** Mark no animation is in progress*/
  35:../../Middlewares/LVGL/GUI/lvgl/src/widgets/switch/lv_switch.c **** #define LV_SWITCH_ANIM_STATE_INV   -1
  36:../../Middlewares/LVGL/GUI/lvgl/src/widgets/switch/lv_switch.c **** 
  37:../../Middlewares/LVGL/GUI/lvgl/src/widgets/switch/lv_switch.c **** /**********************
  38:../../Middlewares/LVGL/GUI/lvgl/src/widgets/switch/lv_switch.c ****  *      TYPEDEFS
  39:../../Middlewares/LVGL/GUI/lvgl/src/widgets/switch/lv_switch.c ****  **********************/
  40:../../Middlewares/LVGL/GUI/lvgl/src/widgets/switch/lv_switch.c **** 
  41:../../Middlewares/LVGL/GUI/lvgl/src/widgets/switch/lv_switch.c **** /**********************
  42:../../Middlewares/LVGL/GUI/lvgl/src/widgets/switch/lv_switch.c ****  *  STATIC PROTOTYPES
  43:../../Middlewares/LVGL/GUI/lvgl/src/widgets/switch/lv_switch.c ****  **********************/
  44:../../Middlewares/LVGL/GUI/lvgl/src/widgets/switch/lv_switch.c **** static void lv_switch_constructor(const lv_obj_class_t * class_p, lv_obj_t * obj);
  45:../../Middlewares/LVGL/GUI/lvgl/src/widgets/switch/lv_switch.c **** static void lv_switch_destructor(const lv_obj_class_t * class_p, lv_obj_t * obj);
  46:../../Middlewares/LVGL/GUI/lvgl/src/widgets/switch/lv_switch.c **** static void lv_switch_event(const lv_obj_class_t * class_p, lv_event_t * e);
  47:../../Middlewares/LVGL/GUI/lvgl/src/widgets/switch/lv_switch.c **** static void draw_main(lv_event_t * e);
  48:../../Middlewares/LVGL/GUI/lvgl/src/widgets/switch/lv_switch.c **** 
  49:../../Middlewares/LVGL/GUI/lvgl/src/widgets/switch/lv_switch.c **** static void lv_switch_anim_exec_cb(void * sw, int32_t value);
  50:../../Middlewares/LVGL/GUI/lvgl/src/widgets/switch/lv_switch.c **** static void lv_switch_trigger_anim(lv_obj_t * obj);
  51:../../Middlewares/LVGL/GUI/lvgl/src/widgets/switch/lv_switch.c **** static void lv_switch_anim_completed(lv_anim_t * a);
  52:../../Middlewares/LVGL/GUI/lvgl/src/widgets/switch/lv_switch.c **** 
  53:../../Middlewares/LVGL/GUI/lvgl/src/widgets/switch/lv_switch.c **** /**********************
  54:../../Middlewares/LVGL/GUI/lvgl/src/widgets/switch/lv_switch.c ****  *  STATIC VARIABLES
  55:../../Middlewares/LVGL/GUI/lvgl/src/widgets/switch/lv_switch.c ****  **********************/
  56:../../Middlewares/LVGL/GUI/lvgl/src/widgets/switch/lv_switch.c **** const lv_obj_class_t lv_switch_class = {
  57:../../Middlewares/LVGL/GUI/lvgl/src/widgets/switch/lv_switch.c ****     .constructor_cb = lv_switch_constructor,
  58:../../Middlewares/LVGL/GUI/lvgl/src/widgets/switch/lv_switch.c ****     .destructor_cb = lv_switch_destructor,
  59:../../Middlewares/LVGL/GUI/lvgl/src/widgets/switch/lv_switch.c ****     .event_cb = lv_switch_event,
  60:../../Middlewares/LVGL/GUI/lvgl/src/widgets/switch/lv_switch.c ****     .width_def = (4 * LV_DPI_DEF) / 10,
  61:../../Middlewares/LVGL/GUI/lvgl/src/widgets/switch/lv_switch.c ****     .height_def = (4 * LV_DPI_DEF) / 17,
  62:../../Middlewares/LVGL/GUI/lvgl/src/widgets/switch/lv_switch.c ****     .group_def = LV_OBJ_CLASS_GROUP_DEF_TRUE,
  63:../../Middlewares/LVGL/GUI/lvgl/src/widgets/switch/lv_switch.c ****     .instance_size = sizeof(lv_switch_t),
  64:../../Middlewares/LVGL/GUI/lvgl/src/widgets/switch/lv_switch.c ****     .base_class = &lv_obj_class,
  65:../../Middlewares/LVGL/GUI/lvgl/src/widgets/switch/lv_switch.c ****     .name = "lv_switch",
  66:../../Middlewares/LVGL/GUI/lvgl/src/widgets/switch/lv_switch.c **** };
  67:../../Middlewares/LVGL/GUI/lvgl/src/widgets/switch/lv_switch.c **** 
  68:../../Middlewares/LVGL/GUI/lvgl/src/widgets/switch/lv_switch.c **** /**********************
  69:../../Middlewares/LVGL/GUI/lvgl/src/widgets/switch/lv_switch.c ****  *      MACROS
  70:../../Middlewares/LVGL/GUI/lvgl/src/widgets/switch/lv_switch.c ****  **********************/
  71:../../Middlewares/LVGL/GUI/lvgl/src/widgets/switch/lv_switch.c **** 
  72:../../Middlewares/LVGL/GUI/lvgl/src/widgets/switch/lv_switch.c **** /**********************
  73:../../Middlewares/LVGL/GUI/lvgl/src/widgets/switch/lv_switch.c ****  *   GLOBAL FUNCTIONS
  74:../../Middlewares/LVGL/GUI/lvgl/src/widgets/switch/lv_switch.c ****  **********************/
  75:../../Middlewares/LVGL/GUI/lvgl/src/widgets/switch/lv_switch.c **** 
  76:../../Middlewares/LVGL/GUI/lvgl/src/widgets/switch/lv_switch.c **** lv_obj_t * lv_switch_create(lv_obj_t * parent)
  77:../../Middlewares/LVGL/GUI/lvgl/src/widgets/switch/lv_switch.c **** {
  78:../../Middlewares/LVGL/GUI/lvgl/src/widgets/switch/lv_switch.c ****     LV_LOG_INFO("begin");
  79:../../Middlewares/LVGL/GUI/lvgl/src/widgets/switch/lv_switch.c ****     lv_obj_t * obj = lv_obj_class_create_obj(MY_CLASS, parent);
  80:../../Middlewares/LVGL/GUI/lvgl/src/widgets/switch/lv_switch.c ****     lv_obj_class_init_obj(obj);
  81:../../Middlewares/LVGL/GUI/lvgl/src/widgets/switch/lv_switch.c ****     return obj;
  82:../../Middlewares/LVGL/GUI/lvgl/src/widgets/switch/lv_switch.c **** }
  83:../../Middlewares/LVGL/GUI/lvgl/src/widgets/switch/lv_switch.c **** 
  84:../../Middlewares/LVGL/GUI/lvgl/src/widgets/switch/lv_switch.c **** /*=====================
  85:../../Middlewares/LVGL/GUI/lvgl/src/widgets/switch/lv_switch.c ****  * Setter functions
  86:../../Middlewares/LVGL/GUI/lvgl/src/widgets/switch/lv_switch.c ****  *====================*/
  87:../../Middlewares/LVGL/GUI/lvgl/src/widgets/switch/lv_switch.c **** 
  88:../../Middlewares/LVGL/GUI/lvgl/src/widgets/switch/lv_switch.c **** void lv_switch_set_orientation(lv_obj_t * obj, lv_switch_orientation_t orientation)
ARM GAS  C:\Users\28576\AppData\Local\Temp\cceCo13F.s 			page 3


  89:../../Middlewares/LVGL/GUI/lvgl/src/widgets/switch/lv_switch.c **** {
  90:../../Middlewares/LVGL/GUI/lvgl/src/widgets/switch/lv_switch.c ****     LV_ASSERT_OBJ(obj, MY_CLASS);
  91:../../Middlewares/LVGL/GUI/lvgl/src/widgets/switch/lv_switch.c ****     lv_switch_t * sw = (lv_switch_t *)obj;
  92:../../Middlewares/LVGL/GUI/lvgl/src/widgets/switch/lv_switch.c **** 
  93:../../Middlewares/LVGL/GUI/lvgl/src/widgets/switch/lv_switch.c ****     sw->orientation = orientation;
  94:../../Middlewares/LVGL/GUI/lvgl/src/widgets/switch/lv_switch.c ****     lv_obj_invalidate(obj);
  95:../../Middlewares/LVGL/GUI/lvgl/src/widgets/switch/lv_switch.c **** }
  96:../../Middlewares/LVGL/GUI/lvgl/src/widgets/switch/lv_switch.c **** 
  97:../../Middlewares/LVGL/GUI/lvgl/src/widgets/switch/lv_switch.c **** /*=====================
  98:../../Middlewares/LVGL/GUI/lvgl/src/widgets/switch/lv_switch.c ****  * Getter functions
  99:../../Middlewares/LVGL/GUI/lvgl/src/widgets/switch/lv_switch.c ****  *====================*/
 100:../../Middlewares/LVGL/GUI/lvgl/src/widgets/switch/lv_switch.c **** 
 101:../../Middlewares/LVGL/GUI/lvgl/src/widgets/switch/lv_switch.c **** lv_switch_orientation_t lv_switch_get_orientation(lv_obj_t * obj)
 102:../../Middlewares/LVGL/GUI/lvgl/src/widgets/switch/lv_switch.c **** {
 103:../../Middlewares/LVGL/GUI/lvgl/src/widgets/switch/lv_switch.c ****     LV_ASSERT_OBJ(obj, MY_CLASS);
 104:../../Middlewares/LVGL/GUI/lvgl/src/widgets/switch/lv_switch.c ****     lv_switch_t * sw = (lv_switch_t *)obj;
 105:../../Middlewares/LVGL/GUI/lvgl/src/widgets/switch/lv_switch.c **** 
 106:../../Middlewares/LVGL/GUI/lvgl/src/widgets/switch/lv_switch.c ****     return sw->orientation;
 107:../../Middlewares/LVGL/GUI/lvgl/src/widgets/switch/lv_switch.c **** }
 108:../../Middlewares/LVGL/GUI/lvgl/src/widgets/switch/lv_switch.c **** 
 109:../../Middlewares/LVGL/GUI/lvgl/src/widgets/switch/lv_switch.c **** /**********************
 110:../../Middlewares/LVGL/GUI/lvgl/src/widgets/switch/lv_switch.c ****  *   STATIC FUNCTIONS
 111:../../Middlewares/LVGL/GUI/lvgl/src/widgets/switch/lv_switch.c ****  **********************/
 112:../../Middlewares/LVGL/GUI/lvgl/src/widgets/switch/lv_switch.c **** 
 113:../../Middlewares/LVGL/GUI/lvgl/src/widgets/switch/lv_switch.c **** static void lv_switch_constructor(const lv_obj_class_t * class_p, lv_obj_t * obj)
 114:../../Middlewares/LVGL/GUI/lvgl/src/widgets/switch/lv_switch.c **** {
 115:../../Middlewares/LVGL/GUI/lvgl/src/widgets/switch/lv_switch.c ****     LV_UNUSED(class_p);
 116:../../Middlewares/LVGL/GUI/lvgl/src/widgets/switch/lv_switch.c ****     LV_TRACE_OBJ_CREATE("begin");
 117:../../Middlewares/LVGL/GUI/lvgl/src/widgets/switch/lv_switch.c **** 
 118:../../Middlewares/LVGL/GUI/lvgl/src/widgets/switch/lv_switch.c ****     lv_switch_t * sw = (lv_switch_t *)obj;
 119:../../Middlewares/LVGL/GUI/lvgl/src/widgets/switch/lv_switch.c **** 
 120:../../Middlewares/LVGL/GUI/lvgl/src/widgets/switch/lv_switch.c ****     sw->anim_state = LV_SWITCH_ANIM_STATE_INV;
 121:../../Middlewares/LVGL/GUI/lvgl/src/widgets/switch/lv_switch.c ****     sw->orientation = LV_SWITCH_ORIENTATION_AUTO;
 122:../../Middlewares/LVGL/GUI/lvgl/src/widgets/switch/lv_switch.c **** 
 123:../../Middlewares/LVGL/GUI/lvgl/src/widgets/switch/lv_switch.c ****     lv_obj_remove_flag(obj, LV_OBJ_FLAG_SCROLLABLE);
 124:../../Middlewares/LVGL/GUI/lvgl/src/widgets/switch/lv_switch.c ****     lv_obj_add_flag(obj, LV_OBJ_FLAG_CHECKABLE);
 125:../../Middlewares/LVGL/GUI/lvgl/src/widgets/switch/lv_switch.c ****     lv_obj_add_flag(obj, LV_OBJ_FLAG_SCROLL_ON_FOCUS);
 126:../../Middlewares/LVGL/GUI/lvgl/src/widgets/switch/lv_switch.c **** 
 127:../../Middlewares/LVGL/GUI/lvgl/src/widgets/switch/lv_switch.c ****     LV_TRACE_OBJ_CREATE("finished");
 128:../../Middlewares/LVGL/GUI/lvgl/src/widgets/switch/lv_switch.c **** }
 129:../../Middlewares/LVGL/GUI/lvgl/src/widgets/switch/lv_switch.c **** 
 130:../../Middlewares/LVGL/GUI/lvgl/src/widgets/switch/lv_switch.c **** static void lv_switch_destructor(const lv_obj_class_t * class_p, lv_obj_t * obj)
 131:../../Middlewares/LVGL/GUI/lvgl/src/widgets/switch/lv_switch.c **** {
 132:../../Middlewares/LVGL/GUI/lvgl/src/widgets/switch/lv_switch.c ****     LV_UNUSED(class_p);
 133:../../Middlewares/LVGL/GUI/lvgl/src/widgets/switch/lv_switch.c ****     lv_switch_t * sw = (lv_switch_t *)obj;
 134:../../Middlewares/LVGL/GUI/lvgl/src/widgets/switch/lv_switch.c **** 
 135:../../Middlewares/LVGL/GUI/lvgl/src/widgets/switch/lv_switch.c ****     lv_anim_delete(sw, NULL);
 136:../../Middlewares/LVGL/GUI/lvgl/src/widgets/switch/lv_switch.c **** }
 137:../../Middlewares/LVGL/GUI/lvgl/src/widgets/switch/lv_switch.c **** 
 138:../../Middlewares/LVGL/GUI/lvgl/src/widgets/switch/lv_switch.c **** static void lv_switch_event(const lv_obj_class_t * class_p, lv_event_t * e)
 139:../../Middlewares/LVGL/GUI/lvgl/src/widgets/switch/lv_switch.c **** {
 140:../../Middlewares/LVGL/GUI/lvgl/src/widgets/switch/lv_switch.c ****     LV_UNUSED(class_p);
 141:../../Middlewares/LVGL/GUI/lvgl/src/widgets/switch/lv_switch.c **** 
 142:../../Middlewares/LVGL/GUI/lvgl/src/widgets/switch/lv_switch.c ****     lv_result_t res;
 143:../../Middlewares/LVGL/GUI/lvgl/src/widgets/switch/lv_switch.c **** 
 144:../../Middlewares/LVGL/GUI/lvgl/src/widgets/switch/lv_switch.c ****     /*Call the ancestor's event handler*/
 145:../../Middlewares/LVGL/GUI/lvgl/src/widgets/switch/lv_switch.c ****     res = lv_obj_event_base(MY_CLASS, e);
ARM GAS  C:\Users\28576\AppData\Local\Temp\cceCo13F.s 			page 4


 146:../../Middlewares/LVGL/GUI/lvgl/src/widgets/switch/lv_switch.c ****     if(res != LV_RESULT_OK) return;
 147:../../Middlewares/LVGL/GUI/lvgl/src/widgets/switch/lv_switch.c **** 
 148:../../Middlewares/LVGL/GUI/lvgl/src/widgets/switch/lv_switch.c ****     lv_event_code_t code = lv_event_get_code(e);
 149:../../Middlewares/LVGL/GUI/lvgl/src/widgets/switch/lv_switch.c ****     lv_obj_t * obj = lv_event_get_current_target(e);
 150:../../Middlewares/LVGL/GUI/lvgl/src/widgets/switch/lv_switch.c **** 
 151:../../Middlewares/LVGL/GUI/lvgl/src/widgets/switch/lv_switch.c ****     if(code == LV_EVENT_REFR_EXT_DRAW_SIZE) {
 152:../../Middlewares/LVGL/GUI/lvgl/src/widgets/switch/lv_switch.c ****         int32_t knob_left = lv_obj_get_style_pad_left(obj,   LV_PART_KNOB);
 153:../../Middlewares/LVGL/GUI/lvgl/src/widgets/switch/lv_switch.c ****         int32_t knob_right = lv_obj_get_style_pad_right(obj,  LV_PART_KNOB);
 154:../../Middlewares/LVGL/GUI/lvgl/src/widgets/switch/lv_switch.c ****         int32_t knob_top = lv_obj_get_style_pad_top(obj,    LV_PART_KNOB);
 155:../../Middlewares/LVGL/GUI/lvgl/src/widgets/switch/lv_switch.c ****         int32_t knob_bottom = lv_obj_get_style_pad_bottom(obj, LV_PART_KNOB);
 156:../../Middlewares/LVGL/GUI/lvgl/src/widgets/switch/lv_switch.c **** 
 157:../../Middlewares/LVGL/GUI/lvgl/src/widgets/switch/lv_switch.c ****         /*The smaller size is the knob diameter*/
 158:../../Middlewares/LVGL/GUI/lvgl/src/widgets/switch/lv_switch.c ****         int32_t knob_size = LV_MAX4(knob_left, knob_right, knob_bottom, knob_top);
 159:../../Middlewares/LVGL/GUI/lvgl/src/widgets/switch/lv_switch.c ****         knob_size += LV_SWITCH_KNOB_EXT_AREA_CORRECTION;
 160:../../Middlewares/LVGL/GUI/lvgl/src/widgets/switch/lv_switch.c ****         knob_size += lv_obj_calculate_ext_draw_size(obj, LV_PART_KNOB);
 161:../../Middlewares/LVGL/GUI/lvgl/src/widgets/switch/lv_switch.c **** 
 162:../../Middlewares/LVGL/GUI/lvgl/src/widgets/switch/lv_switch.c ****         int32_t * s = lv_event_get_param(e);
 163:../../Middlewares/LVGL/GUI/lvgl/src/widgets/switch/lv_switch.c ****         *s = LV_MAX(*s, knob_size);
 164:../../Middlewares/LVGL/GUI/lvgl/src/widgets/switch/lv_switch.c ****         *s = LV_MAX(*s, lv_obj_calculate_ext_draw_size(obj, LV_PART_INDICATOR));
 165:../../Middlewares/LVGL/GUI/lvgl/src/widgets/switch/lv_switch.c ****     }
 166:../../Middlewares/LVGL/GUI/lvgl/src/widgets/switch/lv_switch.c ****     else if(code == LV_EVENT_VALUE_CHANGED) {
 167:../../Middlewares/LVGL/GUI/lvgl/src/widgets/switch/lv_switch.c ****         lv_switch_trigger_anim(obj);
 168:../../Middlewares/LVGL/GUI/lvgl/src/widgets/switch/lv_switch.c ****         lv_obj_invalidate(obj);
 169:../../Middlewares/LVGL/GUI/lvgl/src/widgets/switch/lv_switch.c ****     }
 170:../../Middlewares/LVGL/GUI/lvgl/src/widgets/switch/lv_switch.c ****     else if(code == LV_EVENT_DRAW_MAIN) {
 171:../../Middlewares/LVGL/GUI/lvgl/src/widgets/switch/lv_switch.c ****         draw_main(e);
 172:../../Middlewares/LVGL/GUI/lvgl/src/widgets/switch/lv_switch.c ****     }
 173:../../Middlewares/LVGL/GUI/lvgl/src/widgets/switch/lv_switch.c **** }
 174:../../Middlewares/LVGL/GUI/lvgl/src/widgets/switch/lv_switch.c **** 
 175:../../Middlewares/LVGL/GUI/lvgl/src/widgets/switch/lv_switch.c **** static void draw_main(lv_event_t * e)
 176:../../Middlewares/LVGL/GUI/lvgl/src/widgets/switch/lv_switch.c **** {
 177:../../Middlewares/LVGL/GUI/lvgl/src/widgets/switch/lv_switch.c ****     lv_obj_t * obj = lv_event_get_current_target(e);
 178:../../Middlewares/LVGL/GUI/lvgl/src/widgets/switch/lv_switch.c ****     lv_switch_t * sw = (lv_switch_t *)obj;
 179:../../Middlewares/LVGL/GUI/lvgl/src/widgets/switch/lv_switch.c **** 
 180:../../Middlewares/LVGL/GUI/lvgl/src/widgets/switch/lv_switch.c ****     lv_layer_t * layer = lv_event_get_layer(e);
 181:../../Middlewares/LVGL/GUI/lvgl/src/widgets/switch/lv_switch.c **** 
 182:../../Middlewares/LVGL/GUI/lvgl/src/widgets/switch/lv_switch.c ****     /*Draw the indicator*/
 183:../../Middlewares/LVGL/GUI/lvgl/src/widgets/switch/lv_switch.c ****     lv_area_t indic_area;
 184:../../Middlewares/LVGL/GUI/lvgl/src/widgets/switch/lv_switch.c ****     /*Exclude background's padding*/
 185:../../Middlewares/LVGL/GUI/lvgl/src/widgets/switch/lv_switch.c ****     lv_obj_get_content_coords(obj, &indic_area);
 186:../../Middlewares/LVGL/GUI/lvgl/src/widgets/switch/lv_switch.c **** 
 187:../../Middlewares/LVGL/GUI/lvgl/src/widgets/switch/lv_switch.c ****     lv_draw_rect_dsc_t draw_indic_dsc;
 188:../../Middlewares/LVGL/GUI/lvgl/src/widgets/switch/lv_switch.c ****     lv_draw_rect_dsc_init(&draw_indic_dsc);
 189:../../Middlewares/LVGL/GUI/lvgl/src/widgets/switch/lv_switch.c ****     draw_indic_dsc.base.layer = layer;
 190:../../Middlewares/LVGL/GUI/lvgl/src/widgets/switch/lv_switch.c ****     lv_obj_init_draw_rect_dsc(obj, LV_PART_INDICATOR, &draw_indic_dsc);
 191:../../Middlewares/LVGL/GUI/lvgl/src/widgets/switch/lv_switch.c ****     lv_draw_rect(layer, &draw_indic_dsc, &indic_area);
 192:../../Middlewares/LVGL/GUI/lvgl/src/widgets/switch/lv_switch.c **** 
 193:../../Middlewares/LVGL/GUI/lvgl/src/widgets/switch/lv_switch.c ****     /*Draw the knob*/
 194:../../Middlewares/LVGL/GUI/lvgl/src/widgets/switch/lv_switch.c ****     lv_area_t knob_area;
 195:../../Middlewares/LVGL/GUI/lvgl/src/widgets/switch/lv_switch.c ****     lv_area_copy(&knob_area, &obj->coords);
 196:../../Middlewares/LVGL/GUI/lvgl/src/widgets/switch/lv_switch.c **** 
 197:../../Middlewares/LVGL/GUI/lvgl/src/widgets/switch/lv_switch.c ****     int32_t switch_w = lv_area_get_width(&obj->coords);
 198:../../Middlewares/LVGL/GUI/lvgl/src/widgets/switch/lv_switch.c ****     int32_t switch_h = lv_area_get_height(&obj->coords);
 199:../../Middlewares/LVGL/GUI/lvgl/src/widgets/switch/lv_switch.c ****     bool hor = false;
 200:../../Middlewares/LVGL/GUI/lvgl/src/widgets/switch/lv_switch.c **** 
 201:../../Middlewares/LVGL/GUI/lvgl/src/widgets/switch/lv_switch.c ****     switch(sw->orientation) {
 202:../../Middlewares/LVGL/GUI/lvgl/src/widgets/switch/lv_switch.c ****         case LV_SWITCH_ORIENTATION_HORIZONTAL:
ARM GAS  C:\Users\28576\AppData\Local\Temp\cceCo13F.s 			page 5


 203:../../Middlewares/LVGL/GUI/lvgl/src/widgets/switch/lv_switch.c ****             hor = true;
 204:../../Middlewares/LVGL/GUI/lvgl/src/widgets/switch/lv_switch.c ****             break;
 205:../../Middlewares/LVGL/GUI/lvgl/src/widgets/switch/lv_switch.c ****         case LV_SWITCH_ORIENTATION_VERTICAL:
 206:../../Middlewares/LVGL/GUI/lvgl/src/widgets/switch/lv_switch.c ****             hor = false;
 207:../../Middlewares/LVGL/GUI/lvgl/src/widgets/switch/lv_switch.c ****             break;
 208:../../Middlewares/LVGL/GUI/lvgl/src/widgets/switch/lv_switch.c ****         case LV_SWITCH_ORIENTATION_AUTO:
 209:../../Middlewares/LVGL/GUI/lvgl/src/widgets/switch/lv_switch.c ****         default:
 210:../../Middlewares/LVGL/GUI/lvgl/src/widgets/switch/lv_switch.c ****             hor = (switch_w >= switch_h);
 211:../../Middlewares/LVGL/GUI/lvgl/src/widgets/switch/lv_switch.c ****             break;
 212:../../Middlewares/LVGL/GUI/lvgl/src/widgets/switch/lv_switch.c ****     }
 213:../../Middlewares/LVGL/GUI/lvgl/src/widgets/switch/lv_switch.c **** 
 214:../../Middlewares/LVGL/GUI/lvgl/src/widgets/switch/lv_switch.c ****     if(hor) {
 215:../../Middlewares/LVGL/GUI/lvgl/src/widgets/switch/lv_switch.c ****         int32_t anim_value_x = 0;
 216:../../Middlewares/LVGL/GUI/lvgl/src/widgets/switch/lv_switch.c ****         int32_t knob_size = lv_obj_get_height(obj);
 217:../../Middlewares/LVGL/GUI/lvgl/src/widgets/switch/lv_switch.c ****         int32_t anim_length = lv_area_get_width(&obj->coords) - knob_size;
 218:../../Middlewares/LVGL/GUI/lvgl/src/widgets/switch/lv_switch.c ****         if(LV_SWITCH_IS_ANIMATING(sw)) {
 219:../../Middlewares/LVGL/GUI/lvgl/src/widgets/switch/lv_switch.c ****             /* Use the animation's coordinate */
 220:../../Middlewares/LVGL/GUI/lvgl/src/widgets/switch/lv_switch.c ****             anim_value_x = (anim_length * sw->anim_state) / LV_SWITCH_ANIM_STATE_END;
 221:../../Middlewares/LVGL/GUI/lvgl/src/widgets/switch/lv_switch.c ****         }
 222:../../Middlewares/LVGL/GUI/lvgl/src/widgets/switch/lv_switch.c ****         else {
 223:../../Middlewares/LVGL/GUI/lvgl/src/widgets/switch/lv_switch.c ****             /* Use LV_STATE_CHECKED to decide the coordinate */
 224:../../Middlewares/LVGL/GUI/lvgl/src/widgets/switch/lv_switch.c ****             bool chk = lv_obj_get_state(obj) & LV_STATE_CHECKED;
 225:../../Middlewares/LVGL/GUI/lvgl/src/widgets/switch/lv_switch.c ****             anim_value_x = chk ? anim_length : 0;
 226:../../Middlewares/LVGL/GUI/lvgl/src/widgets/switch/lv_switch.c ****         }
 227:../../Middlewares/LVGL/GUI/lvgl/src/widgets/switch/lv_switch.c **** 
 228:../../Middlewares/LVGL/GUI/lvgl/src/widgets/switch/lv_switch.c ****         if(LV_BASE_DIR_RTL == lv_obj_get_style_base_dir(obj, LV_PART_MAIN)) {
 229:../../Middlewares/LVGL/GUI/lvgl/src/widgets/switch/lv_switch.c ****             anim_value_x = anim_length - anim_value_x;
 230:../../Middlewares/LVGL/GUI/lvgl/src/widgets/switch/lv_switch.c ****         }
 231:../../Middlewares/LVGL/GUI/lvgl/src/widgets/switch/lv_switch.c ****         knob_area.x1 += anim_value_x;
 232:../../Middlewares/LVGL/GUI/lvgl/src/widgets/switch/lv_switch.c ****         knob_area.x2 = knob_area.x1 + (knob_size > 0 ? knob_size - 1 : 0);
 233:../../Middlewares/LVGL/GUI/lvgl/src/widgets/switch/lv_switch.c ****     }
 234:../../Middlewares/LVGL/GUI/lvgl/src/widgets/switch/lv_switch.c ****     else {
 235:../../Middlewares/LVGL/GUI/lvgl/src/widgets/switch/lv_switch.c ****         int32_t anim_value_y = 0;
 236:../../Middlewares/LVGL/GUI/lvgl/src/widgets/switch/lv_switch.c ****         int32_t knob_size = lv_obj_get_width(obj);
 237:../../Middlewares/LVGL/GUI/lvgl/src/widgets/switch/lv_switch.c ****         int32_t anim_length = lv_area_get_height(&obj->coords) - knob_size;
 238:../../Middlewares/LVGL/GUI/lvgl/src/widgets/switch/lv_switch.c ****         if(LV_SWITCH_IS_ANIMATING(sw)) {
 239:../../Middlewares/LVGL/GUI/lvgl/src/widgets/switch/lv_switch.c ****             /* Use the animation's coordinate */
 240:../../Middlewares/LVGL/GUI/lvgl/src/widgets/switch/lv_switch.c ****             anim_value_y = (anim_length * sw->anim_state) / LV_SWITCH_ANIM_STATE_END;
 241:../../Middlewares/LVGL/GUI/lvgl/src/widgets/switch/lv_switch.c ****         }
 242:../../Middlewares/LVGL/GUI/lvgl/src/widgets/switch/lv_switch.c ****         else {
 243:../../Middlewares/LVGL/GUI/lvgl/src/widgets/switch/lv_switch.c ****             /* Use LV_STATE_CHECKED to decide the coordinate */
 244:../../Middlewares/LVGL/GUI/lvgl/src/widgets/switch/lv_switch.c ****             bool chk = lv_obj_get_state(obj) & LV_STATE_CHECKED;
 245:../../Middlewares/LVGL/GUI/lvgl/src/widgets/switch/lv_switch.c ****             anim_value_y = chk ? anim_length : 0;
 246:../../Middlewares/LVGL/GUI/lvgl/src/widgets/switch/lv_switch.c ****         }
 247:../../Middlewares/LVGL/GUI/lvgl/src/widgets/switch/lv_switch.c **** 
 248:../../Middlewares/LVGL/GUI/lvgl/src/widgets/switch/lv_switch.c ****         if(LV_BASE_DIR_RTL == lv_obj_get_style_base_dir(obj, LV_PART_MAIN)) {
 249:../../Middlewares/LVGL/GUI/lvgl/src/widgets/switch/lv_switch.c ****             anim_value_y = anim_length - anim_value_y;
 250:../../Middlewares/LVGL/GUI/lvgl/src/widgets/switch/lv_switch.c ****         }
 251:../../Middlewares/LVGL/GUI/lvgl/src/widgets/switch/lv_switch.c **** 
 252:../../Middlewares/LVGL/GUI/lvgl/src/widgets/switch/lv_switch.c ****         knob_area.y2 -= anim_value_y;
 253:../../Middlewares/LVGL/GUI/lvgl/src/widgets/switch/lv_switch.c ****         knob_area.y1 = knob_area.y2 - (knob_size > 0 ? knob_size - 1 : 0);
 254:../../Middlewares/LVGL/GUI/lvgl/src/widgets/switch/lv_switch.c ****     }
 255:../../Middlewares/LVGL/GUI/lvgl/src/widgets/switch/lv_switch.c **** 
 256:../../Middlewares/LVGL/GUI/lvgl/src/widgets/switch/lv_switch.c ****     int32_t knob_left = lv_obj_get_style_pad_left(obj, LV_PART_KNOB);
 257:../../Middlewares/LVGL/GUI/lvgl/src/widgets/switch/lv_switch.c ****     int32_t knob_right = lv_obj_get_style_pad_right(obj, LV_PART_KNOB);
 258:../../Middlewares/LVGL/GUI/lvgl/src/widgets/switch/lv_switch.c ****     int32_t knob_top = lv_obj_get_style_pad_top(obj, LV_PART_KNOB);
 259:../../Middlewares/LVGL/GUI/lvgl/src/widgets/switch/lv_switch.c ****     int32_t knob_bottom = lv_obj_get_style_pad_bottom(obj, LV_PART_KNOB);
ARM GAS  C:\Users\28576\AppData\Local\Temp\cceCo13F.s 			page 6


 260:../../Middlewares/LVGL/GUI/lvgl/src/widgets/switch/lv_switch.c **** 
 261:../../Middlewares/LVGL/GUI/lvgl/src/widgets/switch/lv_switch.c ****     /*Apply the paddings on the knob area*/
 262:../../Middlewares/LVGL/GUI/lvgl/src/widgets/switch/lv_switch.c ****     knob_area.x1 -= knob_left;
 263:../../Middlewares/LVGL/GUI/lvgl/src/widgets/switch/lv_switch.c ****     knob_area.x2 += knob_right;
 264:../../Middlewares/LVGL/GUI/lvgl/src/widgets/switch/lv_switch.c ****     knob_area.y1 -= knob_top;
 265:../../Middlewares/LVGL/GUI/lvgl/src/widgets/switch/lv_switch.c ****     knob_area.y2 += knob_bottom;
 266:../../Middlewares/LVGL/GUI/lvgl/src/widgets/switch/lv_switch.c **** 
 267:../../Middlewares/LVGL/GUI/lvgl/src/widgets/switch/lv_switch.c ****     lv_draw_rect_dsc_t knob_rect_dsc;
 268:../../Middlewares/LVGL/GUI/lvgl/src/widgets/switch/lv_switch.c ****     lv_draw_rect_dsc_init(&knob_rect_dsc);
 269:../../Middlewares/LVGL/GUI/lvgl/src/widgets/switch/lv_switch.c ****     knob_rect_dsc.base.layer = layer;
 270:../../Middlewares/LVGL/GUI/lvgl/src/widgets/switch/lv_switch.c ****     lv_obj_init_draw_rect_dsc(obj, LV_PART_KNOB, &knob_rect_dsc);
 271:../../Middlewares/LVGL/GUI/lvgl/src/widgets/switch/lv_switch.c **** 
 272:../../Middlewares/LVGL/GUI/lvgl/src/widgets/switch/lv_switch.c ****     lv_draw_rect(layer, &knob_rect_dsc, &knob_area);
 273:../../Middlewares/LVGL/GUI/lvgl/src/widgets/switch/lv_switch.c **** }
 274:../../Middlewares/LVGL/GUI/lvgl/src/widgets/switch/lv_switch.c **** 
 275:../../Middlewares/LVGL/GUI/lvgl/src/widgets/switch/lv_switch.c **** static void lv_switch_anim_exec_cb(void * var, int32_t value)
 276:../../Middlewares/LVGL/GUI/lvgl/src/widgets/switch/lv_switch.c **** {
 277:../../Middlewares/LVGL/GUI/lvgl/src/widgets/switch/lv_switch.c ****     lv_switch_t * sw = var;
 278:../../Middlewares/LVGL/GUI/lvgl/src/widgets/switch/lv_switch.c ****     sw->anim_state = value;
 279:../../Middlewares/LVGL/GUI/lvgl/src/widgets/switch/lv_switch.c ****     lv_obj_invalidate((lv_obj_t *)sw);
 280:../../Middlewares/LVGL/GUI/lvgl/src/widgets/switch/lv_switch.c **** }
 281:../../Middlewares/LVGL/GUI/lvgl/src/widgets/switch/lv_switch.c **** 
 282:../../Middlewares/LVGL/GUI/lvgl/src/widgets/switch/lv_switch.c **** /**
 283:../../Middlewares/LVGL/GUI/lvgl/src/widgets/switch/lv_switch.c ****  * Resets the switch's animation state to "no animation in progress".
 284:../../Middlewares/LVGL/GUI/lvgl/src/widgets/switch/lv_switch.c ****  */
 285:../../Middlewares/LVGL/GUI/lvgl/src/widgets/switch/lv_switch.c **** static void lv_switch_anim_completed(lv_anim_t * a)
 286:../../Middlewares/LVGL/GUI/lvgl/src/widgets/switch/lv_switch.c **** {
  28              		.loc 1 286 1 view -0
  29              		.cfi_startproc
  30              		@ args = 0, pretend = 0, frame = 0
  31              		@ frame_needed = 0, uses_anonymous_args = 0
  32              		.loc 1 286 1 is_stmt 0 view .LVU1
  33 0000 08B5     		push	{r3, lr}
  34              	.LCFI0:
  35              		.cfi_def_cfa_offset 8
  36              		.cfi_offset 3, -8
  37              		.cfi_offset 14, -4
 287:../../Middlewares/LVGL/GUI/lvgl/src/widgets/switch/lv_switch.c ****     lv_switch_t * sw = a->var;
  38              		.loc 1 287 5 is_stmt 1 view .LVU2
  39              		.loc 1 287 19 is_stmt 0 view .LVU3
  40 0002 0068     		ldr	r0, [r0]
  41              	.LVL1:
 288:../../Middlewares/LVGL/GUI/lvgl/src/widgets/switch/lv_switch.c ****     sw->anim_state = LV_SWITCH_ANIM_STATE_INV;
  42              		.loc 1 288 5 is_stmt 1 view .LVU4
  43              		.loc 1 288 20 is_stmt 0 view .LVU5
  44 0004 4FF0FF33 		mov	r3, #-1
  45 0008 C362     		str	r3, [r0, #44]
 289:../../Middlewares/LVGL/GUI/lvgl/src/widgets/switch/lv_switch.c ****     lv_obj_invalidate((lv_obj_t *)sw);
  46              		.loc 1 289 5 is_stmt 1 view .LVU6
  47 000a FFF7FEFF 		bl	lv_obj_invalidate
  48              	.LVL2:
 290:../../Middlewares/LVGL/GUI/lvgl/src/widgets/switch/lv_switch.c **** }
  49              		.loc 1 290 1 is_stmt 0 view .LVU7
  50 000e 08BD     		pop	{r3, pc}
  51              		.cfi_endproc
  52              	.LFE180:
  54              		.section	.text.lv_switch_anim_exec_cb,"ax",%progbits
ARM GAS  C:\Users\28576\AppData\Local\Temp\cceCo13F.s 			page 7


  55              		.align	1
  56              		.syntax unified
  57              		.thumb
  58              		.thumb_func
  60              	lv_switch_anim_exec_cb:
  61              	.LVL3:
  62              	.LFB179:
 276:../../Middlewares/LVGL/GUI/lvgl/src/widgets/switch/lv_switch.c ****     lv_switch_t * sw = var;
  63              		.loc 1 276 1 is_stmt 1 view -0
  64              		.cfi_startproc
  65              		@ args = 0, pretend = 0, frame = 0
  66              		@ frame_needed = 0, uses_anonymous_args = 0
 276:../../Middlewares/LVGL/GUI/lvgl/src/widgets/switch/lv_switch.c ****     lv_switch_t * sw = var;
  67              		.loc 1 276 1 is_stmt 0 view .LVU9
  68 0000 08B5     		push	{r3, lr}
  69              	.LCFI1:
  70              		.cfi_def_cfa_offset 8
  71              		.cfi_offset 3, -8
  72              		.cfi_offset 14, -4
 277:../../Middlewares/LVGL/GUI/lvgl/src/widgets/switch/lv_switch.c ****     sw->anim_state = value;
  73              		.loc 1 277 5 is_stmt 1 view .LVU10
  74              	.LVL4:
 278:../../Middlewares/LVGL/GUI/lvgl/src/widgets/switch/lv_switch.c ****     lv_obj_invalidate((lv_obj_t *)sw);
  75              		.loc 1 278 5 view .LVU11
 278:../../Middlewares/LVGL/GUI/lvgl/src/widgets/switch/lv_switch.c ****     lv_obj_invalidate((lv_obj_t *)sw);
  76              		.loc 1 278 20 is_stmt 0 view .LVU12
  77 0002 C162     		str	r1, [r0, #44]
 279:../../Middlewares/LVGL/GUI/lvgl/src/widgets/switch/lv_switch.c **** }
  78              		.loc 1 279 5 is_stmt 1 view .LVU13
  79 0004 FFF7FEFF 		bl	lv_obj_invalidate
  80              	.LVL5:
 280:../../Middlewares/LVGL/GUI/lvgl/src/widgets/switch/lv_switch.c **** 
  81              		.loc 1 280 1 is_stmt 0 view .LVU14
  82 0008 08BD     		pop	{r3, pc}
  83              		.cfi_endproc
  84              	.LFE179:
  86              		.section	.text.lv_switch_destructor,"ax",%progbits
  87              		.align	1
  88              		.syntax unified
  89              		.thumb
  90              		.thumb_func
  92              	lv_switch_destructor:
  93              	.LVL6:
  94              	.LFB176:
 131:../../Middlewares/LVGL/GUI/lvgl/src/widgets/switch/lv_switch.c ****     LV_UNUSED(class_p);
  95              		.loc 1 131 1 is_stmt 1 view -0
  96              		.cfi_startproc
  97              		@ args = 0, pretend = 0, frame = 0
  98              		@ frame_needed = 0, uses_anonymous_args = 0
 131:../../Middlewares/LVGL/GUI/lvgl/src/widgets/switch/lv_switch.c ****     LV_UNUSED(class_p);
  99              		.loc 1 131 1 is_stmt 0 view .LVU16
 100 0000 08B5     		push	{r3, lr}
 101              	.LCFI2:
 102              		.cfi_def_cfa_offset 8
 103              		.cfi_offset 3, -8
 104              		.cfi_offset 14, -4
 105 0002 0846     		mov	r0, r1
ARM GAS  C:\Users\28576\AppData\Local\Temp\cceCo13F.s 			page 8


 106              	.LVL7:
 132:../../Middlewares/LVGL/GUI/lvgl/src/widgets/switch/lv_switch.c ****     lv_switch_t * sw = (lv_switch_t *)obj;
 107              		.loc 1 132 5 is_stmt 1 view .LVU17
 133:../../Middlewares/LVGL/GUI/lvgl/src/widgets/switch/lv_switch.c **** 
 108              		.loc 1 133 5 view .LVU18
 135:../../Middlewares/LVGL/GUI/lvgl/src/widgets/switch/lv_switch.c **** }
 109              		.loc 1 135 5 view .LVU19
 110 0004 0021     		movs	r1, #0
 111              	.LVL8:
 135:../../Middlewares/LVGL/GUI/lvgl/src/widgets/switch/lv_switch.c **** }
 112              		.loc 1 135 5 is_stmt 0 view .LVU20
 113 0006 FFF7FEFF 		bl	lv_anim_delete
 114              	.LVL9:
 136:../../Middlewares/LVGL/GUI/lvgl/src/widgets/switch/lv_switch.c **** 
 115              		.loc 1 136 1 view .LVU21
 116 000a 08BD     		pop	{r3, pc}
 117              		.cfi_endproc
 118              	.LFE176:
 120              		.section	.text.lv_switch_trigger_anim,"ax",%progbits
 121              		.align	1
 122              		.syntax unified
 123              		.thumb
 124              		.thumb_func
 126              	lv_switch_trigger_anim:
 127              	.LVL10:
 128              	.LFB181:
 291:../../Middlewares/LVGL/GUI/lvgl/src/widgets/switch/lv_switch.c **** 
 292:../../Middlewares/LVGL/GUI/lvgl/src/widgets/switch/lv_switch.c **** /**
 293:../../Middlewares/LVGL/GUI/lvgl/src/widgets/switch/lv_switch.c ****  * Starts an animation for the switch knob. if the anim_time style property is greater than 0
 294:../../Middlewares/LVGL/GUI/lvgl/src/widgets/switch/lv_switch.c ****  * @param obj the switch to animate
 295:../../Middlewares/LVGL/GUI/lvgl/src/widgets/switch/lv_switch.c ****  */
 296:../../Middlewares/LVGL/GUI/lvgl/src/widgets/switch/lv_switch.c **** static void lv_switch_trigger_anim(lv_obj_t * obj)
 297:../../Middlewares/LVGL/GUI/lvgl/src/widgets/switch/lv_switch.c **** {
 129              		.loc 1 297 1 is_stmt 1 view -0
 130              		.cfi_startproc
 131              		@ args = 0, pretend = 0, frame = 96
 132              		@ frame_needed = 0, uses_anonymous_args = 0
 298:../../Middlewares/LVGL/GUI/lvgl/src/widgets/switch/lv_switch.c ****     LV_ASSERT_OBJ(obj, MY_CLASS);
 133              		.loc 1 298 5 view .LVU23
 134              		.loc 1 298 5 view .LVU24
 135 0000 58B1     		cbz	r0, .L9
 297:../../Middlewares/LVGL/GUI/lvgl/src/widgets/switch/lv_switch.c ****     LV_ASSERT_OBJ(obj, MY_CLASS);
 136              		.loc 1 297 1 is_stmt 0 view .LVU25
 137 0002 F0B5     		push	{r4, r5, r6, r7, lr}
 138              	.LCFI3:
 139              		.cfi_def_cfa_offset 20
 140              		.cfi_offset 4, -20
 141              		.cfi_offset 5, -16
 142              		.cfi_offset 6, -12
 143              		.cfi_offset 7, -8
 144              		.cfi_offset 14, -4
 145 0004 99B0     		sub	sp, sp, #100
 146              	.LCFI4:
 147              		.cfi_def_cfa_offset 120
 148 0006 0746     		mov	r7, r0
 149              		.loc 1 298 5 is_stmt 1 view .LVU26
 150              		.loc 1 298 33 view .LVU27
ARM GAS  C:\Users\28576\AppData\Local\Temp\cceCo13F.s 			page 9


 299:../../Middlewares/LVGL/GUI/lvgl/src/widgets/switch/lv_switch.c ****     lv_switch_t * sw = (lv_switch_t *)obj;
 151              		.loc 1 299 5 view .LVU28
 152              	.LVL11:
 300:../../Middlewares/LVGL/GUI/lvgl/src/widgets/switch/lv_switch.c **** 
 301:../../Middlewares/LVGL/GUI/lvgl/src/widgets/switch/lv_switch.c ****     uint32_t anim_dur_full = lv_obj_get_style_anim_duration(obj, LV_PART_MAIN);
 153              		.loc 1 301 5 view .LVU29
 154              	.LBB32:
 155              	.LBI32:
 156              		.file 2 "H:/STM32H7/RGB_LVGL/Middlewares/LVGL/GUI/lvgl/src/core/lv_obj_style_gen.h"
   1:H:/STM32H7/RGB_LVGL/Middlewares/LVGL/GUI/lvgl/src/core\lv_obj_style_gen.h **** 
   2:H:/STM32H7/RGB_LVGL/Middlewares/LVGL/GUI/lvgl/src/core\lv_obj_style_gen.h **** /*
   3:H:/STM32H7/RGB_LVGL/Middlewares/LVGL/GUI/lvgl/src/core\lv_obj_style_gen.h ****  **********************************************************************
   4:H:/STM32H7/RGB_LVGL/Middlewares/LVGL/GUI/lvgl/src/core\lv_obj_style_gen.h ****  *                            DO NOT EDIT
   5:H:/STM32H7/RGB_LVGL/Middlewares/LVGL/GUI/lvgl/src/core\lv_obj_style_gen.h ****  * This file is automatically generated by "style_api_gen.py"
   6:H:/STM32H7/RGB_LVGL/Middlewares/LVGL/GUI/lvgl/src/core\lv_obj_style_gen.h ****  **********************************************************************
   7:H:/STM32H7/RGB_LVGL/Middlewares/LVGL/GUI/lvgl/src/core\lv_obj_style_gen.h ****  */
   8:H:/STM32H7/RGB_LVGL/Middlewares/LVGL/GUI/lvgl/src/core\lv_obj_style_gen.h **** 
   9:H:/STM32H7/RGB_LVGL/Middlewares/LVGL/GUI/lvgl/src/core\lv_obj_style_gen.h **** 
  10:H:/STM32H7/RGB_LVGL/Middlewares/LVGL/GUI/lvgl/src/core\lv_obj_style_gen.h **** #ifndef LV_OBJ_STYLE_GEN_H
  11:H:/STM32H7/RGB_LVGL/Middlewares/LVGL/GUI/lvgl/src/core\lv_obj_style_gen.h **** #define LV_OBJ_STYLE_GEN_H
  12:H:/STM32H7/RGB_LVGL/Middlewares/LVGL/GUI/lvgl/src/core\lv_obj_style_gen.h **** 
  13:H:/STM32H7/RGB_LVGL/Middlewares/LVGL/GUI/lvgl/src/core\lv_obj_style_gen.h **** #ifdef __cplusplus
  14:H:/STM32H7/RGB_LVGL/Middlewares/LVGL/GUI/lvgl/src/core\lv_obj_style_gen.h **** extern "C" {
  15:H:/STM32H7/RGB_LVGL/Middlewares/LVGL/GUI/lvgl/src/core\lv_obj_style_gen.h **** #endif
  16:H:/STM32H7/RGB_LVGL/Middlewares/LVGL/GUI/lvgl/src/core\lv_obj_style_gen.h **** 
  17:H:/STM32H7/RGB_LVGL/Middlewares/LVGL/GUI/lvgl/src/core\lv_obj_style_gen.h **** #include "../misc/lv_area.h"
  18:H:/STM32H7/RGB_LVGL/Middlewares/LVGL/GUI/lvgl/src/core\lv_obj_style_gen.h **** #include "../misc/lv_style.h"
  19:H:/STM32H7/RGB_LVGL/Middlewares/LVGL/GUI/lvgl/src/core\lv_obj_style_gen.h **** #include "../core/lv_obj_style.h"
  20:H:/STM32H7/RGB_LVGL/Middlewares/LVGL/GUI/lvgl/src/core\lv_obj_style_gen.h **** #include "../misc/lv_types.h"
  21:H:/STM32H7/RGB_LVGL/Middlewares/LVGL/GUI/lvgl/src/core\lv_obj_style_gen.h **** 
  22:H:/STM32H7/RGB_LVGL/Middlewares/LVGL/GUI/lvgl/src/core\lv_obj_style_gen.h **** static inline int32_t lv_obj_get_style_width(const lv_obj_t * obj, lv_part_t part)
  23:H:/STM32H7/RGB_LVGL/Middlewares/LVGL/GUI/lvgl/src/core\lv_obj_style_gen.h **** {
  24:H:/STM32H7/RGB_LVGL/Middlewares/LVGL/GUI/lvgl/src/core\lv_obj_style_gen.h ****     lv_style_value_t v = lv_obj_get_style_prop(obj, part, LV_STYLE_WIDTH);
  25:H:/STM32H7/RGB_LVGL/Middlewares/LVGL/GUI/lvgl/src/core\lv_obj_style_gen.h ****     return (int32_t)v.num;
  26:H:/STM32H7/RGB_LVGL/Middlewares/LVGL/GUI/lvgl/src/core\lv_obj_style_gen.h **** }
  27:H:/STM32H7/RGB_LVGL/Middlewares/LVGL/GUI/lvgl/src/core\lv_obj_style_gen.h **** 
  28:H:/STM32H7/RGB_LVGL/Middlewares/LVGL/GUI/lvgl/src/core\lv_obj_style_gen.h **** static inline int32_t lv_obj_get_style_min_width(const lv_obj_t * obj, lv_part_t part)
  29:H:/STM32H7/RGB_LVGL/Middlewares/LVGL/GUI/lvgl/src/core\lv_obj_style_gen.h **** {
  30:H:/STM32H7/RGB_LVGL/Middlewares/LVGL/GUI/lvgl/src/core\lv_obj_style_gen.h ****     lv_style_value_t v = lv_obj_get_style_prop(obj, part, LV_STYLE_MIN_WIDTH);
  31:H:/STM32H7/RGB_LVGL/Middlewares/LVGL/GUI/lvgl/src/core\lv_obj_style_gen.h ****     return (int32_t)v.num;
  32:H:/STM32H7/RGB_LVGL/Middlewares/LVGL/GUI/lvgl/src/core\lv_obj_style_gen.h **** }
  33:H:/STM32H7/RGB_LVGL/Middlewares/LVGL/GUI/lvgl/src/core\lv_obj_style_gen.h **** 
  34:H:/STM32H7/RGB_LVGL/Middlewares/LVGL/GUI/lvgl/src/core\lv_obj_style_gen.h **** static inline int32_t lv_obj_get_style_max_width(const lv_obj_t * obj, lv_part_t part)
  35:H:/STM32H7/RGB_LVGL/Middlewares/LVGL/GUI/lvgl/src/core\lv_obj_style_gen.h **** {
  36:H:/STM32H7/RGB_LVGL/Middlewares/LVGL/GUI/lvgl/src/core\lv_obj_style_gen.h ****     lv_style_value_t v = lv_obj_get_style_prop(obj, part, LV_STYLE_MAX_WIDTH);
  37:H:/STM32H7/RGB_LVGL/Middlewares/LVGL/GUI/lvgl/src/core\lv_obj_style_gen.h ****     return (int32_t)v.num;
  38:H:/STM32H7/RGB_LVGL/Middlewares/LVGL/GUI/lvgl/src/core\lv_obj_style_gen.h **** }
  39:H:/STM32H7/RGB_LVGL/Middlewares/LVGL/GUI/lvgl/src/core\lv_obj_style_gen.h **** 
  40:H:/STM32H7/RGB_LVGL/Middlewares/LVGL/GUI/lvgl/src/core\lv_obj_style_gen.h **** static inline int32_t lv_obj_get_style_height(const lv_obj_t * obj, lv_part_t part)
  41:H:/STM32H7/RGB_LVGL/Middlewares/LVGL/GUI/lvgl/src/core\lv_obj_style_gen.h **** {
  42:H:/STM32H7/RGB_LVGL/Middlewares/LVGL/GUI/lvgl/src/core\lv_obj_style_gen.h ****     lv_style_value_t v = lv_obj_get_style_prop(obj, part, LV_STYLE_HEIGHT);
  43:H:/STM32H7/RGB_LVGL/Middlewares/LVGL/GUI/lvgl/src/core\lv_obj_style_gen.h ****     return (int32_t)v.num;
  44:H:/STM32H7/RGB_LVGL/Middlewares/LVGL/GUI/lvgl/src/core\lv_obj_style_gen.h **** }
  45:H:/STM32H7/RGB_LVGL/Middlewares/LVGL/GUI/lvgl/src/core\lv_obj_style_gen.h **** 
  46:H:/STM32H7/RGB_LVGL/Middlewares/LVGL/GUI/lvgl/src/core\lv_obj_style_gen.h **** static inline int32_t lv_obj_get_style_min_height(const lv_obj_t * obj, lv_part_t part)
  47:H:/STM32H7/RGB_LVGL/Middlewares/LVGL/GUI/lvgl/src/core\lv_obj_style_gen.h **** {
  48:H:/STM32H7/RGB_LVGL/Middlewares/LVGL/GUI/lvgl/src/core\lv_obj_style_gen.h ****     lv_style_value_t v = lv_obj_get_style_prop(obj, part, LV_STYLE_MIN_HEIGHT);
ARM GAS  C:\Users\28576\AppData\Local\Temp\cceCo13F.s 			page 10


  49:H:/STM32H7/RGB_LVGL/Middlewares/LVGL/GUI/lvgl/src/core\lv_obj_style_gen.h ****     return (int32_t)v.num;
  50:H:/STM32H7/RGB_LVGL/Middlewares/LVGL/GUI/lvgl/src/core\lv_obj_style_gen.h **** }
  51:H:/STM32H7/RGB_LVGL/Middlewares/LVGL/GUI/lvgl/src/core\lv_obj_style_gen.h **** 
  52:H:/STM32H7/RGB_LVGL/Middlewares/LVGL/GUI/lvgl/src/core\lv_obj_style_gen.h **** static inline int32_t lv_obj_get_style_max_height(const lv_obj_t * obj, lv_part_t part)
  53:H:/STM32H7/RGB_LVGL/Middlewares/LVGL/GUI/lvgl/src/core\lv_obj_style_gen.h **** {
  54:H:/STM32H7/RGB_LVGL/Middlewares/LVGL/GUI/lvgl/src/core\lv_obj_style_gen.h ****     lv_style_value_t v = lv_obj_get_style_prop(obj, part, LV_STYLE_MAX_HEIGHT);
  55:H:/STM32H7/RGB_LVGL/Middlewares/LVGL/GUI/lvgl/src/core\lv_obj_style_gen.h ****     return (int32_t)v.num;
  56:H:/STM32H7/RGB_LVGL/Middlewares/LVGL/GUI/lvgl/src/core\lv_obj_style_gen.h **** }
  57:H:/STM32H7/RGB_LVGL/Middlewares/LVGL/GUI/lvgl/src/core\lv_obj_style_gen.h **** 
  58:H:/STM32H7/RGB_LVGL/Middlewares/LVGL/GUI/lvgl/src/core\lv_obj_style_gen.h **** static inline int32_t lv_obj_get_style_length(const lv_obj_t * obj, lv_part_t part)
  59:H:/STM32H7/RGB_LVGL/Middlewares/LVGL/GUI/lvgl/src/core\lv_obj_style_gen.h **** {
  60:H:/STM32H7/RGB_LVGL/Middlewares/LVGL/GUI/lvgl/src/core\lv_obj_style_gen.h ****     lv_style_value_t v = lv_obj_get_style_prop(obj, part, LV_STYLE_LENGTH);
  61:H:/STM32H7/RGB_LVGL/Middlewares/LVGL/GUI/lvgl/src/core\lv_obj_style_gen.h ****     return (int32_t)v.num;
  62:H:/STM32H7/RGB_LVGL/Middlewares/LVGL/GUI/lvgl/src/core\lv_obj_style_gen.h **** }
  63:H:/STM32H7/RGB_LVGL/Middlewares/LVGL/GUI/lvgl/src/core\lv_obj_style_gen.h **** 
  64:H:/STM32H7/RGB_LVGL/Middlewares/LVGL/GUI/lvgl/src/core\lv_obj_style_gen.h **** static inline int32_t lv_obj_get_style_x(const lv_obj_t * obj, lv_part_t part)
  65:H:/STM32H7/RGB_LVGL/Middlewares/LVGL/GUI/lvgl/src/core\lv_obj_style_gen.h **** {
  66:H:/STM32H7/RGB_LVGL/Middlewares/LVGL/GUI/lvgl/src/core\lv_obj_style_gen.h ****     lv_style_value_t v = lv_obj_get_style_prop(obj, part, LV_STYLE_X);
  67:H:/STM32H7/RGB_LVGL/Middlewares/LVGL/GUI/lvgl/src/core\lv_obj_style_gen.h ****     return (int32_t)v.num;
  68:H:/STM32H7/RGB_LVGL/Middlewares/LVGL/GUI/lvgl/src/core\lv_obj_style_gen.h **** }
  69:H:/STM32H7/RGB_LVGL/Middlewares/LVGL/GUI/lvgl/src/core\lv_obj_style_gen.h **** 
  70:H:/STM32H7/RGB_LVGL/Middlewares/LVGL/GUI/lvgl/src/core\lv_obj_style_gen.h **** static inline int32_t lv_obj_get_style_y(const lv_obj_t * obj, lv_part_t part)
  71:H:/STM32H7/RGB_LVGL/Middlewares/LVGL/GUI/lvgl/src/core\lv_obj_style_gen.h **** {
  72:H:/STM32H7/RGB_LVGL/Middlewares/LVGL/GUI/lvgl/src/core\lv_obj_style_gen.h ****     lv_style_value_t v = lv_obj_get_style_prop(obj, part, LV_STYLE_Y);
  73:H:/STM32H7/RGB_LVGL/Middlewares/LVGL/GUI/lvgl/src/core\lv_obj_style_gen.h ****     return (int32_t)v.num;
  74:H:/STM32H7/RGB_LVGL/Middlewares/LVGL/GUI/lvgl/src/core\lv_obj_style_gen.h **** }
  75:H:/STM32H7/RGB_LVGL/Middlewares/LVGL/GUI/lvgl/src/core\lv_obj_style_gen.h **** 
  76:H:/STM32H7/RGB_LVGL/Middlewares/LVGL/GUI/lvgl/src/core\lv_obj_style_gen.h **** static inline lv_align_t lv_obj_get_style_align(const lv_obj_t * obj, lv_part_t part)
  77:H:/STM32H7/RGB_LVGL/Middlewares/LVGL/GUI/lvgl/src/core\lv_obj_style_gen.h **** {
  78:H:/STM32H7/RGB_LVGL/Middlewares/LVGL/GUI/lvgl/src/core\lv_obj_style_gen.h ****     lv_style_value_t v = lv_obj_get_style_prop(obj, part, LV_STYLE_ALIGN);
  79:H:/STM32H7/RGB_LVGL/Middlewares/LVGL/GUI/lvgl/src/core\lv_obj_style_gen.h ****     return (lv_align_t)v.num;
  80:H:/STM32H7/RGB_LVGL/Middlewares/LVGL/GUI/lvgl/src/core\lv_obj_style_gen.h **** }
  81:H:/STM32H7/RGB_LVGL/Middlewares/LVGL/GUI/lvgl/src/core\lv_obj_style_gen.h **** 
  82:H:/STM32H7/RGB_LVGL/Middlewares/LVGL/GUI/lvgl/src/core\lv_obj_style_gen.h **** static inline int32_t lv_obj_get_style_transform_width(const lv_obj_t * obj, lv_part_t part)
  83:H:/STM32H7/RGB_LVGL/Middlewares/LVGL/GUI/lvgl/src/core\lv_obj_style_gen.h **** {
  84:H:/STM32H7/RGB_LVGL/Middlewares/LVGL/GUI/lvgl/src/core\lv_obj_style_gen.h ****     lv_style_value_t v = lv_obj_get_style_prop(obj, part, LV_STYLE_TRANSFORM_WIDTH);
  85:H:/STM32H7/RGB_LVGL/Middlewares/LVGL/GUI/lvgl/src/core\lv_obj_style_gen.h ****     return (int32_t)v.num;
  86:H:/STM32H7/RGB_LVGL/Middlewares/LVGL/GUI/lvgl/src/core\lv_obj_style_gen.h **** }
  87:H:/STM32H7/RGB_LVGL/Middlewares/LVGL/GUI/lvgl/src/core\lv_obj_style_gen.h **** 
  88:H:/STM32H7/RGB_LVGL/Middlewares/LVGL/GUI/lvgl/src/core\lv_obj_style_gen.h **** static inline int32_t lv_obj_get_style_transform_height(const lv_obj_t * obj, lv_part_t part)
  89:H:/STM32H7/RGB_LVGL/Middlewares/LVGL/GUI/lvgl/src/core\lv_obj_style_gen.h **** {
  90:H:/STM32H7/RGB_LVGL/Middlewares/LVGL/GUI/lvgl/src/core\lv_obj_style_gen.h ****     lv_style_value_t v = lv_obj_get_style_prop(obj, part, LV_STYLE_TRANSFORM_HEIGHT);
  91:H:/STM32H7/RGB_LVGL/Middlewares/LVGL/GUI/lvgl/src/core\lv_obj_style_gen.h ****     return (int32_t)v.num;
  92:H:/STM32H7/RGB_LVGL/Middlewares/LVGL/GUI/lvgl/src/core\lv_obj_style_gen.h **** }
  93:H:/STM32H7/RGB_LVGL/Middlewares/LVGL/GUI/lvgl/src/core\lv_obj_style_gen.h **** 
  94:H:/STM32H7/RGB_LVGL/Middlewares/LVGL/GUI/lvgl/src/core\lv_obj_style_gen.h **** static inline int32_t lv_obj_get_style_translate_x(const lv_obj_t * obj, lv_part_t part)
  95:H:/STM32H7/RGB_LVGL/Middlewares/LVGL/GUI/lvgl/src/core\lv_obj_style_gen.h **** {
  96:H:/STM32H7/RGB_LVGL/Middlewares/LVGL/GUI/lvgl/src/core\lv_obj_style_gen.h ****     lv_style_value_t v = lv_obj_get_style_prop(obj, part, LV_STYLE_TRANSLATE_X);
  97:H:/STM32H7/RGB_LVGL/Middlewares/LVGL/GUI/lvgl/src/core\lv_obj_style_gen.h ****     return (int32_t)v.num;
  98:H:/STM32H7/RGB_LVGL/Middlewares/LVGL/GUI/lvgl/src/core\lv_obj_style_gen.h **** }
  99:H:/STM32H7/RGB_LVGL/Middlewares/LVGL/GUI/lvgl/src/core\lv_obj_style_gen.h **** 
 100:H:/STM32H7/RGB_LVGL/Middlewares/LVGL/GUI/lvgl/src/core\lv_obj_style_gen.h **** static inline int32_t lv_obj_get_style_translate_y(const lv_obj_t * obj, lv_part_t part)
 101:H:/STM32H7/RGB_LVGL/Middlewares/LVGL/GUI/lvgl/src/core\lv_obj_style_gen.h **** {
 102:H:/STM32H7/RGB_LVGL/Middlewares/LVGL/GUI/lvgl/src/core\lv_obj_style_gen.h ****     lv_style_value_t v = lv_obj_get_style_prop(obj, part, LV_STYLE_TRANSLATE_Y);
 103:H:/STM32H7/RGB_LVGL/Middlewares/LVGL/GUI/lvgl/src/core\lv_obj_style_gen.h ****     return (int32_t)v.num;
 104:H:/STM32H7/RGB_LVGL/Middlewares/LVGL/GUI/lvgl/src/core\lv_obj_style_gen.h **** }
 105:H:/STM32H7/RGB_LVGL/Middlewares/LVGL/GUI/lvgl/src/core\lv_obj_style_gen.h **** 
ARM GAS  C:\Users\28576\AppData\Local\Temp\cceCo13F.s 			page 11


 106:H:/STM32H7/RGB_LVGL/Middlewares/LVGL/GUI/lvgl/src/core\lv_obj_style_gen.h **** static inline int32_t lv_obj_get_style_translate_radial(const lv_obj_t * obj, lv_part_t part)
 107:H:/STM32H7/RGB_LVGL/Middlewares/LVGL/GUI/lvgl/src/core\lv_obj_style_gen.h **** {
 108:H:/STM32H7/RGB_LVGL/Middlewares/LVGL/GUI/lvgl/src/core\lv_obj_style_gen.h ****     lv_style_value_t v = lv_obj_get_style_prop(obj, part, LV_STYLE_TRANSLATE_RADIAL);
 109:H:/STM32H7/RGB_LVGL/Middlewares/LVGL/GUI/lvgl/src/core\lv_obj_style_gen.h ****     return (int32_t)v.num;
 110:H:/STM32H7/RGB_LVGL/Middlewares/LVGL/GUI/lvgl/src/core\lv_obj_style_gen.h **** }
 111:H:/STM32H7/RGB_LVGL/Middlewares/LVGL/GUI/lvgl/src/core\lv_obj_style_gen.h **** 
 112:H:/STM32H7/RGB_LVGL/Middlewares/LVGL/GUI/lvgl/src/core\lv_obj_style_gen.h **** static inline int32_t lv_obj_get_style_transform_scale_x(const lv_obj_t * obj, lv_part_t part)
 113:H:/STM32H7/RGB_LVGL/Middlewares/LVGL/GUI/lvgl/src/core\lv_obj_style_gen.h **** {
 114:H:/STM32H7/RGB_LVGL/Middlewares/LVGL/GUI/lvgl/src/core\lv_obj_style_gen.h ****     lv_style_value_t v = lv_obj_get_style_prop(obj, part, LV_STYLE_TRANSFORM_SCALE_X);
 115:H:/STM32H7/RGB_LVGL/Middlewares/LVGL/GUI/lvgl/src/core\lv_obj_style_gen.h ****     return (int32_t)v.num;
 116:H:/STM32H7/RGB_LVGL/Middlewares/LVGL/GUI/lvgl/src/core\lv_obj_style_gen.h **** }
 117:H:/STM32H7/RGB_LVGL/Middlewares/LVGL/GUI/lvgl/src/core\lv_obj_style_gen.h **** 
 118:H:/STM32H7/RGB_LVGL/Middlewares/LVGL/GUI/lvgl/src/core\lv_obj_style_gen.h **** static inline int32_t lv_obj_get_style_transform_scale_y(const lv_obj_t * obj, lv_part_t part)
 119:H:/STM32H7/RGB_LVGL/Middlewares/LVGL/GUI/lvgl/src/core\lv_obj_style_gen.h **** {
 120:H:/STM32H7/RGB_LVGL/Middlewares/LVGL/GUI/lvgl/src/core\lv_obj_style_gen.h ****     lv_style_value_t v = lv_obj_get_style_prop(obj, part, LV_STYLE_TRANSFORM_SCALE_Y);
 121:H:/STM32H7/RGB_LVGL/Middlewares/LVGL/GUI/lvgl/src/core\lv_obj_style_gen.h ****     return (int32_t)v.num;
 122:H:/STM32H7/RGB_LVGL/Middlewares/LVGL/GUI/lvgl/src/core\lv_obj_style_gen.h **** }
 123:H:/STM32H7/RGB_LVGL/Middlewares/LVGL/GUI/lvgl/src/core\lv_obj_style_gen.h **** 
 124:H:/STM32H7/RGB_LVGL/Middlewares/LVGL/GUI/lvgl/src/core\lv_obj_style_gen.h **** static inline int32_t lv_obj_get_style_transform_rotation(const lv_obj_t * obj, lv_part_t part)
 125:H:/STM32H7/RGB_LVGL/Middlewares/LVGL/GUI/lvgl/src/core\lv_obj_style_gen.h **** {
 126:H:/STM32H7/RGB_LVGL/Middlewares/LVGL/GUI/lvgl/src/core\lv_obj_style_gen.h ****     lv_style_value_t v = lv_obj_get_style_prop(obj, part, LV_STYLE_TRANSFORM_ROTATION);
 127:H:/STM32H7/RGB_LVGL/Middlewares/LVGL/GUI/lvgl/src/core\lv_obj_style_gen.h ****     return (int32_t)v.num;
 128:H:/STM32H7/RGB_LVGL/Middlewares/LVGL/GUI/lvgl/src/core\lv_obj_style_gen.h **** }
 129:H:/STM32H7/RGB_LVGL/Middlewares/LVGL/GUI/lvgl/src/core\lv_obj_style_gen.h **** 
 130:H:/STM32H7/RGB_LVGL/Middlewares/LVGL/GUI/lvgl/src/core\lv_obj_style_gen.h **** static inline int32_t lv_obj_get_style_transform_pivot_x(const lv_obj_t * obj, lv_part_t part)
 131:H:/STM32H7/RGB_LVGL/Middlewares/LVGL/GUI/lvgl/src/core\lv_obj_style_gen.h **** {
 132:H:/STM32H7/RGB_LVGL/Middlewares/LVGL/GUI/lvgl/src/core\lv_obj_style_gen.h ****     lv_style_value_t v = lv_obj_get_style_prop(obj, part, LV_STYLE_TRANSFORM_PIVOT_X);
 133:H:/STM32H7/RGB_LVGL/Middlewares/LVGL/GUI/lvgl/src/core\lv_obj_style_gen.h ****     return (int32_t)v.num;
 134:H:/STM32H7/RGB_LVGL/Middlewares/LVGL/GUI/lvgl/src/core\lv_obj_style_gen.h **** }
 135:H:/STM32H7/RGB_LVGL/Middlewares/LVGL/GUI/lvgl/src/core\lv_obj_style_gen.h **** 
 136:H:/STM32H7/RGB_LVGL/Middlewares/LVGL/GUI/lvgl/src/core\lv_obj_style_gen.h **** static inline int32_t lv_obj_get_style_transform_pivot_y(const lv_obj_t * obj, lv_part_t part)
 137:H:/STM32H7/RGB_LVGL/Middlewares/LVGL/GUI/lvgl/src/core\lv_obj_style_gen.h **** {
 138:H:/STM32H7/RGB_LVGL/Middlewares/LVGL/GUI/lvgl/src/core\lv_obj_style_gen.h ****     lv_style_value_t v = lv_obj_get_style_prop(obj, part, LV_STYLE_TRANSFORM_PIVOT_Y);
 139:H:/STM32H7/RGB_LVGL/Middlewares/LVGL/GUI/lvgl/src/core\lv_obj_style_gen.h ****     return (int32_t)v.num;
 140:H:/STM32H7/RGB_LVGL/Middlewares/LVGL/GUI/lvgl/src/core\lv_obj_style_gen.h **** }
 141:H:/STM32H7/RGB_LVGL/Middlewares/LVGL/GUI/lvgl/src/core\lv_obj_style_gen.h **** 
 142:H:/STM32H7/RGB_LVGL/Middlewares/LVGL/GUI/lvgl/src/core\lv_obj_style_gen.h **** static inline int32_t lv_obj_get_style_transform_skew_x(const lv_obj_t * obj, lv_part_t part)
 143:H:/STM32H7/RGB_LVGL/Middlewares/LVGL/GUI/lvgl/src/core\lv_obj_style_gen.h **** {
 144:H:/STM32H7/RGB_LVGL/Middlewares/LVGL/GUI/lvgl/src/core\lv_obj_style_gen.h ****     lv_style_value_t v = lv_obj_get_style_prop(obj, part, LV_STYLE_TRANSFORM_SKEW_X);
 145:H:/STM32H7/RGB_LVGL/Middlewares/LVGL/GUI/lvgl/src/core\lv_obj_style_gen.h ****     return (int32_t)v.num;
 146:H:/STM32H7/RGB_LVGL/Middlewares/LVGL/GUI/lvgl/src/core\lv_obj_style_gen.h **** }
 147:H:/STM32H7/RGB_LVGL/Middlewares/LVGL/GUI/lvgl/src/core\lv_obj_style_gen.h **** 
 148:H:/STM32H7/RGB_LVGL/Middlewares/LVGL/GUI/lvgl/src/core\lv_obj_style_gen.h **** static inline int32_t lv_obj_get_style_transform_skew_y(const lv_obj_t * obj, lv_part_t part)
 149:H:/STM32H7/RGB_LVGL/Middlewares/LVGL/GUI/lvgl/src/core\lv_obj_style_gen.h **** {
 150:H:/STM32H7/RGB_LVGL/Middlewares/LVGL/GUI/lvgl/src/core\lv_obj_style_gen.h ****     lv_style_value_t v = lv_obj_get_style_prop(obj, part, LV_STYLE_TRANSFORM_SKEW_Y);
 151:H:/STM32H7/RGB_LVGL/Middlewares/LVGL/GUI/lvgl/src/core\lv_obj_style_gen.h ****     return (int32_t)v.num;
 152:H:/STM32H7/RGB_LVGL/Middlewares/LVGL/GUI/lvgl/src/core\lv_obj_style_gen.h **** }
 153:H:/STM32H7/RGB_LVGL/Middlewares/LVGL/GUI/lvgl/src/core\lv_obj_style_gen.h **** 
 154:H:/STM32H7/RGB_LVGL/Middlewares/LVGL/GUI/lvgl/src/core\lv_obj_style_gen.h **** static inline int32_t lv_obj_get_style_pad_top(const lv_obj_t * obj, lv_part_t part)
 155:H:/STM32H7/RGB_LVGL/Middlewares/LVGL/GUI/lvgl/src/core\lv_obj_style_gen.h **** {
 156:H:/STM32H7/RGB_LVGL/Middlewares/LVGL/GUI/lvgl/src/core\lv_obj_style_gen.h ****     lv_style_value_t v = lv_obj_get_style_prop(obj, part, LV_STYLE_PAD_TOP);
 157:H:/STM32H7/RGB_LVGL/Middlewares/LVGL/GUI/lvgl/src/core\lv_obj_style_gen.h ****     return (int32_t)v.num;
 158:H:/STM32H7/RGB_LVGL/Middlewares/LVGL/GUI/lvgl/src/core\lv_obj_style_gen.h **** }
 159:H:/STM32H7/RGB_LVGL/Middlewares/LVGL/GUI/lvgl/src/core\lv_obj_style_gen.h **** 
 160:H:/STM32H7/RGB_LVGL/Middlewares/LVGL/GUI/lvgl/src/core\lv_obj_style_gen.h **** static inline int32_t lv_obj_get_style_pad_bottom(const lv_obj_t * obj, lv_part_t part)
 161:H:/STM32H7/RGB_LVGL/Middlewares/LVGL/GUI/lvgl/src/core\lv_obj_style_gen.h **** {
 162:H:/STM32H7/RGB_LVGL/Middlewares/LVGL/GUI/lvgl/src/core\lv_obj_style_gen.h ****     lv_style_value_t v = lv_obj_get_style_prop(obj, part, LV_STYLE_PAD_BOTTOM);
ARM GAS  C:\Users\28576\AppData\Local\Temp\cceCo13F.s 			page 12


 163:H:/STM32H7/RGB_LVGL/Middlewares/LVGL/GUI/lvgl/src/core\lv_obj_style_gen.h ****     return (int32_t)v.num;
 164:H:/STM32H7/RGB_LVGL/Middlewares/LVGL/GUI/lvgl/src/core\lv_obj_style_gen.h **** }
 165:H:/STM32H7/RGB_LVGL/Middlewares/LVGL/GUI/lvgl/src/core\lv_obj_style_gen.h **** 
 166:H:/STM32H7/RGB_LVGL/Middlewares/LVGL/GUI/lvgl/src/core\lv_obj_style_gen.h **** static inline int32_t lv_obj_get_style_pad_left(const lv_obj_t * obj, lv_part_t part)
 167:H:/STM32H7/RGB_LVGL/Middlewares/LVGL/GUI/lvgl/src/core\lv_obj_style_gen.h **** {
 168:H:/STM32H7/RGB_LVGL/Middlewares/LVGL/GUI/lvgl/src/core\lv_obj_style_gen.h ****     lv_style_value_t v = lv_obj_get_style_prop(obj, part, LV_STYLE_PAD_LEFT);
 169:H:/STM32H7/RGB_LVGL/Middlewares/LVGL/GUI/lvgl/src/core\lv_obj_style_gen.h ****     return (int32_t)v.num;
 170:H:/STM32H7/RGB_LVGL/Middlewares/LVGL/GUI/lvgl/src/core\lv_obj_style_gen.h **** }
 171:H:/STM32H7/RGB_LVGL/Middlewares/LVGL/GUI/lvgl/src/core\lv_obj_style_gen.h **** 
 172:H:/STM32H7/RGB_LVGL/Middlewares/LVGL/GUI/lvgl/src/core\lv_obj_style_gen.h **** static inline int32_t lv_obj_get_style_pad_right(const lv_obj_t * obj, lv_part_t part)
 173:H:/STM32H7/RGB_LVGL/Middlewares/LVGL/GUI/lvgl/src/core\lv_obj_style_gen.h **** {
 174:H:/STM32H7/RGB_LVGL/Middlewares/LVGL/GUI/lvgl/src/core\lv_obj_style_gen.h ****     lv_style_value_t v = lv_obj_get_style_prop(obj, part, LV_STYLE_PAD_RIGHT);
 175:H:/STM32H7/RGB_LVGL/Middlewares/LVGL/GUI/lvgl/src/core\lv_obj_style_gen.h ****     return (int32_t)v.num;
 176:H:/STM32H7/RGB_LVGL/Middlewares/LVGL/GUI/lvgl/src/core\lv_obj_style_gen.h **** }
 177:H:/STM32H7/RGB_LVGL/Middlewares/LVGL/GUI/lvgl/src/core\lv_obj_style_gen.h **** 
 178:H:/STM32H7/RGB_LVGL/Middlewares/LVGL/GUI/lvgl/src/core\lv_obj_style_gen.h **** static inline int32_t lv_obj_get_style_pad_row(const lv_obj_t * obj, lv_part_t part)
 179:H:/STM32H7/RGB_LVGL/Middlewares/LVGL/GUI/lvgl/src/core\lv_obj_style_gen.h **** {
 180:H:/STM32H7/RGB_LVGL/Middlewares/LVGL/GUI/lvgl/src/core\lv_obj_style_gen.h ****     lv_style_value_t v = lv_obj_get_style_prop(obj, part, LV_STYLE_PAD_ROW);
 181:H:/STM32H7/RGB_LVGL/Middlewares/LVGL/GUI/lvgl/src/core\lv_obj_style_gen.h ****     return (int32_t)v.num;
 182:H:/STM32H7/RGB_LVGL/Middlewares/LVGL/GUI/lvgl/src/core\lv_obj_style_gen.h **** }
 183:H:/STM32H7/RGB_LVGL/Middlewares/LVGL/GUI/lvgl/src/core\lv_obj_style_gen.h **** 
 184:H:/STM32H7/RGB_LVGL/Middlewares/LVGL/GUI/lvgl/src/core\lv_obj_style_gen.h **** static inline int32_t lv_obj_get_style_pad_column(const lv_obj_t * obj, lv_part_t part)
 185:H:/STM32H7/RGB_LVGL/Middlewares/LVGL/GUI/lvgl/src/core\lv_obj_style_gen.h **** {
 186:H:/STM32H7/RGB_LVGL/Middlewares/LVGL/GUI/lvgl/src/core\lv_obj_style_gen.h ****     lv_style_value_t v = lv_obj_get_style_prop(obj, part, LV_STYLE_PAD_COLUMN);
 187:H:/STM32H7/RGB_LVGL/Middlewares/LVGL/GUI/lvgl/src/core\lv_obj_style_gen.h ****     return (int32_t)v.num;
 188:H:/STM32H7/RGB_LVGL/Middlewares/LVGL/GUI/lvgl/src/core\lv_obj_style_gen.h **** }
 189:H:/STM32H7/RGB_LVGL/Middlewares/LVGL/GUI/lvgl/src/core\lv_obj_style_gen.h **** 
 190:H:/STM32H7/RGB_LVGL/Middlewares/LVGL/GUI/lvgl/src/core\lv_obj_style_gen.h **** static inline int32_t lv_obj_get_style_pad_radial(const lv_obj_t * obj, lv_part_t part)
 191:H:/STM32H7/RGB_LVGL/Middlewares/LVGL/GUI/lvgl/src/core\lv_obj_style_gen.h **** {
 192:H:/STM32H7/RGB_LVGL/Middlewares/LVGL/GUI/lvgl/src/core\lv_obj_style_gen.h ****     lv_style_value_t v = lv_obj_get_style_prop(obj, part, LV_STYLE_PAD_RADIAL);
 193:H:/STM32H7/RGB_LVGL/Middlewares/LVGL/GUI/lvgl/src/core\lv_obj_style_gen.h ****     return (int32_t)v.num;
 194:H:/STM32H7/RGB_LVGL/Middlewares/LVGL/GUI/lvgl/src/core\lv_obj_style_gen.h **** }
 195:H:/STM32H7/RGB_LVGL/Middlewares/LVGL/GUI/lvgl/src/core\lv_obj_style_gen.h **** 
 196:H:/STM32H7/RGB_LVGL/Middlewares/LVGL/GUI/lvgl/src/core\lv_obj_style_gen.h **** static inline int32_t lv_obj_get_style_margin_top(const lv_obj_t * obj, lv_part_t part)
 197:H:/STM32H7/RGB_LVGL/Middlewares/LVGL/GUI/lvgl/src/core\lv_obj_style_gen.h **** {
 198:H:/STM32H7/RGB_LVGL/Middlewares/LVGL/GUI/lvgl/src/core\lv_obj_style_gen.h ****     lv_style_value_t v = lv_obj_get_style_prop(obj, part, LV_STYLE_MARGIN_TOP);
 199:H:/STM32H7/RGB_LVGL/Middlewares/LVGL/GUI/lvgl/src/core\lv_obj_style_gen.h ****     return (int32_t)v.num;
 200:H:/STM32H7/RGB_LVGL/Middlewares/LVGL/GUI/lvgl/src/core\lv_obj_style_gen.h **** }
 201:H:/STM32H7/RGB_LVGL/Middlewares/LVGL/GUI/lvgl/src/core\lv_obj_style_gen.h **** 
 202:H:/STM32H7/RGB_LVGL/Middlewares/LVGL/GUI/lvgl/src/core\lv_obj_style_gen.h **** static inline int32_t lv_obj_get_style_margin_bottom(const lv_obj_t * obj, lv_part_t part)
 203:H:/STM32H7/RGB_LVGL/Middlewares/LVGL/GUI/lvgl/src/core\lv_obj_style_gen.h **** {
 204:H:/STM32H7/RGB_LVGL/Middlewares/LVGL/GUI/lvgl/src/core\lv_obj_style_gen.h ****     lv_style_value_t v = lv_obj_get_style_prop(obj, part, LV_STYLE_MARGIN_BOTTOM);
 205:H:/STM32H7/RGB_LVGL/Middlewares/LVGL/GUI/lvgl/src/core\lv_obj_style_gen.h ****     return (int32_t)v.num;
 206:H:/STM32H7/RGB_LVGL/Middlewares/LVGL/GUI/lvgl/src/core\lv_obj_style_gen.h **** }
 207:H:/STM32H7/RGB_LVGL/Middlewares/LVGL/GUI/lvgl/src/core\lv_obj_style_gen.h **** 
 208:H:/STM32H7/RGB_LVGL/Middlewares/LVGL/GUI/lvgl/src/core\lv_obj_style_gen.h **** static inline int32_t lv_obj_get_style_margin_left(const lv_obj_t * obj, lv_part_t part)
 209:H:/STM32H7/RGB_LVGL/Middlewares/LVGL/GUI/lvgl/src/core\lv_obj_style_gen.h **** {
 210:H:/STM32H7/RGB_LVGL/Middlewares/LVGL/GUI/lvgl/src/core\lv_obj_style_gen.h ****     lv_style_value_t v = lv_obj_get_style_prop(obj, part, LV_STYLE_MARGIN_LEFT);
 211:H:/STM32H7/RGB_LVGL/Middlewares/LVGL/GUI/lvgl/src/core\lv_obj_style_gen.h ****     return (int32_t)v.num;
 212:H:/STM32H7/RGB_LVGL/Middlewares/LVGL/GUI/lvgl/src/core\lv_obj_style_gen.h **** }
 213:H:/STM32H7/RGB_LVGL/Middlewares/LVGL/GUI/lvgl/src/core\lv_obj_style_gen.h **** 
 214:H:/STM32H7/RGB_LVGL/Middlewares/LVGL/GUI/lvgl/src/core\lv_obj_style_gen.h **** static inline int32_t lv_obj_get_style_margin_right(const lv_obj_t * obj, lv_part_t part)
 215:H:/STM32H7/RGB_LVGL/Middlewares/LVGL/GUI/lvgl/src/core\lv_obj_style_gen.h **** {
 216:H:/STM32H7/RGB_LVGL/Middlewares/LVGL/GUI/lvgl/src/core\lv_obj_style_gen.h ****     lv_style_value_t v = lv_obj_get_style_prop(obj, part, LV_STYLE_MARGIN_RIGHT);
 217:H:/STM32H7/RGB_LVGL/Middlewares/LVGL/GUI/lvgl/src/core\lv_obj_style_gen.h ****     return (int32_t)v.num;
 218:H:/STM32H7/RGB_LVGL/Middlewares/LVGL/GUI/lvgl/src/core\lv_obj_style_gen.h **** }
 219:H:/STM32H7/RGB_LVGL/Middlewares/LVGL/GUI/lvgl/src/core\lv_obj_style_gen.h **** 
ARM GAS  C:\Users\28576\AppData\Local\Temp\cceCo13F.s 			page 13


 220:H:/STM32H7/RGB_LVGL/Middlewares/LVGL/GUI/lvgl/src/core\lv_obj_style_gen.h **** static inline lv_color_t lv_obj_get_style_bg_color(const lv_obj_t * obj, lv_part_t part)
 221:H:/STM32H7/RGB_LVGL/Middlewares/LVGL/GUI/lvgl/src/core\lv_obj_style_gen.h **** {
 222:H:/STM32H7/RGB_LVGL/Middlewares/LVGL/GUI/lvgl/src/core\lv_obj_style_gen.h ****     lv_style_value_t v = lv_obj_get_style_prop(obj, part, LV_STYLE_BG_COLOR);
 223:H:/STM32H7/RGB_LVGL/Middlewares/LVGL/GUI/lvgl/src/core\lv_obj_style_gen.h ****     return v.color;
 224:H:/STM32H7/RGB_LVGL/Middlewares/LVGL/GUI/lvgl/src/core\lv_obj_style_gen.h **** }
 225:H:/STM32H7/RGB_LVGL/Middlewares/LVGL/GUI/lvgl/src/core\lv_obj_style_gen.h **** 
 226:H:/STM32H7/RGB_LVGL/Middlewares/LVGL/GUI/lvgl/src/core\lv_obj_style_gen.h **** static inline lv_color_t lv_obj_get_style_bg_color_filtered(const lv_obj_t * obj, lv_part_t part)
 227:H:/STM32H7/RGB_LVGL/Middlewares/LVGL/GUI/lvgl/src/core\lv_obj_style_gen.h **** {
 228:H:/STM32H7/RGB_LVGL/Middlewares/LVGL/GUI/lvgl/src/core\lv_obj_style_gen.h ****     lv_style_value_t v = lv_obj_style_apply_color_filter(obj, part, lv_obj_get_style_prop(obj, part
 229:H:/STM32H7/RGB_LVGL/Middlewares/LVGL/GUI/lvgl/src/core\lv_obj_style_gen.h ****     return v.color;
 230:H:/STM32H7/RGB_LVGL/Middlewares/LVGL/GUI/lvgl/src/core\lv_obj_style_gen.h **** }
 231:H:/STM32H7/RGB_LVGL/Middlewares/LVGL/GUI/lvgl/src/core\lv_obj_style_gen.h **** 
 232:H:/STM32H7/RGB_LVGL/Middlewares/LVGL/GUI/lvgl/src/core\lv_obj_style_gen.h **** static inline lv_opa_t lv_obj_get_style_bg_opa(const lv_obj_t * obj, lv_part_t part)
 233:H:/STM32H7/RGB_LVGL/Middlewares/LVGL/GUI/lvgl/src/core\lv_obj_style_gen.h **** {
 234:H:/STM32H7/RGB_LVGL/Middlewares/LVGL/GUI/lvgl/src/core\lv_obj_style_gen.h ****     lv_style_value_t v = lv_obj_get_style_prop(obj, part, LV_STYLE_BG_OPA);
 235:H:/STM32H7/RGB_LVGL/Middlewares/LVGL/GUI/lvgl/src/core\lv_obj_style_gen.h ****     return (lv_opa_t)v.num;
 236:H:/STM32H7/RGB_LVGL/Middlewares/LVGL/GUI/lvgl/src/core\lv_obj_style_gen.h **** }
 237:H:/STM32H7/RGB_LVGL/Middlewares/LVGL/GUI/lvgl/src/core\lv_obj_style_gen.h **** 
 238:H:/STM32H7/RGB_LVGL/Middlewares/LVGL/GUI/lvgl/src/core\lv_obj_style_gen.h **** static inline lv_color_t lv_obj_get_style_bg_grad_color(const lv_obj_t * obj, lv_part_t part)
 239:H:/STM32H7/RGB_LVGL/Middlewares/LVGL/GUI/lvgl/src/core\lv_obj_style_gen.h **** {
 240:H:/STM32H7/RGB_LVGL/Middlewares/LVGL/GUI/lvgl/src/core\lv_obj_style_gen.h ****     lv_style_value_t v = lv_obj_get_style_prop(obj, part, LV_STYLE_BG_GRAD_COLOR);
 241:H:/STM32H7/RGB_LVGL/Middlewares/LVGL/GUI/lvgl/src/core\lv_obj_style_gen.h ****     return v.color;
 242:H:/STM32H7/RGB_LVGL/Middlewares/LVGL/GUI/lvgl/src/core\lv_obj_style_gen.h **** }
 243:H:/STM32H7/RGB_LVGL/Middlewares/LVGL/GUI/lvgl/src/core\lv_obj_style_gen.h **** 
 244:H:/STM32H7/RGB_LVGL/Middlewares/LVGL/GUI/lvgl/src/core\lv_obj_style_gen.h **** static inline lv_color_t lv_obj_get_style_bg_grad_color_filtered(const lv_obj_t * obj, lv_part_t pa
 245:H:/STM32H7/RGB_LVGL/Middlewares/LVGL/GUI/lvgl/src/core\lv_obj_style_gen.h **** {
 246:H:/STM32H7/RGB_LVGL/Middlewares/LVGL/GUI/lvgl/src/core\lv_obj_style_gen.h ****     lv_style_value_t v = lv_obj_style_apply_color_filter(obj, part, lv_obj_get_style_prop(obj, part
 247:H:/STM32H7/RGB_LVGL/Middlewares/LVGL/GUI/lvgl/src/core\lv_obj_style_gen.h ****     return v.color;
 248:H:/STM32H7/RGB_LVGL/Middlewares/LVGL/GUI/lvgl/src/core\lv_obj_style_gen.h **** }
 249:H:/STM32H7/RGB_LVGL/Middlewares/LVGL/GUI/lvgl/src/core\lv_obj_style_gen.h **** 
 250:H:/STM32H7/RGB_LVGL/Middlewares/LVGL/GUI/lvgl/src/core\lv_obj_style_gen.h **** static inline lv_grad_dir_t lv_obj_get_style_bg_grad_dir(const lv_obj_t * obj, lv_part_t part)
 251:H:/STM32H7/RGB_LVGL/Middlewares/LVGL/GUI/lvgl/src/core\lv_obj_style_gen.h **** {
 252:H:/STM32H7/RGB_LVGL/Middlewares/LVGL/GUI/lvgl/src/core\lv_obj_style_gen.h ****     lv_style_value_t v = lv_obj_get_style_prop(obj, part, LV_STYLE_BG_GRAD_DIR);
 253:H:/STM32H7/RGB_LVGL/Middlewares/LVGL/GUI/lvgl/src/core\lv_obj_style_gen.h ****     return (lv_grad_dir_t)v.num;
 254:H:/STM32H7/RGB_LVGL/Middlewares/LVGL/GUI/lvgl/src/core\lv_obj_style_gen.h **** }
 255:H:/STM32H7/RGB_LVGL/Middlewares/LVGL/GUI/lvgl/src/core\lv_obj_style_gen.h **** 
 256:H:/STM32H7/RGB_LVGL/Middlewares/LVGL/GUI/lvgl/src/core\lv_obj_style_gen.h **** static inline int32_t lv_obj_get_style_bg_main_stop(const lv_obj_t * obj, lv_part_t part)
 257:H:/STM32H7/RGB_LVGL/Middlewares/LVGL/GUI/lvgl/src/core\lv_obj_style_gen.h **** {
 258:H:/STM32H7/RGB_LVGL/Middlewares/LVGL/GUI/lvgl/src/core\lv_obj_style_gen.h ****     lv_style_value_t v = lv_obj_get_style_prop(obj, part, LV_STYLE_BG_MAIN_STOP);
 259:H:/STM32H7/RGB_LVGL/Middlewares/LVGL/GUI/lvgl/src/core\lv_obj_style_gen.h ****     return (int32_t)v.num;
 260:H:/STM32H7/RGB_LVGL/Middlewares/LVGL/GUI/lvgl/src/core\lv_obj_style_gen.h **** }
 261:H:/STM32H7/RGB_LVGL/Middlewares/LVGL/GUI/lvgl/src/core\lv_obj_style_gen.h **** 
 262:H:/STM32H7/RGB_LVGL/Middlewares/LVGL/GUI/lvgl/src/core\lv_obj_style_gen.h **** static inline int32_t lv_obj_get_style_bg_grad_stop(const lv_obj_t * obj, lv_part_t part)
 263:H:/STM32H7/RGB_LVGL/Middlewares/LVGL/GUI/lvgl/src/core\lv_obj_style_gen.h **** {
 264:H:/STM32H7/RGB_LVGL/Middlewares/LVGL/GUI/lvgl/src/core\lv_obj_style_gen.h ****     lv_style_value_t v = lv_obj_get_style_prop(obj, part, LV_STYLE_BG_GRAD_STOP);
 265:H:/STM32H7/RGB_LVGL/Middlewares/LVGL/GUI/lvgl/src/core\lv_obj_style_gen.h ****     return (int32_t)v.num;
 266:H:/STM32H7/RGB_LVGL/Middlewares/LVGL/GUI/lvgl/src/core\lv_obj_style_gen.h **** }
 267:H:/STM32H7/RGB_LVGL/Middlewares/LVGL/GUI/lvgl/src/core\lv_obj_style_gen.h **** 
 268:H:/STM32H7/RGB_LVGL/Middlewares/LVGL/GUI/lvgl/src/core\lv_obj_style_gen.h **** static inline lv_opa_t lv_obj_get_style_bg_main_opa(const lv_obj_t * obj, lv_part_t part)
 269:H:/STM32H7/RGB_LVGL/Middlewares/LVGL/GUI/lvgl/src/core\lv_obj_style_gen.h **** {
 270:H:/STM32H7/RGB_LVGL/Middlewares/LVGL/GUI/lvgl/src/core\lv_obj_style_gen.h ****     lv_style_value_t v = lv_obj_get_style_prop(obj, part, LV_STYLE_BG_MAIN_OPA);
 271:H:/STM32H7/RGB_LVGL/Middlewares/LVGL/GUI/lvgl/src/core\lv_obj_style_gen.h ****     return (lv_opa_t)v.num;
 272:H:/STM32H7/RGB_LVGL/Middlewares/LVGL/GUI/lvgl/src/core\lv_obj_style_gen.h **** }
 273:H:/STM32H7/RGB_LVGL/Middlewares/LVGL/GUI/lvgl/src/core\lv_obj_style_gen.h **** 
 274:H:/STM32H7/RGB_LVGL/Middlewares/LVGL/GUI/lvgl/src/core\lv_obj_style_gen.h **** static inline lv_opa_t lv_obj_get_style_bg_grad_opa(const lv_obj_t * obj, lv_part_t part)
 275:H:/STM32H7/RGB_LVGL/Middlewares/LVGL/GUI/lvgl/src/core\lv_obj_style_gen.h **** {
 276:H:/STM32H7/RGB_LVGL/Middlewares/LVGL/GUI/lvgl/src/core\lv_obj_style_gen.h ****     lv_style_value_t v = lv_obj_get_style_prop(obj, part, LV_STYLE_BG_GRAD_OPA);
ARM GAS  C:\Users\28576\AppData\Local\Temp\cceCo13F.s 			page 14


 277:H:/STM32H7/RGB_LVGL/Middlewares/LVGL/GUI/lvgl/src/core\lv_obj_style_gen.h ****     return (lv_opa_t)v.num;
 278:H:/STM32H7/RGB_LVGL/Middlewares/LVGL/GUI/lvgl/src/core\lv_obj_style_gen.h **** }
 279:H:/STM32H7/RGB_LVGL/Middlewares/LVGL/GUI/lvgl/src/core\lv_obj_style_gen.h **** 
 280:H:/STM32H7/RGB_LVGL/Middlewares/LVGL/GUI/lvgl/src/core\lv_obj_style_gen.h **** static inline const lv_grad_dsc_t * lv_obj_get_style_bg_grad(const lv_obj_t * obj, lv_part_t part)
 281:H:/STM32H7/RGB_LVGL/Middlewares/LVGL/GUI/lvgl/src/core\lv_obj_style_gen.h **** {
 282:H:/STM32H7/RGB_LVGL/Middlewares/LVGL/GUI/lvgl/src/core\lv_obj_style_gen.h ****     lv_style_value_t v = lv_obj_get_style_prop(obj, part, LV_STYLE_BG_GRAD);
 283:H:/STM32H7/RGB_LVGL/Middlewares/LVGL/GUI/lvgl/src/core\lv_obj_style_gen.h ****     return (const lv_grad_dsc_t *)v.ptr;
 284:H:/STM32H7/RGB_LVGL/Middlewares/LVGL/GUI/lvgl/src/core\lv_obj_style_gen.h **** }
 285:H:/STM32H7/RGB_LVGL/Middlewares/LVGL/GUI/lvgl/src/core\lv_obj_style_gen.h **** 
 286:H:/STM32H7/RGB_LVGL/Middlewares/LVGL/GUI/lvgl/src/core\lv_obj_style_gen.h **** static inline const void * lv_obj_get_style_bg_image_src(const lv_obj_t * obj, lv_part_t part)
 287:H:/STM32H7/RGB_LVGL/Middlewares/LVGL/GUI/lvgl/src/core\lv_obj_style_gen.h **** {
 288:H:/STM32H7/RGB_LVGL/Middlewares/LVGL/GUI/lvgl/src/core\lv_obj_style_gen.h ****     lv_style_value_t v = lv_obj_get_style_prop(obj, part, LV_STYLE_BG_IMAGE_SRC);
 289:H:/STM32H7/RGB_LVGL/Middlewares/LVGL/GUI/lvgl/src/core\lv_obj_style_gen.h ****     return (const void *)v.ptr;
 290:H:/STM32H7/RGB_LVGL/Middlewares/LVGL/GUI/lvgl/src/core\lv_obj_style_gen.h **** }
 291:H:/STM32H7/RGB_LVGL/Middlewares/LVGL/GUI/lvgl/src/core\lv_obj_style_gen.h **** 
 292:H:/STM32H7/RGB_LVGL/Middlewares/LVGL/GUI/lvgl/src/core\lv_obj_style_gen.h **** static inline lv_opa_t lv_obj_get_style_bg_image_opa(const lv_obj_t * obj, lv_part_t part)
 293:H:/STM32H7/RGB_LVGL/Middlewares/LVGL/GUI/lvgl/src/core\lv_obj_style_gen.h **** {
 294:H:/STM32H7/RGB_LVGL/Middlewares/LVGL/GUI/lvgl/src/core\lv_obj_style_gen.h ****     lv_style_value_t v = lv_obj_get_style_prop(obj, part, LV_STYLE_BG_IMAGE_OPA);
 295:H:/STM32H7/RGB_LVGL/Middlewares/LVGL/GUI/lvgl/src/core\lv_obj_style_gen.h ****     return (lv_opa_t)v.num;
 296:H:/STM32H7/RGB_LVGL/Middlewares/LVGL/GUI/lvgl/src/core\lv_obj_style_gen.h **** }
 297:H:/STM32H7/RGB_LVGL/Middlewares/LVGL/GUI/lvgl/src/core\lv_obj_style_gen.h **** 
 298:H:/STM32H7/RGB_LVGL/Middlewares/LVGL/GUI/lvgl/src/core\lv_obj_style_gen.h **** static inline lv_color_t lv_obj_get_style_bg_image_recolor(const lv_obj_t * obj, lv_part_t part)
 299:H:/STM32H7/RGB_LVGL/Middlewares/LVGL/GUI/lvgl/src/core\lv_obj_style_gen.h **** {
 300:H:/STM32H7/RGB_LVGL/Middlewares/LVGL/GUI/lvgl/src/core\lv_obj_style_gen.h ****     lv_style_value_t v = lv_obj_get_style_prop(obj, part, LV_STYLE_BG_IMAGE_RECOLOR);
 301:H:/STM32H7/RGB_LVGL/Middlewares/LVGL/GUI/lvgl/src/core\lv_obj_style_gen.h ****     return v.color;
 302:H:/STM32H7/RGB_LVGL/Middlewares/LVGL/GUI/lvgl/src/core\lv_obj_style_gen.h **** }
 303:H:/STM32H7/RGB_LVGL/Middlewares/LVGL/GUI/lvgl/src/core\lv_obj_style_gen.h **** 
 304:H:/STM32H7/RGB_LVGL/Middlewares/LVGL/GUI/lvgl/src/core\lv_obj_style_gen.h **** static inline lv_color_t lv_obj_get_style_bg_image_recolor_filtered(const lv_obj_t * obj, lv_part_t
 305:H:/STM32H7/RGB_LVGL/Middlewares/LVGL/GUI/lvgl/src/core\lv_obj_style_gen.h **** {
 306:H:/STM32H7/RGB_LVGL/Middlewares/LVGL/GUI/lvgl/src/core\lv_obj_style_gen.h ****     lv_style_value_t v = lv_obj_style_apply_color_filter(obj, part, lv_obj_get_style_prop(obj, part
 307:H:/STM32H7/RGB_LVGL/Middlewares/LVGL/GUI/lvgl/src/core\lv_obj_style_gen.h ****     return v.color;
 308:H:/STM32H7/RGB_LVGL/Middlewares/LVGL/GUI/lvgl/src/core\lv_obj_style_gen.h **** }
 309:H:/STM32H7/RGB_LVGL/Middlewares/LVGL/GUI/lvgl/src/core\lv_obj_style_gen.h **** 
 310:H:/STM32H7/RGB_LVGL/Middlewares/LVGL/GUI/lvgl/src/core\lv_obj_style_gen.h **** static inline lv_opa_t lv_obj_get_style_bg_image_recolor_opa(const lv_obj_t * obj, lv_part_t part)
 311:H:/STM32H7/RGB_LVGL/Middlewares/LVGL/GUI/lvgl/src/core\lv_obj_style_gen.h **** {
 312:H:/STM32H7/RGB_LVGL/Middlewares/LVGL/GUI/lvgl/src/core\lv_obj_style_gen.h ****     lv_style_value_t v = lv_obj_get_style_prop(obj, part, LV_STYLE_BG_IMAGE_RECOLOR_OPA);
 313:H:/STM32H7/RGB_LVGL/Middlewares/LVGL/GUI/lvgl/src/core\lv_obj_style_gen.h ****     return (lv_opa_t)v.num;
 314:H:/STM32H7/RGB_LVGL/Middlewares/LVGL/GUI/lvgl/src/core\lv_obj_style_gen.h **** }
 315:H:/STM32H7/RGB_LVGL/Middlewares/LVGL/GUI/lvgl/src/core\lv_obj_style_gen.h **** 
 316:H:/STM32H7/RGB_LVGL/Middlewares/LVGL/GUI/lvgl/src/core\lv_obj_style_gen.h **** static inline bool lv_obj_get_style_bg_image_tiled(const lv_obj_t * obj, lv_part_t part)
 317:H:/STM32H7/RGB_LVGL/Middlewares/LVGL/GUI/lvgl/src/core\lv_obj_style_gen.h **** {
 318:H:/STM32H7/RGB_LVGL/Middlewares/LVGL/GUI/lvgl/src/core\lv_obj_style_gen.h ****     lv_style_value_t v = lv_obj_get_style_prop(obj, part, LV_STYLE_BG_IMAGE_TILED);
 319:H:/STM32H7/RGB_LVGL/Middlewares/LVGL/GUI/lvgl/src/core\lv_obj_style_gen.h ****     return (bool)v.num;
 320:H:/STM32H7/RGB_LVGL/Middlewares/LVGL/GUI/lvgl/src/core\lv_obj_style_gen.h **** }
 321:H:/STM32H7/RGB_LVGL/Middlewares/LVGL/GUI/lvgl/src/core\lv_obj_style_gen.h **** 
 322:H:/STM32H7/RGB_LVGL/Middlewares/LVGL/GUI/lvgl/src/core\lv_obj_style_gen.h **** static inline lv_color_t lv_obj_get_style_border_color(const lv_obj_t * obj, lv_part_t part)
 323:H:/STM32H7/RGB_LVGL/Middlewares/LVGL/GUI/lvgl/src/core\lv_obj_style_gen.h **** {
 324:H:/STM32H7/RGB_LVGL/Middlewares/LVGL/GUI/lvgl/src/core\lv_obj_style_gen.h ****     lv_style_value_t v = lv_obj_get_style_prop(obj, part, LV_STYLE_BORDER_COLOR);
 325:H:/STM32H7/RGB_LVGL/Middlewares/LVGL/GUI/lvgl/src/core\lv_obj_style_gen.h ****     return v.color;
 326:H:/STM32H7/RGB_LVGL/Middlewares/LVGL/GUI/lvgl/src/core\lv_obj_style_gen.h **** }
 327:H:/STM32H7/RGB_LVGL/Middlewares/LVGL/GUI/lvgl/src/core\lv_obj_style_gen.h **** 
 328:H:/STM32H7/RGB_LVGL/Middlewares/LVGL/GUI/lvgl/src/core\lv_obj_style_gen.h **** static inline lv_color_t lv_obj_get_style_border_color_filtered(const lv_obj_t * obj, lv_part_t par
 329:H:/STM32H7/RGB_LVGL/Middlewares/LVGL/GUI/lvgl/src/core\lv_obj_style_gen.h **** {
 330:H:/STM32H7/RGB_LVGL/Middlewares/LVGL/GUI/lvgl/src/core\lv_obj_style_gen.h ****     lv_style_value_t v = lv_obj_style_apply_color_filter(obj, part, lv_obj_get_style_prop(obj, part
 331:H:/STM32H7/RGB_LVGL/Middlewares/LVGL/GUI/lvgl/src/core\lv_obj_style_gen.h ****     return v.color;
 332:H:/STM32H7/RGB_LVGL/Middlewares/LVGL/GUI/lvgl/src/core\lv_obj_style_gen.h **** }
 333:H:/STM32H7/RGB_LVGL/Middlewares/LVGL/GUI/lvgl/src/core\lv_obj_style_gen.h **** 
ARM GAS  C:\Users\28576\AppData\Local\Temp\cceCo13F.s 			page 15


 334:H:/STM32H7/RGB_LVGL/Middlewares/LVGL/GUI/lvgl/src/core\lv_obj_style_gen.h **** static inline lv_opa_t lv_obj_get_style_border_opa(const lv_obj_t * obj, lv_part_t part)
 335:H:/STM32H7/RGB_LVGL/Middlewares/LVGL/GUI/lvgl/src/core\lv_obj_style_gen.h **** {
 336:H:/STM32H7/RGB_LVGL/Middlewares/LVGL/GUI/lvgl/src/core\lv_obj_style_gen.h ****     lv_style_value_t v = lv_obj_get_style_prop(obj, part, LV_STYLE_BORDER_OPA);
 337:H:/STM32H7/RGB_LVGL/Middlewares/LVGL/GUI/lvgl/src/core\lv_obj_style_gen.h ****     return (lv_opa_t)v.num;
 338:H:/STM32H7/RGB_LVGL/Middlewares/LVGL/GUI/lvgl/src/core\lv_obj_style_gen.h **** }
 339:H:/STM32H7/RGB_LVGL/Middlewares/LVGL/GUI/lvgl/src/core\lv_obj_style_gen.h **** 
 340:H:/STM32H7/RGB_LVGL/Middlewares/LVGL/GUI/lvgl/src/core\lv_obj_style_gen.h **** static inline int32_t lv_obj_get_style_border_width(const lv_obj_t * obj, lv_part_t part)
 341:H:/STM32H7/RGB_LVGL/Middlewares/LVGL/GUI/lvgl/src/core\lv_obj_style_gen.h **** {
 342:H:/STM32H7/RGB_LVGL/Middlewares/LVGL/GUI/lvgl/src/core\lv_obj_style_gen.h ****     lv_style_value_t v = lv_obj_get_style_prop(obj, part, LV_STYLE_BORDER_WIDTH);
 343:H:/STM32H7/RGB_LVGL/Middlewares/LVGL/GUI/lvgl/src/core\lv_obj_style_gen.h ****     return (int32_t)v.num;
 344:H:/STM32H7/RGB_LVGL/Middlewares/LVGL/GUI/lvgl/src/core\lv_obj_style_gen.h **** }
 345:H:/STM32H7/RGB_LVGL/Middlewares/LVGL/GUI/lvgl/src/core\lv_obj_style_gen.h **** 
 346:H:/STM32H7/RGB_LVGL/Middlewares/LVGL/GUI/lvgl/src/core\lv_obj_style_gen.h **** static inline lv_border_side_t lv_obj_get_style_border_side(const lv_obj_t * obj, lv_part_t part)
 347:H:/STM32H7/RGB_LVGL/Middlewares/LVGL/GUI/lvgl/src/core\lv_obj_style_gen.h **** {
 348:H:/STM32H7/RGB_LVGL/Middlewares/LVGL/GUI/lvgl/src/core\lv_obj_style_gen.h ****     lv_style_value_t v = lv_obj_get_style_prop(obj, part, LV_STYLE_BORDER_SIDE);
 349:H:/STM32H7/RGB_LVGL/Middlewares/LVGL/GUI/lvgl/src/core\lv_obj_style_gen.h ****     return (lv_border_side_t)v.num;
 350:H:/STM32H7/RGB_LVGL/Middlewares/LVGL/GUI/lvgl/src/core\lv_obj_style_gen.h **** }
 351:H:/STM32H7/RGB_LVGL/Middlewares/LVGL/GUI/lvgl/src/core\lv_obj_style_gen.h **** 
 352:H:/STM32H7/RGB_LVGL/Middlewares/LVGL/GUI/lvgl/src/core\lv_obj_style_gen.h **** static inline bool lv_obj_get_style_border_post(const lv_obj_t * obj, lv_part_t part)
 353:H:/STM32H7/RGB_LVGL/Middlewares/LVGL/GUI/lvgl/src/core\lv_obj_style_gen.h **** {
 354:H:/STM32H7/RGB_LVGL/Middlewares/LVGL/GUI/lvgl/src/core\lv_obj_style_gen.h ****     lv_style_value_t v = lv_obj_get_style_prop(obj, part, LV_STYLE_BORDER_POST);
 355:H:/STM32H7/RGB_LVGL/Middlewares/LVGL/GUI/lvgl/src/core\lv_obj_style_gen.h ****     return (bool)v.num;
 356:H:/STM32H7/RGB_LVGL/Middlewares/LVGL/GUI/lvgl/src/core\lv_obj_style_gen.h **** }
 357:H:/STM32H7/RGB_LVGL/Middlewares/LVGL/GUI/lvgl/src/core\lv_obj_style_gen.h **** 
 358:H:/STM32H7/RGB_LVGL/Middlewares/LVGL/GUI/lvgl/src/core\lv_obj_style_gen.h **** static inline int32_t lv_obj_get_style_outline_width(const lv_obj_t * obj, lv_part_t part)
 359:H:/STM32H7/RGB_LVGL/Middlewares/LVGL/GUI/lvgl/src/core\lv_obj_style_gen.h **** {
 360:H:/STM32H7/RGB_LVGL/Middlewares/LVGL/GUI/lvgl/src/core\lv_obj_style_gen.h ****     lv_style_value_t v = lv_obj_get_style_prop(obj, part, LV_STYLE_OUTLINE_WIDTH);
 361:H:/STM32H7/RGB_LVGL/Middlewares/LVGL/GUI/lvgl/src/core\lv_obj_style_gen.h ****     return (int32_t)v.num;
 362:H:/STM32H7/RGB_LVGL/Middlewares/LVGL/GUI/lvgl/src/core\lv_obj_style_gen.h **** }
 363:H:/STM32H7/RGB_LVGL/Middlewares/LVGL/GUI/lvgl/src/core\lv_obj_style_gen.h **** 
 364:H:/STM32H7/RGB_LVGL/Middlewares/LVGL/GUI/lvgl/src/core\lv_obj_style_gen.h **** static inline lv_color_t lv_obj_get_style_outline_color(const lv_obj_t * obj, lv_part_t part)
 365:H:/STM32H7/RGB_LVGL/Middlewares/LVGL/GUI/lvgl/src/core\lv_obj_style_gen.h **** {
 366:H:/STM32H7/RGB_LVGL/Middlewares/LVGL/GUI/lvgl/src/core\lv_obj_style_gen.h ****     lv_style_value_t v = lv_obj_get_style_prop(obj, part, LV_STYLE_OUTLINE_COLOR);
 367:H:/STM32H7/RGB_LVGL/Middlewares/LVGL/GUI/lvgl/src/core\lv_obj_style_gen.h ****     return v.color;
 368:H:/STM32H7/RGB_LVGL/Middlewares/LVGL/GUI/lvgl/src/core\lv_obj_style_gen.h **** }
 369:H:/STM32H7/RGB_LVGL/Middlewares/LVGL/GUI/lvgl/src/core\lv_obj_style_gen.h **** 
 370:H:/STM32H7/RGB_LVGL/Middlewares/LVGL/GUI/lvgl/src/core\lv_obj_style_gen.h **** static inline lv_color_t lv_obj_get_style_outline_color_filtered(const lv_obj_t * obj, lv_part_t pa
 371:H:/STM32H7/RGB_LVGL/Middlewares/LVGL/GUI/lvgl/src/core\lv_obj_style_gen.h **** {
 372:H:/STM32H7/RGB_LVGL/Middlewares/LVGL/GUI/lvgl/src/core\lv_obj_style_gen.h ****     lv_style_value_t v = lv_obj_style_apply_color_filter(obj, part, lv_obj_get_style_prop(obj, part
 373:H:/STM32H7/RGB_LVGL/Middlewares/LVGL/GUI/lvgl/src/core\lv_obj_style_gen.h ****     return v.color;
 374:H:/STM32H7/RGB_LVGL/Middlewares/LVGL/GUI/lvgl/src/core\lv_obj_style_gen.h **** }
 375:H:/STM32H7/RGB_LVGL/Middlewares/LVGL/GUI/lvgl/src/core\lv_obj_style_gen.h **** 
 376:H:/STM32H7/RGB_LVGL/Middlewares/LVGL/GUI/lvgl/src/core\lv_obj_style_gen.h **** static inline lv_opa_t lv_obj_get_style_outline_opa(const lv_obj_t * obj, lv_part_t part)
 377:H:/STM32H7/RGB_LVGL/Middlewares/LVGL/GUI/lvgl/src/core\lv_obj_style_gen.h **** {
 378:H:/STM32H7/RGB_LVGL/Middlewares/LVGL/GUI/lvgl/src/core\lv_obj_style_gen.h ****     lv_style_value_t v = lv_obj_get_style_prop(obj, part, LV_STYLE_OUTLINE_OPA);
 379:H:/STM32H7/RGB_LVGL/Middlewares/LVGL/GUI/lvgl/src/core\lv_obj_style_gen.h ****     return (lv_opa_t)v.num;
 380:H:/STM32H7/RGB_LVGL/Middlewares/LVGL/GUI/lvgl/src/core\lv_obj_style_gen.h **** }
 381:H:/STM32H7/RGB_LVGL/Middlewares/LVGL/GUI/lvgl/src/core\lv_obj_style_gen.h **** 
 382:H:/STM32H7/RGB_LVGL/Middlewares/LVGL/GUI/lvgl/src/core\lv_obj_style_gen.h **** static inline int32_t lv_obj_get_style_outline_pad(const lv_obj_t * obj, lv_part_t part)
 383:H:/STM32H7/RGB_LVGL/Middlewares/LVGL/GUI/lvgl/src/core\lv_obj_style_gen.h **** {
 384:H:/STM32H7/RGB_LVGL/Middlewares/LVGL/GUI/lvgl/src/core\lv_obj_style_gen.h ****     lv_style_value_t v = lv_obj_get_style_prop(obj, part, LV_STYLE_OUTLINE_PAD);
 385:H:/STM32H7/RGB_LVGL/Middlewares/LVGL/GUI/lvgl/src/core\lv_obj_style_gen.h ****     return (int32_t)v.num;
 386:H:/STM32H7/RGB_LVGL/Middlewares/LVGL/GUI/lvgl/src/core\lv_obj_style_gen.h **** }
 387:H:/STM32H7/RGB_LVGL/Middlewares/LVGL/GUI/lvgl/src/core\lv_obj_style_gen.h **** 
 388:H:/STM32H7/RGB_LVGL/Middlewares/LVGL/GUI/lvgl/src/core\lv_obj_style_gen.h **** static inline int32_t lv_obj_get_style_shadow_width(const lv_obj_t * obj, lv_part_t part)
 389:H:/STM32H7/RGB_LVGL/Middlewares/LVGL/GUI/lvgl/src/core\lv_obj_style_gen.h **** {
 390:H:/STM32H7/RGB_LVGL/Middlewares/LVGL/GUI/lvgl/src/core\lv_obj_style_gen.h ****     lv_style_value_t v = lv_obj_get_style_prop(obj, part, LV_STYLE_SHADOW_WIDTH);
ARM GAS  C:\Users\28576\AppData\Local\Temp\cceCo13F.s 			page 16


 391:H:/STM32H7/RGB_LVGL/Middlewares/LVGL/GUI/lvgl/src/core\lv_obj_style_gen.h ****     return (int32_t)v.num;
 392:H:/STM32H7/RGB_LVGL/Middlewares/LVGL/GUI/lvgl/src/core\lv_obj_style_gen.h **** }
 393:H:/STM32H7/RGB_LVGL/Middlewares/LVGL/GUI/lvgl/src/core\lv_obj_style_gen.h **** 
 394:H:/STM32H7/RGB_LVGL/Middlewares/LVGL/GUI/lvgl/src/core\lv_obj_style_gen.h **** static inline int32_t lv_obj_get_style_shadow_offset_x(const lv_obj_t * obj, lv_part_t part)
 395:H:/STM32H7/RGB_LVGL/Middlewares/LVGL/GUI/lvgl/src/core\lv_obj_style_gen.h **** {
 396:H:/STM32H7/RGB_LVGL/Middlewares/LVGL/GUI/lvgl/src/core\lv_obj_style_gen.h ****     lv_style_value_t v = lv_obj_get_style_prop(obj, part, LV_STYLE_SHADOW_OFFSET_X);
 397:H:/STM32H7/RGB_LVGL/Middlewares/LVGL/GUI/lvgl/src/core\lv_obj_style_gen.h ****     return (int32_t)v.num;
 398:H:/STM32H7/RGB_LVGL/Middlewares/LVGL/GUI/lvgl/src/core\lv_obj_style_gen.h **** }
 399:H:/STM32H7/RGB_LVGL/Middlewares/LVGL/GUI/lvgl/src/core\lv_obj_style_gen.h **** 
 400:H:/STM32H7/RGB_LVGL/Middlewares/LVGL/GUI/lvgl/src/core\lv_obj_style_gen.h **** static inline int32_t lv_obj_get_style_shadow_offset_y(const lv_obj_t * obj, lv_part_t part)
 401:H:/STM32H7/RGB_LVGL/Middlewares/LVGL/GUI/lvgl/src/core\lv_obj_style_gen.h **** {
 402:H:/STM32H7/RGB_LVGL/Middlewares/LVGL/GUI/lvgl/src/core\lv_obj_style_gen.h ****     lv_style_value_t v = lv_obj_get_style_prop(obj, part, LV_STYLE_SHADOW_OFFSET_Y);
 403:H:/STM32H7/RGB_LVGL/Middlewares/LVGL/GUI/lvgl/src/core\lv_obj_style_gen.h ****     return (int32_t)v.num;
 404:H:/STM32H7/RGB_LVGL/Middlewares/LVGL/GUI/lvgl/src/core\lv_obj_style_gen.h **** }
 405:H:/STM32H7/RGB_LVGL/Middlewares/LVGL/GUI/lvgl/src/core\lv_obj_style_gen.h **** 
 406:H:/STM32H7/RGB_LVGL/Middlewares/LVGL/GUI/lvgl/src/core\lv_obj_style_gen.h **** static inline int32_t lv_obj_get_style_shadow_spread(const lv_obj_t * obj, lv_part_t part)
 407:H:/STM32H7/RGB_LVGL/Middlewares/LVGL/GUI/lvgl/src/core\lv_obj_style_gen.h **** {
 408:H:/STM32H7/RGB_LVGL/Middlewares/LVGL/GUI/lvgl/src/core\lv_obj_style_gen.h ****     lv_style_value_t v = lv_obj_get_style_prop(obj, part, LV_STYLE_SHADOW_SPREAD);
 409:H:/STM32H7/RGB_LVGL/Middlewares/LVGL/GUI/lvgl/src/core\lv_obj_style_gen.h ****     return (int32_t)v.num;
 410:H:/STM32H7/RGB_LVGL/Middlewares/LVGL/GUI/lvgl/src/core\lv_obj_style_gen.h **** }
 411:H:/STM32H7/RGB_LVGL/Middlewares/LVGL/GUI/lvgl/src/core\lv_obj_style_gen.h **** 
 412:H:/STM32H7/RGB_LVGL/Middlewares/LVGL/GUI/lvgl/src/core\lv_obj_style_gen.h **** static inline lv_color_t lv_obj_get_style_shadow_color(const lv_obj_t * obj, lv_part_t part)
 413:H:/STM32H7/RGB_LVGL/Middlewares/LVGL/GUI/lvgl/src/core\lv_obj_style_gen.h **** {
 414:H:/STM32H7/RGB_LVGL/Middlewares/LVGL/GUI/lvgl/src/core\lv_obj_style_gen.h ****     lv_style_value_t v = lv_obj_get_style_prop(obj, part, LV_STYLE_SHADOW_COLOR);
 415:H:/STM32H7/RGB_LVGL/Middlewares/LVGL/GUI/lvgl/src/core\lv_obj_style_gen.h ****     return v.color;
 416:H:/STM32H7/RGB_LVGL/Middlewares/LVGL/GUI/lvgl/src/core\lv_obj_style_gen.h **** }
 417:H:/STM32H7/RGB_LVGL/Middlewares/LVGL/GUI/lvgl/src/core\lv_obj_style_gen.h **** 
 418:H:/STM32H7/RGB_LVGL/Middlewares/LVGL/GUI/lvgl/src/core\lv_obj_style_gen.h **** static inline lv_color_t lv_obj_get_style_shadow_color_filtered(const lv_obj_t * obj, lv_part_t par
 419:H:/STM32H7/RGB_LVGL/Middlewares/LVGL/GUI/lvgl/src/core\lv_obj_style_gen.h **** {
 420:H:/STM32H7/RGB_LVGL/Middlewares/LVGL/GUI/lvgl/src/core\lv_obj_style_gen.h ****     lv_style_value_t v = lv_obj_style_apply_color_filter(obj, part, lv_obj_get_style_prop(obj, part
 421:H:/STM32H7/RGB_LVGL/Middlewares/LVGL/GUI/lvgl/src/core\lv_obj_style_gen.h ****     return v.color;
 422:H:/STM32H7/RGB_LVGL/Middlewares/LVGL/GUI/lvgl/src/core\lv_obj_style_gen.h **** }
 423:H:/STM32H7/RGB_LVGL/Middlewares/LVGL/GUI/lvgl/src/core\lv_obj_style_gen.h **** 
 424:H:/STM32H7/RGB_LVGL/Middlewares/LVGL/GUI/lvgl/src/core\lv_obj_style_gen.h **** static inline lv_opa_t lv_obj_get_style_shadow_opa(const lv_obj_t * obj, lv_part_t part)
 425:H:/STM32H7/RGB_LVGL/Middlewares/LVGL/GUI/lvgl/src/core\lv_obj_style_gen.h **** {
 426:H:/STM32H7/RGB_LVGL/Middlewares/LVGL/GUI/lvgl/src/core\lv_obj_style_gen.h ****     lv_style_value_t v = lv_obj_get_style_prop(obj, part, LV_STYLE_SHADOW_OPA);
 427:H:/STM32H7/RGB_LVGL/Middlewares/LVGL/GUI/lvgl/src/core\lv_obj_style_gen.h ****     return (lv_opa_t)v.num;
 428:H:/STM32H7/RGB_LVGL/Middlewares/LVGL/GUI/lvgl/src/core\lv_obj_style_gen.h **** }
 429:H:/STM32H7/RGB_LVGL/Middlewares/LVGL/GUI/lvgl/src/core\lv_obj_style_gen.h **** 
 430:H:/STM32H7/RGB_LVGL/Middlewares/LVGL/GUI/lvgl/src/core\lv_obj_style_gen.h **** static inline lv_opa_t lv_obj_get_style_image_opa(const lv_obj_t * obj, lv_part_t part)
 431:H:/STM32H7/RGB_LVGL/Middlewares/LVGL/GUI/lvgl/src/core\lv_obj_style_gen.h **** {
 432:H:/STM32H7/RGB_LVGL/Middlewares/LVGL/GUI/lvgl/src/core\lv_obj_style_gen.h ****     lv_style_value_t v = lv_obj_get_style_prop(obj, part, LV_STYLE_IMAGE_OPA);
 433:H:/STM32H7/RGB_LVGL/Middlewares/LVGL/GUI/lvgl/src/core\lv_obj_style_gen.h ****     return (lv_opa_t)v.num;
 434:H:/STM32H7/RGB_LVGL/Middlewares/LVGL/GUI/lvgl/src/core\lv_obj_style_gen.h **** }
 435:H:/STM32H7/RGB_LVGL/Middlewares/LVGL/GUI/lvgl/src/core\lv_obj_style_gen.h **** 
 436:H:/STM32H7/RGB_LVGL/Middlewares/LVGL/GUI/lvgl/src/core\lv_obj_style_gen.h **** static inline lv_color_t lv_obj_get_style_image_recolor(const lv_obj_t * obj, lv_part_t part)
 437:H:/STM32H7/RGB_LVGL/Middlewares/LVGL/GUI/lvgl/src/core\lv_obj_style_gen.h **** {
 438:H:/STM32H7/RGB_LVGL/Middlewares/LVGL/GUI/lvgl/src/core\lv_obj_style_gen.h ****     lv_style_value_t v = lv_obj_get_style_prop(obj, part, LV_STYLE_IMAGE_RECOLOR);
 439:H:/STM32H7/RGB_LVGL/Middlewares/LVGL/GUI/lvgl/src/core\lv_obj_style_gen.h ****     return v.color;
 440:H:/STM32H7/RGB_LVGL/Middlewares/LVGL/GUI/lvgl/src/core\lv_obj_style_gen.h **** }
 441:H:/STM32H7/RGB_LVGL/Middlewares/LVGL/GUI/lvgl/src/core\lv_obj_style_gen.h **** 
 442:H:/STM32H7/RGB_LVGL/Middlewares/LVGL/GUI/lvgl/src/core\lv_obj_style_gen.h **** static inline lv_color_t lv_obj_get_style_image_recolor_filtered(const lv_obj_t * obj, lv_part_t pa
 443:H:/STM32H7/RGB_LVGL/Middlewares/LVGL/GUI/lvgl/src/core\lv_obj_style_gen.h **** {
 444:H:/STM32H7/RGB_LVGL/Middlewares/LVGL/GUI/lvgl/src/core\lv_obj_style_gen.h ****     lv_style_value_t v = lv_obj_style_apply_color_filter(obj, part, lv_obj_get_style_prop(obj, part
 445:H:/STM32H7/RGB_LVGL/Middlewares/LVGL/GUI/lvgl/src/core\lv_obj_style_gen.h ****     return v.color;
 446:H:/STM32H7/RGB_LVGL/Middlewares/LVGL/GUI/lvgl/src/core\lv_obj_style_gen.h **** }
 447:H:/STM32H7/RGB_LVGL/Middlewares/LVGL/GUI/lvgl/src/core\lv_obj_style_gen.h **** 
ARM GAS  C:\Users\28576\AppData\Local\Temp\cceCo13F.s 			page 17


 448:H:/STM32H7/RGB_LVGL/Middlewares/LVGL/GUI/lvgl/src/core\lv_obj_style_gen.h **** static inline lv_opa_t lv_obj_get_style_image_recolor_opa(const lv_obj_t * obj, lv_part_t part)
 449:H:/STM32H7/RGB_LVGL/Middlewares/LVGL/GUI/lvgl/src/core\lv_obj_style_gen.h **** {
 450:H:/STM32H7/RGB_LVGL/Middlewares/LVGL/GUI/lvgl/src/core\lv_obj_style_gen.h ****     lv_style_value_t v = lv_obj_get_style_prop(obj, part, LV_STYLE_IMAGE_RECOLOR_OPA);
 451:H:/STM32H7/RGB_LVGL/Middlewares/LVGL/GUI/lvgl/src/core\lv_obj_style_gen.h ****     return (lv_opa_t)v.num;
 452:H:/STM32H7/RGB_LVGL/Middlewares/LVGL/GUI/lvgl/src/core\lv_obj_style_gen.h **** }
 453:H:/STM32H7/RGB_LVGL/Middlewares/LVGL/GUI/lvgl/src/core\lv_obj_style_gen.h **** 
 454:H:/STM32H7/RGB_LVGL/Middlewares/LVGL/GUI/lvgl/src/core\lv_obj_style_gen.h **** static inline int32_t lv_obj_get_style_line_width(const lv_obj_t * obj, lv_part_t part)
 455:H:/STM32H7/RGB_LVGL/Middlewares/LVGL/GUI/lvgl/src/core\lv_obj_style_gen.h **** {
 456:H:/STM32H7/RGB_LVGL/Middlewares/LVGL/GUI/lvgl/src/core\lv_obj_style_gen.h ****     lv_style_value_t v = lv_obj_get_style_prop(obj, part, LV_STYLE_LINE_WIDTH);
 457:H:/STM32H7/RGB_LVGL/Middlewares/LVGL/GUI/lvgl/src/core\lv_obj_style_gen.h ****     return (int32_t)v.num;
 458:H:/STM32H7/RGB_LVGL/Middlewares/LVGL/GUI/lvgl/src/core\lv_obj_style_gen.h **** }
 459:H:/STM32H7/RGB_LVGL/Middlewares/LVGL/GUI/lvgl/src/core\lv_obj_style_gen.h **** 
 460:H:/STM32H7/RGB_LVGL/Middlewares/LVGL/GUI/lvgl/src/core\lv_obj_style_gen.h **** static inline int32_t lv_obj_get_style_line_dash_width(const lv_obj_t * obj, lv_part_t part)
 461:H:/STM32H7/RGB_LVGL/Middlewares/LVGL/GUI/lvgl/src/core\lv_obj_style_gen.h **** {
 462:H:/STM32H7/RGB_LVGL/Middlewares/LVGL/GUI/lvgl/src/core\lv_obj_style_gen.h ****     lv_style_value_t v = lv_obj_get_style_prop(obj, part, LV_STYLE_LINE_DASH_WIDTH);
 463:H:/STM32H7/RGB_LVGL/Middlewares/LVGL/GUI/lvgl/src/core\lv_obj_style_gen.h ****     return (int32_t)v.num;
 464:H:/STM32H7/RGB_LVGL/Middlewares/LVGL/GUI/lvgl/src/core\lv_obj_style_gen.h **** }
 465:H:/STM32H7/RGB_LVGL/Middlewares/LVGL/GUI/lvgl/src/core\lv_obj_style_gen.h **** 
 466:H:/STM32H7/RGB_LVGL/Middlewares/LVGL/GUI/lvgl/src/core\lv_obj_style_gen.h **** static inline int32_t lv_obj_get_style_line_dash_gap(const lv_obj_t * obj, lv_part_t part)
 467:H:/STM32H7/RGB_LVGL/Middlewares/LVGL/GUI/lvgl/src/core\lv_obj_style_gen.h **** {
 468:H:/STM32H7/RGB_LVGL/Middlewares/LVGL/GUI/lvgl/src/core\lv_obj_style_gen.h ****     lv_style_value_t v = lv_obj_get_style_prop(obj, part, LV_STYLE_LINE_DASH_GAP);
 469:H:/STM32H7/RGB_LVGL/Middlewares/LVGL/GUI/lvgl/src/core\lv_obj_style_gen.h ****     return (int32_t)v.num;
 470:H:/STM32H7/RGB_LVGL/Middlewares/LVGL/GUI/lvgl/src/core\lv_obj_style_gen.h **** }
 471:H:/STM32H7/RGB_LVGL/Middlewares/LVGL/GUI/lvgl/src/core\lv_obj_style_gen.h **** 
 472:H:/STM32H7/RGB_LVGL/Middlewares/LVGL/GUI/lvgl/src/core\lv_obj_style_gen.h **** static inline bool lv_obj_get_style_line_rounded(const lv_obj_t * obj, lv_part_t part)
 473:H:/STM32H7/RGB_LVGL/Middlewares/LVGL/GUI/lvgl/src/core\lv_obj_style_gen.h **** {
 474:H:/STM32H7/RGB_LVGL/Middlewares/LVGL/GUI/lvgl/src/core\lv_obj_style_gen.h ****     lv_style_value_t v = lv_obj_get_style_prop(obj, part, LV_STYLE_LINE_ROUNDED);
 475:H:/STM32H7/RGB_LVGL/Middlewares/LVGL/GUI/lvgl/src/core\lv_obj_style_gen.h ****     return (bool)v.num;
 476:H:/STM32H7/RGB_LVGL/Middlewares/LVGL/GUI/lvgl/src/core\lv_obj_style_gen.h **** }
 477:H:/STM32H7/RGB_LVGL/Middlewares/LVGL/GUI/lvgl/src/core\lv_obj_style_gen.h **** 
 478:H:/STM32H7/RGB_LVGL/Middlewares/LVGL/GUI/lvgl/src/core\lv_obj_style_gen.h **** static inline lv_color_t lv_obj_get_style_line_color(const lv_obj_t * obj, lv_part_t part)
 479:H:/STM32H7/RGB_LVGL/Middlewares/LVGL/GUI/lvgl/src/core\lv_obj_style_gen.h **** {
 480:H:/STM32H7/RGB_LVGL/Middlewares/LVGL/GUI/lvgl/src/core\lv_obj_style_gen.h ****     lv_style_value_t v = lv_obj_get_style_prop(obj, part, LV_STYLE_LINE_COLOR);
 481:H:/STM32H7/RGB_LVGL/Middlewares/LVGL/GUI/lvgl/src/core\lv_obj_style_gen.h ****     return v.color;
 482:H:/STM32H7/RGB_LVGL/Middlewares/LVGL/GUI/lvgl/src/core\lv_obj_style_gen.h **** }
 483:H:/STM32H7/RGB_LVGL/Middlewares/LVGL/GUI/lvgl/src/core\lv_obj_style_gen.h **** 
 484:H:/STM32H7/RGB_LVGL/Middlewares/LVGL/GUI/lvgl/src/core\lv_obj_style_gen.h **** static inline lv_color_t lv_obj_get_style_line_color_filtered(const lv_obj_t * obj, lv_part_t part)
 485:H:/STM32H7/RGB_LVGL/Middlewares/LVGL/GUI/lvgl/src/core\lv_obj_style_gen.h **** {
 486:H:/STM32H7/RGB_LVGL/Middlewares/LVGL/GUI/lvgl/src/core\lv_obj_style_gen.h ****     lv_style_value_t v = lv_obj_style_apply_color_filter(obj, part, lv_obj_get_style_prop(obj, part
 487:H:/STM32H7/RGB_LVGL/Middlewares/LVGL/GUI/lvgl/src/core\lv_obj_style_gen.h ****     return v.color;
 488:H:/STM32H7/RGB_LVGL/Middlewares/LVGL/GUI/lvgl/src/core\lv_obj_style_gen.h **** }
 489:H:/STM32H7/RGB_LVGL/Middlewares/LVGL/GUI/lvgl/src/core\lv_obj_style_gen.h **** 
 490:H:/STM32H7/RGB_LVGL/Middlewares/LVGL/GUI/lvgl/src/core\lv_obj_style_gen.h **** static inline lv_opa_t lv_obj_get_style_line_opa(const lv_obj_t * obj, lv_part_t part)
 491:H:/STM32H7/RGB_LVGL/Middlewares/LVGL/GUI/lvgl/src/core\lv_obj_style_gen.h **** {
 492:H:/STM32H7/RGB_LVGL/Middlewares/LVGL/GUI/lvgl/src/core\lv_obj_style_gen.h ****     lv_style_value_t v = lv_obj_get_style_prop(obj, part, LV_STYLE_LINE_OPA);
 493:H:/STM32H7/RGB_LVGL/Middlewares/LVGL/GUI/lvgl/src/core\lv_obj_style_gen.h ****     return (lv_opa_t)v.num;
 494:H:/STM32H7/RGB_LVGL/Middlewares/LVGL/GUI/lvgl/src/core\lv_obj_style_gen.h **** }
 495:H:/STM32H7/RGB_LVGL/Middlewares/LVGL/GUI/lvgl/src/core\lv_obj_style_gen.h **** 
 496:H:/STM32H7/RGB_LVGL/Middlewares/LVGL/GUI/lvgl/src/core\lv_obj_style_gen.h **** static inline int32_t lv_obj_get_style_arc_width(const lv_obj_t * obj, lv_part_t part)
 497:H:/STM32H7/RGB_LVGL/Middlewares/LVGL/GUI/lvgl/src/core\lv_obj_style_gen.h **** {
 498:H:/STM32H7/RGB_LVGL/Middlewares/LVGL/GUI/lvgl/src/core\lv_obj_style_gen.h ****     lv_style_value_t v = lv_obj_get_style_prop(obj, part, LV_STYLE_ARC_WIDTH);
 499:H:/STM32H7/RGB_LVGL/Middlewares/LVGL/GUI/lvgl/src/core\lv_obj_style_gen.h ****     return (int32_t)v.num;
 500:H:/STM32H7/RGB_LVGL/Middlewares/LVGL/GUI/lvgl/src/core\lv_obj_style_gen.h **** }
 501:H:/STM32H7/RGB_LVGL/Middlewares/LVGL/GUI/lvgl/src/core\lv_obj_style_gen.h **** 
 502:H:/STM32H7/RGB_LVGL/Middlewares/LVGL/GUI/lvgl/src/core\lv_obj_style_gen.h **** static inline bool lv_obj_get_style_arc_rounded(const lv_obj_t * obj, lv_part_t part)
 503:H:/STM32H7/RGB_LVGL/Middlewares/LVGL/GUI/lvgl/src/core\lv_obj_style_gen.h **** {
 504:H:/STM32H7/RGB_LVGL/Middlewares/LVGL/GUI/lvgl/src/core\lv_obj_style_gen.h ****     lv_style_value_t v = lv_obj_get_style_prop(obj, part, LV_STYLE_ARC_ROUNDED);
ARM GAS  C:\Users\28576\AppData\Local\Temp\cceCo13F.s 			page 18


 505:H:/STM32H7/RGB_LVGL/Middlewares/LVGL/GUI/lvgl/src/core\lv_obj_style_gen.h ****     return (bool)v.num;
 506:H:/STM32H7/RGB_LVGL/Middlewares/LVGL/GUI/lvgl/src/core\lv_obj_style_gen.h **** }
 507:H:/STM32H7/RGB_LVGL/Middlewares/LVGL/GUI/lvgl/src/core\lv_obj_style_gen.h **** 
 508:H:/STM32H7/RGB_LVGL/Middlewares/LVGL/GUI/lvgl/src/core\lv_obj_style_gen.h **** static inline lv_color_t lv_obj_get_style_arc_color(const lv_obj_t * obj, lv_part_t part)
 509:H:/STM32H7/RGB_LVGL/Middlewares/LVGL/GUI/lvgl/src/core\lv_obj_style_gen.h **** {
 510:H:/STM32H7/RGB_LVGL/Middlewares/LVGL/GUI/lvgl/src/core\lv_obj_style_gen.h ****     lv_style_value_t v = lv_obj_get_style_prop(obj, part, LV_STYLE_ARC_COLOR);
 511:H:/STM32H7/RGB_LVGL/Middlewares/LVGL/GUI/lvgl/src/core\lv_obj_style_gen.h ****     return v.color;
 512:H:/STM32H7/RGB_LVGL/Middlewares/LVGL/GUI/lvgl/src/core\lv_obj_style_gen.h **** }
 513:H:/STM32H7/RGB_LVGL/Middlewares/LVGL/GUI/lvgl/src/core\lv_obj_style_gen.h **** 
 514:H:/STM32H7/RGB_LVGL/Middlewares/LVGL/GUI/lvgl/src/core\lv_obj_style_gen.h **** static inline lv_color_t lv_obj_get_style_arc_color_filtered(const lv_obj_t * obj, lv_part_t part)
 515:H:/STM32H7/RGB_LVGL/Middlewares/LVGL/GUI/lvgl/src/core\lv_obj_style_gen.h **** {
 516:H:/STM32H7/RGB_LVGL/Middlewares/LVGL/GUI/lvgl/src/core\lv_obj_style_gen.h ****     lv_style_value_t v = lv_obj_style_apply_color_filter(obj, part, lv_obj_get_style_prop(obj, part
 517:H:/STM32H7/RGB_LVGL/Middlewares/LVGL/GUI/lvgl/src/core\lv_obj_style_gen.h ****     return v.color;
 518:H:/STM32H7/RGB_LVGL/Middlewares/LVGL/GUI/lvgl/src/core\lv_obj_style_gen.h **** }
 519:H:/STM32H7/RGB_LVGL/Middlewares/LVGL/GUI/lvgl/src/core\lv_obj_style_gen.h **** 
 520:H:/STM32H7/RGB_LVGL/Middlewares/LVGL/GUI/lvgl/src/core\lv_obj_style_gen.h **** static inline lv_opa_t lv_obj_get_style_arc_opa(const lv_obj_t * obj, lv_part_t part)
 521:H:/STM32H7/RGB_LVGL/Middlewares/LVGL/GUI/lvgl/src/core\lv_obj_style_gen.h **** {
 522:H:/STM32H7/RGB_LVGL/Middlewares/LVGL/GUI/lvgl/src/core\lv_obj_style_gen.h ****     lv_style_value_t v = lv_obj_get_style_prop(obj, part, LV_STYLE_ARC_OPA);
 523:H:/STM32H7/RGB_LVGL/Middlewares/LVGL/GUI/lvgl/src/core\lv_obj_style_gen.h ****     return (lv_opa_t)v.num;
 524:H:/STM32H7/RGB_LVGL/Middlewares/LVGL/GUI/lvgl/src/core\lv_obj_style_gen.h **** }
 525:H:/STM32H7/RGB_LVGL/Middlewares/LVGL/GUI/lvgl/src/core\lv_obj_style_gen.h **** 
 526:H:/STM32H7/RGB_LVGL/Middlewares/LVGL/GUI/lvgl/src/core\lv_obj_style_gen.h **** static inline const void * lv_obj_get_style_arc_image_src(const lv_obj_t * obj, lv_part_t part)
 527:H:/STM32H7/RGB_LVGL/Middlewares/LVGL/GUI/lvgl/src/core\lv_obj_style_gen.h **** {
 528:H:/STM32H7/RGB_LVGL/Middlewares/LVGL/GUI/lvgl/src/core\lv_obj_style_gen.h ****     lv_style_value_t v = lv_obj_get_style_prop(obj, part, LV_STYLE_ARC_IMAGE_SRC);
 529:H:/STM32H7/RGB_LVGL/Middlewares/LVGL/GUI/lvgl/src/core\lv_obj_style_gen.h ****     return (const void *)v.ptr;
 530:H:/STM32H7/RGB_LVGL/Middlewares/LVGL/GUI/lvgl/src/core\lv_obj_style_gen.h **** }
 531:H:/STM32H7/RGB_LVGL/Middlewares/LVGL/GUI/lvgl/src/core\lv_obj_style_gen.h **** 
 532:H:/STM32H7/RGB_LVGL/Middlewares/LVGL/GUI/lvgl/src/core\lv_obj_style_gen.h **** static inline lv_color_t lv_obj_get_style_text_color(const lv_obj_t * obj, lv_part_t part)
 533:H:/STM32H7/RGB_LVGL/Middlewares/LVGL/GUI/lvgl/src/core\lv_obj_style_gen.h **** {
 534:H:/STM32H7/RGB_LVGL/Middlewares/LVGL/GUI/lvgl/src/core\lv_obj_style_gen.h ****     lv_style_value_t v = lv_obj_get_style_prop(obj, part, LV_STYLE_TEXT_COLOR);
 535:H:/STM32H7/RGB_LVGL/Middlewares/LVGL/GUI/lvgl/src/core\lv_obj_style_gen.h ****     return v.color;
 536:H:/STM32H7/RGB_LVGL/Middlewares/LVGL/GUI/lvgl/src/core\lv_obj_style_gen.h **** }
 537:H:/STM32H7/RGB_LVGL/Middlewares/LVGL/GUI/lvgl/src/core\lv_obj_style_gen.h **** 
 538:H:/STM32H7/RGB_LVGL/Middlewares/LVGL/GUI/lvgl/src/core\lv_obj_style_gen.h **** static inline lv_color_t lv_obj_get_style_text_color_filtered(const lv_obj_t * obj, lv_part_t part)
 539:H:/STM32H7/RGB_LVGL/Middlewares/LVGL/GUI/lvgl/src/core\lv_obj_style_gen.h **** {
 540:H:/STM32H7/RGB_LVGL/Middlewares/LVGL/GUI/lvgl/src/core\lv_obj_style_gen.h ****     lv_style_value_t v = lv_obj_style_apply_color_filter(obj, part, lv_obj_get_style_prop(obj, part
 541:H:/STM32H7/RGB_LVGL/Middlewares/LVGL/GUI/lvgl/src/core\lv_obj_style_gen.h ****     return v.color;
 542:H:/STM32H7/RGB_LVGL/Middlewares/LVGL/GUI/lvgl/src/core\lv_obj_style_gen.h **** }
 543:H:/STM32H7/RGB_LVGL/Middlewares/LVGL/GUI/lvgl/src/core\lv_obj_style_gen.h **** 
 544:H:/STM32H7/RGB_LVGL/Middlewares/LVGL/GUI/lvgl/src/core\lv_obj_style_gen.h **** static inline lv_opa_t lv_obj_get_style_text_opa(const lv_obj_t * obj, lv_part_t part)
 545:H:/STM32H7/RGB_LVGL/Middlewares/LVGL/GUI/lvgl/src/core\lv_obj_style_gen.h **** {
 546:H:/STM32H7/RGB_LVGL/Middlewares/LVGL/GUI/lvgl/src/core\lv_obj_style_gen.h ****     lv_style_value_t v = lv_obj_get_style_prop(obj, part, LV_STYLE_TEXT_OPA);
 547:H:/STM32H7/RGB_LVGL/Middlewares/LVGL/GUI/lvgl/src/core\lv_obj_style_gen.h ****     return (lv_opa_t)v.num;
 548:H:/STM32H7/RGB_LVGL/Middlewares/LVGL/GUI/lvgl/src/core\lv_obj_style_gen.h **** }
 549:H:/STM32H7/RGB_LVGL/Middlewares/LVGL/GUI/lvgl/src/core\lv_obj_style_gen.h **** 
 550:H:/STM32H7/RGB_LVGL/Middlewares/LVGL/GUI/lvgl/src/core\lv_obj_style_gen.h **** static inline const lv_font_t * lv_obj_get_style_text_font(const lv_obj_t * obj, lv_part_t part)
 551:H:/STM32H7/RGB_LVGL/Middlewares/LVGL/GUI/lvgl/src/core\lv_obj_style_gen.h **** {
 552:H:/STM32H7/RGB_LVGL/Middlewares/LVGL/GUI/lvgl/src/core\lv_obj_style_gen.h ****     lv_style_value_t v = lv_obj_get_style_prop(obj, part, LV_STYLE_TEXT_FONT);
 553:H:/STM32H7/RGB_LVGL/Middlewares/LVGL/GUI/lvgl/src/core\lv_obj_style_gen.h ****     return (const lv_font_t *)v.ptr;
 554:H:/STM32H7/RGB_LVGL/Middlewares/LVGL/GUI/lvgl/src/core\lv_obj_style_gen.h **** }
 555:H:/STM32H7/RGB_LVGL/Middlewares/LVGL/GUI/lvgl/src/core\lv_obj_style_gen.h **** 
 556:H:/STM32H7/RGB_LVGL/Middlewares/LVGL/GUI/lvgl/src/core\lv_obj_style_gen.h **** static inline int32_t lv_obj_get_style_text_letter_space(const lv_obj_t * obj, lv_part_t part)
 557:H:/STM32H7/RGB_LVGL/Middlewares/LVGL/GUI/lvgl/src/core\lv_obj_style_gen.h **** {
 558:H:/STM32H7/RGB_LVGL/Middlewares/LVGL/GUI/lvgl/src/core\lv_obj_style_gen.h ****     lv_style_value_t v = lv_obj_get_style_prop(obj, part, LV_STYLE_TEXT_LETTER_SPACE);
 559:H:/STM32H7/RGB_LVGL/Middlewares/LVGL/GUI/lvgl/src/core\lv_obj_style_gen.h ****     return (int32_t)v.num;
 560:H:/STM32H7/RGB_LVGL/Middlewares/LVGL/GUI/lvgl/src/core\lv_obj_style_gen.h **** }
 561:H:/STM32H7/RGB_LVGL/Middlewares/LVGL/GUI/lvgl/src/core\lv_obj_style_gen.h **** 
ARM GAS  C:\Users\28576\AppData\Local\Temp\cceCo13F.s 			page 19


 562:H:/STM32H7/RGB_LVGL/Middlewares/LVGL/GUI/lvgl/src/core\lv_obj_style_gen.h **** static inline int32_t lv_obj_get_style_text_line_space(const lv_obj_t * obj, lv_part_t part)
 563:H:/STM32H7/RGB_LVGL/Middlewares/LVGL/GUI/lvgl/src/core\lv_obj_style_gen.h **** {
 564:H:/STM32H7/RGB_LVGL/Middlewares/LVGL/GUI/lvgl/src/core\lv_obj_style_gen.h ****     lv_style_value_t v = lv_obj_get_style_prop(obj, part, LV_STYLE_TEXT_LINE_SPACE);
 565:H:/STM32H7/RGB_LVGL/Middlewares/LVGL/GUI/lvgl/src/core\lv_obj_style_gen.h ****     return (int32_t)v.num;
 566:H:/STM32H7/RGB_LVGL/Middlewares/LVGL/GUI/lvgl/src/core\lv_obj_style_gen.h **** }
 567:H:/STM32H7/RGB_LVGL/Middlewares/LVGL/GUI/lvgl/src/core\lv_obj_style_gen.h **** 
 568:H:/STM32H7/RGB_LVGL/Middlewares/LVGL/GUI/lvgl/src/core\lv_obj_style_gen.h **** static inline lv_text_decor_t lv_obj_get_style_text_decor(const lv_obj_t * obj, lv_part_t part)
 569:H:/STM32H7/RGB_LVGL/Middlewares/LVGL/GUI/lvgl/src/core\lv_obj_style_gen.h **** {
 570:H:/STM32H7/RGB_LVGL/Middlewares/LVGL/GUI/lvgl/src/core\lv_obj_style_gen.h ****     lv_style_value_t v = lv_obj_get_style_prop(obj, part, LV_STYLE_TEXT_DECOR);
 571:H:/STM32H7/RGB_LVGL/Middlewares/LVGL/GUI/lvgl/src/core\lv_obj_style_gen.h ****     return (lv_text_decor_t)v.num;
 572:H:/STM32H7/RGB_LVGL/Middlewares/LVGL/GUI/lvgl/src/core\lv_obj_style_gen.h **** }
 573:H:/STM32H7/RGB_LVGL/Middlewares/LVGL/GUI/lvgl/src/core\lv_obj_style_gen.h **** 
 574:H:/STM32H7/RGB_LVGL/Middlewares/LVGL/GUI/lvgl/src/core\lv_obj_style_gen.h **** static inline lv_text_align_t lv_obj_get_style_text_align(const lv_obj_t * obj, lv_part_t part)
 575:H:/STM32H7/RGB_LVGL/Middlewares/LVGL/GUI/lvgl/src/core\lv_obj_style_gen.h **** {
 576:H:/STM32H7/RGB_LVGL/Middlewares/LVGL/GUI/lvgl/src/core\lv_obj_style_gen.h ****     lv_style_value_t v = lv_obj_get_style_prop(obj, part, LV_STYLE_TEXT_ALIGN);
 577:H:/STM32H7/RGB_LVGL/Middlewares/LVGL/GUI/lvgl/src/core\lv_obj_style_gen.h ****     return (lv_text_align_t)v.num;
 578:H:/STM32H7/RGB_LVGL/Middlewares/LVGL/GUI/lvgl/src/core\lv_obj_style_gen.h **** }
 579:H:/STM32H7/RGB_LVGL/Middlewares/LVGL/GUI/lvgl/src/core\lv_obj_style_gen.h **** 
 580:H:/STM32H7/RGB_LVGL/Middlewares/LVGL/GUI/lvgl/src/core\lv_obj_style_gen.h **** static inline lv_color_t lv_obj_get_style_text_outline_stroke_color(const lv_obj_t * obj, lv_part_t
 581:H:/STM32H7/RGB_LVGL/Middlewares/LVGL/GUI/lvgl/src/core\lv_obj_style_gen.h **** {
 582:H:/STM32H7/RGB_LVGL/Middlewares/LVGL/GUI/lvgl/src/core\lv_obj_style_gen.h ****     lv_style_value_t v = lv_obj_get_style_prop(obj, part, LV_STYLE_TEXT_OUTLINE_STROKE_COLOR);
 583:H:/STM32H7/RGB_LVGL/Middlewares/LVGL/GUI/lvgl/src/core\lv_obj_style_gen.h ****     return v.color;
 584:H:/STM32H7/RGB_LVGL/Middlewares/LVGL/GUI/lvgl/src/core\lv_obj_style_gen.h **** }
 585:H:/STM32H7/RGB_LVGL/Middlewares/LVGL/GUI/lvgl/src/core\lv_obj_style_gen.h **** 
 586:H:/STM32H7/RGB_LVGL/Middlewares/LVGL/GUI/lvgl/src/core\lv_obj_style_gen.h **** static inline lv_color_t lv_obj_get_style_text_outline_stroke_color_filtered(const lv_obj_t * obj, 
 587:H:/STM32H7/RGB_LVGL/Middlewares/LVGL/GUI/lvgl/src/core\lv_obj_style_gen.h **** {
 588:H:/STM32H7/RGB_LVGL/Middlewares/LVGL/GUI/lvgl/src/core\lv_obj_style_gen.h ****     lv_style_value_t v = lv_obj_style_apply_color_filter(obj, part, lv_obj_get_style_prop(obj, part
 589:H:/STM32H7/RGB_LVGL/Middlewares/LVGL/GUI/lvgl/src/core\lv_obj_style_gen.h ****     return v.color;
 590:H:/STM32H7/RGB_LVGL/Middlewares/LVGL/GUI/lvgl/src/core\lv_obj_style_gen.h **** }
 591:H:/STM32H7/RGB_LVGL/Middlewares/LVGL/GUI/lvgl/src/core\lv_obj_style_gen.h **** 
 592:H:/STM32H7/RGB_LVGL/Middlewares/LVGL/GUI/lvgl/src/core\lv_obj_style_gen.h **** static inline int32_t lv_obj_get_style_text_outline_stroke_width(const lv_obj_t * obj, lv_part_t pa
 593:H:/STM32H7/RGB_LVGL/Middlewares/LVGL/GUI/lvgl/src/core\lv_obj_style_gen.h **** {
 594:H:/STM32H7/RGB_LVGL/Middlewares/LVGL/GUI/lvgl/src/core\lv_obj_style_gen.h ****     lv_style_value_t v = lv_obj_get_style_prop(obj, part, LV_STYLE_TEXT_OUTLINE_STROKE_WIDTH);
 595:H:/STM32H7/RGB_LVGL/Middlewares/LVGL/GUI/lvgl/src/core\lv_obj_style_gen.h ****     return (int32_t)v.num;
 596:H:/STM32H7/RGB_LVGL/Middlewares/LVGL/GUI/lvgl/src/core\lv_obj_style_gen.h **** }
 597:H:/STM32H7/RGB_LVGL/Middlewares/LVGL/GUI/lvgl/src/core\lv_obj_style_gen.h **** 
 598:H:/STM32H7/RGB_LVGL/Middlewares/LVGL/GUI/lvgl/src/core\lv_obj_style_gen.h **** static inline lv_opa_t lv_obj_get_style_text_outline_stroke_opa(const lv_obj_t * obj, lv_part_t par
 599:H:/STM32H7/RGB_LVGL/Middlewares/LVGL/GUI/lvgl/src/core\lv_obj_style_gen.h **** {
 600:H:/STM32H7/RGB_LVGL/Middlewares/LVGL/GUI/lvgl/src/core\lv_obj_style_gen.h ****     lv_style_value_t v = lv_obj_get_style_prop(obj, part, LV_STYLE_TEXT_OUTLINE_STROKE_OPA);
 601:H:/STM32H7/RGB_LVGL/Middlewares/LVGL/GUI/lvgl/src/core\lv_obj_style_gen.h ****     return (lv_opa_t)v.num;
 602:H:/STM32H7/RGB_LVGL/Middlewares/LVGL/GUI/lvgl/src/core\lv_obj_style_gen.h **** }
 603:H:/STM32H7/RGB_LVGL/Middlewares/LVGL/GUI/lvgl/src/core\lv_obj_style_gen.h **** 
 604:H:/STM32H7/RGB_LVGL/Middlewares/LVGL/GUI/lvgl/src/core\lv_obj_style_gen.h **** static inline int32_t lv_obj_get_style_radius(const lv_obj_t * obj, lv_part_t part)
 605:H:/STM32H7/RGB_LVGL/Middlewares/LVGL/GUI/lvgl/src/core\lv_obj_style_gen.h **** {
 606:H:/STM32H7/RGB_LVGL/Middlewares/LVGL/GUI/lvgl/src/core\lv_obj_style_gen.h ****     lv_style_value_t v = lv_obj_get_style_prop(obj, part, LV_STYLE_RADIUS);
 607:H:/STM32H7/RGB_LVGL/Middlewares/LVGL/GUI/lvgl/src/core\lv_obj_style_gen.h ****     return (int32_t)v.num;
 608:H:/STM32H7/RGB_LVGL/Middlewares/LVGL/GUI/lvgl/src/core\lv_obj_style_gen.h **** }
 609:H:/STM32H7/RGB_LVGL/Middlewares/LVGL/GUI/lvgl/src/core\lv_obj_style_gen.h **** 
 610:H:/STM32H7/RGB_LVGL/Middlewares/LVGL/GUI/lvgl/src/core\lv_obj_style_gen.h **** static inline int32_t lv_obj_get_style_radial_offset(const lv_obj_t * obj, lv_part_t part)
 611:H:/STM32H7/RGB_LVGL/Middlewares/LVGL/GUI/lvgl/src/core\lv_obj_style_gen.h **** {
 612:H:/STM32H7/RGB_LVGL/Middlewares/LVGL/GUI/lvgl/src/core\lv_obj_style_gen.h ****     lv_style_value_t v = lv_obj_get_style_prop(obj, part, LV_STYLE_RADIAL_OFFSET);
 613:H:/STM32H7/RGB_LVGL/Middlewares/LVGL/GUI/lvgl/src/core\lv_obj_style_gen.h ****     return (int32_t)v.num;
 614:H:/STM32H7/RGB_LVGL/Middlewares/LVGL/GUI/lvgl/src/core\lv_obj_style_gen.h **** }
 615:H:/STM32H7/RGB_LVGL/Middlewares/LVGL/GUI/lvgl/src/core\lv_obj_style_gen.h **** 
 616:H:/STM32H7/RGB_LVGL/Middlewares/LVGL/GUI/lvgl/src/core\lv_obj_style_gen.h **** static inline bool lv_obj_get_style_clip_corner(const lv_obj_t * obj, lv_part_t part)
 617:H:/STM32H7/RGB_LVGL/Middlewares/LVGL/GUI/lvgl/src/core\lv_obj_style_gen.h **** {
 618:H:/STM32H7/RGB_LVGL/Middlewares/LVGL/GUI/lvgl/src/core\lv_obj_style_gen.h ****     lv_style_value_t v = lv_obj_get_style_prop(obj, part, LV_STYLE_CLIP_CORNER);
ARM GAS  C:\Users\28576\AppData\Local\Temp\cceCo13F.s 			page 20


 619:H:/STM32H7/RGB_LVGL/Middlewares/LVGL/GUI/lvgl/src/core\lv_obj_style_gen.h ****     return (bool)v.num;
 620:H:/STM32H7/RGB_LVGL/Middlewares/LVGL/GUI/lvgl/src/core\lv_obj_style_gen.h **** }
 621:H:/STM32H7/RGB_LVGL/Middlewares/LVGL/GUI/lvgl/src/core\lv_obj_style_gen.h **** 
 622:H:/STM32H7/RGB_LVGL/Middlewares/LVGL/GUI/lvgl/src/core\lv_obj_style_gen.h **** static inline lv_opa_t lv_obj_get_style_opa(const lv_obj_t * obj, lv_part_t part)
 623:H:/STM32H7/RGB_LVGL/Middlewares/LVGL/GUI/lvgl/src/core\lv_obj_style_gen.h **** {
 624:H:/STM32H7/RGB_LVGL/Middlewares/LVGL/GUI/lvgl/src/core\lv_obj_style_gen.h ****     lv_style_value_t v = lv_obj_get_style_prop(obj, part, LV_STYLE_OPA);
 625:H:/STM32H7/RGB_LVGL/Middlewares/LVGL/GUI/lvgl/src/core\lv_obj_style_gen.h ****     return (lv_opa_t)v.num;
 626:H:/STM32H7/RGB_LVGL/Middlewares/LVGL/GUI/lvgl/src/core\lv_obj_style_gen.h **** }
 627:H:/STM32H7/RGB_LVGL/Middlewares/LVGL/GUI/lvgl/src/core\lv_obj_style_gen.h **** 
 628:H:/STM32H7/RGB_LVGL/Middlewares/LVGL/GUI/lvgl/src/core\lv_obj_style_gen.h **** static inline lv_opa_t lv_obj_get_style_opa_layered(const lv_obj_t * obj, lv_part_t part)
 629:H:/STM32H7/RGB_LVGL/Middlewares/LVGL/GUI/lvgl/src/core\lv_obj_style_gen.h **** {
 630:H:/STM32H7/RGB_LVGL/Middlewares/LVGL/GUI/lvgl/src/core\lv_obj_style_gen.h ****     lv_style_value_t v = lv_obj_get_style_prop(obj, part, LV_STYLE_OPA_LAYERED);
 631:H:/STM32H7/RGB_LVGL/Middlewares/LVGL/GUI/lvgl/src/core\lv_obj_style_gen.h ****     return (lv_opa_t)v.num;
 632:H:/STM32H7/RGB_LVGL/Middlewares/LVGL/GUI/lvgl/src/core\lv_obj_style_gen.h **** }
 633:H:/STM32H7/RGB_LVGL/Middlewares/LVGL/GUI/lvgl/src/core\lv_obj_style_gen.h **** 
 634:H:/STM32H7/RGB_LVGL/Middlewares/LVGL/GUI/lvgl/src/core\lv_obj_style_gen.h **** static inline const lv_color_filter_dsc_t * lv_obj_get_style_color_filter_dsc(const lv_obj_t * obj,
 635:H:/STM32H7/RGB_LVGL/Middlewares/LVGL/GUI/lvgl/src/core\lv_obj_style_gen.h **** {
 636:H:/STM32H7/RGB_LVGL/Middlewares/LVGL/GUI/lvgl/src/core\lv_obj_style_gen.h ****     lv_style_value_t v = lv_obj_get_style_prop(obj, part, LV_STYLE_COLOR_FILTER_DSC);
 637:H:/STM32H7/RGB_LVGL/Middlewares/LVGL/GUI/lvgl/src/core\lv_obj_style_gen.h ****     return (const lv_color_filter_dsc_t *)v.ptr;
 638:H:/STM32H7/RGB_LVGL/Middlewares/LVGL/GUI/lvgl/src/core\lv_obj_style_gen.h **** }
 639:H:/STM32H7/RGB_LVGL/Middlewares/LVGL/GUI/lvgl/src/core\lv_obj_style_gen.h **** 
 640:H:/STM32H7/RGB_LVGL/Middlewares/LVGL/GUI/lvgl/src/core\lv_obj_style_gen.h **** static inline lv_opa_t lv_obj_get_style_color_filter_opa(const lv_obj_t * obj, lv_part_t part)
 641:H:/STM32H7/RGB_LVGL/Middlewares/LVGL/GUI/lvgl/src/core\lv_obj_style_gen.h **** {
 642:H:/STM32H7/RGB_LVGL/Middlewares/LVGL/GUI/lvgl/src/core\lv_obj_style_gen.h ****     lv_style_value_t v = lv_obj_get_style_prop(obj, part, LV_STYLE_COLOR_FILTER_OPA);
 643:H:/STM32H7/RGB_LVGL/Middlewares/LVGL/GUI/lvgl/src/core\lv_obj_style_gen.h ****     return (lv_opa_t)v.num;
 644:H:/STM32H7/RGB_LVGL/Middlewares/LVGL/GUI/lvgl/src/core\lv_obj_style_gen.h **** }
 645:H:/STM32H7/RGB_LVGL/Middlewares/LVGL/GUI/lvgl/src/core\lv_obj_style_gen.h **** 
 646:H:/STM32H7/RGB_LVGL/Middlewares/LVGL/GUI/lvgl/src/core\lv_obj_style_gen.h **** static inline lv_color_t lv_obj_get_style_recolor(const lv_obj_t * obj, lv_part_t part)
 647:H:/STM32H7/RGB_LVGL/Middlewares/LVGL/GUI/lvgl/src/core\lv_obj_style_gen.h **** {
 648:H:/STM32H7/RGB_LVGL/Middlewares/LVGL/GUI/lvgl/src/core\lv_obj_style_gen.h ****     lv_style_value_t v = lv_obj_get_style_prop(obj, part, LV_STYLE_RECOLOR);
 649:H:/STM32H7/RGB_LVGL/Middlewares/LVGL/GUI/lvgl/src/core\lv_obj_style_gen.h ****     return v.color;
 650:H:/STM32H7/RGB_LVGL/Middlewares/LVGL/GUI/lvgl/src/core\lv_obj_style_gen.h **** }
 651:H:/STM32H7/RGB_LVGL/Middlewares/LVGL/GUI/lvgl/src/core\lv_obj_style_gen.h **** 
 652:H:/STM32H7/RGB_LVGL/Middlewares/LVGL/GUI/lvgl/src/core\lv_obj_style_gen.h **** static inline lv_opa_t lv_obj_get_style_recolor_opa(const lv_obj_t * obj, lv_part_t part)
 653:H:/STM32H7/RGB_LVGL/Middlewares/LVGL/GUI/lvgl/src/core\lv_obj_style_gen.h **** {
 654:H:/STM32H7/RGB_LVGL/Middlewares/LVGL/GUI/lvgl/src/core\lv_obj_style_gen.h ****     lv_style_value_t v = lv_obj_get_style_prop(obj, part, LV_STYLE_RECOLOR_OPA);
 655:H:/STM32H7/RGB_LVGL/Middlewares/LVGL/GUI/lvgl/src/core\lv_obj_style_gen.h ****     return (lv_opa_t)v.num;
 656:H:/STM32H7/RGB_LVGL/Middlewares/LVGL/GUI/lvgl/src/core\lv_obj_style_gen.h **** }
 657:H:/STM32H7/RGB_LVGL/Middlewares/LVGL/GUI/lvgl/src/core\lv_obj_style_gen.h **** 
 658:H:/STM32H7/RGB_LVGL/Middlewares/LVGL/GUI/lvgl/src/core\lv_obj_style_gen.h **** static inline const lv_anim_t * lv_obj_get_style_anim(const lv_obj_t * obj, lv_part_t part)
 659:H:/STM32H7/RGB_LVGL/Middlewares/LVGL/GUI/lvgl/src/core\lv_obj_style_gen.h **** {
 660:H:/STM32H7/RGB_LVGL/Middlewares/LVGL/GUI/lvgl/src/core\lv_obj_style_gen.h ****     lv_style_value_t v = lv_obj_get_style_prop(obj, part, LV_STYLE_ANIM);
 661:H:/STM32H7/RGB_LVGL/Middlewares/LVGL/GUI/lvgl/src/core\lv_obj_style_gen.h ****     return (const lv_anim_t *)v.ptr;
 662:H:/STM32H7/RGB_LVGL/Middlewares/LVGL/GUI/lvgl/src/core\lv_obj_style_gen.h **** }
 663:H:/STM32H7/RGB_LVGL/Middlewares/LVGL/GUI/lvgl/src/core\lv_obj_style_gen.h **** 
 664:H:/STM32H7/RGB_LVGL/Middlewares/LVGL/GUI/lvgl/src/core\lv_obj_style_gen.h **** static inline uint32_t lv_obj_get_style_anim_duration(const lv_obj_t * obj, lv_part_t part)
 157              		.loc 2 664 24 view .LVU30
 158              	.LBB33:
 665:H:/STM32H7/RGB_LVGL/Middlewares/LVGL/GUI/lvgl/src/core\lv_obj_style_gen.h **** {
 666:H:/STM32H7/RGB_LVGL/Middlewares/LVGL/GUI/lvgl/src/core\lv_obj_style_gen.h ****     lv_style_value_t v = lv_obj_get_style_prop(obj, part, LV_STYLE_ANIM_DURATION);
 159              		.loc 2 666 5 view .LVU31
 160              		.loc 2 666 26 is_stmt 0 view .LVU32
 161 0008 6722     		movs	r2, #103
 162 000a 0021     		movs	r1, #0
 163 000c FFF7FEFF 		bl	lv_obj_get_style_prop
 164              	.LVL12:
 165              		.loc 2 666 26 view .LVU33
ARM GAS  C:\Users\28576\AppData\Local\Temp\cceCo13F.s 			page 21


 166 0010 0646     		mov	r6, r0
 167 0012 0090     		str	r0, [sp]
 667:H:/STM32H7/RGB_LVGL/Middlewares/LVGL/GUI/lvgl/src/core\lv_obj_style_gen.h ****     return (uint32_t)v.num;
 168              		.loc 2 667 5 is_stmt 1 view .LVU34
 169              	.LVL13:
 170              		.loc 2 667 5 is_stmt 0 view .LVU35
 171              	.LBE33:
 172              	.LBE32:
 302:../../Middlewares/LVGL/GUI/lvgl/src/widgets/switch/lv_switch.c **** 
 303:../../Middlewares/LVGL/GUI/lvgl/src/widgets/switch/lv_switch.c ****     if(anim_dur_full > 0) {
 173              		.loc 1 303 5 is_stmt 1 view .LVU36
 174              		.loc 1 303 7 is_stmt 0 view .LVU37
 175 0014 10B9     		cbnz	r0, .L17
 176              	.LVL14:
 177              	.L7:
 304:../../Middlewares/LVGL/GUI/lvgl/src/widgets/switch/lv_switch.c ****         bool chk = lv_obj_get_state(obj) & LV_STATE_CHECKED;
 305:../../Middlewares/LVGL/GUI/lvgl/src/widgets/switch/lv_switch.c ****         int32_t anim_start;
 306:../../Middlewares/LVGL/GUI/lvgl/src/widgets/switch/lv_switch.c ****         int32_t anim_end;
 307:../../Middlewares/LVGL/GUI/lvgl/src/widgets/switch/lv_switch.c ****         /*No animation in progress -> simply set the values*/
 308:../../Middlewares/LVGL/GUI/lvgl/src/widgets/switch/lv_switch.c ****         if(sw->anim_state == LV_SWITCH_ANIM_STATE_INV) {
 309:../../Middlewares/LVGL/GUI/lvgl/src/widgets/switch/lv_switch.c ****             anim_start = chk ? LV_SWITCH_ANIM_STATE_START : LV_SWITCH_ANIM_STATE_END;
 310:../../Middlewares/LVGL/GUI/lvgl/src/widgets/switch/lv_switch.c ****             anim_end   = chk ? LV_SWITCH_ANIM_STATE_END : LV_SWITCH_ANIM_STATE_START;
 311:../../Middlewares/LVGL/GUI/lvgl/src/widgets/switch/lv_switch.c ****         }
 312:../../Middlewares/LVGL/GUI/lvgl/src/widgets/switch/lv_switch.c ****         /*Animation in progress. Start from the animation end value*/
 313:../../Middlewares/LVGL/GUI/lvgl/src/widgets/switch/lv_switch.c ****         else {
 314:../../Middlewares/LVGL/GUI/lvgl/src/widgets/switch/lv_switch.c ****             anim_start = sw->anim_state;
 315:../../Middlewares/LVGL/GUI/lvgl/src/widgets/switch/lv_switch.c ****             anim_end   = chk ? LV_SWITCH_ANIM_STATE_END : LV_SWITCH_ANIM_STATE_START;
 316:../../Middlewares/LVGL/GUI/lvgl/src/widgets/switch/lv_switch.c ****         }
 317:../../Middlewares/LVGL/GUI/lvgl/src/widgets/switch/lv_switch.c ****         /*Calculate actual animation duration*/
 318:../../Middlewares/LVGL/GUI/lvgl/src/widgets/switch/lv_switch.c ****         uint32_t anim_dur = (anim_dur_full * LV_ABS(anim_start - anim_end)) / LV_SWITCH_ANIM_STATE_
 319:../../Middlewares/LVGL/GUI/lvgl/src/widgets/switch/lv_switch.c **** 
 320:../../Middlewares/LVGL/GUI/lvgl/src/widgets/switch/lv_switch.c ****         /*Stop the previous animation if it exists*/
 321:../../Middlewares/LVGL/GUI/lvgl/src/widgets/switch/lv_switch.c ****         lv_anim_delete(sw, NULL);
 322:../../Middlewares/LVGL/GUI/lvgl/src/widgets/switch/lv_switch.c **** 
 323:../../Middlewares/LVGL/GUI/lvgl/src/widgets/switch/lv_switch.c ****         lv_anim_t a;
 324:../../Middlewares/LVGL/GUI/lvgl/src/widgets/switch/lv_switch.c ****         lv_anim_init(&a);
 325:../../Middlewares/LVGL/GUI/lvgl/src/widgets/switch/lv_switch.c ****         lv_anim_set_var(&a, sw);
 326:../../Middlewares/LVGL/GUI/lvgl/src/widgets/switch/lv_switch.c ****         lv_anim_set_exec_cb(&a, lv_switch_anim_exec_cb);
 327:../../Middlewares/LVGL/GUI/lvgl/src/widgets/switch/lv_switch.c ****         lv_anim_set_values(&a, anim_start, anim_end);
 328:../../Middlewares/LVGL/GUI/lvgl/src/widgets/switch/lv_switch.c ****         lv_anim_set_completed_cb(&a, lv_switch_anim_completed);
 329:../../Middlewares/LVGL/GUI/lvgl/src/widgets/switch/lv_switch.c ****         lv_anim_set_duration(&a, anim_dur);
 330:../../Middlewares/LVGL/GUI/lvgl/src/widgets/switch/lv_switch.c ****         lv_anim_start(&a);
 331:../../Middlewares/LVGL/GUI/lvgl/src/widgets/switch/lv_switch.c ****     }
 332:../../Middlewares/LVGL/GUI/lvgl/src/widgets/switch/lv_switch.c **** }
 178              		.loc 1 332 1 view .LVU38
 179 0016 19B0     		add	sp, sp, #100
 180              	.LCFI5:
 181              		.cfi_def_cfa_offset 20
 182              		@ sp needed
 183 0018 F0BD     		pop	{r4, r5, r6, r7, pc}
 184              	.LVL15:
 185              	.L9:
 186              	.LCFI6:
 187              		.cfi_def_cfa_offset 0
 188              		.cfi_restore 4
 189              		.cfi_restore 5
 190              		.cfi_restore 6
ARM GAS  C:\Users\28576\AppData\Local\Temp\cceCo13F.s 			page 22


 191              		.cfi_restore 7
 192              		.cfi_restore 14
 298:../../Middlewares/LVGL/GUI/lvgl/src/widgets/switch/lv_switch.c ****     lv_switch_t * sw = (lv_switch_t *)obj;
 193              		.loc 1 298 5 is_stmt 1 view .LVU39
 298:../../Middlewares/LVGL/GUI/lvgl/src/widgets/switch/lv_switch.c ****     lv_switch_t * sw = (lv_switch_t *)obj;
 194              		.loc 1 298 5 view .LVU40
 298:../../Middlewares/LVGL/GUI/lvgl/src/widgets/switch/lv_switch.c ****     lv_switch_t * sw = (lv_switch_t *)obj;
 195              		.loc 1 298 5 view .LVU41
 298:../../Middlewares/LVGL/GUI/lvgl/src/widgets/switch/lv_switch.c ****     lv_switch_t * sw = (lv_switch_t *)obj;
 196              		.loc 1 298 5 view .LVU42
 298:../../Middlewares/LVGL/GUI/lvgl/src/widgets/switch/lv_switch.c ****     lv_switch_t * sw = (lv_switch_t *)obj;
 197              		.loc 1 298 5 view .LVU43
 198 001a FEE7     		b	.L9
 199              	.LVL16:
 200              	.L17:
 201              	.LCFI7:
 202              		.cfi_def_cfa_offset 120
 203              		.cfi_offset 4, -20
 204              		.cfi_offset 5, -16
 205              		.cfi_offset 6, -12
 206              		.cfi_offset 7, -8
 207              		.cfi_offset 14, -4
 208              	.LBB34:
 304:../../Middlewares/LVGL/GUI/lvgl/src/widgets/switch/lv_switch.c ****         bool chk = lv_obj_get_state(obj) & LV_STATE_CHECKED;
 209              		.loc 1 304 9 view .LVU44
 304:../../Middlewares/LVGL/GUI/lvgl/src/widgets/switch/lv_switch.c ****         bool chk = lv_obj_get_state(obj) & LV_STATE_CHECKED;
 210              		.loc 1 304 20 is_stmt 0 view .LVU45
 211 001c 3846     		mov	r0, r7
 212              	.LVL17:
 304:../../Middlewares/LVGL/GUI/lvgl/src/widgets/switch/lv_switch.c ****         bool chk = lv_obj_get_state(obj) & LV_STATE_CHECKED;
 213              		.loc 1 304 20 view .LVU46
 214 001e FFF7FEFF 		bl	lv_obj_get_state
 215              	.LVL18:
 216 0022 00F00100 		and	r0, r0, #1
 217              	.LVL19:
 305:../../Middlewares/LVGL/GUI/lvgl/src/widgets/switch/lv_switch.c ****         int32_t anim_end;
 218              		.loc 1 305 9 is_stmt 1 view .LVU47
 306:../../Middlewares/LVGL/GUI/lvgl/src/widgets/switch/lv_switch.c ****         /*No animation in progress -> simply set the values*/
 219              		.loc 1 306 9 view .LVU48
 308:../../Middlewares/LVGL/GUI/lvgl/src/widgets/switch/lv_switch.c ****             anim_start = chk ? LV_SWITCH_ANIM_STATE_START : LV_SWITCH_ANIM_STATE_END;
 220              		.loc 1 308 9 view .LVU49
 308:../../Middlewares/LVGL/GUI/lvgl/src/widgets/switch/lv_switch.c ****             anim_start = chk ? LV_SWITCH_ANIM_STATE_START : LV_SWITCH_ANIM_STATE_END;
 221              		.loc 1 308 14 is_stmt 0 view .LVU50
 222 0026 FB6A     		ldr	r3, [r7, #44]
 223 0028 1A46     		mov	r2, r3
 308:../../Middlewares/LVGL/GUI/lvgl/src/widgets/switch/lv_switch.c ****             anim_start = chk ? LV_SWITCH_ANIM_STATE_START : LV_SWITCH_ANIM_STATE_END;
 224              		.loc 1 308 11 view .LVU51
 225 002a B3F1FF3F 		cmp	r3, #-1
 226 002e 2CD0     		beq	.L18
 314:../../Middlewares/LVGL/GUI/lvgl/src/widgets/switch/lv_switch.c ****             anim_end   = chk ? LV_SWITCH_ANIM_STATE_END : LV_SWITCH_ANIM_STATE_START;
 227              		.loc 1 314 13 is_stmt 1 view .LVU52
 228              	.LVL20:
 315:../../Middlewares/LVGL/GUI/lvgl/src/widgets/switch/lv_switch.c ****         }
 229              		.loc 1 315 13 view .LVU53
 315:../../Middlewares/LVGL/GUI/lvgl/src/widgets/switch/lv_switch.c ****         }
 230              		.loc 1 315 57 is_stmt 0 view .LVU54
 231 0030 B8B3     		cbz	r0, .L14
ARM GAS  C:\Users\28576\AppData\Local\Temp\cceCo13F.s 			page 23


 315:../../Middlewares/LVGL/GUI/lvgl/src/widgets/switch/lv_switch.c ****         }
 232              		.loc 1 315 24 discriminator 1 view .LVU55
 233 0032 4FF48073 		mov	r3, #256
 234 0036 1946     		mov	r1, r3
 235              	.LVL21:
 236              	.L12:
 318:../../Middlewares/LVGL/GUI/lvgl/src/widgets/switch/lv_switch.c **** 
 237              		.loc 1 318 9 is_stmt 1 view .LVU56
 318:../../Middlewares/LVGL/GUI/lvgl/src/widgets/switch/lv_switch.c **** 
 238              		.loc 1 318 46 is_stmt 0 view .LVU57
 239 0038 1446     		mov	r4, r2
 240 003a 0D46     		mov	r5, r1
 241 003c 531A     		subs	r3, r2, r1
 242 003e 002B     		cmp	r3, #0
 243 0040 B8BF     		it	lt
 244 0042 5B42     		rsblt	r3, r3, #0
 318:../../Middlewares/LVGL/GUI/lvgl/src/widgets/switch/lv_switch.c **** 
 245              		.loc 1 318 44 view .LVU58
 246 0044 06FB03F3 		mul	r3, r6, r3
 318:../../Middlewares/LVGL/GUI/lvgl/src/widgets/switch/lv_switch.c **** 
 247              		.loc 1 318 18 view .LVU59
 248 0048 1E0A     		lsrs	r6, r3, #8
 249              	.LVL22:
 321:../../Middlewares/LVGL/GUI/lvgl/src/widgets/switch/lv_switch.c **** 
 250              		.loc 1 321 9 is_stmt 1 view .LVU60
 251 004a 0021     		movs	r1, #0
 252              	.LVL23:
 321:../../Middlewares/LVGL/GUI/lvgl/src/widgets/switch/lv_switch.c **** 
 253              		.loc 1 321 9 is_stmt 0 view .LVU61
 254 004c 3846     		mov	r0, r7
 255              	.LVL24:
 321:../../Middlewares/LVGL/GUI/lvgl/src/widgets/switch/lv_switch.c **** 
 256              		.loc 1 321 9 view .LVU62
 257 004e FFF7FEFF 		bl	lv_anim_delete
 258              	.LVL25:
 323:../../Middlewares/LVGL/GUI/lvgl/src/widgets/switch/lv_switch.c ****         lv_anim_init(&a);
 259              		.loc 1 323 9 is_stmt 1 view .LVU63
 324:../../Middlewares/LVGL/GUI/lvgl/src/widgets/switch/lv_switch.c ****         lv_anim_set_var(&a, sw);
 260              		.loc 1 324 9 view .LVU64
 261 0052 6846     		mov	r0, sp
 262 0054 FFF7FEFF 		bl	lv_anim_init
 263              	.LVL26:
 325:../../Middlewares/LVGL/GUI/lvgl/src/widgets/switch/lv_switch.c ****         lv_anim_set_exec_cb(&a, lv_switch_anim_exec_cb);
 264              		.loc 1 325 9 view .LVU65
 265 0058 3946     		mov	r1, r7
 266 005a 6846     		mov	r0, sp
 267 005c FFF7FEFF 		bl	lv_anim_set_var
 268              	.LVL27:
 326:../../Middlewares/LVGL/GUI/lvgl/src/widgets/switch/lv_switch.c ****         lv_anim_set_values(&a, anim_start, anim_end);
 269              		.loc 1 326 9 view .LVU66
 270 0060 1149     		ldr	r1, .L19
 271 0062 6846     		mov	r0, sp
 272 0064 FFF7FEFF 		bl	lv_anim_set_exec_cb
 273              	.LVL28:
 327:../../Middlewares/LVGL/GUI/lvgl/src/widgets/switch/lv_switch.c ****         lv_anim_set_completed_cb(&a, lv_switch_anim_completed);
 274              		.loc 1 327 9 view .LVU67
 275 0068 2A46     		mov	r2, r5
ARM GAS  C:\Users\28576\AppData\Local\Temp\cceCo13F.s 			page 24


 276 006a 2146     		mov	r1, r4
 277 006c 6846     		mov	r0, sp
 278 006e FFF7FEFF 		bl	lv_anim_set_values
 279              	.LVL29:
 328:../../Middlewares/LVGL/GUI/lvgl/src/widgets/switch/lv_switch.c ****         lv_anim_set_duration(&a, anim_dur);
 280              		.loc 1 328 9 view .LVU68
 281 0072 0E49     		ldr	r1, .L19+4
 282 0074 6846     		mov	r0, sp
 283 0076 FFF7FEFF 		bl	lv_anim_set_completed_cb
 284              	.LVL30:
 329:../../Middlewares/LVGL/GUI/lvgl/src/widgets/switch/lv_switch.c ****         lv_anim_start(&a);
 285              		.loc 1 329 9 view .LVU69
 286 007a 3146     		mov	r1, r6
 287 007c 6846     		mov	r0, sp
 288 007e FFF7FEFF 		bl	lv_anim_set_duration
 289              	.LVL31:
 330:../../Middlewares/LVGL/GUI/lvgl/src/widgets/switch/lv_switch.c ****     }
 290              		.loc 1 330 9 view .LVU70
 291 0082 6846     		mov	r0, sp
 292 0084 FFF7FEFF 		bl	lv_anim_start
 293              	.LVL32:
 294              	.LBE34:
 295              		.loc 1 332 1 is_stmt 0 view .LVU71
 296 0088 C5E7     		b	.L7
 297              	.LVL33:
 298              	.L18:
 299              	.LBB35:
 309:../../Middlewares/LVGL/GUI/lvgl/src/widgets/switch/lv_switch.c ****             anim_end   = chk ? LV_SWITCH_ANIM_STATE_END : LV_SWITCH_ANIM_STATE_START;
 300              		.loc 1 309 13 is_stmt 1 view .LVU72
 309:../../Middlewares/LVGL/GUI/lvgl/src/widgets/switch/lv_switch.c ****             anim_end   = chk ? LV_SWITCH_ANIM_STATE_END : LV_SWITCH_ANIM_STATE_START;
 301              		.loc 1 309 59 is_stmt 0 view .LVU73
 302 008a 28B1     		cbz	r0, .L13
 310:../../Middlewares/LVGL/GUI/lvgl/src/widgets/switch/lv_switch.c ****         }
 303              		.loc 1 310 24 discriminator 1 view .LVU74
 304 008c 4FF48073 		mov	r3, #256
 305 0090 1946     		mov	r1, r3
 309:../../Middlewares/LVGL/GUI/lvgl/src/widgets/switch/lv_switch.c ****             anim_end   = chk ? LV_SWITCH_ANIM_STATE_END : LV_SWITCH_ANIM_STATE_START;
 306              		.loc 1 309 24 discriminator 1 view .LVU75
 307 0092 0023     		movs	r3, #0
 308 0094 1A46     		mov	r2, r3
 309 0096 CFE7     		b	.L12
 310              	.L13:
 310:../../Middlewares/LVGL/GUI/lvgl/src/widgets/switch/lv_switch.c ****         }
 311              		.loc 1 310 24 discriminator 2 view .LVU76
 312 0098 0146     		mov	r1, r0
 309:../../Middlewares/LVGL/GUI/lvgl/src/widgets/switch/lv_switch.c ****             anim_end   = chk ? LV_SWITCH_ANIM_STATE_END : LV_SWITCH_ANIM_STATE_START;
 313              		.loc 1 309 24 discriminator 2 view .LVU77
 314 009a 4FF48073 		mov	r3, #256
 315 009e 1A46     		mov	r2, r3
 316 00a0 CAE7     		b	.L12
 317              	.LVL34:
 318              	.L14:
 315:../../Middlewares/LVGL/GUI/lvgl/src/widgets/switch/lv_switch.c ****         }
 319              		.loc 1 315 24 discriminator 2 view .LVU78
 320 00a2 0146     		mov	r1, r0
 321 00a4 C8E7     		b	.L12
 322              	.L20:
ARM GAS  C:\Users\28576\AppData\Local\Temp\cceCo13F.s 			page 25


 323 00a6 00BF     		.align	2
 324              	.L19:
 325 00a8 00000000 		.word	lv_switch_anim_exec_cb
 326 00ac 00000000 		.word	lv_switch_anim_completed
 327              	.LBE35:
 328              		.cfi_endproc
 329              	.LFE181:
 331              		.section	.text.draw_main,"ax",%progbits
 332              		.align	1
 333              		.syntax unified
 334              		.thumb
 335              		.thumb_func
 337              	draw_main:
 338              	.LVL35:
 339              	.LFB178:
 176:../../Middlewares/LVGL/GUI/lvgl/src/widgets/switch/lv_switch.c ****     lv_obj_t * obj = lv_event_get_current_target(e);
 340              		.loc 1 176 1 is_stmt 1 view -0
 341              		.cfi_startproc
 342              		@ args = 0, pretend = 0, frame = 264
 343              		@ frame_needed = 0, uses_anonymous_args = 0
 176:../../Middlewares/LVGL/GUI/lvgl/src/widgets/switch/lv_switch.c ****     lv_obj_t * obj = lv_event_get_current_target(e);
 344              		.loc 1 176 1 is_stmt 0 view .LVU80
 345 0000 2DE9F043 		push	{r4, r5, r6, r7, r8, r9, lr}
 346              	.LCFI8:
 347              		.cfi_def_cfa_offset 28
 348              		.cfi_offset 4, -28
 349              		.cfi_offset 5, -24
 350              		.cfi_offset 6, -20
 351              		.cfi_offset 7, -16
 352              		.cfi_offset 8, -12
 353              		.cfi_offset 9, -8
 354              		.cfi_offset 14, -4
 355 0004 C3B0     		sub	sp, sp, #268
 356              	.LCFI9:
 357              		.cfi_def_cfa_offset 296
 358 0006 0546     		mov	r5, r0
 177:../../Middlewares/LVGL/GUI/lvgl/src/widgets/switch/lv_switch.c ****     lv_switch_t * sw = (lv_switch_t *)obj;
 359              		.loc 1 177 5 is_stmt 1 view .LVU81
 177:../../Middlewares/LVGL/GUI/lvgl/src/widgets/switch/lv_switch.c ****     lv_switch_t * sw = (lv_switch_t *)obj;
 360              		.loc 1 177 22 is_stmt 0 view .LVU82
 361 0008 FFF7FEFF 		bl	lv_event_get_current_target
 362              	.LVL36:
 177:../../Middlewares/LVGL/GUI/lvgl/src/widgets/switch/lv_switch.c ****     lv_switch_t * sw = (lv_switch_t *)obj;
 363              		.loc 1 177 22 view .LVU83
 364 000c 0446     		mov	r4, r0
 365              	.LVL37:
 178:../../Middlewares/LVGL/GUI/lvgl/src/widgets/switch/lv_switch.c **** 
 366              		.loc 1 178 5 is_stmt 1 view .LVU84
 180:../../Middlewares/LVGL/GUI/lvgl/src/widgets/switch/lv_switch.c **** 
 367              		.loc 1 180 5 view .LVU85
 180:../../Middlewares/LVGL/GUI/lvgl/src/widgets/switch/lv_switch.c **** 
 368              		.loc 1 180 26 is_stmt 0 view .LVU86
 369 000e 2846     		mov	r0, r5
 370              	.LVL38:
 180:../../Middlewares/LVGL/GUI/lvgl/src/widgets/switch/lv_switch.c **** 
 371              		.loc 1 180 26 view .LVU87
 372 0010 FFF7FEFF 		bl	lv_event_get_layer
ARM GAS  C:\Users\28576\AppData\Local\Temp\cceCo13F.s 			page 26


 373              	.LVL39:
 374 0014 0546     		mov	r5, r0
 375              	.LVL40:
 183:../../Middlewares/LVGL/GUI/lvgl/src/widgets/switch/lv_switch.c ****     /*Exclude background's padding*/
 376              		.loc 1 183 5 is_stmt 1 view .LVU88
 185:../../Middlewares/LVGL/GUI/lvgl/src/widgets/switch/lv_switch.c **** 
 377              		.loc 1 185 5 view .LVU89
 378 0016 3EAF     		add	r7, sp, #248
 379 0018 3946     		mov	r1, r7
 380 001a 2046     		mov	r0, r4
 381              	.LVL41:
 185:../../Middlewares/LVGL/GUI/lvgl/src/widgets/switch/lv_switch.c **** 
 382              		.loc 1 185 5 is_stmt 0 view .LVU90
 383 001c FFF7FEFF 		bl	lv_obj_get_content_coords
 384              	.LVL42:
 187:../../Middlewares/LVGL/GUI/lvgl/src/widgets/switch/lv_switch.c ****     lv_draw_rect_dsc_init(&draw_indic_dsc);
 385              		.loc 1 187 5 is_stmt 1 view .LVU91
 188:../../Middlewares/LVGL/GUI/lvgl/src/widgets/switch/lv_switch.c ****     draw_indic_dsc.base.layer = layer;
 386              		.loc 1 188 5 view .LVU92
 387 0020 22AE     		add	r6, sp, #136
 388 0022 3046     		mov	r0, r6
 389 0024 FFF7FEFF 		bl	lv_draw_rect_dsc_init
 390              	.LVL43:
 189:../../Middlewares/LVGL/GUI/lvgl/src/widgets/switch/lv_switch.c ****     lv_obj_init_draw_rect_dsc(obj, LV_PART_INDICATOR, &draw_indic_dsc);
 391              		.loc 1 189 5 view .LVU93
 189:../../Middlewares/LVGL/GUI/lvgl/src/widgets/switch/lv_switch.c ****     lv_obj_init_draw_rect_dsc(obj, LV_PART_INDICATOR, &draw_indic_dsc);
 392              		.loc 1 189 31 is_stmt 0 view .LVU94
 393 0028 2695     		str	r5, [sp, #152]
 190:../../Middlewares/LVGL/GUI/lvgl/src/widgets/switch/lv_switch.c ****     lv_draw_rect(layer, &draw_indic_dsc, &indic_area);
 394              		.loc 1 190 5 is_stmt 1 view .LVU95
 395 002a 3246     		mov	r2, r6
 396 002c 4FF40031 		mov	r1, #131072
 397 0030 2046     		mov	r0, r4
 398 0032 FFF7FEFF 		bl	lv_obj_init_draw_rect_dsc
 399              	.LVL44:
 191:../../Middlewares/LVGL/GUI/lvgl/src/widgets/switch/lv_switch.c **** 
 400              		.loc 1 191 5 view .LVU96
 401 0036 3A46     		mov	r2, r7
 402 0038 3146     		mov	r1, r6
 403 003a 2846     		mov	r0, r5
 404 003c FFF7FEFF 		bl	lv_draw_rect
 405              	.LVL45:
 194:../../Middlewares/LVGL/GUI/lvgl/src/widgets/switch/lv_switch.c ****     lv_area_copy(&knob_area, &obj->coords);
 406              		.loc 1 194 5 view .LVU97
 195:../../Middlewares/LVGL/GUI/lvgl/src/widgets/switch/lv_switch.c **** 
 407              		.loc 1 195 5 view .LVU98
 408              	.LBB36:
 409              	.LBI36:
 410              		.file 3 "H:/STM32H7/RGB_LVGL/Middlewares/LVGL/GUI/lvgl/src/misc/lv_area.h"
   1:H:/STM32H7/RGB_LVGL/Middlewares/LVGL/GUI/lvgl/src/misc\lv_area.h **** /**
   2:H:/STM32H7/RGB_LVGL/Middlewares/LVGL/GUI/lvgl/src/misc\lv_area.h ****  * @file lv_area.h
   3:H:/STM32H7/RGB_LVGL/Middlewares/LVGL/GUI/lvgl/src/misc\lv_area.h ****  *
   4:H:/STM32H7/RGB_LVGL/Middlewares/LVGL/GUI/lvgl/src/misc\lv_area.h ****  */
   5:H:/STM32H7/RGB_LVGL/Middlewares/LVGL/GUI/lvgl/src/misc\lv_area.h **** 
   6:H:/STM32H7/RGB_LVGL/Middlewares/LVGL/GUI/lvgl/src/misc\lv_area.h **** #ifndef LV_AREA_H
   7:H:/STM32H7/RGB_LVGL/Middlewares/LVGL/GUI/lvgl/src/misc\lv_area.h **** #define LV_AREA_H
   8:H:/STM32H7/RGB_LVGL/Middlewares/LVGL/GUI/lvgl/src/misc\lv_area.h **** 
ARM GAS  C:\Users\28576\AppData\Local\Temp\cceCo13F.s 			page 27


   9:H:/STM32H7/RGB_LVGL/Middlewares/LVGL/GUI/lvgl/src/misc\lv_area.h **** #ifdef __cplusplus
  10:H:/STM32H7/RGB_LVGL/Middlewares/LVGL/GUI/lvgl/src/misc\lv_area.h **** extern "C" {
  11:H:/STM32H7/RGB_LVGL/Middlewares/LVGL/GUI/lvgl/src/misc\lv_area.h **** #endif
  12:H:/STM32H7/RGB_LVGL/Middlewares/LVGL/GUI/lvgl/src/misc\lv_area.h **** 
  13:H:/STM32H7/RGB_LVGL/Middlewares/LVGL/GUI/lvgl/src/misc\lv_area.h **** /*********************
  14:H:/STM32H7/RGB_LVGL/Middlewares/LVGL/GUI/lvgl/src/misc\lv_area.h ****  *      INCLUDES
  15:H:/STM32H7/RGB_LVGL/Middlewares/LVGL/GUI/lvgl/src/misc\lv_area.h ****  *********************/
  16:H:/STM32H7/RGB_LVGL/Middlewares/LVGL/GUI/lvgl/src/misc\lv_area.h **** #include "../lv_conf_internal.h"
  17:H:/STM32H7/RGB_LVGL/Middlewares/LVGL/GUI/lvgl/src/misc\lv_area.h **** #include "lv_types.h"
  18:H:/STM32H7/RGB_LVGL/Middlewares/LVGL/GUI/lvgl/src/misc\lv_area.h **** #include "lv_math.h"
  19:H:/STM32H7/RGB_LVGL/Middlewares/LVGL/GUI/lvgl/src/misc\lv_area.h **** 
  20:H:/STM32H7/RGB_LVGL/Middlewares/LVGL/GUI/lvgl/src/misc\lv_area.h **** /*********************
  21:H:/STM32H7/RGB_LVGL/Middlewares/LVGL/GUI/lvgl/src/misc\lv_area.h ****  *      DEFINES
  22:H:/STM32H7/RGB_LVGL/Middlewares/LVGL/GUI/lvgl/src/misc\lv_area.h ****  *********************/
  23:H:/STM32H7/RGB_LVGL/Middlewares/LVGL/GUI/lvgl/src/misc\lv_area.h **** 
  24:H:/STM32H7/RGB_LVGL/Middlewares/LVGL/GUI/lvgl/src/misc\lv_area.h **** /**********************
  25:H:/STM32H7/RGB_LVGL/Middlewares/LVGL/GUI/lvgl/src/misc\lv_area.h ****  *      TYPEDEFS
  26:H:/STM32H7/RGB_LVGL/Middlewares/LVGL/GUI/lvgl/src/misc\lv_area.h ****  **********************/
  27:H:/STM32H7/RGB_LVGL/Middlewares/LVGL/GUI/lvgl/src/misc\lv_area.h **** 
  28:H:/STM32H7/RGB_LVGL/Middlewares/LVGL/GUI/lvgl/src/misc\lv_area.h **** /**
  29:H:/STM32H7/RGB_LVGL/Middlewares/LVGL/GUI/lvgl/src/misc\lv_area.h ****  * Represents a point on the screen.
  30:H:/STM32H7/RGB_LVGL/Middlewares/LVGL/GUI/lvgl/src/misc\lv_area.h ****  */
  31:H:/STM32H7/RGB_LVGL/Middlewares/LVGL/GUI/lvgl/src/misc\lv_area.h **** typedef struct {
  32:H:/STM32H7/RGB_LVGL/Middlewares/LVGL/GUI/lvgl/src/misc\lv_area.h ****     int32_t x;
  33:H:/STM32H7/RGB_LVGL/Middlewares/LVGL/GUI/lvgl/src/misc\lv_area.h ****     int32_t y;
  34:H:/STM32H7/RGB_LVGL/Middlewares/LVGL/GUI/lvgl/src/misc\lv_area.h **** } lv_point_t;
  35:H:/STM32H7/RGB_LVGL/Middlewares/LVGL/GUI/lvgl/src/misc\lv_area.h **** 
  36:H:/STM32H7/RGB_LVGL/Middlewares/LVGL/GUI/lvgl/src/misc\lv_area.h **** typedef struct {
  37:H:/STM32H7/RGB_LVGL/Middlewares/LVGL/GUI/lvgl/src/misc\lv_area.h ****     lv_value_precise_t x;
  38:H:/STM32H7/RGB_LVGL/Middlewares/LVGL/GUI/lvgl/src/misc\lv_area.h ****     lv_value_precise_t y;
  39:H:/STM32H7/RGB_LVGL/Middlewares/LVGL/GUI/lvgl/src/misc\lv_area.h **** } lv_point_precise_t;
  40:H:/STM32H7/RGB_LVGL/Middlewares/LVGL/GUI/lvgl/src/misc\lv_area.h **** 
  41:H:/STM32H7/RGB_LVGL/Middlewares/LVGL/GUI/lvgl/src/misc\lv_area.h **** /** Represents an area of the screen.*/
  42:H:/STM32H7/RGB_LVGL/Middlewares/LVGL/GUI/lvgl/src/misc\lv_area.h **** typedef struct {
  43:H:/STM32H7/RGB_LVGL/Middlewares/LVGL/GUI/lvgl/src/misc\lv_area.h ****     int32_t x1;
  44:H:/STM32H7/RGB_LVGL/Middlewares/LVGL/GUI/lvgl/src/misc\lv_area.h ****     int32_t y1;
  45:H:/STM32H7/RGB_LVGL/Middlewares/LVGL/GUI/lvgl/src/misc\lv_area.h ****     int32_t x2;
  46:H:/STM32H7/RGB_LVGL/Middlewares/LVGL/GUI/lvgl/src/misc\lv_area.h ****     int32_t y2;
  47:H:/STM32H7/RGB_LVGL/Middlewares/LVGL/GUI/lvgl/src/misc\lv_area.h **** } lv_area_t;
  48:H:/STM32H7/RGB_LVGL/Middlewares/LVGL/GUI/lvgl/src/misc\lv_area.h **** 
  49:H:/STM32H7/RGB_LVGL/Middlewares/LVGL/GUI/lvgl/src/misc\lv_area.h **** /** Alignments*/
  50:H:/STM32H7/RGB_LVGL/Middlewares/LVGL/GUI/lvgl/src/misc\lv_area.h **** 
  51:H:/STM32H7/RGB_LVGL/Middlewares/LVGL/GUI/lvgl/src/misc\lv_area.h **** typedef enum {
  52:H:/STM32H7/RGB_LVGL/Middlewares/LVGL/GUI/lvgl/src/misc\lv_area.h ****     LV_ALIGN_DEFAULT = 0,
  53:H:/STM32H7/RGB_LVGL/Middlewares/LVGL/GUI/lvgl/src/misc\lv_area.h ****     LV_ALIGN_TOP_LEFT,
  54:H:/STM32H7/RGB_LVGL/Middlewares/LVGL/GUI/lvgl/src/misc\lv_area.h ****     LV_ALIGN_TOP_MID,
  55:H:/STM32H7/RGB_LVGL/Middlewares/LVGL/GUI/lvgl/src/misc\lv_area.h ****     LV_ALIGN_TOP_RIGHT,
  56:H:/STM32H7/RGB_LVGL/Middlewares/LVGL/GUI/lvgl/src/misc\lv_area.h ****     LV_ALIGN_BOTTOM_LEFT,
  57:H:/STM32H7/RGB_LVGL/Middlewares/LVGL/GUI/lvgl/src/misc\lv_area.h ****     LV_ALIGN_BOTTOM_MID,
  58:H:/STM32H7/RGB_LVGL/Middlewares/LVGL/GUI/lvgl/src/misc\lv_area.h ****     LV_ALIGN_BOTTOM_RIGHT,
  59:H:/STM32H7/RGB_LVGL/Middlewares/LVGL/GUI/lvgl/src/misc\lv_area.h ****     LV_ALIGN_LEFT_MID,
  60:H:/STM32H7/RGB_LVGL/Middlewares/LVGL/GUI/lvgl/src/misc\lv_area.h ****     LV_ALIGN_RIGHT_MID,
  61:H:/STM32H7/RGB_LVGL/Middlewares/LVGL/GUI/lvgl/src/misc\lv_area.h ****     LV_ALIGN_CENTER,
  62:H:/STM32H7/RGB_LVGL/Middlewares/LVGL/GUI/lvgl/src/misc\lv_area.h **** 
  63:H:/STM32H7/RGB_LVGL/Middlewares/LVGL/GUI/lvgl/src/misc\lv_area.h ****     LV_ALIGN_OUT_TOP_LEFT,
  64:H:/STM32H7/RGB_LVGL/Middlewares/LVGL/GUI/lvgl/src/misc\lv_area.h ****     LV_ALIGN_OUT_TOP_MID,
  65:H:/STM32H7/RGB_LVGL/Middlewares/LVGL/GUI/lvgl/src/misc\lv_area.h ****     LV_ALIGN_OUT_TOP_RIGHT,
ARM GAS  C:\Users\28576\AppData\Local\Temp\cceCo13F.s 			page 28


  66:H:/STM32H7/RGB_LVGL/Middlewares/LVGL/GUI/lvgl/src/misc\lv_area.h ****     LV_ALIGN_OUT_BOTTOM_LEFT,
  67:H:/STM32H7/RGB_LVGL/Middlewares/LVGL/GUI/lvgl/src/misc\lv_area.h ****     LV_ALIGN_OUT_BOTTOM_MID,
  68:H:/STM32H7/RGB_LVGL/Middlewares/LVGL/GUI/lvgl/src/misc\lv_area.h ****     LV_ALIGN_OUT_BOTTOM_RIGHT,
  69:H:/STM32H7/RGB_LVGL/Middlewares/LVGL/GUI/lvgl/src/misc\lv_area.h ****     LV_ALIGN_OUT_LEFT_TOP,
  70:H:/STM32H7/RGB_LVGL/Middlewares/LVGL/GUI/lvgl/src/misc\lv_area.h ****     LV_ALIGN_OUT_LEFT_MID,
  71:H:/STM32H7/RGB_LVGL/Middlewares/LVGL/GUI/lvgl/src/misc\lv_area.h ****     LV_ALIGN_OUT_LEFT_BOTTOM,
  72:H:/STM32H7/RGB_LVGL/Middlewares/LVGL/GUI/lvgl/src/misc\lv_area.h ****     LV_ALIGN_OUT_RIGHT_TOP,
  73:H:/STM32H7/RGB_LVGL/Middlewares/LVGL/GUI/lvgl/src/misc\lv_area.h ****     LV_ALIGN_OUT_RIGHT_MID,
  74:H:/STM32H7/RGB_LVGL/Middlewares/LVGL/GUI/lvgl/src/misc\lv_area.h ****     LV_ALIGN_OUT_RIGHT_BOTTOM,
  75:H:/STM32H7/RGB_LVGL/Middlewares/LVGL/GUI/lvgl/src/misc\lv_area.h **** } lv_align_t;
  76:H:/STM32H7/RGB_LVGL/Middlewares/LVGL/GUI/lvgl/src/misc\lv_area.h **** 
  77:H:/STM32H7/RGB_LVGL/Middlewares/LVGL/GUI/lvgl/src/misc\lv_area.h **** typedef enum {
  78:H:/STM32H7/RGB_LVGL/Middlewares/LVGL/GUI/lvgl/src/misc\lv_area.h ****     LV_DIR_NONE     = 0x00,
  79:H:/STM32H7/RGB_LVGL/Middlewares/LVGL/GUI/lvgl/src/misc\lv_area.h ****     LV_DIR_LEFT     = (1 << 0),
  80:H:/STM32H7/RGB_LVGL/Middlewares/LVGL/GUI/lvgl/src/misc\lv_area.h ****     LV_DIR_RIGHT    = (1 << 1),
  81:H:/STM32H7/RGB_LVGL/Middlewares/LVGL/GUI/lvgl/src/misc\lv_area.h ****     LV_DIR_TOP      = (1 << 2),
  82:H:/STM32H7/RGB_LVGL/Middlewares/LVGL/GUI/lvgl/src/misc\lv_area.h ****     LV_DIR_BOTTOM   = (1 << 3),
  83:H:/STM32H7/RGB_LVGL/Middlewares/LVGL/GUI/lvgl/src/misc\lv_area.h ****     LV_DIR_HOR      = LV_DIR_LEFT | LV_DIR_RIGHT,
  84:H:/STM32H7/RGB_LVGL/Middlewares/LVGL/GUI/lvgl/src/misc\lv_area.h ****     LV_DIR_VER      = LV_DIR_TOP | LV_DIR_BOTTOM,
  85:H:/STM32H7/RGB_LVGL/Middlewares/LVGL/GUI/lvgl/src/misc\lv_area.h ****     LV_DIR_ALL      = LV_DIR_HOR | LV_DIR_VER,
  86:H:/STM32H7/RGB_LVGL/Middlewares/LVGL/GUI/lvgl/src/misc\lv_area.h **** } lv_dir_t;
  87:H:/STM32H7/RGB_LVGL/Middlewares/LVGL/GUI/lvgl/src/misc\lv_area.h **** 
  88:H:/STM32H7/RGB_LVGL/Middlewares/LVGL/GUI/lvgl/src/misc\lv_area.h **** /**********************
  89:H:/STM32H7/RGB_LVGL/Middlewares/LVGL/GUI/lvgl/src/misc\lv_area.h ****  * GLOBAL PROTOTYPES
  90:H:/STM32H7/RGB_LVGL/Middlewares/LVGL/GUI/lvgl/src/misc\lv_area.h ****  **********************/
  91:H:/STM32H7/RGB_LVGL/Middlewares/LVGL/GUI/lvgl/src/misc\lv_area.h **** 
  92:H:/STM32H7/RGB_LVGL/Middlewares/LVGL/GUI/lvgl/src/misc\lv_area.h **** /**
  93:H:/STM32H7/RGB_LVGL/Middlewares/LVGL/GUI/lvgl/src/misc\lv_area.h ****  * Initialize an area
  94:H:/STM32H7/RGB_LVGL/Middlewares/LVGL/GUI/lvgl/src/misc\lv_area.h ****  * @param area_p pointer to an area
  95:H:/STM32H7/RGB_LVGL/Middlewares/LVGL/GUI/lvgl/src/misc\lv_area.h ****  * @param x1 left coordinate of the area
  96:H:/STM32H7/RGB_LVGL/Middlewares/LVGL/GUI/lvgl/src/misc\lv_area.h ****  * @param y1 top coordinate of the area
  97:H:/STM32H7/RGB_LVGL/Middlewares/LVGL/GUI/lvgl/src/misc\lv_area.h ****  * @param x2 right coordinate of the area
  98:H:/STM32H7/RGB_LVGL/Middlewares/LVGL/GUI/lvgl/src/misc\lv_area.h ****  * @param y2 bottom coordinate of the area
  99:H:/STM32H7/RGB_LVGL/Middlewares/LVGL/GUI/lvgl/src/misc\lv_area.h ****  */
 100:H:/STM32H7/RGB_LVGL/Middlewares/LVGL/GUI/lvgl/src/misc\lv_area.h **** void lv_area_set(lv_area_t * area_p, int32_t x1, int32_t y1, int32_t x2, int32_t y2);
 101:H:/STM32H7/RGB_LVGL/Middlewares/LVGL/GUI/lvgl/src/misc\lv_area.h **** 
 102:H:/STM32H7/RGB_LVGL/Middlewares/LVGL/GUI/lvgl/src/misc\lv_area.h **** /**
 103:H:/STM32H7/RGB_LVGL/Middlewares/LVGL/GUI/lvgl/src/misc\lv_area.h ****  * Copy an area
 104:H:/STM32H7/RGB_LVGL/Middlewares/LVGL/GUI/lvgl/src/misc\lv_area.h ****  * @param dest pointer to the destination area
 105:H:/STM32H7/RGB_LVGL/Middlewares/LVGL/GUI/lvgl/src/misc\lv_area.h ****  * @param src pointer to the source area
 106:H:/STM32H7/RGB_LVGL/Middlewares/LVGL/GUI/lvgl/src/misc\lv_area.h ****  */
 107:H:/STM32H7/RGB_LVGL/Middlewares/LVGL/GUI/lvgl/src/misc\lv_area.h **** inline static void lv_area_copy(lv_area_t * dest, const lv_area_t * src)
 411              		.loc 3 107 20 view .LVU99
 412              	.LBB37:
 108:H:/STM32H7/RGB_LVGL/Middlewares/LVGL/GUI/lvgl/src/misc\lv_area.h **** {
 109:H:/STM32H7/RGB_LVGL/Middlewares/LVGL/GUI/lvgl/src/misc\lv_area.h ****     dest->x1 = src->x1;
 413              		.loc 3 109 5 view .LVU100
 414              		.loc 3 109 19 is_stmt 0 view .LVU101
 415 0040 6369     		ldr	r3, [r4, #20]
 416              		.loc 3 109 14 view .LVU102
 417 0042 1E93     		str	r3, [sp, #120]
 110:H:/STM32H7/RGB_LVGL/Middlewares/LVGL/GUI/lvgl/src/misc\lv_area.h ****     dest->y1 = src->y1;
 418              		.loc 3 110 5 is_stmt 1 view .LVU103
 419              		.loc 3 110 19 is_stmt 0 view .LVU104
 420 0044 A369     		ldr	r3, [r4, #24]
 421              		.loc 3 110 14 view .LVU105
 422 0046 1F93     		str	r3, [sp, #124]
ARM GAS  C:\Users\28576\AppData\Local\Temp\cceCo13F.s 			page 29


 111:H:/STM32H7/RGB_LVGL/Middlewares/LVGL/GUI/lvgl/src/misc\lv_area.h ****     dest->x2 = src->x2;
 423              		.loc 3 111 5 is_stmt 1 view .LVU106
 424              		.loc 3 111 19 is_stmt 0 view .LVU107
 425 0048 E369     		ldr	r3, [r4, #28]
 426              		.loc 3 111 14 view .LVU108
 427 004a 2093     		str	r3, [sp, #128]
 112:H:/STM32H7/RGB_LVGL/Middlewares/LVGL/GUI/lvgl/src/misc\lv_area.h ****     dest->y2 = src->y2;
 428              		.loc 3 112 5 is_stmt 1 view .LVU109
 429              		.loc 3 112 19 is_stmt 0 view .LVU110
 430 004c 236A     		ldr	r3, [r4, #32]
 431              		.loc 3 112 14 view .LVU111
 432 004e 2193     		str	r3, [sp, #132]
 433              	.LVL46:
 434              		.loc 3 112 14 view .LVU112
 435              	.LBE37:
 436              	.LBE36:
 197:../../Middlewares/LVGL/GUI/lvgl/src/widgets/switch/lv_switch.c ****     int32_t switch_h = lv_area_get_height(&obj->coords);
 437              		.loc 1 197 5 is_stmt 1 view .LVU113
 197:../../Middlewares/LVGL/GUI/lvgl/src/widgets/switch/lv_switch.c ****     int32_t switch_h = lv_area_get_height(&obj->coords);
 438              		.loc 1 197 42 is_stmt 0 view .LVU114
 439 0050 04F11407 		add	r7, r4, #20
 197:../../Middlewares/LVGL/GUI/lvgl/src/widgets/switch/lv_switch.c ****     int32_t switch_h = lv_area_get_height(&obj->coords);
 440              		.loc 1 197 24 view .LVU115
 441 0054 3846     		mov	r0, r7
 442 0056 FFF7FEFF 		bl	lv_area_get_width
 443              	.LVL47:
 444 005a 0646     		mov	r6, r0
 445              	.LVL48:
 198:../../Middlewares/LVGL/GUI/lvgl/src/widgets/switch/lv_switch.c ****     bool hor = false;
 446              		.loc 1 198 5 is_stmt 1 view .LVU116
 198:../../Middlewares/LVGL/GUI/lvgl/src/widgets/switch/lv_switch.c ****     bool hor = false;
 447              		.loc 1 198 24 is_stmt 0 view .LVU117
 448 005c 3846     		mov	r0, r7
 449              	.LVL49:
 198:../../Middlewares/LVGL/GUI/lvgl/src/widgets/switch/lv_switch.c ****     bool hor = false;
 450              		.loc 1 198 24 view .LVU118
 451 005e FFF7FEFF 		bl	lv_area_get_height
 452              	.LVL50:
 199:../../Middlewares/LVGL/GUI/lvgl/src/widgets/switch/lv_switch.c **** 
 453              		.loc 1 199 5 is_stmt 1 view .LVU119
 201:../../Middlewares/LVGL/GUI/lvgl/src/widgets/switch/lv_switch.c ****         case LV_SWITCH_ORIENTATION_HORIZONTAL:
 454              		.loc 1 201 5 view .LVU120
 201:../../Middlewares/LVGL/GUI/lvgl/src/widgets/switch/lv_switch.c ****         case LV_SWITCH_ORIENTATION_HORIZONTAL:
 455              		.loc 1 201 14 is_stmt 0 view .LVU121
 456 0062 94F83030 		ldrb	r3, [r4, #48]	@ zero_extendqisi2
 457 0066 03F00703 		and	r3, r3, #7
 201:../../Middlewares/LVGL/GUI/lvgl/src/widgets/switch/lv_switch.c ****         case LV_SWITCH_ORIENTATION_HORIZONTAL:
 458              		.loc 1 201 5 view .LVU122
 459 006a 012B     		cmp	r3, #1
 460 006c 03D0     		beq	.L22
 461 006e 022B     		cmp	r3, #2
 462 0070 73D0     		beq	.L23
 210:../../Middlewares/LVGL/GUI/lvgl/src/widgets/switch/lv_switch.c ****             break;
 463              		.loc 1 210 13 is_stmt 1 view .LVU123
 211:../../Middlewares/LVGL/GUI/lvgl/src/widgets/switch/lv_switch.c ****     }
 464              		.loc 1 211 13 view .LVU124
 465              	.LVL51:
ARM GAS  C:\Users\28576\AppData\Local\Temp\cceCo13F.s 			page 30


 214:../../Middlewares/LVGL/GUI/lvgl/src/widgets/switch/lv_switch.c ****         int32_t anim_value_x = 0;
 466              		.loc 1 214 5 view .LVU125
 214:../../Middlewares/LVGL/GUI/lvgl/src/widgets/switch/lv_switch.c ****         int32_t anim_value_x = 0;
 467              		.loc 1 214 7 is_stmt 0 view .LVU126
 468 0072 8642     		cmp	r6, r0
 469 0074 71DB     		blt	.L23
 470              	.LVL52:
 471              	.L22:
 472              	.LBB38:
 215:../../Middlewares/LVGL/GUI/lvgl/src/widgets/switch/lv_switch.c ****         int32_t knob_size = lv_obj_get_height(obj);
 473              		.loc 1 215 9 is_stmt 1 view .LVU127
 216:../../Middlewares/LVGL/GUI/lvgl/src/widgets/switch/lv_switch.c ****         int32_t anim_length = lv_area_get_width(&obj->coords) - knob_size;
 474              		.loc 1 216 9 view .LVU128
 216:../../Middlewares/LVGL/GUI/lvgl/src/widgets/switch/lv_switch.c ****         int32_t anim_length = lv_area_get_width(&obj->coords) - knob_size;
 475              		.loc 1 216 29 is_stmt 0 view .LVU129
 476 0076 2046     		mov	r0, r4
 477              	.LVL53:
 216:../../Middlewares/LVGL/GUI/lvgl/src/widgets/switch/lv_switch.c ****         int32_t anim_length = lv_area_get_width(&obj->coords) - knob_size;
 478              		.loc 1 216 29 view .LVU130
 479 0078 FFF7FEFF 		bl	lv_obj_get_height
 480              	.LVL54:
 481 007c 0646     		mov	r6, r0
 482              	.LVL55:
 217:../../Middlewares/LVGL/GUI/lvgl/src/widgets/switch/lv_switch.c ****         if(LV_SWITCH_IS_ANIMATING(sw)) {
 483              		.loc 1 217 9 is_stmt 1 view .LVU131
 217:../../Middlewares/LVGL/GUI/lvgl/src/widgets/switch/lv_switch.c ****         if(LV_SWITCH_IS_ANIMATING(sw)) {
 484              		.loc 1 217 31 is_stmt 0 view .LVU132
 485 007e 3846     		mov	r0, r7
 486              	.LVL56:
 217:../../Middlewares/LVGL/GUI/lvgl/src/widgets/switch/lv_switch.c ****         if(LV_SWITCH_IS_ANIMATING(sw)) {
 487              		.loc 1 217 31 view .LVU133
 488 0080 FFF7FEFF 		bl	lv_area_get_width
 489              	.LVL57:
 217:../../Middlewares/LVGL/GUI/lvgl/src/widgets/switch/lv_switch.c ****         if(LV_SWITCH_IS_ANIMATING(sw)) {
 490              		.loc 1 217 17 discriminator 1 view .LVU134
 491 0084 A0EB0608 		sub	r8, r0, r6
 492              	.LVL58:
 218:../../Middlewares/LVGL/GUI/lvgl/src/widgets/switch/lv_switch.c ****             /* Use the animation's coordinate */
 493              		.loc 1 218 9 is_stmt 1 view .LVU135
 218:../../Middlewares/LVGL/GUI/lvgl/src/widgets/switch/lv_switch.c ****             /* Use the animation's coordinate */
 494              		.loc 1 218 12 is_stmt 0 view .LVU136
 495 0088 E76A     		ldr	r7, [r4, #44]
 218:../../Middlewares/LVGL/GUI/lvgl/src/widgets/switch/lv_switch.c ****             /* Use the animation's coordinate */
 496              		.loc 1 218 11 view .LVU137
 497 008a B7F1FF3F 		cmp	r7, #-1
 498 008e 57D0     		beq	.L24
 220:../../Middlewares/LVGL/GUI/lvgl/src/widgets/switch/lv_switch.c ****         }
 499              		.loc 1 220 13 is_stmt 1 view .LVU138
 220:../../Middlewares/LVGL/GUI/lvgl/src/widgets/switch/lv_switch.c ****         }
 500              		.loc 1 220 41 is_stmt 0 view .LVU139
 501 0090 08FB07F7 		mul	r7, r8, r7
 220:../../Middlewares/LVGL/GUI/lvgl/src/widgets/switch/lv_switch.c ****         }
 502              		.loc 1 220 26 view .LVU140
 503 0094 002F     		cmp	r7, #0
 504 0096 51DB     		blt	.L36
 505              	.L25:
 506 0098 3F12     		asrs	r7, r7, #8
ARM GAS  C:\Users\28576\AppData\Local\Temp\cceCo13F.s 			page 31


 507              	.LVL59:
 508              	.L26:
 228:../../Middlewares/LVGL/GUI/lvgl/src/widgets/switch/lv_switch.c ****             anim_value_x = anim_length - anim_value_x;
 509              		.loc 1 228 9 is_stmt 1 view .LVU141
 510              	.LBB39:
 511              	.LBI39:
 668:H:/STM32H7/RGB_LVGL/Middlewares/LVGL/GUI/lvgl/src/core\lv_obj_style_gen.h **** }
 669:H:/STM32H7/RGB_LVGL/Middlewares/LVGL/GUI/lvgl/src/core\lv_obj_style_gen.h **** 
 670:H:/STM32H7/RGB_LVGL/Middlewares/LVGL/GUI/lvgl/src/core\lv_obj_style_gen.h **** static inline const lv_style_transition_dsc_t * lv_obj_get_style_transition(const lv_obj_t * obj, l
 671:H:/STM32H7/RGB_LVGL/Middlewares/LVGL/GUI/lvgl/src/core\lv_obj_style_gen.h **** {
 672:H:/STM32H7/RGB_LVGL/Middlewares/LVGL/GUI/lvgl/src/core\lv_obj_style_gen.h ****     lv_style_value_t v = lv_obj_get_style_prop(obj, part, LV_STYLE_TRANSITION);
 673:H:/STM32H7/RGB_LVGL/Middlewares/LVGL/GUI/lvgl/src/core\lv_obj_style_gen.h ****     return (const lv_style_transition_dsc_t *)v.ptr;
 674:H:/STM32H7/RGB_LVGL/Middlewares/LVGL/GUI/lvgl/src/core\lv_obj_style_gen.h **** }
 675:H:/STM32H7/RGB_LVGL/Middlewares/LVGL/GUI/lvgl/src/core\lv_obj_style_gen.h **** 
 676:H:/STM32H7/RGB_LVGL/Middlewares/LVGL/GUI/lvgl/src/core\lv_obj_style_gen.h **** static inline lv_blend_mode_t lv_obj_get_style_blend_mode(const lv_obj_t * obj, lv_part_t part)
 677:H:/STM32H7/RGB_LVGL/Middlewares/LVGL/GUI/lvgl/src/core\lv_obj_style_gen.h **** {
 678:H:/STM32H7/RGB_LVGL/Middlewares/LVGL/GUI/lvgl/src/core\lv_obj_style_gen.h ****     lv_style_value_t v = lv_obj_get_style_prop(obj, part, LV_STYLE_BLEND_MODE);
 679:H:/STM32H7/RGB_LVGL/Middlewares/LVGL/GUI/lvgl/src/core\lv_obj_style_gen.h ****     return (lv_blend_mode_t)v.num;
 680:H:/STM32H7/RGB_LVGL/Middlewares/LVGL/GUI/lvgl/src/core\lv_obj_style_gen.h **** }
 681:H:/STM32H7/RGB_LVGL/Middlewares/LVGL/GUI/lvgl/src/core\lv_obj_style_gen.h **** 
 682:H:/STM32H7/RGB_LVGL/Middlewares/LVGL/GUI/lvgl/src/core\lv_obj_style_gen.h **** static inline uint16_t lv_obj_get_style_layout(const lv_obj_t * obj, lv_part_t part)
 683:H:/STM32H7/RGB_LVGL/Middlewares/LVGL/GUI/lvgl/src/core\lv_obj_style_gen.h **** {
 684:H:/STM32H7/RGB_LVGL/Middlewares/LVGL/GUI/lvgl/src/core\lv_obj_style_gen.h ****     lv_style_value_t v = lv_obj_get_style_prop(obj, part, LV_STYLE_LAYOUT);
 685:H:/STM32H7/RGB_LVGL/Middlewares/LVGL/GUI/lvgl/src/core\lv_obj_style_gen.h ****     return (uint16_t)v.num;
 686:H:/STM32H7/RGB_LVGL/Middlewares/LVGL/GUI/lvgl/src/core\lv_obj_style_gen.h **** }
 687:H:/STM32H7/RGB_LVGL/Middlewares/LVGL/GUI/lvgl/src/core\lv_obj_style_gen.h **** 
 688:H:/STM32H7/RGB_LVGL/Middlewares/LVGL/GUI/lvgl/src/core\lv_obj_style_gen.h **** static inline lv_base_dir_t lv_obj_get_style_base_dir(const lv_obj_t * obj, lv_part_t part)
 512              		.loc 2 688 29 view .LVU142
 513              	.LBB40:
 689:H:/STM32H7/RGB_LVGL/Middlewares/LVGL/GUI/lvgl/src/core\lv_obj_style_gen.h **** {
 690:H:/STM32H7/RGB_LVGL/Middlewares/LVGL/GUI/lvgl/src/core\lv_obj_style_gen.h ****     lv_style_value_t v = lv_obj_get_style_prop(obj, part, LV_STYLE_BASE_DIR);
 514              		.loc 2 690 5 view .LVU143
 515              		.loc 2 690 26 is_stmt 0 view .LVU144
 516 009a 2722     		movs	r2, #39
 517 009c 0021     		movs	r1, #0
 518 009e 2046     		mov	r0, r4
 519 00a0 FFF7FEFF 		bl	lv_obj_get_style_prop
 520              	.LVL60:
 521 00a4 0190     		str	r0, [sp, #4]
 691:H:/STM32H7/RGB_LVGL/Middlewares/LVGL/GUI/lvgl/src/core\lv_obj_style_gen.h ****     return (lv_base_dir_t)v.num;
 522              		.loc 2 691 5 is_stmt 1 view .LVU145
 523              		.loc 2 691 12 is_stmt 0 view .LVU146
 524 00a6 C0B2     		uxtb	r0, r0
 525              	.LVL61:
 526              		.loc 2 691 12 view .LVU147
 527              	.LBE40:
 528              	.LBE39:
 228:../../Middlewares/LVGL/GUI/lvgl/src/widgets/switch/lv_switch.c ****             anim_value_x = anim_length - anim_value_x;
 529              		.loc 1 228 11 discriminator 1 view .LVU148
 530 00a8 0128     		cmp	r0, #1
 531 00aa 53D0     		beq	.L37
 532              	.LVL62:
 533              	.L27:
 231:../../Middlewares/LVGL/GUI/lvgl/src/widgets/switch/lv_switch.c ****         knob_area.x2 = knob_area.x1 + (knob_size > 0 ? knob_size - 1 : 0);
 534              		.loc 1 231 9 is_stmt 1 view .LVU149
 231:../../Middlewares/LVGL/GUI/lvgl/src/widgets/switch/lv_switch.c ****         knob_area.x2 = knob_area.x1 + (knob_size > 0 ? knob_size - 1 : 0);
 535              		.loc 1 231 18 is_stmt 0 view .LVU150
ARM GAS  C:\Users\28576\AppData\Local\Temp\cceCo13F.s 			page 32


 536 00ac 1E9B     		ldr	r3, [sp, #120]
 231:../../Middlewares/LVGL/GUI/lvgl/src/widgets/switch/lv_switch.c ****         knob_area.x2 = knob_area.x1 + (knob_size > 0 ? knob_size - 1 : 0);
 537              		.loc 1 231 22 view .LVU151
 538 00ae 3B44     		add	r3, r3, r7
 539 00b0 1E93     		str	r3, [sp, #120]
 232:../../Middlewares/LVGL/GUI/lvgl/src/widgets/switch/lv_switch.c ****     }
 540              		.loc 1 232 9 is_stmt 1 view .LVU152
 232:../../Middlewares/LVGL/GUI/lvgl/src/widgets/switch/lv_switch.c ****     }
 541              		.loc 1 232 70 is_stmt 0 view .LVU153
 542 00b2 012E     		cmp	r6, #1
 543 00b4 B8BF     		it	lt
 544 00b6 0126     		movlt	r6, #1
 545              	.LVL63:
 232:../../Middlewares/LVGL/GUI/lvgl/src/widgets/switch/lv_switch.c ****     }
 546              		.loc 1 232 70 view .LVU154
 547 00b8 013E     		subs	r6, r6, #1
 232:../../Middlewares/LVGL/GUI/lvgl/src/widgets/switch/lv_switch.c ****     }
 548              		.loc 1 232 37 view .LVU155
 549 00ba 3344     		add	r3, r3, r6
 232:../../Middlewares/LVGL/GUI/lvgl/src/widgets/switch/lv_switch.c ****     }
 550              		.loc 1 232 22 view .LVU156
 551 00bc 2093     		str	r3, [sp, #128]
 552              	.LVL64:
 553              	.L28:
 232:../../Middlewares/LVGL/GUI/lvgl/src/widgets/switch/lv_switch.c ****     }
 554              		.loc 1 232 22 view .LVU157
 555              	.LBE38:
 256:../../Middlewares/LVGL/GUI/lvgl/src/widgets/switch/lv_switch.c ****     int32_t knob_right = lv_obj_get_style_pad_right(obj, LV_PART_KNOB);
 556              		.loc 1 256 5 is_stmt 1 view .LVU158
 557              	.LBB42:
 558              	.LBI42:
 166:H:/STM32H7/RGB_LVGL/Middlewares/LVGL/GUI/lvgl/src/core\lv_obj_style_gen.h **** {
 559              		.loc 2 166 23 view .LVU159
 560              	.LBB43:
 168:H:/STM32H7/RGB_LVGL/Middlewares/LVGL/GUI/lvgl/src/core\lv_obj_style_gen.h ****     return (int32_t)v.num;
 561              		.loc 2 168 5 view .LVU160
 168:H:/STM32H7/RGB_LVGL/Middlewares/LVGL/GUI/lvgl/src/core\lv_obj_style_gen.h ****     return (int32_t)v.num;
 562              		.loc 2 168 26 is_stmt 0 view .LVU161
 563 00be 1222     		movs	r2, #18
 564 00c0 4FF44031 		mov	r1, #196608
 565 00c4 2046     		mov	r0, r4
 566 00c6 FFF7FEFF 		bl	lv_obj_get_style_prop
 567              	.LVL65:
 568 00ca 8046     		mov	r8, r0
 569 00cc 0190     		str	r0, [sp, #4]
 169:H:/STM32H7/RGB_LVGL/Middlewares/LVGL/GUI/lvgl/src/core\lv_obj_style_gen.h **** }
 570              		.loc 2 169 5 is_stmt 1 view .LVU162
 571              	.LVL66:
 169:H:/STM32H7/RGB_LVGL/Middlewares/LVGL/GUI/lvgl/src/core\lv_obj_style_gen.h **** }
 572              		.loc 2 169 5 is_stmt 0 view .LVU163
 573              	.LBE43:
 574              	.LBE42:
 257:../../Middlewares/LVGL/GUI/lvgl/src/widgets/switch/lv_switch.c ****     int32_t knob_top = lv_obj_get_style_pad_top(obj, LV_PART_KNOB);
 575              		.loc 1 257 5 is_stmt 1 view .LVU164
 576              	.LBB44:
 577              	.LBI44:
 172:H:/STM32H7/RGB_LVGL/Middlewares/LVGL/GUI/lvgl/src/core\lv_obj_style_gen.h **** {
ARM GAS  C:\Users\28576\AppData\Local\Temp\cceCo13F.s 			page 33


 578              		.loc 2 172 23 view .LVU165
 579              	.LBB45:
 174:H:/STM32H7/RGB_LVGL/Middlewares/LVGL/GUI/lvgl/src/core\lv_obj_style_gen.h ****     return (int32_t)v.num;
 580              		.loc 2 174 5 view .LVU166
 174:H:/STM32H7/RGB_LVGL/Middlewares/LVGL/GUI/lvgl/src/core\lv_obj_style_gen.h ****     return (int32_t)v.num;
 581              		.loc 2 174 26 is_stmt 0 view .LVU167
 582 00ce 1322     		movs	r2, #19
 583 00d0 4FF44031 		mov	r1, #196608
 584 00d4 2046     		mov	r0, r4
 585              	.LVL67:
 174:H:/STM32H7/RGB_LVGL/Middlewares/LVGL/GUI/lvgl/src/core\lv_obj_style_gen.h ****     return (int32_t)v.num;
 586              		.loc 2 174 26 view .LVU168
 587 00d6 FFF7FEFF 		bl	lv_obj_get_style_prop
 588              	.LVL68:
 589 00da 0746     		mov	r7, r0
 590 00dc 0190     		str	r0, [sp, #4]
 175:H:/STM32H7/RGB_LVGL/Middlewares/LVGL/GUI/lvgl/src/core\lv_obj_style_gen.h **** }
 591              		.loc 2 175 5 is_stmt 1 view .LVU169
 592              	.LVL69:
 175:H:/STM32H7/RGB_LVGL/Middlewares/LVGL/GUI/lvgl/src/core\lv_obj_style_gen.h **** }
 593              		.loc 2 175 5 is_stmt 0 view .LVU170
 594              	.LBE45:
 595              	.LBE44:
 258:../../Middlewares/LVGL/GUI/lvgl/src/widgets/switch/lv_switch.c ****     int32_t knob_bottom = lv_obj_get_style_pad_bottom(obj, LV_PART_KNOB);
 596              		.loc 1 258 5 is_stmt 1 view .LVU171
 597              	.LBB46:
 598              	.LBI46:
 154:H:/STM32H7/RGB_LVGL/Middlewares/LVGL/GUI/lvgl/src/core\lv_obj_style_gen.h **** {
 599              		.loc 2 154 23 view .LVU172
 600              	.LBB47:
 156:H:/STM32H7/RGB_LVGL/Middlewares/LVGL/GUI/lvgl/src/core\lv_obj_style_gen.h ****     return (int32_t)v.num;
 601              		.loc 2 156 5 view .LVU173
 156:H:/STM32H7/RGB_LVGL/Middlewares/LVGL/GUI/lvgl/src/core\lv_obj_style_gen.h ****     return (int32_t)v.num;
 602              		.loc 2 156 26 is_stmt 0 view .LVU174
 603 00de 1022     		movs	r2, #16
 604 00e0 4FF44031 		mov	r1, #196608
 605 00e4 2046     		mov	r0, r4
 606              	.LVL70:
 156:H:/STM32H7/RGB_LVGL/Middlewares/LVGL/GUI/lvgl/src/core\lv_obj_style_gen.h ****     return (int32_t)v.num;
 607              		.loc 2 156 26 view .LVU175
 608 00e6 FFF7FEFF 		bl	lv_obj_get_style_prop
 609              	.LVL71:
 610 00ea 0646     		mov	r6, r0
 611 00ec 0190     		str	r0, [sp, #4]
 157:H:/STM32H7/RGB_LVGL/Middlewares/LVGL/GUI/lvgl/src/core\lv_obj_style_gen.h **** }
 612              		.loc 2 157 5 is_stmt 1 view .LVU176
 613              	.LVL72:
 157:H:/STM32H7/RGB_LVGL/Middlewares/LVGL/GUI/lvgl/src/core\lv_obj_style_gen.h **** }
 614              		.loc 2 157 5 is_stmt 0 view .LVU177
 615              	.LBE47:
 616              	.LBE46:
 259:../../Middlewares/LVGL/GUI/lvgl/src/widgets/switch/lv_switch.c **** 
 617              		.loc 1 259 5 is_stmt 1 view .LVU178
 618              	.LBB48:
 619              	.LBI48:
 160:H:/STM32H7/RGB_LVGL/Middlewares/LVGL/GUI/lvgl/src/core\lv_obj_style_gen.h **** {
 620              		.loc 2 160 23 view .LVU179
ARM GAS  C:\Users\28576\AppData\Local\Temp\cceCo13F.s 			page 34


 621              	.LBB49:
 162:H:/STM32H7/RGB_LVGL/Middlewares/LVGL/GUI/lvgl/src/core\lv_obj_style_gen.h ****     return (int32_t)v.num;
 622              		.loc 2 162 5 view .LVU180
 162:H:/STM32H7/RGB_LVGL/Middlewares/LVGL/GUI/lvgl/src/core\lv_obj_style_gen.h ****     return (int32_t)v.num;
 623              		.loc 2 162 26 is_stmt 0 view .LVU181
 624 00ee 1122     		movs	r2, #17
 625 00f0 4FF44031 		mov	r1, #196608
 626 00f4 2046     		mov	r0, r4
 627              	.LVL73:
 162:H:/STM32H7/RGB_LVGL/Middlewares/LVGL/GUI/lvgl/src/core\lv_obj_style_gen.h ****     return (int32_t)v.num;
 628              		.loc 2 162 26 view .LVU182
 629 00f6 FFF7FEFF 		bl	lv_obj_get_style_prop
 630              	.LVL74:
 631 00fa 0190     		str	r0, [sp, #4]
 163:H:/STM32H7/RGB_LVGL/Middlewares/LVGL/GUI/lvgl/src/core\lv_obj_style_gen.h **** }
 632              		.loc 2 163 5 is_stmt 1 view .LVU183
 633              	.LVL75:
 163:H:/STM32H7/RGB_LVGL/Middlewares/LVGL/GUI/lvgl/src/core\lv_obj_style_gen.h **** }
 634              		.loc 2 163 5 is_stmt 0 view .LVU184
 635              	.LBE49:
 636              	.LBE48:
 262:../../Middlewares/LVGL/GUI/lvgl/src/widgets/switch/lv_switch.c ****     knob_area.x2 += knob_right;
 637              		.loc 1 262 5 is_stmt 1 view .LVU185
 262:../../Middlewares/LVGL/GUI/lvgl/src/widgets/switch/lv_switch.c ****     knob_area.x2 += knob_right;
 638              		.loc 1 262 14 is_stmt 0 view .LVU186
 639 00fc 1E9A     		ldr	r2, [sp, #120]
 262:../../Middlewares/LVGL/GUI/lvgl/src/widgets/switch/lv_switch.c ****     knob_area.x2 += knob_right;
 640              		.loc 1 262 18 view .LVU187
 641 00fe A2EB0802 		sub	r2, r2, r8
 642 0102 1E92     		str	r2, [sp, #120]
 263:../../Middlewares/LVGL/GUI/lvgl/src/widgets/switch/lv_switch.c ****     knob_area.y1 -= knob_top;
 643              		.loc 1 263 5 is_stmt 1 view .LVU188
 263:../../Middlewares/LVGL/GUI/lvgl/src/widgets/switch/lv_switch.c ****     knob_area.y1 -= knob_top;
 644              		.loc 1 263 14 is_stmt 0 view .LVU189
 645 0104 209A     		ldr	r2, [sp, #128]
 263:../../Middlewares/LVGL/GUI/lvgl/src/widgets/switch/lv_switch.c ****     knob_area.y1 -= knob_top;
 646              		.loc 1 263 18 view .LVU190
 647 0106 3A44     		add	r2, r2, r7
 648 0108 2092     		str	r2, [sp, #128]
 264:../../Middlewares/LVGL/GUI/lvgl/src/widgets/switch/lv_switch.c ****     knob_area.y2 += knob_bottom;
 649              		.loc 1 264 5 is_stmt 1 view .LVU191
 264:../../Middlewares/LVGL/GUI/lvgl/src/widgets/switch/lv_switch.c ****     knob_area.y2 += knob_bottom;
 650              		.loc 1 264 14 is_stmt 0 view .LVU192
 651 010a 1F9A     		ldr	r2, [sp, #124]
 264:../../Middlewares/LVGL/GUI/lvgl/src/widgets/switch/lv_switch.c ****     knob_area.y2 += knob_bottom;
 652              		.loc 1 264 18 view .LVU193
 653 010c 921B     		subs	r2, r2, r6
 654 010e 1F92     		str	r2, [sp, #124]
 265:../../Middlewares/LVGL/GUI/lvgl/src/widgets/switch/lv_switch.c **** 
 655              		.loc 1 265 5 is_stmt 1 view .LVU194
 265:../../Middlewares/LVGL/GUI/lvgl/src/widgets/switch/lv_switch.c **** 
 656              		.loc 1 265 14 is_stmt 0 view .LVU195
 657 0110 219A     		ldr	r2, [sp, #132]
 265:../../Middlewares/LVGL/GUI/lvgl/src/widgets/switch/lv_switch.c **** 
 658              		.loc 1 265 18 view .LVU196
 659 0112 0244     		add	r2, r2, r0
 660 0114 2192     		str	r2, [sp, #132]
ARM GAS  C:\Users\28576\AppData\Local\Temp\cceCo13F.s 			page 35


 267:../../Middlewares/LVGL/GUI/lvgl/src/widgets/switch/lv_switch.c ****     lv_draw_rect_dsc_init(&knob_rect_dsc);
 661              		.loc 1 267 5 is_stmt 1 view .LVU197
 268:../../Middlewares/LVGL/GUI/lvgl/src/widgets/switch/lv_switch.c ****     knob_rect_dsc.base.layer = layer;
 662              		.loc 1 268 5 view .LVU198
 663 0116 02AE     		add	r6, sp, #8
 664              	.LVL76:
 268:../../Middlewares/LVGL/GUI/lvgl/src/widgets/switch/lv_switch.c ****     knob_rect_dsc.base.layer = layer;
 665              		.loc 1 268 5 is_stmt 0 view .LVU199
 666 0118 3046     		mov	r0, r6
 667              	.LVL77:
 268:../../Middlewares/LVGL/GUI/lvgl/src/widgets/switch/lv_switch.c ****     knob_rect_dsc.base.layer = layer;
 668              		.loc 1 268 5 view .LVU200
 669 011a FFF7FEFF 		bl	lv_draw_rect_dsc_init
 670              	.LVL78:
 269:../../Middlewares/LVGL/GUI/lvgl/src/widgets/switch/lv_switch.c ****     lv_obj_init_draw_rect_dsc(obj, LV_PART_KNOB, &knob_rect_dsc);
 671              		.loc 1 269 5 is_stmt 1 view .LVU201
 269:../../Middlewares/LVGL/GUI/lvgl/src/widgets/switch/lv_switch.c ****     lv_obj_init_draw_rect_dsc(obj, LV_PART_KNOB, &knob_rect_dsc);
 672              		.loc 1 269 30 is_stmt 0 view .LVU202
 673 011e 0695     		str	r5, [sp, #24]
 270:../../Middlewares/LVGL/GUI/lvgl/src/widgets/switch/lv_switch.c **** 
 674              		.loc 1 270 5 is_stmt 1 view .LVU203
 675 0120 3246     		mov	r2, r6
 676 0122 4FF44031 		mov	r1, #196608
 677 0126 2046     		mov	r0, r4
 678 0128 FFF7FEFF 		bl	lv_obj_init_draw_rect_dsc
 679              	.LVL79:
 272:../../Middlewares/LVGL/GUI/lvgl/src/widgets/switch/lv_switch.c **** }
 680              		.loc 1 272 5 view .LVU204
 681 012c 1EAA     		add	r2, sp, #120
 682 012e 3146     		mov	r1, r6
 683 0130 2846     		mov	r0, r5
 684 0132 FFF7FEFF 		bl	lv_draw_rect
 685              	.LVL80:
 273:../../Middlewares/LVGL/GUI/lvgl/src/widgets/switch/lv_switch.c **** 
 686              		.loc 1 273 1 is_stmt 0 view .LVU205
 687 0136 43B0     		add	sp, sp, #268
 688              	.LCFI10:
 689              		.cfi_remember_state
 690              		.cfi_def_cfa_offset 28
 691              		@ sp needed
 692 0138 BDE8F083 		pop	{r4, r5, r6, r7, r8, r9, pc}
 693              	.LVL81:
 694              	.L36:
 695              	.LCFI11:
 696              		.cfi_restore_state
 697              	.LBB50:
 220:../../Middlewares/LVGL/GUI/lvgl/src/widgets/switch/lv_switch.c ****         }
 698              		.loc 1 220 26 view .LVU206
 699 013c FF37     		adds	r7, r7, #255
 700 013e ABE7     		b	.L25
 701              	.L24:
 702              	.LBB41:
 224:../../Middlewares/LVGL/GUI/lvgl/src/widgets/switch/lv_switch.c ****             anim_value_x = chk ? anim_length : 0;
 703              		.loc 1 224 13 is_stmt 1 view .LVU207
 224:../../Middlewares/LVGL/GUI/lvgl/src/widgets/switch/lv_switch.c ****             anim_value_x = chk ? anim_length : 0;
 704              		.loc 1 224 24 is_stmt 0 view .LVU208
 705 0140 2046     		mov	r0, r4
ARM GAS  C:\Users\28576\AppData\Local\Temp\cceCo13F.s 			page 36


 706 0142 FFF7FEFF 		bl	lv_obj_get_state
 707              	.LVL82:
 225:../../Middlewares/LVGL/GUI/lvgl/src/widgets/switch/lv_switch.c ****         }
 708              		.loc 1 225 13 is_stmt 1 view .LVU209
 225:../../Middlewares/LVGL/GUI/lvgl/src/widgets/switch/lv_switch.c ****         }
 709              		.loc 1 225 46 is_stmt 0 view .LVU210
 710 0146 10F0010F 		tst	r0, #1
 711 014a 01D0     		beq	.L33
 225:../../Middlewares/LVGL/GUI/lvgl/src/widgets/switch/lv_switch.c ****         }
 712              		.loc 1 225 26 discriminator 1 view .LVU211
 713 014c 4746     		mov	r7, r8
 714 014e A4E7     		b	.L26
 715              	.L33:
 225:../../Middlewares/LVGL/GUI/lvgl/src/widgets/switch/lv_switch.c ****         }
 716              		.loc 1 225 26 discriminator 2 view .LVU212
 717 0150 0027     		movs	r7, #0
 718 0152 A2E7     		b	.L26
 719              	.LVL83:
 720              	.L37:
 225:../../Middlewares/LVGL/GUI/lvgl/src/widgets/switch/lv_switch.c ****         }
 721              		.loc 1 225 26 discriminator 2 view .LVU213
 722              	.LBE41:
 229:../../Middlewares/LVGL/GUI/lvgl/src/widgets/switch/lv_switch.c ****         }
 723              		.loc 1 229 13 is_stmt 1 view .LVU214
 229:../../Middlewares/LVGL/GUI/lvgl/src/widgets/switch/lv_switch.c ****         }
 724              		.loc 1 229 26 is_stmt 0 view .LVU215
 725 0154 A8EB0707 		sub	r7, r8, r7
 726              	.LVL84:
 229:../../Middlewares/LVGL/GUI/lvgl/src/widgets/switch/lv_switch.c ****         }
 727              		.loc 1 229 26 view .LVU216
 728 0158 A8E7     		b	.L27
 729              	.LVL85:
 730              	.L23:
 229:../../Middlewares/LVGL/GUI/lvgl/src/widgets/switch/lv_switch.c ****         }
 731              		.loc 1 229 26 view .LVU217
 732              	.LBE50:
 733              	.LBB51:
 235:../../Middlewares/LVGL/GUI/lvgl/src/widgets/switch/lv_switch.c ****         int32_t knob_size = lv_obj_get_width(obj);
 734              		.loc 1 235 9 is_stmt 1 view .LVU218
 236:../../Middlewares/LVGL/GUI/lvgl/src/widgets/switch/lv_switch.c ****         int32_t anim_length = lv_area_get_height(&obj->coords) - knob_size;
 735              		.loc 1 236 9 view .LVU219
 236:../../Middlewares/LVGL/GUI/lvgl/src/widgets/switch/lv_switch.c ****         int32_t anim_length = lv_area_get_height(&obj->coords) - knob_size;
 736              		.loc 1 236 29 is_stmt 0 view .LVU220
 737 015a 2046     		mov	r0, r4
 738              	.LVL86:
 236:../../Middlewares/LVGL/GUI/lvgl/src/widgets/switch/lv_switch.c ****         int32_t anim_length = lv_area_get_height(&obj->coords) - knob_size;
 739              		.loc 1 236 29 view .LVU221
 740 015c FFF7FEFF 		bl	lv_obj_get_width
 741              	.LVL87:
 742 0160 0646     		mov	r6, r0
 743              	.LVL88:
 237:../../Middlewares/LVGL/GUI/lvgl/src/widgets/switch/lv_switch.c ****         if(LV_SWITCH_IS_ANIMATING(sw)) {
 744              		.loc 1 237 9 is_stmt 1 view .LVU222
 237:../../Middlewares/LVGL/GUI/lvgl/src/widgets/switch/lv_switch.c ****         if(LV_SWITCH_IS_ANIMATING(sw)) {
 745              		.loc 1 237 31 is_stmt 0 view .LVU223
 746 0162 3846     		mov	r0, r7
 747              	.LVL89:
ARM GAS  C:\Users\28576\AppData\Local\Temp\cceCo13F.s 			page 37


 237:../../Middlewares/LVGL/GUI/lvgl/src/widgets/switch/lv_switch.c ****         if(LV_SWITCH_IS_ANIMATING(sw)) {
 748              		.loc 1 237 31 view .LVU224
 749 0164 FFF7FEFF 		bl	lv_area_get_height
 750              	.LVL90:
 237:../../Middlewares/LVGL/GUI/lvgl/src/widgets/switch/lv_switch.c ****         if(LV_SWITCH_IS_ANIMATING(sw)) {
 751              		.loc 1 237 17 discriminator 1 view .LVU225
 752 0168 A0EB0608 		sub	r8, r0, r6
 753              	.LVL91:
 238:../../Middlewares/LVGL/GUI/lvgl/src/widgets/switch/lv_switch.c ****             /* Use the animation's coordinate */
 754              		.loc 1 238 9 is_stmt 1 view .LVU226
 238:../../Middlewares/LVGL/GUI/lvgl/src/widgets/switch/lv_switch.c ****             /* Use the animation's coordinate */
 755              		.loc 1 238 12 is_stmt 0 view .LVU227
 756 016c E76A     		ldr	r7, [r4, #44]
 238:../../Middlewares/LVGL/GUI/lvgl/src/widgets/switch/lv_switch.c ****             /* Use the animation's coordinate */
 757              		.loc 1 238 11 view .LVU228
 758 016e B7F1FF3F 		cmp	r7, #-1
 759 0172 19D0     		beq	.L29
 240:../../Middlewares/LVGL/GUI/lvgl/src/widgets/switch/lv_switch.c ****         }
 760              		.loc 1 240 13 is_stmt 1 view .LVU229
 240:../../Middlewares/LVGL/GUI/lvgl/src/widgets/switch/lv_switch.c ****         }
 761              		.loc 1 240 41 is_stmt 0 view .LVU230
 762 0174 08FB07F7 		mul	r7, r8, r7
 240:../../Middlewares/LVGL/GUI/lvgl/src/widgets/switch/lv_switch.c ****         }
 763              		.loc 1 240 26 view .LVU231
 764 0178 002F     		cmp	r7, #0
 765 017a 13DB     		blt	.L38
 766              	.L30:
 767 017c 3F12     		asrs	r7, r7, #8
 768              	.LVL92:
 769              	.L31:
 248:../../Middlewares/LVGL/GUI/lvgl/src/widgets/switch/lv_switch.c ****             anim_value_y = anim_length - anim_value_y;
 770              		.loc 1 248 9 is_stmt 1 view .LVU232
 771              	.LBB52:
 772              	.LBI52:
 688:H:/STM32H7/RGB_LVGL/Middlewares/LVGL/GUI/lvgl/src/core\lv_obj_style_gen.h **** {
 773              		.loc 2 688 29 view .LVU233
 774              	.LBB53:
 690:H:/STM32H7/RGB_LVGL/Middlewares/LVGL/GUI/lvgl/src/core\lv_obj_style_gen.h ****     return (lv_base_dir_t)v.num;
 775              		.loc 2 690 5 view .LVU234
 690:H:/STM32H7/RGB_LVGL/Middlewares/LVGL/GUI/lvgl/src/core\lv_obj_style_gen.h ****     return (lv_base_dir_t)v.num;
 776              		.loc 2 690 26 is_stmt 0 view .LVU235
 777 017e 2722     		movs	r2, #39
 778 0180 0021     		movs	r1, #0
 779 0182 2046     		mov	r0, r4
 780 0184 FFF7FEFF 		bl	lv_obj_get_style_prop
 781              	.LVL93:
 782 0188 0190     		str	r0, [sp, #4]
 783              		.loc 2 691 5 is_stmt 1 view .LVU236
 784              		.loc 2 691 12 is_stmt 0 view .LVU237
 785 018a C0B2     		uxtb	r0, r0
 786              	.LVL94:
 787              		.loc 2 691 12 view .LVU238
 788              	.LBE53:
 789              	.LBE52:
 248:../../Middlewares/LVGL/GUI/lvgl/src/widgets/switch/lv_switch.c ****             anim_value_y = anim_length - anim_value_y;
 790              		.loc 1 248 11 discriminator 1 view .LVU239
 791 018c 0128     		cmp	r0, #1
ARM GAS  C:\Users\28576\AppData\Local\Temp\cceCo13F.s 			page 38


 792 018e 15D0     		beq	.L39
 793              	.LVL95:
 794              	.L32:
 252:../../Middlewares/LVGL/GUI/lvgl/src/widgets/switch/lv_switch.c ****         knob_area.y1 = knob_area.y2 - (knob_size > 0 ? knob_size - 1 : 0);
 795              		.loc 1 252 9 is_stmt 1 view .LVU240
 252:../../Middlewares/LVGL/GUI/lvgl/src/widgets/switch/lv_switch.c ****         knob_area.y1 = knob_area.y2 - (knob_size > 0 ? knob_size - 1 : 0);
 796              		.loc 1 252 18 is_stmt 0 view .LVU241
 797 0190 219B     		ldr	r3, [sp, #132]
 252:../../Middlewares/LVGL/GUI/lvgl/src/widgets/switch/lv_switch.c ****         knob_area.y1 = knob_area.y2 - (knob_size > 0 ? knob_size - 1 : 0);
 798              		.loc 1 252 22 view .LVU242
 799 0192 DB1B     		subs	r3, r3, r7
 800 0194 2193     		str	r3, [sp, #132]
 253:../../Middlewares/LVGL/GUI/lvgl/src/widgets/switch/lv_switch.c ****     }
 801              		.loc 1 253 9 is_stmt 1 view .LVU243
 253:../../Middlewares/LVGL/GUI/lvgl/src/widgets/switch/lv_switch.c ****     }
 802              		.loc 1 253 70 is_stmt 0 view .LVU244
 803 0196 012E     		cmp	r6, #1
 804 0198 B8BF     		it	lt
 805 019a 0126     		movlt	r6, #1
 806              	.LVL96:
 253:../../Middlewares/LVGL/GUI/lvgl/src/widgets/switch/lv_switch.c ****     }
 807              		.loc 1 253 70 view .LVU245
 808 019c 013E     		subs	r6, r6, #1
 253:../../Middlewares/LVGL/GUI/lvgl/src/widgets/switch/lv_switch.c ****     }
 809              		.loc 1 253 37 view .LVU246
 810 019e 9B1B     		subs	r3, r3, r6
 253:../../Middlewares/LVGL/GUI/lvgl/src/widgets/switch/lv_switch.c ****     }
 811              		.loc 1 253 22 view .LVU247
 812 01a0 1F93     		str	r3, [sp, #124]
 813 01a2 8CE7     		b	.L28
 814              	.LVL97:
 815              	.L38:
 240:../../Middlewares/LVGL/GUI/lvgl/src/widgets/switch/lv_switch.c ****         }
 816              		.loc 1 240 26 view .LVU248
 817 01a4 FF37     		adds	r7, r7, #255
 818 01a6 E9E7     		b	.L30
 819              	.L29:
 820              	.LBB54:
 244:../../Middlewares/LVGL/GUI/lvgl/src/widgets/switch/lv_switch.c ****             anim_value_y = chk ? anim_length : 0;
 821              		.loc 1 244 13 is_stmt 1 view .LVU249
 244:../../Middlewares/LVGL/GUI/lvgl/src/widgets/switch/lv_switch.c ****             anim_value_y = chk ? anim_length : 0;
 822              		.loc 1 244 24 is_stmt 0 view .LVU250
 823 01a8 2046     		mov	r0, r4
 824 01aa FFF7FEFF 		bl	lv_obj_get_state
 825              	.LVL98:
 245:../../Middlewares/LVGL/GUI/lvgl/src/widgets/switch/lv_switch.c ****         }
 826              		.loc 1 245 13 is_stmt 1 view .LVU251
 245:../../Middlewares/LVGL/GUI/lvgl/src/widgets/switch/lv_switch.c ****         }
 827              		.loc 1 245 46 is_stmt 0 view .LVU252
 828 01ae 10F0010F 		tst	r0, #1
 829 01b2 01D0     		beq	.L34
 245:../../Middlewares/LVGL/GUI/lvgl/src/widgets/switch/lv_switch.c ****         }
 830              		.loc 1 245 26 discriminator 1 view .LVU253
 831 01b4 4746     		mov	r7, r8
 832 01b6 E2E7     		b	.L31
 833              	.L34:
 245:../../Middlewares/LVGL/GUI/lvgl/src/widgets/switch/lv_switch.c ****         }
ARM GAS  C:\Users\28576\AppData\Local\Temp\cceCo13F.s 			page 39


 834              		.loc 1 245 26 discriminator 2 view .LVU254
 835 01b8 0027     		movs	r7, #0
 836 01ba E0E7     		b	.L31
 837              	.LVL99:
 838              	.L39:
 245:../../Middlewares/LVGL/GUI/lvgl/src/widgets/switch/lv_switch.c ****         }
 839              		.loc 1 245 26 discriminator 2 view .LVU255
 840              	.LBE54:
 249:../../Middlewares/LVGL/GUI/lvgl/src/widgets/switch/lv_switch.c ****         }
 841              		.loc 1 249 13 is_stmt 1 view .LVU256
 249:../../Middlewares/LVGL/GUI/lvgl/src/widgets/switch/lv_switch.c ****         }
 842              		.loc 1 249 26 is_stmt 0 view .LVU257
 843 01bc A8EB0707 		sub	r7, r8, r7
 844              	.LVL100:
 249:../../Middlewares/LVGL/GUI/lvgl/src/widgets/switch/lv_switch.c ****         }
 845              		.loc 1 249 26 view .LVU258
 846 01c0 E6E7     		b	.L32
 847              	.LBE51:
 848              		.cfi_endproc
 849              	.LFE178:
 851              		.section	.text.lv_switch_event,"ax",%progbits
 852              		.align	1
 853              		.syntax unified
 854              		.thumb
 855              		.thumb_func
 857              	lv_switch_event:
 858              	.LVL101:
 859              	.LFB177:
 139:../../Middlewares/LVGL/GUI/lvgl/src/widgets/switch/lv_switch.c ****     LV_UNUSED(class_p);
 860              		.loc 1 139 1 is_stmt 1 view -0
 861              		.cfi_startproc
 862              		@ args = 0, pretend = 0, frame = 8
 863              		@ frame_needed = 0, uses_anonymous_args = 0
 139:../../Middlewares/LVGL/GUI/lvgl/src/widgets/switch/lv_switch.c ****     LV_UNUSED(class_p);
 864              		.loc 1 139 1 is_stmt 0 view .LVU260
 865 0000 2DE9F041 		push	{r4, r5, r6, r7, r8, lr}
 866              	.LCFI12:
 867              		.cfi_def_cfa_offset 24
 868              		.cfi_offset 4, -24
 869              		.cfi_offset 5, -20
 870              		.cfi_offset 6, -16
 871              		.cfi_offset 7, -12
 872              		.cfi_offset 8, -8
 873              		.cfi_offset 14, -4
 874 0004 82B0     		sub	sp, sp, #8
 875              	.LCFI13:
 876              		.cfi_def_cfa_offset 32
 877 0006 8846     		mov	r8, r1
 140:../../Middlewares/LVGL/GUI/lvgl/src/widgets/switch/lv_switch.c **** 
 878              		.loc 1 140 5 is_stmt 1 view .LVU261
 142:../../Middlewares/LVGL/GUI/lvgl/src/widgets/switch/lv_switch.c **** 
 879              		.loc 1 142 5 view .LVU262
 145:../../Middlewares/LVGL/GUI/lvgl/src/widgets/switch/lv_switch.c ****     if(res != LV_RESULT_OK) return;
 880              		.loc 1 145 5 view .LVU263
 145:../../Middlewares/LVGL/GUI/lvgl/src/widgets/switch/lv_switch.c ****     if(res != LV_RESULT_OK) return;
 881              		.loc 1 145 11 is_stmt 0 view .LVU264
 882 0008 3348     		ldr	r0, .L50
ARM GAS  C:\Users\28576\AppData\Local\Temp\cceCo13F.s 			page 40


 883              	.LVL102:
 145:../../Middlewares/LVGL/GUI/lvgl/src/widgets/switch/lv_switch.c ****     if(res != LV_RESULT_OK) return;
 884              		.loc 1 145 11 view .LVU265
 885 000a FFF7FEFF 		bl	lv_obj_event_base
 886              	.LVL103:
 146:../../Middlewares/LVGL/GUI/lvgl/src/widgets/switch/lv_switch.c **** 
 887              		.loc 1 146 5 is_stmt 1 view .LVU266
 146:../../Middlewares/LVGL/GUI/lvgl/src/widgets/switch/lv_switch.c **** 
 888              		.loc 1 146 7 is_stmt 0 view .LVU267
 889 000e 0128     		cmp	r0, #1
 890 0010 02D0     		beq	.L47
 891              	.LVL104:
 892              	.L40:
 173:../../Middlewares/LVGL/GUI/lvgl/src/widgets/switch/lv_switch.c **** 
 893              		.loc 1 173 1 view .LVU268
 894 0012 02B0     		add	sp, sp, #8
 895              	.LCFI14:
 896              		.cfi_remember_state
 897              		.cfi_def_cfa_offset 24
 898              		@ sp needed
 899 0014 BDE8F081 		pop	{r4, r5, r6, r7, r8, pc}
 900              	.LVL105:
 901              	.L47:
 902              	.LCFI15:
 903              		.cfi_restore_state
 148:../../Middlewares/LVGL/GUI/lvgl/src/widgets/switch/lv_switch.c ****     lv_obj_t * obj = lv_event_get_current_target(e);
 904              		.loc 1 148 5 is_stmt 1 view .LVU269
 148:../../Middlewares/LVGL/GUI/lvgl/src/widgets/switch/lv_switch.c ****     lv_obj_t * obj = lv_event_get_current_target(e);
 905              		.loc 1 148 28 is_stmt 0 view .LVU270
 906 0018 4046     		mov	r0, r8
 907              	.LVL106:
 148:../../Middlewares/LVGL/GUI/lvgl/src/widgets/switch/lv_switch.c ****     lv_obj_t * obj = lv_event_get_current_target(e);
 908              		.loc 1 148 28 view .LVU271
 909 001a FFF7FEFF 		bl	lv_event_get_code
 910              	.LVL107:
 911 001e 0446     		mov	r4, r0
 912              	.LVL108:
 149:../../Middlewares/LVGL/GUI/lvgl/src/widgets/switch/lv_switch.c **** 
 913              		.loc 1 149 5 is_stmt 1 view .LVU272
 149:../../Middlewares/LVGL/GUI/lvgl/src/widgets/switch/lv_switch.c **** 
 914              		.loc 1 149 22 is_stmt 0 view .LVU273
 915 0020 4046     		mov	r0, r8
 916              	.LVL109:
 149:../../Middlewares/LVGL/GUI/lvgl/src/widgets/switch/lv_switch.c **** 
 917              		.loc 1 149 22 view .LVU274
 918 0022 FFF7FEFF 		bl	lv_event_get_current_target
 919              	.LVL110:
 920 0026 0746     		mov	r7, r0
 921              	.LVL111:
 151:../../Middlewares/LVGL/GUI/lvgl/src/widgets/switch/lv_switch.c ****         int32_t knob_left = lv_obj_get_style_pad_left(obj,   LV_PART_KNOB);
 922              		.loc 1 151 5 is_stmt 1 view .LVU275
 151:../../Middlewares/LVGL/GUI/lvgl/src/widgets/switch/lv_switch.c ****         int32_t knob_left = lv_obj_get_style_pad_left(obj,   LV_PART_KNOB);
 923              		.loc 1 151 7 is_stmt 0 view .LVU276
 924 0028 1B2C     		cmp	r4, #27
 925 002a 07D0     		beq	.L48
 166:../../Middlewares/LVGL/GUI/lvgl/src/widgets/switch/lv_switch.c ****         lv_switch_trigger_anim(obj);
 926              		.loc 1 166 10 is_stmt 1 view .LVU277
ARM GAS  C:\Users\28576\AppData\Local\Temp\cceCo13F.s 			page 41


 166:../../Middlewares/LVGL/GUI/lvgl/src/widgets/switch/lv_switch.c ****         lv_switch_trigger_anim(obj);
 927              		.loc 1 166 12 is_stmt 0 view .LVU278
 928 002c 232C     		cmp	r4, #35
 929 002e 4DD0     		beq	.L49
 170:../../Middlewares/LVGL/GUI/lvgl/src/widgets/switch/lv_switch.c ****         draw_main(e);
 930              		.loc 1 170 10 is_stmt 1 view .LVU279
 170:../../Middlewares/LVGL/GUI/lvgl/src/widgets/switch/lv_switch.c ****         draw_main(e);
 931              		.loc 1 170 12 is_stmt 0 view .LVU280
 932 0030 1D2C     		cmp	r4, #29
 933 0032 EED1     		bne	.L40
 171:../../Middlewares/LVGL/GUI/lvgl/src/widgets/switch/lv_switch.c ****     }
 934              		.loc 1 171 9 is_stmt 1 view .LVU281
 935 0034 4046     		mov	r0, r8
 936              	.LVL112:
 171:../../Middlewares/LVGL/GUI/lvgl/src/widgets/switch/lv_switch.c ****     }
 937              		.loc 1 171 9 is_stmt 0 view .LVU282
 938 0036 FFF7FEFF 		bl	draw_main
 939              	.LVL113:
 940 003a EAE7     		b	.L40
 941              	.LVL114:
 942              	.L48:
 943              	.LBB55:
 152:../../Middlewares/LVGL/GUI/lvgl/src/widgets/switch/lv_switch.c ****         int32_t knob_right = lv_obj_get_style_pad_right(obj,  LV_PART_KNOB);
 944              		.loc 1 152 9 is_stmt 1 view .LVU283
 945              	.LBB56:
 946              	.LBI56:
 166:H:/STM32H7/RGB_LVGL/Middlewares/LVGL/GUI/lvgl/src/core\lv_obj_style_gen.h **** {
 947              		.loc 2 166 23 view .LVU284
 948              	.LBB57:
 168:H:/STM32H7/RGB_LVGL/Middlewares/LVGL/GUI/lvgl/src/core\lv_obj_style_gen.h ****     return (int32_t)v.num;
 949              		.loc 2 168 5 view .LVU285
 168:H:/STM32H7/RGB_LVGL/Middlewares/LVGL/GUI/lvgl/src/core\lv_obj_style_gen.h ****     return (int32_t)v.num;
 950              		.loc 2 168 26 is_stmt 0 view .LVU286
 951 003c 1222     		movs	r2, #18
 952 003e 4FF44031 		mov	r1, #196608
 953 0042 FFF7FEFF 		bl	lv_obj_get_style_prop
 954              	.LVL115:
 168:H:/STM32H7/RGB_LVGL/Middlewares/LVGL/GUI/lvgl/src/core\lv_obj_style_gen.h ****     return (int32_t)v.num;
 955              		.loc 2 168 26 view .LVU287
 956 0046 0446     		mov	r4, r0
 957              	.LVL116:
 168:H:/STM32H7/RGB_LVGL/Middlewares/LVGL/GUI/lvgl/src/core\lv_obj_style_gen.h ****     return (int32_t)v.num;
 958              		.loc 2 168 26 view .LVU288
 959 0048 0190     		str	r0, [sp, #4]
 169:H:/STM32H7/RGB_LVGL/Middlewares/LVGL/GUI/lvgl/src/core\lv_obj_style_gen.h **** }
 960              		.loc 2 169 5 is_stmt 1 view .LVU289
 961              	.LVL117:
 169:H:/STM32H7/RGB_LVGL/Middlewares/LVGL/GUI/lvgl/src/core\lv_obj_style_gen.h **** }
 962              		.loc 2 169 5 is_stmt 0 view .LVU290
 963              	.LBE57:
 964              	.LBE56:
 153:../../Middlewares/LVGL/GUI/lvgl/src/widgets/switch/lv_switch.c ****         int32_t knob_top = lv_obj_get_style_pad_top(obj,    LV_PART_KNOB);
 965              		.loc 1 153 9 is_stmt 1 view .LVU291
 966              	.LBB58:
 967              	.LBI58:
 172:H:/STM32H7/RGB_LVGL/Middlewares/LVGL/GUI/lvgl/src/core\lv_obj_style_gen.h **** {
 968              		.loc 2 172 23 view .LVU292
ARM GAS  C:\Users\28576\AppData\Local\Temp\cceCo13F.s 			page 42


 969              	.LBB59:
 174:H:/STM32H7/RGB_LVGL/Middlewares/LVGL/GUI/lvgl/src/core\lv_obj_style_gen.h ****     return (int32_t)v.num;
 970              		.loc 2 174 5 view .LVU293
 174:H:/STM32H7/RGB_LVGL/Middlewares/LVGL/GUI/lvgl/src/core\lv_obj_style_gen.h ****     return (int32_t)v.num;
 971              		.loc 2 174 26 is_stmt 0 view .LVU294
 972 004a 1322     		movs	r2, #19
 973 004c 4FF44031 		mov	r1, #196608
 974 0050 3846     		mov	r0, r7
 975              	.LVL118:
 174:H:/STM32H7/RGB_LVGL/Middlewares/LVGL/GUI/lvgl/src/core\lv_obj_style_gen.h ****     return (int32_t)v.num;
 976              		.loc 2 174 26 view .LVU295
 977 0052 FFF7FEFF 		bl	lv_obj_get_style_prop
 978              	.LVL119:
 979 0056 0646     		mov	r6, r0
 980 0058 0190     		str	r0, [sp, #4]
 175:H:/STM32H7/RGB_LVGL/Middlewares/LVGL/GUI/lvgl/src/core\lv_obj_style_gen.h **** }
 981              		.loc 2 175 5 is_stmt 1 view .LVU296
 982              	.LVL120:
 175:H:/STM32H7/RGB_LVGL/Middlewares/LVGL/GUI/lvgl/src/core\lv_obj_style_gen.h **** }
 983              		.loc 2 175 5 is_stmt 0 view .LVU297
 984              	.LBE59:
 985              	.LBE58:
 154:../../Middlewares/LVGL/GUI/lvgl/src/widgets/switch/lv_switch.c ****         int32_t knob_bottom = lv_obj_get_style_pad_bottom(obj, LV_PART_KNOB);
 986              		.loc 1 154 9 is_stmt 1 view .LVU298
 987              	.LBB60:
 988              	.LBI60:
 154:H:/STM32H7/RGB_LVGL/Middlewares/LVGL/GUI/lvgl/src/core\lv_obj_style_gen.h **** {
 989              		.loc 2 154 23 view .LVU299
 990              	.LBB61:
 156:H:/STM32H7/RGB_LVGL/Middlewares/LVGL/GUI/lvgl/src/core\lv_obj_style_gen.h ****     return (int32_t)v.num;
 991              		.loc 2 156 5 view .LVU300
 156:H:/STM32H7/RGB_LVGL/Middlewares/LVGL/GUI/lvgl/src/core\lv_obj_style_gen.h ****     return (int32_t)v.num;
 992              		.loc 2 156 26 is_stmt 0 view .LVU301
 993 005a 1022     		movs	r2, #16
 994 005c 4FF44031 		mov	r1, #196608
 995 0060 3846     		mov	r0, r7
 996              	.LVL121:
 156:H:/STM32H7/RGB_LVGL/Middlewares/LVGL/GUI/lvgl/src/core\lv_obj_style_gen.h ****     return (int32_t)v.num;
 997              		.loc 2 156 26 view .LVU302
 998 0062 FFF7FEFF 		bl	lv_obj_get_style_prop
 999              	.LVL122:
 1000 0066 0546     		mov	r5, r0
 1001 0068 0190     		str	r0, [sp, #4]
 157:H:/STM32H7/RGB_LVGL/Middlewares/LVGL/GUI/lvgl/src/core\lv_obj_style_gen.h **** }
 1002              		.loc 2 157 5 is_stmt 1 view .LVU303
 1003              	.LVL123:
 157:H:/STM32H7/RGB_LVGL/Middlewares/LVGL/GUI/lvgl/src/core\lv_obj_style_gen.h **** }
 1004              		.loc 2 157 5 is_stmt 0 view .LVU304
 1005              	.LBE61:
 1006              	.LBE60:
 155:../../Middlewares/LVGL/GUI/lvgl/src/widgets/switch/lv_switch.c **** 
 1007              		.loc 1 155 9 is_stmt 1 view .LVU305
 1008              	.LBB62:
 1009              	.LBI62:
 160:H:/STM32H7/RGB_LVGL/Middlewares/LVGL/GUI/lvgl/src/core\lv_obj_style_gen.h **** {
 1010              		.loc 2 160 23 view .LVU306
 1011              	.LBB63:
ARM GAS  C:\Users\28576\AppData\Local\Temp\cceCo13F.s 			page 43


 162:H:/STM32H7/RGB_LVGL/Middlewares/LVGL/GUI/lvgl/src/core\lv_obj_style_gen.h ****     return (int32_t)v.num;
 1012              		.loc 2 162 5 view .LVU307
 162:H:/STM32H7/RGB_LVGL/Middlewares/LVGL/GUI/lvgl/src/core\lv_obj_style_gen.h ****     return (int32_t)v.num;
 1013              		.loc 2 162 26 is_stmt 0 view .LVU308
 1014 006a 1122     		movs	r2, #17
 1015 006c 4FF44031 		mov	r1, #196608
 1016 0070 3846     		mov	r0, r7
 1017              	.LVL124:
 162:H:/STM32H7/RGB_LVGL/Middlewares/LVGL/GUI/lvgl/src/core\lv_obj_style_gen.h ****     return (int32_t)v.num;
 1018              		.loc 2 162 26 view .LVU309
 1019 0072 FFF7FEFF 		bl	lv_obj_get_style_prop
 1020              	.LVL125:
 1021 0076 0190     		str	r0, [sp, #4]
 163:H:/STM32H7/RGB_LVGL/Middlewares/LVGL/GUI/lvgl/src/core\lv_obj_style_gen.h **** }
 1022              		.loc 2 163 5 is_stmt 1 view .LVU310
 1023              	.LVL126:
 163:H:/STM32H7/RGB_LVGL/Middlewares/LVGL/GUI/lvgl/src/core\lv_obj_style_gen.h **** }
 1024              		.loc 2 163 5 is_stmt 0 view .LVU311
 1025              	.LBE63:
 1026              	.LBE62:
 158:../../Middlewares/LVGL/GUI/lvgl/src/widgets/switch/lv_switch.c ****         knob_size += LV_SWITCH_KNOB_EXT_AREA_CORRECTION;
 1027              		.loc 1 158 9 is_stmt 1 view .LVU312
 158:../../Middlewares/LVGL/GUI/lvgl/src/widgets/switch/lv_switch.c ****         knob_size += LV_SWITCH_KNOB_EXT_AREA_CORRECTION;
 1028              		.loc 1 158 29 is_stmt 0 view .LVU313
 1029 0078 2B46     		mov	r3, r5
 1030 007a 8542     		cmp	r5, r0
 1031 007c B8BF     		it	lt
 1032 007e 0346     		movlt	r3, r0
 1033 0080 B442     		cmp	r4, r6
 1034 0082 B8BF     		it	lt
 1035 0084 3446     		movlt	r4, r6
 1036              	.LVL127:
 158:../../Middlewares/LVGL/GUI/lvgl/src/widgets/switch/lv_switch.c ****         knob_size += LV_SWITCH_KNOB_EXT_AREA_CORRECTION;
 1037              		.loc 1 158 17 view .LVU314
 1038 0086 A342     		cmp	r3, r4
 1039 0088 B8BF     		it	lt
 1040 008a 2346     		movlt	r3, r4
 1041              	.LVL128:
 159:../../Middlewares/LVGL/GUI/lvgl/src/widgets/switch/lv_switch.c ****         knob_size += lv_obj_calculate_ext_draw_size(obj, LV_PART_KNOB);
 1042              		.loc 1 159 9 is_stmt 1 view .LVU315
 159:../../Middlewares/LVGL/GUI/lvgl/src/widgets/switch/lv_switch.c ****         knob_size += lv_obj_calculate_ext_draw_size(obj, LV_PART_KNOB);
 1043              		.loc 1 159 19 is_stmt 0 view .LVU316
 1044 008c 9C1C     		adds	r4, r3, #2
 1045              	.LVL129:
 160:../../Middlewares/LVGL/GUI/lvgl/src/widgets/switch/lv_switch.c **** 
 1046              		.loc 1 160 9 is_stmt 1 view .LVU317
 160:../../Middlewares/LVGL/GUI/lvgl/src/widgets/switch/lv_switch.c **** 
 1047              		.loc 1 160 22 is_stmt 0 view .LVU318
 1048 008e 4FF44031 		mov	r1, #196608
 1049 0092 3846     		mov	r0, r7
 1050              	.LVL130:
 160:../../Middlewares/LVGL/GUI/lvgl/src/widgets/switch/lv_switch.c **** 
 1051              		.loc 1 160 22 view .LVU319
 1052 0094 FFF7FEFF 		bl	lv_obj_calculate_ext_draw_size
 1053              	.LVL131:
 160:../../Middlewares/LVGL/GUI/lvgl/src/widgets/switch/lv_switch.c **** 
 1054              		.loc 1 160 19 discriminator 1 view .LVU320
ARM GAS  C:\Users\28576\AppData\Local\Temp\cceCo13F.s 			page 44


 1055 0098 0444     		add	r4, r4, r0
 1056              	.LVL132:
 162:../../Middlewares/LVGL/GUI/lvgl/src/widgets/switch/lv_switch.c ****         *s = LV_MAX(*s, knob_size);
 1057              		.loc 1 162 9 is_stmt 1 view .LVU321
 162:../../Middlewares/LVGL/GUI/lvgl/src/widgets/switch/lv_switch.c ****         *s = LV_MAX(*s, knob_size);
 1058              		.loc 1 162 23 is_stmt 0 view .LVU322
 1059 009a 4046     		mov	r0, r8
 1060 009c FFF7FEFF 		bl	lv_event_get_param
 1061              	.LVL133:
 1062 00a0 0546     		mov	r5, r0
 1063              	.LVL134:
 163:../../Middlewares/LVGL/GUI/lvgl/src/widgets/switch/lv_switch.c ****         *s = LV_MAX(*s, lv_obj_calculate_ext_draw_size(obj, LV_PART_INDICATOR));
 1064              		.loc 1 163 9 is_stmt 1 view .LVU323
 163:../../Middlewares/LVGL/GUI/lvgl/src/widgets/switch/lv_switch.c ****         *s = LV_MAX(*s, lv_obj_calculate_ext_draw_size(obj, LV_PART_INDICATOR));
 1065              		.loc 1 163 14 is_stmt 0 view .LVU324
 1066 00a2 0368     		ldr	r3, [r0]
 1067 00a4 9C42     		cmp	r4, r3
 1068 00a6 B8BF     		it	lt
 1069 00a8 1C46     		movlt	r4, r3
 1070              	.LVL135:
 163:../../Middlewares/LVGL/GUI/lvgl/src/widgets/switch/lv_switch.c ****         *s = LV_MAX(*s, lv_obj_calculate_ext_draw_size(obj, LV_PART_INDICATOR));
 1071              		.loc 1 163 12 view .LVU325
 1072 00aa 0460     		str	r4, [r0]
 164:../../Middlewares/LVGL/GUI/lvgl/src/widgets/switch/lv_switch.c ****     }
 1073              		.loc 1 164 9 is_stmt 1 view .LVU326
 164:../../Middlewares/LVGL/GUI/lvgl/src/widgets/switch/lv_switch.c ****     }
 1074              		.loc 1 164 14 is_stmt 0 view .LVU327
 1075 00ac 4FF40031 		mov	r1, #131072
 1076 00b0 3846     		mov	r0, r7
 1077              	.LVL136:
 164:../../Middlewares/LVGL/GUI/lvgl/src/widgets/switch/lv_switch.c ****     }
 1078              		.loc 1 164 14 view .LVU328
 1079 00b2 FFF7FEFF 		bl	lv_obj_calculate_ext_draw_size
 1080              	.LVL137:
 164:../../Middlewares/LVGL/GUI/lvgl/src/widgets/switch/lv_switch.c ****     }
 1081              		.loc 1 164 14 discriminator 1 view .LVU329
 1082 00b6 8442     		cmp	r4, r0
 1083 00b8 02DD     		ble	.L43
 164:../../Middlewares/LVGL/GUI/lvgl/src/widgets/switch/lv_switch.c ****     }
 1084              		.loc 1 164 14 discriminator 2 view .LVU330
 1085 00ba 2868     		ldr	r0, [r5]
 1086              	.L44:
 164:../../Middlewares/LVGL/GUI/lvgl/src/widgets/switch/lv_switch.c ****     }
 1087              		.loc 1 164 12 discriminator 6 view .LVU331
 1088 00bc 2860     		str	r0, [r5]
 1089              	.LBE55:
 1090 00be A8E7     		b	.L40
 1091              	.L43:
 1092              	.LBB64:
 164:../../Middlewares/LVGL/GUI/lvgl/src/widgets/switch/lv_switch.c ****     }
 1093              		.loc 1 164 14 discriminator 3 view .LVU332
 1094 00c0 4FF40031 		mov	r1, #131072
 1095 00c4 3846     		mov	r0, r7
 1096 00c6 FFF7FEFF 		bl	lv_obj_calculate_ext_draw_size
 1097              	.LVL138:
 1098 00ca F7E7     		b	.L44
 1099              	.LVL139:
ARM GAS  C:\Users\28576\AppData\Local\Temp\cceCo13F.s 			page 45


 1100              	.L49:
 164:../../Middlewares/LVGL/GUI/lvgl/src/widgets/switch/lv_switch.c ****     }
 1101              		.loc 1 164 14 discriminator 3 view .LVU333
 1102              	.LBE64:
 167:../../Middlewares/LVGL/GUI/lvgl/src/widgets/switch/lv_switch.c ****         lv_obj_invalidate(obj);
 1103              		.loc 1 167 9 is_stmt 1 view .LVU334
 1104 00cc FFF7FEFF 		bl	lv_switch_trigger_anim
 1105              	.LVL140:
 168:../../Middlewares/LVGL/GUI/lvgl/src/widgets/switch/lv_switch.c ****     }
 1106              		.loc 1 168 9 view .LVU335
 1107 00d0 3846     		mov	r0, r7
 1108 00d2 FFF7FEFF 		bl	lv_obj_invalidate
 1109              	.LVL141:
 1110 00d6 9CE7     		b	.L40
 1111              	.L51:
 1112              		.align	2
 1113              	.L50:
 1114 00d8 00000000 		.word	lv_switch_class
 1115              		.cfi_endproc
 1116              	.LFE177:
 1118              		.section	.text.lv_switch_constructor,"ax",%progbits
 1119              		.align	1
 1120              		.syntax unified
 1121              		.thumb
 1122              		.thumb_func
 1124              	lv_switch_constructor:
 1125              	.LVL142:
 1126              	.LFB175:
 114:../../Middlewares/LVGL/GUI/lvgl/src/widgets/switch/lv_switch.c ****     LV_UNUSED(class_p);
 1127              		.loc 1 114 1 view -0
 1128              		.cfi_startproc
 1129              		@ args = 0, pretend = 0, frame = 0
 1130              		@ frame_needed = 0, uses_anonymous_args = 0
 114:../../Middlewares/LVGL/GUI/lvgl/src/widgets/switch/lv_switch.c ****     LV_UNUSED(class_p);
 1131              		.loc 1 114 1 is_stmt 0 view .LVU337
 1132 0000 10B5     		push	{r4, lr}
 1133              	.LCFI16:
 1134              		.cfi_def_cfa_offset 8
 1135              		.cfi_offset 4, -8
 1136              		.cfi_offset 14, -4
 1137 0002 0C46     		mov	r4, r1
 115:../../Middlewares/LVGL/GUI/lvgl/src/widgets/switch/lv_switch.c ****     LV_TRACE_OBJ_CREATE("begin");
 1138              		.loc 1 115 5 is_stmt 1 view .LVU338
 116:../../Middlewares/LVGL/GUI/lvgl/src/widgets/switch/lv_switch.c **** 
 1139              		.loc 1 116 33 view .LVU339
 118:../../Middlewares/LVGL/GUI/lvgl/src/widgets/switch/lv_switch.c **** 
 1140              		.loc 1 118 5 view .LVU340
 1141              	.LVL143:
 120:../../Middlewares/LVGL/GUI/lvgl/src/widgets/switch/lv_switch.c ****     sw->orientation = LV_SWITCH_ORIENTATION_AUTO;
 1142              		.loc 1 120 5 view .LVU341
 120:../../Middlewares/LVGL/GUI/lvgl/src/widgets/switch/lv_switch.c ****     sw->orientation = LV_SWITCH_ORIENTATION_AUTO;
 1143              		.loc 1 120 20 is_stmt 0 view .LVU342
 1144 0004 4FF0FF33 		mov	r3, #-1
 1145 0008 CB62     		str	r3, [r1, #44]
 121:../../Middlewares/LVGL/GUI/lvgl/src/widgets/switch/lv_switch.c **** 
 1146              		.loc 1 121 5 is_stmt 1 view .LVU343
 121:../../Middlewares/LVGL/GUI/lvgl/src/widgets/switch/lv_switch.c **** 
ARM GAS  C:\Users\28576\AppData\Local\Temp\cceCo13F.s 			page 46


 1147              		.loc 1 121 21 is_stmt 0 view .LVU344
 1148 000a 91F83030 		ldrb	r3, [r1, #48]	@ zero_extendqisi2
 1149 000e 23F00703 		bic	r3, r3, #7
 1150 0012 81F83030 		strb	r3, [r1, #48]
 123:../../Middlewares/LVGL/GUI/lvgl/src/widgets/switch/lv_switch.c ****     lv_obj_add_flag(obj, LV_OBJ_FLAG_CHECKABLE);
 1151              		.loc 1 123 5 is_stmt 1 view .LVU345
 1152 0016 1021     		movs	r1, #16
 1153              	.LVL144:
 123:../../Middlewares/LVGL/GUI/lvgl/src/widgets/switch/lv_switch.c ****     lv_obj_add_flag(obj, LV_OBJ_FLAG_CHECKABLE);
 1154              		.loc 1 123 5 is_stmt 0 view .LVU346
 1155 0018 2046     		mov	r0, r4
 1156              	.LVL145:
 123:../../Middlewares/LVGL/GUI/lvgl/src/widgets/switch/lv_switch.c ****     lv_obj_add_flag(obj, LV_OBJ_FLAG_CHECKABLE);
 1157              		.loc 1 123 5 view .LVU347
 1158 001a FFF7FEFF 		bl	lv_obj_remove_flag
 1159              	.LVL146:
 124:../../Middlewares/LVGL/GUI/lvgl/src/widgets/switch/lv_switch.c ****     lv_obj_add_flag(obj, LV_OBJ_FLAG_SCROLL_ON_FOCUS);
 1160              		.loc 1 124 5 is_stmt 1 view .LVU348
 1161 001e 0821     		movs	r1, #8
 1162 0020 2046     		mov	r0, r4
 1163 0022 FFF7FEFF 		bl	lv_obj_add_flag
 1164              	.LVL147:
 125:../../Middlewares/LVGL/GUI/lvgl/src/widgets/switch/lv_switch.c **** 
 1165              		.loc 1 125 5 view .LVU349
 1166 0026 4FF48061 		mov	r1, #1024
 1167 002a 2046     		mov	r0, r4
 1168 002c FFF7FEFF 		bl	lv_obj_add_flag
 1169              	.LVL148:
 127:../../Middlewares/LVGL/GUI/lvgl/src/widgets/switch/lv_switch.c **** }
 1170              		.loc 1 127 36 view .LVU350
 128:../../Middlewares/LVGL/GUI/lvgl/src/widgets/switch/lv_switch.c **** 
 1171              		.loc 1 128 1 is_stmt 0 view .LVU351
 1172 0030 10BD     		pop	{r4, pc}
 128:../../Middlewares/LVGL/GUI/lvgl/src/widgets/switch/lv_switch.c **** 
 1173              		.loc 1 128 1 view .LVU352
 1174              		.cfi_endproc
 1175              	.LFE175:
 1177              		.section	.text.lv_switch_create,"ax",%progbits
 1178              		.align	1
 1179              		.global	lv_switch_create
 1180              		.syntax unified
 1181              		.thumb
 1182              		.thumb_func
 1184              	lv_switch_create:
 1185              	.LVL149:
 1186              	.LFB172:
  77:../../Middlewares/LVGL/GUI/lvgl/src/widgets/switch/lv_switch.c ****     LV_LOG_INFO("begin");
 1187              		.loc 1 77 1 is_stmt 1 view -0
 1188              		.cfi_startproc
 1189              		@ args = 0, pretend = 0, frame = 0
 1190              		@ frame_needed = 0, uses_anonymous_args = 0
  77:../../Middlewares/LVGL/GUI/lvgl/src/widgets/switch/lv_switch.c ****     LV_LOG_INFO("begin");
 1191              		.loc 1 77 1 is_stmt 0 view .LVU354
 1192 0000 10B5     		push	{r4, lr}
 1193              	.LCFI17:
 1194              		.cfi_def_cfa_offset 8
 1195              		.cfi_offset 4, -8
ARM GAS  C:\Users\28576\AppData\Local\Temp\cceCo13F.s 			page 47


 1196              		.cfi_offset 14, -4
 1197 0002 0146     		mov	r1, r0
  78:../../Middlewares/LVGL/GUI/lvgl/src/widgets/switch/lv_switch.c ****     lv_obj_t * obj = lv_obj_class_create_obj(MY_CLASS, parent);
 1198              		.loc 1 78 5 is_stmt 1 view .LVU355
  78:../../Middlewares/LVGL/GUI/lvgl/src/widgets/switch/lv_switch.c ****     lv_obj_t * obj = lv_obj_class_create_obj(MY_CLASS, parent);
 1199              		.loc 1 78 5 view .LVU356
  78:../../Middlewares/LVGL/GUI/lvgl/src/widgets/switch/lv_switch.c ****     lv_obj_t * obj = lv_obj_class_create_obj(MY_CLASS, parent);
 1200              		.loc 1 78 5 view .LVU357
  79:../../Middlewares/LVGL/GUI/lvgl/src/widgets/switch/lv_switch.c ****     lv_obj_class_init_obj(obj);
 1201              		.loc 1 79 5 view .LVU358
  79:../../Middlewares/LVGL/GUI/lvgl/src/widgets/switch/lv_switch.c ****     lv_obj_class_init_obj(obj);
 1202              		.loc 1 79 22 is_stmt 0 view .LVU359
 1203 0004 0348     		ldr	r0, .L56
 1204              	.LVL150:
  79:../../Middlewares/LVGL/GUI/lvgl/src/widgets/switch/lv_switch.c ****     lv_obj_class_init_obj(obj);
 1205              		.loc 1 79 22 view .LVU360
 1206 0006 FFF7FEFF 		bl	lv_obj_class_create_obj
 1207              	.LVL151:
  79:../../Middlewares/LVGL/GUI/lvgl/src/widgets/switch/lv_switch.c ****     lv_obj_class_init_obj(obj);
 1208              		.loc 1 79 22 view .LVU361
 1209 000a 0446     		mov	r4, r0
 1210              	.LVL152:
  80:../../Middlewares/LVGL/GUI/lvgl/src/widgets/switch/lv_switch.c ****     return obj;
 1211              		.loc 1 80 5 is_stmt 1 view .LVU362
 1212 000c FFF7FEFF 		bl	lv_obj_class_init_obj
 1213              	.LVL153:
  81:../../Middlewares/LVGL/GUI/lvgl/src/widgets/switch/lv_switch.c **** }
 1214              		.loc 1 81 5 view .LVU363
  82:../../Middlewares/LVGL/GUI/lvgl/src/widgets/switch/lv_switch.c **** 
 1215              		.loc 1 82 1 is_stmt 0 view .LVU364
 1216 0010 2046     		mov	r0, r4
 1217 0012 10BD     		pop	{r4, pc}
 1218              	.LVL154:
 1219              	.L57:
  82:../../Middlewares/LVGL/GUI/lvgl/src/widgets/switch/lv_switch.c **** 
 1220              		.loc 1 82 1 view .LVU365
 1221              		.align	2
 1222              	.L56:
 1223 0014 00000000 		.word	lv_switch_class
 1224              		.cfi_endproc
 1225              	.LFE172:
 1227              		.section	.text.lv_switch_set_orientation,"ax",%progbits
 1228              		.align	1
 1229              		.global	lv_switch_set_orientation
 1230              		.syntax unified
 1231              		.thumb
 1232              		.thumb_func
 1234              	lv_switch_set_orientation:
 1235              	.LVL155:
 1236              	.LFB173:
  89:../../Middlewares/LVGL/GUI/lvgl/src/widgets/switch/lv_switch.c ****     LV_ASSERT_OBJ(obj, MY_CLASS);
 1237              		.loc 1 89 1 is_stmt 1 view -0
 1238              		.cfi_startproc
 1239              		@ args = 0, pretend = 0, frame = 0
 1240              		@ frame_needed = 0, uses_anonymous_args = 0
  90:../../Middlewares/LVGL/GUI/lvgl/src/widgets/switch/lv_switch.c ****     lv_switch_t * sw = (lv_switch_t *)obj;
 1241              		.loc 1 90 5 view .LVU367
ARM GAS  C:\Users\28576\AppData\Local\Temp\cceCo13F.s 			page 48


  90:../../Middlewares/LVGL/GUI/lvgl/src/widgets/switch/lv_switch.c ****     lv_switch_t * sw = (lv_switch_t *)obj;
 1242              		.loc 1 90 5 view .LVU368
 1243 0000 48B1     		cbz	r0, .L60
  89:../../Middlewares/LVGL/GUI/lvgl/src/widgets/switch/lv_switch.c ****     LV_ASSERT_OBJ(obj, MY_CLASS);
 1244              		.loc 1 89 1 is_stmt 0 view .LVU369
 1245 0002 08B5     		push	{r3, lr}
 1246              	.LCFI18:
 1247              		.cfi_def_cfa_offset 8
 1248              		.cfi_offset 3, -8
 1249              		.cfi_offset 14, -4
  90:../../Middlewares/LVGL/GUI/lvgl/src/widgets/switch/lv_switch.c ****     lv_switch_t * sw = (lv_switch_t *)obj;
 1250              		.loc 1 90 5 is_stmt 1 view .LVU370
  90:../../Middlewares/LVGL/GUI/lvgl/src/widgets/switch/lv_switch.c ****     lv_switch_t * sw = (lv_switch_t *)obj;
 1251              		.loc 1 90 33 view .LVU371
  91:../../Middlewares/LVGL/GUI/lvgl/src/widgets/switch/lv_switch.c **** 
 1252              		.loc 1 91 5 view .LVU372
 1253              	.LVL156:
  93:../../Middlewares/LVGL/GUI/lvgl/src/widgets/switch/lv_switch.c ****     lv_obj_invalidate(obj);
 1254              		.loc 1 93 5 view .LVU373
  93:../../Middlewares/LVGL/GUI/lvgl/src/widgets/switch/lv_switch.c ****     lv_obj_invalidate(obj);
 1255              		.loc 1 93 21 is_stmt 0 view .LVU374
 1256 0004 90F83020 		ldrb	r2, [r0, #48]	@ zero_extendqisi2
 1257 0008 61F30202 		bfi	r2, r1, #0, #3
 1258 000c 80F83020 		strb	r2, [r0, #48]
  94:../../Middlewares/LVGL/GUI/lvgl/src/widgets/switch/lv_switch.c **** }
 1259              		.loc 1 94 5 is_stmt 1 view .LVU375
 1260 0010 FFF7FEFF 		bl	lv_obj_invalidate
 1261              	.LVL157:
  95:../../Middlewares/LVGL/GUI/lvgl/src/widgets/switch/lv_switch.c **** 
 1262              		.loc 1 95 1 is_stmt 0 view .LVU376
 1263 0014 08BD     		pop	{r3, pc}
 1264              	.LVL158:
 1265              	.L60:
 1266              	.LCFI19:
 1267              		.cfi_def_cfa_offset 0
 1268              		.cfi_restore 3
 1269              		.cfi_restore 14
  90:../../Middlewares/LVGL/GUI/lvgl/src/widgets/switch/lv_switch.c ****     lv_switch_t * sw = (lv_switch_t *)obj;
 1270              		.loc 1 90 5 is_stmt 1 view .LVU377
  90:../../Middlewares/LVGL/GUI/lvgl/src/widgets/switch/lv_switch.c ****     lv_switch_t * sw = (lv_switch_t *)obj;
 1271              		.loc 1 90 5 view .LVU378
  90:../../Middlewares/LVGL/GUI/lvgl/src/widgets/switch/lv_switch.c ****     lv_switch_t * sw = (lv_switch_t *)obj;
 1272              		.loc 1 90 5 view .LVU379
  90:../../Middlewares/LVGL/GUI/lvgl/src/widgets/switch/lv_switch.c ****     lv_switch_t * sw = (lv_switch_t *)obj;
 1273              		.loc 1 90 5 view .LVU380
  90:../../Middlewares/LVGL/GUI/lvgl/src/widgets/switch/lv_switch.c ****     lv_switch_t * sw = (lv_switch_t *)obj;
 1274              		.loc 1 90 5 view .LVU381
 1275 0016 FEE7     		b	.L60
 1276              		.cfi_endproc
 1277              	.LFE173:
 1279              		.section	.text.lv_switch_get_orientation,"ax",%progbits
 1280              		.align	1
 1281              		.global	lv_switch_get_orientation
 1282              		.syntax unified
 1283              		.thumb
 1284              		.thumb_func
 1286              	lv_switch_get_orientation:
ARM GAS  C:\Users\28576\AppData\Local\Temp\cceCo13F.s 			page 49


 1287              	.LVL159:
 1288              	.LFB174:
 102:../../Middlewares/LVGL/GUI/lvgl/src/widgets/switch/lv_switch.c ****     LV_ASSERT_OBJ(obj, MY_CLASS);
 1289              		.loc 1 102 1 view -0
 1290              		.cfi_startproc
 1291              		@ args = 0, pretend = 0, frame = 0
 1292              		@ frame_needed = 0, uses_anonymous_args = 0
 1293              		@ link register save eliminated.
 103:../../Middlewares/LVGL/GUI/lvgl/src/widgets/switch/lv_switch.c ****     lv_switch_t * sw = (lv_switch_t *)obj;
 1294              		.loc 1 103 5 view .LVU383
 103:../../Middlewares/LVGL/GUI/lvgl/src/widgets/switch/lv_switch.c ****     lv_switch_t * sw = (lv_switch_t *)obj;
 1295              		.loc 1 103 5 view .LVU384
 1296 0000 20B1     		cbz	r0, .L65
 103:../../Middlewares/LVGL/GUI/lvgl/src/widgets/switch/lv_switch.c ****     lv_switch_t * sw = (lv_switch_t *)obj;
 1297              		.loc 1 103 5 view .LVU385
 103:../../Middlewares/LVGL/GUI/lvgl/src/widgets/switch/lv_switch.c ****     lv_switch_t * sw = (lv_switch_t *)obj;
 1298              		.loc 1 103 33 view .LVU386
 104:../../Middlewares/LVGL/GUI/lvgl/src/widgets/switch/lv_switch.c **** 
 1299              		.loc 1 104 5 view .LVU387
 1300              	.LVL160:
 106:../../Middlewares/LVGL/GUI/lvgl/src/widgets/switch/lv_switch.c **** }
 1301              		.loc 1 106 5 view .LVU388
 106:../../Middlewares/LVGL/GUI/lvgl/src/widgets/switch/lv_switch.c **** }
 1302              		.loc 1 106 14 is_stmt 0 view .LVU389
 1303 0002 90F83000 		ldrb	r0, [r0, #48]	@ zero_extendqisi2
 1304              	.LVL161:
 107:../../Middlewares/LVGL/GUI/lvgl/src/widgets/switch/lv_switch.c **** 
 1305              		.loc 1 107 1 view .LVU390
 1306 0006 00F00700 		and	r0, r0, #7
 1307 000a 7047     		bx	lr
 1308              	.LVL162:
 1309              	.L65:
 103:../../Middlewares/LVGL/GUI/lvgl/src/widgets/switch/lv_switch.c ****     lv_switch_t * sw = (lv_switch_t *)obj;
 1310              		.loc 1 103 5 is_stmt 1 view .LVU391
 103:../../Middlewares/LVGL/GUI/lvgl/src/widgets/switch/lv_switch.c ****     lv_switch_t * sw = (lv_switch_t *)obj;
 1311              		.loc 1 103 5 view .LVU392
 103:../../Middlewares/LVGL/GUI/lvgl/src/widgets/switch/lv_switch.c ****     lv_switch_t * sw = (lv_switch_t *)obj;
 1312              		.loc 1 103 5 view .LVU393
 103:../../Middlewares/LVGL/GUI/lvgl/src/widgets/switch/lv_switch.c ****     lv_switch_t * sw = (lv_switch_t *)obj;
 1313              		.loc 1 103 5 view .LVU394
 103:../../Middlewares/LVGL/GUI/lvgl/src/widgets/switch/lv_switch.c ****     lv_switch_t * sw = (lv_switch_t *)obj;
 1314              		.loc 1 103 5 view .LVU395
 1315 000c FEE7     		b	.L65
 1316              		.cfi_endproc
 1317              	.LFE174:
 1319              		.global	lv_switch_class
 1320              		.section	.rodata.str1.4,"aMS",%progbits,1
 1321              		.align	2
 1322              	.LC0:
 1323 0000 6C765F73 		.ascii	"lv_switch\000"
 1323      77697463 
 1323      6800
 1324              		.section	.rodata.lv_switch_class,"a"
 1325              		.align	2
 1328              	lv_switch_class:
 1329 0000 00000000 		.word	lv_obj_class
 1330 0004 00000000 		.word	lv_switch_constructor
ARM GAS  C:\Users\28576\AppData\Local\Temp\cceCo13F.s 			page 50


 1331 0008 00000000 		.word	lv_switch_destructor
 1332 000c 00000000 		.word	lv_switch_event
 1333 0010 00000000 		.space	4
 1334 0014 00000000 		.word	.LC0
 1335 0018 34000000 		.word	52
 1336 001c 1E000000 		.word	30
 1337 0020 44       		.byte	68
 1338 0021 03       		.byte	3
 1339 0022 00       		.byte	0
 1340 0023 00       		.space	1
 1341              		.text
 1342              	.Letext0:
 1343              		.file 4 "C:/Users/28576/AppData/Roaming/xPacks/@xpack-dev-tools/arm-none-eabi-gcc/15.2.1-1.1.1/.co
 1344              		.file 5 "C:/Users/28576/AppData/Roaming/xPacks/@xpack-dev-tools/arm-none-eabi-gcc/15.2.1-1.1.1/.co
 1345              		.file 6 "C:/Users/28576/AppData/Roaming/xPacks/@xpack-dev-tools/arm-none-eabi-gcc/15.2.1-1.1.1/.co
 1346              		.file 7 "H:/STM32H7/RGB_LVGL/Middlewares/LVGL/GUI/lvgl/src/misc/lv_types.h"
 1347              		.file 8 "H:/STM32H7/RGB_LVGL/Middlewares/LVGL/GUI/lvgl/src/core/lv_obj_private.h"
 1348              		.file 9 "H:/STM32H7/RGB_LVGL/Middlewares/LVGL/GUI/lvgl/src/core/lv_obj_class_private.h"
 1349              		.file 10 "H:/STM32H7/RGB_LVGL/Middlewares/LVGL/GUI/lvgl/src/draw/lv_draw.h"
 1350              		.file 11 "H:/STM32H7/RGB_LVGL/Middlewares/LVGL/GUI/lvgl/src/misc/lv_anim.h"
 1351              		.file 12 "../../Middlewares/LVGL/GUI/lvgl/src/widgets/switch/lv_switch_private.h"
 1352              		.file 13 "H:/STM32H7/RGB_LVGL/Middlewares/LVGL/GUI/lvgl/src/misc/lv_array.h"
 1353              		.file 14 "H:/STM32H7/RGB_LVGL/Middlewares/LVGL/GUI/lvgl/src/draw/lv_draw_buf.h"
 1354              		.file 15 "H:/STM32H7/RGB_LVGL/Middlewares/LVGL/GUI/lvgl/src/misc/lv_color.h"
 1355              		.file 16 "H:/STM32H7/RGB_LVGL/Middlewares/LVGL/GUI/lvgl/src/draw/lv_image_dsc.h"
 1356              		.file 17 "H:/STM32H7/RGB_LVGL/Middlewares/LVGL/GUI/lvgl/src/misc/lv_bidi.h"
 1357              		.file 18 "H:/STM32H7/RGB_LVGL/Middlewares/LVGL/GUI/lvgl/src/misc/lv_grad.h"
 1358              		.file 19 "H:/STM32H7/RGB_LVGL/Middlewares/LVGL/GUI/lvgl/src/misc/lv_style.h"
 1359              		.file 20 "H:/STM32H7/RGB_LVGL/Middlewares/LVGL/GUI/lvgl/src/misc/lv_event.h"
 1360              		.file 21 "H:/STM32H7/RGB_LVGL/Middlewares/LVGL/GUI/lvgl/src/draw/lv_draw_rect.h"
 1361              		.file 22 "H:/STM32H7/RGB_LVGL/Middlewares/LVGL/GUI/lvgl/src/core/lv_obj_class.h"
 1362              		.file 23 "H:/STM32H7/RGB_LVGL/Middlewares/LVGL/GUI/lvgl/src/indev/lv_indev.h"
 1363              		.file 24 "H:/STM32H7/RGB_LVGL/Middlewares/LVGL/GUI/lvgl/src/core/lv_obj.h"
 1364              		.file 25 "../../Middlewares/LVGL/GUI/lvgl/src/widgets/switch/lv_switch.h"
 1365              		.file 26 "H:/STM32H7/RGB_LVGL/Middlewares/LVGL/GUI/lvgl/src/core/lv_obj_pos.h"
 1366              		.file 27 "H:/STM32H7/RGB_LVGL/Middlewares/LVGL/GUI/lvgl/src/core/lv_obj_draw.h"
 1367              		.file 28 "H:/STM32H7/RGB_LVGL/Middlewares/LVGL/GUI/lvgl/src/core/lv_obj_event.h"
 1368              		.file 29 "H:/STM32H7/RGB_LVGL/Middlewares/LVGL/GUI/lvgl/src/core/lv_obj_style.h"
ARM GAS  C:\Users\28576\AppData\Local\Temp\cceCo13F.s 			page 51

