ARM GAS  C:\Users\28576\AppData\Local\Temp\ccvXaXdL.s 			page 1


   1              		.cpu cortex-m7
   2              		.arch armv7e-m
   3              		.fpu fpv5-d16
   4              		.eabi_attribute 28, 1
   5              		.eabi_attribute 20, 1
   6              		.eabi_attribute 21, 1
   7              		.eabi_attribute 23, 3
   8              		.eabi_attribute 24, 1
   9              		.eabi_attribute 25, 1
  10              		.eabi_attribute 26, 1
  11              		.eabi_attribute 30, 1
  12              		.eabi_attribute 34, 1
  13              		.eabi_attribute 18, 4
  14              		.file	"lv_theme_simple.c"
  15              		.text
  16              	.Ltext0:
  17              		.cfi_sections	.debug_frame
  18              		.file 1 "../../Middlewares/LVGL/GUI/lvgl/src/themes/simple/lv_theme_simple.c"
  19              		.section	.text.theme_apply,"ax",%progbits
  20              		.align	1
  21              		.syntax unified
  22              		.thumb
  23              		.thumb_func
  25              	theme_apply:
  26              	.LVL0:
  27              	.LFB201:
   1:../../Middlewares/LVGL/GUI/lvgl/src/themes/simple/lv_theme_simple.c **** /**
   2:../../Middlewares/LVGL/GUI/lvgl/src/themes/simple/lv_theme_simple.c ****  * @file lv_theme_simple.c
   3:../../Middlewares/LVGL/GUI/lvgl/src/themes/simple/lv_theme_simple.c ****  *
   4:../../Middlewares/LVGL/GUI/lvgl/src/themes/simple/lv_theme_simple.c ****  */
   5:../../Middlewares/LVGL/GUI/lvgl/src/themes/simple/lv_theme_simple.c **** 
   6:../../Middlewares/LVGL/GUI/lvgl/src/themes/simple/lv_theme_simple.c **** /*********************
   7:../../Middlewares/LVGL/GUI/lvgl/src/themes/simple/lv_theme_simple.c ****  *      INCLUDES
   8:../../Middlewares/LVGL/GUI/lvgl/src/themes/simple/lv_theme_simple.c ****  *********************/
   9:../../Middlewares/LVGL/GUI/lvgl/src/themes/simple/lv_theme_simple.c **** #include "../lv_theme_private.h"
  10:../../Middlewares/LVGL/GUI/lvgl/src/themes/simple/lv_theme_simple.c **** #include "../../../lvgl.h" /*To see all the widgets*/
  11:../../Middlewares/LVGL/GUI/lvgl/src/themes/simple/lv_theme_simple.c **** 
  12:../../Middlewares/LVGL/GUI/lvgl/src/themes/simple/lv_theme_simple.c **** #if LV_USE_THEME_SIMPLE
  13:../../Middlewares/LVGL/GUI/lvgl/src/themes/simple/lv_theme_simple.c **** 
  14:../../Middlewares/LVGL/GUI/lvgl/src/themes/simple/lv_theme_simple.c **** #include "lv_theme_simple.h"
  15:../../Middlewares/LVGL/GUI/lvgl/src/themes/simple/lv_theme_simple.c **** #include "../../core/lv_global.h"
  16:../../Middlewares/LVGL/GUI/lvgl/src/themes/simple/lv_theme_simple.c **** 
  17:../../Middlewares/LVGL/GUI/lvgl/src/themes/simple/lv_theme_simple.c **** /*********************
  18:../../Middlewares/LVGL/GUI/lvgl/src/themes/simple/lv_theme_simple.c ****  *      DEFINES
  19:../../Middlewares/LVGL/GUI/lvgl/src/themes/simple/lv_theme_simple.c ****  *********************/
  20:../../Middlewares/LVGL/GUI/lvgl/src/themes/simple/lv_theme_simple.c **** 
  21:../../Middlewares/LVGL/GUI/lvgl/src/themes/simple/lv_theme_simple.c **** struct _my_theme_t;
  22:../../Middlewares/LVGL/GUI/lvgl/src/themes/simple/lv_theme_simple.c **** typedef struct _my_theme_t my_theme_t;
  23:../../Middlewares/LVGL/GUI/lvgl/src/themes/simple/lv_theme_simple.c **** 
  24:../../Middlewares/LVGL/GUI/lvgl/src/themes/simple/lv_theme_simple.c **** #define theme_def (*(my_theme_t **)(&LV_GLOBAL_DEFAULT()->theme_simple))
  25:../../Middlewares/LVGL/GUI/lvgl/src/themes/simple/lv_theme_simple.c **** 
  26:../../Middlewares/LVGL/GUI/lvgl/src/themes/simple/lv_theme_simple.c **** #define COLOR_SCR     lv_palette_lighten(LV_PALETTE_GREY, 4)
  27:../../Middlewares/LVGL/GUI/lvgl/src/themes/simple/lv_theme_simple.c **** #define COLOR_WHITE   lv_color_white()
  28:../../Middlewares/LVGL/GUI/lvgl/src/themes/simple/lv_theme_simple.c **** #define COLOR_LIGHT   lv_palette_lighten(LV_PALETTE_GREY, 2)
  29:../../Middlewares/LVGL/GUI/lvgl/src/themes/simple/lv_theme_simple.c **** #define COLOR_DARK    lv_palette_main(LV_PALETTE_GREY)
  30:../../Middlewares/LVGL/GUI/lvgl/src/themes/simple/lv_theme_simple.c **** #define COLOR_DIM     lv_palette_darken(LV_PALETTE_GREY, 2)
  31:../../Middlewares/LVGL/GUI/lvgl/src/themes/simple/lv_theme_simple.c **** #define SCROLLBAR_WIDTH     2
ARM GAS  C:\Users\28576\AppData\Local\Temp\ccvXaXdL.s 			page 2


  32:../../Middlewares/LVGL/GUI/lvgl/src/themes/simple/lv_theme_simple.c **** 
  33:../../Middlewares/LVGL/GUI/lvgl/src/themes/simple/lv_theme_simple.c **** /**********************
  34:../../Middlewares/LVGL/GUI/lvgl/src/themes/simple/lv_theme_simple.c ****  *      TYPEDEFS
  35:../../Middlewares/LVGL/GUI/lvgl/src/themes/simple/lv_theme_simple.c ****  **********************/
  36:../../Middlewares/LVGL/GUI/lvgl/src/themes/simple/lv_theme_simple.c **** typedef struct {
  37:../../Middlewares/LVGL/GUI/lvgl/src/themes/simple/lv_theme_simple.c ****     lv_style_t scr;
  38:../../Middlewares/LVGL/GUI/lvgl/src/themes/simple/lv_theme_simple.c ****     lv_style_t transp;
  39:../../Middlewares/LVGL/GUI/lvgl/src/themes/simple/lv_theme_simple.c ****     lv_style_t white;
  40:../../Middlewares/LVGL/GUI/lvgl/src/themes/simple/lv_theme_simple.c ****     lv_style_t light;
  41:../../Middlewares/LVGL/GUI/lvgl/src/themes/simple/lv_theme_simple.c ****     lv_style_t dark;
  42:../../Middlewares/LVGL/GUI/lvgl/src/themes/simple/lv_theme_simple.c ****     lv_style_t dim;
  43:../../Middlewares/LVGL/GUI/lvgl/src/themes/simple/lv_theme_simple.c ****     lv_style_t scrollbar;
  44:../../Middlewares/LVGL/GUI/lvgl/src/themes/simple/lv_theme_simple.c **** #if LV_USE_ARC
  45:../../Middlewares/LVGL/GUI/lvgl/src/themes/simple/lv_theme_simple.c ****     lv_style_t arc_line;
  46:../../Middlewares/LVGL/GUI/lvgl/src/themes/simple/lv_theme_simple.c ****     lv_style_t arc_knob;
  47:../../Middlewares/LVGL/GUI/lvgl/src/themes/simple/lv_theme_simple.c **** #endif
  48:../../Middlewares/LVGL/GUI/lvgl/src/themes/simple/lv_theme_simple.c **** #if LV_USE_TEXTAREA
  49:../../Middlewares/LVGL/GUI/lvgl/src/themes/simple/lv_theme_simple.c ****     lv_style_t ta_cursor;
  50:../../Middlewares/LVGL/GUI/lvgl/src/themes/simple/lv_theme_simple.c **** #endif
  51:../../Middlewares/LVGL/GUI/lvgl/src/themes/simple/lv_theme_simple.c **** } my_theme_styles_t;
  52:../../Middlewares/LVGL/GUI/lvgl/src/themes/simple/lv_theme_simple.c **** 
  53:../../Middlewares/LVGL/GUI/lvgl/src/themes/simple/lv_theme_simple.c **** struct _my_theme_t {
  54:../../Middlewares/LVGL/GUI/lvgl/src/themes/simple/lv_theme_simple.c ****     lv_theme_t base;
  55:../../Middlewares/LVGL/GUI/lvgl/src/themes/simple/lv_theme_simple.c ****     my_theme_styles_t styles;
  56:../../Middlewares/LVGL/GUI/lvgl/src/themes/simple/lv_theme_simple.c ****     bool inited;
  57:../../Middlewares/LVGL/GUI/lvgl/src/themes/simple/lv_theme_simple.c **** };
  58:../../Middlewares/LVGL/GUI/lvgl/src/themes/simple/lv_theme_simple.c **** 
  59:../../Middlewares/LVGL/GUI/lvgl/src/themes/simple/lv_theme_simple.c **** /**********************
  60:../../Middlewares/LVGL/GUI/lvgl/src/themes/simple/lv_theme_simple.c ****  *  STATIC PROTOTYPES
  61:../../Middlewares/LVGL/GUI/lvgl/src/themes/simple/lv_theme_simple.c ****  **********************/
  62:../../Middlewares/LVGL/GUI/lvgl/src/themes/simple/lv_theme_simple.c **** static void style_init_reset(lv_style_t * style);
  63:../../Middlewares/LVGL/GUI/lvgl/src/themes/simple/lv_theme_simple.c **** static void theme_apply(lv_theme_t * th, lv_obj_t * obj);
  64:../../Middlewares/LVGL/GUI/lvgl/src/themes/simple/lv_theme_simple.c **** 
  65:../../Middlewares/LVGL/GUI/lvgl/src/themes/simple/lv_theme_simple.c **** /**********************
  66:../../Middlewares/LVGL/GUI/lvgl/src/themes/simple/lv_theme_simple.c ****  *  STATIC VARIABLES
  67:../../Middlewares/LVGL/GUI/lvgl/src/themes/simple/lv_theme_simple.c ****  **********************/
  68:../../Middlewares/LVGL/GUI/lvgl/src/themes/simple/lv_theme_simple.c **** 
  69:../../Middlewares/LVGL/GUI/lvgl/src/themes/simple/lv_theme_simple.c **** /**********************
  70:../../Middlewares/LVGL/GUI/lvgl/src/themes/simple/lv_theme_simple.c ****  *      MACROS
  71:../../Middlewares/LVGL/GUI/lvgl/src/themes/simple/lv_theme_simple.c ****  **********************/
  72:../../Middlewares/LVGL/GUI/lvgl/src/themes/simple/lv_theme_simple.c **** 
  73:../../Middlewares/LVGL/GUI/lvgl/src/themes/simple/lv_theme_simple.c **** /**********************
  74:../../Middlewares/LVGL/GUI/lvgl/src/themes/simple/lv_theme_simple.c ****  *   STATIC FUNCTIONS
  75:../../Middlewares/LVGL/GUI/lvgl/src/themes/simple/lv_theme_simple.c ****  **********************/
  76:../../Middlewares/LVGL/GUI/lvgl/src/themes/simple/lv_theme_simple.c **** 
  77:../../Middlewares/LVGL/GUI/lvgl/src/themes/simple/lv_theme_simple.c **** static void style_init(my_theme_t * theme)
  78:../../Middlewares/LVGL/GUI/lvgl/src/themes/simple/lv_theme_simple.c **** {
  79:../../Middlewares/LVGL/GUI/lvgl/src/themes/simple/lv_theme_simple.c ****     style_init_reset(&theme->styles.scrollbar);
  80:../../Middlewares/LVGL/GUI/lvgl/src/themes/simple/lv_theme_simple.c ****     lv_style_set_bg_opa(&theme->styles.scrollbar, LV_OPA_COVER);
  81:../../Middlewares/LVGL/GUI/lvgl/src/themes/simple/lv_theme_simple.c ****     lv_style_set_bg_color(&theme->styles.scrollbar, COLOR_DARK);
  82:../../Middlewares/LVGL/GUI/lvgl/src/themes/simple/lv_theme_simple.c ****     lv_style_set_width(&theme->styles.scrollbar,  SCROLLBAR_WIDTH);
  83:../../Middlewares/LVGL/GUI/lvgl/src/themes/simple/lv_theme_simple.c **** 
  84:../../Middlewares/LVGL/GUI/lvgl/src/themes/simple/lv_theme_simple.c ****     style_init_reset(&theme->styles.scr);
  85:../../Middlewares/LVGL/GUI/lvgl/src/themes/simple/lv_theme_simple.c ****     lv_style_set_bg_opa(&theme->styles.scr, LV_OPA_COVER);
  86:../../Middlewares/LVGL/GUI/lvgl/src/themes/simple/lv_theme_simple.c ****     lv_style_set_bg_color(&theme->styles.scr, COLOR_SCR);
  87:../../Middlewares/LVGL/GUI/lvgl/src/themes/simple/lv_theme_simple.c ****     lv_style_set_text_color(&theme->styles.scr, COLOR_DIM);
  88:../../Middlewares/LVGL/GUI/lvgl/src/themes/simple/lv_theme_simple.c **** 
ARM GAS  C:\Users\28576\AppData\Local\Temp\ccvXaXdL.s 			page 3


  89:../../Middlewares/LVGL/GUI/lvgl/src/themes/simple/lv_theme_simple.c ****     style_init_reset(&theme->styles.transp);
  90:../../Middlewares/LVGL/GUI/lvgl/src/themes/simple/lv_theme_simple.c ****     lv_style_set_bg_opa(&theme->styles.transp, LV_OPA_TRANSP);
  91:../../Middlewares/LVGL/GUI/lvgl/src/themes/simple/lv_theme_simple.c **** 
  92:../../Middlewares/LVGL/GUI/lvgl/src/themes/simple/lv_theme_simple.c ****     style_init_reset(&theme->styles.white);
  93:../../Middlewares/LVGL/GUI/lvgl/src/themes/simple/lv_theme_simple.c ****     lv_style_set_bg_opa(&theme->styles.white, LV_OPA_COVER);
  94:../../Middlewares/LVGL/GUI/lvgl/src/themes/simple/lv_theme_simple.c ****     lv_style_set_bg_color(&theme->styles.white, COLOR_WHITE);
  95:../../Middlewares/LVGL/GUI/lvgl/src/themes/simple/lv_theme_simple.c ****     lv_style_set_line_width(&theme->styles.white, 1);
  96:../../Middlewares/LVGL/GUI/lvgl/src/themes/simple/lv_theme_simple.c ****     lv_style_set_line_color(&theme->styles.white, COLOR_WHITE);
  97:../../Middlewares/LVGL/GUI/lvgl/src/themes/simple/lv_theme_simple.c ****     lv_style_set_arc_width(&theme->styles.white, 2);
  98:../../Middlewares/LVGL/GUI/lvgl/src/themes/simple/lv_theme_simple.c ****     lv_style_set_arc_color(&theme->styles.white, COLOR_WHITE);
  99:../../Middlewares/LVGL/GUI/lvgl/src/themes/simple/lv_theme_simple.c **** 
 100:../../Middlewares/LVGL/GUI/lvgl/src/themes/simple/lv_theme_simple.c ****     style_init_reset(&theme->styles.light);
 101:../../Middlewares/LVGL/GUI/lvgl/src/themes/simple/lv_theme_simple.c ****     lv_style_set_bg_opa(&theme->styles.light, LV_OPA_COVER);
 102:../../Middlewares/LVGL/GUI/lvgl/src/themes/simple/lv_theme_simple.c ****     lv_style_set_bg_color(&theme->styles.light, COLOR_LIGHT);
 103:../../Middlewares/LVGL/GUI/lvgl/src/themes/simple/lv_theme_simple.c ****     lv_style_set_line_width(&theme->styles.light, 1);
 104:../../Middlewares/LVGL/GUI/lvgl/src/themes/simple/lv_theme_simple.c ****     lv_style_set_line_color(&theme->styles.light, COLOR_LIGHT);
 105:../../Middlewares/LVGL/GUI/lvgl/src/themes/simple/lv_theme_simple.c ****     lv_style_set_arc_width(&theme->styles.light, 2);
 106:../../Middlewares/LVGL/GUI/lvgl/src/themes/simple/lv_theme_simple.c ****     lv_style_set_arc_color(&theme->styles.light, COLOR_LIGHT);
 107:../../Middlewares/LVGL/GUI/lvgl/src/themes/simple/lv_theme_simple.c **** 
 108:../../Middlewares/LVGL/GUI/lvgl/src/themes/simple/lv_theme_simple.c ****     style_init_reset(&theme->styles.dark);
 109:../../Middlewares/LVGL/GUI/lvgl/src/themes/simple/lv_theme_simple.c ****     lv_style_set_bg_opa(&theme->styles.dark, LV_OPA_COVER);
 110:../../Middlewares/LVGL/GUI/lvgl/src/themes/simple/lv_theme_simple.c ****     lv_style_set_bg_color(&theme->styles.dark, COLOR_DARK);
 111:../../Middlewares/LVGL/GUI/lvgl/src/themes/simple/lv_theme_simple.c ****     lv_style_set_line_width(&theme->styles.dark, 1);
 112:../../Middlewares/LVGL/GUI/lvgl/src/themes/simple/lv_theme_simple.c ****     lv_style_set_line_color(&theme->styles.dark, COLOR_DARK);
 113:../../Middlewares/LVGL/GUI/lvgl/src/themes/simple/lv_theme_simple.c ****     lv_style_set_arc_width(&theme->styles.dark, 2);
 114:../../Middlewares/LVGL/GUI/lvgl/src/themes/simple/lv_theme_simple.c ****     lv_style_set_arc_color(&theme->styles.dark, COLOR_DARK);
 115:../../Middlewares/LVGL/GUI/lvgl/src/themes/simple/lv_theme_simple.c **** 
 116:../../Middlewares/LVGL/GUI/lvgl/src/themes/simple/lv_theme_simple.c ****     style_init_reset(&theme->styles.dim);
 117:../../Middlewares/LVGL/GUI/lvgl/src/themes/simple/lv_theme_simple.c ****     lv_style_set_bg_opa(&theme->styles.dim, LV_OPA_COVER);
 118:../../Middlewares/LVGL/GUI/lvgl/src/themes/simple/lv_theme_simple.c ****     lv_style_set_bg_color(&theme->styles.dim, COLOR_DIM);
 119:../../Middlewares/LVGL/GUI/lvgl/src/themes/simple/lv_theme_simple.c ****     lv_style_set_line_width(&theme->styles.dim, 1);
 120:../../Middlewares/LVGL/GUI/lvgl/src/themes/simple/lv_theme_simple.c ****     lv_style_set_line_color(&theme->styles.dim, COLOR_DIM);
 121:../../Middlewares/LVGL/GUI/lvgl/src/themes/simple/lv_theme_simple.c ****     lv_style_set_arc_width(&theme->styles.dim, 2);
 122:../../Middlewares/LVGL/GUI/lvgl/src/themes/simple/lv_theme_simple.c ****     lv_style_set_arc_color(&theme->styles.dim, COLOR_DIM);
 123:../../Middlewares/LVGL/GUI/lvgl/src/themes/simple/lv_theme_simple.c **** 
 124:../../Middlewares/LVGL/GUI/lvgl/src/themes/simple/lv_theme_simple.c **** #if LV_USE_ARC
 125:../../Middlewares/LVGL/GUI/lvgl/src/themes/simple/lv_theme_simple.c ****     style_init_reset(&theme->styles.arc_line);
 126:../../Middlewares/LVGL/GUI/lvgl/src/themes/simple/lv_theme_simple.c ****     lv_style_set_arc_width(&theme->styles.arc_line, 6);
 127:../../Middlewares/LVGL/GUI/lvgl/src/themes/simple/lv_theme_simple.c ****     style_init_reset(&theme->styles.arc_knob);
 128:../../Middlewares/LVGL/GUI/lvgl/src/themes/simple/lv_theme_simple.c ****     lv_style_set_pad_all(&theme->styles.arc_knob, 5);
 129:../../Middlewares/LVGL/GUI/lvgl/src/themes/simple/lv_theme_simple.c **** #endif
 130:../../Middlewares/LVGL/GUI/lvgl/src/themes/simple/lv_theme_simple.c **** 
 131:../../Middlewares/LVGL/GUI/lvgl/src/themes/simple/lv_theme_simple.c **** #if LV_USE_TEXTAREA
 132:../../Middlewares/LVGL/GUI/lvgl/src/themes/simple/lv_theme_simple.c ****     style_init_reset(&theme->styles.ta_cursor);
 133:../../Middlewares/LVGL/GUI/lvgl/src/themes/simple/lv_theme_simple.c ****     lv_style_set_border_side(&theme->styles.ta_cursor, LV_BORDER_SIDE_LEFT);
 134:../../Middlewares/LVGL/GUI/lvgl/src/themes/simple/lv_theme_simple.c ****     lv_style_set_border_color(&theme->styles.ta_cursor, COLOR_DIM);
 135:../../Middlewares/LVGL/GUI/lvgl/src/themes/simple/lv_theme_simple.c ****     lv_style_set_border_width(&theme->styles.ta_cursor, 2);
 136:../../Middlewares/LVGL/GUI/lvgl/src/themes/simple/lv_theme_simple.c ****     lv_style_set_bg_opa(&theme->styles.ta_cursor, LV_OPA_TRANSP);
 137:../../Middlewares/LVGL/GUI/lvgl/src/themes/simple/lv_theme_simple.c ****     lv_style_set_anim_duration(&theme->styles.ta_cursor, 500);
 138:../../Middlewares/LVGL/GUI/lvgl/src/themes/simple/lv_theme_simple.c **** #endif
 139:../../Middlewares/LVGL/GUI/lvgl/src/themes/simple/lv_theme_simple.c **** }
 140:../../Middlewares/LVGL/GUI/lvgl/src/themes/simple/lv_theme_simple.c **** 
 141:../../Middlewares/LVGL/GUI/lvgl/src/themes/simple/lv_theme_simple.c **** /**********************
 142:../../Middlewares/LVGL/GUI/lvgl/src/themes/simple/lv_theme_simple.c ****  *   GLOBAL FUNCTIONS
 143:../../Middlewares/LVGL/GUI/lvgl/src/themes/simple/lv_theme_simple.c ****  **********************/
 144:../../Middlewares/LVGL/GUI/lvgl/src/themes/simple/lv_theme_simple.c **** 
 145:../../Middlewares/LVGL/GUI/lvgl/src/themes/simple/lv_theme_simple.c **** bool lv_theme_simple_is_inited(void)
ARM GAS  C:\Users\28576\AppData\Local\Temp\ccvXaXdL.s 			page 4


 146:../../Middlewares/LVGL/GUI/lvgl/src/themes/simple/lv_theme_simple.c **** {
 147:../../Middlewares/LVGL/GUI/lvgl/src/themes/simple/lv_theme_simple.c ****     my_theme_t * theme = theme_def;
 148:../../Middlewares/LVGL/GUI/lvgl/src/themes/simple/lv_theme_simple.c ****     if(theme == NULL) return false;
 149:../../Middlewares/LVGL/GUI/lvgl/src/themes/simple/lv_theme_simple.c ****     return theme->inited;
 150:../../Middlewares/LVGL/GUI/lvgl/src/themes/simple/lv_theme_simple.c **** }
 151:../../Middlewares/LVGL/GUI/lvgl/src/themes/simple/lv_theme_simple.c **** 
 152:../../Middlewares/LVGL/GUI/lvgl/src/themes/simple/lv_theme_simple.c **** lv_theme_t * lv_theme_simple_get(void)
 153:../../Middlewares/LVGL/GUI/lvgl/src/themes/simple/lv_theme_simple.c **** {
 154:../../Middlewares/LVGL/GUI/lvgl/src/themes/simple/lv_theme_simple.c ****     if(!lv_theme_simple_is_inited()) {
 155:../../Middlewares/LVGL/GUI/lvgl/src/themes/simple/lv_theme_simple.c ****         return NULL;
 156:../../Middlewares/LVGL/GUI/lvgl/src/themes/simple/lv_theme_simple.c ****     }
 157:../../Middlewares/LVGL/GUI/lvgl/src/themes/simple/lv_theme_simple.c **** 
 158:../../Middlewares/LVGL/GUI/lvgl/src/themes/simple/lv_theme_simple.c ****     return (lv_theme_t *)theme_def;
 159:../../Middlewares/LVGL/GUI/lvgl/src/themes/simple/lv_theme_simple.c **** }
 160:../../Middlewares/LVGL/GUI/lvgl/src/themes/simple/lv_theme_simple.c **** 
 161:../../Middlewares/LVGL/GUI/lvgl/src/themes/simple/lv_theme_simple.c **** void lv_theme_simple_deinit(void)
 162:../../Middlewares/LVGL/GUI/lvgl/src/themes/simple/lv_theme_simple.c **** {
 163:../../Middlewares/LVGL/GUI/lvgl/src/themes/simple/lv_theme_simple.c ****     my_theme_t * theme = theme_def;
 164:../../Middlewares/LVGL/GUI/lvgl/src/themes/simple/lv_theme_simple.c ****     if(theme) {
 165:../../Middlewares/LVGL/GUI/lvgl/src/themes/simple/lv_theme_simple.c ****         if(theme->inited) {
 166:../../Middlewares/LVGL/GUI/lvgl/src/themes/simple/lv_theme_simple.c ****             lv_style_t * theme_styles = (lv_style_t *)(&(theme->styles));
 167:../../Middlewares/LVGL/GUI/lvgl/src/themes/simple/lv_theme_simple.c ****             uint32_t i;
 168:../../Middlewares/LVGL/GUI/lvgl/src/themes/simple/lv_theme_simple.c ****             for(i = 0; i < sizeof(my_theme_styles_t) / sizeof(lv_style_t); i++) {
 169:../../Middlewares/LVGL/GUI/lvgl/src/themes/simple/lv_theme_simple.c ****                 lv_style_reset(theme_styles + i);
 170:../../Middlewares/LVGL/GUI/lvgl/src/themes/simple/lv_theme_simple.c ****             }
 171:../../Middlewares/LVGL/GUI/lvgl/src/themes/simple/lv_theme_simple.c ****         }
 172:../../Middlewares/LVGL/GUI/lvgl/src/themes/simple/lv_theme_simple.c ****         lv_free(theme_def);
 173:../../Middlewares/LVGL/GUI/lvgl/src/themes/simple/lv_theme_simple.c ****         theme_def = NULL;
 174:../../Middlewares/LVGL/GUI/lvgl/src/themes/simple/lv_theme_simple.c ****     }
 175:../../Middlewares/LVGL/GUI/lvgl/src/themes/simple/lv_theme_simple.c **** }
 176:../../Middlewares/LVGL/GUI/lvgl/src/themes/simple/lv_theme_simple.c **** 
 177:../../Middlewares/LVGL/GUI/lvgl/src/themes/simple/lv_theme_simple.c **** lv_theme_t * lv_theme_simple_init(lv_display_t * disp)
 178:../../Middlewares/LVGL/GUI/lvgl/src/themes/simple/lv_theme_simple.c **** {
 179:../../Middlewares/LVGL/GUI/lvgl/src/themes/simple/lv_theme_simple.c ****     /*This trick is required only to avoid the garbage collection of
 180:../../Middlewares/LVGL/GUI/lvgl/src/themes/simple/lv_theme_simple.c ****      *styles' data if LVGL is used in a binding (e.g. MicroPython)
 181:../../Middlewares/LVGL/GUI/lvgl/src/themes/simple/lv_theme_simple.c ****      *In a general case styles could be in simple `static lv_style_t my_style...` variables*/
 182:../../Middlewares/LVGL/GUI/lvgl/src/themes/simple/lv_theme_simple.c ****     if(!lv_theme_simple_is_inited()) {
 183:../../Middlewares/LVGL/GUI/lvgl/src/themes/simple/lv_theme_simple.c ****         theme_def  = lv_malloc_zeroed(sizeof(my_theme_t));
 184:../../Middlewares/LVGL/GUI/lvgl/src/themes/simple/lv_theme_simple.c ****     }
 185:../../Middlewares/LVGL/GUI/lvgl/src/themes/simple/lv_theme_simple.c **** 
 186:../../Middlewares/LVGL/GUI/lvgl/src/themes/simple/lv_theme_simple.c ****     my_theme_t * theme = theme_def;
 187:../../Middlewares/LVGL/GUI/lvgl/src/themes/simple/lv_theme_simple.c **** 
 188:../../Middlewares/LVGL/GUI/lvgl/src/themes/simple/lv_theme_simple.c ****     theme->base.disp = disp;
 189:../../Middlewares/LVGL/GUI/lvgl/src/themes/simple/lv_theme_simple.c ****     theme->base.font_small = LV_FONT_DEFAULT;
 190:../../Middlewares/LVGL/GUI/lvgl/src/themes/simple/lv_theme_simple.c ****     theme->base.font_normal = LV_FONT_DEFAULT;
 191:../../Middlewares/LVGL/GUI/lvgl/src/themes/simple/lv_theme_simple.c ****     theme->base.font_large = LV_FONT_DEFAULT;
 192:../../Middlewares/LVGL/GUI/lvgl/src/themes/simple/lv_theme_simple.c ****     theme->base.apply_cb = theme_apply;
 193:../../Middlewares/LVGL/GUI/lvgl/src/themes/simple/lv_theme_simple.c **** 
 194:../../Middlewares/LVGL/GUI/lvgl/src/themes/simple/lv_theme_simple.c ****     style_init(theme);
 195:../../Middlewares/LVGL/GUI/lvgl/src/themes/simple/lv_theme_simple.c **** 
 196:../../Middlewares/LVGL/GUI/lvgl/src/themes/simple/lv_theme_simple.c ****     if(disp == NULL || lv_display_get_theme(disp) == (lv_theme_t *)theme) {
 197:../../Middlewares/LVGL/GUI/lvgl/src/themes/simple/lv_theme_simple.c ****         lv_obj_report_style_change(NULL);
 198:../../Middlewares/LVGL/GUI/lvgl/src/themes/simple/lv_theme_simple.c ****     }
 199:../../Middlewares/LVGL/GUI/lvgl/src/themes/simple/lv_theme_simple.c **** 
 200:../../Middlewares/LVGL/GUI/lvgl/src/themes/simple/lv_theme_simple.c ****     theme->inited = true;
 201:../../Middlewares/LVGL/GUI/lvgl/src/themes/simple/lv_theme_simple.c **** 
 202:../../Middlewares/LVGL/GUI/lvgl/src/themes/simple/lv_theme_simple.c ****     return (lv_theme_t *)theme_def;
ARM GAS  C:\Users\28576\AppData\Local\Temp\ccvXaXdL.s 			page 5


 203:../../Middlewares/LVGL/GUI/lvgl/src/themes/simple/lv_theme_simple.c **** }
 204:../../Middlewares/LVGL/GUI/lvgl/src/themes/simple/lv_theme_simple.c **** 
 205:../../Middlewares/LVGL/GUI/lvgl/src/themes/simple/lv_theme_simple.c **** static void theme_apply(lv_theme_t * th, lv_obj_t * obj)
 206:../../Middlewares/LVGL/GUI/lvgl/src/themes/simple/lv_theme_simple.c **** {
  28              		.loc 1 206 1 view -0
  29              		.cfi_startproc
  30              		@ args = 0, pretend = 0, frame = 0
  31              		@ frame_needed = 0, uses_anonymous_args = 0
  32              		.loc 1 206 1 is_stmt 0 view .LVU1
  33 0000 70B5     		push	{r4, r5, r6, lr}
  34              	.LCFI0:
  35              		.cfi_def_cfa_offset 16
  36              		.cfi_offset 4, -16
  37              		.cfi_offset 5, -12
  38              		.cfi_offset 6, -8
  39              		.cfi_offset 14, -4
  40 0002 0C46     		mov	r4, r1
 207:../../Middlewares/LVGL/GUI/lvgl/src/themes/simple/lv_theme_simple.c ****     LV_UNUSED(th);
  41              		.loc 1 207 5 is_stmt 1 view .LVU2
 208:../../Middlewares/LVGL/GUI/lvgl/src/themes/simple/lv_theme_simple.c **** 
 209:../../Middlewares/LVGL/GUI/lvgl/src/themes/simple/lv_theme_simple.c ****     my_theme_t * theme = theme_def;
  42              		.loc 1 209 5 view .LVU3
  43              		.loc 1 209 18 is_stmt 0 view .LVU4
  44 0004 BB4B     		ldr	r3, .L43
  45 0006 D3F8B851 		ldr	r5, [r3, #440]
  46              	.LVL1:
 210:../../Middlewares/LVGL/GUI/lvgl/src/themes/simple/lv_theme_simple.c ****     lv_obj_t * parent = lv_obj_get_parent(obj);
  47              		.loc 1 210 5 is_stmt 1 view .LVU5
  48              		.loc 1 210 25 is_stmt 0 view .LVU6
  49 000a 0846     		mov	r0, r1
  50              	.LVL2:
  51              		.loc 1 210 25 view .LVU7
  52 000c FFF7FEFF 		bl	lv_obj_get_parent
  53              	.LVL3:
 211:../../Middlewares/LVGL/GUI/lvgl/src/themes/simple/lv_theme_simple.c **** 
 212:../../Middlewares/LVGL/GUI/lvgl/src/themes/simple/lv_theme_simple.c ****     if(parent == NULL) {
  54              		.loc 1 212 5 is_stmt 1 view .LVU8
  55              		.loc 1 212 7 is_stmt 0 view .LVU9
  56 0010 B0B3     		cbz	r0, .L34
  57 0012 0646     		mov	r6, r0
 213:../../Middlewares/LVGL/GUI/lvgl/src/themes/simple/lv_theme_simple.c ****         lv_obj_add_style(obj, &theme->styles.scr, 0);
 214:../../Middlewares/LVGL/GUI/lvgl/src/themes/simple/lv_theme_simple.c ****         lv_obj_add_style(obj, &theme->styles.scrollbar, LV_PART_SCROLLBAR);
 215:../../Middlewares/LVGL/GUI/lvgl/src/themes/simple/lv_theme_simple.c ****         return;
 216:../../Middlewares/LVGL/GUI/lvgl/src/themes/simple/lv_theme_simple.c ****     }
 217:../../Middlewares/LVGL/GUI/lvgl/src/themes/simple/lv_theme_simple.c **** 
 218:../../Middlewares/LVGL/GUI/lvgl/src/themes/simple/lv_theme_simple.c ****     if(lv_obj_check_type(obj, &lv_obj_class)) {
  58              		.loc 1 218 5 is_stmt 1 view .LVU10
  59              		.loc 1 218 8 is_stmt 0 view .LVU11
  60 0014 B849     		ldr	r1, .L43+4
  61 0016 2046     		mov	r0, r4
  62              	.LVL4:
  63              		.loc 1 218 8 view .LVU12
  64 0018 FFF7FEFF 		bl	lv_obj_check_type
  65              	.LVL5:
  66              		.loc 1 218 7 discriminator 1 view .LVU13
  67 001c 0028     		cmp	r0, #0
  68 001e 67D0     		beq	.L4
ARM GAS  C:\Users\28576\AppData\Local\Temp\ccvXaXdL.s 			page 6


 219:../../Middlewares/LVGL/GUI/lvgl/src/themes/simple/lv_theme_simple.c **** #if LV_USE_TABVIEW
 220:../../Middlewares/LVGL/GUI/lvgl/src/themes/simple/lv_theme_simple.c ****         /*Tabview content area*/
 221:../../Middlewares/LVGL/GUI/lvgl/src/themes/simple/lv_theme_simple.c ****         if(lv_obj_check_type(parent, &lv_tabview_class)) {
  69              		.loc 1 221 9 is_stmt 1 view .LVU14
  70              		.loc 1 221 12 is_stmt 0 view .LVU15
  71 0020 B649     		ldr	r1, .L43+8
  72 0022 3046     		mov	r0, r6
  73 0024 FFF7FEFF 		bl	lv_obj_check_type
  74              	.LVL6:
  75              		.loc 1 221 11 discriminator 1 view .LVU16
  76 0028 C0BB     		cbnz	r0, .L35
 222:../../Middlewares/LVGL/GUI/lvgl/src/themes/simple/lv_theme_simple.c ****             lv_obj_add_style(obj, &theme->styles.scr, 0);
 223:../../Middlewares/LVGL/GUI/lvgl/src/themes/simple/lv_theme_simple.c ****             return;
 224:../../Middlewares/LVGL/GUI/lvgl/src/themes/simple/lv_theme_simple.c ****         }
 225:../../Middlewares/LVGL/GUI/lvgl/src/themes/simple/lv_theme_simple.c ****         /*Tabview pages*/
 226:../../Middlewares/LVGL/GUI/lvgl/src/themes/simple/lv_theme_simple.c ****         else if(lv_obj_check_type(lv_obj_get_parent(parent), &lv_tabview_class)) {
  77              		.loc 1 226 14 is_stmt 1 view .LVU17
  78              		.loc 1 226 35 is_stmt 0 view .LVU18
  79 002a 3046     		mov	r0, r6
  80 002c FFF7FEFF 		bl	lv_obj_get_parent
  81              	.LVL7:
  82              		.loc 1 226 17 discriminator 1 view .LVU19
  83 0030 B249     		ldr	r1, .L43+8
  84 0032 FFF7FEFF 		bl	lv_obj_check_type
  85              	.LVL8:
  86              		.loc 1 226 16 discriminator 2 view .LVU20
  87 0036 C0BB     		cbnz	r0, .L36
 227:../../Middlewares/LVGL/GUI/lvgl/src/themes/simple/lv_theme_simple.c ****             lv_obj_add_style(obj, &theme->styles.scr, 0);
 228:../../Middlewares/LVGL/GUI/lvgl/src/themes/simple/lv_theme_simple.c ****             lv_obj_add_style(obj, &theme->styles.scrollbar, LV_PART_SCROLLBAR);
 229:../../Middlewares/LVGL/GUI/lvgl/src/themes/simple/lv_theme_simple.c ****             return;
 230:../../Middlewares/LVGL/GUI/lvgl/src/themes/simple/lv_theme_simple.c ****         }
 231:../../Middlewares/LVGL/GUI/lvgl/src/themes/simple/lv_theme_simple.c **** #endif
 232:../../Middlewares/LVGL/GUI/lvgl/src/themes/simple/lv_theme_simple.c **** 
 233:../../Middlewares/LVGL/GUI/lvgl/src/themes/simple/lv_theme_simple.c **** #if LV_USE_WIN
 234:../../Middlewares/LVGL/GUI/lvgl/src/themes/simple/lv_theme_simple.c ****         /*Header*/
 235:../../Middlewares/LVGL/GUI/lvgl/src/themes/simple/lv_theme_simple.c ****         if(lv_obj_check_type(parent, &lv_win_class) && lv_obj_get_child(parent, 0) == obj) {
  88              		.loc 1 235 9 is_stmt 1 view .LVU21
  89              		.loc 1 235 12 is_stmt 0 view .LVU22
  90 0038 B149     		ldr	r1, .L43+12
  91 003a 3046     		mov	r0, r6
  92 003c FFF7FEFF 		bl	lv_obj_check_type
  93              	.LVL9:
  94              		.loc 1 235 11 discriminator 1 view .LVU23
  95 0040 28B1     		cbz	r0, .L7
  96              		.loc 1 235 56 discriminator 2 view .LVU24
  97 0042 0021     		movs	r1, #0
  98 0044 3046     		mov	r0, r6
  99 0046 FFF7FEFF 		bl	lv_obj_get_child
 100              	.LVL10:
 101              		.loc 1 235 53 discriminator 3 view .LVU25
 102 004a A042     		cmp	r0, r4
 103 004c 3BD0     		beq	.L37
 104              	.L7:
 236:../../Middlewares/LVGL/GUI/lvgl/src/themes/simple/lv_theme_simple.c ****             lv_obj_add_style(obj, &theme->styles.light, 0);
 237:../../Middlewares/LVGL/GUI/lvgl/src/themes/simple/lv_theme_simple.c ****             return;
 238:../../Middlewares/LVGL/GUI/lvgl/src/themes/simple/lv_theme_simple.c ****         }
 239:../../Middlewares/LVGL/GUI/lvgl/src/themes/simple/lv_theme_simple.c ****         /*Content*/
ARM GAS  C:\Users\28576\AppData\Local\Temp\ccvXaXdL.s 			page 7


 240:../../Middlewares/LVGL/GUI/lvgl/src/themes/simple/lv_theme_simple.c ****         else if(lv_obj_check_type(parent, &lv_win_class) && lv_obj_get_child(parent, 1) == obj) {
 105              		.loc 1 240 14 is_stmt 1 view .LVU26
 106              		.loc 1 240 17 is_stmt 0 view .LVU27
 107 004e AC49     		ldr	r1, .L43+12
 108 0050 3046     		mov	r0, r6
 109 0052 FFF7FEFF 		bl	lv_obj_check_type
 110              	.LVL11:
 111              		.loc 1 240 16 discriminator 1 view .LVU28
 112 0056 28B1     		cbz	r0, .L8
 113              		.loc 1 240 61 discriminator 2 view .LVU29
 114 0058 0121     		movs	r1, #1
 115 005a 3046     		mov	r0, r6
 116 005c FFF7FEFF 		bl	lv_obj_get_child
 117              	.LVL12:
 118              		.loc 1 240 58 discriminator 3 view .LVU30
 119 0060 A042     		cmp	r0, r4
 120 0062 37D0     		beq	.L38
 121              	.L8:
 241:../../Middlewares/LVGL/GUI/lvgl/src/themes/simple/lv_theme_simple.c ****             lv_obj_add_style(obj, &theme->styles.light, 0);
 242:../../Middlewares/LVGL/GUI/lvgl/src/themes/simple/lv_theme_simple.c ****             lv_obj_add_style(obj, &theme->styles.scrollbar, LV_PART_SCROLLBAR);
 243:../../Middlewares/LVGL/GUI/lvgl/src/themes/simple/lv_theme_simple.c ****             return;
 244:../../Middlewares/LVGL/GUI/lvgl/src/themes/simple/lv_theme_simple.c ****         }
 245:../../Middlewares/LVGL/GUI/lvgl/src/themes/simple/lv_theme_simple.c **** #endif
 246:../../Middlewares/LVGL/GUI/lvgl/src/themes/simple/lv_theme_simple.c ****         lv_obj_add_style(obj, &theme->styles.white, 0);
 122              		.loc 1 246 9 is_stmt 1 view .LVU31
 123 0064 0022     		movs	r2, #0
 124 0066 05F14001 		add	r1, r5, #64
 125 006a 2046     		mov	r0, r4
 126 006c FFF7FEFF 		bl	lv_obj_add_style
 127              	.LVL13:
 247:../../Middlewares/LVGL/GUI/lvgl/src/themes/simple/lv_theme_simple.c ****         lv_obj_add_style(obj, &theme->styles.scrollbar, LV_PART_SCROLLBAR);
 128              		.loc 1 247 9 view .LVU32
 129 0070 4FF48032 		mov	r2, #65536
 130 0074 05F17001 		add	r1, r5, #112
 131 0078 2046     		mov	r0, r4
 132 007a FFF7FEFF 		bl	lv_obj_add_style
 133              	.LVL14:
 134 007e 42E0     		b	.L1
 135              	.LVL15:
 136              	.L34:
 213:../../Middlewares/LVGL/GUI/lvgl/src/themes/simple/lv_theme_simple.c ****         lv_obj_add_style(obj, &theme->styles.scrollbar, LV_PART_SCROLLBAR);
 137              		.loc 1 213 9 view .LVU33
 138 0080 0246     		mov	r2, r0
 139 0082 05F12801 		add	r1, r5, #40
 140 0086 2046     		mov	r0, r4
 141              	.LVL16:
 213:../../Middlewares/LVGL/GUI/lvgl/src/themes/simple/lv_theme_simple.c ****         lv_obj_add_style(obj, &theme->styles.scrollbar, LV_PART_SCROLLBAR);
 142              		.loc 1 213 9 is_stmt 0 view .LVU34
 143 0088 FFF7FEFF 		bl	lv_obj_add_style
 144              	.LVL17:
 214:../../Middlewares/LVGL/GUI/lvgl/src/themes/simple/lv_theme_simple.c ****         return;
 145              		.loc 1 214 9 is_stmt 1 view .LVU35
 146 008c 4FF48032 		mov	r2, #65536
 147 0090 05F17001 		add	r1, r5, #112
 148 0094 2046     		mov	r0, r4
 149 0096 FFF7FEFF 		bl	lv_obj_add_style
 150              	.LVL18:
ARM GAS  C:\Users\28576\AppData\Local\Temp\ccvXaXdL.s 			page 8


 215:../../Middlewares/LVGL/GUI/lvgl/src/themes/simple/lv_theme_simple.c ****     }
 151              		.loc 1 215 9 view .LVU36
 152 009a 34E0     		b	.L1
 153              	.LVL19:
 154              	.L35:
 222:../../Middlewares/LVGL/GUI/lvgl/src/themes/simple/lv_theme_simple.c ****             return;
 155              		.loc 1 222 13 view .LVU37
 156 009c 0022     		movs	r2, #0
 157 009e 05F12801 		add	r1, r5, #40
 158 00a2 2046     		mov	r0, r4
 159 00a4 FFF7FEFF 		bl	lv_obj_add_style
 160              	.LVL20:
 223:../../Middlewares/LVGL/GUI/lvgl/src/themes/simple/lv_theme_simple.c ****         }
 161              		.loc 1 223 13 view .LVU38
 162 00a8 2DE0     		b	.L1
 163              	.L36:
 227:../../Middlewares/LVGL/GUI/lvgl/src/themes/simple/lv_theme_simple.c ****             lv_obj_add_style(obj, &theme->styles.scrollbar, LV_PART_SCROLLBAR);
 164              		.loc 1 227 13 view .LVU39
 165 00aa 0022     		movs	r2, #0
 166 00ac 05F12801 		add	r1, r5, #40
 167 00b0 2046     		mov	r0, r4
 168 00b2 FFF7FEFF 		bl	lv_obj_add_style
 169              	.LVL21:
 228:../../Middlewares/LVGL/GUI/lvgl/src/themes/simple/lv_theme_simple.c ****             return;
 170              		.loc 1 228 13 view .LVU40
 171 00b6 4FF48032 		mov	r2, #65536
 172 00ba 05F17001 		add	r1, r5, #112
 173 00be 2046     		mov	r0, r4
 174 00c0 FFF7FEFF 		bl	lv_obj_add_style
 175              	.LVL22:
 229:../../Middlewares/LVGL/GUI/lvgl/src/themes/simple/lv_theme_simple.c ****         }
 176              		.loc 1 229 13 view .LVU41
 177 00c4 1FE0     		b	.L1
 178              	.L37:
 236:../../Middlewares/LVGL/GUI/lvgl/src/themes/simple/lv_theme_simple.c ****             return;
 179              		.loc 1 236 13 view .LVU42
 180 00c6 0022     		movs	r2, #0
 181 00c8 05F14C01 		add	r1, r5, #76
 182 00cc 2046     		mov	r0, r4
 183 00ce FFF7FEFF 		bl	lv_obj_add_style
 184              	.LVL23:
 237:../../Middlewares/LVGL/GUI/lvgl/src/themes/simple/lv_theme_simple.c ****         }
 185              		.loc 1 237 13 view .LVU43
 186 00d2 18E0     		b	.L1
 187              	.L38:
 241:../../Middlewares/LVGL/GUI/lvgl/src/themes/simple/lv_theme_simple.c ****             lv_obj_add_style(obj, &theme->styles.scrollbar, LV_PART_SCROLLBAR);
 188              		.loc 1 241 13 view .LVU44
 189 00d4 0022     		movs	r2, #0
 190 00d6 05F14C01 		add	r1, r5, #76
 191 00da 2046     		mov	r0, r4
 192 00dc FFF7FEFF 		bl	lv_obj_add_style
 193              	.LVL24:
 242:../../Middlewares/LVGL/GUI/lvgl/src/themes/simple/lv_theme_simple.c ****             return;
 194              		.loc 1 242 13 view .LVU45
 195 00e0 4FF48032 		mov	r2, #65536
 196 00e4 05F17001 		add	r1, r5, #112
 197 00e8 2046     		mov	r0, r4
ARM GAS  C:\Users\28576\AppData\Local\Temp\ccvXaXdL.s 			page 9


 198 00ea FFF7FEFF 		bl	lv_obj_add_style
 199              	.LVL25:
 243:../../Middlewares/LVGL/GUI/lvgl/src/themes/simple/lv_theme_simple.c ****         }
 200              		.loc 1 243 13 view .LVU46
 201 00ee 0AE0     		b	.L1
 202              	.L4:
 248:../../Middlewares/LVGL/GUI/lvgl/src/themes/simple/lv_theme_simple.c ****     }
 249:../../Middlewares/LVGL/GUI/lvgl/src/themes/simple/lv_theme_simple.c **** #if LV_USE_BUTTON
 250:../../Middlewares/LVGL/GUI/lvgl/src/themes/simple/lv_theme_simple.c ****     else if(lv_obj_check_type(obj, &lv_button_class)) {
 203              		.loc 1 250 10 view .LVU47
 204              		.loc 1 250 13 is_stmt 0 view .LVU48
 205 00f0 8449     		ldr	r1, .L43+16
 206 00f2 2046     		mov	r0, r4
 207 00f4 FFF7FEFF 		bl	lv_obj_check_type
 208              	.LVL26:
 209              		.loc 1 250 12 discriminator 1 view .LVU49
 210 00f8 30B1     		cbz	r0, .L9
 251:../../Middlewares/LVGL/GUI/lvgl/src/themes/simple/lv_theme_simple.c ****         lv_obj_add_style(obj, &theme->styles.dark, 0);
 211              		.loc 1 251 9 is_stmt 1 view .LVU50
 212 00fa 0022     		movs	r2, #0
 213 00fc 05F15801 		add	r1, r5, #88
 214 0100 2046     		mov	r0, r4
 215 0102 FFF7FEFF 		bl	lv_obj_add_style
 216              	.LVL27:
 217              	.L1:
 252:../../Middlewares/LVGL/GUI/lvgl/src/themes/simple/lv_theme_simple.c ****     }
 253:../../Middlewares/LVGL/GUI/lvgl/src/themes/simple/lv_theme_simple.c **** #endif
 254:../../Middlewares/LVGL/GUI/lvgl/src/themes/simple/lv_theme_simple.c **** 
 255:../../Middlewares/LVGL/GUI/lvgl/src/themes/simple/lv_theme_simple.c **** #if LV_USE_BUTTONMATRIX
 256:../../Middlewares/LVGL/GUI/lvgl/src/themes/simple/lv_theme_simple.c ****     else if(lv_obj_check_type(obj, &lv_buttonmatrix_class)) {
 257:../../Middlewares/LVGL/GUI/lvgl/src/themes/simple/lv_theme_simple.c **** #if LV_USE_MSGBOX
 258:../../Middlewares/LVGL/GUI/lvgl/src/themes/simple/lv_theme_simple.c ****         if(lv_obj_check_type(parent, &lv_msgbox_class)) {
 259:../../Middlewares/LVGL/GUI/lvgl/src/themes/simple/lv_theme_simple.c ****             lv_obj_add_style(obj, &theme->styles.light, LV_PART_ITEMS);
 260:../../Middlewares/LVGL/GUI/lvgl/src/themes/simple/lv_theme_simple.c ****             return;
 261:../../Middlewares/LVGL/GUI/lvgl/src/themes/simple/lv_theme_simple.c ****         }
 262:../../Middlewares/LVGL/GUI/lvgl/src/themes/simple/lv_theme_simple.c **** #endif
 263:../../Middlewares/LVGL/GUI/lvgl/src/themes/simple/lv_theme_simple.c **** #if LV_USE_TABVIEW
 264:../../Middlewares/LVGL/GUI/lvgl/src/themes/simple/lv_theme_simple.c ****         if(lv_obj_check_type(parent, &lv_tabview_class)) {
 265:../../Middlewares/LVGL/GUI/lvgl/src/themes/simple/lv_theme_simple.c ****             lv_obj_add_style(obj, &theme->styles.light, LV_PART_ITEMS);
 266:../../Middlewares/LVGL/GUI/lvgl/src/themes/simple/lv_theme_simple.c ****             return;
 267:../../Middlewares/LVGL/GUI/lvgl/src/themes/simple/lv_theme_simple.c ****         }
 268:../../Middlewares/LVGL/GUI/lvgl/src/themes/simple/lv_theme_simple.c **** #endif
 269:../../Middlewares/LVGL/GUI/lvgl/src/themes/simple/lv_theme_simple.c ****         lv_obj_add_style(obj, &theme->styles.white, 0);
 270:../../Middlewares/LVGL/GUI/lvgl/src/themes/simple/lv_theme_simple.c ****         lv_obj_add_style(obj, &theme->styles.light, LV_PART_ITEMS);
 271:../../Middlewares/LVGL/GUI/lvgl/src/themes/simple/lv_theme_simple.c ****     }
 272:../../Middlewares/LVGL/GUI/lvgl/src/themes/simple/lv_theme_simple.c **** #endif
 273:../../Middlewares/LVGL/GUI/lvgl/src/themes/simple/lv_theme_simple.c **** 
 274:../../Middlewares/LVGL/GUI/lvgl/src/themes/simple/lv_theme_simple.c **** #if LV_USE_BAR
 275:../../Middlewares/LVGL/GUI/lvgl/src/themes/simple/lv_theme_simple.c ****     else if(lv_obj_check_type(obj, &lv_bar_class)) {
 276:../../Middlewares/LVGL/GUI/lvgl/src/themes/simple/lv_theme_simple.c ****         lv_obj_add_style(obj, &theme->styles.light, 0);
 277:../../Middlewares/LVGL/GUI/lvgl/src/themes/simple/lv_theme_simple.c ****         lv_obj_add_style(obj, &theme->styles.dark, LV_PART_INDICATOR);
 278:../../Middlewares/LVGL/GUI/lvgl/src/themes/simple/lv_theme_simple.c ****     }
 279:../../Middlewares/LVGL/GUI/lvgl/src/themes/simple/lv_theme_simple.c **** #endif
 280:../../Middlewares/LVGL/GUI/lvgl/src/themes/simple/lv_theme_simple.c **** 
 281:../../Middlewares/LVGL/GUI/lvgl/src/themes/simple/lv_theme_simple.c **** #if LV_USE_SLIDER
 282:../../Middlewares/LVGL/GUI/lvgl/src/themes/simple/lv_theme_simple.c ****     else if(lv_obj_check_type(obj, &lv_slider_class)) {
 283:../../Middlewares/LVGL/GUI/lvgl/src/themes/simple/lv_theme_simple.c ****         lv_obj_add_style(obj, &theme->styles.light, 0);
ARM GAS  C:\Users\28576\AppData\Local\Temp\ccvXaXdL.s 			page 10


 284:../../Middlewares/LVGL/GUI/lvgl/src/themes/simple/lv_theme_simple.c ****         lv_obj_add_style(obj, &theme->styles.dark, LV_PART_INDICATOR);
 285:../../Middlewares/LVGL/GUI/lvgl/src/themes/simple/lv_theme_simple.c ****         lv_obj_add_style(obj, &theme->styles.dim, LV_PART_KNOB);
 286:../../Middlewares/LVGL/GUI/lvgl/src/themes/simple/lv_theme_simple.c ****     }
 287:../../Middlewares/LVGL/GUI/lvgl/src/themes/simple/lv_theme_simple.c **** #endif
 288:../../Middlewares/LVGL/GUI/lvgl/src/themes/simple/lv_theme_simple.c **** 
 289:../../Middlewares/LVGL/GUI/lvgl/src/themes/simple/lv_theme_simple.c **** #if LV_USE_TABLE
 290:../../Middlewares/LVGL/GUI/lvgl/src/themes/simple/lv_theme_simple.c ****     else if(lv_obj_check_type(obj, &lv_table_class)) {
 291:../../Middlewares/LVGL/GUI/lvgl/src/themes/simple/lv_theme_simple.c ****         lv_obj_add_style(obj, &theme->styles.scrollbar, LV_PART_SCROLLBAR);
 292:../../Middlewares/LVGL/GUI/lvgl/src/themes/simple/lv_theme_simple.c ****         lv_obj_add_style(obj, &theme->styles.light, LV_PART_ITEMS);
 293:../../Middlewares/LVGL/GUI/lvgl/src/themes/simple/lv_theme_simple.c ****     }
 294:../../Middlewares/LVGL/GUI/lvgl/src/themes/simple/lv_theme_simple.c **** #endif
 295:../../Middlewares/LVGL/GUI/lvgl/src/themes/simple/lv_theme_simple.c **** 
 296:../../Middlewares/LVGL/GUI/lvgl/src/themes/simple/lv_theme_simple.c **** #if LV_USE_CHECKBOX
 297:../../Middlewares/LVGL/GUI/lvgl/src/themes/simple/lv_theme_simple.c ****     else if(lv_obj_check_type(obj, &lv_checkbox_class)) {
 298:../../Middlewares/LVGL/GUI/lvgl/src/themes/simple/lv_theme_simple.c ****         lv_obj_add_style(obj, &theme->styles.light, LV_PART_INDICATOR);
 299:../../Middlewares/LVGL/GUI/lvgl/src/themes/simple/lv_theme_simple.c ****         lv_obj_add_style(obj, &theme->styles.dark, LV_PART_INDICATOR | LV_STATE_CHECKED);
 300:../../Middlewares/LVGL/GUI/lvgl/src/themes/simple/lv_theme_simple.c ****     }
 301:../../Middlewares/LVGL/GUI/lvgl/src/themes/simple/lv_theme_simple.c **** #endif
 302:../../Middlewares/LVGL/GUI/lvgl/src/themes/simple/lv_theme_simple.c **** 
 303:../../Middlewares/LVGL/GUI/lvgl/src/themes/simple/lv_theme_simple.c **** #if LV_USE_SWITCH
 304:../../Middlewares/LVGL/GUI/lvgl/src/themes/simple/lv_theme_simple.c ****     else if(lv_obj_check_type(obj, &lv_switch_class)) {
 305:../../Middlewares/LVGL/GUI/lvgl/src/themes/simple/lv_theme_simple.c ****         lv_obj_add_style(obj, &theme->styles.light, 0);
 306:../../Middlewares/LVGL/GUI/lvgl/src/themes/simple/lv_theme_simple.c ****         lv_obj_add_style(obj, &theme->styles.dim, LV_PART_KNOB);
 307:../../Middlewares/LVGL/GUI/lvgl/src/themes/simple/lv_theme_simple.c ****     }
 308:../../Middlewares/LVGL/GUI/lvgl/src/themes/simple/lv_theme_simple.c **** #endif
 309:../../Middlewares/LVGL/GUI/lvgl/src/themes/simple/lv_theme_simple.c **** 
 310:../../Middlewares/LVGL/GUI/lvgl/src/themes/simple/lv_theme_simple.c **** #if LV_USE_CHART
 311:../../Middlewares/LVGL/GUI/lvgl/src/themes/simple/lv_theme_simple.c ****     else if(lv_obj_check_type(obj, &lv_chart_class)) {
 312:../../Middlewares/LVGL/GUI/lvgl/src/themes/simple/lv_theme_simple.c ****         lv_obj_add_style(obj, &theme->styles.white, 0);
 313:../../Middlewares/LVGL/GUI/lvgl/src/themes/simple/lv_theme_simple.c ****         lv_obj_add_style(obj, &theme->styles.scrollbar, LV_PART_SCROLLBAR);
 314:../../Middlewares/LVGL/GUI/lvgl/src/themes/simple/lv_theme_simple.c ****         lv_obj_add_style(obj, &theme->styles.light, LV_PART_ITEMS);
 315:../../Middlewares/LVGL/GUI/lvgl/src/themes/simple/lv_theme_simple.c ****         lv_obj_add_style(obj, &theme->styles.dark, LV_PART_CURSOR);
 316:../../Middlewares/LVGL/GUI/lvgl/src/themes/simple/lv_theme_simple.c ****     }
 317:../../Middlewares/LVGL/GUI/lvgl/src/themes/simple/lv_theme_simple.c **** #endif
 318:../../Middlewares/LVGL/GUI/lvgl/src/themes/simple/lv_theme_simple.c **** 
 319:../../Middlewares/LVGL/GUI/lvgl/src/themes/simple/lv_theme_simple.c **** #if LV_USE_ROLLER
 320:../../Middlewares/LVGL/GUI/lvgl/src/themes/simple/lv_theme_simple.c ****     else if(lv_obj_check_type(obj, &lv_roller_class)) {
 321:../../Middlewares/LVGL/GUI/lvgl/src/themes/simple/lv_theme_simple.c ****         lv_obj_add_style(obj, &theme->styles.light, 0);
 322:../../Middlewares/LVGL/GUI/lvgl/src/themes/simple/lv_theme_simple.c ****         lv_obj_add_style(obj, &theme->styles.dark, LV_PART_SELECTED);
 323:../../Middlewares/LVGL/GUI/lvgl/src/themes/simple/lv_theme_simple.c ****     }
 324:../../Middlewares/LVGL/GUI/lvgl/src/themes/simple/lv_theme_simple.c **** #endif
 325:../../Middlewares/LVGL/GUI/lvgl/src/themes/simple/lv_theme_simple.c **** 
 326:../../Middlewares/LVGL/GUI/lvgl/src/themes/simple/lv_theme_simple.c **** #if LV_USE_DROPDOWN
 327:../../Middlewares/LVGL/GUI/lvgl/src/themes/simple/lv_theme_simple.c ****     else if(lv_obj_check_type(obj, &lv_dropdown_class)) {
 328:../../Middlewares/LVGL/GUI/lvgl/src/themes/simple/lv_theme_simple.c ****         lv_obj_add_style(obj, &theme->styles.white, 0);
 329:../../Middlewares/LVGL/GUI/lvgl/src/themes/simple/lv_theme_simple.c ****     }
 330:../../Middlewares/LVGL/GUI/lvgl/src/themes/simple/lv_theme_simple.c ****     else if(lv_obj_check_type(obj, &lv_dropdownlist_class)) {
 331:../../Middlewares/LVGL/GUI/lvgl/src/themes/simple/lv_theme_simple.c ****         lv_obj_add_style(obj, &theme->styles.white, 0);
 332:../../Middlewares/LVGL/GUI/lvgl/src/themes/simple/lv_theme_simple.c ****         lv_obj_add_style(obj, &theme->styles.scrollbar, LV_PART_SCROLLBAR);
 333:../../Middlewares/LVGL/GUI/lvgl/src/themes/simple/lv_theme_simple.c ****         lv_obj_add_style(obj, &theme->styles.light, LV_PART_SELECTED);
 334:../../Middlewares/LVGL/GUI/lvgl/src/themes/simple/lv_theme_simple.c ****         lv_obj_add_style(obj, &theme->styles.dark, LV_PART_SELECTED | LV_STATE_CHECKED);
 335:../../Middlewares/LVGL/GUI/lvgl/src/themes/simple/lv_theme_simple.c ****     }
 336:../../Middlewares/LVGL/GUI/lvgl/src/themes/simple/lv_theme_simple.c **** #endif
 337:../../Middlewares/LVGL/GUI/lvgl/src/themes/simple/lv_theme_simple.c **** 
 338:../../Middlewares/LVGL/GUI/lvgl/src/themes/simple/lv_theme_simple.c **** #if LV_USE_ARC
 339:../../Middlewares/LVGL/GUI/lvgl/src/themes/simple/lv_theme_simple.c ****     else if(lv_obj_check_type(obj, &lv_arc_class)) {
 340:../../Middlewares/LVGL/GUI/lvgl/src/themes/simple/lv_theme_simple.c ****         lv_obj_add_style(obj, &theme->styles.light, 0);
ARM GAS  C:\Users\28576\AppData\Local\Temp\ccvXaXdL.s 			page 11


 341:../../Middlewares/LVGL/GUI/lvgl/src/themes/simple/lv_theme_simple.c ****         lv_obj_add_style(obj, &theme->styles.transp, 0);
 342:../../Middlewares/LVGL/GUI/lvgl/src/themes/simple/lv_theme_simple.c ****         lv_obj_add_style(obj, &theme->styles.arc_line, 0);
 343:../../Middlewares/LVGL/GUI/lvgl/src/themes/simple/lv_theme_simple.c ****         lv_obj_add_style(obj, &theme->styles.dark, LV_PART_INDICATOR);
 344:../../Middlewares/LVGL/GUI/lvgl/src/themes/simple/lv_theme_simple.c ****         lv_obj_add_style(obj, &theme->styles.arc_line, LV_PART_INDICATOR);
 345:../../Middlewares/LVGL/GUI/lvgl/src/themes/simple/lv_theme_simple.c ****         lv_obj_add_style(obj, &theme->styles.dim, LV_PART_KNOB);
 346:../../Middlewares/LVGL/GUI/lvgl/src/themes/simple/lv_theme_simple.c ****         lv_obj_add_style(obj, &theme->styles.arc_knob, LV_PART_KNOB);
 347:../../Middlewares/LVGL/GUI/lvgl/src/themes/simple/lv_theme_simple.c ****     }
 348:../../Middlewares/LVGL/GUI/lvgl/src/themes/simple/lv_theme_simple.c **** #endif
 349:../../Middlewares/LVGL/GUI/lvgl/src/themes/simple/lv_theme_simple.c **** 
 350:../../Middlewares/LVGL/GUI/lvgl/src/themes/simple/lv_theme_simple.c **** #if LV_USE_SPINNER
 351:../../Middlewares/LVGL/GUI/lvgl/src/themes/simple/lv_theme_simple.c ****     else if(lv_obj_check_type(obj, &lv_spinner_class)) {
 352:../../Middlewares/LVGL/GUI/lvgl/src/themes/simple/lv_theme_simple.c ****         lv_obj_add_style(obj, &theme->styles.light, 0);
 353:../../Middlewares/LVGL/GUI/lvgl/src/themes/simple/lv_theme_simple.c ****         lv_obj_add_style(obj, &theme->styles.transp, 0);
 354:../../Middlewares/LVGL/GUI/lvgl/src/themes/simple/lv_theme_simple.c ****         lv_obj_add_style(obj, &theme->styles.arc_line, 0);
 355:../../Middlewares/LVGL/GUI/lvgl/src/themes/simple/lv_theme_simple.c ****         lv_obj_add_style(obj, &theme->styles.dark, LV_PART_INDICATOR);
 356:../../Middlewares/LVGL/GUI/lvgl/src/themes/simple/lv_theme_simple.c ****         lv_obj_add_style(obj, &theme->styles.arc_line, LV_PART_INDICATOR);
 357:../../Middlewares/LVGL/GUI/lvgl/src/themes/simple/lv_theme_simple.c ****     }
 358:../../Middlewares/LVGL/GUI/lvgl/src/themes/simple/lv_theme_simple.c **** #endif
 359:../../Middlewares/LVGL/GUI/lvgl/src/themes/simple/lv_theme_simple.c **** 
 360:../../Middlewares/LVGL/GUI/lvgl/src/themes/simple/lv_theme_simple.c **** #if LV_USE_TEXTAREA
 361:../../Middlewares/LVGL/GUI/lvgl/src/themes/simple/lv_theme_simple.c ****     else if(lv_obj_check_type(obj, &lv_textarea_class)) {
 362:../../Middlewares/LVGL/GUI/lvgl/src/themes/simple/lv_theme_simple.c ****         lv_obj_add_style(obj, &theme->styles.white, 0);
 363:../../Middlewares/LVGL/GUI/lvgl/src/themes/simple/lv_theme_simple.c ****         lv_obj_add_style(obj, &theme->styles.scrollbar, LV_PART_SCROLLBAR);
 364:../../Middlewares/LVGL/GUI/lvgl/src/themes/simple/lv_theme_simple.c ****         lv_obj_add_style(obj, &theme->styles.ta_cursor, LV_PART_CURSOR | LV_STATE_FOCUSED);
 365:../../Middlewares/LVGL/GUI/lvgl/src/themes/simple/lv_theme_simple.c ****     }
 366:../../Middlewares/LVGL/GUI/lvgl/src/themes/simple/lv_theme_simple.c **** #endif
 367:../../Middlewares/LVGL/GUI/lvgl/src/themes/simple/lv_theme_simple.c **** 
 368:../../Middlewares/LVGL/GUI/lvgl/src/themes/simple/lv_theme_simple.c **** #if LV_USE_CALENDAR
 369:../../Middlewares/LVGL/GUI/lvgl/src/themes/simple/lv_theme_simple.c ****     else if(lv_obj_check_type(obj, &lv_calendar_class)) {
 370:../../Middlewares/LVGL/GUI/lvgl/src/themes/simple/lv_theme_simple.c ****         lv_obj_add_style(obj, &theme->styles.light, 0);
 371:../../Middlewares/LVGL/GUI/lvgl/src/themes/simple/lv_theme_simple.c ****     }
 372:../../Middlewares/LVGL/GUI/lvgl/src/themes/simple/lv_theme_simple.c **** #endif
 373:../../Middlewares/LVGL/GUI/lvgl/src/themes/simple/lv_theme_simple.c **** 
 374:../../Middlewares/LVGL/GUI/lvgl/src/themes/simple/lv_theme_simple.c **** #if LV_USE_KEYBOARD
 375:../../Middlewares/LVGL/GUI/lvgl/src/themes/simple/lv_theme_simple.c ****     else if(lv_obj_check_type(obj, &lv_keyboard_class)) {
 376:../../Middlewares/LVGL/GUI/lvgl/src/themes/simple/lv_theme_simple.c ****         lv_obj_add_style(obj, &theme->styles.scr, 0);
 377:../../Middlewares/LVGL/GUI/lvgl/src/themes/simple/lv_theme_simple.c ****         lv_obj_add_style(obj, &theme->styles.white, LV_PART_ITEMS);
 378:../../Middlewares/LVGL/GUI/lvgl/src/themes/simple/lv_theme_simple.c ****         lv_obj_add_style(obj, &theme->styles.light, LV_PART_ITEMS | LV_STATE_CHECKED);
 379:../../Middlewares/LVGL/GUI/lvgl/src/themes/simple/lv_theme_simple.c ****     }
 380:../../Middlewares/LVGL/GUI/lvgl/src/themes/simple/lv_theme_simple.c **** #endif
 381:../../Middlewares/LVGL/GUI/lvgl/src/themes/simple/lv_theme_simple.c **** #if LV_USE_LIST
 382:../../Middlewares/LVGL/GUI/lvgl/src/themes/simple/lv_theme_simple.c ****     else if(lv_obj_check_type(obj, &lv_list_class)) {
 383:../../Middlewares/LVGL/GUI/lvgl/src/themes/simple/lv_theme_simple.c ****         lv_obj_add_style(obj, &theme->styles.light, 0);
 384:../../Middlewares/LVGL/GUI/lvgl/src/themes/simple/lv_theme_simple.c ****         lv_obj_add_style(obj, &theme->styles.scrollbar, LV_PART_SCROLLBAR);
 385:../../Middlewares/LVGL/GUI/lvgl/src/themes/simple/lv_theme_simple.c ****         return;
 386:../../Middlewares/LVGL/GUI/lvgl/src/themes/simple/lv_theme_simple.c ****     }
 387:../../Middlewares/LVGL/GUI/lvgl/src/themes/simple/lv_theme_simple.c ****     else if(lv_obj_check_type(obj, &lv_list_text_class)) {
 388:../../Middlewares/LVGL/GUI/lvgl/src/themes/simple/lv_theme_simple.c **** 
 389:../../Middlewares/LVGL/GUI/lvgl/src/themes/simple/lv_theme_simple.c ****     }
 390:../../Middlewares/LVGL/GUI/lvgl/src/themes/simple/lv_theme_simple.c ****     else if(lv_obj_check_type(obj, &lv_list_button_class)) {
 391:../../Middlewares/LVGL/GUI/lvgl/src/themes/simple/lv_theme_simple.c ****         lv_obj_add_style(obj, &theme->styles.dark, 0);
 392:../../Middlewares/LVGL/GUI/lvgl/src/themes/simple/lv_theme_simple.c **** 
 393:../../Middlewares/LVGL/GUI/lvgl/src/themes/simple/lv_theme_simple.c ****     }
 394:../../Middlewares/LVGL/GUI/lvgl/src/themes/simple/lv_theme_simple.c **** #endif
 395:../../Middlewares/LVGL/GUI/lvgl/src/themes/simple/lv_theme_simple.c **** #if LV_USE_MSGBOX
 396:../../Middlewares/LVGL/GUI/lvgl/src/themes/simple/lv_theme_simple.c ****     else if(lv_obj_check_type(obj, &lv_msgbox_class)) {
 397:../../Middlewares/LVGL/GUI/lvgl/src/themes/simple/lv_theme_simple.c ****         lv_obj_add_style(obj, &theme->styles.light, 0);
ARM GAS  C:\Users\28576\AppData\Local\Temp\ccvXaXdL.s 			page 12


 398:../../Middlewares/LVGL/GUI/lvgl/src/themes/simple/lv_theme_simple.c ****         return;
 399:../../Middlewares/LVGL/GUI/lvgl/src/themes/simple/lv_theme_simple.c ****     }
 400:../../Middlewares/LVGL/GUI/lvgl/src/themes/simple/lv_theme_simple.c **** #endif
 401:../../Middlewares/LVGL/GUI/lvgl/src/themes/simple/lv_theme_simple.c **** #if LV_USE_SPINBOX
 402:../../Middlewares/LVGL/GUI/lvgl/src/themes/simple/lv_theme_simple.c ****     else if(lv_obj_check_type(obj, &lv_spinbox_class)) {
 403:../../Middlewares/LVGL/GUI/lvgl/src/themes/simple/lv_theme_simple.c ****         lv_obj_add_style(obj, &theme->styles.light, 0);
 404:../../Middlewares/LVGL/GUI/lvgl/src/themes/simple/lv_theme_simple.c ****         lv_obj_add_style(obj, &theme->styles.dark, LV_PART_CURSOR);
 405:../../Middlewares/LVGL/GUI/lvgl/src/themes/simple/lv_theme_simple.c ****     }
 406:../../Middlewares/LVGL/GUI/lvgl/src/themes/simple/lv_theme_simple.c **** #endif
 407:../../Middlewares/LVGL/GUI/lvgl/src/themes/simple/lv_theme_simple.c **** #if LV_USE_TILEVIEW
 408:../../Middlewares/LVGL/GUI/lvgl/src/themes/simple/lv_theme_simple.c ****     else if(lv_obj_check_type(obj, &lv_tileview_class)) {
 409:../../Middlewares/LVGL/GUI/lvgl/src/themes/simple/lv_theme_simple.c ****         lv_obj_add_style(obj, &theme->styles.scr, 0);
 410:../../Middlewares/LVGL/GUI/lvgl/src/themes/simple/lv_theme_simple.c ****         lv_obj_add_style(obj, &theme->styles.scrollbar, LV_PART_SCROLLBAR);
 411:../../Middlewares/LVGL/GUI/lvgl/src/themes/simple/lv_theme_simple.c ****     }
 412:../../Middlewares/LVGL/GUI/lvgl/src/themes/simple/lv_theme_simple.c ****     else if(lv_obj_check_type(obj, &lv_tileview_tile_class)) {
 413:../../Middlewares/LVGL/GUI/lvgl/src/themes/simple/lv_theme_simple.c ****         lv_obj_add_style(obj, &theme->styles.scrollbar, LV_PART_SCROLLBAR);
 414:../../Middlewares/LVGL/GUI/lvgl/src/themes/simple/lv_theme_simple.c ****     }
 415:../../Middlewares/LVGL/GUI/lvgl/src/themes/simple/lv_theme_simple.c **** #endif
 416:../../Middlewares/LVGL/GUI/lvgl/src/themes/simple/lv_theme_simple.c **** 
 417:../../Middlewares/LVGL/GUI/lvgl/src/themes/simple/lv_theme_simple.c **** #if LV_USE_LED
 418:../../Middlewares/LVGL/GUI/lvgl/src/themes/simple/lv_theme_simple.c ****     else if(lv_obj_check_type(obj, &lv_led_class)) {
 419:../../Middlewares/LVGL/GUI/lvgl/src/themes/simple/lv_theme_simple.c ****         lv_obj_add_style(obj, &theme->styles.light, 0);
 420:../../Middlewares/LVGL/GUI/lvgl/src/themes/simple/lv_theme_simple.c ****     }
 421:../../Middlewares/LVGL/GUI/lvgl/src/themes/simple/lv_theme_simple.c **** #endif
 422:../../Middlewares/LVGL/GUI/lvgl/src/themes/simple/lv_theme_simple.c **** }
 218              		.loc 1 422 1 is_stmt 0 view .LVU51
 219 0106 70BD     		pop	{r4, r5, r6, pc}
 220              	.LVL28:
 221              	.L9:
 256:../../Middlewares/LVGL/GUI/lvgl/src/themes/simple/lv_theme_simple.c **** #if LV_USE_MSGBOX
 222              		.loc 1 256 10 is_stmt 1 view .LVU52
 256:../../Middlewares/LVGL/GUI/lvgl/src/themes/simple/lv_theme_simple.c **** #if LV_USE_MSGBOX
 223              		.loc 1 256 13 is_stmt 0 view .LVU53
 224 0108 7F49     		ldr	r1, .L43+20
 225 010a 2046     		mov	r0, r4
 226 010c FFF7FEFF 		bl	lv_obj_check_type
 227              	.LVL29:
 256:../../Middlewares/LVGL/GUI/lvgl/src/themes/simple/lv_theme_simple.c **** #if LV_USE_MSGBOX
 228              		.loc 1 256 12 discriminator 1 view .LVU54
 229 0110 38B3     		cbz	r0, .L10
 258:../../Middlewares/LVGL/GUI/lvgl/src/themes/simple/lv_theme_simple.c ****             lv_obj_add_style(obj, &theme->styles.light, LV_PART_ITEMS);
 230              		.loc 1 258 9 is_stmt 1 view .LVU55
 258:../../Middlewares/LVGL/GUI/lvgl/src/themes/simple/lv_theme_simple.c ****             lv_obj_add_style(obj, &theme->styles.light, LV_PART_ITEMS);
 231              		.loc 1 258 12 is_stmt 0 view .LVU56
 232 0112 7E49     		ldr	r1, .L43+24
 233 0114 3046     		mov	r0, r6
 234 0116 FFF7FEFF 		bl	lv_obj_check_type
 235              	.LVL30:
 258:../../Middlewares/LVGL/GUI/lvgl/src/themes/simple/lv_theme_simple.c ****             lv_obj_add_style(obj, &theme->styles.light, LV_PART_ITEMS);
 236              		.loc 1 258 11 discriminator 1 view .LVU57
 237 011a 90B9     		cbnz	r0, .L39
 264:../../Middlewares/LVGL/GUI/lvgl/src/themes/simple/lv_theme_simple.c ****             lv_obj_add_style(obj, &theme->styles.light, LV_PART_ITEMS);
 238              		.loc 1 264 9 is_stmt 1 view .LVU58
 264:../../Middlewares/LVGL/GUI/lvgl/src/themes/simple/lv_theme_simple.c ****             lv_obj_add_style(obj, &theme->styles.light, LV_PART_ITEMS);
 239              		.loc 1 264 12 is_stmt 0 view .LVU59
 240 011c 7749     		ldr	r1, .L43+8
 241 011e 3046     		mov	r0, r6
ARM GAS  C:\Users\28576\AppData\Local\Temp\ccvXaXdL.s 			page 13


 242 0120 FFF7FEFF 		bl	lv_obj_check_type
 243              	.LVL31:
 264:../../Middlewares/LVGL/GUI/lvgl/src/themes/simple/lv_theme_simple.c ****             lv_obj_add_style(obj, &theme->styles.light, LV_PART_ITEMS);
 244              		.loc 1 264 11 discriminator 1 view .LVU60
 245 0124 A8B9     		cbnz	r0, .L40
 269:../../Middlewares/LVGL/GUI/lvgl/src/themes/simple/lv_theme_simple.c ****         lv_obj_add_style(obj, &theme->styles.light, LV_PART_ITEMS);
 246              		.loc 1 269 9 is_stmt 1 view .LVU61
 247 0126 0246     		mov	r2, r0
 248 0128 05F14001 		add	r1, r5, #64
 249 012c 2046     		mov	r0, r4
 250 012e FFF7FEFF 		bl	lv_obj_add_style
 251              	.LVL32:
 270:../../Middlewares/LVGL/GUI/lvgl/src/themes/simple/lv_theme_simple.c ****     }
 252              		.loc 1 270 9 view .LVU62
 253 0132 4FF4A022 		mov	r2, #327680
 254 0136 05F14C01 		add	r1, r5, #76
 255 013a 2046     		mov	r0, r4
 256 013c FFF7FEFF 		bl	lv_obj_add_style
 257              	.LVL33:
 258 0140 E1E7     		b	.L1
 259              	.L39:
 259:../../Middlewares/LVGL/GUI/lvgl/src/themes/simple/lv_theme_simple.c ****             return;
 260              		.loc 1 259 13 view .LVU63
 261 0142 4FF4A022 		mov	r2, #327680
 262 0146 05F14C01 		add	r1, r5, #76
 263 014a 2046     		mov	r0, r4
 264 014c FFF7FEFF 		bl	lv_obj_add_style
 265              	.LVL34:
 260:../../Middlewares/LVGL/GUI/lvgl/src/themes/simple/lv_theme_simple.c ****         }
 266              		.loc 1 260 13 view .LVU64
 267 0150 D9E7     		b	.L1
 268              	.L40:
 265:../../Middlewares/LVGL/GUI/lvgl/src/themes/simple/lv_theme_simple.c ****             return;
 269              		.loc 1 265 13 view .LVU65
 270 0152 4FF4A022 		mov	r2, #327680
 271 0156 05F14C01 		add	r1, r5, #76
 272 015a 2046     		mov	r0, r4
 273 015c FFF7FEFF 		bl	lv_obj_add_style
 274              	.LVL35:
 266:../../Middlewares/LVGL/GUI/lvgl/src/themes/simple/lv_theme_simple.c ****         }
 275              		.loc 1 266 13 view .LVU66
 276 0160 D1E7     		b	.L1
 277              	.L10:
 275:../../Middlewares/LVGL/GUI/lvgl/src/themes/simple/lv_theme_simple.c ****         lv_obj_add_style(obj, &theme->styles.light, 0);
 278              		.loc 1 275 10 view .LVU67
 275:../../Middlewares/LVGL/GUI/lvgl/src/themes/simple/lv_theme_simple.c ****         lv_obj_add_style(obj, &theme->styles.light, 0);
 279              		.loc 1 275 13 is_stmt 0 view .LVU68
 280 0162 6B49     		ldr	r1, .L43+28
 281 0164 2046     		mov	r0, r4
 282 0166 FFF7FEFF 		bl	lv_obj_check_type
 283              	.LVL36:
 275:../../Middlewares/LVGL/GUI/lvgl/src/themes/simple/lv_theme_simple.c ****         lv_obj_add_style(obj, &theme->styles.light, 0);
 284              		.loc 1 275 12 discriminator 1 view .LVU69
 285 016a 68B1     		cbz	r0, .L13
 276:../../Middlewares/LVGL/GUI/lvgl/src/themes/simple/lv_theme_simple.c ****         lv_obj_add_style(obj, &theme->styles.dark, LV_PART_INDICATOR);
 286              		.loc 1 276 9 is_stmt 1 view .LVU70
 287 016c 0022     		movs	r2, #0
ARM GAS  C:\Users\28576\AppData\Local\Temp\ccvXaXdL.s 			page 14


 288 016e 05F14C01 		add	r1, r5, #76
 289 0172 2046     		mov	r0, r4
 290 0174 FFF7FEFF 		bl	lv_obj_add_style
 291              	.LVL37:
 277:../../Middlewares/LVGL/GUI/lvgl/src/themes/simple/lv_theme_simple.c ****     }
 292              		.loc 1 277 9 view .LVU71
 293 0178 4FF40032 		mov	r2, #131072
 294 017c 05F15801 		add	r1, r5, #88
 295 0180 2046     		mov	r0, r4
 296 0182 FFF7FEFF 		bl	lv_obj_add_style
 297              	.LVL38:
 298 0186 BEE7     		b	.L1
 299              	.L13:
 282:../../Middlewares/LVGL/GUI/lvgl/src/themes/simple/lv_theme_simple.c ****         lv_obj_add_style(obj, &theme->styles.light, 0);
 300              		.loc 1 282 10 view .LVU72
 282:../../Middlewares/LVGL/GUI/lvgl/src/themes/simple/lv_theme_simple.c ****         lv_obj_add_style(obj, &theme->styles.light, 0);
 301              		.loc 1 282 13 is_stmt 0 view .LVU73
 302 0188 6249     		ldr	r1, .L43+32
 303 018a 2046     		mov	r0, r4
 304 018c FFF7FEFF 		bl	lv_obj_check_type
 305              	.LVL39:
 282:../../Middlewares/LVGL/GUI/lvgl/src/themes/simple/lv_theme_simple.c ****         lv_obj_add_style(obj, &theme->styles.light, 0);
 306              		.loc 1 282 12 discriminator 1 view .LVU74
 307 0190 A0B1     		cbz	r0, .L14
 283:../../Middlewares/LVGL/GUI/lvgl/src/themes/simple/lv_theme_simple.c ****         lv_obj_add_style(obj, &theme->styles.dark, LV_PART_INDICATOR);
 308              		.loc 1 283 9 is_stmt 1 view .LVU75
 309 0192 0022     		movs	r2, #0
 310 0194 05F14C01 		add	r1, r5, #76
 311 0198 2046     		mov	r0, r4
 312 019a FFF7FEFF 		bl	lv_obj_add_style
 313              	.LVL40:
 284:../../Middlewares/LVGL/GUI/lvgl/src/themes/simple/lv_theme_simple.c ****         lv_obj_add_style(obj, &theme->styles.dim, LV_PART_KNOB);
 314              		.loc 1 284 9 view .LVU76
 315 019e 4FF40032 		mov	r2, #131072
 316 01a2 05F15801 		add	r1, r5, #88
 317 01a6 2046     		mov	r0, r4
 318 01a8 FFF7FEFF 		bl	lv_obj_add_style
 319              	.LVL41:
 285:../../Middlewares/LVGL/GUI/lvgl/src/themes/simple/lv_theme_simple.c ****     }
 320              		.loc 1 285 9 view .LVU77
 321 01ac 4FF44032 		mov	r2, #196608
 322 01b0 05F16401 		add	r1, r5, #100
 323 01b4 2046     		mov	r0, r4
 324 01b6 FFF7FEFF 		bl	lv_obj_add_style
 325              	.LVL42:
 326 01ba A4E7     		b	.L1
 327              	.L14:
 290:../../Middlewares/LVGL/GUI/lvgl/src/themes/simple/lv_theme_simple.c ****         lv_obj_add_style(obj, &theme->styles.scrollbar, LV_PART_SCROLLBAR);
 328              		.loc 1 290 10 view .LVU78
 290:../../Middlewares/LVGL/GUI/lvgl/src/themes/simple/lv_theme_simple.c ****         lv_obj_add_style(obj, &theme->styles.scrollbar, LV_PART_SCROLLBAR);
 329              		.loc 1 290 13 is_stmt 0 view .LVU79
 330 01bc 5649     		ldr	r1, .L43+36
 331 01be 2046     		mov	r0, r4
 332 01c0 FFF7FEFF 		bl	lv_obj_check_type
 333              	.LVL43:
 290:../../Middlewares/LVGL/GUI/lvgl/src/themes/simple/lv_theme_simple.c ****         lv_obj_add_style(obj, &theme->styles.scrollbar, LV_PART_SCROLLBAR);
 334              		.loc 1 290 12 discriminator 1 view .LVU80
ARM GAS  C:\Users\28576\AppData\Local\Temp\ccvXaXdL.s 			page 15


 335 01c4 70B1     		cbz	r0, .L15
 291:../../Middlewares/LVGL/GUI/lvgl/src/themes/simple/lv_theme_simple.c ****         lv_obj_add_style(obj, &theme->styles.light, LV_PART_ITEMS);
 336              		.loc 1 291 9 is_stmt 1 view .LVU81
 337 01c6 4FF48032 		mov	r2, #65536
 338 01ca 05F17001 		add	r1, r5, #112
 339 01ce 2046     		mov	r0, r4
 340 01d0 FFF7FEFF 		bl	lv_obj_add_style
 341              	.LVL44:
 292:../../Middlewares/LVGL/GUI/lvgl/src/themes/simple/lv_theme_simple.c ****     }
 342              		.loc 1 292 9 view .LVU82
 343 01d4 4FF4A022 		mov	r2, #327680
 344 01d8 05F14C01 		add	r1, r5, #76
 345 01dc 2046     		mov	r0, r4
 346 01de FFF7FEFF 		bl	lv_obj_add_style
 347              	.LVL45:
 348 01e2 90E7     		b	.L1
 349              	.L15:
 297:../../Middlewares/LVGL/GUI/lvgl/src/themes/simple/lv_theme_simple.c ****         lv_obj_add_style(obj, &theme->styles.light, LV_PART_INDICATOR);
 350              		.loc 1 297 10 view .LVU83
 297:../../Middlewares/LVGL/GUI/lvgl/src/themes/simple/lv_theme_simple.c ****         lv_obj_add_style(obj, &theme->styles.light, LV_PART_INDICATOR);
 351              		.loc 1 297 13 is_stmt 0 view .LVU84
 352 01e4 4D49     		ldr	r1, .L43+40
 353 01e6 2046     		mov	r0, r4
 354 01e8 FFF7FEFF 		bl	lv_obj_check_type
 355              	.LVL46:
 297:../../Middlewares/LVGL/GUI/lvgl/src/themes/simple/lv_theme_simple.c ****         lv_obj_add_style(obj, &theme->styles.light, LV_PART_INDICATOR);
 356              		.loc 1 297 12 discriminator 1 view .LVU85
 357 01ec 68B1     		cbz	r0, .L16
 298:../../Middlewares/LVGL/GUI/lvgl/src/themes/simple/lv_theme_simple.c ****         lv_obj_add_style(obj, &theme->styles.dark, LV_PART_INDICATOR | LV_STATE_CHECKED);
 358              		.loc 1 298 9 is_stmt 1 view .LVU86
 359 01ee 4FF40032 		mov	r2, #131072
 360 01f2 05F14C01 		add	r1, r5, #76
 361 01f6 2046     		mov	r0, r4
 362 01f8 FFF7FEFF 		bl	lv_obj_add_style
 363              	.LVL47:
 299:../../Middlewares/LVGL/GUI/lvgl/src/themes/simple/lv_theme_simple.c ****     }
 364              		.loc 1 299 9 view .LVU87
 365 01fc 484A     		ldr	r2, .L43+44
 366 01fe 05F15801 		add	r1, r5, #88
 367 0202 2046     		mov	r0, r4
 368 0204 FFF7FEFF 		bl	lv_obj_add_style
 369              	.LVL48:
 370 0208 7DE7     		b	.L1
 371              	.L16:
 304:../../Middlewares/LVGL/GUI/lvgl/src/themes/simple/lv_theme_simple.c ****         lv_obj_add_style(obj, &theme->styles.light, 0);
 372              		.loc 1 304 10 view .LVU88
 304:../../Middlewares/LVGL/GUI/lvgl/src/themes/simple/lv_theme_simple.c ****         lv_obj_add_style(obj, &theme->styles.light, 0);
 373              		.loc 1 304 13 is_stmt 0 view .LVU89
 374 020a 4649     		ldr	r1, .L43+48
 375 020c 2046     		mov	r0, r4
 376 020e FFF7FEFF 		bl	lv_obj_check_type
 377              	.LVL49:
 304:../../Middlewares/LVGL/GUI/lvgl/src/themes/simple/lv_theme_simple.c ****         lv_obj_add_style(obj, &theme->styles.light, 0);
 378              		.loc 1 304 12 discriminator 1 view .LVU90
 379 0212 68B1     		cbz	r0, .L17
 305:../../Middlewares/LVGL/GUI/lvgl/src/themes/simple/lv_theme_simple.c ****         lv_obj_add_style(obj, &theme->styles.dim, LV_PART_KNOB);
 380              		.loc 1 305 9 is_stmt 1 view .LVU91
ARM GAS  C:\Users\28576\AppData\Local\Temp\ccvXaXdL.s 			page 16


 381 0214 0022     		movs	r2, #0
 382 0216 05F14C01 		add	r1, r5, #76
 383 021a 2046     		mov	r0, r4
 384 021c FFF7FEFF 		bl	lv_obj_add_style
 385              	.LVL50:
 306:../../Middlewares/LVGL/GUI/lvgl/src/themes/simple/lv_theme_simple.c ****     }
 386              		.loc 1 306 9 view .LVU92
 387 0220 4FF44032 		mov	r2, #196608
 388 0224 05F16401 		add	r1, r5, #100
 389 0228 2046     		mov	r0, r4
 390 022a FFF7FEFF 		bl	lv_obj_add_style
 391              	.LVL51:
 392 022e 6AE7     		b	.L1
 393              	.L17:
 311:../../Middlewares/LVGL/GUI/lvgl/src/themes/simple/lv_theme_simple.c ****         lv_obj_add_style(obj, &theme->styles.white, 0);
 394              		.loc 1 311 10 view .LVU93
 311:../../Middlewares/LVGL/GUI/lvgl/src/themes/simple/lv_theme_simple.c ****         lv_obj_add_style(obj, &theme->styles.white, 0);
 395              		.loc 1 311 13 is_stmt 0 view .LVU94
 396 0230 3D49     		ldr	r1, .L43+52
 397 0232 2046     		mov	r0, r4
 398 0234 FFF7FEFF 		bl	lv_obj_check_type
 399              	.LVL52:
 311:../../Middlewares/LVGL/GUI/lvgl/src/themes/simple/lv_theme_simple.c ****         lv_obj_add_style(obj, &theme->styles.white, 0);
 400              		.loc 1 311 12 discriminator 1 view .LVU95
 401 0238 D8B1     		cbz	r0, .L18
 312:../../Middlewares/LVGL/GUI/lvgl/src/themes/simple/lv_theme_simple.c ****         lv_obj_add_style(obj, &theme->styles.scrollbar, LV_PART_SCROLLBAR);
 402              		.loc 1 312 9 is_stmt 1 view .LVU96
 403 023a 0022     		movs	r2, #0
 404 023c 05F14001 		add	r1, r5, #64
 405 0240 2046     		mov	r0, r4
 406 0242 FFF7FEFF 		bl	lv_obj_add_style
 407              	.LVL53:
 313:../../Middlewares/LVGL/GUI/lvgl/src/themes/simple/lv_theme_simple.c ****         lv_obj_add_style(obj, &theme->styles.light, LV_PART_ITEMS);
 408              		.loc 1 313 9 view .LVU97
 409 0246 4FF48032 		mov	r2, #65536
 410 024a 05F17001 		add	r1, r5, #112
 411 024e 2046     		mov	r0, r4
 412 0250 FFF7FEFF 		bl	lv_obj_add_style
 413              	.LVL54:
 314:../../Middlewares/LVGL/GUI/lvgl/src/themes/simple/lv_theme_simple.c ****         lv_obj_add_style(obj, &theme->styles.dark, LV_PART_CURSOR);
 414              		.loc 1 314 9 view .LVU98
 415 0254 4FF4A022 		mov	r2, #327680
 416 0258 05F14C01 		add	r1, r5, #76
 417 025c 2046     		mov	r0, r4
 418 025e FFF7FEFF 		bl	lv_obj_add_style
 419              	.LVL55:
 315:../../Middlewares/LVGL/GUI/lvgl/src/themes/simple/lv_theme_simple.c ****     }
 420              		.loc 1 315 9 view .LVU99
 421 0262 4FF4C022 		mov	r2, #393216
 422 0266 05F15801 		add	r1, r5, #88
 423 026a 2046     		mov	r0, r4
 424 026c FFF7FEFF 		bl	lv_obj_add_style
 425              	.LVL56:
 426 0270 49E7     		b	.L1
 427              	.L18:
 320:../../Middlewares/LVGL/GUI/lvgl/src/themes/simple/lv_theme_simple.c ****         lv_obj_add_style(obj, &theme->styles.light, 0);
 428              		.loc 1 320 10 view .LVU100
ARM GAS  C:\Users\28576\AppData\Local\Temp\ccvXaXdL.s 			page 17


 320:../../Middlewares/LVGL/GUI/lvgl/src/themes/simple/lv_theme_simple.c ****         lv_obj_add_style(obj, &theme->styles.light, 0);
 429              		.loc 1 320 13 is_stmt 0 view .LVU101
 430 0272 2E49     		ldr	r1, .L43+56
 431 0274 2046     		mov	r0, r4
 432 0276 FFF7FEFF 		bl	lv_obj_check_type
 433              	.LVL57:
 320:../../Middlewares/LVGL/GUI/lvgl/src/themes/simple/lv_theme_simple.c ****         lv_obj_add_style(obj, &theme->styles.light, 0);
 434              		.loc 1 320 12 discriminator 1 view .LVU102
 435 027a 68B1     		cbz	r0, .L19
 321:../../Middlewares/LVGL/GUI/lvgl/src/themes/simple/lv_theme_simple.c ****         lv_obj_add_style(obj, &theme->styles.dark, LV_PART_SELECTED);
 436              		.loc 1 321 9 is_stmt 1 view .LVU103
 437 027c 0022     		movs	r2, #0
 438 027e 05F14C01 		add	r1, r5, #76
 439 0282 2046     		mov	r0, r4
 440 0284 FFF7FEFF 		bl	lv_obj_add_style
 441              	.LVL58:
 322:../../Middlewares/LVGL/GUI/lvgl/src/themes/simple/lv_theme_simple.c ****     }
 442              		.loc 1 322 9 view .LVU104
 443 0288 4FF48022 		mov	r2, #262144
 444 028c 05F15801 		add	r1, r5, #88
 445 0290 2046     		mov	r0, r4
 446 0292 FFF7FEFF 		bl	lv_obj_add_style
 447              	.LVL59:
 448 0296 36E7     		b	.L1
 449              	.L19:
 327:../../Middlewares/LVGL/GUI/lvgl/src/themes/simple/lv_theme_simple.c ****         lv_obj_add_style(obj, &theme->styles.white, 0);
 450              		.loc 1 327 10 view .LVU105
 327:../../Middlewares/LVGL/GUI/lvgl/src/themes/simple/lv_theme_simple.c ****         lv_obj_add_style(obj, &theme->styles.white, 0);
 451              		.loc 1 327 13 is_stmt 0 view .LVU106
 452 0298 2549     		ldr	r1, .L43+60
 453 029a 2046     		mov	r0, r4
 454 029c FFF7FEFF 		bl	lv_obj_check_type
 455              	.LVL60:
 327:../../Middlewares/LVGL/GUI/lvgl/src/themes/simple/lv_theme_simple.c ****         lv_obj_add_style(obj, &theme->styles.white, 0);
 456              		.loc 1 327 12 discriminator 1 view .LVU107
 457 02a0 30B1     		cbz	r0, .L20
 328:../../Middlewares/LVGL/GUI/lvgl/src/themes/simple/lv_theme_simple.c ****     }
 458              		.loc 1 328 9 is_stmt 1 view .LVU108
 459 02a2 0022     		movs	r2, #0
 460 02a4 05F14001 		add	r1, r5, #64
 461 02a8 2046     		mov	r0, r4
 462 02aa FFF7FEFF 		bl	lv_obj_add_style
 463              	.LVL61:
 464 02ae 2AE7     		b	.L1
 465              	.L20:
 330:../../Middlewares/LVGL/GUI/lvgl/src/themes/simple/lv_theme_simple.c ****         lv_obj_add_style(obj, &theme->styles.white, 0);
 466              		.loc 1 330 10 view .LVU109
 330:../../Middlewares/LVGL/GUI/lvgl/src/themes/simple/lv_theme_simple.c ****         lv_obj_add_style(obj, &theme->styles.white, 0);
 467              		.loc 1 330 13 is_stmt 0 view .LVU110
 468 02b0 2049     		ldr	r1, .L43+64
 469 02b2 2046     		mov	r0, r4
 470 02b4 FFF7FEFF 		bl	lv_obj_check_type
 471              	.LVL62:
 330:../../Middlewares/LVGL/GUI/lvgl/src/themes/simple/lv_theme_simple.c ****         lv_obj_add_style(obj, &theme->styles.white, 0);
 472              		.loc 1 330 12 discriminator 1 view .LVU111
 473 02b8 0028     		cmp	r0, #0
 474 02ba 3FD0     		beq	.L21
ARM GAS  C:\Users\28576\AppData\Local\Temp\ccvXaXdL.s 			page 18


 331:../../Middlewares/LVGL/GUI/lvgl/src/themes/simple/lv_theme_simple.c ****         lv_obj_add_style(obj, &theme->styles.scrollbar, LV_PART_SCROLLBAR);
 475              		.loc 1 331 9 is_stmt 1 view .LVU112
 476 02bc 0022     		movs	r2, #0
 477 02be 05F14001 		add	r1, r5, #64
 478 02c2 2046     		mov	r0, r4
 479 02c4 FFF7FEFF 		bl	lv_obj_add_style
 480              	.LVL63:
 332:../../Middlewares/LVGL/GUI/lvgl/src/themes/simple/lv_theme_simple.c ****         lv_obj_add_style(obj, &theme->styles.light, LV_PART_SELECTED);
 481              		.loc 1 332 9 view .LVU113
 482 02c8 4FF48032 		mov	r2, #65536
 483 02cc 05F17001 		add	r1, r5, #112
 484 02d0 2046     		mov	r0, r4
 485 02d2 FFF7FEFF 		bl	lv_obj_add_style
 486              	.LVL64:
 333:../../Middlewares/LVGL/GUI/lvgl/src/themes/simple/lv_theme_simple.c ****         lv_obj_add_style(obj, &theme->styles.dark, LV_PART_SELECTED | LV_STATE_CHECKED);
 487              		.loc 1 333 9 view .LVU114
 488 02d6 4FF48022 		mov	r2, #262144
 489 02da 05F14C01 		add	r1, r5, #76
 490 02de 2046     		mov	r0, r4
 491 02e0 FFF7FEFF 		bl	lv_obj_add_style
 492              	.LVL65:
 334:../../Middlewares/LVGL/GUI/lvgl/src/themes/simple/lv_theme_simple.c ****     }
 493              		.loc 1 334 9 view .LVU115
 494 02e4 144A     		ldr	r2, .L43+68
 495 02e6 05F15801 		add	r1, r5, #88
 496 02ea 2046     		mov	r0, r4
 497 02ec FFF7FEFF 		bl	lv_obj_add_style
 498              	.LVL66:
 499 02f0 09E7     		b	.L1
 500              	.L44:
 501 02f2 00BF     		.align	2
 502              	.L43:
 503 02f4 00000000 		.word	lv_global
 504 02f8 00000000 		.word	lv_obj_class
 505 02fc 00000000 		.word	lv_tabview_class
 506 0300 00000000 		.word	lv_win_class
 507 0304 00000000 		.word	lv_button_class
 508 0308 00000000 		.word	lv_buttonmatrix_class
 509 030c 00000000 		.word	lv_msgbox_class
 510 0310 00000000 		.word	lv_bar_class
 511 0314 00000000 		.word	lv_slider_class
 512 0318 00000000 		.word	lv_table_class
 513 031c 00000000 		.word	lv_checkbox_class
 514 0320 01000200 		.word	131073
 515 0324 00000000 		.word	lv_switch_class
 516 0328 00000000 		.word	lv_chart_class
 517 032c 00000000 		.word	lv_roller_class
 518 0330 00000000 		.word	lv_dropdown_class
 519 0334 00000000 		.word	lv_dropdownlist_class
 520 0338 01000400 		.word	262145
 521              	.L21:
 339:../../Middlewares/LVGL/GUI/lvgl/src/themes/simple/lv_theme_simple.c ****         lv_obj_add_style(obj, &theme->styles.light, 0);
 522              		.loc 1 339 10 view .LVU116
 339:../../Middlewares/LVGL/GUI/lvgl/src/themes/simple/lv_theme_simple.c ****         lv_obj_add_style(obj, &theme->styles.light, 0);
 523              		.loc 1 339 13 is_stmt 0 view .LVU117
 524 033c 8649     		ldr	r1, .L45
 525 033e 2046     		mov	r0, r4
ARM GAS  C:\Users\28576\AppData\Local\Temp\ccvXaXdL.s 			page 19


 526 0340 FFF7FEFF 		bl	lv_obj_check_type
 527              	.LVL67:
 339:../../Middlewares/LVGL/GUI/lvgl/src/themes/simple/lv_theme_simple.c ****         lv_obj_add_style(obj, &theme->styles.light, 0);
 528              		.loc 1 339 12 discriminator 1 view .LVU118
 529 0344 78B3     		cbz	r0, .L22
 340:../../Middlewares/LVGL/GUI/lvgl/src/themes/simple/lv_theme_simple.c ****         lv_obj_add_style(obj, &theme->styles.transp, 0);
 530              		.loc 1 340 9 is_stmt 1 view .LVU119
 531 0346 0022     		movs	r2, #0
 532 0348 05F14C01 		add	r1, r5, #76
 533 034c 2046     		mov	r0, r4
 534 034e FFF7FEFF 		bl	lv_obj_add_style
 535              	.LVL68:
 341:../../Middlewares/LVGL/GUI/lvgl/src/themes/simple/lv_theme_simple.c ****         lv_obj_add_style(obj, &theme->styles.arc_line, 0);
 536              		.loc 1 341 9 view .LVU120
 537 0352 0022     		movs	r2, #0
 538 0354 05F13401 		add	r1, r5, #52
 539 0358 2046     		mov	r0, r4
 540 035a FFF7FEFF 		bl	lv_obj_add_style
 541              	.LVL69:
 342:../../Middlewares/LVGL/GUI/lvgl/src/themes/simple/lv_theme_simple.c ****         lv_obj_add_style(obj, &theme->styles.dark, LV_PART_INDICATOR);
 542              		.loc 1 342 9 view .LVU121
 342:../../Middlewares/LVGL/GUI/lvgl/src/themes/simple/lv_theme_simple.c ****         lv_obj_add_style(obj, &theme->styles.dark, LV_PART_INDICATOR);
 543              		.loc 1 342 31 is_stmt 0 view .LVU122
 544 035e 05F17C03 		add	r3, r5, #124
 545 0362 1E46     		mov	r6, r3
 546              	.LVL70:
 342:../../Middlewares/LVGL/GUI/lvgl/src/themes/simple/lv_theme_simple.c ****         lv_obj_add_style(obj, &theme->styles.dark, LV_PART_INDICATOR);
 547              		.loc 1 342 9 view .LVU123
 548 0364 0022     		movs	r2, #0
 549 0366 1946     		mov	r1, r3
 550 0368 2046     		mov	r0, r4
 551 036a FFF7FEFF 		bl	lv_obj_add_style
 552              	.LVL71:
 343:../../Middlewares/LVGL/GUI/lvgl/src/themes/simple/lv_theme_simple.c ****         lv_obj_add_style(obj, &theme->styles.arc_line, LV_PART_INDICATOR);
 553              		.loc 1 343 9 is_stmt 1 view .LVU124
 554 036e 4FF40032 		mov	r2, #131072
 555 0372 05F15801 		add	r1, r5, #88
 556 0376 2046     		mov	r0, r4
 557 0378 FFF7FEFF 		bl	lv_obj_add_style
 558              	.LVL72:
 344:../../Middlewares/LVGL/GUI/lvgl/src/themes/simple/lv_theme_simple.c ****         lv_obj_add_style(obj, &theme->styles.dim, LV_PART_KNOB);
 559              		.loc 1 344 9 view .LVU125
 560 037c 4FF40032 		mov	r2, #131072
 561 0380 3146     		mov	r1, r6
 562 0382 2046     		mov	r0, r4
 563 0384 FFF7FEFF 		bl	lv_obj_add_style
 564              	.LVL73:
 345:../../Middlewares/LVGL/GUI/lvgl/src/themes/simple/lv_theme_simple.c ****         lv_obj_add_style(obj, &theme->styles.arc_knob, LV_PART_KNOB);
 565              		.loc 1 345 9 view .LVU126
 566 0388 4FF44032 		mov	r2, #196608
 567 038c 05F16401 		add	r1, r5, #100
 568 0390 2046     		mov	r0, r4
 569 0392 FFF7FEFF 		bl	lv_obj_add_style
 570              	.LVL74:
 346:../../Middlewares/LVGL/GUI/lvgl/src/themes/simple/lv_theme_simple.c ****     }
 571              		.loc 1 346 9 view .LVU127
 572 0396 4FF44032 		mov	r2, #196608
ARM GAS  C:\Users\28576\AppData\Local\Temp\ccvXaXdL.s 			page 20


 573 039a 05F18801 		add	r1, r5, #136
 574 039e 2046     		mov	r0, r4
 575 03a0 FFF7FEFF 		bl	lv_obj_add_style
 576              	.LVL75:
 577 03a4 AFE6     		b	.L1
 578              	.LVL76:
 579              	.L22:
 351:../../Middlewares/LVGL/GUI/lvgl/src/themes/simple/lv_theme_simple.c ****         lv_obj_add_style(obj, &theme->styles.light, 0);
 580              		.loc 1 351 10 view .LVU128
 351:../../Middlewares/LVGL/GUI/lvgl/src/themes/simple/lv_theme_simple.c ****         lv_obj_add_style(obj, &theme->styles.light, 0);
 581              		.loc 1 351 13 is_stmt 0 view .LVU129
 582 03a6 6D49     		ldr	r1, .L45+4
 583 03a8 2046     		mov	r0, r4
 584 03aa FFF7FEFF 		bl	lv_obj_check_type
 585              	.LVL77:
 351:../../Middlewares/LVGL/GUI/lvgl/src/themes/simple/lv_theme_simple.c ****         lv_obj_add_style(obj, &theme->styles.light, 0);
 586              		.loc 1 351 12 discriminator 1 view .LVU130
 587 03ae 08B3     		cbz	r0, .L23
 352:../../Middlewares/LVGL/GUI/lvgl/src/themes/simple/lv_theme_simple.c ****         lv_obj_add_style(obj, &theme->styles.transp, 0);
 588              		.loc 1 352 9 is_stmt 1 view .LVU131
 589 03b0 0022     		movs	r2, #0
 590 03b2 05F14C01 		add	r1, r5, #76
 591 03b6 2046     		mov	r0, r4
 592 03b8 FFF7FEFF 		bl	lv_obj_add_style
 593              	.LVL78:
 353:../../Middlewares/LVGL/GUI/lvgl/src/themes/simple/lv_theme_simple.c ****         lv_obj_add_style(obj, &theme->styles.arc_line, 0);
 594              		.loc 1 353 9 view .LVU132
 595 03bc 0022     		movs	r2, #0
 596 03be 05F13401 		add	r1, r5, #52
 597 03c2 2046     		mov	r0, r4
 598 03c4 FFF7FEFF 		bl	lv_obj_add_style
 599              	.LVL79:
 354:../../Middlewares/LVGL/GUI/lvgl/src/themes/simple/lv_theme_simple.c ****         lv_obj_add_style(obj, &theme->styles.dark, LV_PART_INDICATOR);
 600              		.loc 1 354 9 view .LVU133
 354:../../Middlewares/LVGL/GUI/lvgl/src/themes/simple/lv_theme_simple.c ****         lv_obj_add_style(obj, &theme->styles.dark, LV_PART_INDICATOR);
 601              		.loc 1 354 31 is_stmt 0 view .LVU134
 602 03c8 05F17C03 		add	r3, r5, #124
 603 03cc 1E46     		mov	r6, r3
 604              	.LVL80:
 354:../../Middlewares/LVGL/GUI/lvgl/src/themes/simple/lv_theme_simple.c ****         lv_obj_add_style(obj, &theme->styles.dark, LV_PART_INDICATOR);
 605              		.loc 1 354 9 view .LVU135
 606 03ce 0022     		movs	r2, #0
 607 03d0 1946     		mov	r1, r3
 608 03d2 2046     		mov	r0, r4
 609 03d4 FFF7FEFF 		bl	lv_obj_add_style
 610              	.LVL81:
 355:../../Middlewares/LVGL/GUI/lvgl/src/themes/simple/lv_theme_simple.c ****         lv_obj_add_style(obj, &theme->styles.arc_line, LV_PART_INDICATOR);
 611              		.loc 1 355 9 is_stmt 1 view .LVU136
 612 03d8 4FF40032 		mov	r2, #131072
 613 03dc 05F15801 		add	r1, r5, #88
 614 03e0 2046     		mov	r0, r4
 615 03e2 FFF7FEFF 		bl	lv_obj_add_style
 616              	.LVL82:
 356:../../Middlewares/LVGL/GUI/lvgl/src/themes/simple/lv_theme_simple.c ****     }
 617              		.loc 1 356 9 view .LVU137
 618 03e6 4FF40032 		mov	r2, #131072
 619 03ea 3146     		mov	r1, r6
ARM GAS  C:\Users\28576\AppData\Local\Temp\ccvXaXdL.s 			page 21


 620 03ec 2046     		mov	r0, r4
 621 03ee FFF7FEFF 		bl	lv_obj_add_style
 622              	.LVL83:
 623 03f2 88E6     		b	.L1
 624              	.LVL84:
 625              	.L23:
 361:../../Middlewares/LVGL/GUI/lvgl/src/themes/simple/lv_theme_simple.c ****         lv_obj_add_style(obj, &theme->styles.white, 0);
 626              		.loc 1 361 10 view .LVU138
 361:../../Middlewares/LVGL/GUI/lvgl/src/themes/simple/lv_theme_simple.c ****         lv_obj_add_style(obj, &theme->styles.white, 0);
 627              		.loc 1 361 13 is_stmt 0 view .LVU139
 628 03f4 5A49     		ldr	r1, .L45+8
 629 03f6 2046     		mov	r0, r4
 630 03f8 FFF7FEFF 		bl	lv_obj_check_type
 631              	.LVL85:
 361:../../Middlewares/LVGL/GUI/lvgl/src/themes/simple/lv_theme_simple.c ****         lv_obj_add_style(obj, &theme->styles.white, 0);
 632              		.loc 1 361 12 discriminator 1 view .LVU140
 633 03fc 98B1     		cbz	r0, .L24
 362:../../Middlewares/LVGL/GUI/lvgl/src/themes/simple/lv_theme_simple.c ****         lv_obj_add_style(obj, &theme->styles.scrollbar, LV_PART_SCROLLBAR);
 634              		.loc 1 362 9 is_stmt 1 view .LVU141
 635 03fe 0022     		movs	r2, #0
 636 0400 05F14001 		add	r1, r5, #64
 637 0404 2046     		mov	r0, r4
 638 0406 FFF7FEFF 		bl	lv_obj_add_style
 639              	.LVL86:
 363:../../Middlewares/LVGL/GUI/lvgl/src/themes/simple/lv_theme_simple.c ****         lv_obj_add_style(obj, &theme->styles.ta_cursor, LV_PART_CURSOR | LV_STATE_FOCUSED);
 640              		.loc 1 363 9 view .LVU142
 641 040a 4FF48032 		mov	r2, #65536
 642 040e 05F17001 		add	r1, r5, #112
 643 0412 2046     		mov	r0, r4
 644 0414 FFF7FEFF 		bl	lv_obj_add_style
 645              	.LVL87:
 364:../../Middlewares/LVGL/GUI/lvgl/src/themes/simple/lv_theme_simple.c ****     }
 646              		.loc 1 364 9 view .LVU143
 647 0418 524A     		ldr	r2, .L45+12
 648 041a 05F19401 		add	r1, r5, #148
 649 041e 2046     		mov	r0, r4
 650 0420 FFF7FEFF 		bl	lv_obj_add_style
 651              	.LVL88:
 652 0424 6FE6     		b	.L1
 653              	.L24:
 369:../../Middlewares/LVGL/GUI/lvgl/src/themes/simple/lv_theme_simple.c ****         lv_obj_add_style(obj, &theme->styles.light, 0);
 654              		.loc 1 369 10 view .LVU144
 369:../../Middlewares/LVGL/GUI/lvgl/src/themes/simple/lv_theme_simple.c ****         lv_obj_add_style(obj, &theme->styles.light, 0);
 655              		.loc 1 369 13 is_stmt 0 view .LVU145
 656 0426 5049     		ldr	r1, .L45+16
 657 0428 2046     		mov	r0, r4
 658 042a FFF7FEFF 		bl	lv_obj_check_type
 659              	.LVL89:
 369:../../Middlewares/LVGL/GUI/lvgl/src/themes/simple/lv_theme_simple.c ****         lv_obj_add_style(obj, &theme->styles.light, 0);
 660              		.loc 1 369 12 discriminator 1 view .LVU146
 661 042e 30B1     		cbz	r0, .L25
 370:../../Middlewares/LVGL/GUI/lvgl/src/themes/simple/lv_theme_simple.c ****     }
 662              		.loc 1 370 9 is_stmt 1 view .LVU147
 663 0430 0022     		movs	r2, #0
 664 0432 05F14C01 		add	r1, r5, #76
 665 0436 2046     		mov	r0, r4
 666 0438 FFF7FEFF 		bl	lv_obj_add_style
ARM GAS  C:\Users\28576\AppData\Local\Temp\ccvXaXdL.s 			page 22


 667              	.LVL90:
 668 043c 63E6     		b	.L1
 669              	.L25:
 375:../../Middlewares/LVGL/GUI/lvgl/src/themes/simple/lv_theme_simple.c ****         lv_obj_add_style(obj, &theme->styles.scr, 0);
 670              		.loc 1 375 10 view .LVU148
 375:../../Middlewares/LVGL/GUI/lvgl/src/themes/simple/lv_theme_simple.c ****         lv_obj_add_style(obj, &theme->styles.scr, 0);
 671              		.loc 1 375 13 is_stmt 0 view .LVU149
 672 043e 4B49     		ldr	r1, .L45+20
 673 0440 2046     		mov	r0, r4
 674 0442 FFF7FEFF 		bl	lv_obj_check_type
 675              	.LVL91:
 375:../../Middlewares/LVGL/GUI/lvgl/src/themes/simple/lv_theme_simple.c ****         lv_obj_add_style(obj, &theme->styles.scr, 0);
 676              		.loc 1 375 12 discriminator 1 view .LVU150
 677 0446 98B1     		cbz	r0, .L26
 376:../../Middlewares/LVGL/GUI/lvgl/src/themes/simple/lv_theme_simple.c ****         lv_obj_add_style(obj, &theme->styles.white, LV_PART_ITEMS);
 678              		.loc 1 376 9 is_stmt 1 view .LVU151
 679 0448 0022     		movs	r2, #0
 680 044a 05F12801 		add	r1, r5, #40
 681 044e 2046     		mov	r0, r4
 682 0450 FFF7FEFF 		bl	lv_obj_add_style
 683              	.LVL92:
 377:../../Middlewares/LVGL/GUI/lvgl/src/themes/simple/lv_theme_simple.c ****         lv_obj_add_style(obj, &theme->styles.light, LV_PART_ITEMS | LV_STATE_CHECKED);
 684              		.loc 1 377 9 view .LVU152
 685 0454 4FF4A022 		mov	r2, #327680
 686 0458 05F14001 		add	r1, r5, #64
 687 045c 2046     		mov	r0, r4
 688 045e FFF7FEFF 		bl	lv_obj_add_style
 689              	.LVL93:
 378:../../Middlewares/LVGL/GUI/lvgl/src/themes/simple/lv_theme_simple.c ****     }
 690              		.loc 1 378 9 view .LVU153
 691 0462 434A     		ldr	r2, .L45+24
 692 0464 05F14C01 		add	r1, r5, #76
 693 0468 2046     		mov	r0, r4
 694 046a FFF7FEFF 		bl	lv_obj_add_style
 695              	.LVL94:
 696 046e 4AE6     		b	.L1
 697              	.L26:
 382:../../Middlewares/LVGL/GUI/lvgl/src/themes/simple/lv_theme_simple.c ****         lv_obj_add_style(obj, &theme->styles.light, 0);
 698              		.loc 1 382 10 view .LVU154
 382:../../Middlewares/LVGL/GUI/lvgl/src/themes/simple/lv_theme_simple.c ****         lv_obj_add_style(obj, &theme->styles.light, 0);
 699              		.loc 1 382 13 is_stmt 0 view .LVU155
 700 0470 4049     		ldr	r1, .L45+28
 701 0472 2046     		mov	r0, r4
 702 0474 FFF7FEFF 		bl	lv_obj_check_type
 703              	.LVL95:
 382:../../Middlewares/LVGL/GUI/lvgl/src/themes/simple/lv_theme_simple.c ****         lv_obj_add_style(obj, &theme->styles.light, 0);
 704              		.loc 1 382 12 discriminator 1 view .LVU156
 705 0478 90B9     		cbnz	r0, .L41
 387:../../Middlewares/LVGL/GUI/lvgl/src/themes/simple/lv_theme_simple.c **** 
 706              		.loc 1 387 10 is_stmt 1 view .LVU157
 387:../../Middlewares/LVGL/GUI/lvgl/src/themes/simple/lv_theme_simple.c **** 
 707              		.loc 1 387 13 is_stmt 0 view .LVU158
 708 047a 3F49     		ldr	r1, .L45+32
 709 047c 2046     		mov	r0, r4
 710 047e FFF7FEFF 		bl	lv_obj_check_type
 711              	.LVL96:
 387:../../Middlewares/LVGL/GUI/lvgl/src/themes/simple/lv_theme_simple.c **** 
ARM GAS  C:\Users\28576\AppData\Local\Temp\ccvXaXdL.s 			page 23


 712              		.loc 1 387 12 discriminator 1 view .LVU159
 713 0482 0028     		cmp	r0, #0
 714 0484 7FF43FAE 		bne	.L1
 390:../../Middlewares/LVGL/GUI/lvgl/src/themes/simple/lv_theme_simple.c ****         lv_obj_add_style(obj, &theme->styles.dark, 0);
 715              		.loc 1 390 10 is_stmt 1 view .LVU160
 390:../../Middlewares/LVGL/GUI/lvgl/src/themes/simple/lv_theme_simple.c ****         lv_obj_add_style(obj, &theme->styles.dark, 0);
 716              		.loc 1 390 13 is_stmt 0 view .LVU161
 717 0488 3C49     		ldr	r1, .L45+36
 718 048a 2046     		mov	r0, r4
 719 048c FFF7FEFF 		bl	lv_obj_check_type
 720              	.LVL97:
 390:../../Middlewares/LVGL/GUI/lvgl/src/themes/simple/lv_theme_simple.c ****         lv_obj_add_style(obj, &theme->styles.dark, 0);
 721              		.loc 1 390 12 discriminator 1 view .LVU162
 722 0490 A0B1     		cbz	r0, .L28
 391:../../Middlewares/LVGL/GUI/lvgl/src/themes/simple/lv_theme_simple.c **** 
 723              		.loc 1 391 9 is_stmt 1 view .LVU163
 724 0492 0022     		movs	r2, #0
 725 0494 05F15801 		add	r1, r5, #88
 726 0498 2046     		mov	r0, r4
 727 049a FFF7FEFF 		bl	lv_obj_add_style
 728              	.LVL98:
 729 049e 32E6     		b	.L1
 730              	.L41:
 383:../../Middlewares/LVGL/GUI/lvgl/src/themes/simple/lv_theme_simple.c ****         lv_obj_add_style(obj, &theme->styles.scrollbar, LV_PART_SCROLLBAR);
 731              		.loc 1 383 9 view .LVU164
 732 04a0 0022     		movs	r2, #0
 733 04a2 05F14C01 		add	r1, r5, #76
 734 04a6 2046     		mov	r0, r4
 735 04a8 FFF7FEFF 		bl	lv_obj_add_style
 736              	.LVL99:
 384:../../Middlewares/LVGL/GUI/lvgl/src/themes/simple/lv_theme_simple.c ****         return;
 737              		.loc 1 384 9 view .LVU165
 738 04ac 4FF48032 		mov	r2, #65536
 739 04b0 05F17001 		add	r1, r5, #112
 740 04b4 2046     		mov	r0, r4
 741 04b6 FFF7FEFF 		bl	lv_obj_add_style
 742              	.LVL100:
 385:../../Middlewares/LVGL/GUI/lvgl/src/themes/simple/lv_theme_simple.c ****     }
 743              		.loc 1 385 9 view .LVU166
 744 04ba 24E6     		b	.L1
 745              	.L28:
 396:../../Middlewares/LVGL/GUI/lvgl/src/themes/simple/lv_theme_simple.c ****         lv_obj_add_style(obj, &theme->styles.light, 0);
 746              		.loc 1 396 10 view .LVU167
 396:../../Middlewares/LVGL/GUI/lvgl/src/themes/simple/lv_theme_simple.c ****         lv_obj_add_style(obj, &theme->styles.light, 0);
 747              		.loc 1 396 13 is_stmt 0 view .LVU168
 748 04bc 3049     		ldr	r1, .L45+40
 749 04be 2046     		mov	r0, r4
 750 04c0 FFF7FEFF 		bl	lv_obj_check_type
 751              	.LVL101:
 396:../../Middlewares/LVGL/GUI/lvgl/src/themes/simple/lv_theme_simple.c ****         lv_obj_add_style(obj, &theme->styles.light, 0);
 752              		.loc 1 396 12 discriminator 1 view .LVU169
 753 04c4 90B9     		cbnz	r0, .L42
 402:../../Middlewares/LVGL/GUI/lvgl/src/themes/simple/lv_theme_simple.c ****         lv_obj_add_style(obj, &theme->styles.light, 0);
 754              		.loc 1 402 10 is_stmt 1 view .LVU170
 402:../../Middlewares/LVGL/GUI/lvgl/src/themes/simple/lv_theme_simple.c ****         lv_obj_add_style(obj, &theme->styles.light, 0);
 755              		.loc 1 402 13 is_stmt 0 view .LVU171
 756 04c6 2F49     		ldr	r1, .L45+44
ARM GAS  C:\Users\28576\AppData\Local\Temp\ccvXaXdL.s 			page 24


 757 04c8 2046     		mov	r0, r4
 758 04ca FFF7FEFF 		bl	lv_obj_check_type
 759              	.LVL102:
 402:../../Middlewares/LVGL/GUI/lvgl/src/themes/simple/lv_theme_simple.c ****         lv_obj_add_style(obj, &theme->styles.light, 0);
 760              		.loc 1 402 12 discriminator 1 view .LVU172
 761 04ce A0B1     		cbz	r0, .L30
 403:../../Middlewares/LVGL/GUI/lvgl/src/themes/simple/lv_theme_simple.c ****         lv_obj_add_style(obj, &theme->styles.dark, LV_PART_CURSOR);
 762              		.loc 1 403 9 is_stmt 1 view .LVU173
 763 04d0 0022     		movs	r2, #0
 764 04d2 05F14C01 		add	r1, r5, #76
 765 04d6 2046     		mov	r0, r4
 766 04d8 FFF7FEFF 		bl	lv_obj_add_style
 767              	.LVL103:
 404:../../Middlewares/LVGL/GUI/lvgl/src/themes/simple/lv_theme_simple.c ****     }
 768              		.loc 1 404 9 view .LVU174
 769 04dc 4FF4C022 		mov	r2, #393216
 770 04e0 05F15801 		add	r1, r5, #88
 771 04e4 2046     		mov	r0, r4
 772 04e6 FFF7FEFF 		bl	lv_obj_add_style
 773              	.LVL104:
 774 04ea 0CE6     		b	.L1
 775              	.L42:
 397:../../Middlewares/LVGL/GUI/lvgl/src/themes/simple/lv_theme_simple.c ****         return;
 776              		.loc 1 397 9 view .LVU175
 777 04ec 0022     		movs	r2, #0
 778 04ee 05F14C01 		add	r1, r5, #76
 779 04f2 2046     		mov	r0, r4
 780 04f4 FFF7FEFF 		bl	lv_obj_add_style
 781              	.LVL105:
 398:../../Middlewares/LVGL/GUI/lvgl/src/themes/simple/lv_theme_simple.c ****     }
 782              		.loc 1 398 9 view .LVU176
 783 04f8 05E6     		b	.L1
 784              	.L30:
 408:../../Middlewares/LVGL/GUI/lvgl/src/themes/simple/lv_theme_simple.c ****         lv_obj_add_style(obj, &theme->styles.scr, 0);
 785              		.loc 1 408 10 view .LVU177
 408:../../Middlewares/LVGL/GUI/lvgl/src/themes/simple/lv_theme_simple.c ****         lv_obj_add_style(obj, &theme->styles.scr, 0);
 786              		.loc 1 408 13 is_stmt 0 view .LVU178
 787 04fa 2349     		ldr	r1, .L45+48
 788 04fc 2046     		mov	r0, r4
 789 04fe FFF7FEFF 		bl	lv_obj_check_type
 790              	.LVL106:
 408:../../Middlewares/LVGL/GUI/lvgl/src/themes/simple/lv_theme_simple.c ****         lv_obj_add_style(obj, &theme->styles.scr, 0);
 791              		.loc 1 408 12 discriminator 1 view .LVU179
 792 0502 68B1     		cbz	r0, .L31
 409:../../Middlewares/LVGL/GUI/lvgl/src/themes/simple/lv_theme_simple.c ****         lv_obj_add_style(obj, &theme->styles.scrollbar, LV_PART_SCROLLBAR);
 793              		.loc 1 409 9 is_stmt 1 view .LVU180
 794 0504 0022     		movs	r2, #0
 795 0506 05F12801 		add	r1, r5, #40
 796 050a 2046     		mov	r0, r4
 797 050c FFF7FEFF 		bl	lv_obj_add_style
 798              	.LVL107:
 410:../../Middlewares/LVGL/GUI/lvgl/src/themes/simple/lv_theme_simple.c ****     }
 799              		.loc 1 410 9 view .LVU181
 800 0510 4FF48032 		mov	r2, #65536
 801 0514 05F17001 		add	r1, r5, #112
 802 0518 2046     		mov	r0, r4
 803 051a FFF7FEFF 		bl	lv_obj_add_style
ARM GAS  C:\Users\28576\AppData\Local\Temp\ccvXaXdL.s 			page 25


 804              	.LVL108:
 805 051e F2E5     		b	.L1
 806              	.L31:
 412:../../Middlewares/LVGL/GUI/lvgl/src/themes/simple/lv_theme_simple.c ****         lv_obj_add_style(obj, &theme->styles.scrollbar, LV_PART_SCROLLBAR);
 807              		.loc 1 412 10 view .LVU182
 412:../../Middlewares/LVGL/GUI/lvgl/src/themes/simple/lv_theme_simple.c ****         lv_obj_add_style(obj, &theme->styles.scrollbar, LV_PART_SCROLLBAR);
 808              		.loc 1 412 13 is_stmt 0 view .LVU183
 809 0520 1A49     		ldr	r1, .L45+52
 810 0522 2046     		mov	r0, r4
 811 0524 FFF7FEFF 		bl	lv_obj_check_type
 812              	.LVL109:
 412:../../Middlewares/LVGL/GUI/lvgl/src/themes/simple/lv_theme_simple.c ****         lv_obj_add_style(obj, &theme->styles.scrollbar, LV_PART_SCROLLBAR);
 813              		.loc 1 412 12 discriminator 1 view .LVU184
 814 0528 38B1     		cbz	r0, .L32
 413:../../Middlewares/LVGL/GUI/lvgl/src/themes/simple/lv_theme_simple.c ****     }
 815              		.loc 1 413 9 is_stmt 1 view .LVU185
 816 052a 4FF48032 		mov	r2, #65536
 817 052e 05F17001 		add	r1, r5, #112
 818 0532 2046     		mov	r0, r4
 819 0534 FFF7FEFF 		bl	lv_obj_add_style
 820              	.LVL110:
 821 0538 E5E5     		b	.L1
 822              	.L32:
 418:../../Middlewares/LVGL/GUI/lvgl/src/themes/simple/lv_theme_simple.c ****         lv_obj_add_style(obj, &theme->styles.light, 0);
 823              		.loc 1 418 10 view .LVU186
 418:../../Middlewares/LVGL/GUI/lvgl/src/themes/simple/lv_theme_simple.c ****         lv_obj_add_style(obj, &theme->styles.light, 0);
 824              		.loc 1 418 13 is_stmt 0 view .LVU187
 825 053a 1549     		ldr	r1, .L45+56
 826 053c 2046     		mov	r0, r4
 827 053e FFF7FEFF 		bl	lv_obj_check_type
 828              	.LVL111:
 418:../../Middlewares/LVGL/GUI/lvgl/src/themes/simple/lv_theme_simple.c ****         lv_obj_add_style(obj, &theme->styles.light, 0);
 829              		.loc 1 418 12 discriminator 1 view .LVU188
 830 0542 0028     		cmp	r0, #0
 831 0544 3FF4DFAD 		beq	.L1
 419:../../Middlewares/LVGL/GUI/lvgl/src/themes/simple/lv_theme_simple.c ****     }
 832              		.loc 1 419 9 is_stmt 1 view .LVU189
 833 0548 0022     		movs	r2, #0
 834 054a 05F14C01 		add	r1, r5, #76
 835 054e 2046     		mov	r0, r4
 836 0550 FFF7FEFF 		bl	lv_obj_add_style
 837              	.LVL112:
 838 0554 D7E5     		b	.L1
 839              	.L46:
 840 0556 00BF     		.align	2
 841              	.L45:
 842 0558 00000000 		.word	lv_arc_class
 843 055c 00000000 		.word	lv_spinner_class
 844 0560 00000000 		.word	lv_textarea_class
 845 0564 02000600 		.word	393218
 846 0568 00000000 		.word	lv_calendar_class
 847 056c 00000000 		.word	lv_keyboard_class
 848 0570 01000500 		.word	327681
 849 0574 00000000 		.word	lv_list_class
 850 0578 00000000 		.word	lv_list_text_class
 851 057c 00000000 		.word	lv_list_button_class
 852 0580 00000000 		.word	lv_msgbox_class
ARM GAS  C:\Users\28576\AppData\Local\Temp\ccvXaXdL.s 			page 26


 853 0584 00000000 		.word	lv_spinbox_class
 854 0588 00000000 		.word	lv_tileview_class
 855 058c 00000000 		.word	lv_tileview_tile_class
 856 0590 00000000 		.word	lv_led_class
 857              		.cfi_endproc
 858              	.LFE201:
 860              		.section	.text.lv_style_set_pad_all,"ax",%progbits
 861              		.align	1
 862              		.syntax unified
 863              		.thumb
 864              		.thumb_func
 866              	lv_style_set_pad_all:
 867              	.LVL113:
 868              	.LFB10:
 869              		.file 2 "H:/STM32H7/RGB_LVGL/Middlewares/LVGL/GUI/lvgl/src/misc/lv_style.h"
   1:H:/STM32H7/RGB_LVGL/Middlewares/LVGL/GUI/lvgl/src/misc\lv_style.h **** /**
   2:H:/STM32H7/RGB_LVGL/Middlewares/LVGL/GUI/lvgl/src/misc\lv_style.h ****  * @file lv_style.h
   3:H:/STM32H7/RGB_LVGL/Middlewares/LVGL/GUI/lvgl/src/misc\lv_style.h ****  *
   4:H:/STM32H7/RGB_LVGL/Middlewares/LVGL/GUI/lvgl/src/misc\lv_style.h ****  */
   5:H:/STM32H7/RGB_LVGL/Middlewares/LVGL/GUI/lvgl/src/misc\lv_style.h **** 
   6:H:/STM32H7/RGB_LVGL/Middlewares/LVGL/GUI/lvgl/src/misc\lv_style.h **** #ifndef LV_STYLE_H
   7:H:/STM32H7/RGB_LVGL/Middlewares/LVGL/GUI/lvgl/src/misc\lv_style.h **** #define LV_STYLE_H
   8:H:/STM32H7/RGB_LVGL/Middlewares/LVGL/GUI/lvgl/src/misc\lv_style.h **** 
   9:H:/STM32H7/RGB_LVGL/Middlewares/LVGL/GUI/lvgl/src/misc\lv_style.h **** #ifdef __cplusplus
  10:H:/STM32H7/RGB_LVGL/Middlewares/LVGL/GUI/lvgl/src/misc\lv_style.h **** extern "C" {
  11:H:/STM32H7/RGB_LVGL/Middlewares/LVGL/GUI/lvgl/src/misc\lv_style.h **** #endif
  12:H:/STM32H7/RGB_LVGL/Middlewares/LVGL/GUI/lvgl/src/misc\lv_style.h **** 
  13:H:/STM32H7/RGB_LVGL/Middlewares/LVGL/GUI/lvgl/src/misc\lv_style.h **** /*********************
  14:H:/STM32H7/RGB_LVGL/Middlewares/LVGL/GUI/lvgl/src/misc\lv_style.h ****  *      INCLUDES
  15:H:/STM32H7/RGB_LVGL/Middlewares/LVGL/GUI/lvgl/src/misc\lv_style.h ****  *********************/
  16:H:/STM32H7/RGB_LVGL/Middlewares/LVGL/GUI/lvgl/src/misc\lv_style.h **** #include "../font/lv_font.h"
  17:H:/STM32H7/RGB_LVGL/Middlewares/LVGL/GUI/lvgl/src/misc\lv_style.h **** #include "lv_color.h"
  18:H:/STM32H7/RGB_LVGL/Middlewares/LVGL/GUI/lvgl/src/misc\lv_style.h **** #include "lv_area.h"
  19:H:/STM32H7/RGB_LVGL/Middlewares/LVGL/GUI/lvgl/src/misc\lv_style.h **** #include "lv_anim.h"
  20:H:/STM32H7/RGB_LVGL/Middlewares/LVGL/GUI/lvgl/src/misc\lv_style.h **** #include "lv_text.h"
  21:H:/STM32H7/RGB_LVGL/Middlewares/LVGL/GUI/lvgl/src/misc\lv_style.h **** #include "lv_types.h"
  22:H:/STM32H7/RGB_LVGL/Middlewares/LVGL/GUI/lvgl/src/misc\lv_style.h **** #include "lv_assert.h"
  23:H:/STM32H7/RGB_LVGL/Middlewares/LVGL/GUI/lvgl/src/misc\lv_style.h **** #include "lv_bidi.h"
  24:H:/STM32H7/RGB_LVGL/Middlewares/LVGL/GUI/lvgl/src/misc\lv_style.h **** #include "lv_grad.h"
  25:H:/STM32H7/RGB_LVGL/Middlewares/LVGL/GUI/lvgl/src/misc\lv_style.h **** #include "../layouts/lv_layout.h"
  26:H:/STM32H7/RGB_LVGL/Middlewares/LVGL/GUI/lvgl/src/misc\lv_style.h **** 
  27:H:/STM32H7/RGB_LVGL/Middlewares/LVGL/GUI/lvgl/src/misc\lv_style.h **** /*********************
  28:H:/STM32H7/RGB_LVGL/Middlewares/LVGL/GUI/lvgl/src/misc\lv_style.h ****  *      DEFINES
  29:H:/STM32H7/RGB_LVGL/Middlewares/LVGL/GUI/lvgl/src/misc\lv_style.h ****  *********************/
  30:H:/STM32H7/RGB_LVGL/Middlewares/LVGL/GUI/lvgl/src/misc\lv_style.h **** 
  31:H:/STM32H7/RGB_LVGL/Middlewares/LVGL/GUI/lvgl/src/misc\lv_style.h **** #define LV_STYLE_SENTINEL_VALUE     0xAABBCCDD
  32:H:/STM32H7/RGB_LVGL/Middlewares/LVGL/GUI/lvgl/src/misc\lv_style.h **** 
  33:H:/STM32H7/RGB_LVGL/Middlewares/LVGL/GUI/lvgl/src/misc\lv_style.h **** /*
  34:H:/STM32H7/RGB_LVGL/Middlewares/LVGL/GUI/lvgl/src/misc\lv_style.h ****  * Flags for style behavior
  35:H:/STM32H7/RGB_LVGL/Middlewares/LVGL/GUI/lvgl/src/misc\lv_style.h ****  */
  36:H:/STM32H7/RGB_LVGL/Middlewares/LVGL/GUI/lvgl/src/misc\lv_style.h **** #define LV_STYLE_PROP_FLAG_NONE                     (0)       /**< No special behavior */
  37:H:/STM32H7/RGB_LVGL/Middlewares/LVGL/GUI/lvgl/src/misc\lv_style.h **** #define LV_STYLE_PROP_FLAG_INHERITABLE              (1 << 0)  /**< Inherited */
  38:H:/STM32H7/RGB_LVGL/Middlewares/LVGL/GUI/lvgl/src/misc\lv_style.h **** #define LV_STYLE_PROP_FLAG_EXT_DRAW_UPDATE          (1 << 1)  /**< Requires ext. draw size update w
  39:H:/STM32H7/RGB_LVGL/Middlewares/LVGL/GUI/lvgl/src/misc\lv_style.h **** #define LV_STYLE_PROP_FLAG_LAYOUT_UPDATE            (1 << 2)  /**< Requires layout update when chan
  40:H:/STM32H7/RGB_LVGL/Middlewares/LVGL/GUI/lvgl/src/misc\lv_style.h **** #define LV_STYLE_PROP_FLAG_PARENT_LAYOUT_UPDATE     (1 << 3)  /**< Requires layout update on parent
  41:H:/STM32H7/RGB_LVGL/Middlewares/LVGL/GUI/lvgl/src/misc\lv_style.h **** #define LV_STYLE_PROP_FLAG_LAYER_UPDATE             (1 << 4)  /**< Affects layer handling */
  42:H:/STM32H7/RGB_LVGL/Middlewares/LVGL/GUI/lvgl/src/misc\lv_style.h **** #define LV_STYLE_PROP_FLAG_TRANSFORM                (1 << 5)  /**< Affects the object's transformat
ARM GAS  C:\Users\28576\AppData\Local\Temp\ccvXaXdL.s 			page 27


  43:H:/STM32H7/RGB_LVGL/Middlewares/LVGL/GUI/lvgl/src/misc\lv_style.h **** #define LV_STYLE_PROP_FLAG_ALL                      (0x3F)    /**< Indicating all flags */
  44:H:/STM32H7/RGB_LVGL/Middlewares/LVGL/GUI/lvgl/src/misc\lv_style.h **** 
  45:H:/STM32H7/RGB_LVGL/Middlewares/LVGL/GUI/lvgl/src/misc\lv_style.h **** /*
  46:H:/STM32H7/RGB_LVGL/Middlewares/LVGL/GUI/lvgl/src/misc\lv_style.h ****  * Other constants
  47:H:/STM32H7/RGB_LVGL/Middlewares/LVGL/GUI/lvgl/src/misc\lv_style.h ****  */
  48:H:/STM32H7/RGB_LVGL/Middlewares/LVGL/GUI/lvgl/src/misc\lv_style.h **** #define LV_SCALE_NONE            256        /**< Value for not zooming the image */
  49:H:/STM32H7/RGB_LVGL/Middlewares/LVGL/GUI/lvgl/src/misc\lv_style.h **** LV_EXPORT_CONST_INT(LV_SCALE_NONE);
  50:H:/STM32H7/RGB_LVGL/Middlewares/LVGL/GUI/lvgl/src/misc\lv_style.h **** 
  51:H:/STM32H7/RGB_LVGL/Middlewares/LVGL/GUI/lvgl/src/misc\lv_style.h **** // *INDENT-OFF*
  52:H:/STM32H7/RGB_LVGL/Middlewares/LVGL/GUI/lvgl/src/misc\lv_style.h **** #if LV_USE_ASSERT_STYLE
  53:H:/STM32H7/RGB_LVGL/Middlewares/LVGL/GUI/lvgl/src/misc\lv_style.h **** #define LV_STYLE_CONST_INIT(var_name, prop_array)                       \
  54:H:/STM32H7/RGB_LVGL/Middlewares/LVGL/GUI/lvgl/src/misc\lv_style.h ****     const lv_style_t var_name = {                                       \
  55:H:/STM32H7/RGB_LVGL/Middlewares/LVGL/GUI/lvgl/src/misc\lv_style.h ****         .sentinel = LV_STYLE_SENTINEL_VALUE,                            \
  56:H:/STM32H7/RGB_LVGL/Middlewares/LVGL/GUI/lvgl/src/misc\lv_style.h ****         .values_and_props = (void*)prop_array,                          \
  57:H:/STM32H7/RGB_LVGL/Middlewares/LVGL/GUI/lvgl/src/misc\lv_style.h ****         .has_group = 0xFFFFFFFF,                                        \
  58:H:/STM32H7/RGB_LVGL/Middlewares/LVGL/GUI/lvgl/src/misc\lv_style.h ****         .prop_cnt = 255                                                 \
  59:H:/STM32H7/RGB_LVGL/Middlewares/LVGL/GUI/lvgl/src/misc\lv_style.h ****     }
  60:H:/STM32H7/RGB_LVGL/Middlewares/LVGL/GUI/lvgl/src/misc\lv_style.h **** #else
  61:H:/STM32H7/RGB_LVGL/Middlewares/LVGL/GUI/lvgl/src/misc\lv_style.h **** #define LV_STYLE_CONST_INIT(var_name, prop_array)                       \
  62:H:/STM32H7/RGB_LVGL/Middlewares/LVGL/GUI/lvgl/src/misc\lv_style.h ****     const lv_style_t var_name = {                                       \
  63:H:/STM32H7/RGB_LVGL/Middlewares/LVGL/GUI/lvgl/src/misc\lv_style.h ****         .values_and_props = (void*)prop_array,                          \
  64:H:/STM32H7/RGB_LVGL/Middlewares/LVGL/GUI/lvgl/src/misc\lv_style.h ****         .has_group = 0xFFFFFFFF,                                        \
  65:H:/STM32H7/RGB_LVGL/Middlewares/LVGL/GUI/lvgl/src/misc\lv_style.h ****         .prop_cnt = 255,                                                \
  66:H:/STM32H7/RGB_LVGL/Middlewares/LVGL/GUI/lvgl/src/misc\lv_style.h ****     }
  67:H:/STM32H7/RGB_LVGL/Middlewares/LVGL/GUI/lvgl/src/misc\lv_style.h **** #endif
  68:H:/STM32H7/RGB_LVGL/Middlewares/LVGL/GUI/lvgl/src/misc\lv_style.h **** // *INDENT-ON*
  69:H:/STM32H7/RGB_LVGL/Middlewares/LVGL/GUI/lvgl/src/misc\lv_style.h **** 
  70:H:/STM32H7/RGB_LVGL/Middlewares/LVGL/GUI/lvgl/src/misc\lv_style.h **** #define LV_STYLE_CONST_PROPS_END { .prop = LV_STYLE_PROP_INV, .value = { .num = 0 } }
  71:H:/STM32H7/RGB_LVGL/Middlewares/LVGL/GUI/lvgl/src/misc\lv_style.h **** 
  72:H:/STM32H7/RGB_LVGL/Middlewares/LVGL/GUI/lvgl/src/misc\lv_style.h **** #if LV_GRADIENT_MAX_STOPS < 2
  73:H:/STM32H7/RGB_LVGL/Middlewares/LVGL/GUI/lvgl/src/misc\lv_style.h **** #error LVGL needs at least 2 stops for gradients. Please increase the LV_GRADIENT_MAX_STOPS
  74:H:/STM32H7/RGB_LVGL/Middlewares/LVGL/GUI/lvgl/src/misc\lv_style.h **** #endif
  75:H:/STM32H7/RGB_LVGL/Middlewares/LVGL/GUI/lvgl/src/misc\lv_style.h **** 
  76:H:/STM32H7/RGB_LVGL/Middlewares/LVGL/GUI/lvgl/src/misc\lv_style.h **** #define LV_GRAD_LEFT    LV_PCT(0)
  77:H:/STM32H7/RGB_LVGL/Middlewares/LVGL/GUI/lvgl/src/misc\lv_style.h **** #define LV_GRAD_RIGHT   LV_PCT(100)
  78:H:/STM32H7/RGB_LVGL/Middlewares/LVGL/GUI/lvgl/src/misc\lv_style.h **** #define LV_GRAD_TOP     LV_PCT(0)
  79:H:/STM32H7/RGB_LVGL/Middlewares/LVGL/GUI/lvgl/src/misc\lv_style.h **** #define LV_GRAD_BOTTOM  LV_PCT(100)
  80:H:/STM32H7/RGB_LVGL/Middlewares/LVGL/GUI/lvgl/src/misc\lv_style.h **** #define LV_GRAD_CENTER  LV_PCT(50)
  81:H:/STM32H7/RGB_LVGL/Middlewares/LVGL/GUI/lvgl/src/misc\lv_style.h **** 
  82:H:/STM32H7/RGB_LVGL/Middlewares/LVGL/GUI/lvgl/src/misc\lv_style.h **** /**********************
  83:H:/STM32H7/RGB_LVGL/Middlewares/LVGL/GUI/lvgl/src/misc\lv_style.h ****  *      TYPEDEFS
  84:H:/STM32H7/RGB_LVGL/Middlewares/LVGL/GUI/lvgl/src/misc\lv_style.h ****  **********************/
  85:H:/STM32H7/RGB_LVGL/Middlewares/LVGL/GUI/lvgl/src/misc\lv_style.h **** 
  86:H:/STM32H7/RGB_LVGL/Middlewares/LVGL/GUI/lvgl/src/misc\lv_style.h **** /**
  87:H:/STM32H7/RGB_LVGL/Middlewares/LVGL/GUI/lvgl/src/misc\lv_style.h ****  * Possible options for blending opaque drawings
  88:H:/STM32H7/RGB_LVGL/Middlewares/LVGL/GUI/lvgl/src/misc\lv_style.h ****  */
  89:H:/STM32H7/RGB_LVGL/Middlewares/LVGL/GUI/lvgl/src/misc\lv_style.h **** typedef enum {
  90:H:/STM32H7/RGB_LVGL/Middlewares/LVGL/GUI/lvgl/src/misc\lv_style.h ****     LV_BLEND_MODE_NORMAL,     /**< Simply mix according to the opacity value*/
  91:H:/STM32H7/RGB_LVGL/Middlewares/LVGL/GUI/lvgl/src/misc\lv_style.h ****     LV_BLEND_MODE_ADDITIVE,   /**< Add the respective color channels*/
  92:H:/STM32H7/RGB_LVGL/Middlewares/LVGL/GUI/lvgl/src/misc\lv_style.h ****     LV_BLEND_MODE_SUBTRACTIVE,/**< Subtract the foreground from the background*/
  93:H:/STM32H7/RGB_LVGL/Middlewares/LVGL/GUI/lvgl/src/misc\lv_style.h ****     LV_BLEND_MODE_MULTIPLY,   /**< Multiply the foreground and background*/
  94:H:/STM32H7/RGB_LVGL/Middlewares/LVGL/GUI/lvgl/src/misc\lv_style.h ****     LV_BLEND_MODE_DIFFERENCE, /**< Absolute difference between foreground and background*/
  95:H:/STM32H7/RGB_LVGL/Middlewares/LVGL/GUI/lvgl/src/misc\lv_style.h **** } lv_blend_mode_t;
  96:H:/STM32H7/RGB_LVGL/Middlewares/LVGL/GUI/lvgl/src/misc\lv_style.h **** 
  97:H:/STM32H7/RGB_LVGL/Middlewares/LVGL/GUI/lvgl/src/misc\lv_style.h **** /**
  98:H:/STM32H7/RGB_LVGL/Middlewares/LVGL/GUI/lvgl/src/misc\lv_style.h ****  * Some options to apply decorations on texts.
  99:H:/STM32H7/RGB_LVGL/Middlewares/LVGL/GUI/lvgl/src/misc\lv_style.h ****  * 'OR'ed values can be used.
ARM GAS  C:\Users\28576\AppData\Local\Temp\ccvXaXdL.s 			page 28


 100:H:/STM32H7/RGB_LVGL/Middlewares/LVGL/GUI/lvgl/src/misc\lv_style.h ****  */
 101:H:/STM32H7/RGB_LVGL/Middlewares/LVGL/GUI/lvgl/src/misc\lv_style.h **** typedef enum {
 102:H:/STM32H7/RGB_LVGL/Middlewares/LVGL/GUI/lvgl/src/misc\lv_style.h ****     LV_TEXT_DECOR_NONE          = 0x00,
 103:H:/STM32H7/RGB_LVGL/Middlewares/LVGL/GUI/lvgl/src/misc\lv_style.h ****     LV_TEXT_DECOR_UNDERLINE     = 0x01,
 104:H:/STM32H7/RGB_LVGL/Middlewares/LVGL/GUI/lvgl/src/misc\lv_style.h ****     LV_TEXT_DECOR_STRIKETHROUGH = 0x02,
 105:H:/STM32H7/RGB_LVGL/Middlewares/LVGL/GUI/lvgl/src/misc\lv_style.h **** } lv_text_decor_t;
 106:H:/STM32H7/RGB_LVGL/Middlewares/LVGL/GUI/lvgl/src/misc\lv_style.h **** 
 107:H:/STM32H7/RGB_LVGL/Middlewares/LVGL/GUI/lvgl/src/misc\lv_style.h **** /**
 108:H:/STM32H7/RGB_LVGL/Middlewares/LVGL/GUI/lvgl/src/misc\lv_style.h ****  * Selects on which sides border should be drawn
 109:H:/STM32H7/RGB_LVGL/Middlewares/LVGL/GUI/lvgl/src/misc\lv_style.h ****  * 'OR'ed values can be used.
 110:H:/STM32H7/RGB_LVGL/Middlewares/LVGL/GUI/lvgl/src/misc\lv_style.h ****  */
 111:H:/STM32H7/RGB_LVGL/Middlewares/LVGL/GUI/lvgl/src/misc\lv_style.h **** typedef enum {
 112:H:/STM32H7/RGB_LVGL/Middlewares/LVGL/GUI/lvgl/src/misc\lv_style.h ****     LV_BORDER_SIDE_NONE     = 0x00,
 113:H:/STM32H7/RGB_LVGL/Middlewares/LVGL/GUI/lvgl/src/misc\lv_style.h ****     LV_BORDER_SIDE_BOTTOM   = 0x01,
 114:H:/STM32H7/RGB_LVGL/Middlewares/LVGL/GUI/lvgl/src/misc\lv_style.h ****     LV_BORDER_SIDE_TOP      = 0x02,
 115:H:/STM32H7/RGB_LVGL/Middlewares/LVGL/GUI/lvgl/src/misc\lv_style.h ****     LV_BORDER_SIDE_LEFT     = 0x04,
 116:H:/STM32H7/RGB_LVGL/Middlewares/LVGL/GUI/lvgl/src/misc\lv_style.h ****     LV_BORDER_SIDE_RIGHT    = 0x08,
 117:H:/STM32H7/RGB_LVGL/Middlewares/LVGL/GUI/lvgl/src/misc\lv_style.h ****     LV_BORDER_SIDE_FULL     = 0x0F,
 118:H:/STM32H7/RGB_LVGL/Middlewares/LVGL/GUI/lvgl/src/misc\lv_style.h ****     LV_BORDER_SIDE_INTERNAL = 0x10, /**< FOR matrix-like objects (e.g. Button matrix)*/
 119:H:/STM32H7/RGB_LVGL/Middlewares/LVGL/GUI/lvgl/src/misc\lv_style.h **** } lv_border_side_t;
 120:H:/STM32H7/RGB_LVGL/Middlewares/LVGL/GUI/lvgl/src/misc\lv_style.h **** 
 121:H:/STM32H7/RGB_LVGL/Middlewares/LVGL/GUI/lvgl/src/misc\lv_style.h **** /**
 122:H:/STM32H7/RGB_LVGL/Middlewares/LVGL/GUI/lvgl/src/misc\lv_style.h ****  * A common type to handle all the property types in the same way.
 123:H:/STM32H7/RGB_LVGL/Middlewares/LVGL/GUI/lvgl/src/misc\lv_style.h ****  */
 124:H:/STM32H7/RGB_LVGL/Middlewares/LVGL/GUI/lvgl/src/misc\lv_style.h **** typedef union {
 125:H:/STM32H7/RGB_LVGL/Middlewares/LVGL/GUI/lvgl/src/misc\lv_style.h ****     int32_t num;         /**< Number integer number (opacity, enums, booleans or "normal" numbers)*
 126:H:/STM32H7/RGB_LVGL/Middlewares/LVGL/GUI/lvgl/src/misc\lv_style.h ****     const void * ptr;    /**< Constant pointers  (font, cone text, etc)*/
 127:H:/STM32H7/RGB_LVGL/Middlewares/LVGL/GUI/lvgl/src/misc\lv_style.h ****     lv_color_t color;    /**< Colors*/
 128:H:/STM32H7/RGB_LVGL/Middlewares/LVGL/GUI/lvgl/src/misc\lv_style.h **** } lv_style_value_t;
 129:H:/STM32H7/RGB_LVGL/Middlewares/LVGL/GUI/lvgl/src/misc\lv_style.h **** 
 130:H:/STM32H7/RGB_LVGL/Middlewares/LVGL/GUI/lvgl/src/misc\lv_style.h **** /**
 131:H:/STM32H7/RGB_LVGL/Middlewares/LVGL/GUI/lvgl/src/misc\lv_style.h ****  * Enumeration of all built in style properties
 132:H:/STM32H7/RGB_LVGL/Middlewares/LVGL/GUI/lvgl/src/misc\lv_style.h ****  *
 133:H:/STM32H7/RGB_LVGL/Middlewares/LVGL/GUI/lvgl/src/misc\lv_style.h ****  * Props are split into groups of 16. When adding a new prop to a group, ensure it does not overflo
 134:H:/STM32H7/RGB_LVGL/Middlewares/LVGL/GUI/lvgl/src/misc\lv_style.h ****  */
 135:H:/STM32H7/RGB_LVGL/Middlewares/LVGL/GUI/lvgl/src/misc\lv_style.h **** enum {
 136:H:/STM32H7/RGB_LVGL/Middlewares/LVGL/GUI/lvgl/src/misc\lv_style.h ****     LV_STYLE_PROP_INV               = 0,
 137:H:/STM32H7/RGB_LVGL/Middlewares/LVGL/GUI/lvgl/src/misc\lv_style.h **** 
 138:H:/STM32H7/RGB_LVGL/Middlewares/LVGL/GUI/lvgl/src/misc\lv_style.h ****     /*Group 0*/
 139:H:/STM32H7/RGB_LVGL/Middlewares/LVGL/GUI/lvgl/src/misc\lv_style.h ****     LV_STYLE_WIDTH                  = 1,
 140:H:/STM32H7/RGB_LVGL/Middlewares/LVGL/GUI/lvgl/src/misc\lv_style.h ****     LV_STYLE_HEIGHT                 = 2,
 141:H:/STM32H7/RGB_LVGL/Middlewares/LVGL/GUI/lvgl/src/misc\lv_style.h ****     LV_STYLE_LENGTH                 = 3,
 142:H:/STM32H7/RGB_LVGL/Middlewares/LVGL/GUI/lvgl/src/misc\lv_style.h **** 
 143:H:/STM32H7/RGB_LVGL/Middlewares/LVGL/GUI/lvgl/src/misc\lv_style.h ****     LV_STYLE_MIN_WIDTH              = 4,
 144:H:/STM32H7/RGB_LVGL/Middlewares/LVGL/GUI/lvgl/src/misc\lv_style.h ****     LV_STYLE_MAX_WIDTH              = 5,
 145:H:/STM32H7/RGB_LVGL/Middlewares/LVGL/GUI/lvgl/src/misc\lv_style.h ****     LV_STYLE_MIN_HEIGHT             = 6,
 146:H:/STM32H7/RGB_LVGL/Middlewares/LVGL/GUI/lvgl/src/misc\lv_style.h ****     LV_STYLE_MAX_HEIGHT             = 7,
 147:H:/STM32H7/RGB_LVGL/Middlewares/LVGL/GUI/lvgl/src/misc\lv_style.h **** 
 148:H:/STM32H7/RGB_LVGL/Middlewares/LVGL/GUI/lvgl/src/misc\lv_style.h ****     LV_STYLE_X                      = 8,
 149:H:/STM32H7/RGB_LVGL/Middlewares/LVGL/GUI/lvgl/src/misc\lv_style.h ****     LV_STYLE_Y                      = 9,
 150:H:/STM32H7/RGB_LVGL/Middlewares/LVGL/GUI/lvgl/src/misc\lv_style.h ****     LV_STYLE_ALIGN                  = 10,
 151:H:/STM32H7/RGB_LVGL/Middlewares/LVGL/GUI/lvgl/src/misc\lv_style.h **** 
 152:H:/STM32H7/RGB_LVGL/Middlewares/LVGL/GUI/lvgl/src/misc\lv_style.h ****     LV_STYLE_RADIUS                 = 12,
 153:H:/STM32H7/RGB_LVGL/Middlewares/LVGL/GUI/lvgl/src/misc\lv_style.h ****     LV_STYLE_RADIAL_OFFSET          = 13,
 154:H:/STM32H7/RGB_LVGL/Middlewares/LVGL/GUI/lvgl/src/misc\lv_style.h ****     LV_STYLE_PAD_RADIAL             = 14,
 155:H:/STM32H7/RGB_LVGL/Middlewares/LVGL/GUI/lvgl/src/misc\lv_style.h **** 
 156:H:/STM32H7/RGB_LVGL/Middlewares/LVGL/GUI/lvgl/src/misc\lv_style.h ****     /*Group 1*/
ARM GAS  C:\Users\28576\AppData\Local\Temp\ccvXaXdL.s 			page 29


 157:H:/STM32H7/RGB_LVGL/Middlewares/LVGL/GUI/lvgl/src/misc\lv_style.h ****     LV_STYLE_PAD_TOP                = 16,
 158:H:/STM32H7/RGB_LVGL/Middlewares/LVGL/GUI/lvgl/src/misc\lv_style.h ****     LV_STYLE_PAD_BOTTOM             = 17,
 159:H:/STM32H7/RGB_LVGL/Middlewares/LVGL/GUI/lvgl/src/misc\lv_style.h ****     LV_STYLE_PAD_LEFT               = 18,
 160:H:/STM32H7/RGB_LVGL/Middlewares/LVGL/GUI/lvgl/src/misc\lv_style.h ****     LV_STYLE_PAD_RIGHT              = 19,
 161:H:/STM32H7/RGB_LVGL/Middlewares/LVGL/GUI/lvgl/src/misc\lv_style.h **** 
 162:H:/STM32H7/RGB_LVGL/Middlewares/LVGL/GUI/lvgl/src/misc\lv_style.h ****     LV_STYLE_PAD_ROW                = 20,
 163:H:/STM32H7/RGB_LVGL/Middlewares/LVGL/GUI/lvgl/src/misc\lv_style.h ****     LV_STYLE_PAD_COLUMN             = 21,
 164:H:/STM32H7/RGB_LVGL/Middlewares/LVGL/GUI/lvgl/src/misc\lv_style.h ****     LV_STYLE_LAYOUT                 = 22,
 165:H:/STM32H7/RGB_LVGL/Middlewares/LVGL/GUI/lvgl/src/misc\lv_style.h **** 
 166:H:/STM32H7/RGB_LVGL/Middlewares/LVGL/GUI/lvgl/src/misc\lv_style.h ****     LV_STYLE_MARGIN_TOP             = 24,
 167:H:/STM32H7/RGB_LVGL/Middlewares/LVGL/GUI/lvgl/src/misc\lv_style.h ****     LV_STYLE_MARGIN_BOTTOM          = 25,
 168:H:/STM32H7/RGB_LVGL/Middlewares/LVGL/GUI/lvgl/src/misc\lv_style.h ****     LV_STYLE_MARGIN_LEFT            = 26,
 169:H:/STM32H7/RGB_LVGL/Middlewares/LVGL/GUI/lvgl/src/misc\lv_style.h ****     LV_STYLE_MARGIN_RIGHT           = 27,
 170:H:/STM32H7/RGB_LVGL/Middlewares/LVGL/GUI/lvgl/src/misc\lv_style.h **** 
 171:H:/STM32H7/RGB_LVGL/Middlewares/LVGL/GUI/lvgl/src/misc\lv_style.h ****     /*Group 2*/
 172:H:/STM32H7/RGB_LVGL/Middlewares/LVGL/GUI/lvgl/src/misc\lv_style.h ****     LV_STYLE_BG_COLOR               = 28,
 173:H:/STM32H7/RGB_LVGL/Middlewares/LVGL/GUI/lvgl/src/misc\lv_style.h ****     LV_STYLE_BG_OPA                 = 29,
 174:H:/STM32H7/RGB_LVGL/Middlewares/LVGL/GUI/lvgl/src/misc\lv_style.h **** 
 175:H:/STM32H7/RGB_LVGL/Middlewares/LVGL/GUI/lvgl/src/misc\lv_style.h ****     LV_STYLE_BG_GRAD_DIR            = 32,
 176:H:/STM32H7/RGB_LVGL/Middlewares/LVGL/GUI/lvgl/src/misc\lv_style.h ****     LV_STYLE_BG_MAIN_STOP           = 33,
 177:H:/STM32H7/RGB_LVGL/Middlewares/LVGL/GUI/lvgl/src/misc\lv_style.h ****     LV_STYLE_BG_GRAD_STOP           = 34,
 178:H:/STM32H7/RGB_LVGL/Middlewares/LVGL/GUI/lvgl/src/misc\lv_style.h ****     LV_STYLE_BG_GRAD_COLOR          = 35,
 179:H:/STM32H7/RGB_LVGL/Middlewares/LVGL/GUI/lvgl/src/misc\lv_style.h **** 
 180:H:/STM32H7/RGB_LVGL/Middlewares/LVGL/GUI/lvgl/src/misc\lv_style.h ****     LV_STYLE_BG_MAIN_OPA            = 36,
 181:H:/STM32H7/RGB_LVGL/Middlewares/LVGL/GUI/lvgl/src/misc\lv_style.h ****     LV_STYLE_BG_GRAD_OPA            = 37,
 182:H:/STM32H7/RGB_LVGL/Middlewares/LVGL/GUI/lvgl/src/misc\lv_style.h ****     LV_STYLE_BG_GRAD                = 38,
 183:H:/STM32H7/RGB_LVGL/Middlewares/LVGL/GUI/lvgl/src/misc\lv_style.h ****     LV_STYLE_BASE_DIR               = 39,
 184:H:/STM32H7/RGB_LVGL/Middlewares/LVGL/GUI/lvgl/src/misc\lv_style.h **** 
 185:H:/STM32H7/RGB_LVGL/Middlewares/LVGL/GUI/lvgl/src/misc\lv_style.h ****     LV_STYLE_BG_IMAGE_SRC             = 40,
 186:H:/STM32H7/RGB_LVGL/Middlewares/LVGL/GUI/lvgl/src/misc\lv_style.h ****     LV_STYLE_BG_IMAGE_OPA             = 41,
 187:H:/STM32H7/RGB_LVGL/Middlewares/LVGL/GUI/lvgl/src/misc\lv_style.h ****     LV_STYLE_BG_IMAGE_RECOLOR         = 42,
 188:H:/STM32H7/RGB_LVGL/Middlewares/LVGL/GUI/lvgl/src/misc\lv_style.h ****     LV_STYLE_BG_IMAGE_RECOLOR_OPA     = 43,
 189:H:/STM32H7/RGB_LVGL/Middlewares/LVGL/GUI/lvgl/src/misc\lv_style.h **** 
 190:H:/STM32H7/RGB_LVGL/Middlewares/LVGL/GUI/lvgl/src/misc\lv_style.h ****     LV_STYLE_BG_IMAGE_TILED           = 44,
 191:H:/STM32H7/RGB_LVGL/Middlewares/LVGL/GUI/lvgl/src/misc\lv_style.h ****     LV_STYLE_CLIP_CORNER            = 45,
 192:H:/STM32H7/RGB_LVGL/Middlewares/LVGL/GUI/lvgl/src/misc\lv_style.h **** 
 193:H:/STM32H7/RGB_LVGL/Middlewares/LVGL/GUI/lvgl/src/misc\lv_style.h ****     /*Group 3*/
 194:H:/STM32H7/RGB_LVGL/Middlewares/LVGL/GUI/lvgl/src/misc\lv_style.h ****     LV_STYLE_BORDER_WIDTH           = 48,
 195:H:/STM32H7/RGB_LVGL/Middlewares/LVGL/GUI/lvgl/src/misc\lv_style.h ****     LV_STYLE_BORDER_COLOR           = 49,
 196:H:/STM32H7/RGB_LVGL/Middlewares/LVGL/GUI/lvgl/src/misc\lv_style.h ****     LV_STYLE_BORDER_OPA             = 50,
 197:H:/STM32H7/RGB_LVGL/Middlewares/LVGL/GUI/lvgl/src/misc\lv_style.h **** 
 198:H:/STM32H7/RGB_LVGL/Middlewares/LVGL/GUI/lvgl/src/misc\lv_style.h ****     LV_STYLE_BORDER_SIDE            = 52,
 199:H:/STM32H7/RGB_LVGL/Middlewares/LVGL/GUI/lvgl/src/misc\lv_style.h ****     LV_STYLE_BORDER_POST            = 53,
 200:H:/STM32H7/RGB_LVGL/Middlewares/LVGL/GUI/lvgl/src/misc\lv_style.h **** 
 201:H:/STM32H7/RGB_LVGL/Middlewares/LVGL/GUI/lvgl/src/misc\lv_style.h ****     LV_STYLE_OUTLINE_WIDTH          = 56,
 202:H:/STM32H7/RGB_LVGL/Middlewares/LVGL/GUI/lvgl/src/misc\lv_style.h ****     LV_STYLE_OUTLINE_COLOR          = 57,
 203:H:/STM32H7/RGB_LVGL/Middlewares/LVGL/GUI/lvgl/src/misc\lv_style.h ****     LV_STYLE_OUTLINE_OPA            = 58,
 204:H:/STM32H7/RGB_LVGL/Middlewares/LVGL/GUI/lvgl/src/misc\lv_style.h ****     LV_STYLE_OUTLINE_PAD            = 59,
 205:H:/STM32H7/RGB_LVGL/Middlewares/LVGL/GUI/lvgl/src/misc\lv_style.h **** 
 206:H:/STM32H7/RGB_LVGL/Middlewares/LVGL/GUI/lvgl/src/misc\lv_style.h ****     /*Group 4*/
 207:H:/STM32H7/RGB_LVGL/Middlewares/LVGL/GUI/lvgl/src/misc\lv_style.h ****     LV_STYLE_SHADOW_WIDTH           = 60,
 208:H:/STM32H7/RGB_LVGL/Middlewares/LVGL/GUI/lvgl/src/misc\lv_style.h ****     LV_STYLE_SHADOW_COLOR           = 61,
 209:H:/STM32H7/RGB_LVGL/Middlewares/LVGL/GUI/lvgl/src/misc\lv_style.h ****     LV_STYLE_SHADOW_OPA             = 62,
 210:H:/STM32H7/RGB_LVGL/Middlewares/LVGL/GUI/lvgl/src/misc\lv_style.h **** 
 211:H:/STM32H7/RGB_LVGL/Middlewares/LVGL/GUI/lvgl/src/misc\lv_style.h ****     LV_STYLE_SHADOW_OFFSET_X        = 64,
 212:H:/STM32H7/RGB_LVGL/Middlewares/LVGL/GUI/lvgl/src/misc\lv_style.h ****     LV_STYLE_SHADOW_OFFSET_Y        = 65,
 213:H:/STM32H7/RGB_LVGL/Middlewares/LVGL/GUI/lvgl/src/misc\lv_style.h ****     LV_STYLE_SHADOW_SPREAD          = 66,
ARM GAS  C:\Users\28576\AppData\Local\Temp\ccvXaXdL.s 			page 30


 214:H:/STM32H7/RGB_LVGL/Middlewares/LVGL/GUI/lvgl/src/misc\lv_style.h **** 
 215:H:/STM32H7/RGB_LVGL/Middlewares/LVGL/GUI/lvgl/src/misc\lv_style.h ****     LV_STYLE_IMAGE_OPA                = 68,
 216:H:/STM32H7/RGB_LVGL/Middlewares/LVGL/GUI/lvgl/src/misc\lv_style.h ****     LV_STYLE_IMAGE_RECOLOR            = 69,
 217:H:/STM32H7/RGB_LVGL/Middlewares/LVGL/GUI/lvgl/src/misc\lv_style.h ****     LV_STYLE_IMAGE_RECOLOR_OPA        = 70,
 218:H:/STM32H7/RGB_LVGL/Middlewares/LVGL/GUI/lvgl/src/misc\lv_style.h **** 
 219:H:/STM32H7/RGB_LVGL/Middlewares/LVGL/GUI/lvgl/src/misc\lv_style.h ****     LV_STYLE_LINE_WIDTH             = 72,
 220:H:/STM32H7/RGB_LVGL/Middlewares/LVGL/GUI/lvgl/src/misc\lv_style.h ****     LV_STYLE_LINE_DASH_WIDTH        = 73,
 221:H:/STM32H7/RGB_LVGL/Middlewares/LVGL/GUI/lvgl/src/misc\lv_style.h ****     LV_STYLE_LINE_DASH_GAP          = 74,
 222:H:/STM32H7/RGB_LVGL/Middlewares/LVGL/GUI/lvgl/src/misc\lv_style.h ****     LV_STYLE_LINE_ROUNDED           = 75,
 223:H:/STM32H7/RGB_LVGL/Middlewares/LVGL/GUI/lvgl/src/misc\lv_style.h ****     LV_STYLE_LINE_COLOR             = 76,
 224:H:/STM32H7/RGB_LVGL/Middlewares/LVGL/GUI/lvgl/src/misc\lv_style.h ****     LV_STYLE_LINE_OPA               = 77,
 225:H:/STM32H7/RGB_LVGL/Middlewares/LVGL/GUI/lvgl/src/misc\lv_style.h **** 
 226:H:/STM32H7/RGB_LVGL/Middlewares/LVGL/GUI/lvgl/src/misc\lv_style.h ****     /*Group 5*/
 227:H:/STM32H7/RGB_LVGL/Middlewares/LVGL/GUI/lvgl/src/misc\lv_style.h ****     LV_STYLE_ARC_WIDTH              = 80,
 228:H:/STM32H7/RGB_LVGL/Middlewares/LVGL/GUI/lvgl/src/misc\lv_style.h ****     LV_STYLE_ARC_ROUNDED            = 81,
 229:H:/STM32H7/RGB_LVGL/Middlewares/LVGL/GUI/lvgl/src/misc\lv_style.h ****     LV_STYLE_ARC_COLOR              = 82,
 230:H:/STM32H7/RGB_LVGL/Middlewares/LVGL/GUI/lvgl/src/misc\lv_style.h ****     LV_STYLE_ARC_OPA                = 83,
 231:H:/STM32H7/RGB_LVGL/Middlewares/LVGL/GUI/lvgl/src/misc\lv_style.h ****     LV_STYLE_ARC_IMAGE_SRC            = 84,
 232:H:/STM32H7/RGB_LVGL/Middlewares/LVGL/GUI/lvgl/src/misc\lv_style.h **** 
 233:H:/STM32H7/RGB_LVGL/Middlewares/LVGL/GUI/lvgl/src/misc\lv_style.h ****     LV_STYLE_TEXT_COLOR             = 88,
 234:H:/STM32H7/RGB_LVGL/Middlewares/LVGL/GUI/lvgl/src/misc\lv_style.h ****     LV_STYLE_TEXT_OPA               = 89,
 235:H:/STM32H7/RGB_LVGL/Middlewares/LVGL/GUI/lvgl/src/misc\lv_style.h ****     LV_STYLE_TEXT_FONT              = 90,
 236:H:/STM32H7/RGB_LVGL/Middlewares/LVGL/GUI/lvgl/src/misc\lv_style.h **** 
 237:H:/STM32H7/RGB_LVGL/Middlewares/LVGL/GUI/lvgl/src/misc\lv_style.h ****     LV_STYLE_TEXT_LETTER_SPACE      = 91,
 238:H:/STM32H7/RGB_LVGL/Middlewares/LVGL/GUI/lvgl/src/misc\lv_style.h ****     LV_STYLE_TEXT_LINE_SPACE        = 92,
 239:H:/STM32H7/RGB_LVGL/Middlewares/LVGL/GUI/lvgl/src/misc\lv_style.h ****     LV_STYLE_TEXT_DECOR             = 93,
 240:H:/STM32H7/RGB_LVGL/Middlewares/LVGL/GUI/lvgl/src/misc\lv_style.h ****     LV_STYLE_TEXT_ALIGN             = 94,
 241:H:/STM32H7/RGB_LVGL/Middlewares/LVGL/GUI/lvgl/src/misc\lv_style.h ****     LV_STYLE_TEXT_OUTLINE_STROKE_WIDTH = 95,
 242:H:/STM32H7/RGB_LVGL/Middlewares/LVGL/GUI/lvgl/src/misc\lv_style.h ****     LV_STYLE_TEXT_OUTLINE_STROKE_OPA   = 96,
 243:H:/STM32H7/RGB_LVGL/Middlewares/LVGL/GUI/lvgl/src/misc\lv_style.h ****     LV_STYLE_TEXT_OUTLINE_STROKE_COLOR = 97,
 244:H:/STM32H7/RGB_LVGL/Middlewares/LVGL/GUI/lvgl/src/misc\lv_style.h **** 
 245:H:/STM32H7/RGB_LVGL/Middlewares/LVGL/GUI/lvgl/src/misc\lv_style.h ****     LV_STYLE_OPA                    = 98,
 246:H:/STM32H7/RGB_LVGL/Middlewares/LVGL/GUI/lvgl/src/misc\lv_style.h ****     LV_STYLE_OPA_LAYERED            = 99,
 247:H:/STM32H7/RGB_LVGL/Middlewares/LVGL/GUI/lvgl/src/misc\lv_style.h ****     LV_STYLE_COLOR_FILTER_DSC       = 100,
 248:H:/STM32H7/RGB_LVGL/Middlewares/LVGL/GUI/lvgl/src/misc\lv_style.h ****     LV_STYLE_COLOR_FILTER_OPA       = 101,
 249:H:/STM32H7/RGB_LVGL/Middlewares/LVGL/GUI/lvgl/src/misc\lv_style.h ****     LV_STYLE_ANIM                   = 102,
 250:H:/STM32H7/RGB_LVGL/Middlewares/LVGL/GUI/lvgl/src/misc\lv_style.h ****     LV_STYLE_ANIM_DURATION          = 103,
 251:H:/STM32H7/RGB_LVGL/Middlewares/LVGL/GUI/lvgl/src/misc\lv_style.h ****     LV_STYLE_TRANSITION             = 104,
 252:H:/STM32H7/RGB_LVGL/Middlewares/LVGL/GUI/lvgl/src/misc\lv_style.h ****     LV_STYLE_BLEND_MODE             = 105,
 253:H:/STM32H7/RGB_LVGL/Middlewares/LVGL/GUI/lvgl/src/misc\lv_style.h ****     LV_STYLE_TRANSFORM_WIDTH        = 106,
 254:H:/STM32H7/RGB_LVGL/Middlewares/LVGL/GUI/lvgl/src/misc\lv_style.h ****     LV_STYLE_TRANSFORM_HEIGHT       = 107,
 255:H:/STM32H7/RGB_LVGL/Middlewares/LVGL/GUI/lvgl/src/misc\lv_style.h ****     LV_STYLE_TRANSLATE_X            = 108,
 256:H:/STM32H7/RGB_LVGL/Middlewares/LVGL/GUI/lvgl/src/misc\lv_style.h ****     LV_STYLE_TRANSLATE_Y            = 109,
 257:H:/STM32H7/RGB_LVGL/Middlewares/LVGL/GUI/lvgl/src/misc\lv_style.h ****     LV_STYLE_TRANSFORM_SCALE_X      = 110,
 258:H:/STM32H7/RGB_LVGL/Middlewares/LVGL/GUI/lvgl/src/misc\lv_style.h ****     LV_STYLE_TRANSFORM_SCALE_Y      = 111,
 259:H:/STM32H7/RGB_LVGL/Middlewares/LVGL/GUI/lvgl/src/misc\lv_style.h ****     LV_STYLE_TRANSFORM_ROTATION     = 112,
 260:H:/STM32H7/RGB_LVGL/Middlewares/LVGL/GUI/lvgl/src/misc\lv_style.h ****     LV_STYLE_TRANSFORM_PIVOT_X      = 113,
 261:H:/STM32H7/RGB_LVGL/Middlewares/LVGL/GUI/lvgl/src/misc\lv_style.h ****     LV_STYLE_TRANSFORM_PIVOT_Y      = 114,
 262:H:/STM32H7/RGB_LVGL/Middlewares/LVGL/GUI/lvgl/src/misc\lv_style.h ****     LV_STYLE_TRANSFORM_SKEW_X       = 115,
 263:H:/STM32H7/RGB_LVGL/Middlewares/LVGL/GUI/lvgl/src/misc\lv_style.h ****     LV_STYLE_TRANSFORM_SKEW_Y       = 116,
 264:H:/STM32H7/RGB_LVGL/Middlewares/LVGL/GUI/lvgl/src/misc\lv_style.h ****     LV_STYLE_BITMAP_MASK_SRC        = 117,
 265:H:/STM32H7/RGB_LVGL/Middlewares/LVGL/GUI/lvgl/src/misc\lv_style.h ****     LV_STYLE_ROTARY_SENSITIVITY     = 118,
 266:H:/STM32H7/RGB_LVGL/Middlewares/LVGL/GUI/lvgl/src/misc\lv_style.h ****     LV_STYLE_TRANSLATE_RADIAL       = 119,
 267:H:/STM32H7/RGB_LVGL/Middlewares/LVGL/GUI/lvgl/src/misc\lv_style.h ****     LV_STYLE_RECOLOR                = 120,
 268:H:/STM32H7/RGB_LVGL/Middlewares/LVGL/GUI/lvgl/src/misc\lv_style.h ****     LV_STYLE_RECOLOR_OPA            = 121,
 269:H:/STM32H7/RGB_LVGL/Middlewares/LVGL/GUI/lvgl/src/misc\lv_style.h **** 
 270:H:/STM32H7/RGB_LVGL/Middlewares/LVGL/GUI/lvgl/src/misc\lv_style.h ****     LV_STYLE_FLEX_FLOW              = 122,
ARM GAS  C:\Users\28576\AppData\Local\Temp\ccvXaXdL.s 			page 31


 271:H:/STM32H7/RGB_LVGL/Middlewares/LVGL/GUI/lvgl/src/misc\lv_style.h ****     LV_STYLE_FLEX_MAIN_PLACE        = 123,
 272:H:/STM32H7/RGB_LVGL/Middlewares/LVGL/GUI/lvgl/src/misc\lv_style.h ****     LV_STYLE_FLEX_CROSS_PLACE       = 124,
 273:H:/STM32H7/RGB_LVGL/Middlewares/LVGL/GUI/lvgl/src/misc\lv_style.h ****     LV_STYLE_FLEX_TRACK_PLACE       = 125,
 274:H:/STM32H7/RGB_LVGL/Middlewares/LVGL/GUI/lvgl/src/misc\lv_style.h ****     LV_STYLE_FLEX_GROW              = 126,
 275:H:/STM32H7/RGB_LVGL/Middlewares/LVGL/GUI/lvgl/src/misc\lv_style.h **** 
 276:H:/STM32H7/RGB_LVGL/Middlewares/LVGL/GUI/lvgl/src/misc\lv_style.h ****     LV_STYLE_GRID_COLUMN_ALIGN      = 127,
 277:H:/STM32H7/RGB_LVGL/Middlewares/LVGL/GUI/lvgl/src/misc\lv_style.h ****     LV_STYLE_GRID_ROW_ALIGN         = 128,
 278:H:/STM32H7/RGB_LVGL/Middlewares/LVGL/GUI/lvgl/src/misc\lv_style.h ****     LV_STYLE_GRID_ROW_DSC_ARRAY     = 129,
 279:H:/STM32H7/RGB_LVGL/Middlewares/LVGL/GUI/lvgl/src/misc\lv_style.h ****     LV_STYLE_GRID_COLUMN_DSC_ARRAY  = 130,
 280:H:/STM32H7/RGB_LVGL/Middlewares/LVGL/GUI/lvgl/src/misc\lv_style.h ****     LV_STYLE_GRID_CELL_COLUMN_POS   = 131,
 281:H:/STM32H7/RGB_LVGL/Middlewares/LVGL/GUI/lvgl/src/misc\lv_style.h ****     LV_STYLE_GRID_CELL_COLUMN_SPAN  = 132,
 282:H:/STM32H7/RGB_LVGL/Middlewares/LVGL/GUI/lvgl/src/misc\lv_style.h ****     LV_STYLE_GRID_CELL_X_ALIGN      = 133,
 283:H:/STM32H7/RGB_LVGL/Middlewares/LVGL/GUI/lvgl/src/misc\lv_style.h ****     LV_STYLE_GRID_CELL_ROW_POS      = 134,
 284:H:/STM32H7/RGB_LVGL/Middlewares/LVGL/GUI/lvgl/src/misc\lv_style.h ****     LV_STYLE_GRID_CELL_ROW_SPAN     = 135,
 285:H:/STM32H7/RGB_LVGL/Middlewares/LVGL/GUI/lvgl/src/misc\lv_style.h ****     LV_STYLE_GRID_CELL_Y_ALIGN      = 136,
 286:H:/STM32H7/RGB_LVGL/Middlewares/LVGL/GUI/lvgl/src/misc\lv_style.h **** 
 287:H:/STM32H7/RGB_LVGL/Middlewares/LVGL/GUI/lvgl/src/misc\lv_style.h ****     LV_STYLE_LAST_BUILT_IN_PROP     = 137,
 288:H:/STM32H7/RGB_LVGL/Middlewares/LVGL/GUI/lvgl/src/misc\lv_style.h **** 
 289:H:/STM32H7/RGB_LVGL/Middlewares/LVGL/GUI/lvgl/src/misc\lv_style.h ****     LV_STYLE_NUM_BUILT_IN_PROPS     = LV_STYLE_LAST_BUILT_IN_PROP + 1,
 290:H:/STM32H7/RGB_LVGL/Middlewares/LVGL/GUI/lvgl/src/misc\lv_style.h **** 
 291:H:/STM32H7/RGB_LVGL/Middlewares/LVGL/GUI/lvgl/src/misc\lv_style.h ****     LV_STYLE_PROP_ANY                = 0xFF,
 292:H:/STM32H7/RGB_LVGL/Middlewares/LVGL/GUI/lvgl/src/misc\lv_style.h ****     LV_STYLE_PROP_CONST             = 0xFF /* magic value for const styles */
 293:H:/STM32H7/RGB_LVGL/Middlewares/LVGL/GUI/lvgl/src/misc\lv_style.h **** };
 294:H:/STM32H7/RGB_LVGL/Middlewares/LVGL/GUI/lvgl/src/misc\lv_style.h **** 
 295:H:/STM32H7/RGB_LVGL/Middlewares/LVGL/GUI/lvgl/src/misc\lv_style.h **** typedef enum {
 296:H:/STM32H7/RGB_LVGL/Middlewares/LVGL/GUI/lvgl/src/misc\lv_style.h ****     LV_STYLE_RES_NOT_FOUND,
 297:H:/STM32H7/RGB_LVGL/Middlewares/LVGL/GUI/lvgl/src/misc\lv_style.h ****     LV_STYLE_RES_FOUND,
 298:H:/STM32H7/RGB_LVGL/Middlewares/LVGL/GUI/lvgl/src/misc\lv_style.h **** } lv_style_res_t;
 299:H:/STM32H7/RGB_LVGL/Middlewares/LVGL/GUI/lvgl/src/misc\lv_style.h **** 
 300:H:/STM32H7/RGB_LVGL/Middlewares/LVGL/GUI/lvgl/src/misc\lv_style.h **** /**
 301:H:/STM32H7/RGB_LVGL/Middlewares/LVGL/GUI/lvgl/src/misc\lv_style.h ****  * Descriptor for style transitions
 302:H:/STM32H7/RGB_LVGL/Middlewares/LVGL/GUI/lvgl/src/misc\lv_style.h ****  */
 303:H:/STM32H7/RGB_LVGL/Middlewares/LVGL/GUI/lvgl/src/misc\lv_style.h **** typedef struct {
 304:H:/STM32H7/RGB_LVGL/Middlewares/LVGL/GUI/lvgl/src/misc\lv_style.h ****     const lv_style_prop_t * props; /**< An array with the properties to animate.*/
 305:H:/STM32H7/RGB_LVGL/Middlewares/LVGL/GUI/lvgl/src/misc\lv_style.h ****     void * user_data;              /**< A custom user data that will be passed to the animation's u
 306:H:/STM32H7/RGB_LVGL/Middlewares/LVGL/GUI/lvgl/src/misc\lv_style.h ****     lv_anim_path_cb_t path_xcb;    /**< A path for the animation.*/
 307:H:/STM32H7/RGB_LVGL/Middlewares/LVGL/GUI/lvgl/src/misc\lv_style.h ****     uint32_t time;                 /**< Duration of the transition in [ms]*/
 308:H:/STM32H7/RGB_LVGL/Middlewares/LVGL/GUI/lvgl/src/misc\lv_style.h ****     uint32_t delay;                /**< Delay before the transition in [ms]*/
 309:H:/STM32H7/RGB_LVGL/Middlewares/LVGL/GUI/lvgl/src/misc\lv_style.h **** } lv_style_transition_dsc_t;
 310:H:/STM32H7/RGB_LVGL/Middlewares/LVGL/GUI/lvgl/src/misc\lv_style.h **** 
 311:H:/STM32H7/RGB_LVGL/Middlewares/LVGL/GUI/lvgl/src/misc\lv_style.h **** /**
 312:H:/STM32H7/RGB_LVGL/Middlewares/LVGL/GUI/lvgl/src/misc\lv_style.h ****  * Descriptor of a constant style property.
 313:H:/STM32H7/RGB_LVGL/Middlewares/LVGL/GUI/lvgl/src/misc\lv_style.h ****  */
 314:H:/STM32H7/RGB_LVGL/Middlewares/LVGL/GUI/lvgl/src/misc\lv_style.h **** typedef struct {
 315:H:/STM32H7/RGB_LVGL/Middlewares/LVGL/GUI/lvgl/src/misc\lv_style.h ****     lv_style_prop_t prop;
 316:H:/STM32H7/RGB_LVGL/Middlewares/LVGL/GUI/lvgl/src/misc\lv_style.h ****     lv_style_value_t value;
 317:H:/STM32H7/RGB_LVGL/Middlewares/LVGL/GUI/lvgl/src/misc\lv_style.h **** } lv_style_const_prop_t;
 318:H:/STM32H7/RGB_LVGL/Middlewares/LVGL/GUI/lvgl/src/misc\lv_style.h **** 
 319:H:/STM32H7/RGB_LVGL/Middlewares/LVGL/GUI/lvgl/src/misc\lv_style.h **** /**
 320:H:/STM32H7/RGB_LVGL/Middlewares/LVGL/GUI/lvgl/src/misc\lv_style.h ****  * Descriptor of a style (a collection of properties and values).
 321:H:/STM32H7/RGB_LVGL/Middlewares/LVGL/GUI/lvgl/src/misc\lv_style.h ****  */
 322:H:/STM32H7/RGB_LVGL/Middlewares/LVGL/GUI/lvgl/src/misc\lv_style.h **** typedef struct {
 323:H:/STM32H7/RGB_LVGL/Middlewares/LVGL/GUI/lvgl/src/misc\lv_style.h **** 
 324:H:/STM32H7/RGB_LVGL/Middlewares/LVGL/GUI/lvgl/src/misc\lv_style.h **** #if LV_USE_ASSERT_STYLE
 325:H:/STM32H7/RGB_LVGL/Middlewares/LVGL/GUI/lvgl/src/misc\lv_style.h ****     uint32_t sentinel;
 326:H:/STM32H7/RGB_LVGL/Middlewares/LVGL/GUI/lvgl/src/misc\lv_style.h **** #endif
 327:H:/STM32H7/RGB_LVGL/Middlewares/LVGL/GUI/lvgl/src/misc\lv_style.h **** 
ARM GAS  C:\Users\28576\AppData\Local\Temp\ccvXaXdL.s 			page 32


 328:H:/STM32H7/RGB_LVGL/Middlewares/LVGL/GUI/lvgl/src/misc\lv_style.h ****     void * values_and_props;
 329:H:/STM32H7/RGB_LVGL/Middlewares/LVGL/GUI/lvgl/src/misc\lv_style.h **** 
 330:H:/STM32H7/RGB_LVGL/Middlewares/LVGL/GUI/lvgl/src/misc\lv_style.h ****     uint32_t has_group;
 331:H:/STM32H7/RGB_LVGL/Middlewares/LVGL/GUI/lvgl/src/misc\lv_style.h ****     uint8_t prop_cnt;   /**< 255 means it's a constant style*/
 332:H:/STM32H7/RGB_LVGL/Middlewares/LVGL/GUI/lvgl/src/misc\lv_style.h **** } lv_style_t;
 333:H:/STM32H7/RGB_LVGL/Middlewares/LVGL/GUI/lvgl/src/misc\lv_style.h **** 
 334:H:/STM32H7/RGB_LVGL/Middlewares/LVGL/GUI/lvgl/src/misc\lv_style.h **** /**********************
 335:H:/STM32H7/RGB_LVGL/Middlewares/LVGL/GUI/lvgl/src/misc\lv_style.h ****  * GLOBAL PROTOTYPES
 336:H:/STM32H7/RGB_LVGL/Middlewares/LVGL/GUI/lvgl/src/misc\lv_style.h ****  **********************/
 337:H:/STM32H7/RGB_LVGL/Middlewares/LVGL/GUI/lvgl/src/misc\lv_style.h **** 
 338:H:/STM32H7/RGB_LVGL/Middlewares/LVGL/GUI/lvgl/src/misc\lv_style.h **** /**
 339:H:/STM32H7/RGB_LVGL/Middlewares/LVGL/GUI/lvgl/src/misc\lv_style.h ****  * Initialize a style
 340:H:/STM32H7/RGB_LVGL/Middlewares/LVGL/GUI/lvgl/src/misc\lv_style.h ****  * @param style pointer to a style to initialize
 341:H:/STM32H7/RGB_LVGL/Middlewares/LVGL/GUI/lvgl/src/misc\lv_style.h ****  * @note Do not call `lv_style_init` on styles that already have some properties
 342:H:/STM32H7/RGB_LVGL/Middlewares/LVGL/GUI/lvgl/src/misc\lv_style.h ****  *       because this function won't free the used memory, just sets a default state for the style.
 343:H:/STM32H7/RGB_LVGL/Middlewares/LVGL/GUI/lvgl/src/misc\lv_style.h ****  *       In other words be sure to initialize styles only once!
 344:H:/STM32H7/RGB_LVGL/Middlewares/LVGL/GUI/lvgl/src/misc\lv_style.h ****  */
 345:H:/STM32H7/RGB_LVGL/Middlewares/LVGL/GUI/lvgl/src/misc\lv_style.h **** void lv_style_init(lv_style_t * style);
 346:H:/STM32H7/RGB_LVGL/Middlewares/LVGL/GUI/lvgl/src/misc\lv_style.h **** 
 347:H:/STM32H7/RGB_LVGL/Middlewares/LVGL/GUI/lvgl/src/misc\lv_style.h **** /**
 348:H:/STM32H7/RGB_LVGL/Middlewares/LVGL/GUI/lvgl/src/misc\lv_style.h ****  * Clear all properties from a style and free all allocated memories.
 349:H:/STM32H7/RGB_LVGL/Middlewares/LVGL/GUI/lvgl/src/misc\lv_style.h ****  * @param style pointer to a style
 350:H:/STM32H7/RGB_LVGL/Middlewares/LVGL/GUI/lvgl/src/misc\lv_style.h ****  */
 351:H:/STM32H7/RGB_LVGL/Middlewares/LVGL/GUI/lvgl/src/misc\lv_style.h **** void lv_style_reset(lv_style_t * style);
 352:H:/STM32H7/RGB_LVGL/Middlewares/LVGL/GUI/lvgl/src/misc\lv_style.h **** 
 353:H:/STM32H7/RGB_LVGL/Middlewares/LVGL/GUI/lvgl/src/misc\lv_style.h **** /**
 354:H:/STM32H7/RGB_LVGL/Middlewares/LVGL/GUI/lvgl/src/misc\lv_style.h ****  * Copy all properties of a style to an other.
 355:H:/STM32H7/RGB_LVGL/Middlewares/LVGL/GUI/lvgl/src/misc\lv_style.h ****  * It has the same affect callying the same `lv_set_style_...`
 356:H:/STM32H7/RGB_LVGL/Middlewares/LVGL/GUI/lvgl/src/misc\lv_style.h ****  * functions on both styles.
 357:H:/STM32H7/RGB_LVGL/Middlewares/LVGL/GUI/lvgl/src/misc\lv_style.h ****  * It means new memory will be allocated to store the properties in
 358:H:/STM32H7/RGB_LVGL/Middlewares/LVGL/GUI/lvgl/src/misc\lv_style.h ****  * the destination style.
 359:H:/STM32H7/RGB_LVGL/Middlewares/LVGL/GUI/lvgl/src/misc\lv_style.h ****  * After the copy the destination style is fully independent of the source
 360:H:/STM32H7/RGB_LVGL/Middlewares/LVGL/GUI/lvgl/src/misc\lv_style.h ****  * and source can removed without affecting the destination style.
 361:H:/STM32H7/RGB_LVGL/Middlewares/LVGL/GUI/lvgl/src/misc\lv_style.h ****  * @param dst   the destination to copy into (can not the a constant style)
 362:H:/STM32H7/RGB_LVGL/Middlewares/LVGL/GUI/lvgl/src/misc\lv_style.h ****  * @param src   the source style to copy from.
 363:H:/STM32H7/RGB_LVGL/Middlewares/LVGL/GUI/lvgl/src/misc\lv_style.h ****  */
 364:H:/STM32H7/RGB_LVGL/Middlewares/LVGL/GUI/lvgl/src/misc\lv_style.h **** void lv_style_copy(lv_style_t * dst, const lv_style_t * src);
 365:H:/STM32H7/RGB_LVGL/Middlewares/LVGL/GUI/lvgl/src/misc\lv_style.h **** 
 366:H:/STM32H7/RGB_LVGL/Middlewares/LVGL/GUI/lvgl/src/misc\lv_style.h **** 
 367:H:/STM32H7/RGB_LVGL/Middlewares/LVGL/GUI/lvgl/src/misc\lv_style.h **** /**
 368:H:/STM32H7/RGB_LVGL/Middlewares/LVGL/GUI/lvgl/src/misc\lv_style.h ****  * Check if a style is constant
 369:H:/STM32H7/RGB_LVGL/Middlewares/LVGL/GUI/lvgl/src/misc\lv_style.h ****  * @param style     pointer to a style
 370:H:/STM32H7/RGB_LVGL/Middlewares/LVGL/GUI/lvgl/src/misc\lv_style.h ****  * @return          true: the style is constant
 371:H:/STM32H7/RGB_LVGL/Middlewares/LVGL/GUI/lvgl/src/misc\lv_style.h ****  */
 372:H:/STM32H7/RGB_LVGL/Middlewares/LVGL/GUI/lvgl/src/misc\lv_style.h **** static inline bool lv_style_is_const(const lv_style_t * style)
 373:H:/STM32H7/RGB_LVGL/Middlewares/LVGL/GUI/lvgl/src/misc\lv_style.h **** {
 374:H:/STM32H7/RGB_LVGL/Middlewares/LVGL/GUI/lvgl/src/misc\lv_style.h ****     if(style->prop_cnt == 255) return true;
 375:H:/STM32H7/RGB_LVGL/Middlewares/LVGL/GUI/lvgl/src/misc\lv_style.h ****     return false;
 376:H:/STM32H7/RGB_LVGL/Middlewares/LVGL/GUI/lvgl/src/misc\lv_style.h **** }
 377:H:/STM32H7/RGB_LVGL/Middlewares/LVGL/GUI/lvgl/src/misc\lv_style.h **** 
 378:H:/STM32H7/RGB_LVGL/Middlewares/LVGL/GUI/lvgl/src/misc\lv_style.h **** 
 379:H:/STM32H7/RGB_LVGL/Middlewares/LVGL/GUI/lvgl/src/misc\lv_style.h **** /**
 380:H:/STM32H7/RGB_LVGL/Middlewares/LVGL/GUI/lvgl/src/misc\lv_style.h ****  * Register a new style property for custom usage
 381:H:/STM32H7/RGB_LVGL/Middlewares/LVGL/GUI/lvgl/src/misc\lv_style.h ****  * @return a new property ID, or LV_STYLE_PROP_INV if there are no more available.
 382:H:/STM32H7/RGB_LVGL/Middlewares/LVGL/GUI/lvgl/src/misc\lv_style.h ****  *
 383:H:/STM32H7/RGB_LVGL/Middlewares/LVGL/GUI/lvgl/src/misc\lv_style.h ****  * Example:
 384:H:/STM32H7/RGB_LVGL/Middlewares/LVGL/GUI/lvgl/src/misc\lv_style.h ****  * @code
ARM GAS  C:\Users\28576\AppData\Local\Temp\ccvXaXdL.s 			page 33


 385:H:/STM32H7/RGB_LVGL/Middlewares/LVGL/GUI/lvgl/src/misc\lv_style.h ****  * lv_style_prop_t MY_PROP;
 386:H:/STM32H7/RGB_LVGL/Middlewares/LVGL/GUI/lvgl/src/misc\lv_style.h ****  * static inline void lv_style_set_my_prop(lv_style_t * style, lv_color_t value) {
 387:H:/STM32H7/RGB_LVGL/Middlewares/LVGL/GUI/lvgl/src/misc\lv_style.h ****  * lv_style_value_t v = {.color = value}; lv_style_set_prop(style, MY_PROP, v); }
 388:H:/STM32H7/RGB_LVGL/Middlewares/LVGL/GUI/lvgl/src/misc\lv_style.h ****  *
 389:H:/STM32H7/RGB_LVGL/Middlewares/LVGL/GUI/lvgl/src/misc\lv_style.h ****  * ...
 390:H:/STM32H7/RGB_LVGL/Middlewares/LVGL/GUI/lvgl/src/misc\lv_style.h ****  * MY_PROP = lv_style_register_prop();
 391:H:/STM32H7/RGB_LVGL/Middlewares/LVGL/GUI/lvgl/src/misc\lv_style.h ****  * ...
 392:H:/STM32H7/RGB_LVGL/Middlewares/LVGL/GUI/lvgl/src/misc\lv_style.h ****  * lv_style_set_my_prop(&style1, lv_palette_main(LV_PALETTE_RED));
 393:H:/STM32H7/RGB_LVGL/Middlewares/LVGL/GUI/lvgl/src/misc\lv_style.h ****  * @endcode
 394:H:/STM32H7/RGB_LVGL/Middlewares/LVGL/GUI/lvgl/src/misc\lv_style.h ****  */
 395:H:/STM32H7/RGB_LVGL/Middlewares/LVGL/GUI/lvgl/src/misc\lv_style.h **** lv_style_prop_t lv_style_register_prop(uint8_t flag);
 396:H:/STM32H7/RGB_LVGL/Middlewares/LVGL/GUI/lvgl/src/misc\lv_style.h **** 
 397:H:/STM32H7/RGB_LVGL/Middlewares/LVGL/GUI/lvgl/src/misc\lv_style.h **** /**
 398:H:/STM32H7/RGB_LVGL/Middlewares/LVGL/GUI/lvgl/src/misc\lv_style.h ****  * Get the number of custom properties that have been registered thus far.
 399:H:/STM32H7/RGB_LVGL/Middlewares/LVGL/GUI/lvgl/src/misc\lv_style.h ****  */
 400:H:/STM32H7/RGB_LVGL/Middlewares/LVGL/GUI/lvgl/src/misc\lv_style.h **** lv_style_prop_t lv_style_get_num_custom_props(void);
 401:H:/STM32H7/RGB_LVGL/Middlewares/LVGL/GUI/lvgl/src/misc\lv_style.h **** 
 402:H:/STM32H7/RGB_LVGL/Middlewares/LVGL/GUI/lvgl/src/misc\lv_style.h **** /**
 403:H:/STM32H7/RGB_LVGL/Middlewares/LVGL/GUI/lvgl/src/misc\lv_style.h ****  * Remove a property from a style
 404:H:/STM32H7/RGB_LVGL/Middlewares/LVGL/GUI/lvgl/src/misc\lv_style.h ****  * @param style pointer to a style
 405:H:/STM32H7/RGB_LVGL/Middlewares/LVGL/GUI/lvgl/src/misc\lv_style.h ****  * @param prop  a style property ORed with a state.
 406:H:/STM32H7/RGB_LVGL/Middlewares/LVGL/GUI/lvgl/src/misc\lv_style.h ****  * @return true: the property was found and removed; false: the property wasn't found
 407:H:/STM32H7/RGB_LVGL/Middlewares/LVGL/GUI/lvgl/src/misc\lv_style.h ****  */
 408:H:/STM32H7/RGB_LVGL/Middlewares/LVGL/GUI/lvgl/src/misc\lv_style.h **** bool lv_style_remove_prop(lv_style_t * style, lv_style_prop_t prop);
 409:H:/STM32H7/RGB_LVGL/Middlewares/LVGL/GUI/lvgl/src/misc\lv_style.h **** 
 410:H:/STM32H7/RGB_LVGL/Middlewares/LVGL/GUI/lvgl/src/misc\lv_style.h **** /**
 411:H:/STM32H7/RGB_LVGL/Middlewares/LVGL/GUI/lvgl/src/misc\lv_style.h ****  * Set the value of property in a style.
 412:H:/STM32H7/RGB_LVGL/Middlewares/LVGL/GUI/lvgl/src/misc\lv_style.h ****  * This function shouldn't be used directly by the user.
 413:H:/STM32H7/RGB_LVGL/Middlewares/LVGL/GUI/lvgl/src/misc\lv_style.h ****  * Instead use `lv_style_set_<prop_name>()`. E.g. `lv_style_set_bg_color()`
 414:H:/STM32H7/RGB_LVGL/Middlewares/LVGL/GUI/lvgl/src/misc\lv_style.h ****  * @param style pointer to style
 415:H:/STM32H7/RGB_LVGL/Middlewares/LVGL/GUI/lvgl/src/misc\lv_style.h ****  * @param prop the ID of a property (e.g. `LV_STYLE_BG_COLOR`)
 416:H:/STM32H7/RGB_LVGL/Middlewares/LVGL/GUI/lvgl/src/misc\lv_style.h ****  * @param value `lv_style_value_t` variable in which a field is set according to the type of `prop`
 417:H:/STM32H7/RGB_LVGL/Middlewares/LVGL/GUI/lvgl/src/misc\lv_style.h ****  */
 418:H:/STM32H7/RGB_LVGL/Middlewares/LVGL/GUI/lvgl/src/misc\lv_style.h **** void lv_style_set_prop(lv_style_t * style, lv_style_prop_t prop, lv_style_value_t value);
 419:H:/STM32H7/RGB_LVGL/Middlewares/LVGL/GUI/lvgl/src/misc\lv_style.h **** 
 420:H:/STM32H7/RGB_LVGL/Middlewares/LVGL/GUI/lvgl/src/misc\lv_style.h **** /**
 421:H:/STM32H7/RGB_LVGL/Middlewares/LVGL/GUI/lvgl/src/misc\lv_style.h ****  * Get the value of a property
 422:H:/STM32H7/RGB_LVGL/Middlewares/LVGL/GUI/lvgl/src/misc\lv_style.h ****  * @param style pointer to a style
 423:H:/STM32H7/RGB_LVGL/Middlewares/LVGL/GUI/lvgl/src/misc\lv_style.h ****  * @param prop  the ID of a property
 424:H:/STM32H7/RGB_LVGL/Middlewares/LVGL/GUI/lvgl/src/misc\lv_style.h ****  * @param value pointer to a `lv_style_value_t` variable to store the value
 425:H:/STM32H7/RGB_LVGL/Middlewares/LVGL/GUI/lvgl/src/misc\lv_style.h ****  * @return LV_RESULT_INVALID: the property wasn't found in the style (`value` is unchanged)
 426:H:/STM32H7/RGB_LVGL/Middlewares/LVGL/GUI/lvgl/src/misc\lv_style.h ****  *         LV_RESULT_OK: the property was fond, and `value` is set accordingly
 427:H:/STM32H7/RGB_LVGL/Middlewares/LVGL/GUI/lvgl/src/misc\lv_style.h ****  * @note For performance reasons there are no sanity check on `style`
 428:H:/STM32H7/RGB_LVGL/Middlewares/LVGL/GUI/lvgl/src/misc\lv_style.h ****  */
 429:H:/STM32H7/RGB_LVGL/Middlewares/LVGL/GUI/lvgl/src/misc\lv_style.h **** lv_style_res_t lv_style_get_prop(const lv_style_t * style, lv_style_prop_t prop, lv_style_value_t *
 430:H:/STM32H7/RGB_LVGL/Middlewares/LVGL/GUI/lvgl/src/misc\lv_style.h **** 
 431:H:/STM32H7/RGB_LVGL/Middlewares/LVGL/GUI/lvgl/src/misc\lv_style.h **** /**
 432:H:/STM32H7/RGB_LVGL/Middlewares/LVGL/GUI/lvgl/src/misc\lv_style.h ****  * Initialize a transition descriptor.
 433:H:/STM32H7/RGB_LVGL/Middlewares/LVGL/GUI/lvgl/src/misc\lv_style.h ****  * @param tr        pointer to a transition descriptor to initialize
 434:H:/STM32H7/RGB_LVGL/Middlewares/LVGL/GUI/lvgl/src/misc\lv_style.h ****  * @param props     an array with the properties to transition. The last element must be zero.
 435:H:/STM32H7/RGB_LVGL/Middlewares/LVGL/GUI/lvgl/src/misc\lv_style.h ****  * @param path_cb   an animation path (ease) callback. If `NULL` liner path will be used.
 436:H:/STM32H7/RGB_LVGL/Middlewares/LVGL/GUI/lvgl/src/misc\lv_style.h ****  * @param time      duration of the transition in [ms]
 437:H:/STM32H7/RGB_LVGL/Middlewares/LVGL/GUI/lvgl/src/misc\lv_style.h ****  * @param delay     delay before the transition in [ms]
 438:H:/STM32H7/RGB_LVGL/Middlewares/LVGL/GUI/lvgl/src/misc\lv_style.h ****  * @param user_data any custom data that will be saved in the transition animation and will be avai
 439:H:/STM32H7/RGB_LVGL/Middlewares/LVGL/GUI/lvgl/src/misc\lv_style.h ****  *
 440:H:/STM32H7/RGB_LVGL/Middlewares/LVGL/GUI/lvgl/src/misc\lv_style.h ****  * Example:
 441:H:/STM32H7/RGB_LVGL/Middlewares/LVGL/GUI/lvgl/src/misc\lv_style.h ****  * @code
ARM GAS  C:\Users\28576\AppData\Local\Temp\ccvXaXdL.s 			page 34


 442:H:/STM32H7/RGB_LVGL/Middlewares/LVGL/GUI/lvgl/src/misc\lv_style.h ****  * const static lv_style_prop_t trans_props[] = { LV_STYLE_BG_OPA, LV_STYLE_BG_COLOR, 0 };
 443:H:/STM32H7/RGB_LVGL/Middlewares/LVGL/GUI/lvgl/src/misc\lv_style.h ****  * static lv_style_transition_dsc_t trans1;
 444:H:/STM32H7/RGB_LVGL/Middlewares/LVGL/GUI/lvgl/src/misc\lv_style.h ****  * lv_style_transition_dsc_init(&trans1, trans_props, NULL, 300, 0, NULL);
 445:H:/STM32H7/RGB_LVGL/Middlewares/LVGL/GUI/lvgl/src/misc\lv_style.h ****  * @endcode
 446:H:/STM32H7/RGB_LVGL/Middlewares/LVGL/GUI/lvgl/src/misc\lv_style.h ****  */
 447:H:/STM32H7/RGB_LVGL/Middlewares/LVGL/GUI/lvgl/src/misc\lv_style.h **** void lv_style_transition_dsc_init(lv_style_transition_dsc_t * tr, const lv_style_prop_t props[],
 448:H:/STM32H7/RGB_LVGL/Middlewares/LVGL/GUI/lvgl/src/misc\lv_style.h ****                                   lv_anim_path_cb_t path_cb, uint32_t time, uint32_t delay, void * 
 449:H:/STM32H7/RGB_LVGL/Middlewares/LVGL/GUI/lvgl/src/misc\lv_style.h **** 
 450:H:/STM32H7/RGB_LVGL/Middlewares/LVGL/GUI/lvgl/src/misc\lv_style.h **** /**
 451:H:/STM32H7/RGB_LVGL/Middlewares/LVGL/GUI/lvgl/src/misc\lv_style.h ****  * Get the default value of a property
 452:H:/STM32H7/RGB_LVGL/Middlewares/LVGL/GUI/lvgl/src/misc\lv_style.h ****  * @param prop the ID of a property
 453:H:/STM32H7/RGB_LVGL/Middlewares/LVGL/GUI/lvgl/src/misc\lv_style.h ****  * @return the default value
 454:H:/STM32H7/RGB_LVGL/Middlewares/LVGL/GUI/lvgl/src/misc\lv_style.h ****  */
 455:H:/STM32H7/RGB_LVGL/Middlewares/LVGL/GUI/lvgl/src/misc\lv_style.h **** lv_style_value_t lv_style_prop_get_default(lv_style_prop_t prop);
 456:H:/STM32H7/RGB_LVGL/Middlewares/LVGL/GUI/lvgl/src/misc\lv_style.h **** 
 457:H:/STM32H7/RGB_LVGL/Middlewares/LVGL/GUI/lvgl/src/misc\lv_style.h **** /**
 458:H:/STM32H7/RGB_LVGL/Middlewares/LVGL/GUI/lvgl/src/misc\lv_style.h ****  * Get the value of a property
 459:H:/STM32H7/RGB_LVGL/Middlewares/LVGL/GUI/lvgl/src/misc\lv_style.h ****  * @param style pointer to a style
 460:H:/STM32H7/RGB_LVGL/Middlewares/LVGL/GUI/lvgl/src/misc\lv_style.h ****  * @param prop  the ID of a property
 461:H:/STM32H7/RGB_LVGL/Middlewares/LVGL/GUI/lvgl/src/misc\lv_style.h ****  * @param value pointer to a `lv_style_value_t` variable to store the value
 462:H:/STM32H7/RGB_LVGL/Middlewares/LVGL/GUI/lvgl/src/misc\lv_style.h ****  * @return LV_RESULT_INVALID: the property wasn't found in the style (`value` is unchanged)
 463:H:/STM32H7/RGB_LVGL/Middlewares/LVGL/GUI/lvgl/src/misc\lv_style.h ****  *         LV_RESULT_OK: the property was fond, and `value` is set accordingly
 464:H:/STM32H7/RGB_LVGL/Middlewares/LVGL/GUI/lvgl/src/misc\lv_style.h ****  * @note For performance reasons there are no sanity check on `style`
 465:H:/STM32H7/RGB_LVGL/Middlewares/LVGL/GUI/lvgl/src/misc\lv_style.h ****  * @note This function is the same as ::lv_style_get_prop but inlined. Use it only on performance c
 466:H:/STM32H7/RGB_LVGL/Middlewares/LVGL/GUI/lvgl/src/misc\lv_style.h ****  */
 467:H:/STM32H7/RGB_LVGL/Middlewares/LVGL/GUI/lvgl/src/misc\lv_style.h **** static inline lv_style_res_t lv_style_get_prop_inlined(const lv_style_t * style, lv_style_prop_t pr
 468:H:/STM32H7/RGB_LVGL/Middlewares/LVGL/GUI/lvgl/src/misc\lv_style.h ****                                                        lv_style_value_t * value)
 469:H:/STM32H7/RGB_LVGL/Middlewares/LVGL/GUI/lvgl/src/misc\lv_style.h **** {
 470:H:/STM32H7/RGB_LVGL/Middlewares/LVGL/GUI/lvgl/src/misc\lv_style.h ****     if(lv_style_is_const(style)) {
 471:H:/STM32H7/RGB_LVGL/Middlewares/LVGL/GUI/lvgl/src/misc\lv_style.h ****         lv_style_const_prop_t * props = (lv_style_const_prop_t *)style->values_and_props;
 472:H:/STM32H7/RGB_LVGL/Middlewares/LVGL/GUI/lvgl/src/misc\lv_style.h ****         uint32_t i;
 473:H:/STM32H7/RGB_LVGL/Middlewares/LVGL/GUI/lvgl/src/misc\lv_style.h ****         for(i = 0; props[i].prop != LV_STYLE_PROP_INV; i++) {
 474:H:/STM32H7/RGB_LVGL/Middlewares/LVGL/GUI/lvgl/src/misc\lv_style.h ****             if(props[i].prop == prop) {
 475:H:/STM32H7/RGB_LVGL/Middlewares/LVGL/GUI/lvgl/src/misc\lv_style.h ****                 *value = props[i].value;
 476:H:/STM32H7/RGB_LVGL/Middlewares/LVGL/GUI/lvgl/src/misc\lv_style.h ****                 return LV_STYLE_RES_FOUND;
 477:H:/STM32H7/RGB_LVGL/Middlewares/LVGL/GUI/lvgl/src/misc\lv_style.h ****             }
 478:H:/STM32H7/RGB_LVGL/Middlewares/LVGL/GUI/lvgl/src/misc\lv_style.h ****         }
 479:H:/STM32H7/RGB_LVGL/Middlewares/LVGL/GUI/lvgl/src/misc\lv_style.h ****     }
 480:H:/STM32H7/RGB_LVGL/Middlewares/LVGL/GUI/lvgl/src/misc\lv_style.h ****     else {
 481:H:/STM32H7/RGB_LVGL/Middlewares/LVGL/GUI/lvgl/src/misc\lv_style.h ****         lv_style_prop_t * props = (lv_style_prop_t *)style->values_and_props + style->prop_cnt * si
 482:H:/STM32H7/RGB_LVGL/Middlewares/LVGL/GUI/lvgl/src/misc\lv_style.h ****         uint32_t i;
 483:H:/STM32H7/RGB_LVGL/Middlewares/LVGL/GUI/lvgl/src/misc\lv_style.h ****         for(i = 0; i < style->prop_cnt; i++) {
 484:H:/STM32H7/RGB_LVGL/Middlewares/LVGL/GUI/lvgl/src/misc\lv_style.h ****             if(props[i] == prop) {
 485:H:/STM32H7/RGB_LVGL/Middlewares/LVGL/GUI/lvgl/src/misc\lv_style.h ****                 lv_style_value_t * values = (lv_style_value_t *)style->values_and_props;
 486:H:/STM32H7/RGB_LVGL/Middlewares/LVGL/GUI/lvgl/src/misc\lv_style.h ****                 *value = values[i];
 487:H:/STM32H7/RGB_LVGL/Middlewares/LVGL/GUI/lvgl/src/misc\lv_style.h ****                 return LV_STYLE_RES_FOUND;
 488:H:/STM32H7/RGB_LVGL/Middlewares/LVGL/GUI/lvgl/src/misc\lv_style.h ****             }
 489:H:/STM32H7/RGB_LVGL/Middlewares/LVGL/GUI/lvgl/src/misc\lv_style.h ****         }
 490:H:/STM32H7/RGB_LVGL/Middlewares/LVGL/GUI/lvgl/src/misc\lv_style.h ****     }
 491:H:/STM32H7/RGB_LVGL/Middlewares/LVGL/GUI/lvgl/src/misc\lv_style.h ****     return LV_STYLE_RES_NOT_FOUND;
 492:H:/STM32H7/RGB_LVGL/Middlewares/LVGL/GUI/lvgl/src/misc\lv_style.h **** }
 493:H:/STM32H7/RGB_LVGL/Middlewares/LVGL/GUI/lvgl/src/misc\lv_style.h **** 
 494:H:/STM32H7/RGB_LVGL/Middlewares/LVGL/GUI/lvgl/src/misc\lv_style.h **** /**
 495:H:/STM32H7/RGB_LVGL/Middlewares/LVGL/GUI/lvgl/src/misc\lv_style.h ****  * Checks if a style is empty (has no properties)
 496:H:/STM32H7/RGB_LVGL/Middlewares/LVGL/GUI/lvgl/src/misc\lv_style.h ****  * @param style pointer to a style
 497:H:/STM32H7/RGB_LVGL/Middlewares/LVGL/GUI/lvgl/src/misc\lv_style.h ****  * @return true if the style is empty
 498:H:/STM32H7/RGB_LVGL/Middlewares/LVGL/GUI/lvgl/src/misc\lv_style.h ****  */
ARM GAS  C:\Users\28576\AppData\Local\Temp\ccvXaXdL.s 			page 35


 499:H:/STM32H7/RGB_LVGL/Middlewares/LVGL/GUI/lvgl/src/misc\lv_style.h **** bool lv_style_is_empty(const lv_style_t * style);
 500:H:/STM32H7/RGB_LVGL/Middlewares/LVGL/GUI/lvgl/src/misc\lv_style.h **** 
 501:H:/STM32H7/RGB_LVGL/Middlewares/LVGL/GUI/lvgl/src/misc\lv_style.h **** /**
 502:H:/STM32H7/RGB_LVGL/Middlewares/LVGL/GUI/lvgl/src/misc\lv_style.h ****  * Tell the group of a property. If the a property from a group is set in a style the (1 << group) 
 503:H:/STM32H7/RGB_LVGL/Middlewares/LVGL/GUI/lvgl/src/misc\lv_style.h ****  * It allows early skipping the style if the property is not exists in the style at all.
 504:H:/STM32H7/RGB_LVGL/Middlewares/LVGL/GUI/lvgl/src/misc\lv_style.h ****  * @param prop a style property
 505:H:/STM32H7/RGB_LVGL/Middlewares/LVGL/GUI/lvgl/src/misc\lv_style.h ****  * @return the group [0..30] 30 means all the custom properties with index > 120
 506:H:/STM32H7/RGB_LVGL/Middlewares/LVGL/GUI/lvgl/src/misc\lv_style.h ****  */
 507:H:/STM32H7/RGB_LVGL/Middlewares/LVGL/GUI/lvgl/src/misc\lv_style.h **** static inline uint32_t lv_style_get_prop_group(lv_style_prop_t prop)
 508:H:/STM32H7/RGB_LVGL/Middlewares/LVGL/GUI/lvgl/src/misc\lv_style.h **** {
 509:H:/STM32H7/RGB_LVGL/Middlewares/LVGL/GUI/lvgl/src/misc\lv_style.h ****     uint32_t group = prop >> 2;
 510:H:/STM32H7/RGB_LVGL/Middlewares/LVGL/GUI/lvgl/src/misc\lv_style.h ****     if(group > 30) group = 31;    /*The MSB marks all the custom properties*/
 511:H:/STM32H7/RGB_LVGL/Middlewares/LVGL/GUI/lvgl/src/misc\lv_style.h ****     return group;
 512:H:/STM32H7/RGB_LVGL/Middlewares/LVGL/GUI/lvgl/src/misc\lv_style.h **** 
 513:H:/STM32H7/RGB_LVGL/Middlewares/LVGL/GUI/lvgl/src/misc\lv_style.h **** }
 514:H:/STM32H7/RGB_LVGL/Middlewares/LVGL/GUI/lvgl/src/misc\lv_style.h **** 
 515:H:/STM32H7/RGB_LVGL/Middlewares/LVGL/GUI/lvgl/src/misc\lv_style.h **** /**
 516:H:/STM32H7/RGB_LVGL/Middlewares/LVGL/GUI/lvgl/src/misc\lv_style.h ****  * Get the flags of a built-in or custom property.
 517:H:/STM32H7/RGB_LVGL/Middlewares/LVGL/GUI/lvgl/src/misc\lv_style.h ****  *
 518:H:/STM32H7/RGB_LVGL/Middlewares/LVGL/GUI/lvgl/src/misc\lv_style.h ****  * @param prop a style property
 519:H:/STM32H7/RGB_LVGL/Middlewares/LVGL/GUI/lvgl/src/misc\lv_style.h ****  * @return the flags of the property
 520:H:/STM32H7/RGB_LVGL/Middlewares/LVGL/GUI/lvgl/src/misc\lv_style.h ****  */
 521:H:/STM32H7/RGB_LVGL/Middlewares/LVGL/GUI/lvgl/src/misc\lv_style.h **** uint8_t lv_style_prop_lookup_flags(lv_style_prop_t prop);
 522:H:/STM32H7/RGB_LVGL/Middlewares/LVGL/GUI/lvgl/src/misc\lv_style.h **** 
 523:H:/STM32H7/RGB_LVGL/Middlewares/LVGL/GUI/lvgl/src/misc\lv_style.h **** #include "lv_style_gen.h"
 524:H:/STM32H7/RGB_LVGL/Middlewares/LVGL/GUI/lvgl/src/misc\lv_style.h **** 
 525:H:/STM32H7/RGB_LVGL/Middlewares/LVGL/GUI/lvgl/src/misc\lv_style.h **** static inline void lv_style_set_size(lv_style_t * style, int32_t width, int32_t height)
 526:H:/STM32H7/RGB_LVGL/Middlewares/LVGL/GUI/lvgl/src/misc\lv_style.h **** {
 527:H:/STM32H7/RGB_LVGL/Middlewares/LVGL/GUI/lvgl/src/misc\lv_style.h ****     lv_style_set_width(style, width);
 528:H:/STM32H7/RGB_LVGL/Middlewares/LVGL/GUI/lvgl/src/misc\lv_style.h ****     lv_style_set_height(style, height);
 529:H:/STM32H7/RGB_LVGL/Middlewares/LVGL/GUI/lvgl/src/misc\lv_style.h **** }
 530:H:/STM32H7/RGB_LVGL/Middlewares/LVGL/GUI/lvgl/src/misc\lv_style.h **** 
 531:H:/STM32H7/RGB_LVGL/Middlewares/LVGL/GUI/lvgl/src/misc\lv_style.h **** static inline void lv_style_set_pad_all(lv_style_t * style, int32_t value)
 532:H:/STM32H7/RGB_LVGL/Middlewares/LVGL/GUI/lvgl/src/misc\lv_style.h **** {
 870              		.loc 2 532 1 view -0
 871              		.cfi_startproc
 872              		@ args = 0, pretend = 0, frame = 0
 873              		@ frame_needed = 0, uses_anonymous_args = 0
 874              		.loc 2 532 1 is_stmt 0 view .LVU191
 875 0000 38B5     		push	{r3, r4, r5, lr}
 876              	.LCFI1:
 877              		.cfi_def_cfa_offset 16
 878              		.cfi_offset 3, -16
 879              		.cfi_offset 4, -12
 880              		.cfi_offset 5, -8
 881              		.cfi_offset 14, -4
 882 0002 0446     		mov	r4, r0
 883 0004 0D46     		mov	r5, r1
 533:H:/STM32H7/RGB_LVGL/Middlewares/LVGL/GUI/lvgl/src/misc\lv_style.h ****     lv_style_set_pad_left(style, value);
 884              		.loc 2 533 5 is_stmt 1 view .LVU192
 885 0006 FFF7FEFF 		bl	lv_style_set_pad_left
 886              	.LVL114:
 534:H:/STM32H7/RGB_LVGL/Middlewares/LVGL/GUI/lvgl/src/misc\lv_style.h ****     lv_style_set_pad_right(style, value);
 887              		.loc 2 534 5 view .LVU193
 888 000a 2946     		mov	r1, r5
 889 000c 2046     		mov	r0, r4
 890 000e FFF7FEFF 		bl	lv_style_set_pad_right
ARM GAS  C:\Users\28576\AppData\Local\Temp\ccvXaXdL.s 			page 36


 891              	.LVL115:
 535:H:/STM32H7/RGB_LVGL/Middlewares/LVGL/GUI/lvgl/src/misc\lv_style.h ****     lv_style_set_pad_top(style, value);
 892              		.loc 2 535 5 view .LVU194
 893 0012 2946     		mov	r1, r5
 894 0014 2046     		mov	r0, r4
 895 0016 FFF7FEFF 		bl	lv_style_set_pad_top
 896              	.LVL116:
 536:H:/STM32H7/RGB_LVGL/Middlewares/LVGL/GUI/lvgl/src/misc\lv_style.h ****     lv_style_set_pad_bottom(style, value);
 897              		.loc 2 536 5 view .LVU195
 898 001a 2946     		mov	r1, r5
 899 001c 2046     		mov	r0, r4
 900 001e FFF7FEFF 		bl	lv_style_set_pad_bottom
 901              	.LVL117:
 537:H:/STM32H7/RGB_LVGL/Middlewares/LVGL/GUI/lvgl/src/misc\lv_style.h **** }
 902              		.loc 2 537 1 is_stmt 0 view .LVU196
 903 0022 38BD     		pop	{r3, r4, r5, pc}
 904              		.loc 2 537 1 view .LVU197
 905              		.cfi_endproc
 906              	.LFE10:
 908              		.section	.text.lv_theme_simple_is_inited,"ax",%progbits
 909              		.align	1
 910              		.global	lv_theme_simple_is_inited
 911              		.syntax unified
 912              		.thumb
 913              		.thumb_func
 915              	lv_theme_simple_is_inited:
 916              	.LFB197:
 146:../../Middlewares/LVGL/GUI/lvgl/src/themes/simple/lv_theme_simple.c ****     my_theme_t * theme = theme_def;
 917              		.loc 1 146 1 is_stmt 1 view -0
 918              		.cfi_startproc
 919              		@ args = 0, pretend = 0, frame = 0
 920              		@ frame_needed = 0, uses_anonymous_args = 0
 921              		@ link register save eliminated.
 147:../../Middlewares/LVGL/GUI/lvgl/src/themes/simple/lv_theme_simple.c ****     if(theme == NULL) return false;
 922              		.loc 1 147 5 view .LVU199
 147:../../Middlewares/LVGL/GUI/lvgl/src/themes/simple/lv_theme_simple.c ****     if(theme == NULL) return false;
 923              		.loc 1 147 18 is_stmt 0 view .LVU200
 924 0000 044B     		ldr	r3, .L52
 925 0002 D3F8B831 		ldr	r3, [r3, #440]
 926              	.LVL118:
 148:../../Middlewares/LVGL/GUI/lvgl/src/themes/simple/lv_theme_simple.c ****     return theme->inited;
 927              		.loc 1 148 5 is_stmt 1 view .LVU201
 148:../../Middlewares/LVGL/GUI/lvgl/src/themes/simple/lv_theme_simple.c ****     return theme->inited;
 928              		.loc 1 148 7 is_stmt 0 view .LVU202
 929 0006 13B1     		cbz	r3, .L51
 149:../../Middlewares/LVGL/GUI/lvgl/src/themes/simple/lv_theme_simple.c **** }
 930              		.loc 1 149 5 is_stmt 1 view .LVU203
 149:../../Middlewares/LVGL/GUI/lvgl/src/themes/simple/lv_theme_simple.c **** }
 931              		.loc 1 149 17 is_stmt 0 view .LVU204
 932 0008 93F8A000 		ldrb	r0, [r3, #160]	@ zero_extendqisi2
 933 000c 7047     		bx	lr
 934              	.L51:
 148:../../Middlewares/LVGL/GUI/lvgl/src/themes/simple/lv_theme_simple.c ****     return theme->inited;
 935              		.loc 1 148 30 discriminator 1 view .LVU205
 936 000e 1846     		mov	r0, r3
 150:../../Middlewares/LVGL/GUI/lvgl/src/themes/simple/lv_theme_simple.c **** 
 937              		.loc 1 150 1 view .LVU206
ARM GAS  C:\Users\28576\AppData\Local\Temp\ccvXaXdL.s 			page 37


 938 0010 7047     		bx	lr
 939              	.L53:
 940 0012 00BF     		.align	2
 941              	.L52:
 942 0014 00000000 		.word	lv_global
 943              		.cfi_endproc
 944              	.LFE197:
 946              		.section	.text.style_init_reset,"ax",%progbits
 947              		.align	1
 948              		.syntax unified
 949              		.thumb
 950              		.thumb_func
 952              	style_init_reset:
 953              	.LVL119:
 954              	.LFB202:
 423:../../Middlewares/LVGL/GUI/lvgl/src/themes/simple/lv_theme_simple.c **** 
 424:../../Middlewares/LVGL/GUI/lvgl/src/themes/simple/lv_theme_simple.c **** /**********************
 425:../../Middlewares/LVGL/GUI/lvgl/src/themes/simple/lv_theme_simple.c ****  *   STATIC FUNCTIONS
 426:../../Middlewares/LVGL/GUI/lvgl/src/themes/simple/lv_theme_simple.c ****  **********************/
 427:../../Middlewares/LVGL/GUI/lvgl/src/themes/simple/lv_theme_simple.c **** 
 428:../../Middlewares/LVGL/GUI/lvgl/src/themes/simple/lv_theme_simple.c **** static void style_init_reset(lv_style_t * style)
 429:../../Middlewares/LVGL/GUI/lvgl/src/themes/simple/lv_theme_simple.c **** {
 955              		.loc 1 429 1 is_stmt 1 view -0
 956              		.cfi_startproc
 957              		@ args = 0, pretend = 0, frame = 0
 958              		@ frame_needed = 0, uses_anonymous_args = 0
 959              		.loc 1 429 1 is_stmt 0 view .LVU208
 960 0000 10B5     		push	{r4, lr}
 961              	.LCFI2:
 962              		.cfi_def_cfa_offset 8
 963              		.cfi_offset 4, -8
 964              		.cfi_offset 14, -4
 965 0002 0446     		mov	r4, r0
 430:../../Middlewares/LVGL/GUI/lvgl/src/themes/simple/lv_theme_simple.c ****     if(lv_theme_simple_is_inited()) {
 966              		.loc 1 430 5 is_stmt 1 view .LVU209
 967              		.loc 1 430 8 is_stmt 0 view .LVU210
 968 0004 FFF7FEFF 		bl	lv_theme_simple_is_inited
 969              	.LVL120:
 970              		.loc 1 430 7 discriminator 1 view .LVU211
 971 0008 18B1     		cbz	r0, .L55
 431:../../Middlewares/LVGL/GUI/lvgl/src/themes/simple/lv_theme_simple.c ****         lv_style_reset(style);
 972              		.loc 1 431 9 is_stmt 1 view .LVU212
 973 000a 2046     		mov	r0, r4
 974 000c FFF7FEFF 		bl	lv_style_reset
 975              	.LVL121:
 976              	.L54:
 432:../../Middlewares/LVGL/GUI/lvgl/src/themes/simple/lv_theme_simple.c ****     }
 433:../../Middlewares/LVGL/GUI/lvgl/src/themes/simple/lv_theme_simple.c ****     else {
 434:../../Middlewares/LVGL/GUI/lvgl/src/themes/simple/lv_theme_simple.c ****         lv_style_init(style);
 435:../../Middlewares/LVGL/GUI/lvgl/src/themes/simple/lv_theme_simple.c ****     }
 436:../../Middlewares/LVGL/GUI/lvgl/src/themes/simple/lv_theme_simple.c **** }
 977              		.loc 1 436 1 is_stmt 0 view .LVU213
 978 0010 10BD     		pop	{r4, pc}
 979              	.LVL122:
 980              	.L55:
 434:../../Middlewares/LVGL/GUI/lvgl/src/themes/simple/lv_theme_simple.c ****     }
 981              		.loc 1 434 9 is_stmt 1 view .LVU214
ARM GAS  C:\Users\28576\AppData\Local\Temp\ccvXaXdL.s 			page 38


 982 0012 2046     		mov	r0, r4
 983 0014 FFF7FEFF 		bl	lv_style_init
 984              	.LVL123:
 985              		.loc 1 436 1 is_stmt 0 view .LVU215
 986 0018 FAE7     		b	.L54
 987              		.cfi_endproc
 988              	.LFE202:
 990              		.section	.text.style_init,"ax",%progbits
 991              		.align	1
 992              		.syntax unified
 993              		.thumb
 994              		.thumb_func
 996              	style_init:
 997              	.LVL124:
 998              	.LFB196:
  78:../../Middlewares/LVGL/GUI/lvgl/src/themes/simple/lv_theme_simple.c ****     style_init_reset(&theme->styles.scrollbar);
 999              		.loc 1 78 1 is_stmt 1 view -0
 1000              		.cfi_startproc
 1001              		@ args = 0, pretend = 0, frame = 64
 1002              		@ frame_needed = 0, uses_anonymous_args = 0
  78:../../Middlewares/LVGL/GUI/lvgl/src/themes/simple/lv_theme_simple.c ****     style_init_reset(&theme->styles.scrollbar);
 1003              		.loc 1 78 1 is_stmt 0 view .LVU217
 1004 0000 30B5     		push	{r4, r5, lr}
 1005              	.LCFI3:
 1006              		.cfi_def_cfa_offset 12
 1007              		.cfi_offset 4, -12
 1008              		.cfi_offset 5, -8
 1009              		.cfi_offset 14, -4
 1010 0002 91B0     		sub	sp, sp, #68
 1011              	.LCFI4:
 1012              		.cfi_def_cfa_offset 80
 1013 0004 0446     		mov	r4, r0
  79:../../Middlewares/LVGL/GUI/lvgl/src/themes/simple/lv_theme_simple.c ****     lv_style_set_bg_opa(&theme->styles.scrollbar, LV_OPA_COVER);
 1014              		.loc 1 79 5 is_stmt 1 view .LVU218
 1015 0006 00F17005 		add	r5, r0, #112
 1016 000a 2846     		mov	r0, r5
 1017              	.LVL125:
  79:../../Middlewares/LVGL/GUI/lvgl/src/themes/simple/lv_theme_simple.c ****     lv_style_set_bg_opa(&theme->styles.scrollbar, LV_OPA_COVER);
 1018              		.loc 1 79 5 is_stmt 0 view .LVU219
 1019 000c FFF7FEFF 		bl	style_init_reset
 1020              	.LVL126:
  80:../../Middlewares/LVGL/GUI/lvgl/src/themes/simple/lv_theme_simple.c ****     lv_style_set_bg_color(&theme->styles.scrollbar, COLOR_DARK);
 1021              		.loc 1 80 5 is_stmt 1 view .LVU220
 1022 0010 FF21     		movs	r1, #255
 1023 0012 2846     		mov	r0, r5
 1024 0014 FFF7FEFF 		bl	lv_style_set_bg_opa
 1025              	.LVL127:
  81:../../Middlewares/LVGL/GUI/lvgl/src/themes/simple/lv_theme_simple.c ****     lv_style_set_width(&theme->styles.scrollbar,  SCROLLBAR_WIDTH);
 1026              		.loc 1 81 5 view .LVU221
 1027 0018 1220     		movs	r0, #18
 1028 001a FFF7FEFF 		bl	lv_palette_main
 1029              	.LVL128:
 1030 001e 8DF80000 		strb	r0, [sp]
 1031 0022 C0F30723 		ubfx	r3, r0, #8, #8
 1032 0026 8DF80130 		strb	r3, [sp, #1]
 1033 002a C0F30740 		ubfx	r0, r0, #16, #8
 1034 002e 8DF80200 		strb	r0, [sp, #2]
ARM GAS  C:\Users\28576\AppData\Local\Temp\ccvXaXdL.s 			page 39


  81:../../Middlewares/LVGL/GUI/lvgl/src/themes/simple/lv_theme_simple.c ****     lv_style_set_width(&theme->styles.scrollbar,  SCROLLBAR_WIDTH);
 1035              		.loc 1 81 5 is_stmt 0 discriminator 1 view .LVU222
 1036 0032 0099     		ldr	r1, [sp]
 1037 0034 2846     		mov	r0, r5
 1038 0036 FFF7FEFF 		bl	lv_style_set_bg_color
 1039              	.LVL129:
  82:../../Middlewares/LVGL/GUI/lvgl/src/themes/simple/lv_theme_simple.c **** 
 1040              		.loc 1 82 5 is_stmt 1 view .LVU223
 1041 003a 0221     		movs	r1, #2
 1042 003c 2846     		mov	r0, r5
 1043 003e FFF7FEFF 		bl	lv_style_set_width
 1044              	.LVL130:
  84:../../Middlewares/LVGL/GUI/lvgl/src/themes/simple/lv_theme_simple.c ****     lv_style_set_bg_opa(&theme->styles.scr, LV_OPA_COVER);
 1045              		.loc 1 84 5 view .LVU224
 1046 0042 04F12805 		add	r5, r4, #40
 1047 0046 2846     		mov	r0, r5
 1048 0048 FFF7FEFF 		bl	style_init_reset
 1049              	.LVL131:
  85:../../Middlewares/LVGL/GUI/lvgl/src/themes/simple/lv_theme_simple.c ****     lv_style_set_bg_color(&theme->styles.scr, COLOR_SCR);
 1050              		.loc 1 85 5 view .LVU225
 1051 004c FF21     		movs	r1, #255
 1052 004e 2846     		mov	r0, r5
 1053 0050 FFF7FEFF 		bl	lv_style_set_bg_opa
 1054              	.LVL132:
  86:../../Middlewares/LVGL/GUI/lvgl/src/themes/simple/lv_theme_simple.c ****     lv_style_set_text_color(&theme->styles.scr, COLOR_DIM);
 1055              		.loc 1 86 5 view .LVU226
 1056 0054 0421     		movs	r1, #4
 1057 0056 1220     		movs	r0, #18
 1058 0058 FFF7FEFF 		bl	lv_palette_lighten
 1059              	.LVL133:
 1060 005c 8DF80400 		strb	r0, [sp, #4]
 1061 0060 C0F30723 		ubfx	r3, r0, #8, #8
 1062 0064 8DF80530 		strb	r3, [sp, #5]
 1063 0068 C0F30740 		ubfx	r0, r0, #16, #8
 1064 006c 8DF80600 		strb	r0, [sp, #6]
  86:../../Middlewares/LVGL/GUI/lvgl/src/themes/simple/lv_theme_simple.c ****     lv_style_set_text_color(&theme->styles.scr, COLOR_DIM);
 1065              		.loc 1 86 5 is_stmt 0 discriminator 1 view .LVU227
 1066 0070 0199     		ldr	r1, [sp, #4]
 1067 0072 2846     		mov	r0, r5
 1068 0074 FFF7FEFF 		bl	lv_style_set_bg_color
 1069              	.LVL134:
  87:../../Middlewares/LVGL/GUI/lvgl/src/themes/simple/lv_theme_simple.c **** 
 1070              		.loc 1 87 5 is_stmt 1 view .LVU228
 1071 0078 0221     		movs	r1, #2
 1072 007a 1220     		movs	r0, #18
 1073 007c FFF7FEFF 		bl	lv_palette_darken
 1074              	.LVL135:
 1075 0080 8DF80800 		strb	r0, [sp, #8]
 1076 0084 C0F30723 		ubfx	r3, r0, #8, #8
 1077 0088 8DF80930 		strb	r3, [sp, #9]
 1078 008c C0F30740 		ubfx	r0, r0, #16, #8
 1079 0090 8DF80A00 		strb	r0, [sp, #10]
  87:../../Middlewares/LVGL/GUI/lvgl/src/themes/simple/lv_theme_simple.c **** 
 1080              		.loc 1 87 5 is_stmt 0 discriminator 1 view .LVU229
 1081 0094 0299     		ldr	r1, [sp, #8]
 1082 0096 2846     		mov	r0, r5
 1083 0098 FFF7FEFF 		bl	lv_style_set_text_color
ARM GAS  C:\Users\28576\AppData\Local\Temp\ccvXaXdL.s 			page 40


 1084              	.LVL136:
  89:../../Middlewares/LVGL/GUI/lvgl/src/themes/simple/lv_theme_simple.c ****     lv_style_set_bg_opa(&theme->styles.transp, LV_OPA_TRANSP);
 1085              		.loc 1 89 5 is_stmt 1 view .LVU230
 1086 009c 04F13405 		add	r5, r4, #52
 1087 00a0 2846     		mov	r0, r5
 1088 00a2 FFF7FEFF 		bl	style_init_reset
 1089              	.LVL137:
  90:../../Middlewares/LVGL/GUI/lvgl/src/themes/simple/lv_theme_simple.c **** 
 1090              		.loc 1 90 5 view .LVU231
 1091 00a6 0021     		movs	r1, #0
 1092 00a8 2846     		mov	r0, r5
 1093 00aa FFF7FEFF 		bl	lv_style_set_bg_opa
 1094              	.LVL138:
  92:../../Middlewares/LVGL/GUI/lvgl/src/themes/simple/lv_theme_simple.c ****     lv_style_set_bg_opa(&theme->styles.white, LV_OPA_COVER);
 1095              		.loc 1 92 5 view .LVU232
 1096 00ae 04F14005 		add	r5, r4, #64
 1097 00b2 2846     		mov	r0, r5
 1098 00b4 FFF7FEFF 		bl	style_init_reset
 1099              	.LVL139:
  93:../../Middlewares/LVGL/GUI/lvgl/src/themes/simple/lv_theme_simple.c ****     lv_style_set_bg_color(&theme->styles.white, COLOR_WHITE);
 1100              		.loc 1 93 5 view .LVU233
 1101 00b8 FF21     		movs	r1, #255
 1102 00ba 2846     		mov	r0, r5
 1103 00bc FFF7FEFF 		bl	lv_style_set_bg_opa
 1104              	.LVL140:
  94:../../Middlewares/LVGL/GUI/lvgl/src/themes/simple/lv_theme_simple.c ****     lv_style_set_line_width(&theme->styles.white, 1);
 1105              		.loc 1 94 5 view .LVU234
 1106 00c0 FFF7FEFF 		bl	lv_color_white
 1107              	.LVL141:
 1108 00c4 8DF80C00 		strb	r0, [sp, #12]
 1109 00c8 C0F30723 		ubfx	r3, r0, #8, #8
 1110 00cc 8DF80D30 		strb	r3, [sp, #13]
 1111 00d0 C0F30740 		ubfx	r0, r0, #16, #8
 1112 00d4 8DF80E00 		strb	r0, [sp, #14]
  94:../../Middlewares/LVGL/GUI/lvgl/src/themes/simple/lv_theme_simple.c ****     lv_style_set_line_width(&theme->styles.white, 1);
 1113              		.loc 1 94 5 is_stmt 0 discriminator 1 view .LVU235
 1114 00d8 0399     		ldr	r1, [sp, #12]
 1115 00da 2846     		mov	r0, r5
 1116 00dc FFF7FEFF 		bl	lv_style_set_bg_color
 1117              	.LVL142:
  95:../../Middlewares/LVGL/GUI/lvgl/src/themes/simple/lv_theme_simple.c ****     lv_style_set_line_color(&theme->styles.white, COLOR_WHITE);
 1118              		.loc 1 95 5 is_stmt 1 view .LVU236
 1119 00e0 0121     		movs	r1, #1
 1120 00e2 2846     		mov	r0, r5
 1121 00e4 FFF7FEFF 		bl	lv_style_set_line_width
 1122              	.LVL143:
  96:../../Middlewares/LVGL/GUI/lvgl/src/themes/simple/lv_theme_simple.c ****     lv_style_set_arc_width(&theme->styles.white, 2);
 1123              		.loc 1 96 5 view .LVU237
 1124 00e8 FFF7FEFF 		bl	lv_color_white
 1125              	.LVL144:
 1126 00ec 8DF81000 		strb	r0, [sp, #16]
 1127 00f0 C0F30723 		ubfx	r3, r0, #8, #8
 1128 00f4 8DF81130 		strb	r3, [sp, #17]
 1129 00f8 C0F30740 		ubfx	r0, r0, #16, #8
 1130 00fc 8DF81200 		strb	r0, [sp, #18]
  96:../../Middlewares/LVGL/GUI/lvgl/src/themes/simple/lv_theme_simple.c ****     lv_style_set_arc_width(&theme->styles.white, 2);
 1131              		.loc 1 96 5 is_stmt 0 discriminator 1 view .LVU238
ARM GAS  C:\Users\28576\AppData\Local\Temp\ccvXaXdL.s 			page 41


 1132 0100 0499     		ldr	r1, [sp, #16]
 1133 0102 2846     		mov	r0, r5
 1134 0104 FFF7FEFF 		bl	lv_style_set_line_color
 1135              	.LVL145:
  97:../../Middlewares/LVGL/GUI/lvgl/src/themes/simple/lv_theme_simple.c ****     lv_style_set_arc_color(&theme->styles.white, COLOR_WHITE);
 1136              		.loc 1 97 5 is_stmt 1 view .LVU239
 1137 0108 0221     		movs	r1, #2
 1138 010a 2846     		mov	r0, r5
 1139 010c FFF7FEFF 		bl	lv_style_set_arc_width
 1140              	.LVL146:
  98:../../Middlewares/LVGL/GUI/lvgl/src/themes/simple/lv_theme_simple.c **** 
 1141              		.loc 1 98 5 view .LVU240
 1142 0110 FFF7FEFF 		bl	lv_color_white
 1143              	.LVL147:
 1144 0114 8DF81400 		strb	r0, [sp, #20]
 1145 0118 C0F30723 		ubfx	r3, r0, #8, #8
 1146 011c 8DF81530 		strb	r3, [sp, #21]
 1147 0120 C0F30740 		ubfx	r0, r0, #16, #8
 1148 0124 8DF81600 		strb	r0, [sp, #22]
  98:../../Middlewares/LVGL/GUI/lvgl/src/themes/simple/lv_theme_simple.c **** 
 1149              		.loc 1 98 5 is_stmt 0 discriminator 1 view .LVU241
 1150 0128 0599     		ldr	r1, [sp, #20]
 1151 012a 2846     		mov	r0, r5
 1152 012c FFF7FEFF 		bl	lv_style_set_arc_color
 1153              	.LVL148:
 100:../../Middlewares/LVGL/GUI/lvgl/src/themes/simple/lv_theme_simple.c ****     lv_style_set_bg_opa(&theme->styles.light, LV_OPA_COVER);
 1154              		.loc 1 100 5 is_stmt 1 view .LVU242
 1155 0130 04F14C05 		add	r5, r4, #76
 1156 0134 2846     		mov	r0, r5
 1157 0136 FFF7FEFF 		bl	style_init_reset
 1158              	.LVL149:
 101:../../Middlewares/LVGL/GUI/lvgl/src/themes/simple/lv_theme_simple.c ****     lv_style_set_bg_color(&theme->styles.light, COLOR_LIGHT);
 1159              		.loc 1 101 5 view .LVU243
 1160 013a FF21     		movs	r1, #255
 1161 013c 2846     		mov	r0, r5
 1162 013e FFF7FEFF 		bl	lv_style_set_bg_opa
 1163              	.LVL150:
 102:../../Middlewares/LVGL/GUI/lvgl/src/themes/simple/lv_theme_simple.c ****     lv_style_set_line_width(&theme->styles.light, 1);
 1164              		.loc 1 102 5 view .LVU244
 1165 0142 0221     		movs	r1, #2
 1166 0144 1220     		movs	r0, #18
 1167 0146 FFF7FEFF 		bl	lv_palette_lighten
 1168              	.LVL151:
 1169 014a 8DF81800 		strb	r0, [sp, #24]
 1170 014e C0F30723 		ubfx	r3, r0, #8, #8
 1171 0152 8DF81930 		strb	r3, [sp, #25]
 1172 0156 C0F30740 		ubfx	r0, r0, #16, #8
 1173 015a 8DF81A00 		strb	r0, [sp, #26]
 102:../../Middlewares/LVGL/GUI/lvgl/src/themes/simple/lv_theme_simple.c ****     lv_style_set_line_width(&theme->styles.light, 1);
 1174              		.loc 1 102 5 is_stmt 0 discriminator 1 view .LVU245
 1175 015e 0699     		ldr	r1, [sp, #24]
 1176 0160 2846     		mov	r0, r5
 1177 0162 FFF7FEFF 		bl	lv_style_set_bg_color
 1178              	.LVL152:
 103:../../Middlewares/LVGL/GUI/lvgl/src/themes/simple/lv_theme_simple.c ****     lv_style_set_line_color(&theme->styles.light, COLOR_LIGHT);
 1179              		.loc 1 103 5 is_stmt 1 view .LVU246
 1180 0166 0121     		movs	r1, #1
ARM GAS  C:\Users\28576\AppData\Local\Temp\ccvXaXdL.s 			page 42


 1181 0168 2846     		mov	r0, r5
 1182 016a FFF7FEFF 		bl	lv_style_set_line_width
 1183              	.LVL153:
 104:../../Middlewares/LVGL/GUI/lvgl/src/themes/simple/lv_theme_simple.c ****     lv_style_set_arc_width(&theme->styles.light, 2);
 1184              		.loc 1 104 5 view .LVU247
 1185 016e 0221     		movs	r1, #2
 1186 0170 1220     		movs	r0, #18
 1187 0172 FFF7FEFF 		bl	lv_palette_lighten
 1188              	.LVL154:
 1189 0176 8DF81C00 		strb	r0, [sp, #28]
 1190 017a C0F30723 		ubfx	r3, r0, #8, #8
 1191 017e 8DF81D30 		strb	r3, [sp, #29]
 1192 0182 C0F30740 		ubfx	r0, r0, #16, #8
 1193 0186 8DF81E00 		strb	r0, [sp, #30]
 104:../../Middlewares/LVGL/GUI/lvgl/src/themes/simple/lv_theme_simple.c ****     lv_style_set_arc_width(&theme->styles.light, 2);
 1194              		.loc 1 104 5 is_stmt 0 discriminator 1 view .LVU248
 1195 018a 0799     		ldr	r1, [sp, #28]
 1196 018c 2846     		mov	r0, r5
 1197 018e FFF7FEFF 		bl	lv_style_set_line_color
 1198              	.LVL155:
 105:../../Middlewares/LVGL/GUI/lvgl/src/themes/simple/lv_theme_simple.c ****     lv_style_set_arc_color(&theme->styles.light, COLOR_LIGHT);
 1199              		.loc 1 105 5 is_stmt 1 view .LVU249
 1200 0192 0221     		movs	r1, #2
 1201 0194 2846     		mov	r0, r5
 1202 0196 FFF7FEFF 		bl	lv_style_set_arc_width
 1203              	.LVL156:
 106:../../Middlewares/LVGL/GUI/lvgl/src/themes/simple/lv_theme_simple.c **** 
 1204              		.loc 1 106 5 view .LVU250
 1205 019a 0221     		movs	r1, #2
 1206 019c 1220     		movs	r0, #18
 1207 019e FFF7FEFF 		bl	lv_palette_lighten
 1208              	.LVL157:
 1209 01a2 8DF82000 		strb	r0, [sp, #32]
 1210 01a6 C0F30723 		ubfx	r3, r0, #8, #8
 1211 01aa 8DF82130 		strb	r3, [sp, #33]
 1212 01ae C0F30740 		ubfx	r0, r0, #16, #8
 1213 01b2 8DF82200 		strb	r0, [sp, #34]
 106:../../Middlewares/LVGL/GUI/lvgl/src/themes/simple/lv_theme_simple.c **** 
 1214              		.loc 1 106 5 is_stmt 0 discriminator 1 view .LVU251
 1215 01b6 0899     		ldr	r1, [sp, #32]
 1216 01b8 2846     		mov	r0, r5
 1217 01ba FFF7FEFF 		bl	lv_style_set_arc_color
 1218              	.LVL158:
 108:../../Middlewares/LVGL/GUI/lvgl/src/themes/simple/lv_theme_simple.c ****     lv_style_set_bg_opa(&theme->styles.dark, LV_OPA_COVER);
 1219              		.loc 1 108 5 is_stmt 1 view .LVU252
 1220 01be 04F15805 		add	r5, r4, #88
 1221 01c2 2846     		mov	r0, r5
 1222 01c4 FFF7FEFF 		bl	style_init_reset
 1223              	.LVL159:
 109:../../Middlewares/LVGL/GUI/lvgl/src/themes/simple/lv_theme_simple.c ****     lv_style_set_bg_color(&theme->styles.dark, COLOR_DARK);
 1224              		.loc 1 109 5 view .LVU253
 1225 01c8 FF21     		movs	r1, #255
 1226 01ca 2846     		mov	r0, r5
 1227 01cc FFF7FEFF 		bl	lv_style_set_bg_opa
 1228              	.LVL160:
 110:../../Middlewares/LVGL/GUI/lvgl/src/themes/simple/lv_theme_simple.c ****     lv_style_set_line_width(&theme->styles.dark, 1);
 1229              		.loc 1 110 5 view .LVU254
ARM GAS  C:\Users\28576\AppData\Local\Temp\ccvXaXdL.s 			page 43


 1230 01d0 1220     		movs	r0, #18
 1231 01d2 FFF7FEFF 		bl	lv_palette_main
 1232              	.LVL161:
 1233 01d6 8DF82400 		strb	r0, [sp, #36]
 1234 01da C0F30723 		ubfx	r3, r0, #8, #8
 1235 01de 8DF82530 		strb	r3, [sp, #37]
 1236 01e2 C0F30740 		ubfx	r0, r0, #16, #8
 1237 01e6 8DF82600 		strb	r0, [sp, #38]
 110:../../Middlewares/LVGL/GUI/lvgl/src/themes/simple/lv_theme_simple.c ****     lv_style_set_line_width(&theme->styles.dark, 1);
 1238              		.loc 1 110 5 is_stmt 0 discriminator 1 view .LVU255
 1239 01ea 0999     		ldr	r1, [sp, #36]
 1240 01ec 2846     		mov	r0, r5
 1241 01ee FFF7FEFF 		bl	lv_style_set_bg_color
 1242              	.LVL162:
 111:../../Middlewares/LVGL/GUI/lvgl/src/themes/simple/lv_theme_simple.c ****     lv_style_set_line_color(&theme->styles.dark, COLOR_DARK);
 1243              		.loc 1 111 5 is_stmt 1 view .LVU256
 1244 01f2 0121     		movs	r1, #1
 1245 01f4 2846     		mov	r0, r5
 1246 01f6 FFF7FEFF 		bl	lv_style_set_line_width
 1247              	.LVL163:
 112:../../Middlewares/LVGL/GUI/lvgl/src/themes/simple/lv_theme_simple.c ****     lv_style_set_arc_width(&theme->styles.dark, 2);
 1248              		.loc 1 112 5 view .LVU257
 1249 01fa 1220     		movs	r0, #18
 1250 01fc FFF7FEFF 		bl	lv_palette_main
 1251              	.LVL164:
 1252 0200 8DF82800 		strb	r0, [sp, #40]
 1253 0204 C0F30723 		ubfx	r3, r0, #8, #8
 1254 0208 8DF82930 		strb	r3, [sp, #41]
 1255 020c C0F30740 		ubfx	r0, r0, #16, #8
 1256 0210 8DF82A00 		strb	r0, [sp, #42]
 112:../../Middlewares/LVGL/GUI/lvgl/src/themes/simple/lv_theme_simple.c ****     lv_style_set_arc_width(&theme->styles.dark, 2);
 1257              		.loc 1 112 5 is_stmt 0 discriminator 1 view .LVU258
 1258 0214 0A99     		ldr	r1, [sp, #40]
 1259 0216 2846     		mov	r0, r5
 1260 0218 FFF7FEFF 		bl	lv_style_set_line_color
 1261              	.LVL165:
 113:../../Middlewares/LVGL/GUI/lvgl/src/themes/simple/lv_theme_simple.c ****     lv_style_set_arc_color(&theme->styles.dark, COLOR_DARK);
 1262              		.loc 1 113 5 is_stmt 1 view .LVU259
 1263 021c 0221     		movs	r1, #2
 1264 021e 2846     		mov	r0, r5
 1265 0220 FFF7FEFF 		bl	lv_style_set_arc_width
 1266              	.LVL166:
 114:../../Middlewares/LVGL/GUI/lvgl/src/themes/simple/lv_theme_simple.c **** 
 1267              		.loc 1 114 5 view .LVU260
 1268 0224 1220     		movs	r0, #18
 1269 0226 FFF7FEFF 		bl	lv_palette_main
 1270              	.LVL167:
 1271 022a 8DF82C00 		strb	r0, [sp, #44]
 1272 022e C0F30723 		ubfx	r3, r0, #8, #8
 1273 0232 8DF82D30 		strb	r3, [sp, #45]
 1274 0236 C0F30740 		ubfx	r0, r0, #16, #8
 1275 023a 8DF82E00 		strb	r0, [sp, #46]
 114:../../Middlewares/LVGL/GUI/lvgl/src/themes/simple/lv_theme_simple.c **** 
 1276              		.loc 1 114 5 is_stmt 0 discriminator 1 view .LVU261
 1277 023e 0B99     		ldr	r1, [sp, #44]
 1278 0240 2846     		mov	r0, r5
 1279 0242 FFF7FEFF 		bl	lv_style_set_arc_color
ARM GAS  C:\Users\28576\AppData\Local\Temp\ccvXaXdL.s 			page 44


 1280              	.LVL168:
 116:../../Middlewares/LVGL/GUI/lvgl/src/themes/simple/lv_theme_simple.c ****     lv_style_set_bg_opa(&theme->styles.dim, LV_OPA_COVER);
 1281              		.loc 1 116 5 is_stmt 1 view .LVU262
 1282 0246 04F16405 		add	r5, r4, #100
 1283 024a 2846     		mov	r0, r5
 1284 024c FFF7FEFF 		bl	style_init_reset
 1285              	.LVL169:
 117:../../Middlewares/LVGL/GUI/lvgl/src/themes/simple/lv_theme_simple.c ****     lv_style_set_bg_color(&theme->styles.dim, COLOR_DIM);
 1286              		.loc 1 117 5 view .LVU263
 1287 0250 FF21     		movs	r1, #255
 1288 0252 2846     		mov	r0, r5
 1289 0254 FFF7FEFF 		bl	lv_style_set_bg_opa
 1290              	.LVL170:
 118:../../Middlewares/LVGL/GUI/lvgl/src/themes/simple/lv_theme_simple.c ****     lv_style_set_line_width(&theme->styles.dim, 1);
 1291              		.loc 1 118 5 view .LVU264
 1292 0258 0221     		movs	r1, #2
 1293 025a 1220     		movs	r0, #18
 1294 025c FFF7FEFF 		bl	lv_palette_darken
 1295              	.LVL171:
 1296 0260 8DF83000 		strb	r0, [sp, #48]
 1297 0264 C0F30723 		ubfx	r3, r0, #8, #8
 1298 0268 8DF83130 		strb	r3, [sp, #49]
 1299 026c C0F30740 		ubfx	r0, r0, #16, #8
 1300 0270 8DF83200 		strb	r0, [sp, #50]
 118:../../Middlewares/LVGL/GUI/lvgl/src/themes/simple/lv_theme_simple.c ****     lv_style_set_line_width(&theme->styles.dim, 1);
 1301              		.loc 1 118 5 is_stmt 0 discriminator 1 view .LVU265
 1302 0274 0C99     		ldr	r1, [sp, #48]
 1303 0276 2846     		mov	r0, r5
 1304 0278 FFF7FEFF 		bl	lv_style_set_bg_color
 1305              	.LVL172:
 119:../../Middlewares/LVGL/GUI/lvgl/src/themes/simple/lv_theme_simple.c ****     lv_style_set_line_color(&theme->styles.dim, COLOR_DIM);
 1306              		.loc 1 119 5 is_stmt 1 view .LVU266
 1307 027c 0121     		movs	r1, #1
 1308 027e 2846     		mov	r0, r5
 1309 0280 FFF7FEFF 		bl	lv_style_set_line_width
 1310              	.LVL173:
 120:../../Middlewares/LVGL/GUI/lvgl/src/themes/simple/lv_theme_simple.c ****     lv_style_set_arc_width(&theme->styles.dim, 2);
 1311              		.loc 1 120 5 view .LVU267
 1312 0284 0221     		movs	r1, #2
 1313 0286 1220     		movs	r0, #18
 1314 0288 FFF7FEFF 		bl	lv_palette_darken
 1315              	.LVL174:
 1316 028c 8DF83400 		strb	r0, [sp, #52]
 1317 0290 C0F30723 		ubfx	r3, r0, #8, #8
 1318 0294 8DF83530 		strb	r3, [sp, #53]
 1319 0298 C0F30740 		ubfx	r0, r0, #16, #8
 1320 029c 8DF83600 		strb	r0, [sp, #54]
 120:../../Middlewares/LVGL/GUI/lvgl/src/themes/simple/lv_theme_simple.c ****     lv_style_set_arc_width(&theme->styles.dim, 2);
 1321              		.loc 1 120 5 is_stmt 0 discriminator 1 view .LVU268
 1322 02a0 0D99     		ldr	r1, [sp, #52]
 1323 02a2 2846     		mov	r0, r5
 1324 02a4 FFF7FEFF 		bl	lv_style_set_line_color
 1325              	.LVL175:
 121:../../Middlewares/LVGL/GUI/lvgl/src/themes/simple/lv_theme_simple.c ****     lv_style_set_arc_color(&theme->styles.dim, COLOR_DIM);
 1326              		.loc 1 121 5 is_stmt 1 view .LVU269
 1327 02a8 0221     		movs	r1, #2
 1328 02aa 2846     		mov	r0, r5
ARM GAS  C:\Users\28576\AppData\Local\Temp\ccvXaXdL.s 			page 45


 1329 02ac FFF7FEFF 		bl	lv_style_set_arc_width
 1330              	.LVL176:
 122:../../Middlewares/LVGL/GUI/lvgl/src/themes/simple/lv_theme_simple.c **** 
 1331              		.loc 1 122 5 view .LVU270
 1332 02b0 0221     		movs	r1, #2
 1333 02b2 1220     		movs	r0, #18
 1334 02b4 FFF7FEFF 		bl	lv_palette_darken
 1335              	.LVL177:
 1336 02b8 8DF83800 		strb	r0, [sp, #56]
 1337 02bc C0F30723 		ubfx	r3, r0, #8, #8
 1338 02c0 8DF83930 		strb	r3, [sp, #57]
 1339 02c4 C0F30740 		ubfx	r0, r0, #16, #8
 1340 02c8 8DF83A00 		strb	r0, [sp, #58]
 122:../../Middlewares/LVGL/GUI/lvgl/src/themes/simple/lv_theme_simple.c **** 
 1341              		.loc 1 122 5 is_stmt 0 discriminator 1 view .LVU271
 1342 02cc 0E99     		ldr	r1, [sp, #56]
 1343 02ce 2846     		mov	r0, r5
 1344 02d0 FFF7FEFF 		bl	lv_style_set_arc_color
 1345              	.LVL178:
 125:../../Middlewares/LVGL/GUI/lvgl/src/themes/simple/lv_theme_simple.c ****     lv_style_set_arc_width(&theme->styles.arc_line, 6);
 1346              		.loc 1 125 5 is_stmt 1 view .LVU272
 1347 02d4 04F17C05 		add	r5, r4, #124
 1348 02d8 2846     		mov	r0, r5
 1349 02da FFF7FEFF 		bl	style_init_reset
 1350              	.LVL179:
 126:../../Middlewares/LVGL/GUI/lvgl/src/themes/simple/lv_theme_simple.c ****     style_init_reset(&theme->styles.arc_knob);
 1351              		.loc 1 126 5 view .LVU273
 1352 02de 0621     		movs	r1, #6
 1353 02e0 2846     		mov	r0, r5
 1354 02e2 FFF7FEFF 		bl	lv_style_set_arc_width
 1355              	.LVL180:
 127:../../Middlewares/LVGL/GUI/lvgl/src/themes/simple/lv_theme_simple.c ****     lv_style_set_pad_all(&theme->styles.arc_knob, 5);
 1356              		.loc 1 127 5 view .LVU274
 1357 02e6 04F18805 		add	r5, r4, #136
 1358 02ea 2846     		mov	r0, r5
 1359 02ec FFF7FEFF 		bl	style_init_reset
 1360              	.LVL181:
 128:../../Middlewares/LVGL/GUI/lvgl/src/themes/simple/lv_theme_simple.c **** #endif
 1361              		.loc 1 128 5 view .LVU275
 1362 02f0 0521     		movs	r1, #5
 1363 02f2 2846     		mov	r0, r5
 1364 02f4 FFF7FEFF 		bl	lv_style_set_pad_all
 1365              	.LVL182:
 132:../../Middlewares/LVGL/GUI/lvgl/src/themes/simple/lv_theme_simple.c ****     lv_style_set_border_side(&theme->styles.ta_cursor, LV_BORDER_SIDE_LEFT);
 1366              		.loc 1 132 5 view .LVU276
 1367 02f8 9434     		adds	r4, r4, #148
 1368              	.LVL183:
 132:../../Middlewares/LVGL/GUI/lvgl/src/themes/simple/lv_theme_simple.c ****     lv_style_set_border_side(&theme->styles.ta_cursor, LV_BORDER_SIDE_LEFT);
 1369              		.loc 1 132 5 is_stmt 0 view .LVU277
 1370 02fa 2046     		mov	r0, r4
 1371 02fc FFF7FEFF 		bl	style_init_reset
 1372              	.LVL184:
 133:../../Middlewares/LVGL/GUI/lvgl/src/themes/simple/lv_theme_simple.c ****     lv_style_set_border_color(&theme->styles.ta_cursor, COLOR_DIM);
 1373              		.loc 1 133 5 is_stmt 1 view .LVU278
 1374 0300 0421     		movs	r1, #4
 1375 0302 2046     		mov	r0, r4
 1376 0304 FFF7FEFF 		bl	lv_style_set_border_side
ARM GAS  C:\Users\28576\AppData\Local\Temp\ccvXaXdL.s 			page 46


 1377              	.LVL185:
 134:../../Middlewares/LVGL/GUI/lvgl/src/themes/simple/lv_theme_simple.c ****     lv_style_set_border_width(&theme->styles.ta_cursor, 2);
 1378              		.loc 1 134 5 view .LVU279
 1379 0308 0221     		movs	r1, #2
 1380 030a 1220     		movs	r0, #18
 1381 030c FFF7FEFF 		bl	lv_palette_darken
 1382              	.LVL186:
 1383 0310 8DF83C00 		strb	r0, [sp, #60]
 1384 0314 C0F30723 		ubfx	r3, r0, #8, #8
 1385 0318 8DF83D30 		strb	r3, [sp, #61]
 1386 031c C0F30740 		ubfx	r0, r0, #16, #8
 1387 0320 8DF83E00 		strb	r0, [sp, #62]
 134:../../Middlewares/LVGL/GUI/lvgl/src/themes/simple/lv_theme_simple.c ****     lv_style_set_border_width(&theme->styles.ta_cursor, 2);
 1388              		.loc 1 134 5 is_stmt 0 discriminator 1 view .LVU280
 1389 0324 0F99     		ldr	r1, [sp, #60]
 1390 0326 2046     		mov	r0, r4
 1391 0328 FFF7FEFF 		bl	lv_style_set_border_color
 1392              	.LVL187:
 135:../../Middlewares/LVGL/GUI/lvgl/src/themes/simple/lv_theme_simple.c ****     lv_style_set_bg_opa(&theme->styles.ta_cursor, LV_OPA_TRANSP);
 1393              		.loc 1 135 5 is_stmt 1 view .LVU281
 1394 032c 0221     		movs	r1, #2
 1395 032e 2046     		mov	r0, r4
 1396 0330 FFF7FEFF 		bl	lv_style_set_border_width
 1397              	.LVL188:
 136:../../Middlewares/LVGL/GUI/lvgl/src/themes/simple/lv_theme_simple.c ****     lv_style_set_anim_duration(&theme->styles.ta_cursor, 500);
 1398              		.loc 1 136 5 view .LVU282
 1399 0334 0021     		movs	r1, #0
 1400 0336 2046     		mov	r0, r4
 1401 0338 FFF7FEFF 		bl	lv_style_set_bg_opa
 1402              	.LVL189:
 137:../../Middlewares/LVGL/GUI/lvgl/src/themes/simple/lv_theme_simple.c **** #endif
 1403              		.loc 1 137 5 view .LVU283
 1404 033c 4FF4FA71 		mov	r1, #500
 1405 0340 2046     		mov	r0, r4
 1406 0342 FFF7FEFF 		bl	lv_style_set_anim_duration
 1407              	.LVL190:
 139:../../Middlewares/LVGL/GUI/lvgl/src/themes/simple/lv_theme_simple.c **** 
 1408              		.loc 1 139 1 is_stmt 0 view .LVU284
 1409 0346 11B0     		add	sp, sp, #68
 1410              	.LCFI5:
 1411              		.cfi_def_cfa_offset 12
 1412              		@ sp needed
 1413 0348 30BD     		pop	{r4, r5, pc}
 139:../../Middlewares/LVGL/GUI/lvgl/src/themes/simple/lv_theme_simple.c **** 
 1414              		.loc 1 139 1 view .LVU285
 1415              		.cfi_endproc
 1416              	.LFE196:
 1418              		.section	.text.lv_theme_simple_get,"ax",%progbits
 1419              		.align	1
 1420              		.global	lv_theme_simple_get
 1421              		.syntax unified
 1422              		.thumb
 1423              		.thumb_func
 1425              	lv_theme_simple_get:
 1426              	.LFB198:
 153:../../Middlewares/LVGL/GUI/lvgl/src/themes/simple/lv_theme_simple.c ****     if(!lv_theme_simple_is_inited()) {
 1427              		.loc 1 153 1 is_stmt 1 view -0
ARM GAS  C:\Users\28576\AppData\Local\Temp\ccvXaXdL.s 			page 47


 1428              		.cfi_startproc
 1429              		@ args = 0, pretend = 0, frame = 0
 1430              		@ frame_needed = 0, uses_anonymous_args = 0
 1431 0000 08B5     		push	{r3, lr}
 1432              	.LCFI6:
 1433              		.cfi_def_cfa_offset 8
 1434              		.cfi_offset 3, -8
 1435              		.cfi_offset 14, -4
 154:../../Middlewares/LVGL/GUI/lvgl/src/themes/simple/lv_theme_simple.c ****         return NULL;
 1436              		.loc 1 154 5 view .LVU287
 154:../../Middlewares/LVGL/GUI/lvgl/src/themes/simple/lv_theme_simple.c ****         return NULL;
 1437              		.loc 1 154 9 is_stmt 0 view .LVU288
 1438 0002 FFF7FEFF 		bl	lv_theme_simple_is_inited
 1439              	.LVL191:
 154:../../Middlewares/LVGL/GUI/lvgl/src/themes/simple/lv_theme_simple.c ****         return NULL;
 1440              		.loc 1 154 7 discriminator 1 view .LVU289
 1441 0006 10B1     		cbz	r0, .L60
 158:../../Middlewares/LVGL/GUI/lvgl/src/themes/simple/lv_theme_simple.c **** }
 1442              		.loc 1 158 5 is_stmt 1 view .LVU290
 158:../../Middlewares/LVGL/GUI/lvgl/src/themes/simple/lv_theme_simple.c **** }
 1443              		.loc 1 158 12 is_stmt 0 view .LVU291
 1444 0008 014B     		ldr	r3, .L64
 1445 000a D3F8B801 		ldr	r0, [r3, #440]
 1446              	.L60:
 159:../../Middlewares/LVGL/GUI/lvgl/src/themes/simple/lv_theme_simple.c **** 
 1447              		.loc 1 159 1 view .LVU292
 1448 000e 08BD     		pop	{r3, pc}
 1449              	.L65:
 1450              		.align	2
 1451              	.L64:
 1452 0010 00000000 		.word	lv_global
 1453              		.cfi_endproc
 1454              	.LFE198:
 1456              		.section	.text.lv_theme_simple_deinit,"ax",%progbits
 1457              		.align	1
 1458              		.global	lv_theme_simple_deinit
 1459              		.syntax unified
 1460              		.thumb
 1461              		.thumb_func
 1463              	lv_theme_simple_deinit:
 1464              	.LFB199:
 162:../../Middlewares/LVGL/GUI/lvgl/src/themes/simple/lv_theme_simple.c ****     my_theme_t * theme = theme_def;
 1465              		.loc 1 162 1 is_stmt 1 view -0
 1466              		.cfi_startproc
 1467              		@ args = 0, pretend = 0, frame = 0
 1468              		@ frame_needed = 0, uses_anonymous_args = 0
 1469 0000 38B5     		push	{r3, r4, r5, lr}
 1470              	.LCFI7:
 1471              		.cfi_def_cfa_offset 16
 1472              		.cfi_offset 3, -16
 1473              		.cfi_offset 4, -12
 1474              		.cfi_offset 5, -8
 1475              		.cfi_offset 14, -4
 163:../../Middlewares/LVGL/GUI/lvgl/src/themes/simple/lv_theme_simple.c ****     if(theme) {
 1476              		.loc 1 163 5 view .LVU294
 163:../../Middlewares/LVGL/GUI/lvgl/src/themes/simple/lv_theme_simple.c ****     if(theme) {
 1477              		.loc 1 163 18 is_stmt 0 view .LVU295
ARM GAS  C:\Users\28576\AppData\Local\Temp\ccvXaXdL.s 			page 48


 1478 0002 0E4B     		ldr	r3, .L72
 1479 0004 D3F8B851 		ldr	r5, [r3, #440]
 1480              	.LVL192:
 164:../../Middlewares/LVGL/GUI/lvgl/src/themes/simple/lv_theme_simple.c ****         if(theme->inited) {
 1481              		.loc 1 164 5 is_stmt 1 view .LVU296
 164:../../Middlewares/LVGL/GUI/lvgl/src/themes/simple/lv_theme_simple.c ****         if(theme->inited) {
 1482              		.loc 1 164 7 is_stmt 0 view .LVU297
 1483 0008 B5B1     		cbz	r5, .L66
 165:../../Middlewares/LVGL/GUI/lvgl/src/themes/simple/lv_theme_simple.c ****             lv_style_t * theme_styles = (lv_style_t *)(&(theme->styles));
 1484              		.loc 1 165 9 is_stmt 1 view .LVU298
 165:../../Middlewares/LVGL/GUI/lvgl/src/themes/simple/lv_theme_simple.c ****             lv_style_t * theme_styles = (lv_style_t *)(&(theme->styles));
 1485              		.loc 1 165 17 is_stmt 0 view .LVU299
 1486 000a 95F8A030 		ldrb	r3, [r5, #160]	@ zero_extendqisi2
 165:../../Middlewares/LVGL/GUI/lvgl/src/themes/simple/lv_theme_simple.c ****             lv_style_t * theme_styles = (lv_style_t *)(&(theme->styles));
 1487              		.loc 1 165 11 view .LVU300
 1488 000e 5BB1     		cbz	r3, .L68
 1489              	.LBB2:
 166:../../Middlewares/LVGL/GUI/lvgl/src/themes/simple/lv_theme_simple.c ****             uint32_t i;
 1490              		.loc 1 166 13 is_stmt 1 view .LVU301
 166:../../Middlewares/LVGL/GUI/lvgl/src/themes/simple/lv_theme_simple.c ****             uint32_t i;
 1491              		.loc 1 166 26 is_stmt 0 view .LVU302
 1492 0010 2835     		adds	r5, r5, #40
 1493              	.LVL193:
 167:../../Middlewares/LVGL/GUI/lvgl/src/themes/simple/lv_theme_simple.c ****             for(i = 0; i < sizeof(my_theme_styles_t) / sizeof(lv_style_t); i++) {
 1494              		.loc 1 167 13 is_stmt 1 view .LVU303
 168:../../Middlewares/LVGL/GUI/lvgl/src/themes/simple/lv_theme_simple.c ****                 lv_style_reset(theme_styles + i);
 1495              		.loc 1 168 13 view .LVU304
 168:../../Middlewares/LVGL/GUI/lvgl/src/themes/simple/lv_theme_simple.c ****                 lv_style_reset(theme_styles + i);
 1496              		.loc 1 168 19 is_stmt 0 view .LVU305
 1497 0012 0024     		movs	r4, #0
 168:../../Middlewares/LVGL/GUI/lvgl/src/themes/simple/lv_theme_simple.c ****                 lv_style_reset(theme_styles + i);
 1498              		.loc 1 168 13 view .LVU306
 1499 0014 06E0     		b	.L69
 1500              	.LVL194:
 1501              	.L70:
 169:../../Middlewares/LVGL/GUI/lvgl/src/themes/simple/lv_theme_simple.c ****             }
 1502              		.loc 1 169 17 is_stmt 1 view .LVU307
 169:../../Middlewares/LVGL/GUI/lvgl/src/themes/simple/lv_theme_simple.c ****             }
 1503              		.loc 1 169 45 is_stmt 0 view .LVU308
 1504 0016 04EB4400 		add	r0, r4, r4, lsl #1
 169:../../Middlewares/LVGL/GUI/lvgl/src/themes/simple/lv_theme_simple.c ****             }
 1505              		.loc 1 169 17 view .LVU309
 1506 001a 05EB8000 		add	r0, r5, r0, lsl #2
 1507 001e FFF7FEFF 		bl	lv_style_reset
 1508              	.LVL195:
 168:../../Middlewares/LVGL/GUI/lvgl/src/themes/simple/lv_theme_simple.c ****                 lv_style_reset(theme_styles + i);
 1509              		.loc 1 168 77 is_stmt 1 discriminator 3 view .LVU310
 1510 0022 0134     		adds	r4, r4, #1
 1511              	.LVL196:
 1512              	.L69:
 168:../../Middlewares/LVGL/GUI/lvgl/src/themes/simple/lv_theme_simple.c ****                 lv_style_reset(theme_styles + i);
 1513              		.loc 1 168 26 discriminator 1 view .LVU311
 1514 0024 092C     		cmp	r4, #9
 1515 0026 F6D9     		bls	.L70
 1516              	.LVL197:
 1517              	.L68:
 168:../../Middlewares/LVGL/GUI/lvgl/src/themes/simple/lv_theme_simple.c ****                 lv_style_reset(theme_styles + i);
ARM GAS  C:\Users\28576\AppData\Local\Temp\ccvXaXdL.s 			page 49


 1518              		.loc 1 168 26 is_stmt 0 discriminator 1 view .LVU312
 1519              	.LBE2:
 172:../../Middlewares/LVGL/GUI/lvgl/src/themes/simple/lv_theme_simple.c ****         theme_def = NULL;
 1520              		.loc 1 172 9 is_stmt 1 view .LVU313
 1521 0028 044C     		ldr	r4, .L72
 1522 002a D4F8B801 		ldr	r0, [r4, #440]
 1523 002e FFF7FEFF 		bl	lv_free
 1524              	.LVL198:
 173:../../Middlewares/LVGL/GUI/lvgl/src/themes/simple/lv_theme_simple.c ****     }
 1525              		.loc 1 173 9 view .LVU314
 173:../../Middlewares/LVGL/GUI/lvgl/src/themes/simple/lv_theme_simple.c ****     }
 1526              		.loc 1 173 19 is_stmt 0 view .LVU315
 1527 0032 0023     		movs	r3, #0
 1528 0034 C4F8B831 		str	r3, [r4, #440]
 1529              	.L66:
 175:../../Middlewares/LVGL/GUI/lvgl/src/themes/simple/lv_theme_simple.c **** 
 1530              		.loc 1 175 1 view .LVU316
 1531 0038 38BD     		pop	{r3, r4, r5, pc}
 1532              	.L73:
 1533 003a 00BF     		.align	2
 1534              	.L72:
 1535 003c 00000000 		.word	lv_global
 1536              		.cfi_endproc
 1537              	.LFE199:
 1539              		.section	.text.lv_theme_simple_init,"ax",%progbits
 1540              		.align	1
 1541              		.global	lv_theme_simple_init
 1542              		.syntax unified
 1543              		.thumb
 1544              		.thumb_func
 1546              	lv_theme_simple_init:
 1547              	.LVL199:
 1548              	.LFB200:
 178:../../Middlewares/LVGL/GUI/lvgl/src/themes/simple/lv_theme_simple.c ****     /*This trick is required only to avoid the garbage collection of
 1549              		.loc 1 178 1 is_stmt 1 view -0
 1550              		.cfi_startproc
 1551              		@ args = 0, pretend = 0, frame = 0
 1552              		@ frame_needed = 0, uses_anonymous_args = 0
 178:../../Middlewares/LVGL/GUI/lvgl/src/themes/simple/lv_theme_simple.c ****     /*This trick is required only to avoid the garbage collection of
 1553              		.loc 1 178 1 is_stmt 0 view .LVU318
 1554 0000 38B5     		push	{r3, r4, r5, lr}
 1555              	.LCFI8:
 1556              		.cfi_def_cfa_offset 16
 1557              		.cfi_offset 3, -16
 1558              		.cfi_offset 4, -12
 1559              		.cfi_offset 5, -8
 1560              		.cfi_offset 14, -4
 1561 0002 0546     		mov	r5, r0
 182:../../Middlewares/LVGL/GUI/lvgl/src/themes/simple/lv_theme_simple.c ****         theme_def  = lv_malloc_zeroed(sizeof(my_theme_t));
 1562              		.loc 1 182 5 is_stmt 1 view .LVU319
 182:../../Middlewares/LVGL/GUI/lvgl/src/themes/simple/lv_theme_simple.c ****         theme_def  = lv_malloc_zeroed(sizeof(my_theme_t));
 1563              		.loc 1 182 9 is_stmt 0 view .LVU320
 1564 0004 FFF7FEFF 		bl	lv_theme_simple_is_inited
 1565              	.LVL200:
 182:../../Middlewares/LVGL/GUI/lvgl/src/themes/simple/lv_theme_simple.c ****         theme_def  = lv_malloc_zeroed(sizeof(my_theme_t));
 1566              		.loc 1 182 7 discriminator 1 view .LVU321
 1567 0008 E0B1     		cbz	r0, .L79
ARM GAS  C:\Users\28576\AppData\Local\Temp\ccvXaXdL.s 			page 50


 1568              	.L75:
 186:../../Middlewares/LVGL/GUI/lvgl/src/themes/simple/lv_theme_simple.c **** 
 1569              		.loc 1 186 5 is_stmt 1 view .LVU322
 186:../../Middlewares/LVGL/GUI/lvgl/src/themes/simple/lv_theme_simple.c **** 
 1570              		.loc 1 186 18 is_stmt 0 view .LVU323
 1571 000a 124B     		ldr	r3, .L80
 1572 000c D3F8B841 		ldr	r4, [r3, #440]
 1573              	.LVL201:
 188:../../Middlewares/LVGL/GUI/lvgl/src/themes/simple/lv_theme_simple.c ****     theme->base.font_small = LV_FONT_DEFAULT;
 1574              		.loc 1 188 5 is_stmt 1 view .LVU324
 188:../../Middlewares/LVGL/GUI/lvgl/src/themes/simple/lv_theme_simple.c ****     theme->base.font_small = LV_FONT_DEFAULT;
 1575              		.loc 1 188 22 is_stmt 0 view .LVU325
 1576 0010 E560     		str	r5, [r4, #12]
 189:../../Middlewares/LVGL/GUI/lvgl/src/themes/simple/lv_theme_simple.c ****     theme->base.font_normal = LV_FONT_DEFAULT;
 1577              		.loc 1 189 5 is_stmt 1 view .LVU326
 189:../../Middlewares/LVGL/GUI/lvgl/src/themes/simple/lv_theme_simple.c ****     theme->base.font_normal = LV_FONT_DEFAULT;
 1578              		.loc 1 189 28 is_stmt 0 view .LVU327
 1579 0012 114B     		ldr	r3, .L80+4
 1580 0014 A361     		str	r3, [r4, #24]
 190:../../Middlewares/LVGL/GUI/lvgl/src/themes/simple/lv_theme_simple.c ****     theme->base.font_large = LV_FONT_DEFAULT;
 1581              		.loc 1 190 5 is_stmt 1 view .LVU328
 190:../../Middlewares/LVGL/GUI/lvgl/src/themes/simple/lv_theme_simple.c ****     theme->base.font_large = LV_FONT_DEFAULT;
 1582              		.loc 1 190 29 is_stmt 0 view .LVU329
 1583 0016 E361     		str	r3, [r4, #28]
 191:../../Middlewares/LVGL/GUI/lvgl/src/themes/simple/lv_theme_simple.c ****     theme->base.apply_cb = theme_apply;
 1584              		.loc 1 191 5 is_stmt 1 view .LVU330
 191:../../Middlewares/LVGL/GUI/lvgl/src/themes/simple/lv_theme_simple.c ****     theme->base.apply_cb = theme_apply;
 1585              		.loc 1 191 28 is_stmt 0 view .LVU331
 1586 0018 2362     		str	r3, [r4, #32]
 192:../../Middlewares/LVGL/GUI/lvgl/src/themes/simple/lv_theme_simple.c **** 
 1587              		.loc 1 192 5 is_stmt 1 view .LVU332
 192:../../Middlewares/LVGL/GUI/lvgl/src/themes/simple/lv_theme_simple.c **** 
 1588              		.loc 1 192 26 is_stmt 0 view .LVU333
 1589 001a 104B     		ldr	r3, .L80+8
 1590 001c 2360     		str	r3, [r4]
 194:../../Middlewares/LVGL/GUI/lvgl/src/themes/simple/lv_theme_simple.c **** 
 1591              		.loc 1 194 5 is_stmt 1 view .LVU334
 1592 001e 2046     		mov	r0, r4
 1593 0020 FFF7FEFF 		bl	style_init
 1594              	.LVL202:
 196:../../Middlewares/LVGL/GUI/lvgl/src/themes/simple/lv_theme_simple.c ****         lv_obj_report_style_change(NULL);
 1595              		.loc 1 196 5 view .LVU335
 196:../../Middlewares/LVGL/GUI/lvgl/src/themes/simple/lv_theme_simple.c ****         lv_obj_report_style_change(NULL);
 1596              		.loc 1 196 7 is_stmt 0 view .LVU336
 1597 0024 25B1     		cbz	r5, .L76
 196:../../Middlewares/LVGL/GUI/lvgl/src/themes/simple/lv_theme_simple.c ****         lv_obj_report_style_change(NULL);
 1598              		.loc 1 196 24 discriminator 1 view .LVU337
 1599 0026 2846     		mov	r0, r5
 1600 0028 FFF7FEFF 		bl	lv_display_get_theme
 1601              	.LVL203:
 196:../../Middlewares/LVGL/GUI/lvgl/src/themes/simple/lv_theme_simple.c ****         lv_obj_report_style_change(NULL);
 1602              		.loc 1 196 21 discriminator 2 view .LVU338
 1603 002c A042     		cmp	r0, r4
 1604 002e 02D1     		bne	.L77
 1605              	.L76:
 197:../../Middlewares/LVGL/GUI/lvgl/src/themes/simple/lv_theme_simple.c ****     }
 1606              		.loc 1 197 9 is_stmt 1 view .LVU339
ARM GAS  C:\Users\28576\AppData\Local\Temp\ccvXaXdL.s 			page 51


 1607 0030 0020     		movs	r0, #0
 1608 0032 FFF7FEFF 		bl	lv_obj_report_style_change
 1609              	.LVL204:
 1610              	.L77:
 200:../../Middlewares/LVGL/GUI/lvgl/src/themes/simple/lv_theme_simple.c **** 
 1611              		.loc 1 200 5 view .LVU340
 200:../../Middlewares/LVGL/GUI/lvgl/src/themes/simple/lv_theme_simple.c **** 
 1612              		.loc 1 200 19 is_stmt 0 view .LVU341
 1613 0036 0123     		movs	r3, #1
 1614 0038 84F8A030 		strb	r3, [r4, #160]
 202:../../Middlewares/LVGL/GUI/lvgl/src/themes/simple/lv_theme_simple.c **** }
 1615              		.loc 1 202 5 is_stmt 1 view .LVU342
 203:../../Middlewares/LVGL/GUI/lvgl/src/themes/simple/lv_theme_simple.c **** 
 1616              		.loc 1 203 1 is_stmt 0 view .LVU343
 1617 003c 054B     		ldr	r3, .L80
 1618 003e D3F8B801 		ldr	r0, [r3, #440]
 1619 0042 38BD     		pop	{r3, r4, r5, pc}
 1620              	.LVL205:
 1621              	.L79:
 183:../../Middlewares/LVGL/GUI/lvgl/src/themes/simple/lv_theme_simple.c ****     }
 1622              		.loc 1 183 9 is_stmt 1 view .LVU344
 183:../../Middlewares/LVGL/GUI/lvgl/src/themes/simple/lv_theme_simple.c ****     }
 1623              		.loc 1 183 22 is_stmt 0 view .LVU345
 1624 0044 A420     		movs	r0, #164
 1625 0046 FFF7FEFF 		bl	lv_malloc_zeroed
 1626              	.LVL206:
 183:../../Middlewares/LVGL/GUI/lvgl/src/themes/simple/lv_theme_simple.c ****     }
 1627              		.loc 1 183 20 discriminator 1 view .LVU346
 1628 004a 024B     		ldr	r3, .L80
 1629 004c C3F8B801 		str	r0, [r3, #440]
 1630 0050 DBE7     		b	.L75
 1631              	.L81:
 1632 0052 00BF     		.align	2
 1633              	.L80:
 1634 0054 00000000 		.word	lv_global
 1635 0058 00000000 		.word	lv_font_montserrat_14
 1636 005c 00000000 		.word	theme_apply
 1637              		.cfi_endproc
 1638              	.LFE200:
 1640              		.text
 1641              	.Letext0:
 1642              		.file 3 "C:/Users/28576/AppData/Roaming/xPacks/@xpack-dev-tools/arm-none-eabi-gcc/15.2.1-1.1.1/.co
 1643              		.file 4 "C:/Users/28576/AppData/Roaming/xPacks/@xpack-dev-tools/arm-none-eabi-gcc/15.2.1-1.1.1/.co
 1644              		.file 5 "C:/Users/28576/AppData/Roaming/xPacks/@xpack-dev-tools/arm-none-eabi-gcc/15.2.1-1.1.1/.co
 1645              		.file 6 "H:/STM32H7/RGB_LVGL/Middlewares/LVGL/GUI/lvgl/src/misc/lv_types.h"
 1646              		.file 7 "H:/STM32H7/RGB_LVGL/Middlewares/LVGL/GUI/lvgl/src/draw/lv_draw.h"
 1647              		.file 8 "H:/STM32H7/RGB_LVGL/Middlewares/LVGL/GUI/lvgl/src/draw/lv_draw_private.h"
 1648              		.file 9 "H:/STM32H7/RGB_LVGL/Middlewares/LVGL/GUI/lvgl/src/misc/lv_timer_private.h"
 1649              		.file 10 "../../Middlewares/LVGL/GUI/lvgl/src/themes/simple/../lv_theme_private.h"
 1650              		.file 11 "H:/STM32H7/RGB_LVGL/Middlewares/LVGL/GUI/lvgl/src/font/lv_font.h"
 1651              		.file 12 "H:/STM32H7/RGB_LVGL/Middlewares/LVGL/GUI/lvgl/src/misc/cache/lv_cache_private.h"
 1652              		.file 13 "H:/STM32H7/RGB_LVGL/Middlewares/LVGL/GUI/lvgl/src/draw/lv_draw_buf_private.h"
 1653              		.file 14 "H:/STM32H7/RGB_LVGL/Middlewares/LVGL/GUI/lvgl/src/draw/lv_draw_buf.h"
 1654              		.file 15 "H:/STM32H7/RGB_LVGL/Middlewares/LVGL/GUI/lvgl/src/misc/lv_area.h"
 1655              		.file 16 "H:/STM32H7/RGB_LVGL/Middlewares/LVGL/GUI/lvgl/src/misc/lv_color.h"
 1656              		.file 17 "H:/STM32H7/RGB_LVGL/Middlewares/LVGL/GUI/lvgl/src/misc/lv_palette.h"
 1657              		.file 18 "H:/STM32H7/RGB_LVGL/Middlewares/LVGL/GUI/lvgl/src/draw/lv_image_dsc.h"
ARM GAS  C:\Users\28576\AppData\Local\Temp\ccvXaXdL.s 			page 52


 1658              		.file 19 "H:/STM32H7/RGB_LVGL/Middlewares/LVGL/GUI/lvgl/src/tick/lv_tick.h"
 1659              		.file 20 "H:/STM32H7/RGB_LVGL/Middlewares/LVGL/GUI/lvgl/src/misc/lv_ll.h"
 1660              		.file 21 "H:/STM32H7/RGB_LVGL/Middlewares/LVGL/GUI/lvgl/src/misc/lv_timer.h"
 1661              		.file 22 "H:/STM32H7/RGB_LVGL/Middlewares/LVGL/GUI/lvgl/src/layouts/lv_layout.h"
 1662              		.file 23 "H:/STM32H7/RGB_LVGL/Middlewares/LVGL/GUI/lvgl/src/core/lv_obj_style.h"
 1663              		.file 24 "H:/STM32H7/RGB_LVGL/Middlewares/LVGL/GUI/lvgl/src/core/lv_obj.h"
 1664              		.file 25 "../../Middlewares/LVGL/GUI/lvgl/src/themes/simple/../lv_theme.h"
 1665              		.file 26 "H:/STM32H7/RGB_LVGL/Middlewares/LVGL/GUI/lvgl/src/osal/lv_os_none.h"
 1666              		.file 27 "H:/STM32H7/RGB_LVGL/Middlewares/LVGL/GUI/lvgl/src/widgets/arc/lv_arc.h"
 1667              		.file 28 "H:/STM32H7/RGB_LVGL/Middlewares/LVGL/GUI/lvgl/src/widgets/bar/lv_bar.h"
 1668              		.file 29 "H:/STM32H7/RGB_LVGL/Middlewares/LVGL/GUI/lvgl/src/widgets/button/lv_button.h"
 1669              		.file 30 "H:/STM32H7/RGB_LVGL/Middlewares/LVGL/GUI/lvgl/src/widgets/buttonmatrix/lv_buttonmatrix.h
 1670              		.file 31 "H:/STM32H7/RGB_LVGL/Middlewares/LVGL/GUI/lvgl/src/widgets/calendar/lv_calendar.h"
 1671              		.file 32 "H:/STM32H7/RGB_LVGL/Middlewares/LVGL/GUI/lvgl/src/widgets/chart/lv_chart.h"
 1672              		.file 33 "H:/STM32H7/RGB_LVGL/Middlewares/LVGL/GUI/lvgl/src/widgets/checkbox/lv_checkbox.h"
 1673              		.file 34 "H:/STM32H7/RGB_LVGL/Middlewares/LVGL/GUI/lvgl/src/widgets/dropdown/lv_dropdown.h"
 1674              		.file 35 "H:/STM32H7/RGB_LVGL/Middlewares/LVGL/GUI/lvgl/src/widgets/keyboard/lv_keyboard.h"
 1675              		.file 36 "H:/STM32H7/RGB_LVGL/Middlewares/LVGL/GUI/lvgl/src/widgets/led/lv_led.h"
 1676              		.file 37 "H:/STM32H7/RGB_LVGL/Middlewares/LVGL/GUI/lvgl/src/widgets/list/lv_list.h"
 1677              		.file 38 "H:/STM32H7/RGB_LVGL/Middlewares/LVGL/GUI/lvgl/src/widgets/msgbox/lv_msgbox.h"
 1678              		.file 39 "H:/STM32H7/RGB_LVGL/Middlewares/LVGL/GUI/lvgl/src/widgets/roller/lv_roller.h"
 1679              		.file 40 "H:/STM32H7/RGB_LVGL/Middlewares/LVGL/GUI/lvgl/src/widgets/slider/lv_slider.h"
 1680              		.file 41 "H:/STM32H7/RGB_LVGL/Middlewares/LVGL/GUI/lvgl/src/widgets/textarea/lv_textarea.h"
 1681              		.file 42 "H:/STM32H7/RGB_LVGL/Middlewares/LVGL/GUI/lvgl/src/widgets/spinbox/lv_spinbox.h"
 1682              		.file 43 "H:/STM32H7/RGB_LVGL/Middlewares/LVGL/GUI/lvgl/src/widgets/spinner/lv_spinner.h"
 1683              		.file 44 "H:/STM32H7/RGB_LVGL/Middlewares/LVGL/GUI/lvgl/src/widgets/switch/lv_switch.h"
 1684              		.file 45 "H:/STM32H7/RGB_LVGL/Middlewares/LVGL/GUI/lvgl/src/widgets/table/lv_table.h"
 1685              		.file 46 "H:/STM32H7/RGB_LVGL/Middlewares/LVGL/GUI/lvgl/src/widgets/tabview/lv_tabview.h"
 1686              		.file 47 "H:/STM32H7/RGB_LVGL/Middlewares/LVGL/GUI/lvgl/src/widgets/tileview/lv_tileview.h"
 1687              		.file 48 "H:/STM32H7/RGB_LVGL/Middlewares/LVGL/GUI/lvgl/src/widgets/win/lv_win.h"
 1688              		.file 49 "H:/STM32H7/RGB_LVGL/Middlewares/LVGL/GUI/lvgl/src/stdlib/builtin/lv_tlsf.h"
 1689              		.file 50 "H:/STM32H7/RGB_LVGL/Middlewares/LVGL/GUI/lvgl/src/misc/lv_anim_private.h"
 1690              		.file 51 "H:/STM32H7/RGB_LVGL/Middlewares/LVGL/GUI/lvgl/src/tick/lv_tick_private.h"
 1691              		.file 52 "H:/STM32H7/RGB_LVGL/Middlewares/LVGL/GUI/lvgl/src/draw/sw/lv_draw_sw_mask_private.h"
 1692              		.file 53 "H:/STM32H7/RGB_LVGL/Middlewares/LVGL/GUI/lvgl/src/stdlib/builtin/lv_tlsf_private.h"
 1693              		.file 54 "H:/STM32H7/RGB_LVGL/Middlewares/LVGL/GUI/lvgl/src/layouts/lv_layout_private.h"
 1694              		.file 55 "H:/STM32H7/RGB_LVGL/Middlewares/LVGL/GUI/lvgl/src/core/lv_global.h"
 1695              		.file 56 "H:/STM32H7/RGB_LVGL/Middlewares/LVGL/GUI/lvgl/src/misc/lv_style_gen.h"
 1696              		.file 57 "H:/STM32H7/RGB_LVGL/Middlewares/LVGL/GUI/lvgl/src/core/lv_obj_tree.h"
 1697              		.file 58 "H:/STM32H7/RGB_LVGL/Middlewares/LVGL/GUI/lvgl/src/display/lv_display.h"
 1698              		.file 59 "H:/STM32H7/RGB_LVGL/Middlewares/LVGL/GUI/lvgl/src/stdlib/lv_mem.h"
ARM GAS  C:\Users\28576\AppData\Local\Temp\ccvXaXdL.s 			page 53

