ARM GAS  C:\Users\28576\AppData\Local\Temp\ccAx9qAN.s 			page 1


   1              		.cpu cortex-m7
   2              		.arch armv7e-m
   3              		.fpu fpv5-d16
   4              		.eabi_attribute 28, 1
   5              		.eabi_attribute 20, 1
   6              		.eabi_attribute 21, 1
   7              		.eabi_attribute 23, 3
   8              		.eabi_attribute 24, 1
   9              		.eabi_attribute 25, 1
  10              		.eabi_attribute 26, 1
  11              		.eabi_attribute 30, 1
  12              		.eabi_attribute 34, 1
  13              		.eabi_attribute 18, 4
  14              		.file	"lv_tileview.c"
  15              		.text
  16              	.Ltext0:
  17              		.cfi_sections	.debug_frame
  18              		.file 1 "../../Middlewares/LVGL/GUI/lvgl/src/widgets/tileview/lv_tileview.c"
  19              		.section	.text.lv_tileview_constructor,"ax",%progbits
  20              		.align	1
  21              		.syntax unified
  22              		.thumb
  23              		.thumb_func
  25              	lv_tileview_constructor:
  26              	.LVL0:
  27              	.LFB177:
   1:../../Middlewares/LVGL/GUI/lvgl/src/widgets/tileview/lv_tileview.c **** /**
   2:../../Middlewares/LVGL/GUI/lvgl/src/widgets/tileview/lv_tileview.c ****  * @file lv_tileview.c
   3:../../Middlewares/LVGL/GUI/lvgl/src/widgets/tileview/lv_tileview.c ****  *
   4:../../Middlewares/LVGL/GUI/lvgl/src/widgets/tileview/lv_tileview.c ****  */
   5:../../Middlewares/LVGL/GUI/lvgl/src/widgets/tileview/lv_tileview.c **** 
   6:../../Middlewares/LVGL/GUI/lvgl/src/widgets/tileview/lv_tileview.c **** /*********************
   7:../../Middlewares/LVGL/GUI/lvgl/src/widgets/tileview/lv_tileview.c ****  *      INCLUDES
   8:../../Middlewares/LVGL/GUI/lvgl/src/widgets/tileview/lv_tileview.c ****  *********************/
   9:../../Middlewares/LVGL/GUI/lvgl/src/widgets/tileview/lv_tileview.c **** #include "lv_tileview_private.h"
  10:../../Middlewares/LVGL/GUI/lvgl/src/widgets/tileview/lv_tileview.c **** #include "../../core/lv_obj_class_private.h"
  11:../../Middlewares/LVGL/GUI/lvgl/src/widgets/tileview/lv_tileview.c **** #include "../../indev/lv_indev.h"
  12:../../Middlewares/LVGL/GUI/lvgl/src/widgets/tileview/lv_tileview.c **** #include "../../indev/lv_indev_private.h"
  13:../../Middlewares/LVGL/GUI/lvgl/src/widgets/tileview/lv_tileview.c **** #if LV_USE_TILEVIEW
  14:../../Middlewares/LVGL/GUI/lvgl/src/widgets/tileview/lv_tileview.c **** 
  15:../../Middlewares/LVGL/GUI/lvgl/src/widgets/tileview/lv_tileview.c **** /*********************
  16:../../Middlewares/LVGL/GUI/lvgl/src/widgets/tileview/lv_tileview.c ****  *      DEFINES
  17:../../Middlewares/LVGL/GUI/lvgl/src/widgets/tileview/lv_tileview.c ****  *********************/
  18:../../Middlewares/LVGL/GUI/lvgl/src/widgets/tileview/lv_tileview.c **** 
  19:../../Middlewares/LVGL/GUI/lvgl/src/widgets/tileview/lv_tileview.c **** /**********************
  20:../../Middlewares/LVGL/GUI/lvgl/src/widgets/tileview/lv_tileview.c ****  *      TYPEDEFS
  21:../../Middlewares/LVGL/GUI/lvgl/src/widgets/tileview/lv_tileview.c ****  **********************/
  22:../../Middlewares/LVGL/GUI/lvgl/src/widgets/tileview/lv_tileview.c **** 
  23:../../Middlewares/LVGL/GUI/lvgl/src/widgets/tileview/lv_tileview.c **** /**********************
  24:../../Middlewares/LVGL/GUI/lvgl/src/widgets/tileview/lv_tileview.c ****  *  STATIC PROTOTYPES
  25:../../Middlewares/LVGL/GUI/lvgl/src/widgets/tileview/lv_tileview.c ****  **********************/
  26:../../Middlewares/LVGL/GUI/lvgl/src/widgets/tileview/lv_tileview.c **** static void lv_tileview_constructor(const lv_obj_class_t * class_p, lv_obj_t * obj);
  27:../../Middlewares/LVGL/GUI/lvgl/src/widgets/tileview/lv_tileview.c **** static void lv_tileview_tile_constructor(const lv_obj_class_t * class_p, lv_obj_t * obj);
  28:../../Middlewares/LVGL/GUI/lvgl/src/widgets/tileview/lv_tileview.c **** static void tileview_event_cb(lv_event_t * e);
  29:../../Middlewares/LVGL/GUI/lvgl/src/widgets/tileview/lv_tileview.c **** 
  30:../../Middlewares/LVGL/GUI/lvgl/src/widgets/tileview/lv_tileview.c **** /**********************
  31:../../Middlewares/LVGL/GUI/lvgl/src/widgets/tileview/lv_tileview.c ****  *  STATIC VARIABLES
ARM GAS  C:\Users\28576\AppData\Local\Temp\ccAx9qAN.s 			page 2


  32:../../Middlewares/LVGL/GUI/lvgl/src/widgets/tileview/lv_tileview.c ****  **********************/
  33:../../Middlewares/LVGL/GUI/lvgl/src/widgets/tileview/lv_tileview.c **** 
  34:../../Middlewares/LVGL/GUI/lvgl/src/widgets/tileview/lv_tileview.c **** const lv_obj_class_t lv_tileview_class = {
  35:../../Middlewares/LVGL/GUI/lvgl/src/widgets/tileview/lv_tileview.c ****     .constructor_cb = lv_tileview_constructor,
  36:../../Middlewares/LVGL/GUI/lvgl/src/widgets/tileview/lv_tileview.c ****     .base_class = &lv_obj_class,
  37:../../Middlewares/LVGL/GUI/lvgl/src/widgets/tileview/lv_tileview.c ****     .instance_size = sizeof(lv_tileview_t),
  38:../../Middlewares/LVGL/GUI/lvgl/src/widgets/tileview/lv_tileview.c ****     .name = "lv_tileview",
  39:../../Middlewares/LVGL/GUI/lvgl/src/widgets/tileview/lv_tileview.c **** };
  40:../../Middlewares/LVGL/GUI/lvgl/src/widgets/tileview/lv_tileview.c **** 
  41:../../Middlewares/LVGL/GUI/lvgl/src/widgets/tileview/lv_tileview.c **** const lv_obj_class_t lv_tileview_tile_class = {
  42:../../Middlewares/LVGL/GUI/lvgl/src/widgets/tileview/lv_tileview.c ****     .constructor_cb = lv_tileview_tile_constructor,
  43:../../Middlewares/LVGL/GUI/lvgl/src/widgets/tileview/lv_tileview.c ****     .base_class = &lv_obj_class,
  44:../../Middlewares/LVGL/GUI/lvgl/src/widgets/tileview/lv_tileview.c ****     .instance_size = sizeof(lv_tileview_tile_t),
  45:../../Middlewares/LVGL/GUI/lvgl/src/widgets/tileview/lv_tileview.c ****     .name = "lv_tile",
  46:../../Middlewares/LVGL/GUI/lvgl/src/widgets/tileview/lv_tileview.c **** };
  47:../../Middlewares/LVGL/GUI/lvgl/src/widgets/tileview/lv_tileview.c **** 
  48:../../Middlewares/LVGL/GUI/lvgl/src/widgets/tileview/lv_tileview.c **** /**********************
  49:../../Middlewares/LVGL/GUI/lvgl/src/widgets/tileview/lv_tileview.c ****  *      MACROS
  50:../../Middlewares/LVGL/GUI/lvgl/src/widgets/tileview/lv_tileview.c ****  **********************/
  51:../../Middlewares/LVGL/GUI/lvgl/src/widgets/tileview/lv_tileview.c **** 
  52:../../Middlewares/LVGL/GUI/lvgl/src/widgets/tileview/lv_tileview.c **** /**********************
  53:../../Middlewares/LVGL/GUI/lvgl/src/widgets/tileview/lv_tileview.c ****  *   GLOBAL FUNCTIONS
  54:../../Middlewares/LVGL/GUI/lvgl/src/widgets/tileview/lv_tileview.c ****  **********************/
  55:../../Middlewares/LVGL/GUI/lvgl/src/widgets/tileview/lv_tileview.c **** 
  56:../../Middlewares/LVGL/GUI/lvgl/src/widgets/tileview/lv_tileview.c **** lv_obj_t * lv_tileview_create(lv_obj_t * parent)
  57:../../Middlewares/LVGL/GUI/lvgl/src/widgets/tileview/lv_tileview.c **** {
  58:../../Middlewares/LVGL/GUI/lvgl/src/widgets/tileview/lv_tileview.c ****     LV_LOG_INFO("begin");
  59:../../Middlewares/LVGL/GUI/lvgl/src/widgets/tileview/lv_tileview.c ****     lv_obj_t * obj = lv_obj_class_create_obj(&lv_tileview_class, parent);
  60:../../Middlewares/LVGL/GUI/lvgl/src/widgets/tileview/lv_tileview.c ****     lv_obj_class_init_obj(obj);
  61:../../Middlewares/LVGL/GUI/lvgl/src/widgets/tileview/lv_tileview.c ****     return obj;
  62:../../Middlewares/LVGL/GUI/lvgl/src/widgets/tileview/lv_tileview.c **** }
  63:../../Middlewares/LVGL/GUI/lvgl/src/widgets/tileview/lv_tileview.c **** 
  64:../../Middlewares/LVGL/GUI/lvgl/src/widgets/tileview/lv_tileview.c **** /*======================
  65:../../Middlewares/LVGL/GUI/lvgl/src/widgets/tileview/lv_tileview.c ****  * Add/remove functions
  66:../../Middlewares/LVGL/GUI/lvgl/src/widgets/tileview/lv_tileview.c ****  *=====================*/
  67:../../Middlewares/LVGL/GUI/lvgl/src/widgets/tileview/lv_tileview.c **** 
  68:../../Middlewares/LVGL/GUI/lvgl/src/widgets/tileview/lv_tileview.c **** lv_obj_t * lv_tileview_add_tile(lv_obj_t * tv, uint8_t col_id, uint8_t row_id, lv_dir_t dir)
  69:../../Middlewares/LVGL/GUI/lvgl/src/widgets/tileview/lv_tileview.c **** {
  70:../../Middlewares/LVGL/GUI/lvgl/src/widgets/tileview/lv_tileview.c ****     LV_LOG_INFO("begin");
  71:../../Middlewares/LVGL/GUI/lvgl/src/widgets/tileview/lv_tileview.c **** 
  72:../../Middlewares/LVGL/GUI/lvgl/src/widgets/tileview/lv_tileview.c ****     lv_obj_t * obj = lv_obj_class_create_obj(&lv_tileview_tile_class, tv);
  73:../../Middlewares/LVGL/GUI/lvgl/src/widgets/tileview/lv_tileview.c ****     lv_obj_class_init_obj(obj);
  74:../../Middlewares/LVGL/GUI/lvgl/src/widgets/tileview/lv_tileview.c ****     lv_obj_set_pos(obj, lv_pct(col_id * 100), lv_pct(row_id * 100));
  75:../../Middlewares/LVGL/GUI/lvgl/src/widgets/tileview/lv_tileview.c **** 
  76:../../Middlewares/LVGL/GUI/lvgl/src/widgets/tileview/lv_tileview.c ****     lv_tileview_tile_t * tile = (lv_tileview_tile_t *)obj;
  77:../../Middlewares/LVGL/GUI/lvgl/src/widgets/tileview/lv_tileview.c ****     tile->dir = dir;
  78:../../Middlewares/LVGL/GUI/lvgl/src/widgets/tileview/lv_tileview.c **** 
  79:../../Middlewares/LVGL/GUI/lvgl/src/widgets/tileview/lv_tileview.c ****     if(col_id == 0 && row_id == 0) {
  80:../../Middlewares/LVGL/GUI/lvgl/src/widgets/tileview/lv_tileview.c ****         lv_obj_set_scroll_dir(tv, dir);
  81:../../Middlewares/LVGL/GUI/lvgl/src/widgets/tileview/lv_tileview.c ****     }
  82:../../Middlewares/LVGL/GUI/lvgl/src/widgets/tileview/lv_tileview.c ****     return obj;
  83:../../Middlewares/LVGL/GUI/lvgl/src/widgets/tileview/lv_tileview.c **** }
  84:../../Middlewares/LVGL/GUI/lvgl/src/widgets/tileview/lv_tileview.c **** 
  85:../../Middlewares/LVGL/GUI/lvgl/src/widgets/tileview/lv_tileview.c **** void lv_tileview_set_tile(lv_obj_t * obj, lv_obj_t * tile_obj, lv_anim_enable_t anim_en)
  86:../../Middlewares/LVGL/GUI/lvgl/src/widgets/tileview/lv_tileview.c **** {
  87:../../Middlewares/LVGL/GUI/lvgl/src/widgets/tileview/lv_tileview.c ****     int32_t tx = lv_obj_get_x(tile_obj);
  88:../../Middlewares/LVGL/GUI/lvgl/src/widgets/tileview/lv_tileview.c ****     int32_t ty = lv_obj_get_y(tile_obj);
ARM GAS  C:\Users\28576\AppData\Local\Temp\ccAx9qAN.s 			page 3


  89:../../Middlewares/LVGL/GUI/lvgl/src/widgets/tileview/lv_tileview.c **** 
  90:../../Middlewares/LVGL/GUI/lvgl/src/widgets/tileview/lv_tileview.c ****     lv_tileview_tile_t * tile = (lv_tileview_tile_t *)tile_obj;
  91:../../Middlewares/LVGL/GUI/lvgl/src/widgets/tileview/lv_tileview.c ****     lv_tileview_t * tv = (lv_tileview_t *) obj;
  92:../../Middlewares/LVGL/GUI/lvgl/src/widgets/tileview/lv_tileview.c ****     tv->tile_act = (lv_obj_t *)tile;
  93:../../Middlewares/LVGL/GUI/lvgl/src/widgets/tileview/lv_tileview.c **** 
  94:../../Middlewares/LVGL/GUI/lvgl/src/widgets/tileview/lv_tileview.c ****     lv_obj_set_scroll_dir(obj, tile->dir);
  95:../../Middlewares/LVGL/GUI/lvgl/src/widgets/tileview/lv_tileview.c ****     lv_obj_scroll_to(obj, tx, ty, anim_en);
  96:../../Middlewares/LVGL/GUI/lvgl/src/widgets/tileview/lv_tileview.c **** }
  97:../../Middlewares/LVGL/GUI/lvgl/src/widgets/tileview/lv_tileview.c **** 
  98:../../Middlewares/LVGL/GUI/lvgl/src/widgets/tileview/lv_tileview.c **** void lv_tileview_set_tile_by_index(lv_obj_t * tv, uint32_t col_id, uint32_t row_id, lv_anim_enable_
  99:../../Middlewares/LVGL/GUI/lvgl/src/widgets/tileview/lv_tileview.c **** {
 100:../../Middlewares/LVGL/GUI/lvgl/src/widgets/tileview/lv_tileview.c ****     lv_obj_update_layout(tv);
 101:../../Middlewares/LVGL/GUI/lvgl/src/widgets/tileview/lv_tileview.c **** 
 102:../../Middlewares/LVGL/GUI/lvgl/src/widgets/tileview/lv_tileview.c ****     int32_t w = lv_obj_get_content_width(tv);
 103:../../Middlewares/LVGL/GUI/lvgl/src/widgets/tileview/lv_tileview.c ****     int32_t h = lv_obj_get_content_height(tv);
 104:../../Middlewares/LVGL/GUI/lvgl/src/widgets/tileview/lv_tileview.c **** 
 105:../../Middlewares/LVGL/GUI/lvgl/src/widgets/tileview/lv_tileview.c ****     int32_t tx = col_id * w;
 106:../../Middlewares/LVGL/GUI/lvgl/src/widgets/tileview/lv_tileview.c ****     int32_t ty = row_id * h;
 107:../../Middlewares/LVGL/GUI/lvgl/src/widgets/tileview/lv_tileview.c **** 
 108:../../Middlewares/LVGL/GUI/lvgl/src/widgets/tileview/lv_tileview.c ****     uint32_t i;
 109:../../Middlewares/LVGL/GUI/lvgl/src/widgets/tileview/lv_tileview.c ****     for(i = 0; i < lv_obj_get_child_count(tv); i++) {
 110:../../Middlewares/LVGL/GUI/lvgl/src/widgets/tileview/lv_tileview.c ****         lv_obj_t * tile_obj = lv_obj_get_child(tv, i);
 111:../../Middlewares/LVGL/GUI/lvgl/src/widgets/tileview/lv_tileview.c ****         int32_t x = lv_obj_get_x(tile_obj);
 112:../../Middlewares/LVGL/GUI/lvgl/src/widgets/tileview/lv_tileview.c ****         int32_t y = lv_obj_get_y(tile_obj);
 113:../../Middlewares/LVGL/GUI/lvgl/src/widgets/tileview/lv_tileview.c ****         if(x == tx && y == ty) {
 114:../../Middlewares/LVGL/GUI/lvgl/src/widgets/tileview/lv_tileview.c ****             lv_tileview_set_tile(tv, tile_obj, anim_en);
 115:../../Middlewares/LVGL/GUI/lvgl/src/widgets/tileview/lv_tileview.c ****             return;
 116:../../Middlewares/LVGL/GUI/lvgl/src/widgets/tileview/lv_tileview.c ****         }
 117:../../Middlewares/LVGL/GUI/lvgl/src/widgets/tileview/lv_tileview.c ****     }
 118:../../Middlewares/LVGL/GUI/lvgl/src/widgets/tileview/lv_tileview.c **** 
 119:../../Middlewares/LVGL/GUI/lvgl/src/widgets/tileview/lv_tileview.c ****     LV_LOG_WARN("No tile found with at (%d,%d) index", (int)col_id, (int)row_id);
 120:../../Middlewares/LVGL/GUI/lvgl/src/widgets/tileview/lv_tileview.c **** }
 121:../../Middlewares/LVGL/GUI/lvgl/src/widgets/tileview/lv_tileview.c **** 
 122:../../Middlewares/LVGL/GUI/lvgl/src/widgets/tileview/lv_tileview.c **** lv_obj_t * lv_tileview_get_tile_active(lv_obj_t * obj)
 123:../../Middlewares/LVGL/GUI/lvgl/src/widgets/tileview/lv_tileview.c **** {
 124:../../Middlewares/LVGL/GUI/lvgl/src/widgets/tileview/lv_tileview.c ****     lv_tileview_t * tv = (lv_tileview_t *) obj;
 125:../../Middlewares/LVGL/GUI/lvgl/src/widgets/tileview/lv_tileview.c ****     return tv->tile_act;
 126:../../Middlewares/LVGL/GUI/lvgl/src/widgets/tileview/lv_tileview.c **** }
 127:../../Middlewares/LVGL/GUI/lvgl/src/widgets/tileview/lv_tileview.c **** 
 128:../../Middlewares/LVGL/GUI/lvgl/src/widgets/tileview/lv_tileview.c **** /**********************
 129:../../Middlewares/LVGL/GUI/lvgl/src/widgets/tileview/lv_tileview.c ****  *   STATIC FUNCTIONS
 130:../../Middlewares/LVGL/GUI/lvgl/src/widgets/tileview/lv_tileview.c ****  **********************/
 131:../../Middlewares/LVGL/GUI/lvgl/src/widgets/tileview/lv_tileview.c **** 
 132:../../Middlewares/LVGL/GUI/lvgl/src/widgets/tileview/lv_tileview.c **** static void lv_tileview_constructor(const lv_obj_class_t * class_p, lv_obj_t * obj)
 133:../../Middlewares/LVGL/GUI/lvgl/src/widgets/tileview/lv_tileview.c **** {
  28              		.loc 1 133 1 view -0
  29              		.cfi_startproc
  30              		@ args = 0, pretend = 0, frame = 0
  31              		@ frame_needed = 0, uses_anonymous_args = 0
  32              		.loc 1 133 1 is_stmt 0 view .LVU1
  33 0000 10B5     		push	{r4, lr}
  34              	.LCFI0:
  35              		.cfi_def_cfa_offset 8
  36              		.cfi_offset 4, -8
  37              		.cfi_offset 14, -4
  38 0002 0C46     		mov	r4, r1
 134:../../Middlewares/LVGL/GUI/lvgl/src/widgets/tileview/lv_tileview.c ****     LV_UNUSED(class_p);
ARM GAS  C:\Users\28576\AppData\Local\Temp\ccAx9qAN.s 			page 4


  39              		.loc 1 134 5 is_stmt 1 view .LVU2
 135:../../Middlewares/LVGL/GUI/lvgl/src/widgets/tileview/lv_tileview.c ****     lv_obj_set_size(obj, LV_PCT(100), LV_PCT(100));
  40              		.loc 1 135 5 view .LVU3
  41 0004 0B49     		ldr	r1, .L3
  42              	.LVL1:
  43              		.loc 1 135 5 is_stmt 0 view .LVU4
  44 0006 0A46     		mov	r2, r1
  45 0008 2046     		mov	r0, r4
  46              	.LVL2:
  47              		.loc 1 135 5 view .LVU5
  48 000a FFF7FEFF 		bl	lv_obj_set_size
  49              	.LVL3:
 136:../../Middlewares/LVGL/GUI/lvgl/src/widgets/tileview/lv_tileview.c ****     lv_obj_add_event_cb(obj, tileview_event_cb, LV_EVENT_SCROLL_END, NULL);
  50              		.loc 1 136 5 is_stmt 1 view .LVU6
  51 000e 0023     		movs	r3, #0
  52 0010 0E22     		movs	r2, #14
  53 0012 0949     		ldr	r1, .L3+4
  54 0014 2046     		mov	r0, r4
  55 0016 FFF7FEFF 		bl	lv_obj_add_event_cb
  56              	.LVL4:
 137:../../Middlewares/LVGL/GUI/lvgl/src/widgets/tileview/lv_tileview.c ****     lv_obj_add_flag(obj, LV_OBJ_FLAG_SCROLL_ONE);
  57              		.loc 1 137 5 view .LVU7
  58 001a 8021     		movs	r1, #128
  59 001c 2046     		mov	r0, r4
  60 001e FFF7FEFF 		bl	lv_obj_add_flag
  61              	.LVL5:
 138:../../Middlewares/LVGL/GUI/lvgl/src/widgets/tileview/lv_tileview.c ****     lv_obj_set_scroll_snap_x(obj, LV_SCROLL_SNAP_CENTER);
  62              		.loc 1 138 5 view .LVU8
  63 0022 0321     		movs	r1, #3
  64 0024 2046     		mov	r0, r4
  65 0026 FFF7FEFF 		bl	lv_obj_set_scroll_snap_x
  66              	.LVL6:
 139:../../Middlewares/LVGL/GUI/lvgl/src/widgets/tileview/lv_tileview.c ****     lv_obj_set_scroll_snap_y(obj, LV_SCROLL_SNAP_CENTER);
  67              		.loc 1 139 5 view .LVU9
  68 002a 0321     		movs	r1, #3
  69 002c 2046     		mov	r0, r4
  70 002e FFF7FEFF 		bl	lv_obj_set_scroll_snap_y
  71              	.LVL7:
 140:../../Middlewares/LVGL/GUI/lvgl/src/widgets/tileview/lv_tileview.c **** }
  72              		.loc 1 140 1 is_stmt 0 view .LVU10
  73 0032 10BD     		pop	{r4, pc}
  74              	.LVL8:
  75              	.L4:
  76              		.loc 1 140 1 view .LVU11
  77              		.align	2
  78              	.L3:
  79 0034 64000020 		.word	536871012
  80 0038 00000000 		.word	tileview_event_cb
  81              		.cfi_endproc
  82              	.LFE177:
  84              		.section	.text.tileview_event_cb,"ax",%progbits
  85              		.align	1
  86              		.syntax unified
  87              		.thumb
  88              		.thumb_func
  90              	tileview_event_cb:
  91              	.LVL9:
ARM GAS  C:\Users\28576\AppData\Local\Temp\ccAx9qAN.s 			page 5


  92              	.LFB179:
 141:../../Middlewares/LVGL/GUI/lvgl/src/widgets/tileview/lv_tileview.c **** 
 142:../../Middlewares/LVGL/GUI/lvgl/src/widgets/tileview/lv_tileview.c **** static void lv_tileview_tile_constructor(const lv_obj_class_t * class_p, lv_obj_t * obj)
 143:../../Middlewares/LVGL/GUI/lvgl/src/widgets/tileview/lv_tileview.c **** {
 144:../../Middlewares/LVGL/GUI/lvgl/src/widgets/tileview/lv_tileview.c **** 
 145:../../Middlewares/LVGL/GUI/lvgl/src/widgets/tileview/lv_tileview.c ****     LV_UNUSED(class_p);
 146:../../Middlewares/LVGL/GUI/lvgl/src/widgets/tileview/lv_tileview.c ****     lv_obj_set_size(obj, LV_PCT(100), LV_PCT(100));
 147:../../Middlewares/LVGL/GUI/lvgl/src/widgets/tileview/lv_tileview.c ****     lv_obj_update_layout(obj);  /*Be sure the size is correct*/
 148:../../Middlewares/LVGL/GUI/lvgl/src/widgets/tileview/lv_tileview.c **** }
 149:../../Middlewares/LVGL/GUI/lvgl/src/widgets/tileview/lv_tileview.c **** 
 150:../../Middlewares/LVGL/GUI/lvgl/src/widgets/tileview/lv_tileview.c **** static void tileview_event_cb(lv_event_t * e)
 151:../../Middlewares/LVGL/GUI/lvgl/src/widgets/tileview/lv_tileview.c **** {
  93              		.loc 1 151 1 is_stmt 1 view -0
  94              		.cfi_startproc
  95              		@ args = 0, pretend = 0, frame = 8
  96              		@ frame_needed = 0, uses_anonymous_args = 0
  97              		.loc 1 151 1 is_stmt 0 view .LVU13
  98 0000 2DE9F043 		push	{r4, r5, r6, r7, r8, r9, lr}
  99              	.LCFI1:
 100              		.cfi_def_cfa_offset 28
 101              		.cfi_offset 4, -28
 102              		.cfi_offset 5, -24
 103              		.cfi_offset 6, -20
 104              		.cfi_offset 7, -16
 105              		.cfi_offset 8, -12
 106              		.cfi_offset 9, -8
 107              		.cfi_offset 14, -4
 108 0004 83B0     		sub	sp, sp, #12
 109              	.LCFI2:
 110              		.cfi_def_cfa_offset 40
 111 0006 0446     		mov	r4, r0
 152:../../Middlewares/LVGL/GUI/lvgl/src/widgets/tileview/lv_tileview.c ****     lv_event_code_t code = lv_event_get_code(e);
 112              		.loc 1 152 5 is_stmt 1 view .LVU14
 113              		.loc 1 152 28 is_stmt 0 view .LVU15
 114 0008 FFF7FEFF 		bl	lv_event_get_code
 115              	.LVL10:
 116              		.loc 1 152 28 view .LVU16
 117 000c 0546     		mov	r5, r0
 118              	.LVL11:
 153:../../Middlewares/LVGL/GUI/lvgl/src/widgets/tileview/lv_tileview.c ****     lv_obj_t * obj = lv_event_get_current_target(e);
 119              		.loc 1 153 5 is_stmt 1 view .LVU17
 120              		.loc 1 153 22 is_stmt 0 view .LVU18
 121 000e 2046     		mov	r0, r4
 122              	.LVL12:
 123              		.loc 1 153 22 view .LVU19
 124 0010 FFF7FEFF 		bl	lv_event_get_current_target
 125              	.LVL13:
 154:../../Middlewares/LVGL/GUI/lvgl/src/widgets/tileview/lv_tileview.c ****     lv_tileview_t * tv = (lv_tileview_t *) obj;
 126              		.loc 1 154 5 is_stmt 1 view .LVU20
 155:../../Middlewares/LVGL/GUI/lvgl/src/widgets/tileview/lv_tileview.c **** 
 156:../../Middlewares/LVGL/GUI/lvgl/src/widgets/tileview/lv_tileview.c ****     if(code == LV_EVENT_SCROLL_END) {
 127              		.loc 1 156 5 view .LVU21
 128              		.loc 1 156 7 is_stmt 0 view .LVU22
 129 0014 0E2D     		cmp	r5, #14
 130 0016 02D0     		beq	.L15
 131              	.LVL14:
 132              	.L5:
ARM GAS  C:\Users\28576\AppData\Local\Temp\ccAx9qAN.s 			page 6


 157:../../Middlewares/LVGL/GUI/lvgl/src/widgets/tileview/lv_tileview.c ****         lv_indev_t * indev = lv_indev_active();
 158:../../Middlewares/LVGL/GUI/lvgl/src/widgets/tileview/lv_tileview.c ****         if(indev && indev->state == LV_INDEV_STATE_PRESSED) {
 159:../../Middlewares/LVGL/GUI/lvgl/src/widgets/tileview/lv_tileview.c ****             return;
 160:../../Middlewares/LVGL/GUI/lvgl/src/widgets/tileview/lv_tileview.c ****         }
 161:../../Middlewares/LVGL/GUI/lvgl/src/widgets/tileview/lv_tileview.c **** 
 162:../../Middlewares/LVGL/GUI/lvgl/src/widgets/tileview/lv_tileview.c ****         int32_t w = lv_obj_get_content_width(obj);
 163:../../Middlewares/LVGL/GUI/lvgl/src/widgets/tileview/lv_tileview.c ****         int32_t h = lv_obj_get_content_height(obj);
 164:../../Middlewares/LVGL/GUI/lvgl/src/widgets/tileview/lv_tileview.c **** 
 165:../../Middlewares/LVGL/GUI/lvgl/src/widgets/tileview/lv_tileview.c ****         lv_point_t scroll_end;
 166:../../Middlewares/LVGL/GUI/lvgl/src/widgets/tileview/lv_tileview.c ****         lv_obj_get_scroll_end(obj, &scroll_end);
 167:../../Middlewares/LVGL/GUI/lvgl/src/widgets/tileview/lv_tileview.c ****         int32_t left = scroll_end.x;
 168:../../Middlewares/LVGL/GUI/lvgl/src/widgets/tileview/lv_tileview.c ****         int32_t top = scroll_end.y;
 169:../../Middlewares/LVGL/GUI/lvgl/src/widgets/tileview/lv_tileview.c **** 
 170:../../Middlewares/LVGL/GUI/lvgl/src/widgets/tileview/lv_tileview.c ****         int32_t tx = ((left + (w / 2)) / w) * w;
 171:../../Middlewares/LVGL/GUI/lvgl/src/widgets/tileview/lv_tileview.c ****         int32_t ty = ((top + (h / 2)) / h) * h;
 172:../../Middlewares/LVGL/GUI/lvgl/src/widgets/tileview/lv_tileview.c **** 
 173:../../Middlewares/LVGL/GUI/lvgl/src/widgets/tileview/lv_tileview.c ****         lv_dir_t dir = LV_DIR_ALL;
 174:../../Middlewares/LVGL/GUI/lvgl/src/widgets/tileview/lv_tileview.c ****         uint32_t i;
 175:../../Middlewares/LVGL/GUI/lvgl/src/widgets/tileview/lv_tileview.c ****         for(i = 0; i < lv_obj_get_child_count(obj); i++) {
 176:../../Middlewares/LVGL/GUI/lvgl/src/widgets/tileview/lv_tileview.c ****             lv_obj_t * tile_obj = lv_obj_get_child(obj, i);
 177:../../Middlewares/LVGL/GUI/lvgl/src/widgets/tileview/lv_tileview.c ****             int32_t x = lv_obj_get_x(tile_obj);
 178:../../Middlewares/LVGL/GUI/lvgl/src/widgets/tileview/lv_tileview.c ****             int32_t y = lv_obj_get_y(tile_obj);
 179:../../Middlewares/LVGL/GUI/lvgl/src/widgets/tileview/lv_tileview.c ****             if(x == tx && y == ty) {
 180:../../Middlewares/LVGL/GUI/lvgl/src/widgets/tileview/lv_tileview.c ****                 lv_tileview_tile_t * tile = (lv_tileview_tile_t *)tile_obj;
 181:../../Middlewares/LVGL/GUI/lvgl/src/widgets/tileview/lv_tileview.c ****                 tv->tile_act = (lv_obj_t *)tile;
 182:../../Middlewares/LVGL/GUI/lvgl/src/widgets/tileview/lv_tileview.c ****                 dir = tile->dir;
 183:../../Middlewares/LVGL/GUI/lvgl/src/widgets/tileview/lv_tileview.c ****                 lv_obj_send_event(obj, LV_EVENT_VALUE_CHANGED, NULL);
 184:../../Middlewares/LVGL/GUI/lvgl/src/widgets/tileview/lv_tileview.c ****                 break;
 185:../../Middlewares/LVGL/GUI/lvgl/src/widgets/tileview/lv_tileview.c ****             }
 186:../../Middlewares/LVGL/GUI/lvgl/src/widgets/tileview/lv_tileview.c ****         }
 187:../../Middlewares/LVGL/GUI/lvgl/src/widgets/tileview/lv_tileview.c ****         lv_obj_set_scroll_dir(obj, dir);
 188:../../Middlewares/LVGL/GUI/lvgl/src/widgets/tileview/lv_tileview.c ****     }
 189:../../Middlewares/LVGL/GUI/lvgl/src/widgets/tileview/lv_tileview.c **** }
 133              		.loc 1 189 1 view .LVU23
 134 0018 03B0     		add	sp, sp, #12
 135              	.LCFI3:
 136              		.cfi_remember_state
 137              		.cfi_def_cfa_offset 28
 138              		@ sp needed
 139 001a BDE8F083 		pop	{r4, r5, r6, r7, r8, r9, pc}
 140              	.LVL15:
 141              	.L15:
 142              	.LCFI4:
 143              		.cfi_restore_state
 144              		.loc 1 189 1 view .LVU24
 145 001e 0446     		mov	r4, r0
 146              	.LVL16:
 147              	.LBB2:
 157:../../Middlewares/LVGL/GUI/lvgl/src/widgets/tileview/lv_tileview.c ****         lv_indev_t * indev = lv_indev_active();
 148              		.loc 1 157 9 is_stmt 1 view .LVU25
 157:../../Middlewares/LVGL/GUI/lvgl/src/widgets/tileview/lv_tileview.c ****         lv_indev_t * indev = lv_indev_active();
 149              		.loc 1 157 30 is_stmt 0 view .LVU26
 150 0020 FFF7FEFF 		bl	lv_indev_active
 151              	.LVL17:
 158:../../Middlewares/LVGL/GUI/lvgl/src/widgets/tileview/lv_tileview.c ****             return;
 152              		.loc 1 158 9 is_stmt 1 view .LVU27
 158:../../Middlewares/LVGL/GUI/lvgl/src/widgets/tileview/lv_tileview.c ****             return;
ARM GAS  C:\Users\28576\AppData\Local\Temp\ccAx9qAN.s 			page 7


 153              		.loc 1 158 11 is_stmt 0 view .LVU28
 154 0024 10B1     		cbz	r0, .L7
 158:../../Middlewares/LVGL/GUI/lvgl/src/widgets/tileview/lv_tileview.c ****             return;
 155              		.loc 1 158 26 discriminator 1 view .LVU29
 156 0026 037A     		ldrb	r3, [r0, #8]	@ zero_extendqisi2
 158:../../Middlewares/LVGL/GUI/lvgl/src/widgets/tileview/lv_tileview.c ****             return;
 157              		.loc 1 158 18 discriminator 1 view .LVU30
 158 0028 012B     		cmp	r3, #1
 159 002a F5D0     		beq	.L5
 160              	.L7:
 162:../../Middlewares/LVGL/GUI/lvgl/src/widgets/tileview/lv_tileview.c ****         int32_t h = lv_obj_get_content_height(obj);
 161              		.loc 1 162 9 is_stmt 1 view .LVU31
 162:../../Middlewares/LVGL/GUI/lvgl/src/widgets/tileview/lv_tileview.c ****         int32_t h = lv_obj_get_content_height(obj);
 162              		.loc 1 162 21 is_stmt 0 view .LVU32
 163 002c 2046     		mov	r0, r4
 164              	.LVL18:
 162:../../Middlewares/LVGL/GUI/lvgl/src/widgets/tileview/lv_tileview.c ****         int32_t h = lv_obj_get_content_height(obj);
 165              		.loc 1 162 21 view .LVU33
 166 002e FFF7FEFF 		bl	lv_obj_get_content_width
 167              	.LVL19:
 168 0032 0646     		mov	r6, r0
 169              	.LVL20:
 163:../../Middlewares/LVGL/GUI/lvgl/src/widgets/tileview/lv_tileview.c **** 
 170              		.loc 1 163 9 is_stmt 1 view .LVU34
 163:../../Middlewares/LVGL/GUI/lvgl/src/widgets/tileview/lv_tileview.c **** 
 171              		.loc 1 163 21 is_stmt 0 view .LVU35
 172 0034 2046     		mov	r0, r4
 173              	.LVL21:
 163:../../Middlewares/LVGL/GUI/lvgl/src/widgets/tileview/lv_tileview.c **** 
 174              		.loc 1 163 21 view .LVU36
 175 0036 FFF7FEFF 		bl	lv_obj_get_content_height
 176              	.LVL22:
 177 003a 0546     		mov	r5, r0
 178              	.LVL23:
 165:../../Middlewares/LVGL/GUI/lvgl/src/widgets/tileview/lv_tileview.c ****         lv_obj_get_scroll_end(obj, &scroll_end);
 179              		.loc 1 165 9 is_stmt 1 view .LVU37
 166:../../Middlewares/LVGL/GUI/lvgl/src/widgets/tileview/lv_tileview.c ****         int32_t left = scroll_end.x;
 180              		.loc 1 166 9 view .LVU38
 181 003c 6946     		mov	r1, sp
 182 003e 2046     		mov	r0, r4
 183              	.LVL24:
 166:../../Middlewares/LVGL/GUI/lvgl/src/widgets/tileview/lv_tileview.c ****         int32_t left = scroll_end.x;
 184              		.loc 1 166 9 is_stmt 0 view .LVU39
 185 0040 FFF7FEFF 		bl	lv_obj_get_scroll_end
 186              	.LVL25:
 167:../../Middlewares/LVGL/GUI/lvgl/src/widgets/tileview/lv_tileview.c ****         int32_t top = scroll_end.y;
 187              		.loc 1 167 9 is_stmt 1 view .LVU40
 167:../../Middlewares/LVGL/GUI/lvgl/src/widgets/tileview/lv_tileview.c ****         int32_t top = scroll_end.y;
 188              		.loc 1 167 17 is_stmt 0 view .LVU41
 189 0044 009A     		ldr	r2, [sp]
 190              	.LVL26:
 168:../../Middlewares/LVGL/GUI/lvgl/src/widgets/tileview/lv_tileview.c **** 
 191              		.loc 1 168 9 is_stmt 1 view .LVU42
 168:../../Middlewares/LVGL/GUI/lvgl/src/widgets/tileview/lv_tileview.c **** 
 192              		.loc 1 168 17 is_stmt 0 view .LVU43
 193 0046 019B     		ldr	r3, [sp, #4]
 194              	.LVL27:
ARM GAS  C:\Users\28576\AppData\Local\Temp\ccAx9qAN.s 			page 8


 170:../../Middlewares/LVGL/GUI/lvgl/src/widgets/tileview/lv_tileview.c ****         int32_t ty = ((top + (h / 2)) / h) * h;
 195              		.loc 1 170 9 is_stmt 1 view .LVU44
 170:../../Middlewares/LVGL/GUI/lvgl/src/widgets/tileview/lv_tileview.c ****         int32_t ty = ((top + (h / 2)) / h) * h;
 196              		.loc 1 170 34 is_stmt 0 view .LVU45
 197 0048 3146     		mov	r1, r6
 198 004a 002E     		cmp	r6, #0
 199 004c 29DB     		blt	.L16
 200              	.L8:
 170:../../Middlewares/LVGL/GUI/lvgl/src/widgets/tileview/lv_tileview.c ****         int32_t ty = ((top + (h / 2)) / h) * h;
 201              		.loc 1 170 29 view .LVU46
 202 004e 02EB6102 		add	r2, r2, r1, asr #1
 203              	.LVL28:
 170:../../Middlewares/LVGL/GUI/lvgl/src/widgets/tileview/lv_tileview.c ****         int32_t ty = ((top + (h / 2)) / h) * h;
 204              		.loc 1 170 40 view .LVU47
 205 0052 92FBF6F2 		sdiv	r2, r2, r6
 170:../../Middlewares/LVGL/GUI/lvgl/src/widgets/tileview/lv_tileview.c ****         int32_t ty = ((top + (h / 2)) / h) * h;
 206              		.loc 1 170 17 view .LVU48
 207 0056 06FB02F2 		mul	r2, r6, r2
 208 005a 9046     		mov	r8, r2
 209              	.LVL29:
 171:../../Middlewares/LVGL/GUI/lvgl/src/widgets/tileview/lv_tileview.c **** 
 210              		.loc 1 171 9 is_stmt 1 view .LVU49
 171:../../Middlewares/LVGL/GUI/lvgl/src/widgets/tileview/lv_tileview.c **** 
 211              		.loc 1 171 33 is_stmt 0 view .LVU50
 212 005c 2A46     		mov	r2, r5
 213              	.LVL30:
 171:../../Middlewares/LVGL/GUI/lvgl/src/widgets/tileview/lv_tileview.c **** 
 214              		.loc 1 171 33 view .LVU51
 215 005e 002D     		cmp	r5, #0
 216 0060 21DB     		blt	.L17
 217              	.L9:
 171:../../Middlewares/LVGL/GUI/lvgl/src/widgets/tileview/lv_tileview.c **** 
 218              		.loc 1 171 28 view .LVU52
 219 0062 03EB6203 		add	r3, r3, r2, asr #1
 220              	.LVL31:
 171:../../Middlewares/LVGL/GUI/lvgl/src/widgets/tileview/lv_tileview.c **** 
 221              		.loc 1 171 39 view .LVU53
 222 0066 93FBF5F3 		sdiv	r3, r3, r5
 171:../../Middlewares/LVGL/GUI/lvgl/src/widgets/tileview/lv_tileview.c **** 
 223              		.loc 1 171 17 view .LVU54
 224 006a 05FB03F3 		mul	r3, r5, r3
 225 006e 9946     		mov	r9, r3
 226              	.LVL32:
 173:../../Middlewares/LVGL/GUI/lvgl/src/widgets/tileview/lv_tileview.c ****         uint32_t i;
 227              		.loc 1 173 9 is_stmt 1 view .LVU55
 174:../../Middlewares/LVGL/GUI/lvgl/src/widgets/tileview/lv_tileview.c ****         for(i = 0; i < lv_obj_get_child_count(obj); i++) {
 228              		.loc 1 174 9 view .LVU56
 175:../../Middlewares/LVGL/GUI/lvgl/src/widgets/tileview/lv_tileview.c ****             lv_obj_t * tile_obj = lv_obj_get_child(obj, i);
 229              		.loc 1 175 9 view .LVU57
 175:../../Middlewares/LVGL/GUI/lvgl/src/widgets/tileview/lv_tileview.c ****             lv_obj_t * tile_obj = lv_obj_get_child(obj, i);
 230              		.loc 1 175 15 is_stmt 0 view .LVU58
 231 0070 0025     		movs	r5, #0
 232              	.LVL33:
 233              	.L10:
 175:../../Middlewares/LVGL/GUI/lvgl/src/widgets/tileview/lv_tileview.c ****             lv_obj_t * tile_obj = lv_obj_get_child(obj, i);
 234              		.loc 1 175 22 is_stmt 1 discriminator 1 view .LVU59
 175:../../Middlewares/LVGL/GUI/lvgl/src/widgets/tileview/lv_tileview.c ****             lv_obj_t * tile_obj = lv_obj_get_child(obj, i);
ARM GAS  C:\Users\28576\AppData\Local\Temp\ccAx9qAN.s 			page 9


 235              		.loc 1 175 24 is_stmt 0 discriminator 1 view .LVU60
 236 0072 2046     		mov	r0, r4
 237 0074 FFF7FEFF 		bl	lv_obj_get_child_count
 238              	.LVL34:
 175:../../Middlewares/LVGL/GUI/lvgl/src/widgets/tileview/lv_tileview.c ****             lv_obj_t * tile_obj = lv_obj_get_child(obj, i);
 239              		.loc 1 175 22 discriminator 3 view .LVU61
 240 0078 A842     		cmp	r0, r5
 241 007a 1FD9     		bls	.L18
 242              	.LBB3:
 176:../../Middlewares/LVGL/GUI/lvgl/src/widgets/tileview/lv_tileview.c ****             int32_t x = lv_obj_get_x(tile_obj);
 243              		.loc 1 176 13 is_stmt 1 view .LVU62
 176:../../Middlewares/LVGL/GUI/lvgl/src/widgets/tileview/lv_tileview.c ****             int32_t x = lv_obj_get_x(tile_obj);
 244              		.loc 1 176 35 is_stmt 0 view .LVU63
 245 007c 2946     		mov	r1, r5
 246 007e 2046     		mov	r0, r4
 247 0080 FFF7FEFF 		bl	lv_obj_get_child
 248              	.LVL35:
 249 0084 0646     		mov	r6, r0
 250              	.LVL36:
 177:../../Middlewares/LVGL/GUI/lvgl/src/widgets/tileview/lv_tileview.c ****             int32_t y = lv_obj_get_y(tile_obj);
 251              		.loc 1 177 13 is_stmt 1 view .LVU64
 177:../../Middlewares/LVGL/GUI/lvgl/src/widgets/tileview/lv_tileview.c ****             int32_t y = lv_obj_get_y(tile_obj);
 252              		.loc 1 177 25 is_stmt 0 view .LVU65
 253 0086 FFF7FEFF 		bl	lv_obj_get_x
 254              	.LVL37:
 177:../../Middlewares/LVGL/GUI/lvgl/src/widgets/tileview/lv_tileview.c ****             int32_t y = lv_obj_get_y(tile_obj);
 255              		.loc 1 177 25 view .LVU66
 256 008a 0746     		mov	r7, r0
 257              	.LVL38:
 178:../../Middlewares/LVGL/GUI/lvgl/src/widgets/tileview/lv_tileview.c ****             if(x == tx && y == ty) {
 258              		.loc 1 178 13 is_stmt 1 view .LVU67
 178:../../Middlewares/LVGL/GUI/lvgl/src/widgets/tileview/lv_tileview.c ****             if(x == tx && y == ty) {
 259              		.loc 1 178 25 is_stmt 0 view .LVU68
 260 008c 3046     		mov	r0, r6
 261              	.LVL39:
 178:../../Middlewares/LVGL/GUI/lvgl/src/widgets/tileview/lv_tileview.c ****             if(x == tx && y == ty) {
 262              		.loc 1 178 25 view .LVU69
 263 008e FFF7FEFF 		bl	lv_obj_get_y
 264              	.LVL40:
 179:../../Middlewares/LVGL/GUI/lvgl/src/widgets/tileview/lv_tileview.c ****                 lv_tileview_tile_t * tile = (lv_tileview_tile_t *)tile_obj;
 265              		.loc 1 179 13 is_stmt 1 view .LVU70
 179:../../Middlewares/LVGL/GUI/lvgl/src/widgets/tileview/lv_tileview.c ****                 lv_tileview_tile_t * tile = (lv_tileview_tile_t *)tile_obj;
 266              		.loc 1 179 15 is_stmt 0 view .LVU71
 267 0092 4346     		mov	r3, r8
 268 0094 4946     		mov	r1, r9
 269 0096 BB42     		cmp	r3, r7
 270 0098 08BF     		it	eq
 271 009a 8142     		cmpeq	r1, r0
 272 009c 05D0     		beq	.L19
 273              	.LVL41:
 179:../../Middlewares/LVGL/GUI/lvgl/src/widgets/tileview/lv_tileview.c ****                 lv_tileview_tile_t * tile = (lv_tileview_tile_t *)tile_obj;
 274              		.loc 1 179 15 view .LVU72
 275              	.LBE3:
 175:../../Middlewares/LVGL/GUI/lvgl/src/widgets/tileview/lv_tileview.c ****             lv_obj_t * tile_obj = lv_obj_get_child(obj, i);
 276              		.loc 1 175 54 is_stmt 1 discriminator 2 view .LVU73
 277 009e 0135     		adds	r5, r5, #1
 278              	.LVL42:
ARM GAS  C:\Users\28576\AppData\Local\Temp\ccAx9qAN.s 			page 10


 175:../../Middlewares/LVGL/GUI/lvgl/src/widgets/tileview/lv_tileview.c ****             lv_obj_t * tile_obj = lv_obj_get_child(obj, i);
 279              		.loc 1 175 54 is_stmt 0 discriminator 2 view .LVU74
 280 00a0 E7E7     		b	.L10
 281              	.LVL43:
 282              	.L16:
 170:../../Middlewares/LVGL/GUI/lvgl/src/widgets/tileview/lv_tileview.c ****         int32_t ty = ((top + (h / 2)) / h) * h;
 283              		.loc 1 170 34 view .LVU75
 284 00a2 711C     		adds	r1, r6, #1
 285              	.LVL44:
 170:../../Middlewares/LVGL/GUI/lvgl/src/widgets/tileview/lv_tileview.c ****         int32_t ty = ((top + (h / 2)) / h) * h;
 286              		.loc 1 170 34 view .LVU76
 287 00a4 D3E7     		b	.L8
 288              	.LVL45:
 289              	.L17:
 171:../../Middlewares/LVGL/GUI/lvgl/src/widgets/tileview/lv_tileview.c **** 
 290              		.loc 1 171 33 view .LVU77
 291 00a6 6A1C     		adds	r2, r5, #1
 292              	.LVL46:
 171:../../Middlewares/LVGL/GUI/lvgl/src/widgets/tileview/lv_tileview.c **** 
 293              		.loc 1 171 33 view .LVU78
 294 00a8 DBE7     		b	.L9
 295              	.LVL47:
 296              	.L19:
 297              	.LBB5:
 298              	.LBB4:
 180:../../Middlewares/LVGL/GUI/lvgl/src/widgets/tileview/lv_tileview.c ****                 tv->tile_act = (lv_obj_t *)tile;
 299              		.loc 1 180 17 is_stmt 1 view .LVU79
 181:../../Middlewares/LVGL/GUI/lvgl/src/widgets/tileview/lv_tileview.c ****                 dir = tile->dir;
 300              		.loc 1 181 17 view .LVU80
 181:../../Middlewares/LVGL/GUI/lvgl/src/widgets/tileview/lv_tileview.c ****                 dir = tile->dir;
 301              		.loc 1 181 30 is_stmt 0 view .LVU81
 302 00aa E662     		str	r6, [r4, #44]
 182:../../Middlewares/LVGL/GUI/lvgl/src/widgets/tileview/lv_tileview.c ****                 lv_obj_send_event(obj, LV_EVENT_VALUE_CHANGED, NULL);
 303              		.loc 1 182 17 is_stmt 1 view .LVU82
 182:../../Middlewares/LVGL/GUI/lvgl/src/widgets/tileview/lv_tileview.c ****                 lv_obj_send_event(obj, LV_EVENT_VALUE_CHANGED, NULL);
 304              		.loc 1 182 21 is_stmt 0 view .LVU83
 305 00ac 96F82C50 		ldrb	r5, [r6, #44]	@ zero_extendqisi2
 306              	.LVL48:
 183:../../Middlewares/LVGL/GUI/lvgl/src/widgets/tileview/lv_tileview.c ****                 break;
 307              		.loc 1 183 17 is_stmt 1 view .LVU84
 308 00b0 0022     		movs	r2, #0
 309 00b2 2321     		movs	r1, #35
 310              	.LVL49:
 183:../../Middlewares/LVGL/GUI/lvgl/src/widgets/tileview/lv_tileview.c ****                 break;
 311              		.loc 1 183 17 is_stmt 0 view .LVU85
 312 00b4 2046     		mov	r0, r4
 313              	.LVL50:
 183:../../Middlewares/LVGL/GUI/lvgl/src/widgets/tileview/lv_tileview.c ****                 break;
 314              		.loc 1 183 17 view .LVU86
 315 00b6 FFF7FEFF 		bl	lv_obj_send_event
 316              	.LVL51:
 184:../../Middlewares/LVGL/GUI/lvgl/src/widgets/tileview/lv_tileview.c ****             }
 317              		.loc 1 184 17 is_stmt 1 view .LVU87
 318 00ba 00E0     		b	.L12
 319              	.LVL52:
 320              	.L18:
 184:../../Middlewares/LVGL/GUI/lvgl/src/widgets/tileview/lv_tileview.c ****             }
ARM GAS  C:\Users\28576\AppData\Local\Temp\ccAx9qAN.s 			page 11


 321              		.loc 1 184 17 is_stmt 0 view .LVU88
 322              	.LBE4:
 323              	.LBE5:
 173:../../Middlewares/LVGL/GUI/lvgl/src/widgets/tileview/lv_tileview.c ****         uint32_t i;
 324              		.loc 1 173 18 view .LVU89
 325 00bc 0F25     		movs	r5, #15
 326              	.LVL53:
 327              	.L12:
 187:../../Middlewares/LVGL/GUI/lvgl/src/widgets/tileview/lv_tileview.c ****     }
 328              		.loc 1 187 9 is_stmt 1 view .LVU90
 329 00be 2946     		mov	r1, r5
 330 00c0 2046     		mov	r0, r4
 331 00c2 FFF7FEFF 		bl	lv_obj_set_scroll_dir
 332              	.LVL54:
 333 00c6 A7E7     		b	.L5
 334              	.LBE2:
 335              		.cfi_endproc
 336              	.LFE179:
 338              		.section	.text.lv_tileview_tile_constructor,"ax",%progbits
 339              		.align	1
 340              		.syntax unified
 341              		.thumb
 342              		.thumb_func
 344              	lv_tileview_tile_constructor:
 345              	.LVL55:
 346              	.LFB178:
 143:../../Middlewares/LVGL/GUI/lvgl/src/widgets/tileview/lv_tileview.c **** 
 347              		.loc 1 143 1 view -0
 348              		.cfi_startproc
 349              		@ args = 0, pretend = 0, frame = 0
 350              		@ frame_needed = 0, uses_anonymous_args = 0
 143:../../Middlewares/LVGL/GUI/lvgl/src/widgets/tileview/lv_tileview.c **** 
 351              		.loc 1 143 1 is_stmt 0 view .LVU92
 352 0000 10B5     		push	{r4, lr}
 353              	.LCFI5:
 354              		.cfi_def_cfa_offset 8
 355              		.cfi_offset 4, -8
 356              		.cfi_offset 14, -4
 357 0002 0C46     		mov	r4, r1
 145:../../Middlewares/LVGL/GUI/lvgl/src/widgets/tileview/lv_tileview.c ****     lv_obj_set_size(obj, LV_PCT(100), LV_PCT(100));
 358              		.loc 1 145 5 is_stmt 1 view .LVU93
 146:../../Middlewares/LVGL/GUI/lvgl/src/widgets/tileview/lv_tileview.c ****     lv_obj_update_layout(obj);  /*Be sure the size is correct*/
 359              		.loc 1 146 5 view .LVU94
 360 0004 0449     		ldr	r1, .L22
 361              	.LVL56:
 146:../../Middlewares/LVGL/GUI/lvgl/src/widgets/tileview/lv_tileview.c ****     lv_obj_update_layout(obj);  /*Be sure the size is correct*/
 362              		.loc 1 146 5 is_stmt 0 view .LVU95
 363 0006 0A46     		mov	r2, r1
 364 0008 2046     		mov	r0, r4
 365              	.LVL57:
 146:../../Middlewares/LVGL/GUI/lvgl/src/widgets/tileview/lv_tileview.c ****     lv_obj_update_layout(obj);  /*Be sure the size is correct*/
 366              		.loc 1 146 5 view .LVU96
 367 000a FFF7FEFF 		bl	lv_obj_set_size
 368              	.LVL58:
 147:../../Middlewares/LVGL/GUI/lvgl/src/widgets/tileview/lv_tileview.c **** }
 369              		.loc 1 147 5 is_stmt 1 view .LVU97
 370 000e 2046     		mov	r0, r4
ARM GAS  C:\Users\28576\AppData\Local\Temp\ccAx9qAN.s 			page 12


 371 0010 FFF7FEFF 		bl	lv_obj_update_layout
 372              	.LVL59:
 148:../../Middlewares/LVGL/GUI/lvgl/src/widgets/tileview/lv_tileview.c **** 
 373              		.loc 1 148 1 is_stmt 0 view .LVU98
 374 0014 10BD     		pop	{r4, pc}
 375              	.LVL60:
 376              	.L23:
 148:../../Middlewares/LVGL/GUI/lvgl/src/widgets/tileview/lv_tileview.c **** 
 377              		.loc 1 148 1 view .LVU99
 378 0016 00BF     		.align	2
 379              	.L22:
 380 0018 64000020 		.word	536871012
 381              		.cfi_endproc
 382              	.LFE178:
 384              		.section	.text.lv_tileview_create,"ax",%progbits
 385              		.align	1
 386              		.global	lv_tileview_create
 387              		.syntax unified
 388              		.thumb
 389              		.thumb_func
 391              	lv_tileview_create:
 392              	.LVL61:
 393              	.LFB172:
  57:../../Middlewares/LVGL/GUI/lvgl/src/widgets/tileview/lv_tileview.c ****     LV_LOG_INFO("begin");
 394              		.loc 1 57 1 is_stmt 1 view -0
 395              		.cfi_startproc
 396              		@ args = 0, pretend = 0, frame = 0
 397              		@ frame_needed = 0, uses_anonymous_args = 0
  57:../../Middlewares/LVGL/GUI/lvgl/src/widgets/tileview/lv_tileview.c ****     LV_LOG_INFO("begin");
 398              		.loc 1 57 1 is_stmt 0 view .LVU101
 399 0000 10B5     		push	{r4, lr}
 400              	.LCFI6:
 401              		.cfi_def_cfa_offset 8
 402              		.cfi_offset 4, -8
 403              		.cfi_offset 14, -4
 404 0002 0146     		mov	r1, r0
  58:../../Middlewares/LVGL/GUI/lvgl/src/widgets/tileview/lv_tileview.c ****     lv_obj_t * obj = lv_obj_class_create_obj(&lv_tileview_class, parent);
 405              		.loc 1 58 5 is_stmt 1 view .LVU102
  58:../../Middlewares/LVGL/GUI/lvgl/src/widgets/tileview/lv_tileview.c ****     lv_obj_t * obj = lv_obj_class_create_obj(&lv_tileview_class, parent);
 406              		.loc 1 58 5 view .LVU103
  58:../../Middlewares/LVGL/GUI/lvgl/src/widgets/tileview/lv_tileview.c ****     lv_obj_t * obj = lv_obj_class_create_obj(&lv_tileview_class, parent);
 407              		.loc 1 58 5 view .LVU104
  59:../../Middlewares/LVGL/GUI/lvgl/src/widgets/tileview/lv_tileview.c ****     lv_obj_class_init_obj(obj);
 408              		.loc 1 59 5 view .LVU105
  59:../../Middlewares/LVGL/GUI/lvgl/src/widgets/tileview/lv_tileview.c ****     lv_obj_class_init_obj(obj);
 409              		.loc 1 59 22 is_stmt 0 view .LVU106
 410 0004 0348     		ldr	r0, .L26
 411              	.LVL62:
  59:../../Middlewares/LVGL/GUI/lvgl/src/widgets/tileview/lv_tileview.c ****     lv_obj_class_init_obj(obj);
 412              		.loc 1 59 22 view .LVU107
 413 0006 FFF7FEFF 		bl	lv_obj_class_create_obj
 414              	.LVL63:
  59:../../Middlewares/LVGL/GUI/lvgl/src/widgets/tileview/lv_tileview.c ****     lv_obj_class_init_obj(obj);
 415              		.loc 1 59 22 view .LVU108
 416 000a 0446     		mov	r4, r0
 417              	.LVL64:
  60:../../Middlewares/LVGL/GUI/lvgl/src/widgets/tileview/lv_tileview.c ****     return obj;
ARM GAS  C:\Users\28576\AppData\Local\Temp\ccAx9qAN.s 			page 13


 418              		.loc 1 60 5 is_stmt 1 view .LVU109
 419 000c FFF7FEFF 		bl	lv_obj_class_init_obj
 420              	.LVL65:
  61:../../Middlewares/LVGL/GUI/lvgl/src/widgets/tileview/lv_tileview.c **** }
 421              		.loc 1 61 5 view .LVU110
  62:../../Middlewares/LVGL/GUI/lvgl/src/widgets/tileview/lv_tileview.c **** 
 422              		.loc 1 62 1 is_stmt 0 view .LVU111
 423 0010 2046     		mov	r0, r4
 424 0012 10BD     		pop	{r4, pc}
 425              	.LVL66:
 426              	.L27:
  62:../../Middlewares/LVGL/GUI/lvgl/src/widgets/tileview/lv_tileview.c **** 
 427              		.loc 1 62 1 view .LVU112
 428              		.align	2
 429              	.L26:
 430 0014 00000000 		.word	lv_tileview_class
 431              		.cfi_endproc
 432              	.LFE172:
 434              		.section	.text.lv_tileview_add_tile,"ax",%progbits
 435              		.align	1
 436              		.global	lv_tileview_add_tile
 437              		.syntax unified
 438              		.thumb
 439              		.thumb_func
 441              	lv_tileview_add_tile:
 442              	.LVL67:
 443              	.LFB173:
  69:../../Middlewares/LVGL/GUI/lvgl/src/widgets/tileview/lv_tileview.c ****     LV_LOG_INFO("begin");
 444              		.loc 1 69 1 is_stmt 1 view -0
 445              		.cfi_startproc
 446              		@ args = 0, pretend = 0, frame = 0
 447              		@ frame_needed = 0, uses_anonymous_args = 0
  69:../../Middlewares/LVGL/GUI/lvgl/src/widgets/tileview/lv_tileview.c ****     LV_LOG_INFO("begin");
 448              		.loc 1 69 1 is_stmt 0 view .LVU114
 449 0000 2DE9F047 		push	{r4, r5, r6, r7, r8, r9, r10, lr}
 450              	.LCFI7:
 451              		.cfi_def_cfa_offset 32
 452              		.cfi_offset 4, -32
 453              		.cfi_offset 5, -28
 454              		.cfi_offset 6, -24
 455              		.cfi_offset 7, -20
 456              		.cfi_offset 8, -16
 457              		.cfi_offset 9, -12
 458              		.cfi_offset 10, -8
 459              		.cfi_offset 14, -4
 460 0004 8246     		mov	r10, r0
 461 0006 0E46     		mov	r6, r1
 462 0008 1546     		mov	r5, r2
 463 000a 9846     		mov	r8, r3
  70:../../Middlewares/LVGL/GUI/lvgl/src/widgets/tileview/lv_tileview.c **** 
 464              		.loc 1 70 5 is_stmt 1 view .LVU115
  70:../../Middlewares/LVGL/GUI/lvgl/src/widgets/tileview/lv_tileview.c **** 
 465              		.loc 1 70 5 view .LVU116
  70:../../Middlewares/LVGL/GUI/lvgl/src/widgets/tileview/lv_tileview.c **** 
 466              		.loc 1 70 5 view .LVU117
  72:../../Middlewares/LVGL/GUI/lvgl/src/widgets/tileview/lv_tileview.c ****     lv_obj_class_init_obj(obj);
 467              		.loc 1 72 5 view .LVU118
ARM GAS  C:\Users\28576\AppData\Local\Temp\ccAx9qAN.s 			page 14


  72:../../Middlewares/LVGL/GUI/lvgl/src/widgets/tileview/lv_tileview.c ****     lv_obj_class_init_obj(obj);
 468              		.loc 1 72 22 is_stmt 0 view .LVU119
 469 000c 0146     		mov	r1, r0
 470              	.LVL68:
  72:../../Middlewares/LVGL/GUI/lvgl/src/widgets/tileview/lv_tileview.c ****     lv_obj_class_init_obj(obj);
 471              		.loc 1 72 22 view .LVU120
 472 000e 1048     		ldr	r0, .L32
 473              	.LVL69:
  72:../../Middlewares/LVGL/GUI/lvgl/src/widgets/tileview/lv_tileview.c ****     lv_obj_class_init_obj(obj);
 474              		.loc 1 72 22 view .LVU121
 475 0010 FFF7FEFF 		bl	lv_obj_class_create_obj
 476              	.LVL70:
  72:../../Middlewares/LVGL/GUI/lvgl/src/widgets/tileview/lv_tileview.c ****     lv_obj_class_init_obj(obj);
 477              		.loc 1 72 22 view .LVU122
 478 0014 0446     		mov	r4, r0
 479              	.LVL71:
  73:../../Middlewares/LVGL/GUI/lvgl/src/widgets/tileview/lv_tileview.c ****     lv_obj_set_pos(obj, lv_pct(col_id * 100), lv_pct(row_id * 100));
 480              		.loc 1 73 5 is_stmt 1 view .LVU123
 481 0016 FFF7FEFF 		bl	lv_obj_class_init_obj
 482              	.LVL72:
  74:../../Middlewares/LVGL/GUI/lvgl/src/widgets/tileview/lv_tileview.c **** 
 483              		.loc 1 74 5 view .LVU124
  74:../../Middlewares/LVGL/GUI/lvgl/src/widgets/tileview/lv_tileview.c **** 
 484              		.loc 1 74 39 is_stmt 0 view .LVU125
 485 001a 6427     		movs	r7, #100
  74:../../Middlewares/LVGL/GUI/lvgl/src/widgets/tileview/lv_tileview.c **** 
 486              		.loc 1 74 5 view .LVU126
 487 001c 07FB06F0 		mul	r0, r7, r6
 488 0020 FFF7FEFF 		bl	lv_pct
 489              	.LVL73:
 490 0024 8146     		mov	r9, r0
  74:../../Middlewares/LVGL/GUI/lvgl/src/widgets/tileview/lv_tileview.c **** 
 491              		.loc 1 74 5 discriminator 1 view .LVU127
 492 0026 07FB05F0 		mul	r0, r7, r5
 493 002a FFF7FEFF 		bl	lv_pct
 494              	.LVL74:
 495 002e 0246     		mov	r2, r0
  74:../../Middlewares/LVGL/GUI/lvgl/src/widgets/tileview/lv_tileview.c **** 
 496              		.loc 1 74 5 discriminator 2 view .LVU128
 497 0030 4946     		mov	r1, r9
 498 0032 2046     		mov	r0, r4
 499 0034 FFF7FEFF 		bl	lv_obj_set_pos
 500              	.LVL75:
  76:../../Middlewares/LVGL/GUI/lvgl/src/widgets/tileview/lv_tileview.c ****     tile->dir = dir;
 501              		.loc 1 76 5 is_stmt 1 view .LVU129
  77:../../Middlewares/LVGL/GUI/lvgl/src/widgets/tileview/lv_tileview.c **** 
 502              		.loc 1 77 5 view .LVU130
  77:../../Middlewares/LVGL/GUI/lvgl/src/widgets/tileview/lv_tileview.c **** 
 503              		.loc 1 77 15 is_stmt 0 view .LVU131
 504 0038 84F82C80 		strb	r8, [r4, #44]
  79:../../Middlewares/LVGL/GUI/lvgl/src/widgets/tileview/lv_tileview.c ****         lv_obj_set_scroll_dir(tv, dir);
 505              		.loc 1 79 5 is_stmt 1 view .LVU132
  79:../../Middlewares/LVGL/GUI/lvgl/src/widgets/tileview/lv_tileview.c ****         lv_obj_set_scroll_dir(tv, dir);
 506              		.loc 1 79 7 is_stmt 0 view .LVU133
 507 003c 3543     		orrs	r5, r5, r6
 508              	.LVL76:
  79:../../Middlewares/LVGL/GUI/lvgl/src/widgets/tileview/lv_tileview.c ****         lv_obj_set_scroll_dir(tv, dir);
ARM GAS  C:\Users\28576\AppData\Local\Temp\ccAx9qAN.s 			page 15


 509              		.loc 1 79 7 view .LVU134
 510 003e 02D0     		beq	.L31
 511              	.L28:
  83:../../Middlewares/LVGL/GUI/lvgl/src/widgets/tileview/lv_tileview.c **** 
 512              		.loc 1 83 1 view .LVU135
 513 0040 2046     		mov	r0, r4
 514 0042 BDE8F087 		pop	{r4, r5, r6, r7, r8, r9, r10, pc}
 515              	.LVL77:
 516              	.L31:
  80:../../Middlewares/LVGL/GUI/lvgl/src/widgets/tileview/lv_tileview.c ****     }
 517              		.loc 1 80 9 is_stmt 1 view .LVU136
 518 0046 4146     		mov	r1, r8
 519 0048 5046     		mov	r0, r10
 520 004a FFF7FEFF 		bl	lv_obj_set_scroll_dir
 521              	.LVL78:
  82:../../Middlewares/LVGL/GUI/lvgl/src/widgets/tileview/lv_tileview.c **** }
 522              		.loc 1 82 5 view .LVU137
  82:../../Middlewares/LVGL/GUI/lvgl/src/widgets/tileview/lv_tileview.c **** }
 523              		.loc 1 82 12 is_stmt 0 view .LVU138
 524 004e F7E7     		b	.L28
 525              	.L33:
 526              		.align	2
 527              	.L32:
 528 0050 00000000 		.word	lv_tileview_tile_class
 529              		.cfi_endproc
 530              	.LFE173:
 532              		.section	.text.lv_tileview_set_tile,"ax",%progbits
 533              		.align	1
 534              		.global	lv_tileview_set_tile
 535              		.syntax unified
 536              		.thumb
 537              		.thumb_func
 539              	lv_tileview_set_tile:
 540              	.LVL79:
 541              	.LFB174:
  86:../../Middlewares/LVGL/GUI/lvgl/src/widgets/tileview/lv_tileview.c ****     int32_t tx = lv_obj_get_x(tile_obj);
 542              		.loc 1 86 1 is_stmt 1 view -0
 543              		.cfi_startproc
 544              		@ args = 0, pretend = 0, frame = 0
 545              		@ frame_needed = 0, uses_anonymous_args = 0
  86:../../Middlewares/LVGL/GUI/lvgl/src/widgets/tileview/lv_tileview.c ****     int32_t tx = lv_obj_get_x(tile_obj);
 546              		.loc 1 86 1 is_stmt 0 view .LVU140
 547 0000 2DE9F041 		push	{r4, r5, r6, r7, r8, lr}
 548              	.LCFI8:
 549              		.cfi_def_cfa_offset 24
 550              		.cfi_offset 4, -24
 551              		.cfi_offset 5, -20
 552              		.cfi_offset 6, -16
 553              		.cfi_offset 7, -12
 554              		.cfi_offset 8, -8
 555              		.cfi_offset 14, -4
 556 0004 0546     		mov	r5, r0
 557 0006 0C46     		mov	r4, r1
 558 0008 9046     		mov	r8, r2
  87:../../Middlewares/LVGL/GUI/lvgl/src/widgets/tileview/lv_tileview.c ****     int32_t ty = lv_obj_get_y(tile_obj);
 559              		.loc 1 87 5 is_stmt 1 view .LVU141
  87:../../Middlewares/LVGL/GUI/lvgl/src/widgets/tileview/lv_tileview.c ****     int32_t ty = lv_obj_get_y(tile_obj);
ARM GAS  C:\Users\28576\AppData\Local\Temp\ccAx9qAN.s 			page 16


 560              		.loc 1 87 18 is_stmt 0 view .LVU142
 561 000a 0846     		mov	r0, r1
 562              	.LVL80:
  87:../../Middlewares/LVGL/GUI/lvgl/src/widgets/tileview/lv_tileview.c ****     int32_t ty = lv_obj_get_y(tile_obj);
 563              		.loc 1 87 18 view .LVU143
 564 000c FFF7FEFF 		bl	lv_obj_get_x
 565              	.LVL81:
  87:../../Middlewares/LVGL/GUI/lvgl/src/widgets/tileview/lv_tileview.c ****     int32_t ty = lv_obj_get_y(tile_obj);
 566              		.loc 1 87 18 view .LVU144
 567 0010 0746     		mov	r7, r0
 568              	.LVL82:
  88:../../Middlewares/LVGL/GUI/lvgl/src/widgets/tileview/lv_tileview.c **** 
 569              		.loc 1 88 5 is_stmt 1 view .LVU145
  88:../../Middlewares/LVGL/GUI/lvgl/src/widgets/tileview/lv_tileview.c **** 
 570              		.loc 1 88 18 is_stmt 0 view .LVU146
 571 0012 2046     		mov	r0, r4
 572              	.LVL83:
  88:../../Middlewares/LVGL/GUI/lvgl/src/widgets/tileview/lv_tileview.c **** 
 573              		.loc 1 88 18 view .LVU147
 574 0014 FFF7FEFF 		bl	lv_obj_get_y
 575              	.LVL84:
 576 0018 0646     		mov	r6, r0
 577              	.LVL85:
  90:../../Middlewares/LVGL/GUI/lvgl/src/widgets/tileview/lv_tileview.c ****     lv_tileview_t * tv = (lv_tileview_t *) obj;
 578              		.loc 1 90 5 is_stmt 1 view .LVU148
  91:../../Middlewares/LVGL/GUI/lvgl/src/widgets/tileview/lv_tileview.c ****     tv->tile_act = (lv_obj_t *)tile;
 579              		.loc 1 91 5 view .LVU149
  92:../../Middlewares/LVGL/GUI/lvgl/src/widgets/tileview/lv_tileview.c **** 
 580              		.loc 1 92 5 view .LVU150
  92:../../Middlewares/LVGL/GUI/lvgl/src/widgets/tileview/lv_tileview.c **** 
 581              		.loc 1 92 18 is_stmt 0 view .LVU151
 582 001a EC62     		str	r4, [r5, #44]
  94:../../Middlewares/LVGL/GUI/lvgl/src/widgets/tileview/lv_tileview.c ****     lv_obj_scroll_to(obj, tx, ty, anim_en);
 583              		.loc 1 94 5 is_stmt 1 view .LVU152
 584 001c 94F82C10 		ldrb	r1, [r4, #44]	@ zero_extendqisi2
 585 0020 2846     		mov	r0, r5
 586              	.LVL86:
  94:../../Middlewares/LVGL/GUI/lvgl/src/widgets/tileview/lv_tileview.c ****     lv_obj_scroll_to(obj, tx, ty, anim_en);
 587              		.loc 1 94 5 is_stmt 0 view .LVU153
 588 0022 FFF7FEFF 		bl	lv_obj_set_scroll_dir
 589              	.LVL87:
  95:../../Middlewares/LVGL/GUI/lvgl/src/widgets/tileview/lv_tileview.c **** }
 590              		.loc 1 95 5 is_stmt 1 view .LVU154
 591 0026 4346     		mov	r3, r8
 592 0028 3246     		mov	r2, r6
 593 002a 3946     		mov	r1, r7
 594 002c 2846     		mov	r0, r5
 595 002e FFF7FEFF 		bl	lv_obj_scroll_to
 596              	.LVL88:
  96:../../Middlewares/LVGL/GUI/lvgl/src/widgets/tileview/lv_tileview.c **** 
 597              		.loc 1 96 1 is_stmt 0 view .LVU155
 598 0032 BDE8F081 		pop	{r4, r5, r6, r7, r8, pc}
  96:../../Middlewares/LVGL/GUI/lvgl/src/widgets/tileview/lv_tileview.c **** 
 599              		.loc 1 96 1 view .LVU156
 600              		.cfi_endproc
 601              	.LFE174:
 603              		.section	.text.lv_tileview_set_tile_by_index,"ax",%progbits
ARM GAS  C:\Users\28576\AppData\Local\Temp\ccAx9qAN.s 			page 17


 604              		.align	1
 605              		.global	lv_tileview_set_tile_by_index
 606              		.syntax unified
 607              		.thumb
 608              		.thumb_func
 610              	lv_tileview_set_tile_by_index:
 611              	.LVL89:
 612              	.LFB175:
  99:../../Middlewares/LVGL/GUI/lvgl/src/widgets/tileview/lv_tileview.c ****     lv_obj_update_layout(tv);
 613              		.loc 1 99 1 is_stmt 1 view -0
 614              		.cfi_startproc
 615              		@ args = 0, pretend = 0, frame = 0
 616              		@ frame_needed = 0, uses_anonymous_args = 0
  99:../../Middlewares/LVGL/GUI/lvgl/src/widgets/tileview/lv_tileview.c ****     lv_obj_update_layout(tv);
 617              		.loc 1 99 1 is_stmt 0 view .LVU158
 618 0000 2DE9F047 		push	{r4, r5, r6, r7, r8, r9, r10, lr}
 619              	.LCFI9:
 620              		.cfi_def_cfa_offset 32
 621              		.cfi_offset 4, -32
 622              		.cfi_offset 5, -28
 623              		.cfi_offset 6, -24
 624              		.cfi_offset 7, -20
 625              		.cfi_offset 8, -16
 626              		.cfi_offset 9, -12
 627              		.cfi_offset 10, -8
 628              		.cfi_offset 14, -4
 629 0004 0746     		mov	r7, r0
 630 0006 0D46     		mov	r5, r1
 631 0008 9146     		mov	r9, r2
 632 000a 9A46     		mov	r10, r3
 100:../../Middlewares/LVGL/GUI/lvgl/src/widgets/tileview/lv_tileview.c **** 
 633              		.loc 1 100 5 is_stmt 1 view .LVU159
 634 000c FFF7FEFF 		bl	lv_obj_update_layout
 635              	.LVL90:
 102:../../Middlewares/LVGL/GUI/lvgl/src/widgets/tileview/lv_tileview.c ****     int32_t h = lv_obj_get_content_height(tv);
 636              		.loc 1 102 5 view .LVU160
 102:../../Middlewares/LVGL/GUI/lvgl/src/widgets/tileview/lv_tileview.c ****     int32_t h = lv_obj_get_content_height(tv);
 637              		.loc 1 102 17 is_stmt 0 view .LVU161
 638 0010 3846     		mov	r0, r7
 639 0012 FFF7FEFF 		bl	lv_obj_get_content_width
 640              	.LVL91:
 641 0016 8046     		mov	r8, r0
 642              	.LVL92:
 103:../../Middlewares/LVGL/GUI/lvgl/src/widgets/tileview/lv_tileview.c **** 
 643              		.loc 1 103 5 is_stmt 1 view .LVU162
 103:../../Middlewares/LVGL/GUI/lvgl/src/widgets/tileview/lv_tileview.c **** 
 644              		.loc 1 103 17 is_stmt 0 view .LVU163
 645 0018 3846     		mov	r0, r7
 646              	.LVL93:
 103:../../Middlewares/LVGL/GUI/lvgl/src/widgets/tileview/lv_tileview.c **** 
 647              		.loc 1 103 17 view .LVU164
 648 001a FFF7FEFF 		bl	lv_obj_get_content_height
 649              	.LVL94:
 105:../../Middlewares/LVGL/GUI/lvgl/src/widgets/tileview/lv_tileview.c ****     int32_t ty = row_id * h;
 650              		.loc 1 105 5 is_stmt 1 view .LVU165
 105:../../Middlewares/LVGL/GUI/lvgl/src/widgets/tileview/lv_tileview.c ****     int32_t ty = row_id * h;
 651              		.loc 1 105 25 is_stmt 0 view .LVU166
ARM GAS  C:\Users\28576\AppData\Local\Temp\ccAx9qAN.s 			page 18


 652 001e 05FB08F8 		mul	r8, r5, r8
 653              	.LVL95:
 106:../../Middlewares/LVGL/GUI/lvgl/src/widgets/tileview/lv_tileview.c **** 
 654              		.loc 1 106 5 is_stmt 1 view .LVU167
 106:../../Middlewares/LVGL/GUI/lvgl/src/widgets/tileview/lv_tileview.c **** 
 655              		.loc 1 106 25 is_stmt 0 view .LVU168
 656 0022 09FB00F9 		mul	r9, r9, r0
 657              	.LVL96:
 108:../../Middlewares/LVGL/GUI/lvgl/src/widgets/tileview/lv_tileview.c ****     for(i = 0; i < lv_obj_get_child_count(tv); i++) {
 658              		.loc 1 108 5 is_stmt 1 view .LVU169
 109:../../Middlewares/LVGL/GUI/lvgl/src/widgets/tileview/lv_tileview.c ****         lv_obj_t * tile_obj = lv_obj_get_child(tv, i);
 659              		.loc 1 109 5 view .LVU170
 109:../../Middlewares/LVGL/GUI/lvgl/src/widgets/tileview/lv_tileview.c ****         lv_obj_t * tile_obj = lv_obj_get_child(tv, i);
 660              		.loc 1 109 11 is_stmt 0 view .LVU171
 661 0026 0024     		movs	r4, #0
 109:../../Middlewares/LVGL/GUI/lvgl/src/widgets/tileview/lv_tileview.c ****         lv_obj_t * tile_obj = lv_obj_get_child(tv, i);
 662              		.loc 1 109 5 view .LVU172
 663 0028 00E0     		b	.L37
 664              	.LVL97:
 665              	.L38:
 109:../../Middlewares/LVGL/GUI/lvgl/src/widgets/tileview/lv_tileview.c ****         lv_obj_t * tile_obj = lv_obj_get_child(tv, i);
 666              		.loc 1 109 49 is_stmt 1 discriminator 2 view .LVU173
 667 002a 0134     		adds	r4, r4, #1
 668              	.LVL98:
 669              	.L37:
 109:../../Middlewares/LVGL/GUI/lvgl/src/widgets/tileview/lv_tileview.c ****         lv_obj_t * tile_obj = lv_obj_get_child(tv, i);
 670              		.loc 1 109 18 discriminator 1 view .LVU174
 109:../../Middlewares/LVGL/GUI/lvgl/src/widgets/tileview/lv_tileview.c ****         lv_obj_t * tile_obj = lv_obj_get_child(tv, i);
 671              		.loc 1 109 20 is_stmt 0 discriminator 1 view .LVU175
 672 002c 3846     		mov	r0, r7
 673 002e FFF7FEFF 		bl	lv_obj_get_child_count
 674              	.LVL99:
 109:../../Middlewares/LVGL/GUI/lvgl/src/widgets/tileview/lv_tileview.c ****         lv_obj_t * tile_obj = lv_obj_get_child(tv, i);
 675              		.loc 1 109 18 discriminator 3 view .LVU176
 676 0032 A042     		cmp	r0, r4
 677 0034 13D9     		bls	.L36
 678              	.LBB6:
 110:../../Middlewares/LVGL/GUI/lvgl/src/widgets/tileview/lv_tileview.c ****         int32_t x = lv_obj_get_x(tile_obj);
 679              		.loc 1 110 9 is_stmt 1 view .LVU177
 110:../../Middlewares/LVGL/GUI/lvgl/src/widgets/tileview/lv_tileview.c ****         int32_t x = lv_obj_get_x(tile_obj);
 680              		.loc 1 110 31 is_stmt 0 view .LVU178
 681 0036 2146     		mov	r1, r4
 682 0038 3846     		mov	r0, r7
 683 003a FFF7FEFF 		bl	lv_obj_get_child
 684              	.LVL100:
 685 003e 0546     		mov	r5, r0
 686              	.LVL101:
 111:../../Middlewares/LVGL/GUI/lvgl/src/widgets/tileview/lv_tileview.c ****         int32_t y = lv_obj_get_y(tile_obj);
 687              		.loc 1 111 9 is_stmt 1 view .LVU179
 111:../../Middlewares/LVGL/GUI/lvgl/src/widgets/tileview/lv_tileview.c ****         int32_t y = lv_obj_get_y(tile_obj);
 688              		.loc 1 111 21 is_stmt 0 view .LVU180
 689 0040 FFF7FEFF 		bl	lv_obj_get_x
 690              	.LVL102:
 111:../../Middlewares/LVGL/GUI/lvgl/src/widgets/tileview/lv_tileview.c ****         int32_t y = lv_obj_get_y(tile_obj);
 691              		.loc 1 111 21 view .LVU181
 692 0044 0646     		mov	r6, r0
 693              	.LVL103:
ARM GAS  C:\Users\28576\AppData\Local\Temp\ccAx9qAN.s 			page 19


 112:../../Middlewares/LVGL/GUI/lvgl/src/widgets/tileview/lv_tileview.c ****         if(x == tx && y == ty) {
 694              		.loc 1 112 9 is_stmt 1 view .LVU182
 112:../../Middlewares/LVGL/GUI/lvgl/src/widgets/tileview/lv_tileview.c ****         if(x == tx && y == ty) {
 695              		.loc 1 112 21 is_stmt 0 view .LVU183
 696 0046 2846     		mov	r0, r5
 697              	.LVL104:
 112:../../Middlewares/LVGL/GUI/lvgl/src/widgets/tileview/lv_tileview.c ****         if(x == tx && y == ty) {
 698              		.loc 1 112 21 view .LVU184
 699 0048 FFF7FEFF 		bl	lv_obj_get_y
 700              	.LVL105:
 113:../../Middlewares/LVGL/GUI/lvgl/src/widgets/tileview/lv_tileview.c ****             lv_tileview_set_tile(tv, tile_obj, anim_en);
 701              		.loc 1 113 9 is_stmt 1 view .LVU185
 113:../../Middlewares/LVGL/GUI/lvgl/src/widgets/tileview/lv_tileview.c ****             lv_tileview_set_tile(tv, tile_obj, anim_en);
 702              		.loc 1 113 11 is_stmt 0 view .LVU186
 703 004c B045     		cmp	r8, r6
 704 004e 08BF     		it	eq
 705 0050 8145     		cmpeq	r9, r0
 706 0052 EAD1     		bne	.L38
 114:../../Middlewares/LVGL/GUI/lvgl/src/widgets/tileview/lv_tileview.c ****             return;
 707              		.loc 1 114 13 is_stmt 1 view .LVU187
 708 0054 5246     		mov	r2, r10
 709 0056 2946     		mov	r1, r5
 710 0058 3846     		mov	r0, r7
 711              	.LVL106:
 114:../../Middlewares/LVGL/GUI/lvgl/src/widgets/tileview/lv_tileview.c ****             return;
 712              		.loc 1 114 13 is_stmt 0 view .LVU188
 713 005a FFF7FEFF 		bl	lv_tileview_set_tile
 714              	.LVL107:
 115:../../Middlewares/LVGL/GUI/lvgl/src/widgets/tileview/lv_tileview.c ****         }
 715              		.loc 1 115 13 is_stmt 1 view .LVU189
 716              	.L36:
 115:../../Middlewares/LVGL/GUI/lvgl/src/widgets/tileview/lv_tileview.c ****         }
 717              		.loc 1 115 13 is_stmt 0 view .LVU190
 718              	.LBE6:
 120:../../Middlewares/LVGL/GUI/lvgl/src/widgets/tileview/lv_tileview.c **** 
 719              		.loc 1 120 1 view .LVU191
 720 005e BDE8F087 		pop	{r4, r5, r6, r7, r8, r9, r10, pc}
 120:../../Middlewares/LVGL/GUI/lvgl/src/widgets/tileview/lv_tileview.c **** 
 721              		.loc 1 120 1 view .LVU192
 722              		.cfi_endproc
 723              	.LFE175:
 725              		.section	.text.lv_tileview_get_tile_active,"ax",%progbits
 726              		.align	1
 727              		.global	lv_tileview_get_tile_active
 728              		.syntax unified
 729              		.thumb
 730              		.thumb_func
 732              	lv_tileview_get_tile_active:
 733              	.LVL108:
 734              	.LFB176:
 123:../../Middlewares/LVGL/GUI/lvgl/src/widgets/tileview/lv_tileview.c ****     lv_tileview_t * tv = (lv_tileview_t *) obj;
 735              		.loc 1 123 1 is_stmt 1 view -0
 736              		.cfi_startproc
 737              		@ args = 0, pretend = 0, frame = 0
 738              		@ frame_needed = 0, uses_anonymous_args = 0
 739              		@ link register save eliminated.
 124:../../Middlewares/LVGL/GUI/lvgl/src/widgets/tileview/lv_tileview.c ****     return tv->tile_act;
ARM GAS  C:\Users\28576\AppData\Local\Temp\ccAx9qAN.s 			page 20


 740              		.loc 1 124 5 view .LVU194
 125:../../Middlewares/LVGL/GUI/lvgl/src/widgets/tileview/lv_tileview.c **** }
 741              		.loc 1 125 5 view .LVU195
 126:../../Middlewares/LVGL/GUI/lvgl/src/widgets/tileview/lv_tileview.c **** 
 742              		.loc 1 126 1 is_stmt 0 view .LVU196
 743 0000 C06A     		ldr	r0, [r0, #44]
 744              	.LVL109:
 126:../../Middlewares/LVGL/GUI/lvgl/src/widgets/tileview/lv_tileview.c **** 
 745              		.loc 1 126 1 view .LVU197
 746 0002 7047     		bx	lr
 747              		.cfi_endproc
 748              	.LFE176:
 750              		.global	lv_tileview_tile_class
 751              		.section	.rodata.str1.4,"aMS",%progbits,1
 752              		.align	2
 753              	.LC0:
 754 0000 6C765F74 		.ascii	"lv_tile\000"
 754      696C6500 
 755              		.section	.rodata.lv_tileview_tile_class,"a"
 756              		.align	2
 759              	lv_tileview_tile_class:
 760 0000 00000000 		.word	lv_obj_class
 761 0004 00000000 		.word	lv_tileview_tile_constructor
 762 0008 00000000 		.space	12
 762      00000000 
 762      00000000 
 763 0014 00000000 		.word	.LC0
 764 0018 00000000 		.space	8
 764      00000000 
 765 0020 00       		.byte	0
 766 0021 03       		.byte	3
 767 0022 00       		.byte	0
 768 0023 00       		.space	1
 769              		.global	lv_tileview_class
 770              		.section	.rodata.str1.4
 771              		.align	2
 772              	.LC1:
 773 0008 6C765F74 		.ascii	"lv_tileview\000"
 773      696C6576 
 773      69657700 
 774              		.section	.rodata.lv_tileview_class,"a"
 775              		.align	2
 778              	lv_tileview_class:
 779 0000 00000000 		.word	lv_obj_class
 780 0004 00000000 		.word	lv_tileview_constructor
 781 0008 00000000 		.space	12
 781      00000000 
 781      00000000 
 782 0014 08000000 		.word	.LC1
 783 0018 00000000 		.space	8
 783      00000000 
 784 0020 00       		.byte	0
 785 0021 03       		.byte	3
 786 0022 00       		.byte	0
 787 0023 00       		.space	1
 788              		.text
 789              	.Letext0:
ARM GAS  C:\Users\28576\AppData\Local\Temp\ccAx9qAN.s 			page 21


 790              		.file 2 "C:/Users/28576/AppData/Roaming/xPacks/@xpack-dev-tools/arm-none-eabi-gcc/15.2.1-1.1.1/.co
 791              		.file 3 "C:/Users/28576/AppData/Roaming/xPacks/@xpack-dev-tools/arm-none-eabi-gcc/15.2.1-1.1.1/.co
 792              		.file 4 "H:/STM32H7/RGB_LVGL/Middlewares/LVGL/GUI/lvgl/src/misc/lv_types.h"
 793              		.file 5 "H:/STM32H7/RGB_LVGL/Middlewares/LVGL/GUI/lvgl/src/core/lv_obj_private.h"
 794              		.file 6 "H:/STM32H7/RGB_LVGL/Middlewares/LVGL/GUI/lvgl/src/core/lv_obj_class_private.h"
 795              		.file 7 "H:/STM32H7/RGB_LVGL/Middlewares/LVGL/GUI/lvgl/src/indev/lv_indev_private.h"
 796              		.file 8 "H:/STM32H7/RGB_LVGL/Middlewares/LVGL/GUI/lvgl/src/misc/lv_anim.h"
 797              		.file 9 "../../Middlewares/LVGL/GUI/lvgl/src/widgets/tileview/lv_tileview_private.h"
 798              		.file 10 "H:/STM32H7/RGB_LVGL/Middlewares/LVGL/GUI/lvgl/src/misc/lv_array.h"
 799              		.file 11 "H:/STM32H7/RGB_LVGL/Middlewares/LVGL/GUI/lvgl/src/misc/lv_area.h"
 800              		.file 12 "H:/STM32H7/RGB_LVGL/Middlewares/LVGL/GUI/lvgl/src/misc/lv_event.h"
 801              		.file 13 "H:/STM32H7/RGB_LVGL/Middlewares/LVGL/GUI/lvgl/src/core/lv_obj_scroll.h"
 802              		.file 14 "H:/STM32H7/RGB_LVGL/Middlewares/LVGL/GUI/lvgl/src/indev/lv_indev.h"
 803              		.file 15 "H:/STM32H7/RGB_LVGL/Middlewares/LVGL/GUI/lvgl/src/core/lv_obj.h"
 804              		.file 16 "../../Middlewares/LVGL/GUI/lvgl/src/widgets/tileview/lv_tileview.h"
 805              		.file 17 "H:/STM32H7/RGB_LVGL/Middlewares/LVGL/GUI/lvgl/src/core/lv_obj_pos.h"
 806              		.file 18 "H:/STM32H7/RGB_LVGL/Middlewares/LVGL/GUI/lvgl/src/core/lv_obj_class.h"
 807              		.file 19 "H:/STM32H7/RGB_LVGL/Middlewares/LVGL/GUI/lvgl/src/core/lv_obj_tree.h"
 808              		.file 20 "H:/STM32H7/RGB_LVGL/Middlewares/LVGL/GUI/lvgl/src/core/lv_obj_event.h"
ARM GAS  C:\Users\28576\AppData\Local\Temp\ccAx9qAN.s 			page 22

