ARM GAS  C:\Users\28576\AppData\Local\Temp\ccYw9wfC.s 			page 1


   1              		.cpu cortex-m7
   2              		.arch armv7e-m
   3              		.fpu fpv5-d16
   4              		.eabi_attribute 28, 1
   5              		.eabi_attribute 20, 1
   6              		.eabi_attribute 21, 1
   7              		.eabi_attribute 23, 3
   8              		.eabi_attribute 24, 1
   9              		.eabi_attribute 25, 1
  10              		.eabi_attribute 26, 1
  11              		.eabi_attribute 30, 1
  12              		.eabi_attribute 34, 1
  13              		.eabi_attribute 18, 4
  14              		.file	"stm32h7xx_ll_fmc.c"
  15              		.text
  16              	.Ltext0:
  17              		.cfi_sections	.debug_frame
  18              		.file 1 "../../Drivers/STM32H7xx_HAL_Driver/Src/stm32h7xx_ll_fmc.c"
  19              		.section	.text.FMC_NORSRAM_Init,"ax",%progbits
  20              		.align	1
  21              		.global	FMC_NORSRAM_Init
  22              		.syntax unified
  23              		.thumb
  24              		.thumb_func
  26              	FMC_NORSRAM_Init:
  27              	.LVL0:
  28              	.LFB144:
   1:../../Drivers/STM32H7xx_HAL_Driver/Src/stm32h7xx_ll_fmc.c **** /**
   2:../../Drivers/STM32H7xx_HAL_Driver/Src/stm32h7xx_ll_fmc.c ****   ******************************************************************************
   3:../../Drivers/STM32H7xx_HAL_Driver/Src/stm32h7xx_ll_fmc.c ****   * @file    stm32h7xx_ll_fmc.c
   4:../../Drivers/STM32H7xx_HAL_Driver/Src/stm32h7xx_ll_fmc.c ****   * @author  MCD Application Team
   5:../../Drivers/STM32H7xx_HAL_Driver/Src/stm32h7xx_ll_fmc.c ****   * @brief   FMC Low Layer HAL module driver.
   6:../../Drivers/STM32H7xx_HAL_Driver/Src/stm32h7xx_ll_fmc.c ****   *
   7:../../Drivers/STM32H7xx_HAL_Driver/Src/stm32h7xx_ll_fmc.c ****   *          This file provides firmware functions to manage the following
   8:../../Drivers/STM32H7xx_HAL_Driver/Src/stm32h7xx_ll_fmc.c ****   *          functionalities of the Flexible Memory Controller (FMC) peripheral memories:
   9:../../Drivers/STM32H7xx_HAL_Driver/Src/stm32h7xx_ll_fmc.c ****   *           + Initialization/de-initialization functions
  10:../../Drivers/STM32H7xx_HAL_Driver/Src/stm32h7xx_ll_fmc.c ****   *           + Peripheral Control functions
  11:../../Drivers/STM32H7xx_HAL_Driver/Src/stm32h7xx_ll_fmc.c ****   *           + Peripheral State functions
  12:../../Drivers/STM32H7xx_HAL_Driver/Src/stm32h7xx_ll_fmc.c ****   *
  13:../../Drivers/STM32H7xx_HAL_Driver/Src/stm32h7xx_ll_fmc.c ****   ******************************************************************************
  14:../../Drivers/STM32H7xx_HAL_Driver/Src/stm32h7xx_ll_fmc.c ****   * @attention
  15:../../Drivers/STM32H7xx_HAL_Driver/Src/stm32h7xx_ll_fmc.c ****   *
  16:../../Drivers/STM32H7xx_HAL_Driver/Src/stm32h7xx_ll_fmc.c ****   * Copyright (c) 2017 STMicroelectronics.
  17:../../Drivers/STM32H7xx_HAL_Driver/Src/stm32h7xx_ll_fmc.c ****   * All rights reserved.
  18:../../Drivers/STM32H7xx_HAL_Driver/Src/stm32h7xx_ll_fmc.c ****   *
  19:../../Drivers/STM32H7xx_HAL_Driver/Src/stm32h7xx_ll_fmc.c ****   * This software is licensed under terms that can be found in the LICENSE file
  20:../../Drivers/STM32H7xx_HAL_Driver/Src/stm32h7xx_ll_fmc.c ****   * in the root directory of this software component.
  21:../../Drivers/STM32H7xx_HAL_Driver/Src/stm32h7xx_ll_fmc.c ****   * If no LICENSE file comes with this software, it is provided AS-IS.
  22:../../Drivers/STM32H7xx_HAL_Driver/Src/stm32h7xx_ll_fmc.c ****   *
  23:../../Drivers/STM32H7xx_HAL_Driver/Src/stm32h7xx_ll_fmc.c ****   ******************************************************************************
  24:../../Drivers/STM32H7xx_HAL_Driver/Src/stm32h7xx_ll_fmc.c ****   @verbatim
  25:../../Drivers/STM32H7xx_HAL_Driver/Src/stm32h7xx_ll_fmc.c ****   ==============================================================================
  26:../../Drivers/STM32H7xx_HAL_Driver/Src/stm32h7xx_ll_fmc.c ****                         ##### FMC peripheral features #####
  27:../../Drivers/STM32H7xx_HAL_Driver/Src/stm32h7xx_ll_fmc.c ****   ==============================================================================
  28:../../Drivers/STM32H7xx_HAL_Driver/Src/stm32h7xx_ll_fmc.c ****   [..] The Flexible memory controller (FMC) includes following memory controllers:
  29:../../Drivers/STM32H7xx_HAL_Driver/Src/stm32h7xx_ll_fmc.c ****        (+) The NOR/PSRAM memory controller
  30:../../Drivers/STM32H7xx_HAL_Driver/Src/stm32h7xx_ll_fmc.c ****      (+) The NAND memory controller
ARM GAS  C:\Users\28576\AppData\Local\Temp\ccYw9wfC.s 			page 2


  31:../../Drivers/STM32H7xx_HAL_Driver/Src/stm32h7xx_ll_fmc.c ****        (+) The Synchronous DRAM (SDRAM) controller
  32:../../Drivers/STM32H7xx_HAL_Driver/Src/stm32h7xx_ll_fmc.c **** 
  33:../../Drivers/STM32H7xx_HAL_Driver/Src/stm32h7xx_ll_fmc.c ****   [..] The FMC functional block makes the interface with synchronous and asynchronous static
  34:../../Drivers/STM32H7xx_HAL_Driver/Src/stm32h7xx_ll_fmc.c ****        memories and SDRAM memories. Its main purposes are:
  35:../../Drivers/STM32H7xx_HAL_Driver/Src/stm32h7xx_ll_fmc.c ****        (+) to translate AHB transactions into the appropriate external device protocol
  36:../../Drivers/STM32H7xx_HAL_Driver/Src/stm32h7xx_ll_fmc.c ****        (+) to meet the access time requirements of the external memory devices
  37:../../Drivers/STM32H7xx_HAL_Driver/Src/stm32h7xx_ll_fmc.c **** 
  38:../../Drivers/STM32H7xx_HAL_Driver/Src/stm32h7xx_ll_fmc.c ****   [..] All external memories share the addresses, data and control signals with the controller.
  39:../../Drivers/STM32H7xx_HAL_Driver/Src/stm32h7xx_ll_fmc.c ****        Each external device is accessed by means of a unique Chip Select. The FMC performs
  40:../../Drivers/STM32H7xx_HAL_Driver/Src/stm32h7xx_ll_fmc.c ****        only one access at a time to an external device.
  41:../../Drivers/STM32H7xx_HAL_Driver/Src/stm32h7xx_ll_fmc.c ****        The main features of the FMC controller are the following:
  42:../../Drivers/STM32H7xx_HAL_Driver/Src/stm32h7xx_ll_fmc.c ****         (+) Interface with static-memory mapped devices including:
  43:../../Drivers/STM32H7xx_HAL_Driver/Src/stm32h7xx_ll_fmc.c ****            (++) Static random access memory (SRAM)
  44:../../Drivers/STM32H7xx_HAL_Driver/Src/stm32h7xx_ll_fmc.c ****            (++) Read-only memory (ROM)
  45:../../Drivers/STM32H7xx_HAL_Driver/Src/stm32h7xx_ll_fmc.c ****            (++) NOR Flash memory/OneNAND Flash memory
  46:../../Drivers/STM32H7xx_HAL_Driver/Src/stm32h7xx_ll_fmc.c ****            (++) PSRAM (4 memory banks)
  47:../../Drivers/STM32H7xx_HAL_Driver/Src/stm32h7xx_ll_fmc.c ****            (++) Two banks of NAND Flash memory with ECC hardware to check up to 8 Kbytes of
  48:../../Drivers/STM32H7xx_HAL_Driver/Src/stm32h7xx_ll_fmc.c ****                 data
  49:../../Drivers/STM32H7xx_HAL_Driver/Src/stm32h7xx_ll_fmc.c ****         (+) Interface with synchronous DRAM (SDRAM) memories
  50:../../Drivers/STM32H7xx_HAL_Driver/Src/stm32h7xx_ll_fmc.c ****         (+) Independent Chip Select control for each memory bank
  51:../../Drivers/STM32H7xx_HAL_Driver/Src/stm32h7xx_ll_fmc.c ****         (+) Independent configuration for each memory bank
  52:../../Drivers/STM32H7xx_HAL_Driver/Src/stm32h7xx_ll_fmc.c **** 
  53:../../Drivers/STM32H7xx_HAL_Driver/Src/stm32h7xx_ll_fmc.c ****   @endverbatim
  54:../../Drivers/STM32H7xx_HAL_Driver/Src/stm32h7xx_ll_fmc.c ****   ******************************************************************************
  55:../../Drivers/STM32H7xx_HAL_Driver/Src/stm32h7xx_ll_fmc.c ****   */
  56:../../Drivers/STM32H7xx_HAL_Driver/Src/stm32h7xx_ll_fmc.c **** 
  57:../../Drivers/STM32H7xx_HAL_Driver/Src/stm32h7xx_ll_fmc.c **** /* Includes ------------------------------------------------------------------*/
  58:../../Drivers/STM32H7xx_HAL_Driver/Src/stm32h7xx_ll_fmc.c **** #include "stm32h7xx_hal.h"
  59:../../Drivers/STM32H7xx_HAL_Driver/Src/stm32h7xx_ll_fmc.c **** 
  60:../../Drivers/STM32H7xx_HAL_Driver/Src/stm32h7xx_ll_fmc.c **** /** @addtogroup STM32H7xx_HAL_Driver
  61:../../Drivers/STM32H7xx_HAL_Driver/Src/stm32h7xx_ll_fmc.c ****   * @{
  62:../../Drivers/STM32H7xx_HAL_Driver/Src/stm32h7xx_ll_fmc.c ****   */
  63:../../Drivers/STM32H7xx_HAL_Driver/Src/stm32h7xx_ll_fmc.c **** #if defined(HAL_NOR_MODULE_ENABLED) || defined(HAL_NAND_MODULE_ENABLED) || defined(HAL_SDRAM_MODULE
  64:../../Drivers/STM32H7xx_HAL_Driver/Src/stm32h7xx_ll_fmc.c ****  || defined(HAL_SRAM_MODULE_ENABLED)
  65:../../Drivers/STM32H7xx_HAL_Driver/Src/stm32h7xx_ll_fmc.c **** 
  66:../../Drivers/STM32H7xx_HAL_Driver/Src/stm32h7xx_ll_fmc.c **** /** @defgroup FMC_LL  FMC Low Layer
  67:../../Drivers/STM32H7xx_HAL_Driver/Src/stm32h7xx_ll_fmc.c ****   * @brief FMC driver modules
  68:../../Drivers/STM32H7xx_HAL_Driver/Src/stm32h7xx_ll_fmc.c ****   * @{
  69:../../Drivers/STM32H7xx_HAL_Driver/Src/stm32h7xx_ll_fmc.c ****   */
  70:../../Drivers/STM32H7xx_HAL_Driver/Src/stm32h7xx_ll_fmc.c **** 
  71:../../Drivers/STM32H7xx_HAL_Driver/Src/stm32h7xx_ll_fmc.c **** /* Private typedef -----------------------------------------------------------*/
  72:../../Drivers/STM32H7xx_HAL_Driver/Src/stm32h7xx_ll_fmc.c **** /* Private define ------------------------------------------------------------*/
  73:../../Drivers/STM32H7xx_HAL_Driver/Src/stm32h7xx_ll_fmc.c **** 
  74:../../Drivers/STM32H7xx_HAL_Driver/Src/stm32h7xx_ll_fmc.c **** /** @defgroup FMC_LL_Private_Constants FMC Low Layer Private Constants
  75:../../Drivers/STM32H7xx_HAL_Driver/Src/stm32h7xx_ll_fmc.c ****   * @{
  76:../../Drivers/STM32H7xx_HAL_Driver/Src/stm32h7xx_ll_fmc.c ****   */
  77:../../Drivers/STM32H7xx_HAL_Driver/Src/stm32h7xx_ll_fmc.c **** 
  78:../../Drivers/STM32H7xx_HAL_Driver/Src/stm32h7xx_ll_fmc.c **** /* ----------------------- FMC registers bit mask --------------------------- */
  79:../../Drivers/STM32H7xx_HAL_Driver/Src/stm32h7xx_ll_fmc.c **** 
  80:../../Drivers/STM32H7xx_HAL_Driver/Src/stm32h7xx_ll_fmc.c **** /* --- BCR Register ---*/
  81:../../Drivers/STM32H7xx_HAL_Driver/Src/stm32h7xx_ll_fmc.c **** /* BCR register clear mask */
  82:../../Drivers/STM32H7xx_HAL_Driver/Src/stm32h7xx_ll_fmc.c **** 
  83:../../Drivers/STM32H7xx_HAL_Driver/Src/stm32h7xx_ll_fmc.c **** /* --- BTR Register ---*/
  84:../../Drivers/STM32H7xx_HAL_Driver/Src/stm32h7xx_ll_fmc.c **** /* BTR register clear mask */
  85:../../Drivers/STM32H7xx_HAL_Driver/Src/stm32h7xx_ll_fmc.c **** #define BTR_CLEAR_MASK    ((uint32_t)(FMC_BTRx_ADDSET | FMC_BTRx_ADDHLD  |\
  86:../../Drivers/STM32H7xx_HAL_Driver/Src/stm32h7xx_ll_fmc.c ****                                       FMC_BTRx_DATAST | FMC_BTRx_BUSTURN |\
  87:../../Drivers/STM32H7xx_HAL_Driver/Src/stm32h7xx_ll_fmc.c ****                                       FMC_BTRx_CLKDIV | FMC_BTRx_DATLAT  |\
ARM GAS  C:\Users\28576\AppData\Local\Temp\ccYw9wfC.s 			page 3


  88:../../Drivers/STM32H7xx_HAL_Driver/Src/stm32h7xx_ll_fmc.c ****                                       FMC_BTRx_ACCMOD))
  89:../../Drivers/STM32H7xx_HAL_Driver/Src/stm32h7xx_ll_fmc.c **** 
  90:../../Drivers/STM32H7xx_HAL_Driver/Src/stm32h7xx_ll_fmc.c **** /* --- BWTR Register ---*/
  91:../../Drivers/STM32H7xx_HAL_Driver/Src/stm32h7xx_ll_fmc.c **** /* BWTR register clear mask */
  92:../../Drivers/STM32H7xx_HAL_Driver/Src/stm32h7xx_ll_fmc.c **** #define BWTR_CLEAR_MASK   ((uint32_t)(FMC_BWTRx_ADDSET | FMC_BWTRx_ADDHLD  |\
  93:../../Drivers/STM32H7xx_HAL_Driver/Src/stm32h7xx_ll_fmc.c ****                                       FMC_BWTRx_DATAST | FMC_BWTRx_BUSTURN |\
  94:../../Drivers/STM32H7xx_HAL_Driver/Src/stm32h7xx_ll_fmc.c ****                                       FMC_BWTRx_ACCMOD))
  95:../../Drivers/STM32H7xx_HAL_Driver/Src/stm32h7xx_ll_fmc.c **** 
  96:../../Drivers/STM32H7xx_HAL_Driver/Src/stm32h7xx_ll_fmc.c **** /* --- PCR Register ---*/
  97:../../Drivers/STM32H7xx_HAL_Driver/Src/stm32h7xx_ll_fmc.c **** /* PCR register clear mask */
  98:../../Drivers/STM32H7xx_HAL_Driver/Src/stm32h7xx_ll_fmc.c **** #define PCR_CLEAR_MASK    ((uint32_t)(FMC_PCR_PWAITEN | FMC_PCR_PBKEN  | \
  99:../../Drivers/STM32H7xx_HAL_Driver/Src/stm32h7xx_ll_fmc.c ****                                       FMC_PCR_PWID    | FMC_PCR_ECCEN  | \
 100:../../Drivers/STM32H7xx_HAL_Driver/Src/stm32h7xx_ll_fmc.c ****                                       FMC_PCR_TCLR    | FMC_PCR_TAR    | \
 101:../../Drivers/STM32H7xx_HAL_Driver/Src/stm32h7xx_ll_fmc.c ****                                       FMC_PCR_ECCPS))
 102:../../Drivers/STM32H7xx_HAL_Driver/Src/stm32h7xx_ll_fmc.c **** /* --- PMEM Register ---*/
 103:../../Drivers/STM32H7xx_HAL_Driver/Src/stm32h7xx_ll_fmc.c **** /* PMEM register clear mask */
 104:../../Drivers/STM32H7xx_HAL_Driver/Src/stm32h7xx_ll_fmc.c **** #define PMEM_CLEAR_MASK   ((uint32_t)(FMC_PMEM_MEMSET  | FMC_PMEM_MEMWAIT |\
 105:../../Drivers/STM32H7xx_HAL_Driver/Src/stm32h7xx_ll_fmc.c ****                                       FMC_PMEM_MEMHOLD | FMC_PMEM_MEMHIZ))
 106:../../Drivers/STM32H7xx_HAL_Driver/Src/stm32h7xx_ll_fmc.c **** 
 107:../../Drivers/STM32H7xx_HAL_Driver/Src/stm32h7xx_ll_fmc.c **** /* --- PATT Register ---*/
 108:../../Drivers/STM32H7xx_HAL_Driver/Src/stm32h7xx_ll_fmc.c **** /* PATT register clear mask */
 109:../../Drivers/STM32H7xx_HAL_Driver/Src/stm32h7xx_ll_fmc.c **** #define PATT_CLEAR_MASK   ((uint32_t)(FMC_PATT_ATTSET  | FMC_PATT_ATTWAIT |\
 110:../../Drivers/STM32H7xx_HAL_Driver/Src/stm32h7xx_ll_fmc.c ****                                       FMC_PATT_ATTHOLD | FMC_PATT_ATTHIZ))
 111:../../Drivers/STM32H7xx_HAL_Driver/Src/stm32h7xx_ll_fmc.c **** 
 112:../../Drivers/STM32H7xx_HAL_Driver/Src/stm32h7xx_ll_fmc.c **** 
 113:../../Drivers/STM32H7xx_HAL_Driver/Src/stm32h7xx_ll_fmc.c **** /* --- SDCR Register ---*/
 114:../../Drivers/STM32H7xx_HAL_Driver/Src/stm32h7xx_ll_fmc.c **** /* SDCR register clear mask */
 115:../../Drivers/STM32H7xx_HAL_Driver/Src/stm32h7xx_ll_fmc.c **** #define SDCR_CLEAR_MASK   ((uint32_t)(FMC_SDCRx_NC    | FMC_SDCRx_NR     | \
 116:../../Drivers/STM32H7xx_HAL_Driver/Src/stm32h7xx_ll_fmc.c ****                                       FMC_SDCRx_MWID  | FMC_SDCRx_NB     | \
 117:../../Drivers/STM32H7xx_HAL_Driver/Src/stm32h7xx_ll_fmc.c ****                                       FMC_SDCRx_CAS   | FMC_SDCRx_WP     | \
 118:../../Drivers/STM32H7xx_HAL_Driver/Src/stm32h7xx_ll_fmc.c ****                                       FMC_SDCRx_SDCLK | FMC_SDCRx_RBURST | \
 119:../../Drivers/STM32H7xx_HAL_Driver/Src/stm32h7xx_ll_fmc.c ****                                       FMC_SDCRx_RPIPE))
 120:../../Drivers/STM32H7xx_HAL_Driver/Src/stm32h7xx_ll_fmc.c **** 
 121:../../Drivers/STM32H7xx_HAL_Driver/Src/stm32h7xx_ll_fmc.c **** /* --- SDTR Register ---*/
 122:../../Drivers/STM32H7xx_HAL_Driver/Src/stm32h7xx_ll_fmc.c **** /* SDTR register clear mask */
 123:../../Drivers/STM32H7xx_HAL_Driver/Src/stm32h7xx_ll_fmc.c **** #define SDTR_CLEAR_MASK   ((uint32_t)(FMC_SDTRx_TMRD  | FMC_SDTRx_TXSR   | \
 124:../../Drivers/STM32H7xx_HAL_Driver/Src/stm32h7xx_ll_fmc.c ****                                       FMC_SDTRx_TRAS  | FMC_SDTRx_TRC    | \
 125:../../Drivers/STM32H7xx_HAL_Driver/Src/stm32h7xx_ll_fmc.c ****                                       FMC_SDTRx_TWR   | FMC_SDTRx_TRP    | \
 126:../../Drivers/STM32H7xx_HAL_Driver/Src/stm32h7xx_ll_fmc.c ****                                       FMC_SDTRx_TRCD))
 127:../../Drivers/STM32H7xx_HAL_Driver/Src/stm32h7xx_ll_fmc.c **** 
 128:../../Drivers/STM32H7xx_HAL_Driver/Src/stm32h7xx_ll_fmc.c **** /**
 129:../../Drivers/STM32H7xx_HAL_Driver/Src/stm32h7xx_ll_fmc.c ****   * @}
 130:../../Drivers/STM32H7xx_HAL_Driver/Src/stm32h7xx_ll_fmc.c ****   */
 131:../../Drivers/STM32H7xx_HAL_Driver/Src/stm32h7xx_ll_fmc.c **** 
 132:../../Drivers/STM32H7xx_HAL_Driver/Src/stm32h7xx_ll_fmc.c **** /* Private macro -------------------------------------------------------------*/
 133:../../Drivers/STM32H7xx_HAL_Driver/Src/stm32h7xx_ll_fmc.c **** /* Private variables ---------------------------------------------------------*/
 134:../../Drivers/STM32H7xx_HAL_Driver/Src/stm32h7xx_ll_fmc.c **** /* Private function prototypes -----------------------------------------------*/
 135:../../Drivers/STM32H7xx_HAL_Driver/Src/stm32h7xx_ll_fmc.c **** /* Exported functions --------------------------------------------------------*/
 136:../../Drivers/STM32H7xx_HAL_Driver/Src/stm32h7xx_ll_fmc.c **** 
 137:../../Drivers/STM32H7xx_HAL_Driver/Src/stm32h7xx_ll_fmc.c **** /** @defgroup FMC_LL_Exported_Functions FMC Low Layer Exported Functions
 138:../../Drivers/STM32H7xx_HAL_Driver/Src/stm32h7xx_ll_fmc.c ****   * @{
 139:../../Drivers/STM32H7xx_HAL_Driver/Src/stm32h7xx_ll_fmc.c ****   */
 140:../../Drivers/STM32H7xx_HAL_Driver/Src/stm32h7xx_ll_fmc.c **** 
 141:../../Drivers/STM32H7xx_HAL_Driver/Src/stm32h7xx_ll_fmc.c **** 
 142:../../Drivers/STM32H7xx_HAL_Driver/Src/stm32h7xx_ll_fmc.c **** /** @defgroup FMC_LL_Exported_Functions_NORSRAM FMC Low Layer NOR SRAM Exported Functions
 143:../../Drivers/STM32H7xx_HAL_Driver/Src/stm32h7xx_ll_fmc.c ****   * @brief  NORSRAM Controller functions
 144:../../Drivers/STM32H7xx_HAL_Driver/Src/stm32h7xx_ll_fmc.c ****   *
ARM GAS  C:\Users\28576\AppData\Local\Temp\ccYw9wfC.s 			page 4


 145:../../Drivers/STM32H7xx_HAL_Driver/Src/stm32h7xx_ll_fmc.c ****   @verbatim
 146:../../Drivers/STM32H7xx_HAL_Driver/Src/stm32h7xx_ll_fmc.c ****   ==============================================================================
 147:../../Drivers/STM32H7xx_HAL_Driver/Src/stm32h7xx_ll_fmc.c ****                    ##### How to use NORSRAM device driver #####
 148:../../Drivers/STM32H7xx_HAL_Driver/Src/stm32h7xx_ll_fmc.c ****   ==============================================================================
 149:../../Drivers/STM32H7xx_HAL_Driver/Src/stm32h7xx_ll_fmc.c **** 
 150:../../Drivers/STM32H7xx_HAL_Driver/Src/stm32h7xx_ll_fmc.c ****   [..]
 151:../../Drivers/STM32H7xx_HAL_Driver/Src/stm32h7xx_ll_fmc.c ****     This driver contains a set of APIs to interface with the FMC NORSRAM banks in order
 152:../../Drivers/STM32H7xx_HAL_Driver/Src/stm32h7xx_ll_fmc.c ****     to run the NORSRAM external devices.
 153:../../Drivers/STM32H7xx_HAL_Driver/Src/stm32h7xx_ll_fmc.c **** 
 154:../../Drivers/STM32H7xx_HAL_Driver/Src/stm32h7xx_ll_fmc.c ****     (+) FMC NORSRAM bank reset using the function FMC_NORSRAM_DeInit()
 155:../../Drivers/STM32H7xx_HAL_Driver/Src/stm32h7xx_ll_fmc.c ****     (+) FMC NORSRAM bank control configuration using the function FMC_NORSRAM_Init()
 156:../../Drivers/STM32H7xx_HAL_Driver/Src/stm32h7xx_ll_fmc.c ****     (+) FMC NORSRAM bank timing configuration using the function FMC_NORSRAM_Timing_Init()
 157:../../Drivers/STM32H7xx_HAL_Driver/Src/stm32h7xx_ll_fmc.c ****     (+) FMC NORSRAM bank extended timing configuration using the function
 158:../../Drivers/STM32H7xx_HAL_Driver/Src/stm32h7xx_ll_fmc.c ****         FMC_NORSRAM_Extended_Timing_Init()
 159:../../Drivers/STM32H7xx_HAL_Driver/Src/stm32h7xx_ll_fmc.c ****     (+) FMC NORSRAM bank enable/disable write operation using the functions
 160:../../Drivers/STM32H7xx_HAL_Driver/Src/stm32h7xx_ll_fmc.c ****         FMC_NORSRAM_WriteOperation_Enable()/FMC_NORSRAM_WriteOperation_Disable()
 161:../../Drivers/STM32H7xx_HAL_Driver/Src/stm32h7xx_ll_fmc.c **** 
 162:../../Drivers/STM32H7xx_HAL_Driver/Src/stm32h7xx_ll_fmc.c **** @endverbatim
 163:../../Drivers/STM32H7xx_HAL_Driver/Src/stm32h7xx_ll_fmc.c ****   * @{
 164:../../Drivers/STM32H7xx_HAL_Driver/Src/stm32h7xx_ll_fmc.c ****   */
 165:../../Drivers/STM32H7xx_HAL_Driver/Src/stm32h7xx_ll_fmc.c **** 
 166:../../Drivers/STM32H7xx_HAL_Driver/Src/stm32h7xx_ll_fmc.c **** /** @defgroup FMC_LL_NORSRAM_Exported_Functions_Group1 Initialization and de-initialization functio
 167:../../Drivers/STM32H7xx_HAL_Driver/Src/stm32h7xx_ll_fmc.c ****   * @brief    Initialization and Configuration functions
 168:../../Drivers/STM32H7xx_HAL_Driver/Src/stm32h7xx_ll_fmc.c ****   *
 169:../../Drivers/STM32H7xx_HAL_Driver/Src/stm32h7xx_ll_fmc.c ****   @verbatim
 170:../../Drivers/STM32H7xx_HAL_Driver/Src/stm32h7xx_ll_fmc.c ****   ==============================================================================
 171:../../Drivers/STM32H7xx_HAL_Driver/Src/stm32h7xx_ll_fmc.c ****               ##### Initialization and de_initialization functions #####
 172:../../Drivers/STM32H7xx_HAL_Driver/Src/stm32h7xx_ll_fmc.c ****   ==============================================================================
 173:../../Drivers/STM32H7xx_HAL_Driver/Src/stm32h7xx_ll_fmc.c ****   [..]
 174:../../Drivers/STM32H7xx_HAL_Driver/Src/stm32h7xx_ll_fmc.c ****     This section provides functions allowing to:
 175:../../Drivers/STM32H7xx_HAL_Driver/Src/stm32h7xx_ll_fmc.c ****     (+) Initialize and configure the FMC NORSRAM interface
 176:../../Drivers/STM32H7xx_HAL_Driver/Src/stm32h7xx_ll_fmc.c ****     (+) De-initialize the FMC NORSRAM interface
 177:../../Drivers/STM32H7xx_HAL_Driver/Src/stm32h7xx_ll_fmc.c ****     (+) Configure the FMC clock and associated GPIOs
 178:../../Drivers/STM32H7xx_HAL_Driver/Src/stm32h7xx_ll_fmc.c **** 
 179:../../Drivers/STM32H7xx_HAL_Driver/Src/stm32h7xx_ll_fmc.c **** @endverbatim
 180:../../Drivers/STM32H7xx_HAL_Driver/Src/stm32h7xx_ll_fmc.c ****   * @{
 181:../../Drivers/STM32H7xx_HAL_Driver/Src/stm32h7xx_ll_fmc.c ****   */
 182:../../Drivers/STM32H7xx_HAL_Driver/Src/stm32h7xx_ll_fmc.c **** 
 183:../../Drivers/STM32H7xx_HAL_Driver/Src/stm32h7xx_ll_fmc.c **** /**
 184:../../Drivers/STM32H7xx_HAL_Driver/Src/stm32h7xx_ll_fmc.c ****   * @brief  Initialize the FMC_NORSRAM device according to the specified
 185:../../Drivers/STM32H7xx_HAL_Driver/Src/stm32h7xx_ll_fmc.c ****   *         control parameters in the FMC_NORSRAM_InitTypeDef
 186:../../Drivers/STM32H7xx_HAL_Driver/Src/stm32h7xx_ll_fmc.c ****   * @param  Device Pointer to NORSRAM device instance
 187:../../Drivers/STM32H7xx_HAL_Driver/Src/stm32h7xx_ll_fmc.c ****   * @param  Init Pointer to NORSRAM Initialization structure
 188:../../Drivers/STM32H7xx_HAL_Driver/Src/stm32h7xx_ll_fmc.c ****   * @retval HAL status
 189:../../Drivers/STM32H7xx_HAL_Driver/Src/stm32h7xx_ll_fmc.c ****   */
 190:../../Drivers/STM32H7xx_HAL_Driver/Src/stm32h7xx_ll_fmc.c **** HAL_StatusTypeDef  FMC_NORSRAM_Init(FMC_NORSRAM_TypeDef *Device,
 191:../../Drivers/STM32H7xx_HAL_Driver/Src/stm32h7xx_ll_fmc.c ****                                     FMC_NORSRAM_InitTypeDef *Init)
 192:../../Drivers/STM32H7xx_HAL_Driver/Src/stm32h7xx_ll_fmc.c **** {
  29              		.loc 1 192 1 view -0
  30              		.cfi_startproc
  31              		@ args = 0, pretend = 0, frame = 0
  32              		@ frame_needed = 0, uses_anonymous_args = 0
  33              		.loc 1 192 1 is_stmt 0 view .LVU1
  34 0000 00B5     		push	{lr}
  35              	.LCFI0:
  36              		.cfi_def_cfa_offset 4
  37              		.cfi_offset 14, -4
ARM GAS  C:\Users\28576\AppData\Local\Temp\ccYw9wfC.s 			page 5


 193:../../Drivers/STM32H7xx_HAL_Driver/Src/stm32h7xx_ll_fmc.c ****   uint32_t flashaccess;
  38              		.loc 1 193 3 is_stmt 1 view .LVU2
 194:../../Drivers/STM32H7xx_HAL_Driver/Src/stm32h7xx_ll_fmc.c ****   uint32_t btcr_reg;
  39              		.loc 1 194 3 view .LVU3
 195:../../Drivers/STM32H7xx_HAL_Driver/Src/stm32h7xx_ll_fmc.c ****   uint32_t mask;
  40              		.loc 1 195 3 view .LVU4
 196:../../Drivers/STM32H7xx_HAL_Driver/Src/stm32h7xx_ll_fmc.c **** 
 197:../../Drivers/STM32H7xx_HAL_Driver/Src/stm32h7xx_ll_fmc.c ****   /* Check the parameters */
 198:../../Drivers/STM32H7xx_HAL_Driver/Src/stm32h7xx_ll_fmc.c ****   assert_param(IS_FMC_NORSRAM_DEVICE(Device));
  41              		.loc 1 198 3 view .LVU5
 199:../../Drivers/STM32H7xx_HAL_Driver/Src/stm32h7xx_ll_fmc.c ****   assert_param(IS_FMC_NORSRAM_BANK(Init->NSBank));
  42              		.loc 1 199 3 view .LVU6
 200:../../Drivers/STM32H7xx_HAL_Driver/Src/stm32h7xx_ll_fmc.c ****   assert_param(IS_FMC_MUX(Init->DataAddressMux));
  43              		.loc 1 200 3 view .LVU7
 201:../../Drivers/STM32H7xx_HAL_Driver/Src/stm32h7xx_ll_fmc.c ****   assert_param(IS_FMC_MEMORY(Init->MemoryType));
  44              		.loc 1 201 3 view .LVU8
 202:../../Drivers/STM32H7xx_HAL_Driver/Src/stm32h7xx_ll_fmc.c ****   assert_param(IS_FMC_NORSRAM_MEMORY_WIDTH(Init->MemoryDataWidth));
  45              		.loc 1 202 3 view .LVU9
 203:../../Drivers/STM32H7xx_HAL_Driver/Src/stm32h7xx_ll_fmc.c ****   assert_param(IS_FMC_BURSTMODE(Init->BurstAccessMode));
  46              		.loc 1 203 3 view .LVU10
 204:../../Drivers/STM32H7xx_HAL_Driver/Src/stm32h7xx_ll_fmc.c ****   assert_param(IS_FMC_WAIT_POLARITY(Init->WaitSignalPolarity));
  47              		.loc 1 204 3 view .LVU11
 205:../../Drivers/STM32H7xx_HAL_Driver/Src/stm32h7xx_ll_fmc.c ****   assert_param(IS_FMC_WAIT_SIGNAL_ACTIVE(Init->WaitSignalActive));
  48              		.loc 1 205 3 view .LVU12
 206:../../Drivers/STM32H7xx_HAL_Driver/Src/stm32h7xx_ll_fmc.c ****   assert_param(IS_FMC_WRITE_OPERATION(Init->WriteOperation));
  49              		.loc 1 206 3 view .LVU13
 207:../../Drivers/STM32H7xx_HAL_Driver/Src/stm32h7xx_ll_fmc.c ****   assert_param(IS_FMC_WAITE_SIGNAL(Init->WaitSignal));
  50              		.loc 1 207 3 view .LVU14
 208:../../Drivers/STM32H7xx_HAL_Driver/Src/stm32h7xx_ll_fmc.c ****   assert_param(IS_FMC_EXTENDED_MODE(Init->ExtendedMode));
  51              		.loc 1 208 3 view .LVU15
 209:../../Drivers/STM32H7xx_HAL_Driver/Src/stm32h7xx_ll_fmc.c ****   assert_param(IS_FMC_ASYNWAIT(Init->AsynchronousWait));
  52              		.loc 1 209 3 view .LVU16
 210:../../Drivers/STM32H7xx_HAL_Driver/Src/stm32h7xx_ll_fmc.c ****   assert_param(IS_FMC_WRITE_BURST(Init->WriteBurst));
  53              		.loc 1 210 3 view .LVU17
 211:../../Drivers/STM32H7xx_HAL_Driver/Src/stm32h7xx_ll_fmc.c ****   assert_param(IS_FMC_CONTINOUS_CLOCK(Init->ContinuousClock));
  54              		.loc 1 211 3 view .LVU18
 212:../../Drivers/STM32H7xx_HAL_Driver/Src/stm32h7xx_ll_fmc.c ****   assert_param(IS_FMC_WRITE_FIFO(Init->WriteFifo));
  55              		.loc 1 212 3 view .LVU19
 213:../../Drivers/STM32H7xx_HAL_Driver/Src/stm32h7xx_ll_fmc.c ****   assert_param(IS_FMC_PAGESIZE(Init->PageSize));
  56              		.loc 1 213 3 view .LVU20
 214:../../Drivers/STM32H7xx_HAL_Driver/Src/stm32h7xx_ll_fmc.c **** 
 215:../../Drivers/STM32H7xx_HAL_Driver/Src/stm32h7xx_ll_fmc.c ****   /* Disable NORSRAM Device */
 216:../../Drivers/STM32H7xx_HAL_Driver/Src/stm32h7xx_ll_fmc.c ****   __FMC_NORSRAM_DISABLE(Device, Init->NSBank);
  57              		.loc 1 216 3 view .LVU21
  58 0002 0A68     		ldr	r2, [r1]
  59 0004 50F82230 		ldr	r3, [r0, r2, lsl #2]
  60 0008 23F00103 		bic	r3, r3, #1
  61 000c 40F82230 		str	r3, [r0, r2, lsl #2]
 217:../../Drivers/STM32H7xx_HAL_Driver/Src/stm32h7xx_ll_fmc.c **** 
 218:../../Drivers/STM32H7xx_HAL_Driver/Src/stm32h7xx_ll_fmc.c ****   /* Set NORSRAM device control parameters */
 219:../../Drivers/STM32H7xx_HAL_Driver/Src/stm32h7xx_ll_fmc.c ****   if (Init->MemoryType == FMC_MEMORY_TYPE_NOR)
  62              		.loc 1 219 3 view .LVU22
  63              		.loc 1 219 11 is_stmt 0 view .LVU23
  64 0010 8B68     		ldr	r3, [r1, #8]
  65              		.loc 1 219 6 view .LVU24
  66 0012 082B     		cmp	r3, #8
  67 0014 33D0     		beq	.L7
ARM GAS  C:\Users\28576\AppData\Local\Temp\ccYw9wfC.s 			page 6


 220:../../Drivers/STM32H7xx_HAL_Driver/Src/stm32h7xx_ll_fmc.c ****   {
 221:../../Drivers/STM32H7xx_HAL_Driver/Src/stm32h7xx_ll_fmc.c ****     flashaccess = FMC_NORSRAM_FLASH_ACCESS_ENABLE;
 222:../../Drivers/STM32H7xx_HAL_Driver/Src/stm32h7xx_ll_fmc.c ****   }
 223:../../Drivers/STM32H7xx_HAL_Driver/Src/stm32h7xx_ll_fmc.c ****   else
 224:../../Drivers/STM32H7xx_HAL_Driver/Src/stm32h7xx_ll_fmc.c ****   {
 225:../../Drivers/STM32H7xx_HAL_Driver/Src/stm32h7xx_ll_fmc.c ****     flashaccess = FMC_NORSRAM_FLASH_ACCESS_DISABLE;
  68              		.loc 1 225 17 view .LVU25
  69 0016 4FF0000C 		mov	ip, #0
  70              	.L2:
  71              	.LVL1:
 226:../../Drivers/STM32H7xx_HAL_Driver/Src/stm32h7xx_ll_fmc.c ****   }
 227:../../Drivers/STM32H7xx_HAL_Driver/Src/stm32h7xx_ll_fmc.c **** 
 228:../../Drivers/STM32H7xx_HAL_Driver/Src/stm32h7xx_ll_fmc.c ****   btcr_reg = (flashaccess                   | \
  72              		.loc 1 228 3 is_stmt 1 view .LVU26
 229:../../Drivers/STM32H7xx_HAL_Driver/Src/stm32h7xx_ll_fmc.c ****               Init->DataAddressMux          | \
  73              		.loc 1 229 19 is_stmt 0 view .LVU27
  74 001a 4A68     		ldr	r2, [r1, #4]
 228:../../Drivers/STM32H7xx_HAL_Driver/Src/stm32h7xx_ll_fmc.c ****               Init->DataAddressMux          | \
  75              		.loc 1 228 45 view .LVU28
  76 001c 42EA0C02 		orr	r2, r2, ip
  77              		.loc 1 229 45 view .LVU29
  78 0020 1343     		orrs	r3, r3, r2
 230:../../Drivers/STM32H7xx_HAL_Driver/Src/stm32h7xx_ll_fmc.c ****               Init->MemoryType              | \
 231:../../Drivers/STM32H7xx_HAL_Driver/Src/stm32h7xx_ll_fmc.c ****               Init->MemoryDataWidth         | \
  79              		.loc 1 231 19 view .LVU30
  80 0022 CA68     		ldr	r2, [r1, #12]
 230:../../Drivers/STM32H7xx_HAL_Driver/Src/stm32h7xx_ll_fmc.c ****               Init->MemoryType              | \
  81              		.loc 1 230 45 view .LVU31
  82 0024 1343     		orrs	r3, r3, r2
 232:../../Drivers/STM32H7xx_HAL_Driver/Src/stm32h7xx_ll_fmc.c ****               Init->BurstAccessMode         | \
  83              		.loc 1 232 19 view .LVU32
  84 0026 0A69     		ldr	r2, [r1, #16]
 231:../../Drivers/STM32H7xx_HAL_Driver/Src/stm32h7xx_ll_fmc.c ****               Init->BurstAccessMode         | \
  85              		.loc 1 231 45 view .LVU33
  86 0028 1343     		orrs	r3, r3, r2
 233:../../Drivers/STM32H7xx_HAL_Driver/Src/stm32h7xx_ll_fmc.c ****               Init->WaitSignalPolarity      | \
  87              		.loc 1 233 19 view .LVU34
  88 002a 4A69     		ldr	r2, [r1, #20]
 232:../../Drivers/STM32H7xx_HAL_Driver/Src/stm32h7xx_ll_fmc.c ****               Init->BurstAccessMode         | \
  89              		.loc 1 232 45 view .LVU35
  90 002c 1343     		orrs	r3, r3, r2
 234:../../Drivers/STM32H7xx_HAL_Driver/Src/stm32h7xx_ll_fmc.c ****               Init->WaitSignalActive        | \
  91              		.loc 1 234 19 view .LVU36
  92 002e 8A69     		ldr	r2, [r1, #24]
 233:../../Drivers/STM32H7xx_HAL_Driver/Src/stm32h7xx_ll_fmc.c ****               Init->WaitSignalPolarity      | \
  93              		.loc 1 233 45 view .LVU37
  94 0030 1343     		orrs	r3, r3, r2
 235:../../Drivers/STM32H7xx_HAL_Driver/Src/stm32h7xx_ll_fmc.c ****               Init->WriteOperation          | \
  95              		.loc 1 235 19 view .LVU38
  96 0032 CA69     		ldr	r2, [r1, #28]
 234:../../Drivers/STM32H7xx_HAL_Driver/Src/stm32h7xx_ll_fmc.c ****               Init->WaitSignalActive        | \
  97              		.loc 1 234 45 view .LVU39
  98 0034 1343     		orrs	r3, r3, r2
 236:../../Drivers/STM32H7xx_HAL_Driver/Src/stm32h7xx_ll_fmc.c ****               Init->WaitSignal              | \
  99              		.loc 1 236 19 view .LVU40
 100 0036 0A6A     		ldr	r2, [r1, #32]
 235:../../Drivers/STM32H7xx_HAL_Driver/Src/stm32h7xx_ll_fmc.c ****               Init->WriteOperation          | \
ARM GAS  C:\Users\28576\AppData\Local\Temp\ccYw9wfC.s 			page 7


 101              		.loc 1 235 45 view .LVU41
 102 0038 1343     		orrs	r3, r3, r2
 237:../../Drivers/STM32H7xx_HAL_Driver/Src/stm32h7xx_ll_fmc.c ****               Init->ExtendedMode            | \
 103              		.loc 1 237 19 view .LVU42
 104 003a 4A6A     		ldr	r2, [r1, #36]
 236:../../Drivers/STM32H7xx_HAL_Driver/Src/stm32h7xx_ll_fmc.c ****               Init->WaitSignal              | \
 105              		.loc 1 236 45 view .LVU43
 106 003c 1343     		orrs	r3, r3, r2
 238:../../Drivers/STM32H7xx_HAL_Driver/Src/stm32h7xx_ll_fmc.c ****               Init->AsynchronousWait        | \
 107              		.loc 1 238 19 view .LVU44
 108 003e 8A6A     		ldr	r2, [r1, #40]
 237:../../Drivers/STM32H7xx_HAL_Driver/Src/stm32h7xx_ll_fmc.c ****               Init->ExtendedMode            | \
 109              		.loc 1 237 45 view .LVU45
 110 0040 1343     		orrs	r3, r3, r2
 239:../../Drivers/STM32H7xx_HAL_Driver/Src/stm32h7xx_ll_fmc.c ****               Init->WriteBurst);
 111              		.loc 1 239 19 view .LVU46
 112 0042 CA6A     		ldr	r2, [r1, #44]
 228:../../Drivers/STM32H7xx_HAL_Driver/Src/stm32h7xx_ll_fmc.c ****               Init->DataAddressMux          | \
 113              		.loc 1 228 12 view .LVU47
 114 0044 1343     		orrs	r3, r3, r2
 115              	.LVL2:
 240:../../Drivers/STM32H7xx_HAL_Driver/Src/stm32h7xx_ll_fmc.c **** 
 241:../../Drivers/STM32H7xx_HAL_Driver/Src/stm32h7xx_ll_fmc.c ****   btcr_reg |= Init->ContinuousClock;
 116              		.loc 1 241 3 is_stmt 1 view .LVU48
 117              		.loc 1 241 19 is_stmt 0 view .LVU49
 118 0046 0A6B     		ldr	r2, [r1, #48]
 119              		.loc 1 241 12 view .LVU50
 120 0048 1A43     		orrs	r2, r2, r3
 121              	.LVL3:
 242:../../Drivers/STM32H7xx_HAL_Driver/Src/stm32h7xx_ll_fmc.c ****   btcr_reg |= Init->WriteFifo;
 122              		.loc 1 242 3 is_stmt 1 view .LVU51
 123              		.loc 1 242 19 is_stmt 0 view .LVU52
 124 004a 4B6B     		ldr	r3, [r1, #52]
 125              		.loc 1 242 12 view .LVU53
 126 004c 1A43     		orrs	r2, r2, r3
 127              	.LVL4:
 243:../../Drivers/STM32H7xx_HAL_Driver/Src/stm32h7xx_ll_fmc.c ****   btcr_reg |= Init->PageSize;
 128              		.loc 1 243 3 is_stmt 1 view .LVU54
 129              		.loc 1 243 19 is_stmt 0 view .LVU55
 130 004e 8B6B     		ldr	r3, [r1, #56]
 131              		.loc 1 243 12 view .LVU56
 132 0050 1A43     		orrs	r2, r2, r3
 133              	.LVL5:
 244:../../Drivers/STM32H7xx_HAL_Driver/Src/stm32h7xx_ll_fmc.c **** 
 245:../../Drivers/STM32H7xx_HAL_Driver/Src/stm32h7xx_ll_fmc.c ****   mask = (FMC_BCRx_MBKEN                |
 134              		.loc 1 245 3 is_stmt 1 view .LVU57
 246:../../Drivers/STM32H7xx_HAL_Driver/Src/stm32h7xx_ll_fmc.c ****           FMC_BCRx_MUXEN                |
 247:../../Drivers/STM32H7xx_HAL_Driver/Src/stm32h7xx_ll_fmc.c ****           FMC_BCRx_MTYP                 |
 248:../../Drivers/STM32H7xx_HAL_Driver/Src/stm32h7xx_ll_fmc.c ****           FMC_BCRx_MWID                 |
 249:../../Drivers/STM32H7xx_HAL_Driver/Src/stm32h7xx_ll_fmc.c ****           FMC_BCRx_FACCEN               |
 250:../../Drivers/STM32H7xx_HAL_Driver/Src/stm32h7xx_ll_fmc.c ****           FMC_BCRx_BURSTEN              |
 251:../../Drivers/STM32H7xx_HAL_Driver/Src/stm32h7xx_ll_fmc.c ****           FMC_BCRx_WAITPOL              |
 252:../../Drivers/STM32H7xx_HAL_Driver/Src/stm32h7xx_ll_fmc.c ****           FMC_BCRx_WAITCFG              |
 253:../../Drivers/STM32H7xx_HAL_Driver/Src/stm32h7xx_ll_fmc.c ****           FMC_BCRx_WREN                 |
 254:../../Drivers/STM32H7xx_HAL_Driver/Src/stm32h7xx_ll_fmc.c ****           FMC_BCRx_WAITEN               |
 255:../../Drivers/STM32H7xx_HAL_Driver/Src/stm32h7xx_ll_fmc.c ****           FMC_BCRx_EXTMOD               |
 256:../../Drivers/STM32H7xx_HAL_Driver/Src/stm32h7xx_ll_fmc.c ****           FMC_BCRx_ASYNCWAIT            |
ARM GAS  C:\Users\28576\AppData\Local\Temp\ccYw9wfC.s 			page 8


 257:../../Drivers/STM32H7xx_HAL_Driver/Src/stm32h7xx_ll_fmc.c ****           FMC_BCRx_CBURSTRW);
 258:../../Drivers/STM32H7xx_HAL_Driver/Src/stm32h7xx_ll_fmc.c **** 
 259:../../Drivers/STM32H7xx_HAL_Driver/Src/stm32h7xx_ll_fmc.c ****   mask |= FMC_BCR1_CCLKEN;
 135              		.loc 1 259 3 view .LVU58
 260:../../Drivers/STM32H7xx_HAL_Driver/Src/stm32h7xx_ll_fmc.c ****   mask |= FMC_BCR1_WFDIS;
 136              		.loc 1 260 3 view .LVU59
 261:../../Drivers/STM32H7xx_HAL_Driver/Src/stm32h7xx_ll_fmc.c ****   mask |= FMC_BCRx_CPSIZE;
 137              		.loc 1 261 3 view .LVU60
 262:../../Drivers/STM32H7xx_HAL_Driver/Src/stm32h7xx_ll_fmc.c **** 
 263:../../Drivers/STM32H7xx_HAL_Driver/Src/stm32h7xx_ll_fmc.c ****   MODIFY_REG(Device->BTCR[Init->NSBank], mask, btcr_reg);
 138              		.loc 1 263 3 view .LVU61
 139 0052 D1F800C0 		ldr	ip, [r1]
 140              	.LVL6:
 141              		.loc 1 263 3 is_stmt 0 view .LVU62
 142 0056 50F82CE0 		ldr	lr, [r0, ip, lsl #2]
 143 005a 0F4B     		ldr	r3, .L9
 144 005c 0EEA0303 		and	r3, lr, r3
 145 0060 1343     		orrs	r3, r3, r2
 146 0062 40F82C30 		str	r3, [r0, ip, lsl #2]
 264:../../Drivers/STM32H7xx_HAL_Driver/Src/stm32h7xx_ll_fmc.c **** 
 265:../../Drivers/STM32H7xx_HAL_Driver/Src/stm32h7xx_ll_fmc.c ****   /* Configure synchronous mode when Continuous clock is enabled for bank2..4 */
 266:../../Drivers/STM32H7xx_HAL_Driver/Src/stm32h7xx_ll_fmc.c ****   if ((Init->ContinuousClock == FMC_CONTINUOUS_CLOCK_SYNC_ASYNC) && (Init->NSBank != FMC_NORSRAM_BA
 147              		.loc 1 266 3 is_stmt 1 view .LVU63
 148              		.loc 1 266 12 is_stmt 0 view .LVU64
 149 0066 0B6B     		ldr	r3, [r1, #48]
 150              		.loc 1 266 6 view .LVU65
 151 0068 B3F5801F 		cmp	r3, #1048576
 152 006c 0AD0     		beq	.L8
 153              	.LVL7:
 154              	.L3:
 267:../../Drivers/STM32H7xx_HAL_Driver/Src/stm32h7xx_ll_fmc.c ****   {
 268:../../Drivers/STM32H7xx_HAL_Driver/Src/stm32h7xx_ll_fmc.c ****     MODIFY_REG(Device->BTCR[FMC_NORSRAM_BANK1], FMC_BCR1_CCLKEN, Init->ContinuousClock);
 269:../../Drivers/STM32H7xx_HAL_Driver/Src/stm32h7xx_ll_fmc.c ****   }
 270:../../Drivers/STM32H7xx_HAL_Driver/Src/stm32h7xx_ll_fmc.c **** 
 271:../../Drivers/STM32H7xx_HAL_Driver/Src/stm32h7xx_ll_fmc.c ****   if (Init->NSBank != FMC_NORSRAM_BANK1)
 155              		.loc 1 271 3 is_stmt 1 view .LVU66
 156              		.loc 1 271 11 is_stmt 0 view .LVU67
 157 006e 0B68     		ldr	r3, [r1]
 158              		.loc 1 271 6 view .LVU68
 159 0070 1BB1     		cbz	r3, .L4
 272:../../Drivers/STM32H7xx_HAL_Driver/Src/stm32h7xx_ll_fmc.c ****   {
 273:../../Drivers/STM32H7xx_HAL_Driver/Src/stm32h7xx_ll_fmc.c ****     /* Configure Write FIFO mode when Write Fifo is enabled for bank2..4 */
 274:../../Drivers/STM32H7xx_HAL_Driver/Src/stm32h7xx_ll_fmc.c ****     SET_BIT(Device->BTCR[FMC_NORSRAM_BANK1], (uint32_t)(Init->WriteFifo));
 160              		.loc 1 274 5 is_stmt 1 view .LVU69
 161 0072 0368     		ldr	r3, [r0]
 162 0074 4A6B     		ldr	r2, [r1, #52]
 163 0076 1343     		orrs	r3, r3, r2
 164 0078 0360     		str	r3, [r0]
 165              	.L4:
 275:../../Drivers/STM32H7xx_HAL_Driver/Src/stm32h7xx_ll_fmc.c ****   }
 276:../../Drivers/STM32H7xx_HAL_Driver/Src/stm32h7xx_ll_fmc.c **** 
 277:../../Drivers/STM32H7xx_HAL_Driver/Src/stm32h7xx_ll_fmc.c ****   return HAL_OK;
 166              		.loc 1 277 3 view .LVU70
 278:../../Drivers/STM32H7xx_HAL_Driver/Src/stm32h7xx_ll_fmc.c **** }
 167              		.loc 1 278 1 is_stmt 0 view .LVU71
 168 007a 0020     		movs	r0, #0
 169              	.LVL8:
ARM GAS  C:\Users\28576\AppData\Local\Temp\ccYw9wfC.s 			page 9


 170              		.loc 1 278 1 view .LVU72
 171 007c 00BD     		pop	{pc}
 172              	.LVL9:
 173              	.L7:
 221:../../Drivers/STM32H7xx_HAL_Driver/Src/stm32h7xx_ll_fmc.c ****   }
 174              		.loc 1 221 17 view .LVU73
 175 007e 4FF0400C 		mov	ip, #64
 176 0082 CAE7     		b	.L2
 177              	.LVL10:
 178              	.L8:
 266:../../Drivers/STM32H7xx_HAL_Driver/Src/stm32h7xx_ll_fmc.c ****   {
 179              		.loc 1 266 74 discriminator 1 view .LVU74
 180 0084 0A68     		ldr	r2, [r1]
 181              	.LVL11:
 266:../../Drivers/STM32H7xx_HAL_Driver/Src/stm32h7xx_ll_fmc.c ****   {
 182              		.loc 1 266 66 discriminator 1 view .LVU75
 183 0086 002A     		cmp	r2, #0
 184 0088 F1D0     		beq	.L3
 268:../../Drivers/STM32H7xx_HAL_Driver/Src/stm32h7xx_ll_fmc.c ****   }
 185              		.loc 1 268 5 is_stmt 1 view .LVU76
 186 008a 0268     		ldr	r2, [r0]
 187 008c 22F48012 		bic	r2, r2, #1048576
 188 0090 1343     		orrs	r3, r3, r2
 189 0092 0360     		str	r3, [r0]
 190 0094 EBE7     		b	.L3
 191              	.L10:
 192 0096 00BF     		.align	2
 193              	.L9:
 194 0098 8004C0FF 		.word	-4193152
 195              		.cfi_endproc
 196              	.LFE144:
 198              		.section	.text.FMC_NORSRAM_DeInit,"ax",%progbits
 199              		.align	1
 200              		.global	FMC_NORSRAM_DeInit
 201              		.syntax unified
 202              		.thumb
 203              		.thumb_func
 205              	FMC_NORSRAM_DeInit:
 206              	.LVL12:
 207              	.LFB145:
 279:../../Drivers/STM32H7xx_HAL_Driver/Src/stm32h7xx_ll_fmc.c **** 
 280:../../Drivers/STM32H7xx_HAL_Driver/Src/stm32h7xx_ll_fmc.c **** /**
 281:../../Drivers/STM32H7xx_HAL_Driver/Src/stm32h7xx_ll_fmc.c ****   * @brief  DeInitialize the FMC_NORSRAM peripheral
 282:../../Drivers/STM32H7xx_HAL_Driver/Src/stm32h7xx_ll_fmc.c ****   * @param  Device Pointer to NORSRAM device instance
 283:../../Drivers/STM32H7xx_HAL_Driver/Src/stm32h7xx_ll_fmc.c ****   * @param  ExDevice Pointer to NORSRAM extended mode device instance
 284:../../Drivers/STM32H7xx_HAL_Driver/Src/stm32h7xx_ll_fmc.c ****   * @param  Bank NORSRAM bank number
 285:../../Drivers/STM32H7xx_HAL_Driver/Src/stm32h7xx_ll_fmc.c ****   * @retval HAL status
 286:../../Drivers/STM32H7xx_HAL_Driver/Src/stm32h7xx_ll_fmc.c ****   */
 287:../../Drivers/STM32H7xx_HAL_Driver/Src/stm32h7xx_ll_fmc.c **** HAL_StatusTypeDef FMC_NORSRAM_DeInit(FMC_NORSRAM_TypeDef *Device,
 288:../../Drivers/STM32H7xx_HAL_Driver/Src/stm32h7xx_ll_fmc.c ****                                      FMC_NORSRAM_EXTENDED_TypeDef *ExDevice, uint32_t Bank)
 289:../../Drivers/STM32H7xx_HAL_Driver/Src/stm32h7xx_ll_fmc.c **** {
 208              		.loc 1 289 1 view -0
 209              		.cfi_startproc
 210              		@ args = 0, pretend = 0, frame = 0
 211              		@ frame_needed = 0, uses_anonymous_args = 0
 212              		@ link register save eliminated.
 290:../../Drivers/STM32H7xx_HAL_Driver/Src/stm32h7xx_ll_fmc.c ****   /* Check the parameters */
ARM GAS  C:\Users\28576\AppData\Local\Temp\ccYw9wfC.s 			page 10


 291:../../Drivers/STM32H7xx_HAL_Driver/Src/stm32h7xx_ll_fmc.c ****   assert_param(IS_FMC_NORSRAM_DEVICE(Device));
 213              		.loc 1 291 3 view .LVU78
 292:../../Drivers/STM32H7xx_HAL_Driver/Src/stm32h7xx_ll_fmc.c ****   assert_param(IS_FMC_NORSRAM_EXTENDED_DEVICE(ExDevice));
 214              		.loc 1 292 3 view .LVU79
 293:../../Drivers/STM32H7xx_HAL_Driver/Src/stm32h7xx_ll_fmc.c ****   assert_param(IS_FMC_NORSRAM_BANK(Bank));
 215              		.loc 1 293 3 view .LVU80
 294:../../Drivers/STM32H7xx_HAL_Driver/Src/stm32h7xx_ll_fmc.c **** 
 295:../../Drivers/STM32H7xx_HAL_Driver/Src/stm32h7xx_ll_fmc.c ****   /* Disable the FMC_NORSRAM device */
 296:../../Drivers/STM32H7xx_HAL_Driver/Src/stm32h7xx_ll_fmc.c ****   __FMC_NORSRAM_DISABLE(Device, Bank);
 216              		.loc 1 296 3 view .LVU81
 217 0000 50F82230 		ldr	r3, [r0, r2, lsl #2]
 218 0004 23F00103 		bic	r3, r3, #1
 219 0008 40F82230 		str	r3, [r0, r2, lsl #2]
 297:../../Drivers/STM32H7xx_HAL_Driver/Src/stm32h7xx_ll_fmc.c **** 
 298:../../Drivers/STM32H7xx_HAL_Driver/Src/stm32h7xx_ll_fmc.c ****   /* De-initialize the FMC_NORSRAM device */
 299:../../Drivers/STM32H7xx_HAL_Driver/Src/stm32h7xx_ll_fmc.c ****   /* FMC_NORSRAM_BANK1 */
 300:../../Drivers/STM32H7xx_HAL_Driver/Src/stm32h7xx_ll_fmc.c ****   if (Bank == FMC_NORSRAM_BANK1)
 220              		.loc 1 300 3 view .LVU82
 221              		.loc 1 300 6 is_stmt 0 view .LVU83
 222 000c 6AB9     		cbnz	r2, .L12
 301:../../Drivers/STM32H7xx_HAL_Driver/Src/stm32h7xx_ll_fmc.c ****   {
 302:../../Drivers/STM32H7xx_HAL_Driver/Src/stm32h7xx_ll_fmc.c ****     Device->BTCR[Bank] = 0x000030DBU;
 223              		.loc 1 302 5 is_stmt 1 view .LVU84
 224              		.loc 1 302 24 is_stmt 0 view .LVU85
 225 000e 43F2DB03 		movw	r3, #12507
 226 0012 40F82230 		str	r3, [r0, r2, lsl #2]
 227              	.L13:
 303:../../Drivers/STM32H7xx_HAL_Driver/Src/stm32h7xx_ll_fmc.c ****   }
 304:../../Drivers/STM32H7xx_HAL_Driver/Src/stm32h7xx_ll_fmc.c ****   /* FMC_NORSRAM_BANK2, FMC_NORSRAM_BANK3 or FMC_NORSRAM_BANK4 */
 305:../../Drivers/STM32H7xx_HAL_Driver/Src/stm32h7xx_ll_fmc.c ****   else
 306:../../Drivers/STM32H7xx_HAL_Driver/Src/stm32h7xx_ll_fmc.c ****   {
 307:../../Drivers/STM32H7xx_HAL_Driver/Src/stm32h7xx_ll_fmc.c ****     Device->BTCR[Bank] = 0x000030D2U;
 308:../../Drivers/STM32H7xx_HAL_Driver/Src/stm32h7xx_ll_fmc.c ****   }
 309:../../Drivers/STM32H7xx_HAL_Driver/Src/stm32h7xx_ll_fmc.c **** 
 310:../../Drivers/STM32H7xx_HAL_Driver/Src/stm32h7xx_ll_fmc.c ****   Device->BTCR[Bank + 1U] = 0x0FFFFFFFU;
 228              		.loc 1 310 3 is_stmt 1 view .LVU86
 229              		.loc 1 310 21 is_stmt 0 view .LVU87
 230 0016 02F1010C 		add	ip, r2, #1
 231              		.loc 1 310 27 view .LVU88
 232 001a 6FF07043 		mvn	r3, #-268435456
 233 001e 40F82C30 		str	r3, [r0, ip, lsl #2]
 311:../../Drivers/STM32H7xx_HAL_Driver/Src/stm32h7xx_ll_fmc.c ****   ExDevice->BWTR[Bank]   = 0x0FFFFFFFU;
 234              		.loc 1 311 3 is_stmt 1 view .LVU89
 235              		.loc 1 311 26 is_stmt 0 view .LVU90
 236 0022 41F82230 		str	r3, [r1, r2, lsl #2]
 312:../../Drivers/STM32H7xx_HAL_Driver/Src/stm32h7xx_ll_fmc.c **** 
 313:../../Drivers/STM32H7xx_HAL_Driver/Src/stm32h7xx_ll_fmc.c ****   return HAL_OK;
 237              		.loc 1 313 3 is_stmt 1 view .LVU91
 314:../../Drivers/STM32H7xx_HAL_Driver/Src/stm32h7xx_ll_fmc.c **** }
 238              		.loc 1 314 1 is_stmt 0 view .LVU92
 239 0026 0020     		movs	r0, #0
 240              	.LVL13:
 241              		.loc 1 314 1 view .LVU93
 242 0028 7047     		bx	lr
 243              	.LVL14:
 244              	.L12:
 307:../../Drivers/STM32H7xx_HAL_Driver/Src/stm32h7xx_ll_fmc.c ****   }
ARM GAS  C:\Users\28576\AppData\Local\Temp\ccYw9wfC.s 			page 11


 245              		.loc 1 307 5 is_stmt 1 view .LVU94
 307:../../Drivers/STM32H7xx_HAL_Driver/Src/stm32h7xx_ll_fmc.c ****   }
 246              		.loc 1 307 24 is_stmt 0 view .LVU95
 247 002a 43F2D203 		movw	r3, #12498
 248 002e 40F82230 		str	r3, [r0, r2, lsl #2]
 249 0032 F0E7     		b	.L13
 250              		.cfi_endproc
 251              	.LFE145:
 253              		.section	.text.FMC_NORSRAM_Timing_Init,"ax",%progbits
 254              		.align	1
 255              		.global	FMC_NORSRAM_Timing_Init
 256              		.syntax unified
 257              		.thumb
 258              		.thumb_func
 260              	FMC_NORSRAM_Timing_Init:
 261              	.LVL15:
 262              	.LFB146:
 315:../../Drivers/STM32H7xx_HAL_Driver/Src/stm32h7xx_ll_fmc.c **** 
 316:../../Drivers/STM32H7xx_HAL_Driver/Src/stm32h7xx_ll_fmc.c **** /**
 317:../../Drivers/STM32H7xx_HAL_Driver/Src/stm32h7xx_ll_fmc.c ****   * @brief  Initialize the FMC_NORSRAM Timing according to the specified
 318:../../Drivers/STM32H7xx_HAL_Driver/Src/stm32h7xx_ll_fmc.c ****   *         parameters in the FMC_NORSRAM_TimingTypeDef
 319:../../Drivers/STM32H7xx_HAL_Driver/Src/stm32h7xx_ll_fmc.c ****   * @param  Device Pointer to NORSRAM device instance
 320:../../Drivers/STM32H7xx_HAL_Driver/Src/stm32h7xx_ll_fmc.c ****   * @param  Timing Pointer to NORSRAM Timing structure
 321:../../Drivers/STM32H7xx_HAL_Driver/Src/stm32h7xx_ll_fmc.c ****   * @param  Bank NORSRAM bank number
 322:../../Drivers/STM32H7xx_HAL_Driver/Src/stm32h7xx_ll_fmc.c ****   * @retval HAL status
 323:../../Drivers/STM32H7xx_HAL_Driver/Src/stm32h7xx_ll_fmc.c ****   */
 324:../../Drivers/STM32H7xx_HAL_Driver/Src/stm32h7xx_ll_fmc.c **** HAL_StatusTypeDef FMC_NORSRAM_Timing_Init(FMC_NORSRAM_TypeDef *Device,
 325:../../Drivers/STM32H7xx_HAL_Driver/Src/stm32h7xx_ll_fmc.c ****                                           FMC_NORSRAM_TimingTypeDef *Timing, uint32_t Bank)
 326:../../Drivers/STM32H7xx_HAL_Driver/Src/stm32h7xx_ll_fmc.c **** {
 263              		.loc 1 326 1 is_stmt 1 view -0
 264              		.cfi_startproc
 265              		@ args = 0, pretend = 0, frame = 0
 266              		@ frame_needed = 0, uses_anonymous_args = 0
 267              		.loc 1 326 1 is_stmt 0 view .LVU97
 268 0000 10B5     		push	{r4, lr}
 269              	.LCFI1:
 270              		.cfi_def_cfa_offset 8
 271              		.cfi_offset 4, -8
 272              		.cfi_offset 14, -4
 327:../../Drivers/STM32H7xx_HAL_Driver/Src/stm32h7xx_ll_fmc.c ****   uint32_t tmpr;
 273              		.loc 1 327 3 is_stmt 1 view .LVU98
 328:../../Drivers/STM32H7xx_HAL_Driver/Src/stm32h7xx_ll_fmc.c **** 
 329:../../Drivers/STM32H7xx_HAL_Driver/Src/stm32h7xx_ll_fmc.c ****   /* Check the parameters */
 330:../../Drivers/STM32H7xx_HAL_Driver/Src/stm32h7xx_ll_fmc.c ****   assert_param(IS_FMC_NORSRAM_DEVICE(Device));
 274              		.loc 1 330 3 view .LVU99
 331:../../Drivers/STM32H7xx_HAL_Driver/Src/stm32h7xx_ll_fmc.c ****   assert_param(IS_FMC_ADDRESS_SETUP_TIME(Timing->AddressSetupTime));
 275              		.loc 1 331 3 view .LVU100
 332:../../Drivers/STM32H7xx_HAL_Driver/Src/stm32h7xx_ll_fmc.c ****   assert_param(IS_FMC_ADDRESS_HOLD_TIME(Timing->AddressHoldTime));
 276              		.loc 1 332 3 view .LVU101
 333:../../Drivers/STM32H7xx_HAL_Driver/Src/stm32h7xx_ll_fmc.c ****   assert_param(IS_FMC_DATASETUP_TIME(Timing->DataSetupTime));
 277              		.loc 1 333 3 view .LVU102
 334:../../Drivers/STM32H7xx_HAL_Driver/Src/stm32h7xx_ll_fmc.c ****   assert_param(IS_FMC_TURNAROUND_TIME(Timing->BusTurnAroundDuration));
 278              		.loc 1 334 3 view .LVU103
 335:../../Drivers/STM32H7xx_HAL_Driver/Src/stm32h7xx_ll_fmc.c ****   assert_param(IS_FMC_CLK_DIV(Timing->CLKDivision));
 279              		.loc 1 335 3 view .LVU104
 336:../../Drivers/STM32H7xx_HAL_Driver/Src/stm32h7xx_ll_fmc.c ****   assert_param(IS_FMC_DATA_LATENCY(Timing->DataLatency));
 280              		.loc 1 336 3 view .LVU105
ARM GAS  C:\Users\28576\AppData\Local\Temp\ccYw9wfC.s 			page 12


 337:../../Drivers/STM32H7xx_HAL_Driver/Src/stm32h7xx_ll_fmc.c ****   assert_param(IS_FMC_ACCESS_MODE(Timing->AccessMode));
 281              		.loc 1 337 3 view .LVU106
 338:../../Drivers/STM32H7xx_HAL_Driver/Src/stm32h7xx_ll_fmc.c ****   assert_param(IS_FMC_NORSRAM_BANK(Bank));
 282              		.loc 1 338 3 view .LVU107
 339:../../Drivers/STM32H7xx_HAL_Driver/Src/stm32h7xx_ll_fmc.c **** 
 340:../../Drivers/STM32H7xx_HAL_Driver/Src/stm32h7xx_ll_fmc.c ****   /* Set FMC_NORSRAM device timing parameters */
 341:../../Drivers/STM32H7xx_HAL_Driver/Src/stm32h7xx_ll_fmc.c ****   MODIFY_REG(Device->BTCR[Bank + 1U], BTR_CLEAR_MASK, (Timing->AddressSetupTime                    
 283              		.loc 1 341 3 view .LVU108
 284 0002 0132     		adds	r2, r2, #1
 285              	.LVL16:
 286              		.loc 1 341 3 is_stmt 0 view .LVU109
 287 0004 50F82230 		ldr	r3, [r0, r2, lsl #2]
 288 0008 03F0404C 		and	ip, r3, #-1073741824
 289 000c 0B68     		ldr	r3, [r1]
 290 000e 4C68     		ldr	r4, [r1, #4]
 291 0010 43EA0413 		orr	r3, r3, r4, lsl #4
 292 0014 8C68     		ldr	r4, [r1, #8]
 293 0016 43EA0423 		orr	r3, r3, r4, lsl #8
 294 001a CC68     		ldr	r4, [r1, #12]
 295 001c 43EA0443 		orr	r3, r3, r4, lsl #16
 296 0020 0C69     		ldr	r4, [r1, #16]
 297 0022 04F1FF3E 		add	lr, r4, #-1
 298 0026 43EA0E53 		orr	r3, r3, lr, lsl #20
 299 002a 4C69     		ldr	r4, [r1, #20]
 300 002c A4F1020E 		sub	lr, r4, #2
 301 0030 43EA0E63 		orr	r3, r3, lr, lsl #24
 302 0034 8C69     		ldr	r4, [r1, #24]
 303 0036 2343     		orrs	r3, r3, r4
 304 0038 4CEA0303 		orr	r3, ip, r3
 305 003c 40F82230 		str	r3, [r0, r2, lsl #2]
 342:../../Drivers/STM32H7xx_HAL_Driver/Src/stm32h7xx_ll_fmc.c ****                                                        ((Timing->AddressHoldTime)        << FMC_BTR
 343:../../Drivers/STM32H7xx_HAL_Driver/Src/stm32h7xx_ll_fmc.c ****                                                        ((Timing->DataSetupTime)          << FMC_BTR
 344:../../Drivers/STM32H7xx_HAL_Driver/Src/stm32h7xx_ll_fmc.c ****                                                        ((Timing->BusTurnAroundDuration)  << FMC_BTR
 345:../../Drivers/STM32H7xx_HAL_Driver/Src/stm32h7xx_ll_fmc.c ****                                                        (((Timing->CLKDivision) - 1U)     << FMC_BTR
 346:../../Drivers/STM32H7xx_HAL_Driver/Src/stm32h7xx_ll_fmc.c ****                                                        (((Timing->DataLatency) - 2U)     << FMC_BTR
 347:../../Drivers/STM32H7xx_HAL_Driver/Src/stm32h7xx_ll_fmc.c ****                                                        (Timing->AccessMode)));
 348:../../Drivers/STM32H7xx_HAL_Driver/Src/stm32h7xx_ll_fmc.c **** 
 349:../../Drivers/STM32H7xx_HAL_Driver/Src/stm32h7xx_ll_fmc.c ****   /* Configure Clock division value (in NORSRAM bank 1) when continuous clock is enabled */
 350:../../Drivers/STM32H7xx_HAL_Driver/Src/stm32h7xx_ll_fmc.c ****   if (HAL_IS_BIT_SET(Device->BTCR[FMC_NORSRAM_BANK1], FMC_BCR1_CCLKEN))
 306              		.loc 1 350 3 is_stmt 1 view .LVU110
 307              		.loc 1 350 7 is_stmt 0 view .LVU111
 308 0040 0368     		ldr	r3, [r0]
 309              		.loc 1 350 6 view .LVU112
 310 0042 13F4801F 		tst	r3, #1048576
 311 0046 0BD0     		beq	.L15
 351:../../Drivers/STM32H7xx_HAL_Driver/Src/stm32h7xx_ll_fmc.c ****   {
 352:../../Drivers/STM32H7xx_HAL_Driver/Src/stm32h7xx_ll_fmc.c ****     tmpr = (uint32_t)(Device->BTCR[FMC_NORSRAM_BANK1 + 1U] & ~((0x0FU) << FMC_BTRx_CLKDIV_Pos));
 312              		.loc 1 352 5 is_stmt 1 view .LVU113
 313              		.loc 1 352 35 is_stmt 0 view .LVU114
 314 0048 4268     		ldr	r2, [r0, #4]
 315              	.LVL17:
 316              		.loc 1 352 10 view .LVU115
 317 004a 22F47002 		bic	r2, r2, #15728640
 318              	.LVL18:
 353:../../Drivers/STM32H7xx_HAL_Driver/Src/stm32h7xx_ll_fmc.c ****     tmpr |= (uint32_t)(((Timing->CLKDivision) - 1U) << FMC_BTRx_CLKDIV_Pos);
 319              		.loc 1 353 5 is_stmt 1 view .LVU116
 320              		.loc 1 353 32 is_stmt 0 view .LVU117
ARM GAS  C:\Users\28576\AppData\Local\Temp\ccYw9wfC.s 			page 13


 321 004e 0B69     		ldr	r3, [r1, #16]
 322              		.loc 1 353 47 view .LVU118
 323 0050 013B     		subs	r3, r3, #1
 324              		.loc 1 353 10 view .LVU119
 325 0052 42EA0352 		orr	r2, r2, r3, lsl #20
 326              	.LVL19:
 354:../../Drivers/STM32H7xx_HAL_Driver/Src/stm32h7xx_ll_fmc.c ****     MODIFY_REG(Device->BTCR[FMC_NORSRAM_BANK1 + 1U], FMC_BTRx_CLKDIV, tmpr);
 327              		.loc 1 354 5 is_stmt 1 view .LVU120
 328 0056 4368     		ldr	r3, [r0, #4]
 329 0058 23F47003 		bic	r3, r3, #15728640
 330 005c 1343     		orrs	r3, r3, r2
 331 005e 4360     		str	r3, [r0, #4]
 332              	.LVL20:
 333              	.L15:
 355:../../Drivers/STM32H7xx_HAL_Driver/Src/stm32h7xx_ll_fmc.c ****   }
 356:../../Drivers/STM32H7xx_HAL_Driver/Src/stm32h7xx_ll_fmc.c **** 
 357:../../Drivers/STM32H7xx_HAL_Driver/Src/stm32h7xx_ll_fmc.c ****   return HAL_OK;
 334              		.loc 1 357 3 view .LVU121
 358:../../Drivers/STM32H7xx_HAL_Driver/Src/stm32h7xx_ll_fmc.c **** }
 335              		.loc 1 358 1 is_stmt 0 view .LVU122
 336 0060 0020     		movs	r0, #0
 337              	.LVL21:
 338              		.loc 1 358 1 view .LVU123
 339 0062 10BD     		pop	{r4, pc}
 340              		.cfi_endproc
 341              	.LFE146:
 343              		.section	.text.FMC_NORSRAM_Extended_Timing_Init,"ax",%progbits
 344              		.align	1
 345              		.global	FMC_NORSRAM_Extended_Timing_Init
 346              		.syntax unified
 347              		.thumb
 348              		.thumb_func
 350              	FMC_NORSRAM_Extended_Timing_Init:
 351              	.LVL22:
 352              	.LFB147:
 359:../../Drivers/STM32H7xx_HAL_Driver/Src/stm32h7xx_ll_fmc.c **** 
 360:../../Drivers/STM32H7xx_HAL_Driver/Src/stm32h7xx_ll_fmc.c **** /**
 361:../../Drivers/STM32H7xx_HAL_Driver/Src/stm32h7xx_ll_fmc.c ****   * @brief  Initialize the FMC_NORSRAM Extended mode Timing according to the specified
 362:../../Drivers/STM32H7xx_HAL_Driver/Src/stm32h7xx_ll_fmc.c ****   *         parameters in the FMC_NORSRAM_TimingTypeDef
 363:../../Drivers/STM32H7xx_HAL_Driver/Src/stm32h7xx_ll_fmc.c ****   * @param  Device Pointer to NORSRAM device instance
 364:../../Drivers/STM32H7xx_HAL_Driver/Src/stm32h7xx_ll_fmc.c ****   * @param  Timing Pointer to NORSRAM Timing structure
 365:../../Drivers/STM32H7xx_HAL_Driver/Src/stm32h7xx_ll_fmc.c ****   * @param  Bank NORSRAM bank number
 366:../../Drivers/STM32H7xx_HAL_Driver/Src/stm32h7xx_ll_fmc.c ****   * @param  ExtendedMode FMC Extended Mode
 367:../../Drivers/STM32H7xx_HAL_Driver/Src/stm32h7xx_ll_fmc.c ****   *          This parameter can be one of the following values:
 368:../../Drivers/STM32H7xx_HAL_Driver/Src/stm32h7xx_ll_fmc.c ****   *            @arg FMC_EXTENDED_MODE_DISABLE
 369:../../Drivers/STM32H7xx_HAL_Driver/Src/stm32h7xx_ll_fmc.c ****   *            @arg FMC_EXTENDED_MODE_ENABLE
 370:../../Drivers/STM32H7xx_HAL_Driver/Src/stm32h7xx_ll_fmc.c ****   * @retval HAL status
 371:../../Drivers/STM32H7xx_HAL_Driver/Src/stm32h7xx_ll_fmc.c ****   */
 372:../../Drivers/STM32H7xx_HAL_Driver/Src/stm32h7xx_ll_fmc.c **** HAL_StatusTypeDef FMC_NORSRAM_Extended_Timing_Init(FMC_NORSRAM_EXTENDED_TypeDef *Device,
 373:../../Drivers/STM32H7xx_HAL_Driver/Src/stm32h7xx_ll_fmc.c ****                                                    FMC_NORSRAM_TimingTypeDef *Timing, uint32_t Bank
 374:../../Drivers/STM32H7xx_HAL_Driver/Src/stm32h7xx_ll_fmc.c ****                                                    uint32_t ExtendedMode)
 375:../../Drivers/STM32H7xx_HAL_Driver/Src/stm32h7xx_ll_fmc.c **** {
 353              		.loc 1 375 1 is_stmt 1 view -0
 354              		.cfi_startproc
 355              		@ args = 0, pretend = 0, frame = 0
 356              		@ frame_needed = 0, uses_anonymous_args = 0
 357              		@ link register save eliminated.
ARM GAS  C:\Users\28576\AppData\Local\Temp\ccYw9wfC.s 			page 14


 358              		.loc 1 375 1 is_stmt 0 view .LVU125
 359 0000 9446     		mov	ip, r2
 376:../../Drivers/STM32H7xx_HAL_Driver/Src/stm32h7xx_ll_fmc.c ****   /* Check the parameters */
 377:../../Drivers/STM32H7xx_HAL_Driver/Src/stm32h7xx_ll_fmc.c ****   assert_param(IS_FMC_EXTENDED_MODE(ExtendedMode));
 360              		.loc 1 377 3 is_stmt 1 view .LVU126
 378:../../Drivers/STM32H7xx_HAL_Driver/Src/stm32h7xx_ll_fmc.c **** 
 379:../../Drivers/STM32H7xx_HAL_Driver/Src/stm32h7xx_ll_fmc.c ****   /* Set NORSRAM device timing register for write configuration, if extended mode is used */
 380:../../Drivers/STM32H7xx_HAL_Driver/Src/stm32h7xx_ll_fmc.c ****   if (ExtendedMode == FMC_EXTENDED_MODE_ENABLE)
 361              		.loc 1 380 3 view .LVU127
 362              		.loc 1 380 6 is_stmt 0 view .LVU128
 363 0002 B3F5804F 		cmp	r3, #16384
 364 0006 05D0     		beq	.L24
 381:../../Drivers/STM32H7xx_HAL_Driver/Src/stm32h7xx_ll_fmc.c ****   {
 382:../../Drivers/STM32H7xx_HAL_Driver/Src/stm32h7xx_ll_fmc.c ****     /* Check the parameters */
 383:../../Drivers/STM32H7xx_HAL_Driver/Src/stm32h7xx_ll_fmc.c ****     assert_param(IS_FMC_NORSRAM_EXTENDED_DEVICE(Device));
 384:../../Drivers/STM32H7xx_HAL_Driver/Src/stm32h7xx_ll_fmc.c ****     assert_param(IS_FMC_ADDRESS_SETUP_TIME(Timing->AddressSetupTime));
 385:../../Drivers/STM32H7xx_HAL_Driver/Src/stm32h7xx_ll_fmc.c ****     assert_param(IS_FMC_ADDRESS_HOLD_TIME(Timing->AddressHoldTime));
 386:../../Drivers/STM32H7xx_HAL_Driver/Src/stm32h7xx_ll_fmc.c ****     assert_param(IS_FMC_DATASETUP_TIME(Timing->DataSetupTime));
 387:../../Drivers/STM32H7xx_HAL_Driver/Src/stm32h7xx_ll_fmc.c ****     assert_param(IS_FMC_TURNAROUND_TIME(Timing->BusTurnAroundDuration));
 388:../../Drivers/STM32H7xx_HAL_Driver/Src/stm32h7xx_ll_fmc.c ****     assert_param(IS_FMC_ACCESS_MODE(Timing->AccessMode));
 389:../../Drivers/STM32H7xx_HAL_Driver/Src/stm32h7xx_ll_fmc.c ****     assert_param(IS_FMC_NORSRAM_BANK(Bank));
 390:../../Drivers/STM32H7xx_HAL_Driver/Src/stm32h7xx_ll_fmc.c **** 
 391:../../Drivers/STM32H7xx_HAL_Driver/Src/stm32h7xx_ll_fmc.c ****     /* Set NORSRAM device timing register for write configuration, if extended mode is used */
 392:../../Drivers/STM32H7xx_HAL_Driver/Src/stm32h7xx_ll_fmc.c ****     MODIFY_REG(Device->BWTR[Bank], BWTR_CLEAR_MASK, (Timing->AddressSetupTime                      
 393:../../Drivers/STM32H7xx_HAL_Driver/Src/stm32h7xx_ll_fmc.c ****                                                      ((Timing->AddressHoldTime)        << FMC_BWTRx
 394:../../Drivers/STM32H7xx_HAL_Driver/Src/stm32h7xx_ll_fmc.c ****                                                      ((Timing->DataSetupTime)          << FMC_BWTRx
 395:../../Drivers/STM32H7xx_HAL_Driver/Src/stm32h7xx_ll_fmc.c ****                                                      Timing->AccessMode                            
 396:../../Drivers/STM32H7xx_HAL_Driver/Src/stm32h7xx_ll_fmc.c ****                                                      ((Timing->BusTurnAroundDuration)  << FMC_BWTRx
 397:../../Drivers/STM32H7xx_HAL_Driver/Src/stm32h7xx_ll_fmc.c ****   }
 398:../../Drivers/STM32H7xx_HAL_Driver/Src/stm32h7xx_ll_fmc.c ****   else
 399:../../Drivers/STM32H7xx_HAL_Driver/Src/stm32h7xx_ll_fmc.c ****   {
 400:../../Drivers/STM32H7xx_HAL_Driver/Src/stm32h7xx_ll_fmc.c ****     Device->BWTR[Bank] = 0x0FFFFFFFU;
 365              		.loc 1 400 5 is_stmt 1 view .LVU129
 366              		.loc 1 400 24 is_stmt 0 view .LVU130
 367 0008 6FF07043 		mvn	r3, #-268435456
 368              	.LVL23:
 369              		.loc 1 400 24 view .LVU131
 370 000c 40F82230 		str	r3, [r0, r2, lsl #2]
 401:../../Drivers/STM32H7xx_HAL_Driver/Src/stm32h7xx_ll_fmc.c ****   }
 402:../../Drivers/STM32H7xx_HAL_Driver/Src/stm32h7xx_ll_fmc.c **** 
 403:../../Drivers/STM32H7xx_HAL_Driver/Src/stm32h7xx_ll_fmc.c ****   return HAL_OK;
 371              		.loc 1 403 3 is_stmt 1 view .LVU132
 404:../../Drivers/STM32H7xx_HAL_Driver/Src/stm32h7xx_ll_fmc.c **** }
 372              		.loc 1 404 1 is_stmt 0 view .LVU133
 373 0010 0020     		movs	r0, #0
 374              	.LVL24:
 375              		.loc 1 404 1 view .LVU134
 376 0012 7047     		bx	lr
 377              	.LVL25:
 378              	.L24:
 375:../../Drivers/STM32H7xx_HAL_Driver/Src/stm32h7xx_ll_fmc.c ****   /* Check the parameters */
 379              		.loc 1 375 1 view .LVU135
 380 0014 10B4     		push	{r4}
 381              	.LCFI2:
 382              		.cfi_def_cfa_offset 4
 383              		.cfi_offset 4, -4
 383:../../Drivers/STM32H7xx_HAL_Driver/Src/stm32h7xx_ll_fmc.c ****     assert_param(IS_FMC_ADDRESS_SETUP_TIME(Timing->AddressSetupTime));
ARM GAS  C:\Users\28576\AppData\Local\Temp\ccYw9wfC.s 			page 15


 384              		.loc 1 383 5 is_stmt 1 view .LVU136
 384:../../Drivers/STM32H7xx_HAL_Driver/Src/stm32h7xx_ll_fmc.c ****     assert_param(IS_FMC_ADDRESS_HOLD_TIME(Timing->AddressHoldTime));
 385              		.loc 1 384 5 view .LVU137
 385:../../Drivers/STM32H7xx_HAL_Driver/Src/stm32h7xx_ll_fmc.c ****     assert_param(IS_FMC_DATASETUP_TIME(Timing->DataSetupTime));
 386              		.loc 1 385 5 view .LVU138
 386:../../Drivers/STM32H7xx_HAL_Driver/Src/stm32h7xx_ll_fmc.c ****     assert_param(IS_FMC_TURNAROUND_TIME(Timing->BusTurnAroundDuration));
 387              		.loc 1 386 5 view .LVU139
 387:../../Drivers/STM32H7xx_HAL_Driver/Src/stm32h7xx_ll_fmc.c ****     assert_param(IS_FMC_ACCESS_MODE(Timing->AccessMode));
 388              		.loc 1 387 5 view .LVU140
 388:../../Drivers/STM32H7xx_HAL_Driver/Src/stm32h7xx_ll_fmc.c ****     assert_param(IS_FMC_NORSRAM_BANK(Bank));
 389              		.loc 1 388 5 view .LVU141
 389:../../Drivers/STM32H7xx_HAL_Driver/Src/stm32h7xx_ll_fmc.c **** 
 390              		.loc 1 389 5 view .LVU142
 392:../../Drivers/STM32H7xx_HAL_Driver/Src/stm32h7xx_ll_fmc.c ****                                                      ((Timing->AddressHoldTime)        << FMC_BWTRx
 391              		.loc 1 392 5 view .LVU143
 392 0016 50F82230 		ldr	r3, [r0, r2, lsl #2]
 393              	.LVL26:
 392:../../Drivers/STM32H7xx_HAL_Driver/Src/stm32h7xx_ll_fmc.c ****                                                      ((Timing->AddressHoldTime)        << FMC_BWTRx
 394              		.loc 1 392 5 is_stmt 0 view .LVU144
 395 001a 0A4A     		ldr	r2, .L25
 396              	.LVL27:
 392:../../Drivers/STM32H7xx_HAL_Driver/Src/stm32h7xx_ll_fmc.c ****                                                      ((Timing->AddressHoldTime)        << FMC_BWTRx
 397              		.loc 1 392 5 view .LVU145
 398 001c 1A40     		ands	r2, r2, r3
 399 001e 0B68     		ldr	r3, [r1]
 400 0020 4C68     		ldr	r4, [r1, #4]
 401 0022 43EA0413 		orr	r3, r3, r4, lsl #4
 402 0026 8C68     		ldr	r4, [r1, #8]
 403 0028 43EA0423 		orr	r3, r3, r4, lsl #8
 404 002c 8C69     		ldr	r4, [r1, #24]
 405 002e 2343     		orrs	r3, r3, r4
 406 0030 C968     		ldr	r1, [r1, #12]
 407              	.LVL28:
 392:../../Drivers/STM32H7xx_HAL_Driver/Src/stm32h7xx_ll_fmc.c ****                                                      ((Timing->AddressHoldTime)        << FMC_BWTRx
 408              		.loc 1 392 5 view .LVU146
 409 0032 43EA0143 		orr	r3, r3, r1, lsl #16
 410 0036 1343     		orrs	r3, r3, r2
 411 0038 40F82C30 		str	r3, [r0, ip, lsl #2]
 403:../../Drivers/STM32H7xx_HAL_Driver/Src/stm32h7xx_ll_fmc.c **** }
 412              		.loc 1 403 3 is_stmt 1 view .LVU147
 413              		.loc 1 404 1 is_stmt 0 view .LVU148
 414 003c 0020     		movs	r0, #0
 415              	.LVL29:
 416              		.loc 1 404 1 view .LVU149
 417 003e 10BC     		pop	{r4}
 418              	.LCFI3:
 419              		.cfi_restore 4
 420              		.cfi_def_cfa_offset 0
 421 0040 7047     		bx	lr
 422              	.L26:
 423 0042 00BF     		.align	2
 424              	.L25:
 425 0044 0000F0CF 		.word	-806354944
 426              		.cfi_endproc
 427              	.LFE147:
 429              		.section	.text.FMC_NORSRAM_WriteOperation_Enable,"ax",%progbits
 430              		.align	1
ARM GAS  C:\Users\28576\AppData\Local\Temp\ccYw9wfC.s 			page 16


 431              		.global	FMC_NORSRAM_WriteOperation_Enable
 432              		.syntax unified
 433              		.thumb
 434              		.thumb_func
 436              	FMC_NORSRAM_WriteOperation_Enable:
 437              	.LVL30:
 438              	.LFB148:
 405:../../Drivers/STM32H7xx_HAL_Driver/Src/stm32h7xx_ll_fmc.c **** /**
 406:../../Drivers/STM32H7xx_HAL_Driver/Src/stm32h7xx_ll_fmc.c ****   * @}
 407:../../Drivers/STM32H7xx_HAL_Driver/Src/stm32h7xx_ll_fmc.c ****   */
 408:../../Drivers/STM32H7xx_HAL_Driver/Src/stm32h7xx_ll_fmc.c **** 
 409:../../Drivers/STM32H7xx_HAL_Driver/Src/stm32h7xx_ll_fmc.c **** /** @addtogroup FMC_LL_NORSRAM_Private_Functions_Group2
 410:../../Drivers/STM32H7xx_HAL_Driver/Src/stm32h7xx_ll_fmc.c ****   *  @brief   management functions
 411:../../Drivers/STM32H7xx_HAL_Driver/Src/stm32h7xx_ll_fmc.c ****   *
 412:../../Drivers/STM32H7xx_HAL_Driver/Src/stm32h7xx_ll_fmc.c **** @verbatim
 413:../../Drivers/STM32H7xx_HAL_Driver/Src/stm32h7xx_ll_fmc.c ****   ==============================================================================
 414:../../Drivers/STM32H7xx_HAL_Driver/Src/stm32h7xx_ll_fmc.c ****                       ##### FMC_NORSRAM Control functions #####
 415:../../Drivers/STM32H7xx_HAL_Driver/Src/stm32h7xx_ll_fmc.c ****   ==============================================================================
 416:../../Drivers/STM32H7xx_HAL_Driver/Src/stm32h7xx_ll_fmc.c ****   [..]
 417:../../Drivers/STM32H7xx_HAL_Driver/Src/stm32h7xx_ll_fmc.c ****     This subsection provides a set of functions allowing to control dynamically
 418:../../Drivers/STM32H7xx_HAL_Driver/Src/stm32h7xx_ll_fmc.c ****     the FMC NORSRAM interface.
 419:../../Drivers/STM32H7xx_HAL_Driver/Src/stm32h7xx_ll_fmc.c **** 
 420:../../Drivers/STM32H7xx_HAL_Driver/Src/stm32h7xx_ll_fmc.c **** @endverbatim
 421:../../Drivers/STM32H7xx_HAL_Driver/Src/stm32h7xx_ll_fmc.c ****   * @{
 422:../../Drivers/STM32H7xx_HAL_Driver/Src/stm32h7xx_ll_fmc.c ****   */
 423:../../Drivers/STM32H7xx_HAL_Driver/Src/stm32h7xx_ll_fmc.c **** 
 424:../../Drivers/STM32H7xx_HAL_Driver/Src/stm32h7xx_ll_fmc.c **** /**
 425:../../Drivers/STM32H7xx_HAL_Driver/Src/stm32h7xx_ll_fmc.c ****   * @brief  Enables dynamically FMC_NORSRAM write operation.
 426:../../Drivers/STM32H7xx_HAL_Driver/Src/stm32h7xx_ll_fmc.c ****   * @param  Device Pointer to NORSRAM device instance
 427:../../Drivers/STM32H7xx_HAL_Driver/Src/stm32h7xx_ll_fmc.c ****   * @param  Bank NORSRAM bank number
 428:../../Drivers/STM32H7xx_HAL_Driver/Src/stm32h7xx_ll_fmc.c ****   * @retval HAL status
 429:../../Drivers/STM32H7xx_HAL_Driver/Src/stm32h7xx_ll_fmc.c ****   */
 430:../../Drivers/STM32H7xx_HAL_Driver/Src/stm32h7xx_ll_fmc.c **** HAL_StatusTypeDef FMC_NORSRAM_WriteOperation_Enable(FMC_NORSRAM_TypeDef *Device, uint32_t Bank)
 431:../../Drivers/STM32H7xx_HAL_Driver/Src/stm32h7xx_ll_fmc.c **** {
 439              		.loc 1 431 1 is_stmt 1 view -0
 440              		.cfi_startproc
 441              		@ args = 0, pretend = 0, frame = 0
 442              		@ frame_needed = 0, uses_anonymous_args = 0
 443              		@ link register save eliminated.
 432:../../Drivers/STM32H7xx_HAL_Driver/Src/stm32h7xx_ll_fmc.c ****   /* Check the parameters */
 433:../../Drivers/STM32H7xx_HAL_Driver/Src/stm32h7xx_ll_fmc.c ****   assert_param(IS_FMC_NORSRAM_DEVICE(Device));
 444              		.loc 1 433 3 view .LVU151
 434:../../Drivers/STM32H7xx_HAL_Driver/Src/stm32h7xx_ll_fmc.c ****   assert_param(IS_FMC_NORSRAM_BANK(Bank));
 445              		.loc 1 434 3 view .LVU152
 435:../../Drivers/STM32H7xx_HAL_Driver/Src/stm32h7xx_ll_fmc.c **** 
 436:../../Drivers/STM32H7xx_HAL_Driver/Src/stm32h7xx_ll_fmc.c ****   /* Enable write operation */
 437:../../Drivers/STM32H7xx_HAL_Driver/Src/stm32h7xx_ll_fmc.c ****   SET_BIT(Device->BTCR[Bank], FMC_WRITE_OPERATION_ENABLE);
 446              		.loc 1 437 3 view .LVU153
 447 0000 50F82130 		ldr	r3, [r0, r1, lsl #2]
 448 0004 43F48053 		orr	r3, r3, #4096
 449 0008 40F82130 		str	r3, [r0, r1, lsl #2]
 438:../../Drivers/STM32H7xx_HAL_Driver/Src/stm32h7xx_ll_fmc.c **** 
 439:../../Drivers/STM32H7xx_HAL_Driver/Src/stm32h7xx_ll_fmc.c ****   return HAL_OK;
 450              		.loc 1 439 3 view .LVU154
 440:../../Drivers/STM32H7xx_HAL_Driver/Src/stm32h7xx_ll_fmc.c **** }
 451              		.loc 1 440 1 is_stmt 0 view .LVU155
 452 000c 0020     		movs	r0, #0
ARM GAS  C:\Users\28576\AppData\Local\Temp\ccYw9wfC.s 			page 17


 453              	.LVL31:
 454              		.loc 1 440 1 view .LVU156
 455 000e 7047     		bx	lr
 456              		.cfi_endproc
 457              	.LFE148:
 459              		.section	.text.FMC_NORSRAM_WriteOperation_Disable,"ax",%progbits
 460              		.align	1
 461              		.global	FMC_NORSRAM_WriteOperation_Disable
 462              		.syntax unified
 463              		.thumb
 464              		.thumb_func
 466              	FMC_NORSRAM_WriteOperation_Disable:
 467              	.LVL32:
 468              	.LFB149:
 441:../../Drivers/STM32H7xx_HAL_Driver/Src/stm32h7xx_ll_fmc.c **** 
 442:../../Drivers/STM32H7xx_HAL_Driver/Src/stm32h7xx_ll_fmc.c **** /**
 443:../../Drivers/STM32H7xx_HAL_Driver/Src/stm32h7xx_ll_fmc.c ****   * @brief  Disables dynamically FMC_NORSRAM write operation.
 444:../../Drivers/STM32H7xx_HAL_Driver/Src/stm32h7xx_ll_fmc.c ****   * @param  Device Pointer to NORSRAM device instance
 445:../../Drivers/STM32H7xx_HAL_Driver/Src/stm32h7xx_ll_fmc.c ****   * @param  Bank NORSRAM bank number
 446:../../Drivers/STM32H7xx_HAL_Driver/Src/stm32h7xx_ll_fmc.c ****   * @retval HAL status
 447:../../Drivers/STM32H7xx_HAL_Driver/Src/stm32h7xx_ll_fmc.c ****   */
 448:../../Drivers/STM32H7xx_HAL_Driver/Src/stm32h7xx_ll_fmc.c **** HAL_StatusTypeDef FMC_NORSRAM_WriteOperation_Disable(FMC_NORSRAM_TypeDef *Device, uint32_t Bank)
 449:../../Drivers/STM32H7xx_HAL_Driver/Src/stm32h7xx_ll_fmc.c **** {
 469              		.loc 1 449 1 is_stmt 1 view -0
 470              		.cfi_startproc
 471              		@ args = 0, pretend = 0, frame = 0
 472              		@ frame_needed = 0, uses_anonymous_args = 0
 473              		@ link register save eliminated.
 450:../../Drivers/STM32H7xx_HAL_Driver/Src/stm32h7xx_ll_fmc.c ****   /* Check the parameters */
 451:../../Drivers/STM32H7xx_HAL_Driver/Src/stm32h7xx_ll_fmc.c ****   assert_param(IS_FMC_NORSRAM_DEVICE(Device));
 474              		.loc 1 451 3 view .LVU158
 452:../../Drivers/STM32H7xx_HAL_Driver/Src/stm32h7xx_ll_fmc.c ****   assert_param(IS_FMC_NORSRAM_BANK(Bank));
 475              		.loc 1 452 3 view .LVU159
 453:../../Drivers/STM32H7xx_HAL_Driver/Src/stm32h7xx_ll_fmc.c **** 
 454:../../Drivers/STM32H7xx_HAL_Driver/Src/stm32h7xx_ll_fmc.c ****   /* Disable write operation */
 455:../../Drivers/STM32H7xx_HAL_Driver/Src/stm32h7xx_ll_fmc.c ****   CLEAR_BIT(Device->BTCR[Bank], FMC_WRITE_OPERATION_ENABLE);
 476              		.loc 1 455 3 view .LVU160
 477 0000 50F82130 		ldr	r3, [r0, r1, lsl #2]
 478 0004 23F48053 		bic	r3, r3, #4096
 479 0008 40F82130 		str	r3, [r0, r1, lsl #2]
 456:../../Drivers/STM32H7xx_HAL_Driver/Src/stm32h7xx_ll_fmc.c **** 
 457:../../Drivers/STM32H7xx_HAL_Driver/Src/stm32h7xx_ll_fmc.c ****   return HAL_OK;
 480              		.loc 1 457 3 view .LVU161
 458:../../Drivers/STM32H7xx_HAL_Driver/Src/stm32h7xx_ll_fmc.c **** }
 481              		.loc 1 458 1 is_stmt 0 view .LVU162
 482 000c 0020     		movs	r0, #0
 483              	.LVL33:
 484              		.loc 1 458 1 view .LVU163
 485 000e 7047     		bx	lr
 486              		.cfi_endproc
 487              	.LFE149:
 489              		.section	.text.FMC_NAND_Init,"ax",%progbits
 490              		.align	1
 491              		.global	FMC_NAND_Init
 492              		.syntax unified
 493              		.thumb
 494              		.thumb_func
ARM GAS  C:\Users\28576\AppData\Local\Temp\ccYw9wfC.s 			page 18


 496              	FMC_NAND_Init:
 497              	.LVL34:
 498              	.LFB150:
 459:../../Drivers/STM32H7xx_HAL_Driver/Src/stm32h7xx_ll_fmc.c **** 
 460:../../Drivers/STM32H7xx_HAL_Driver/Src/stm32h7xx_ll_fmc.c **** /**
 461:../../Drivers/STM32H7xx_HAL_Driver/Src/stm32h7xx_ll_fmc.c ****   * @}
 462:../../Drivers/STM32H7xx_HAL_Driver/Src/stm32h7xx_ll_fmc.c ****   */
 463:../../Drivers/STM32H7xx_HAL_Driver/Src/stm32h7xx_ll_fmc.c **** 
 464:../../Drivers/STM32H7xx_HAL_Driver/Src/stm32h7xx_ll_fmc.c **** /**
 465:../../Drivers/STM32H7xx_HAL_Driver/Src/stm32h7xx_ll_fmc.c ****   * @}
 466:../../Drivers/STM32H7xx_HAL_Driver/Src/stm32h7xx_ll_fmc.c ****   */
 467:../../Drivers/STM32H7xx_HAL_Driver/Src/stm32h7xx_ll_fmc.c **** 
 468:../../Drivers/STM32H7xx_HAL_Driver/Src/stm32h7xx_ll_fmc.c **** 
 469:../../Drivers/STM32H7xx_HAL_Driver/Src/stm32h7xx_ll_fmc.c **** /** @defgroup FMC_LL_Exported_Functions_NAND FMC Low Layer NAND Exported Functions
 470:../../Drivers/STM32H7xx_HAL_Driver/Src/stm32h7xx_ll_fmc.c ****   * @brief    NAND Controller functions
 471:../../Drivers/STM32H7xx_HAL_Driver/Src/stm32h7xx_ll_fmc.c ****   *
 472:../../Drivers/STM32H7xx_HAL_Driver/Src/stm32h7xx_ll_fmc.c ****   @verbatim
 473:../../Drivers/STM32H7xx_HAL_Driver/Src/stm32h7xx_ll_fmc.c ****   ==============================================================================
 474:../../Drivers/STM32H7xx_HAL_Driver/Src/stm32h7xx_ll_fmc.c ****                     ##### How to use NAND device driver #####
 475:../../Drivers/STM32H7xx_HAL_Driver/Src/stm32h7xx_ll_fmc.c ****   ==============================================================================
 476:../../Drivers/STM32H7xx_HAL_Driver/Src/stm32h7xx_ll_fmc.c ****   [..]
 477:../../Drivers/STM32H7xx_HAL_Driver/Src/stm32h7xx_ll_fmc.c ****     This driver contains a set of APIs to interface with the FMC NAND banks in order
 478:../../Drivers/STM32H7xx_HAL_Driver/Src/stm32h7xx_ll_fmc.c ****     to run the NAND external devices.
 479:../../Drivers/STM32H7xx_HAL_Driver/Src/stm32h7xx_ll_fmc.c **** 
 480:../../Drivers/STM32H7xx_HAL_Driver/Src/stm32h7xx_ll_fmc.c ****     (+) FMC NAND bank reset using the function FMC_NAND_DeInit()
 481:../../Drivers/STM32H7xx_HAL_Driver/Src/stm32h7xx_ll_fmc.c ****     (+) FMC NAND bank control configuration using the function FMC_NAND_Init()
 482:../../Drivers/STM32H7xx_HAL_Driver/Src/stm32h7xx_ll_fmc.c ****     (+) FMC NAND bank common space timing configuration using the function
 483:../../Drivers/STM32H7xx_HAL_Driver/Src/stm32h7xx_ll_fmc.c ****         FMC_NAND_CommonSpace_Timing_Init()
 484:../../Drivers/STM32H7xx_HAL_Driver/Src/stm32h7xx_ll_fmc.c ****     (+) FMC NAND bank attribute space timing configuration using the function
 485:../../Drivers/STM32H7xx_HAL_Driver/Src/stm32h7xx_ll_fmc.c ****         FMC_NAND_AttributeSpace_Timing_Init()
 486:../../Drivers/STM32H7xx_HAL_Driver/Src/stm32h7xx_ll_fmc.c ****     (+) FMC NAND bank enable/disable ECC correction feature using the functions
 487:../../Drivers/STM32H7xx_HAL_Driver/Src/stm32h7xx_ll_fmc.c ****         FMC_NAND_ECC_Enable()/FMC_NAND_ECC_Disable()
 488:../../Drivers/STM32H7xx_HAL_Driver/Src/stm32h7xx_ll_fmc.c ****     (+) FMC NAND bank get ECC correction code using the function FMC_NAND_GetECC()
 489:../../Drivers/STM32H7xx_HAL_Driver/Src/stm32h7xx_ll_fmc.c **** 
 490:../../Drivers/STM32H7xx_HAL_Driver/Src/stm32h7xx_ll_fmc.c **** @endverbatim
 491:../../Drivers/STM32H7xx_HAL_Driver/Src/stm32h7xx_ll_fmc.c ****   * @{
 492:../../Drivers/STM32H7xx_HAL_Driver/Src/stm32h7xx_ll_fmc.c ****   */
 493:../../Drivers/STM32H7xx_HAL_Driver/Src/stm32h7xx_ll_fmc.c **** 
 494:../../Drivers/STM32H7xx_HAL_Driver/Src/stm32h7xx_ll_fmc.c **** /** @defgroup FMC_LL_NAND_Exported_Functions_Group1 Initialization and de-initialization functions
 495:../../Drivers/STM32H7xx_HAL_Driver/Src/stm32h7xx_ll_fmc.c ****   *  @brief    Initialization and Configuration functions
 496:../../Drivers/STM32H7xx_HAL_Driver/Src/stm32h7xx_ll_fmc.c ****   *
 497:../../Drivers/STM32H7xx_HAL_Driver/Src/stm32h7xx_ll_fmc.c **** @verbatim
 498:../../Drivers/STM32H7xx_HAL_Driver/Src/stm32h7xx_ll_fmc.c ****   ==============================================================================
 499:../../Drivers/STM32H7xx_HAL_Driver/Src/stm32h7xx_ll_fmc.c ****               ##### Initialization and de_initialization functions #####
 500:../../Drivers/STM32H7xx_HAL_Driver/Src/stm32h7xx_ll_fmc.c ****   ==============================================================================
 501:../../Drivers/STM32H7xx_HAL_Driver/Src/stm32h7xx_ll_fmc.c ****   [..]
 502:../../Drivers/STM32H7xx_HAL_Driver/Src/stm32h7xx_ll_fmc.c ****     This section provides functions allowing to:
 503:../../Drivers/STM32H7xx_HAL_Driver/Src/stm32h7xx_ll_fmc.c ****     (+) Initialize and configure the FMC NAND interface
 504:../../Drivers/STM32H7xx_HAL_Driver/Src/stm32h7xx_ll_fmc.c ****     (+) De-initialize the FMC NAND interface
 505:../../Drivers/STM32H7xx_HAL_Driver/Src/stm32h7xx_ll_fmc.c ****     (+) Configure the FMC clock and associated GPIOs
 506:../../Drivers/STM32H7xx_HAL_Driver/Src/stm32h7xx_ll_fmc.c **** 
 507:../../Drivers/STM32H7xx_HAL_Driver/Src/stm32h7xx_ll_fmc.c **** @endverbatim
 508:../../Drivers/STM32H7xx_HAL_Driver/Src/stm32h7xx_ll_fmc.c ****   * @{
 509:../../Drivers/STM32H7xx_HAL_Driver/Src/stm32h7xx_ll_fmc.c ****   */
 510:../../Drivers/STM32H7xx_HAL_Driver/Src/stm32h7xx_ll_fmc.c **** 
 511:../../Drivers/STM32H7xx_HAL_Driver/Src/stm32h7xx_ll_fmc.c **** /**
 512:../../Drivers/STM32H7xx_HAL_Driver/Src/stm32h7xx_ll_fmc.c ****   * @brief  Initializes the FMC_NAND device according to the specified
ARM GAS  C:\Users\28576\AppData\Local\Temp\ccYw9wfC.s 			page 19


 513:../../Drivers/STM32H7xx_HAL_Driver/Src/stm32h7xx_ll_fmc.c ****   *         control parameters in the FMC_NAND_HandleTypeDef
 514:../../Drivers/STM32H7xx_HAL_Driver/Src/stm32h7xx_ll_fmc.c ****   * @param  Device Pointer to NAND device instance
 515:../../Drivers/STM32H7xx_HAL_Driver/Src/stm32h7xx_ll_fmc.c ****   * @param  Init Pointer to NAND Initialization structure
 516:../../Drivers/STM32H7xx_HAL_Driver/Src/stm32h7xx_ll_fmc.c ****   * @retval HAL status
 517:../../Drivers/STM32H7xx_HAL_Driver/Src/stm32h7xx_ll_fmc.c ****   */
 518:../../Drivers/STM32H7xx_HAL_Driver/Src/stm32h7xx_ll_fmc.c **** HAL_StatusTypeDef FMC_NAND_Init(FMC_NAND_TypeDef *Device, FMC_NAND_InitTypeDef *Init)
 519:../../Drivers/STM32H7xx_HAL_Driver/Src/stm32h7xx_ll_fmc.c **** {
 499              		.loc 1 519 1 is_stmt 1 view -0
 500              		.cfi_startproc
 501              		@ args = 0, pretend = 0, frame = 0
 502              		@ frame_needed = 0, uses_anonymous_args = 0
 503              		@ link register save eliminated.
 504              		.loc 1 519 1 is_stmt 0 view .LVU165
 505 0000 10B4     		push	{r4}
 506              	.LCFI4:
 507              		.cfi_def_cfa_offset 4
 508              		.cfi_offset 4, -4
 520:../../Drivers/STM32H7xx_HAL_Driver/Src/stm32h7xx_ll_fmc.c ****   /* Check the parameters */
 521:../../Drivers/STM32H7xx_HAL_Driver/Src/stm32h7xx_ll_fmc.c ****   assert_param(IS_FMC_NAND_DEVICE(Device));
 509              		.loc 1 521 3 is_stmt 1 view .LVU166
 522:../../Drivers/STM32H7xx_HAL_Driver/Src/stm32h7xx_ll_fmc.c ****   assert_param(IS_FMC_NAND_BANK(Init->NandBank));
 510              		.loc 1 522 3 view .LVU167
 523:../../Drivers/STM32H7xx_HAL_Driver/Src/stm32h7xx_ll_fmc.c ****   assert_param(IS_FMC_WAIT_FEATURE(Init->Waitfeature));
 511              		.loc 1 523 3 view .LVU168
 524:../../Drivers/STM32H7xx_HAL_Driver/Src/stm32h7xx_ll_fmc.c ****   assert_param(IS_FMC_NAND_MEMORY_WIDTH(Init->MemoryDataWidth));
 512              		.loc 1 524 3 view .LVU169
 525:../../Drivers/STM32H7xx_HAL_Driver/Src/stm32h7xx_ll_fmc.c ****   assert_param(IS_FMC_ECC_STATE(Init->EccComputation));
 513              		.loc 1 525 3 view .LVU170
 526:../../Drivers/STM32H7xx_HAL_Driver/Src/stm32h7xx_ll_fmc.c ****   assert_param(IS_FMC_ECCPAGE_SIZE(Init->ECCPageSize));
 514              		.loc 1 526 3 view .LVU171
 527:../../Drivers/STM32H7xx_HAL_Driver/Src/stm32h7xx_ll_fmc.c ****   assert_param(IS_FMC_TCLR_TIME(Init->TCLRSetupTime));
 515              		.loc 1 527 3 view .LVU172
 528:../../Drivers/STM32H7xx_HAL_Driver/Src/stm32h7xx_ll_fmc.c ****   assert_param(IS_FMC_TAR_TIME(Init->TARSetupTime));
 516              		.loc 1 528 3 view .LVU173
 529:../../Drivers/STM32H7xx_HAL_Driver/Src/stm32h7xx_ll_fmc.c **** 
 530:../../Drivers/STM32H7xx_HAL_Driver/Src/stm32h7xx_ll_fmc.c ****   /* NAND bank 3 registers configuration */
 531:../../Drivers/STM32H7xx_HAL_Driver/Src/stm32h7xx_ll_fmc.c ****   MODIFY_REG(Device->PCR, PCR_CLEAR_MASK, (Init->Waitfeature                            |
 517              		.loc 1 531 3 view .LVU174
 518 0002 0368     		ldr	r3, [r0]
 519 0004 0A4A     		ldr	r2, .L31
 520 0006 1A40     		ands	r2, r2, r3
 521 0008 4B68     		ldr	r3, [r1, #4]
 522 000a 8C68     		ldr	r4, [r1, #8]
 523 000c 2343     		orrs	r3, r3, r4
 524 000e CC68     		ldr	r4, [r1, #12]
 525 0010 2343     		orrs	r3, r3, r4
 526 0012 0C69     		ldr	r4, [r1, #16]
 527 0014 2343     		orrs	r3, r3, r4
 528 0016 4C69     		ldr	r4, [r1, #20]
 529 0018 43EA4423 		orr	r3, r3, r4, lsl #9
 530 001c 8969     		ldr	r1, [r1, #24]
 531              	.LVL35:
 532              		.loc 1 531 3 is_stmt 0 view .LVU175
 533 001e 43EA4133 		orr	r3, r3, r1, lsl #13
 534 0022 1A43     		orrs	r2, r2, r3
 535 0024 42F00802 		orr	r2, r2, #8
 536 0028 0260     		str	r2, [r0]
ARM GAS  C:\Users\28576\AppData\Local\Temp\ccYw9wfC.s 			page 20


 532:../../Drivers/STM32H7xx_HAL_Driver/Src/stm32h7xx_ll_fmc.c ****                                            FMC_PCR_MEMORY_TYPE_NAND                     |
 533:../../Drivers/STM32H7xx_HAL_Driver/Src/stm32h7xx_ll_fmc.c ****                                            Init->MemoryDataWidth                        |
 534:../../Drivers/STM32H7xx_HAL_Driver/Src/stm32h7xx_ll_fmc.c ****                                            Init->EccComputation                         |
 535:../../Drivers/STM32H7xx_HAL_Driver/Src/stm32h7xx_ll_fmc.c ****                                            Init->ECCPageSize                            |
 536:../../Drivers/STM32H7xx_HAL_Driver/Src/stm32h7xx_ll_fmc.c ****                                            ((Init->TCLRSetupTime) << FMC_PCR_TCLR_Pos)  |
 537:../../Drivers/STM32H7xx_HAL_Driver/Src/stm32h7xx_ll_fmc.c ****                                            ((Init->TARSetupTime)  << FMC_PCR_TAR_Pos)));
 538:../../Drivers/STM32H7xx_HAL_Driver/Src/stm32h7xx_ll_fmc.c **** 
 539:../../Drivers/STM32H7xx_HAL_Driver/Src/stm32h7xx_ll_fmc.c ****   return HAL_OK;
 537              		.loc 1 539 3 is_stmt 1 view .LVU176
 540:../../Drivers/STM32H7xx_HAL_Driver/Src/stm32h7xx_ll_fmc.c **** }
 538              		.loc 1 540 1 is_stmt 0 view .LVU177
 539 002a 0020     		movs	r0, #0
 540              	.LVL36:
 541              		.loc 1 540 1 view .LVU178
 542 002c 10BC     		pop	{r4}
 543              	.LCFI5:
 544              		.cfi_restore 4
 545              		.cfi_def_cfa_offset 0
 546 002e 7047     		bx	lr
 547              	.L32:
 548              		.align	2
 549              	.L31:
 550 0030 8901F0FF 		.word	-1048183
 551              		.cfi_endproc
 552              	.LFE150:
 554              		.section	.text.FMC_NAND_CommonSpace_Timing_Init,"ax",%progbits
 555              		.align	1
 556              		.global	FMC_NAND_CommonSpace_Timing_Init
 557              		.syntax unified
 558              		.thumb
 559              		.thumb_func
 561              	FMC_NAND_CommonSpace_Timing_Init:
 562              	.LVL37:
 563              	.LFB151:
 541:../../Drivers/STM32H7xx_HAL_Driver/Src/stm32h7xx_ll_fmc.c **** 
 542:../../Drivers/STM32H7xx_HAL_Driver/Src/stm32h7xx_ll_fmc.c **** /**
 543:../../Drivers/STM32H7xx_HAL_Driver/Src/stm32h7xx_ll_fmc.c ****   * @brief  Initializes the FMC_NAND Common space Timing according to the specified
 544:../../Drivers/STM32H7xx_HAL_Driver/Src/stm32h7xx_ll_fmc.c ****   *         parameters in the FMC_NAND_PCC_TimingTypeDef
 545:../../Drivers/STM32H7xx_HAL_Driver/Src/stm32h7xx_ll_fmc.c ****   * @param  Device Pointer to NAND device instance
 546:../../Drivers/STM32H7xx_HAL_Driver/Src/stm32h7xx_ll_fmc.c ****   * @param  Timing Pointer to NAND timing structure
 547:../../Drivers/STM32H7xx_HAL_Driver/Src/stm32h7xx_ll_fmc.c ****   * @param  Bank NAND bank number
 548:../../Drivers/STM32H7xx_HAL_Driver/Src/stm32h7xx_ll_fmc.c ****   * @retval HAL status
 549:../../Drivers/STM32H7xx_HAL_Driver/Src/stm32h7xx_ll_fmc.c ****   */
 550:../../Drivers/STM32H7xx_HAL_Driver/Src/stm32h7xx_ll_fmc.c **** HAL_StatusTypeDef FMC_NAND_CommonSpace_Timing_Init(FMC_NAND_TypeDef *Device,
 551:../../Drivers/STM32H7xx_HAL_Driver/Src/stm32h7xx_ll_fmc.c ****                                                    FMC_NAND_PCC_TimingTypeDef *Timing, uint32_t Ban
 552:../../Drivers/STM32H7xx_HAL_Driver/Src/stm32h7xx_ll_fmc.c **** {
 564              		.loc 1 552 1 is_stmt 1 view -0
 565              		.cfi_startproc
 566              		@ args = 0, pretend = 0, frame = 0
 567              		@ frame_needed = 0, uses_anonymous_args = 0
 568              		@ link register save eliminated.
 553:../../Drivers/STM32H7xx_HAL_Driver/Src/stm32h7xx_ll_fmc.c ****   /* Check the parameters */
 554:../../Drivers/STM32H7xx_HAL_Driver/Src/stm32h7xx_ll_fmc.c ****   assert_param(IS_FMC_NAND_DEVICE(Device));
 569              		.loc 1 554 3 view .LVU180
 555:../../Drivers/STM32H7xx_HAL_Driver/Src/stm32h7xx_ll_fmc.c ****   assert_param(IS_FMC_SETUP_TIME(Timing->SetupTime));
 570              		.loc 1 555 3 view .LVU181
 556:../../Drivers/STM32H7xx_HAL_Driver/Src/stm32h7xx_ll_fmc.c ****   assert_param(IS_FMC_WAIT_TIME(Timing->WaitSetupTime));
ARM GAS  C:\Users\28576\AppData\Local\Temp\ccYw9wfC.s 			page 21


 571              		.loc 1 556 3 view .LVU182
 557:../../Drivers/STM32H7xx_HAL_Driver/Src/stm32h7xx_ll_fmc.c ****   assert_param(IS_FMC_HOLD_TIME(Timing->HoldSetupTime));
 572              		.loc 1 557 3 view .LVU183
 558:../../Drivers/STM32H7xx_HAL_Driver/Src/stm32h7xx_ll_fmc.c ****   assert_param(IS_FMC_HIZ_TIME(Timing->HiZSetupTime));
 573              		.loc 1 558 3 view .LVU184
 559:../../Drivers/STM32H7xx_HAL_Driver/Src/stm32h7xx_ll_fmc.c ****   assert_param(IS_FMC_NAND_BANK(Bank));
 574              		.loc 1 559 3 view .LVU185
 560:../../Drivers/STM32H7xx_HAL_Driver/Src/stm32h7xx_ll_fmc.c **** 
 561:../../Drivers/STM32H7xx_HAL_Driver/Src/stm32h7xx_ll_fmc.c ****   /* Prevent unused argument(s) compilation warning if no assert_param check */
 562:../../Drivers/STM32H7xx_HAL_Driver/Src/stm32h7xx_ll_fmc.c ****   UNUSED(Bank);
 575              		.loc 1 562 3 view .LVU186
 563:../../Drivers/STM32H7xx_HAL_Driver/Src/stm32h7xx_ll_fmc.c **** 
 564:../../Drivers/STM32H7xx_HAL_Driver/Src/stm32h7xx_ll_fmc.c ****   /* NAND bank 3 registers configuration */
 565:../../Drivers/STM32H7xx_HAL_Driver/Src/stm32h7xx_ll_fmc.c ****   MODIFY_REG(Device->PMEM, PMEM_CLEAR_MASK, (Timing->SetupTime                                 |
 576              		.loc 1 565 3 view .LVU187
 577 0000 8368     		ldr	r3, [r0, #8]
 578 0002 0B68     		ldr	r3, [r1]
 579 0004 4A68     		ldr	r2, [r1, #4]
 580              	.LVL38:
 581              		.loc 1 565 3 is_stmt 0 view .LVU188
 582 0006 43EA0223 		orr	r3, r3, r2, lsl #8
 583 000a 8A68     		ldr	r2, [r1, #8]
 584 000c 43EA0243 		orr	r3, r3, r2, lsl #16
 585 0010 CA68     		ldr	r2, [r1, #12]
 586 0012 43EA0263 		orr	r3, r3, r2, lsl #24
 587 0016 8360     		str	r3, [r0, #8]
 566:../../Drivers/STM32H7xx_HAL_Driver/Src/stm32h7xx_ll_fmc.c ****                                              ((Timing->WaitSetupTime) << FMC_PMEM_MEMWAIT_Pos) |
 567:../../Drivers/STM32H7xx_HAL_Driver/Src/stm32h7xx_ll_fmc.c ****                                              ((Timing->HoldSetupTime) << FMC_PMEM_MEMHOLD_Pos) |
 568:../../Drivers/STM32H7xx_HAL_Driver/Src/stm32h7xx_ll_fmc.c ****                                              ((Timing->HiZSetupTime)  << FMC_PMEM_MEMHIZ_Pos)));
 569:../../Drivers/STM32H7xx_HAL_Driver/Src/stm32h7xx_ll_fmc.c **** 
 570:../../Drivers/STM32H7xx_HAL_Driver/Src/stm32h7xx_ll_fmc.c ****   return HAL_OK;
 588              		.loc 1 570 3 is_stmt 1 view .LVU189
 571:../../Drivers/STM32H7xx_HAL_Driver/Src/stm32h7xx_ll_fmc.c **** }
 589              		.loc 1 571 1 is_stmt 0 view .LVU190
 590 0018 0020     		movs	r0, #0
 591              	.LVL39:
 592              		.loc 1 571 1 view .LVU191
 593 001a 7047     		bx	lr
 594              		.cfi_endproc
 595              	.LFE151:
 597              		.section	.text.FMC_NAND_AttributeSpace_Timing_Init,"ax",%progbits
 598              		.align	1
 599              		.global	FMC_NAND_AttributeSpace_Timing_Init
 600              		.syntax unified
 601              		.thumb
 602              		.thumb_func
 604              	FMC_NAND_AttributeSpace_Timing_Init:
 605              	.LVL40:
 606              	.LFB152:
 572:../../Drivers/STM32H7xx_HAL_Driver/Src/stm32h7xx_ll_fmc.c **** 
 573:../../Drivers/STM32H7xx_HAL_Driver/Src/stm32h7xx_ll_fmc.c **** /**
 574:../../Drivers/STM32H7xx_HAL_Driver/Src/stm32h7xx_ll_fmc.c ****   * @brief  Initializes the FMC_NAND Attribute space Timing according to the specified
 575:../../Drivers/STM32H7xx_HAL_Driver/Src/stm32h7xx_ll_fmc.c ****   *         parameters in the FMC_NAND_PCC_TimingTypeDef
 576:../../Drivers/STM32H7xx_HAL_Driver/Src/stm32h7xx_ll_fmc.c ****   * @param  Device Pointer to NAND device instance
 577:../../Drivers/STM32H7xx_HAL_Driver/Src/stm32h7xx_ll_fmc.c ****   * @param  Timing Pointer to NAND timing structure
 578:../../Drivers/STM32H7xx_HAL_Driver/Src/stm32h7xx_ll_fmc.c ****   * @param  Bank NAND bank number
 579:../../Drivers/STM32H7xx_HAL_Driver/Src/stm32h7xx_ll_fmc.c ****   * @retval HAL status
ARM GAS  C:\Users\28576\AppData\Local\Temp\ccYw9wfC.s 			page 22


 580:../../Drivers/STM32H7xx_HAL_Driver/Src/stm32h7xx_ll_fmc.c ****   */
 581:../../Drivers/STM32H7xx_HAL_Driver/Src/stm32h7xx_ll_fmc.c **** HAL_StatusTypeDef FMC_NAND_AttributeSpace_Timing_Init(FMC_NAND_TypeDef *Device,
 582:../../Drivers/STM32H7xx_HAL_Driver/Src/stm32h7xx_ll_fmc.c ****                                                       FMC_NAND_PCC_TimingTypeDef *Timing, uint32_t 
 583:../../Drivers/STM32H7xx_HAL_Driver/Src/stm32h7xx_ll_fmc.c **** {
 607              		.loc 1 583 1 is_stmt 1 view -0
 608              		.cfi_startproc
 609              		@ args = 0, pretend = 0, frame = 0
 610              		@ frame_needed = 0, uses_anonymous_args = 0
 611              		@ link register save eliminated.
 584:../../Drivers/STM32H7xx_HAL_Driver/Src/stm32h7xx_ll_fmc.c ****   /* Check the parameters */
 585:../../Drivers/STM32H7xx_HAL_Driver/Src/stm32h7xx_ll_fmc.c ****   assert_param(IS_FMC_NAND_DEVICE(Device));
 612              		.loc 1 585 3 view .LVU193
 586:../../Drivers/STM32H7xx_HAL_Driver/Src/stm32h7xx_ll_fmc.c ****   assert_param(IS_FMC_SETUP_TIME(Timing->SetupTime));
 613              		.loc 1 586 3 view .LVU194
 587:../../Drivers/STM32H7xx_HAL_Driver/Src/stm32h7xx_ll_fmc.c ****   assert_param(IS_FMC_WAIT_TIME(Timing->WaitSetupTime));
 614              		.loc 1 587 3 view .LVU195
 588:../../Drivers/STM32H7xx_HAL_Driver/Src/stm32h7xx_ll_fmc.c ****   assert_param(IS_FMC_HOLD_TIME(Timing->HoldSetupTime));
 615              		.loc 1 588 3 view .LVU196
 589:../../Drivers/STM32H7xx_HAL_Driver/Src/stm32h7xx_ll_fmc.c ****   assert_param(IS_FMC_HIZ_TIME(Timing->HiZSetupTime));
 616              		.loc 1 589 3 view .LVU197
 590:../../Drivers/STM32H7xx_HAL_Driver/Src/stm32h7xx_ll_fmc.c ****   assert_param(IS_FMC_NAND_BANK(Bank));
 617              		.loc 1 590 3 view .LVU198
 591:../../Drivers/STM32H7xx_HAL_Driver/Src/stm32h7xx_ll_fmc.c **** 
 592:../../Drivers/STM32H7xx_HAL_Driver/Src/stm32h7xx_ll_fmc.c ****   /* Prevent unused argument(s) compilation warning if no assert_param check */
 593:../../Drivers/STM32H7xx_HAL_Driver/Src/stm32h7xx_ll_fmc.c ****   UNUSED(Bank);
 618              		.loc 1 593 3 view .LVU199
 594:../../Drivers/STM32H7xx_HAL_Driver/Src/stm32h7xx_ll_fmc.c **** 
 595:../../Drivers/STM32H7xx_HAL_Driver/Src/stm32h7xx_ll_fmc.c ****   /* NAND bank 3 registers configuration */
 596:../../Drivers/STM32H7xx_HAL_Driver/Src/stm32h7xx_ll_fmc.c ****   MODIFY_REG(Device->PATT, PATT_CLEAR_MASK, (Timing->SetupTime                                 |
 619              		.loc 1 596 3 view .LVU200
 620 0000 C368     		ldr	r3, [r0, #12]
 621 0002 0B68     		ldr	r3, [r1]
 622 0004 4A68     		ldr	r2, [r1, #4]
 623              	.LVL41:
 624              		.loc 1 596 3 is_stmt 0 view .LVU201
 625 0006 43EA0223 		orr	r3, r3, r2, lsl #8
 626 000a 8A68     		ldr	r2, [r1, #8]
 627 000c 43EA0243 		orr	r3, r3, r2, lsl #16
 628 0010 CA68     		ldr	r2, [r1, #12]
 629 0012 43EA0263 		orr	r3, r3, r2, lsl #24
 630 0016 C360     		str	r3, [r0, #12]
 597:../../Drivers/STM32H7xx_HAL_Driver/Src/stm32h7xx_ll_fmc.c ****                                              ((Timing->WaitSetupTime) << FMC_PATT_ATTWAIT_Pos) |
 598:../../Drivers/STM32H7xx_HAL_Driver/Src/stm32h7xx_ll_fmc.c ****                                              ((Timing->HoldSetupTime) << FMC_PATT_ATTHOLD_Pos) |
 599:../../Drivers/STM32H7xx_HAL_Driver/Src/stm32h7xx_ll_fmc.c ****                                              ((Timing->HiZSetupTime)  << FMC_PATT_ATTHIZ_Pos)));
 600:../../Drivers/STM32H7xx_HAL_Driver/Src/stm32h7xx_ll_fmc.c **** 
 601:../../Drivers/STM32H7xx_HAL_Driver/Src/stm32h7xx_ll_fmc.c ****   return HAL_OK;
 631              		.loc 1 601 3 is_stmt 1 view .LVU202
 602:../../Drivers/STM32H7xx_HAL_Driver/Src/stm32h7xx_ll_fmc.c **** }
 632              		.loc 1 602 1 is_stmt 0 view .LVU203
 633 0018 0020     		movs	r0, #0
 634              	.LVL42:
 635              		.loc 1 602 1 view .LVU204
 636 001a 7047     		bx	lr
 637              		.cfi_endproc
 638              	.LFE152:
 640              		.section	.text.FMC_NAND_DeInit,"ax",%progbits
 641              		.align	1
ARM GAS  C:\Users\28576\AppData\Local\Temp\ccYw9wfC.s 			page 23


 642              		.global	FMC_NAND_DeInit
 643              		.syntax unified
 644              		.thumb
 645              		.thumb_func
 647              	FMC_NAND_DeInit:
 648              	.LVL43:
 649              	.LFB153:
 603:../../Drivers/STM32H7xx_HAL_Driver/Src/stm32h7xx_ll_fmc.c **** 
 604:../../Drivers/STM32H7xx_HAL_Driver/Src/stm32h7xx_ll_fmc.c **** /**
 605:../../Drivers/STM32H7xx_HAL_Driver/Src/stm32h7xx_ll_fmc.c ****   * @brief  DeInitializes the FMC_NAND device
 606:../../Drivers/STM32H7xx_HAL_Driver/Src/stm32h7xx_ll_fmc.c ****   * @param  Device Pointer to NAND device instance
 607:../../Drivers/STM32H7xx_HAL_Driver/Src/stm32h7xx_ll_fmc.c ****   * @param  Bank NAND bank number
 608:../../Drivers/STM32H7xx_HAL_Driver/Src/stm32h7xx_ll_fmc.c ****   * @retval HAL status
 609:../../Drivers/STM32H7xx_HAL_Driver/Src/stm32h7xx_ll_fmc.c ****   */
 610:../../Drivers/STM32H7xx_HAL_Driver/Src/stm32h7xx_ll_fmc.c **** HAL_StatusTypeDef FMC_NAND_DeInit(FMC_NAND_TypeDef *Device, uint32_t Bank)
 611:../../Drivers/STM32H7xx_HAL_Driver/Src/stm32h7xx_ll_fmc.c **** {
 650              		.loc 1 611 1 is_stmt 1 view -0
 651              		.cfi_startproc
 652              		@ args = 0, pretend = 0, frame = 0
 653              		@ frame_needed = 0, uses_anonymous_args = 0
 654              		@ link register save eliminated.
 612:../../Drivers/STM32H7xx_HAL_Driver/Src/stm32h7xx_ll_fmc.c ****   /* Check the parameters */
 613:../../Drivers/STM32H7xx_HAL_Driver/Src/stm32h7xx_ll_fmc.c ****   assert_param(IS_FMC_NAND_DEVICE(Device));
 655              		.loc 1 613 3 view .LVU206
 614:../../Drivers/STM32H7xx_HAL_Driver/Src/stm32h7xx_ll_fmc.c ****   assert_param(IS_FMC_NAND_BANK(Bank));
 656              		.loc 1 614 3 view .LVU207
 615:../../Drivers/STM32H7xx_HAL_Driver/Src/stm32h7xx_ll_fmc.c **** 
 616:../../Drivers/STM32H7xx_HAL_Driver/Src/stm32h7xx_ll_fmc.c ****   /* Disable the NAND Bank */
 617:../../Drivers/STM32H7xx_HAL_Driver/Src/stm32h7xx_ll_fmc.c ****   __FMC_NAND_DISABLE(Device, Bank);
 657              		.loc 1 617 3 view .LVU208
 658 0000 0368     		ldr	r3, [r0]
 659 0002 23F00403 		bic	r3, r3, #4
 660 0006 0360     		str	r3, [r0]
 618:../../Drivers/STM32H7xx_HAL_Driver/Src/stm32h7xx_ll_fmc.c **** 
 619:../../Drivers/STM32H7xx_HAL_Driver/Src/stm32h7xx_ll_fmc.c ****   /* De-initialize the NAND Bank */
 620:../../Drivers/STM32H7xx_HAL_Driver/Src/stm32h7xx_ll_fmc.c ****   /* Prevent unused argument(s) compilation warning if no assert_param check */
 621:../../Drivers/STM32H7xx_HAL_Driver/Src/stm32h7xx_ll_fmc.c ****   UNUSED(Bank);
 661              		.loc 1 621 3 view .LVU209
 622:../../Drivers/STM32H7xx_HAL_Driver/Src/stm32h7xx_ll_fmc.c **** 
 623:../../Drivers/STM32H7xx_HAL_Driver/Src/stm32h7xx_ll_fmc.c ****   /* Set the FMC_NAND_BANK3 registers to their reset values */
 624:../../Drivers/STM32H7xx_HAL_Driver/Src/stm32h7xx_ll_fmc.c ****   WRITE_REG(Device->PCR,  0x00000018U);
 662              		.loc 1 624 3 view .LVU210
 663 0008 1823     		movs	r3, #24
 664 000a 0360     		str	r3, [r0]
 625:../../Drivers/STM32H7xx_HAL_Driver/Src/stm32h7xx_ll_fmc.c ****   WRITE_REG(Device->SR,   0x00000040U);
 665              		.loc 1 625 3 view .LVU211
 666 000c 4023     		movs	r3, #64
 667 000e 4360     		str	r3, [r0, #4]
 626:../../Drivers/STM32H7xx_HAL_Driver/Src/stm32h7xx_ll_fmc.c ****   WRITE_REG(Device->PMEM, 0xFCFCFCFCU);
 668              		.loc 1 626 3 view .LVU212
 669 0010 4FF0FC33 		mov	r3, #-50529028
 670 0014 8360     		str	r3, [r0, #8]
 627:../../Drivers/STM32H7xx_HAL_Driver/Src/stm32h7xx_ll_fmc.c ****   WRITE_REG(Device->PATT, 0xFCFCFCFCU);
 671              		.loc 1 627 3 view .LVU213
 672 0016 C360     		str	r3, [r0, #12]
 628:../../Drivers/STM32H7xx_HAL_Driver/Src/stm32h7xx_ll_fmc.c **** 
 629:../../Drivers/STM32H7xx_HAL_Driver/Src/stm32h7xx_ll_fmc.c ****   return HAL_OK;
ARM GAS  C:\Users\28576\AppData\Local\Temp\ccYw9wfC.s 			page 24


 673              		.loc 1 629 3 view .LVU214
 630:../../Drivers/STM32H7xx_HAL_Driver/Src/stm32h7xx_ll_fmc.c **** }
 674              		.loc 1 630 1 is_stmt 0 view .LVU215
 675 0018 0020     		movs	r0, #0
 676              	.LVL44:
 677              		.loc 1 630 1 view .LVU216
 678 001a 7047     		bx	lr
 679              		.cfi_endproc
 680              	.LFE153:
 682              		.section	.text.FMC_NAND_ECC_Enable,"ax",%progbits
 683              		.align	1
 684              		.global	FMC_NAND_ECC_Enable
 685              		.syntax unified
 686              		.thumb
 687              		.thumb_func
 689              	FMC_NAND_ECC_Enable:
 690              	.LVL45:
 691              	.LFB154:
 631:../../Drivers/STM32H7xx_HAL_Driver/Src/stm32h7xx_ll_fmc.c **** 
 632:../../Drivers/STM32H7xx_HAL_Driver/Src/stm32h7xx_ll_fmc.c **** /**
 633:../../Drivers/STM32H7xx_HAL_Driver/Src/stm32h7xx_ll_fmc.c ****   * @}
 634:../../Drivers/STM32H7xx_HAL_Driver/Src/stm32h7xx_ll_fmc.c ****   */
 635:../../Drivers/STM32H7xx_HAL_Driver/Src/stm32h7xx_ll_fmc.c **** 
 636:../../Drivers/STM32H7xx_HAL_Driver/Src/stm32h7xx_ll_fmc.c **** /** @defgroup HAL_FMC_NAND_Group2 Peripheral Control functions
 637:../../Drivers/STM32H7xx_HAL_Driver/Src/stm32h7xx_ll_fmc.c ****   *  @brief   management functions
 638:../../Drivers/STM32H7xx_HAL_Driver/Src/stm32h7xx_ll_fmc.c ****   *
 639:../../Drivers/STM32H7xx_HAL_Driver/Src/stm32h7xx_ll_fmc.c **** @verbatim
 640:../../Drivers/STM32H7xx_HAL_Driver/Src/stm32h7xx_ll_fmc.c ****   ==============================================================================
 641:../../Drivers/STM32H7xx_HAL_Driver/Src/stm32h7xx_ll_fmc.c ****                        ##### FMC_NAND Control functions #####
 642:../../Drivers/STM32H7xx_HAL_Driver/Src/stm32h7xx_ll_fmc.c ****   ==============================================================================
 643:../../Drivers/STM32H7xx_HAL_Driver/Src/stm32h7xx_ll_fmc.c ****   [..]
 644:../../Drivers/STM32H7xx_HAL_Driver/Src/stm32h7xx_ll_fmc.c ****     This subsection provides a set of functions allowing to control dynamically
 645:../../Drivers/STM32H7xx_HAL_Driver/Src/stm32h7xx_ll_fmc.c ****     the FMC NAND interface.
 646:../../Drivers/STM32H7xx_HAL_Driver/Src/stm32h7xx_ll_fmc.c **** 
 647:../../Drivers/STM32H7xx_HAL_Driver/Src/stm32h7xx_ll_fmc.c **** @endverbatim
 648:../../Drivers/STM32H7xx_HAL_Driver/Src/stm32h7xx_ll_fmc.c ****   * @{
 649:../../Drivers/STM32H7xx_HAL_Driver/Src/stm32h7xx_ll_fmc.c ****   */
 650:../../Drivers/STM32H7xx_HAL_Driver/Src/stm32h7xx_ll_fmc.c **** 
 651:../../Drivers/STM32H7xx_HAL_Driver/Src/stm32h7xx_ll_fmc.c **** 
 652:../../Drivers/STM32H7xx_HAL_Driver/Src/stm32h7xx_ll_fmc.c **** /**
 653:../../Drivers/STM32H7xx_HAL_Driver/Src/stm32h7xx_ll_fmc.c ****   * @brief  Enables dynamically FMC_NAND ECC feature.
 654:../../Drivers/STM32H7xx_HAL_Driver/Src/stm32h7xx_ll_fmc.c ****   * @param  Device Pointer to NAND device instance
 655:../../Drivers/STM32H7xx_HAL_Driver/Src/stm32h7xx_ll_fmc.c ****   * @param  Bank NAND bank number
 656:../../Drivers/STM32H7xx_HAL_Driver/Src/stm32h7xx_ll_fmc.c ****   * @retval HAL status
 657:../../Drivers/STM32H7xx_HAL_Driver/Src/stm32h7xx_ll_fmc.c ****   */
 658:../../Drivers/STM32H7xx_HAL_Driver/Src/stm32h7xx_ll_fmc.c **** HAL_StatusTypeDef FMC_NAND_ECC_Enable(FMC_NAND_TypeDef *Device, uint32_t Bank)
 659:../../Drivers/STM32H7xx_HAL_Driver/Src/stm32h7xx_ll_fmc.c **** {
 692              		.loc 1 659 1 is_stmt 1 view -0
 693              		.cfi_startproc
 694              		@ args = 0, pretend = 0, frame = 0
 695              		@ frame_needed = 0, uses_anonymous_args = 0
 696              		@ link register save eliminated.
 660:../../Drivers/STM32H7xx_HAL_Driver/Src/stm32h7xx_ll_fmc.c ****   /* Check the parameters */
 661:../../Drivers/STM32H7xx_HAL_Driver/Src/stm32h7xx_ll_fmc.c ****   assert_param(IS_FMC_NAND_DEVICE(Device));
 697              		.loc 1 661 3 view .LVU218
 662:../../Drivers/STM32H7xx_HAL_Driver/Src/stm32h7xx_ll_fmc.c ****   assert_param(IS_FMC_NAND_BANK(Bank));
 698              		.loc 1 662 3 view .LVU219
ARM GAS  C:\Users\28576\AppData\Local\Temp\ccYw9wfC.s 			page 25


 663:../../Drivers/STM32H7xx_HAL_Driver/Src/stm32h7xx_ll_fmc.c **** 
 664:../../Drivers/STM32H7xx_HAL_Driver/Src/stm32h7xx_ll_fmc.c ****   /* Enable ECC feature */
 665:../../Drivers/STM32H7xx_HAL_Driver/Src/stm32h7xx_ll_fmc.c ****   /* Prevent unused argument(s) compilation warning if no assert_param check */
 666:../../Drivers/STM32H7xx_HAL_Driver/Src/stm32h7xx_ll_fmc.c ****   UNUSED(Bank);
 699              		.loc 1 666 3 view .LVU220
 667:../../Drivers/STM32H7xx_HAL_Driver/Src/stm32h7xx_ll_fmc.c **** 
 668:../../Drivers/STM32H7xx_HAL_Driver/Src/stm32h7xx_ll_fmc.c ****   SET_BIT(Device->PCR, FMC_PCR_ECCEN);
 700              		.loc 1 668 3 view .LVU221
 701 0000 0368     		ldr	r3, [r0]
 702 0002 43F04003 		orr	r3, r3, #64
 703 0006 0360     		str	r3, [r0]
 669:../../Drivers/STM32H7xx_HAL_Driver/Src/stm32h7xx_ll_fmc.c **** 
 670:../../Drivers/STM32H7xx_HAL_Driver/Src/stm32h7xx_ll_fmc.c ****   return HAL_OK;
 704              		.loc 1 670 3 view .LVU222
 671:../../Drivers/STM32H7xx_HAL_Driver/Src/stm32h7xx_ll_fmc.c **** }
 705              		.loc 1 671 1 is_stmt 0 view .LVU223
 706 0008 0020     		movs	r0, #0
 707              	.LVL46:
 708              		.loc 1 671 1 view .LVU224
 709 000a 7047     		bx	lr
 710              		.cfi_endproc
 711              	.LFE154:
 713              		.section	.text.FMC_NAND_ECC_Disable,"ax",%progbits
 714              		.align	1
 715              		.global	FMC_NAND_ECC_Disable
 716              		.syntax unified
 717              		.thumb
 718              		.thumb_func
 720              	FMC_NAND_ECC_Disable:
 721              	.LVL47:
 722              	.LFB155:
 672:../../Drivers/STM32H7xx_HAL_Driver/Src/stm32h7xx_ll_fmc.c **** 
 673:../../Drivers/STM32H7xx_HAL_Driver/Src/stm32h7xx_ll_fmc.c **** 
 674:../../Drivers/STM32H7xx_HAL_Driver/Src/stm32h7xx_ll_fmc.c **** /**
 675:../../Drivers/STM32H7xx_HAL_Driver/Src/stm32h7xx_ll_fmc.c ****   * @brief  Disables dynamically FMC_NAND ECC feature.
 676:../../Drivers/STM32H7xx_HAL_Driver/Src/stm32h7xx_ll_fmc.c ****   * @param  Device Pointer to NAND device instance
 677:../../Drivers/STM32H7xx_HAL_Driver/Src/stm32h7xx_ll_fmc.c ****   * @param  Bank NAND bank number
 678:../../Drivers/STM32H7xx_HAL_Driver/Src/stm32h7xx_ll_fmc.c ****   * @retval HAL status
 679:../../Drivers/STM32H7xx_HAL_Driver/Src/stm32h7xx_ll_fmc.c ****   */
 680:../../Drivers/STM32H7xx_HAL_Driver/Src/stm32h7xx_ll_fmc.c **** HAL_StatusTypeDef FMC_NAND_ECC_Disable(FMC_NAND_TypeDef *Device, uint32_t Bank)
 681:../../Drivers/STM32H7xx_HAL_Driver/Src/stm32h7xx_ll_fmc.c **** {
 723              		.loc 1 681 1 is_stmt 1 view -0
 724              		.cfi_startproc
 725              		@ args = 0, pretend = 0, frame = 0
 726              		@ frame_needed = 0, uses_anonymous_args = 0
 727              		@ link register save eliminated.
 682:../../Drivers/STM32H7xx_HAL_Driver/Src/stm32h7xx_ll_fmc.c ****   /* Check the parameters */
 683:../../Drivers/STM32H7xx_HAL_Driver/Src/stm32h7xx_ll_fmc.c ****   assert_param(IS_FMC_NAND_DEVICE(Device));
 728              		.loc 1 683 3 view .LVU226
 684:../../Drivers/STM32H7xx_HAL_Driver/Src/stm32h7xx_ll_fmc.c ****   assert_param(IS_FMC_NAND_BANK(Bank));
 729              		.loc 1 684 3 view .LVU227
 685:../../Drivers/STM32H7xx_HAL_Driver/Src/stm32h7xx_ll_fmc.c **** 
 686:../../Drivers/STM32H7xx_HAL_Driver/Src/stm32h7xx_ll_fmc.c ****   /* Disable ECC feature */
 687:../../Drivers/STM32H7xx_HAL_Driver/Src/stm32h7xx_ll_fmc.c ****   /* Prevent unused argument(s) compilation warning if no assert_param check */
 688:../../Drivers/STM32H7xx_HAL_Driver/Src/stm32h7xx_ll_fmc.c ****   UNUSED(Bank);
 730              		.loc 1 688 3 view .LVU228
 689:../../Drivers/STM32H7xx_HAL_Driver/Src/stm32h7xx_ll_fmc.c **** 
ARM GAS  C:\Users\28576\AppData\Local\Temp\ccYw9wfC.s 			page 26


 690:../../Drivers/STM32H7xx_HAL_Driver/Src/stm32h7xx_ll_fmc.c ****   CLEAR_BIT(Device->PCR, FMC_PCR_ECCEN);
 731              		.loc 1 690 3 view .LVU229
 732 0000 0368     		ldr	r3, [r0]
 733 0002 23F04003 		bic	r3, r3, #64
 734 0006 0360     		str	r3, [r0]
 691:../../Drivers/STM32H7xx_HAL_Driver/Src/stm32h7xx_ll_fmc.c **** 
 692:../../Drivers/STM32H7xx_HAL_Driver/Src/stm32h7xx_ll_fmc.c ****   return HAL_OK;
 735              		.loc 1 692 3 view .LVU230
 693:../../Drivers/STM32H7xx_HAL_Driver/Src/stm32h7xx_ll_fmc.c **** }
 736              		.loc 1 693 1 is_stmt 0 view .LVU231
 737 0008 0020     		movs	r0, #0
 738              	.LVL48:
 739              		.loc 1 693 1 view .LVU232
 740 000a 7047     		bx	lr
 741              		.cfi_endproc
 742              	.LFE155:
 744              		.section	.text.FMC_NAND_GetECC,"ax",%progbits
 745              		.align	1
 746              		.global	FMC_NAND_GetECC
 747              		.syntax unified
 748              		.thumb
 749              		.thumb_func
 751              	FMC_NAND_GetECC:
 752              	.LVL49:
 753              	.LFB156:
 694:../../Drivers/STM32H7xx_HAL_Driver/Src/stm32h7xx_ll_fmc.c **** 
 695:../../Drivers/STM32H7xx_HAL_Driver/Src/stm32h7xx_ll_fmc.c **** /**
 696:../../Drivers/STM32H7xx_HAL_Driver/Src/stm32h7xx_ll_fmc.c ****   * @brief  Disables dynamically FMC_NAND ECC feature.
 697:../../Drivers/STM32H7xx_HAL_Driver/Src/stm32h7xx_ll_fmc.c ****   * @param  Device Pointer to NAND device instance
 698:../../Drivers/STM32H7xx_HAL_Driver/Src/stm32h7xx_ll_fmc.c ****   * @param  ECCval Pointer to ECC value
 699:../../Drivers/STM32H7xx_HAL_Driver/Src/stm32h7xx_ll_fmc.c ****   * @param  Bank NAND bank number
 700:../../Drivers/STM32H7xx_HAL_Driver/Src/stm32h7xx_ll_fmc.c ****   * @param  Timeout Timeout wait value
 701:../../Drivers/STM32H7xx_HAL_Driver/Src/stm32h7xx_ll_fmc.c ****   * @retval HAL status
 702:../../Drivers/STM32H7xx_HAL_Driver/Src/stm32h7xx_ll_fmc.c ****   */
 703:../../Drivers/STM32H7xx_HAL_Driver/Src/stm32h7xx_ll_fmc.c **** HAL_StatusTypeDef FMC_NAND_GetECC(FMC_NAND_TypeDef *Device, uint32_t *ECCval, uint32_t Bank,
 704:../../Drivers/STM32H7xx_HAL_Driver/Src/stm32h7xx_ll_fmc.c ****                                   uint32_t Timeout)
 705:../../Drivers/STM32H7xx_HAL_Driver/Src/stm32h7xx_ll_fmc.c **** {
 754              		.loc 1 705 1 is_stmt 1 view -0
 755              		.cfi_startproc
 756              		@ args = 0, pretend = 0, frame = 0
 757              		@ frame_needed = 0, uses_anonymous_args = 0
 758              		.loc 1 705 1 is_stmt 0 view .LVU234
 759 0000 F8B5     		push	{r3, r4, r5, r6, r7, lr}
 760              	.LCFI6:
 761              		.cfi_def_cfa_offset 24
 762              		.cfi_offset 3, -24
 763              		.cfi_offset 4, -20
 764              		.cfi_offset 5, -16
 765              		.cfi_offset 6, -12
 766              		.cfi_offset 7, -8
 767              		.cfi_offset 14, -4
 768 0002 0446     		mov	r4, r0
 769 0004 0E46     		mov	r6, r1
 770 0006 1D46     		mov	r5, r3
 706:../../Drivers/STM32H7xx_HAL_Driver/Src/stm32h7xx_ll_fmc.c ****   uint32_t tickstart;
 771              		.loc 1 706 3 is_stmt 1 view .LVU235
 707:../../Drivers/STM32H7xx_HAL_Driver/Src/stm32h7xx_ll_fmc.c **** 
ARM GAS  C:\Users\28576\AppData\Local\Temp\ccYw9wfC.s 			page 27


 708:../../Drivers/STM32H7xx_HAL_Driver/Src/stm32h7xx_ll_fmc.c ****   /* Check the parameters */
 709:../../Drivers/STM32H7xx_HAL_Driver/Src/stm32h7xx_ll_fmc.c ****   assert_param(IS_FMC_NAND_DEVICE(Device));
 772              		.loc 1 709 3 view .LVU236
 710:../../Drivers/STM32H7xx_HAL_Driver/Src/stm32h7xx_ll_fmc.c ****   assert_param(IS_FMC_NAND_BANK(Bank));
 773              		.loc 1 710 3 view .LVU237
 711:../../Drivers/STM32H7xx_HAL_Driver/Src/stm32h7xx_ll_fmc.c **** 
 712:../../Drivers/STM32H7xx_HAL_Driver/Src/stm32h7xx_ll_fmc.c ****   /* Get tick */
 713:../../Drivers/STM32H7xx_HAL_Driver/Src/stm32h7xx_ll_fmc.c ****   tickstart = HAL_GetTick();
 774              		.loc 1 713 3 view .LVU238
 775              		.loc 1 713 15 is_stmt 0 view .LVU239
 776 0008 FFF7FEFF 		bl	HAL_GetTick
 777              	.LVL50:
 778              		.loc 1 713 15 view .LVU240
 779 000c 0746     		mov	r7, r0
 780              	.LVL51:
 714:../../Drivers/STM32H7xx_HAL_Driver/Src/stm32h7xx_ll_fmc.c **** 
 715:../../Drivers/STM32H7xx_HAL_Driver/Src/stm32h7xx_ll_fmc.c ****   /* Wait until FIFO is empty */
 716:../../Drivers/STM32H7xx_HAL_Driver/Src/stm32h7xx_ll_fmc.c ****   while (__FMC_NAND_GET_FLAG(Device, Bank, FMC_FLAG_FEMPT) == RESET)
 781              		.loc 1 716 3 is_stmt 1 view .LVU241
 782              	.L40:
 783              		.loc 1 716 60 view .LVU242
 784              		.loc 1 716 10 is_stmt 0 view .LVU243
 785 000e 6268     		ldr	r2, [r4, #4]
 786              		.loc 1 716 60 view .LVU244
 787 0010 12F0400F 		tst	r2, #64
 788 0014 0BD1     		bne	.L46
 717:../../Drivers/STM32H7xx_HAL_Driver/Src/stm32h7xx_ll_fmc.c ****   {
 718:../../Drivers/STM32H7xx_HAL_Driver/Src/stm32h7xx_ll_fmc.c ****     /* Check for the Timeout */
 719:../../Drivers/STM32H7xx_HAL_Driver/Src/stm32h7xx_ll_fmc.c ****     if (Timeout != HAL_MAX_DELAY)
 789              		.loc 1 719 5 is_stmt 1 view .LVU245
 790              		.loc 1 719 8 is_stmt 0 view .LVU246
 791 0016 B5F1FF3F 		cmp	r5, #-1
 792 001a F8D0     		beq	.L40
 720:../../Drivers/STM32H7xx_HAL_Driver/Src/stm32h7xx_ll_fmc.c ****     {
 721:../../Drivers/STM32H7xx_HAL_Driver/Src/stm32h7xx_ll_fmc.c ****       if (((HAL_GetTick() - tickstart) > Timeout) || (Timeout == 0U))
 793              		.loc 1 721 7 is_stmt 1 view .LVU247
 794              		.loc 1 721 13 is_stmt 0 view .LVU248
 795 001c FFF7FEFF 		bl	HAL_GetTick
 796              	.LVL52:
 797              		.loc 1 721 27 discriminator 1 view .LVU249
 798 0020 C01B     		subs	r0, r0, r7
 799              		.loc 1 721 10 discriminator 1 view .LVU250
 800 0022 A842     		cmp	r0, r5
 801 0024 07D8     		bhi	.L43
 802              		.loc 1 721 51 discriminator 2 view .LVU251
 803 0026 002D     		cmp	r5, #0
 804 0028 F1D1     		bne	.L40
 722:../../Drivers/STM32H7xx_HAL_Driver/Src/stm32h7xx_ll_fmc.c ****       {
 723:../../Drivers/STM32H7xx_HAL_Driver/Src/stm32h7xx_ll_fmc.c ****         return HAL_TIMEOUT;
 805              		.loc 1 723 16 view .LVU252
 806 002a 0320     		movs	r0, #3
 807 002c 02E0     		b	.L41
 808              	.L46:
 724:../../Drivers/STM32H7xx_HAL_Driver/Src/stm32h7xx_ll_fmc.c ****       }
 725:../../Drivers/STM32H7xx_HAL_Driver/Src/stm32h7xx_ll_fmc.c ****     }
 726:../../Drivers/STM32H7xx_HAL_Driver/Src/stm32h7xx_ll_fmc.c ****   }
 727:../../Drivers/STM32H7xx_HAL_Driver/Src/stm32h7xx_ll_fmc.c **** 
ARM GAS  C:\Users\28576\AppData\Local\Temp\ccYw9wfC.s 			page 28


 728:../../Drivers/STM32H7xx_HAL_Driver/Src/stm32h7xx_ll_fmc.c ****   /* Prevent unused argument(s) compilation warning if no assert_param check */
 729:../../Drivers/STM32H7xx_HAL_Driver/Src/stm32h7xx_ll_fmc.c ****   UNUSED(Bank);
 809              		.loc 1 729 3 is_stmt 1 view .LVU253
 730:../../Drivers/STM32H7xx_HAL_Driver/Src/stm32h7xx_ll_fmc.c **** 
 731:../../Drivers/STM32H7xx_HAL_Driver/Src/stm32h7xx_ll_fmc.c ****   /* Get the ECCR register value */
 732:../../Drivers/STM32H7xx_HAL_Driver/Src/stm32h7xx_ll_fmc.c ****   *ECCval = (uint32_t)Device->ECCR;
 810              		.loc 1 732 3 view .LVU254
 811              		.loc 1 732 29 is_stmt 0 view .LVU255
 812 002e 6369     		ldr	r3, [r4, #20]
 813              		.loc 1 732 11 view .LVU256
 814 0030 3360     		str	r3, [r6]
 733:../../Drivers/STM32H7xx_HAL_Driver/Src/stm32h7xx_ll_fmc.c **** 
 734:../../Drivers/STM32H7xx_HAL_Driver/Src/stm32h7xx_ll_fmc.c ****   return HAL_OK;
 815              		.loc 1 734 3 is_stmt 1 view .LVU257
 816              		.loc 1 734 10 is_stmt 0 view .LVU258
 817 0032 0020     		movs	r0, #0
 818              	.L41:
 735:../../Drivers/STM32H7xx_HAL_Driver/Src/stm32h7xx_ll_fmc.c **** }
 819              		.loc 1 735 1 view .LVU259
 820 0034 F8BD     		pop	{r3, r4, r5, r6, r7, pc}
 821              	.LVL53:
 822              	.L43:
 723:../../Drivers/STM32H7xx_HAL_Driver/Src/stm32h7xx_ll_fmc.c ****       }
 823              		.loc 1 723 16 view .LVU260
 824 0036 0320     		movs	r0, #3
 825 0038 FCE7     		b	.L41
 826              		.cfi_endproc
 827              	.LFE156:
 829              		.section	.text.FMC_SDRAM_Init,"ax",%progbits
 830              		.align	1
 831              		.global	FMC_SDRAM_Init
 832              		.syntax unified
 833              		.thumb
 834              		.thumb_func
 836              	FMC_SDRAM_Init:
 837              	.LVL54:
 838              	.LFB157:
 736:../../Drivers/STM32H7xx_HAL_Driver/Src/stm32h7xx_ll_fmc.c **** 
 737:../../Drivers/STM32H7xx_HAL_Driver/Src/stm32h7xx_ll_fmc.c **** /**
 738:../../Drivers/STM32H7xx_HAL_Driver/Src/stm32h7xx_ll_fmc.c ****   * @}
 739:../../Drivers/STM32H7xx_HAL_Driver/Src/stm32h7xx_ll_fmc.c ****   */
 740:../../Drivers/STM32H7xx_HAL_Driver/Src/stm32h7xx_ll_fmc.c **** 
 741:../../Drivers/STM32H7xx_HAL_Driver/Src/stm32h7xx_ll_fmc.c **** 
 742:../../Drivers/STM32H7xx_HAL_Driver/Src/stm32h7xx_ll_fmc.c **** 
 743:../../Drivers/STM32H7xx_HAL_Driver/Src/stm32h7xx_ll_fmc.c **** /** @defgroup FMC_LL_SDRAM
 744:../../Drivers/STM32H7xx_HAL_Driver/Src/stm32h7xx_ll_fmc.c ****   * @brief    SDRAM Controller functions
 745:../../Drivers/STM32H7xx_HAL_Driver/Src/stm32h7xx_ll_fmc.c ****   *
 746:../../Drivers/STM32H7xx_HAL_Driver/Src/stm32h7xx_ll_fmc.c ****   @verbatim
 747:../../Drivers/STM32H7xx_HAL_Driver/Src/stm32h7xx_ll_fmc.c ****   ==============================================================================
 748:../../Drivers/STM32H7xx_HAL_Driver/Src/stm32h7xx_ll_fmc.c ****                      ##### How to use SDRAM device driver #####
 749:../../Drivers/STM32H7xx_HAL_Driver/Src/stm32h7xx_ll_fmc.c ****   ==============================================================================
 750:../../Drivers/STM32H7xx_HAL_Driver/Src/stm32h7xx_ll_fmc.c ****   [..]
 751:../../Drivers/STM32H7xx_HAL_Driver/Src/stm32h7xx_ll_fmc.c ****     This driver contains a set of APIs to interface with the FMC SDRAM banks in order
 752:../../Drivers/STM32H7xx_HAL_Driver/Src/stm32h7xx_ll_fmc.c ****     to run the SDRAM external devices.
 753:../../Drivers/STM32H7xx_HAL_Driver/Src/stm32h7xx_ll_fmc.c **** 
 754:../../Drivers/STM32H7xx_HAL_Driver/Src/stm32h7xx_ll_fmc.c ****     (+) FMC SDRAM bank reset using the function FMC_SDRAM_DeInit()
 755:../../Drivers/STM32H7xx_HAL_Driver/Src/stm32h7xx_ll_fmc.c ****     (+) FMC SDRAM bank control configuration using the function FMC_SDRAM_Init()
ARM GAS  C:\Users\28576\AppData\Local\Temp\ccYw9wfC.s 			page 29


 756:../../Drivers/STM32H7xx_HAL_Driver/Src/stm32h7xx_ll_fmc.c ****     (+) FMC SDRAM bank timing configuration using the function FMC_SDRAM_Timing_Init()
 757:../../Drivers/STM32H7xx_HAL_Driver/Src/stm32h7xx_ll_fmc.c ****     (+) FMC SDRAM bank enable/disable write operation using the functions
 758:../../Drivers/STM32H7xx_HAL_Driver/Src/stm32h7xx_ll_fmc.c ****         FMC_SDRAM_WriteOperation_Enable()/FMC_SDRAM_WriteOperation_Disable()
 759:../../Drivers/STM32H7xx_HAL_Driver/Src/stm32h7xx_ll_fmc.c ****     (+) FMC SDRAM bank send command using the function FMC_SDRAM_SendCommand()
 760:../../Drivers/STM32H7xx_HAL_Driver/Src/stm32h7xx_ll_fmc.c **** 
 761:../../Drivers/STM32H7xx_HAL_Driver/Src/stm32h7xx_ll_fmc.c **** @endverbatim
 762:../../Drivers/STM32H7xx_HAL_Driver/Src/stm32h7xx_ll_fmc.c ****   * @{
 763:../../Drivers/STM32H7xx_HAL_Driver/Src/stm32h7xx_ll_fmc.c ****   */
 764:../../Drivers/STM32H7xx_HAL_Driver/Src/stm32h7xx_ll_fmc.c **** 
 765:../../Drivers/STM32H7xx_HAL_Driver/Src/stm32h7xx_ll_fmc.c **** /** @addtogroup FMC_LL_SDRAM_Private_Functions_Group1
 766:../../Drivers/STM32H7xx_HAL_Driver/Src/stm32h7xx_ll_fmc.c ****   *  @brief    Initialization and Configuration functions
 767:../../Drivers/STM32H7xx_HAL_Driver/Src/stm32h7xx_ll_fmc.c ****   *
 768:../../Drivers/STM32H7xx_HAL_Driver/Src/stm32h7xx_ll_fmc.c **** @verbatim
 769:../../Drivers/STM32H7xx_HAL_Driver/Src/stm32h7xx_ll_fmc.c ****   ==============================================================================
 770:../../Drivers/STM32H7xx_HAL_Driver/Src/stm32h7xx_ll_fmc.c ****               ##### Initialization and de_initialization functions #####
 771:../../Drivers/STM32H7xx_HAL_Driver/Src/stm32h7xx_ll_fmc.c ****   ==============================================================================
 772:../../Drivers/STM32H7xx_HAL_Driver/Src/stm32h7xx_ll_fmc.c ****   [..]
 773:../../Drivers/STM32H7xx_HAL_Driver/Src/stm32h7xx_ll_fmc.c ****     This section provides functions allowing to:
 774:../../Drivers/STM32H7xx_HAL_Driver/Src/stm32h7xx_ll_fmc.c ****     (+) Initialize and configure the FMC SDRAM interface
 775:../../Drivers/STM32H7xx_HAL_Driver/Src/stm32h7xx_ll_fmc.c ****     (+) De-initialize the FMC SDRAM interface
 776:../../Drivers/STM32H7xx_HAL_Driver/Src/stm32h7xx_ll_fmc.c ****     (+) Configure the FMC clock and associated GPIOs
 777:../../Drivers/STM32H7xx_HAL_Driver/Src/stm32h7xx_ll_fmc.c **** 
 778:../../Drivers/STM32H7xx_HAL_Driver/Src/stm32h7xx_ll_fmc.c **** @endverbatim
 779:../../Drivers/STM32H7xx_HAL_Driver/Src/stm32h7xx_ll_fmc.c ****   * @{
 780:../../Drivers/STM32H7xx_HAL_Driver/Src/stm32h7xx_ll_fmc.c ****   */
 781:../../Drivers/STM32H7xx_HAL_Driver/Src/stm32h7xx_ll_fmc.c **** 
 782:../../Drivers/STM32H7xx_HAL_Driver/Src/stm32h7xx_ll_fmc.c **** /**
 783:../../Drivers/STM32H7xx_HAL_Driver/Src/stm32h7xx_ll_fmc.c ****   * @brief  Initializes the FMC_SDRAM device according to the specified
 784:../../Drivers/STM32H7xx_HAL_Driver/Src/stm32h7xx_ll_fmc.c ****   *         control parameters in the FMC_SDRAM_InitTypeDef
 785:../../Drivers/STM32H7xx_HAL_Driver/Src/stm32h7xx_ll_fmc.c ****   * @param  Device Pointer to SDRAM device instance
 786:../../Drivers/STM32H7xx_HAL_Driver/Src/stm32h7xx_ll_fmc.c ****   * @param  Init Pointer to SDRAM Initialization structure
 787:../../Drivers/STM32H7xx_HAL_Driver/Src/stm32h7xx_ll_fmc.c ****   * @retval HAL status
 788:../../Drivers/STM32H7xx_HAL_Driver/Src/stm32h7xx_ll_fmc.c ****   */
 789:../../Drivers/STM32H7xx_HAL_Driver/Src/stm32h7xx_ll_fmc.c **** HAL_StatusTypeDef FMC_SDRAM_Init(FMC_SDRAM_TypeDef *Device, FMC_SDRAM_InitTypeDef *Init)
 790:../../Drivers/STM32H7xx_HAL_Driver/Src/stm32h7xx_ll_fmc.c **** {
 839              		.loc 1 790 1 is_stmt 1 view -0
 840              		.cfi_startproc
 841              		@ args = 0, pretend = 0, frame = 0
 842              		@ frame_needed = 0, uses_anonymous_args = 0
 843              		@ link register save eliminated.
 844              		.loc 1 790 1 is_stmt 0 view .LVU262
 845 0000 10B4     		push	{r4}
 846              	.LCFI7:
 847              		.cfi_def_cfa_offset 4
 848              		.cfi_offset 4, -4
 791:../../Drivers/STM32H7xx_HAL_Driver/Src/stm32h7xx_ll_fmc.c ****   /* Check the parameters */
 792:../../Drivers/STM32H7xx_HAL_Driver/Src/stm32h7xx_ll_fmc.c ****   assert_param(IS_FMC_SDRAM_DEVICE(Device));
 849              		.loc 1 792 3 is_stmt 1 view .LVU263
 793:../../Drivers/STM32H7xx_HAL_Driver/Src/stm32h7xx_ll_fmc.c ****   assert_param(IS_FMC_SDRAM_BANK(Init->SDBank));
 850              		.loc 1 793 3 view .LVU264
 794:../../Drivers/STM32H7xx_HAL_Driver/Src/stm32h7xx_ll_fmc.c ****   assert_param(IS_FMC_COLUMNBITS_NUMBER(Init->ColumnBitsNumber));
 851              		.loc 1 794 3 view .LVU265
 795:../../Drivers/STM32H7xx_HAL_Driver/Src/stm32h7xx_ll_fmc.c ****   assert_param(IS_FMC_ROWBITS_NUMBER(Init->RowBitsNumber));
 852              		.loc 1 795 3 view .LVU266
 796:../../Drivers/STM32H7xx_HAL_Driver/Src/stm32h7xx_ll_fmc.c ****   assert_param(IS_FMC_SDMEMORY_WIDTH(Init->MemoryDataWidth));
 853              		.loc 1 796 3 view .LVU267
 797:../../Drivers/STM32H7xx_HAL_Driver/Src/stm32h7xx_ll_fmc.c ****   assert_param(IS_FMC_INTERNALBANK_NUMBER(Init->InternalBankNumber));
ARM GAS  C:\Users\28576\AppData\Local\Temp\ccYw9wfC.s 			page 30


 854              		.loc 1 797 3 view .LVU268
 798:../../Drivers/STM32H7xx_HAL_Driver/Src/stm32h7xx_ll_fmc.c ****   assert_param(IS_FMC_CAS_LATENCY(Init->CASLatency));
 855              		.loc 1 798 3 view .LVU269
 799:../../Drivers/STM32H7xx_HAL_Driver/Src/stm32h7xx_ll_fmc.c ****   assert_param(IS_FMC_WRITE_PROTECTION(Init->WriteProtection));
 856              		.loc 1 799 3 view .LVU270
 800:../../Drivers/STM32H7xx_HAL_Driver/Src/stm32h7xx_ll_fmc.c ****   assert_param(IS_FMC_SDCLOCK_PERIOD(Init->SDClockPeriod));
 857              		.loc 1 800 3 view .LVU271
 801:../../Drivers/STM32H7xx_HAL_Driver/Src/stm32h7xx_ll_fmc.c ****   assert_param(IS_FMC_READ_BURST(Init->ReadBurst));
 858              		.loc 1 801 3 view .LVU272
 802:../../Drivers/STM32H7xx_HAL_Driver/Src/stm32h7xx_ll_fmc.c ****   assert_param(IS_FMC_READPIPE_DELAY(Init->ReadPipeDelay));
 859              		.loc 1 802 3 view .LVU273
 803:../../Drivers/STM32H7xx_HAL_Driver/Src/stm32h7xx_ll_fmc.c **** 
 804:../../Drivers/STM32H7xx_HAL_Driver/Src/stm32h7xx_ll_fmc.c ****   /* Set SDRAM bank configuration parameters */
 805:../../Drivers/STM32H7xx_HAL_Driver/Src/stm32h7xx_ll_fmc.c ****   if (Init->SDBank == FMC_SDRAM_BANK1)
 860              		.loc 1 805 3 view .LVU274
 861              		.loc 1 805 11 is_stmt 0 view .LVU275
 862 0002 0B68     		ldr	r3, [r1]
 863              		.loc 1 805 6 view .LVU276
 864 0004 C3B9     		cbnz	r3, .L48
 806:../../Drivers/STM32H7xx_HAL_Driver/Src/stm32h7xx_ll_fmc.c ****   {
 807:../../Drivers/STM32H7xx_HAL_Driver/Src/stm32h7xx_ll_fmc.c ****     MODIFY_REG(Device->SDCR[FMC_SDRAM_BANK1],
 865              		.loc 1 807 5 is_stmt 1 view .LVU277
 866 0006 0268     		ldr	r2, [r0]
 867 0008 6FF30E02 		bfc	r2, #0, #15
 868 000c 4B68     		ldr	r3, [r1, #4]
 869 000e 8C68     		ldr	r4, [r1, #8]
 870 0010 2343     		orrs	r3, r3, r4
 871 0012 CC68     		ldr	r4, [r1, #12]
 872 0014 2343     		orrs	r3, r3, r4
 873 0016 0C69     		ldr	r4, [r1, #16]
 874 0018 2343     		orrs	r3, r3, r4
 875 001a 4C69     		ldr	r4, [r1, #20]
 876 001c 2343     		orrs	r3, r3, r4
 877 001e 8C69     		ldr	r4, [r1, #24]
 878 0020 2343     		orrs	r3, r3, r4
 879 0022 CC69     		ldr	r4, [r1, #28]
 880 0024 2343     		orrs	r3, r3, r4
 881 0026 0C6A     		ldr	r4, [r1, #32]
 882 0028 2343     		orrs	r3, r3, r4
 883 002a 496A     		ldr	r1, [r1, #36]
 884              	.LVL55:
 885              		.loc 1 807 5 is_stmt 0 view .LVU278
 886 002c 0B43     		orrs	r3, r3, r1
 887 002e 1343     		orrs	r3, r3, r2
 888 0030 0360     		str	r3, [r0]
 889              	.L49:
 808:../../Drivers/STM32H7xx_HAL_Driver/Src/stm32h7xx_ll_fmc.c ****                SDCR_CLEAR_MASK,
 809:../../Drivers/STM32H7xx_HAL_Driver/Src/stm32h7xx_ll_fmc.c ****                (Init->ColumnBitsNumber   |
 810:../../Drivers/STM32H7xx_HAL_Driver/Src/stm32h7xx_ll_fmc.c ****                 Init->RowBitsNumber      |
 811:../../Drivers/STM32H7xx_HAL_Driver/Src/stm32h7xx_ll_fmc.c ****                 Init->MemoryDataWidth    |
 812:../../Drivers/STM32H7xx_HAL_Driver/Src/stm32h7xx_ll_fmc.c ****                 Init->InternalBankNumber |
 813:../../Drivers/STM32H7xx_HAL_Driver/Src/stm32h7xx_ll_fmc.c ****                 Init->CASLatency         |
 814:../../Drivers/STM32H7xx_HAL_Driver/Src/stm32h7xx_ll_fmc.c ****                 Init->WriteProtection    |
 815:../../Drivers/STM32H7xx_HAL_Driver/Src/stm32h7xx_ll_fmc.c ****                 Init->SDClockPeriod      |
 816:../../Drivers/STM32H7xx_HAL_Driver/Src/stm32h7xx_ll_fmc.c ****                 Init->ReadBurst          |
 817:../../Drivers/STM32H7xx_HAL_Driver/Src/stm32h7xx_ll_fmc.c ****                 Init->ReadPipeDelay));
 818:../../Drivers/STM32H7xx_HAL_Driver/Src/stm32h7xx_ll_fmc.c ****   }
ARM GAS  C:\Users\28576\AppData\Local\Temp\ccYw9wfC.s 			page 31


 819:../../Drivers/STM32H7xx_HAL_Driver/Src/stm32h7xx_ll_fmc.c ****   else /* FMC_Bank2_SDRAM */
 820:../../Drivers/STM32H7xx_HAL_Driver/Src/stm32h7xx_ll_fmc.c ****   {
 821:../../Drivers/STM32H7xx_HAL_Driver/Src/stm32h7xx_ll_fmc.c ****     MODIFY_REG(Device->SDCR[FMC_SDRAM_BANK1],
 822:../../Drivers/STM32H7xx_HAL_Driver/Src/stm32h7xx_ll_fmc.c ****                FMC_SDCRx_SDCLK           |
 823:../../Drivers/STM32H7xx_HAL_Driver/Src/stm32h7xx_ll_fmc.c ****                FMC_SDCRx_RBURST          |
 824:../../Drivers/STM32H7xx_HAL_Driver/Src/stm32h7xx_ll_fmc.c ****                FMC_SDCRx_RPIPE,
 825:../../Drivers/STM32H7xx_HAL_Driver/Src/stm32h7xx_ll_fmc.c ****                (Init->SDClockPeriod      |
 826:../../Drivers/STM32H7xx_HAL_Driver/Src/stm32h7xx_ll_fmc.c ****                 Init->ReadBurst          |
 827:../../Drivers/STM32H7xx_HAL_Driver/Src/stm32h7xx_ll_fmc.c ****                 Init->ReadPipeDelay));
 828:../../Drivers/STM32H7xx_HAL_Driver/Src/stm32h7xx_ll_fmc.c **** 
 829:../../Drivers/STM32H7xx_HAL_Driver/Src/stm32h7xx_ll_fmc.c ****     MODIFY_REG(Device->SDCR[FMC_SDRAM_BANK2],
 830:../../Drivers/STM32H7xx_HAL_Driver/Src/stm32h7xx_ll_fmc.c ****                SDCR_CLEAR_MASK,
 831:../../Drivers/STM32H7xx_HAL_Driver/Src/stm32h7xx_ll_fmc.c ****                (Init->ColumnBitsNumber   |
 832:../../Drivers/STM32H7xx_HAL_Driver/Src/stm32h7xx_ll_fmc.c ****                 Init->RowBitsNumber      |
 833:../../Drivers/STM32H7xx_HAL_Driver/Src/stm32h7xx_ll_fmc.c ****                 Init->MemoryDataWidth    |
 834:../../Drivers/STM32H7xx_HAL_Driver/Src/stm32h7xx_ll_fmc.c ****                 Init->InternalBankNumber |
 835:../../Drivers/STM32H7xx_HAL_Driver/Src/stm32h7xx_ll_fmc.c ****                 Init->CASLatency         |
 836:../../Drivers/STM32H7xx_HAL_Driver/Src/stm32h7xx_ll_fmc.c ****                 Init->WriteProtection));
 837:../../Drivers/STM32H7xx_HAL_Driver/Src/stm32h7xx_ll_fmc.c ****   }
 838:../../Drivers/STM32H7xx_HAL_Driver/Src/stm32h7xx_ll_fmc.c **** 
 839:../../Drivers/STM32H7xx_HAL_Driver/Src/stm32h7xx_ll_fmc.c ****   return HAL_OK;
 890              		.loc 1 839 3 is_stmt 1 view .LVU279
 840:../../Drivers/STM32H7xx_HAL_Driver/Src/stm32h7xx_ll_fmc.c **** }
 891              		.loc 1 840 1 is_stmt 0 view .LVU280
 892 0032 0020     		movs	r0, #0
 893              	.LVL56:
 894              		.loc 1 840 1 view .LVU281
 895 0034 10BC     		pop	{r4}
 896              	.LCFI8:
 897              		.cfi_remember_state
 898              		.cfi_restore 4
 899              		.cfi_def_cfa_offset 0
 900 0036 7047     		bx	lr
 901              	.LVL57:
 902              	.L48:
 903              	.LCFI9:
 904              		.cfi_restore_state
 821:../../Drivers/STM32H7xx_HAL_Driver/Src/stm32h7xx_ll_fmc.c ****                FMC_SDCRx_SDCLK           |
 905              		.loc 1 821 5 is_stmt 1 view .LVU282
 906 0038 0368     		ldr	r3, [r0]
 907 003a 23F4F843 		bic	r3, r3, #31744
 908 003e CA69     		ldr	r2, [r1, #28]
 909 0040 0C6A     		ldr	r4, [r1, #32]
 910 0042 2243     		orrs	r2, r2, r4
 911 0044 4C6A     		ldr	r4, [r1, #36]
 912 0046 2243     		orrs	r2, r2, r4
 913 0048 1343     		orrs	r3, r3, r2
 914 004a 0360     		str	r3, [r0]
 829:../../Drivers/STM32H7xx_HAL_Driver/Src/stm32h7xx_ll_fmc.c ****                SDCR_CLEAR_MASK,
 915              		.loc 1 829 5 view .LVU283
 916 004c 4268     		ldr	r2, [r0, #4]
 917 004e 6FF30E02 		bfc	r2, #0, #15
 918 0052 4B68     		ldr	r3, [r1, #4]
 919 0054 8C68     		ldr	r4, [r1, #8]
 920 0056 2343     		orrs	r3, r3, r4
 921 0058 CC68     		ldr	r4, [r1, #12]
 922 005a 2343     		orrs	r3, r3, r4
ARM GAS  C:\Users\28576\AppData\Local\Temp\ccYw9wfC.s 			page 32


 923 005c 0C69     		ldr	r4, [r1, #16]
 924 005e 2343     		orrs	r3, r3, r4
 925 0060 4C69     		ldr	r4, [r1, #20]
 926 0062 2343     		orrs	r3, r3, r4
 927 0064 8969     		ldr	r1, [r1, #24]
 928              	.LVL58:
 829:../../Drivers/STM32H7xx_HAL_Driver/Src/stm32h7xx_ll_fmc.c ****                SDCR_CLEAR_MASK,
 929              		.loc 1 829 5 is_stmt 0 view .LVU284
 930 0066 0B43     		orrs	r3, r3, r1
 931 0068 1343     		orrs	r3, r3, r2
 932 006a 4360     		str	r3, [r0, #4]
 933 006c E1E7     		b	.L49
 934              		.cfi_endproc
 935              	.LFE157:
 937              		.section	.text.FMC_SDRAM_Timing_Init,"ax",%progbits
 938              		.align	1
 939              		.global	FMC_SDRAM_Timing_Init
 940              		.syntax unified
 941              		.thumb
 942              		.thumb_func
 944              	FMC_SDRAM_Timing_Init:
 945              	.LVL59:
 946              	.LFB158:
 841:../../Drivers/STM32H7xx_HAL_Driver/Src/stm32h7xx_ll_fmc.c **** 
 842:../../Drivers/STM32H7xx_HAL_Driver/Src/stm32h7xx_ll_fmc.c **** 
 843:../../Drivers/STM32H7xx_HAL_Driver/Src/stm32h7xx_ll_fmc.c **** /**
 844:../../Drivers/STM32H7xx_HAL_Driver/Src/stm32h7xx_ll_fmc.c ****   * @brief  Initializes the FMC_SDRAM device timing according to the specified
 845:../../Drivers/STM32H7xx_HAL_Driver/Src/stm32h7xx_ll_fmc.c ****   *         parameters in the FMC_SDRAM_TimingTypeDef
 846:../../Drivers/STM32H7xx_HAL_Driver/Src/stm32h7xx_ll_fmc.c ****   * @param  Device Pointer to SDRAM device instance
 847:../../Drivers/STM32H7xx_HAL_Driver/Src/stm32h7xx_ll_fmc.c ****   * @param  Timing Pointer to SDRAM Timing structure
 848:../../Drivers/STM32H7xx_HAL_Driver/Src/stm32h7xx_ll_fmc.c ****   * @param  Bank SDRAM bank number
 849:../../Drivers/STM32H7xx_HAL_Driver/Src/stm32h7xx_ll_fmc.c ****   * @retval HAL status
 850:../../Drivers/STM32H7xx_HAL_Driver/Src/stm32h7xx_ll_fmc.c ****   */
 851:../../Drivers/STM32H7xx_HAL_Driver/Src/stm32h7xx_ll_fmc.c **** HAL_StatusTypeDef FMC_SDRAM_Timing_Init(FMC_SDRAM_TypeDef *Device,
 852:../../Drivers/STM32H7xx_HAL_Driver/Src/stm32h7xx_ll_fmc.c ****                                         FMC_SDRAM_TimingTypeDef *Timing, uint32_t Bank)
 853:../../Drivers/STM32H7xx_HAL_Driver/Src/stm32h7xx_ll_fmc.c **** {
 947              		.loc 1 853 1 is_stmt 1 view -0
 948              		.cfi_startproc
 949              		@ args = 0, pretend = 0, frame = 0
 950              		@ frame_needed = 0, uses_anonymous_args = 0
 951              		@ link register save eliminated.
 952              		.loc 1 853 1 is_stmt 0 view .LVU286
 953 0000 10B4     		push	{r4}
 954              	.LCFI10:
 955              		.cfi_def_cfa_offset 4
 956              		.cfi_offset 4, -4
 854:../../Drivers/STM32H7xx_HAL_Driver/Src/stm32h7xx_ll_fmc.c ****   /* Check the parameters */
 855:../../Drivers/STM32H7xx_HAL_Driver/Src/stm32h7xx_ll_fmc.c ****   assert_param(IS_FMC_SDRAM_DEVICE(Device));
 957              		.loc 1 855 3 is_stmt 1 view .LVU287
 856:../../Drivers/STM32H7xx_HAL_Driver/Src/stm32h7xx_ll_fmc.c ****   assert_param(IS_FMC_LOADTOACTIVE_DELAY(Timing->LoadToActiveDelay));
 958              		.loc 1 856 3 view .LVU288
 857:../../Drivers/STM32H7xx_HAL_Driver/Src/stm32h7xx_ll_fmc.c ****   assert_param(IS_FMC_EXITSELFREFRESH_DELAY(Timing->ExitSelfRefreshDelay));
 959              		.loc 1 857 3 view .LVU289
 858:../../Drivers/STM32H7xx_HAL_Driver/Src/stm32h7xx_ll_fmc.c ****   assert_param(IS_FMC_SELFREFRESH_TIME(Timing->SelfRefreshTime));
 960              		.loc 1 858 3 view .LVU290
 859:../../Drivers/STM32H7xx_HAL_Driver/Src/stm32h7xx_ll_fmc.c ****   assert_param(IS_FMC_ROWCYCLE_DELAY(Timing->RowCycleDelay));
 961              		.loc 1 859 3 view .LVU291
ARM GAS  C:\Users\28576\AppData\Local\Temp\ccYw9wfC.s 			page 33


 860:../../Drivers/STM32H7xx_HAL_Driver/Src/stm32h7xx_ll_fmc.c ****   assert_param(IS_FMC_WRITE_RECOVERY_TIME(Timing->WriteRecoveryTime));
 962              		.loc 1 860 3 view .LVU292
 861:../../Drivers/STM32H7xx_HAL_Driver/Src/stm32h7xx_ll_fmc.c ****   assert_param(IS_FMC_RP_DELAY(Timing->RPDelay));
 963              		.loc 1 861 3 view .LVU293
 862:../../Drivers/STM32H7xx_HAL_Driver/Src/stm32h7xx_ll_fmc.c ****   assert_param(IS_FMC_RCD_DELAY(Timing->RCDDelay));
 964              		.loc 1 862 3 view .LVU294
 863:../../Drivers/STM32H7xx_HAL_Driver/Src/stm32h7xx_ll_fmc.c ****   assert_param(IS_FMC_SDRAM_BANK(Bank));
 965              		.loc 1 863 3 view .LVU295
 864:../../Drivers/STM32H7xx_HAL_Driver/Src/stm32h7xx_ll_fmc.c **** 
 865:../../Drivers/STM32H7xx_HAL_Driver/Src/stm32h7xx_ll_fmc.c ****   /* Set SDRAM device timing parameters */
 866:../../Drivers/STM32H7xx_HAL_Driver/Src/stm32h7xx_ll_fmc.c ****   if (Bank == FMC_SDRAM_BANK1)
 966              		.loc 1 866 3 view .LVU296
 967              		.loc 1 866 6 is_stmt 0 view .LVU297
 968 0002 32BB     		cbnz	r2, .L52
 867:../../Drivers/STM32H7xx_HAL_Driver/Src/stm32h7xx_ll_fmc.c ****   {
 868:../../Drivers/STM32H7xx_HAL_Driver/Src/stm32h7xx_ll_fmc.c ****     MODIFY_REG(Device->SDTR[FMC_SDRAM_BANK1],
 969              		.loc 1 868 5 is_stmt 1 view .LVU298
 970 0004 8268     		ldr	r2, [r0, #8]
 971              	.LVL60:
 972              		.loc 1 868 5 is_stmt 0 view .LVU299
 973 0006 02F07042 		and	r2, r2, #-268435456
 974 000a 0B68     		ldr	r3, [r1]
 975 000c 013B     		subs	r3, r3, #1
 976 000e 4C68     		ldr	r4, [r1, #4]
 977 0010 04F1FF3C 		add	ip, r4, #-1
 978 0014 43EA0C13 		orr	r3, r3, ip, lsl #4
 979 0018 8C68     		ldr	r4, [r1, #8]
 980 001a 04F1FF3C 		add	ip, r4, #-1
 981 001e 43EA0C23 		orr	r3, r3, ip, lsl #8
 982 0022 CC68     		ldr	r4, [r1, #12]
 983 0024 04F1FF3C 		add	ip, r4, #-1
 984 0028 43EA0C33 		orr	r3, r3, ip, lsl #12
 985 002c 0C69     		ldr	r4, [r1, #16]
 986 002e 04F1FF3C 		add	ip, r4, #-1
 987 0032 43EA0C43 		orr	r3, r3, ip, lsl #16
 988 0036 4C69     		ldr	r4, [r1, #20]
 989 0038 04F1FF3C 		add	ip, r4, #-1
 990 003c 43EA0C53 		orr	r3, r3, ip, lsl #20
 991 0040 8969     		ldr	r1, [r1, #24]
 992              	.LVL61:
 993              		.loc 1 868 5 view .LVU300
 994 0042 0139     		subs	r1, r1, #1
 995 0044 43EA0163 		orr	r3, r3, r1, lsl #24
 996 0048 1343     		orrs	r3, r3, r2
 997 004a 8360     		str	r3, [r0, #8]
 998              	.L53:
 869:../../Drivers/STM32H7xx_HAL_Driver/Src/stm32h7xx_ll_fmc.c ****                SDTR_CLEAR_MASK,
 870:../../Drivers/STM32H7xx_HAL_Driver/Src/stm32h7xx_ll_fmc.c ****                (((Timing->LoadToActiveDelay) - 1U)                                      |
 871:../../Drivers/STM32H7xx_HAL_Driver/Src/stm32h7xx_ll_fmc.c ****                 (((Timing->ExitSelfRefreshDelay) - 1U) << FMC_SDTRx_TXSR_Pos) |
 872:../../Drivers/STM32H7xx_HAL_Driver/Src/stm32h7xx_ll_fmc.c ****                 (((Timing->SelfRefreshTime) - 1U)      << FMC_SDTRx_TRAS_Pos) |
 873:../../Drivers/STM32H7xx_HAL_Driver/Src/stm32h7xx_ll_fmc.c ****                 (((Timing->RowCycleDelay) - 1U)        << FMC_SDTRx_TRC_Pos)  |
 874:../../Drivers/STM32H7xx_HAL_Driver/Src/stm32h7xx_ll_fmc.c ****                 (((Timing->WriteRecoveryTime) - 1U)    << FMC_SDTRx_TWR_Pos)  |
 875:../../Drivers/STM32H7xx_HAL_Driver/Src/stm32h7xx_ll_fmc.c ****                 (((Timing->RPDelay) - 1U)              << FMC_SDTRx_TRP_Pos)  |
 876:../../Drivers/STM32H7xx_HAL_Driver/Src/stm32h7xx_ll_fmc.c ****                 (((Timing->RCDDelay) - 1U)             << FMC_SDTRx_TRCD_Pos)));
 877:../../Drivers/STM32H7xx_HAL_Driver/Src/stm32h7xx_ll_fmc.c ****   }
 878:../../Drivers/STM32H7xx_HAL_Driver/Src/stm32h7xx_ll_fmc.c ****   else /* FMC_Bank2_SDRAM */
 879:../../Drivers/STM32H7xx_HAL_Driver/Src/stm32h7xx_ll_fmc.c ****   {
ARM GAS  C:\Users\28576\AppData\Local\Temp\ccYw9wfC.s 			page 34


 880:../../Drivers/STM32H7xx_HAL_Driver/Src/stm32h7xx_ll_fmc.c ****     MODIFY_REG(Device->SDTR[FMC_SDRAM_BANK1],
 881:../../Drivers/STM32H7xx_HAL_Driver/Src/stm32h7xx_ll_fmc.c ****                FMC_SDTRx_TRC |
 882:../../Drivers/STM32H7xx_HAL_Driver/Src/stm32h7xx_ll_fmc.c ****                FMC_SDTRx_TRP,
 883:../../Drivers/STM32H7xx_HAL_Driver/Src/stm32h7xx_ll_fmc.c ****                (((Timing->RowCycleDelay) - 1U)         << FMC_SDTRx_TRC_Pos)  |
 884:../../Drivers/STM32H7xx_HAL_Driver/Src/stm32h7xx_ll_fmc.c ****                (((Timing->RPDelay) - 1U)               << FMC_SDTRx_TRP_Pos));
 885:../../Drivers/STM32H7xx_HAL_Driver/Src/stm32h7xx_ll_fmc.c **** 
 886:../../Drivers/STM32H7xx_HAL_Driver/Src/stm32h7xx_ll_fmc.c ****     MODIFY_REG(Device->SDTR[FMC_SDRAM_BANK2],
 887:../../Drivers/STM32H7xx_HAL_Driver/Src/stm32h7xx_ll_fmc.c ****                SDTR_CLEAR_MASK,
 888:../../Drivers/STM32H7xx_HAL_Driver/Src/stm32h7xx_ll_fmc.c ****                (((Timing->LoadToActiveDelay) - 1U)                                      |
 889:../../Drivers/STM32H7xx_HAL_Driver/Src/stm32h7xx_ll_fmc.c ****                 (((Timing->ExitSelfRefreshDelay) - 1U) << FMC_SDTRx_TXSR_Pos) |
 890:../../Drivers/STM32H7xx_HAL_Driver/Src/stm32h7xx_ll_fmc.c ****                 (((Timing->SelfRefreshTime) - 1U)      << FMC_SDTRx_TRAS_Pos) |
 891:../../Drivers/STM32H7xx_HAL_Driver/Src/stm32h7xx_ll_fmc.c ****                 (((Timing->WriteRecoveryTime) - 1U)    << FMC_SDTRx_TWR_Pos)  |
 892:../../Drivers/STM32H7xx_HAL_Driver/Src/stm32h7xx_ll_fmc.c ****                 (((Timing->RCDDelay) - 1U)             << FMC_SDTRx_TRCD_Pos)));
 893:../../Drivers/STM32H7xx_HAL_Driver/Src/stm32h7xx_ll_fmc.c ****   }
 894:../../Drivers/STM32H7xx_HAL_Driver/Src/stm32h7xx_ll_fmc.c **** 
 895:../../Drivers/STM32H7xx_HAL_Driver/Src/stm32h7xx_ll_fmc.c ****   return HAL_OK;
 999              		.loc 1 895 3 is_stmt 1 view .LVU301
 896:../../Drivers/STM32H7xx_HAL_Driver/Src/stm32h7xx_ll_fmc.c **** }
 1000              		.loc 1 896 1 is_stmt 0 view .LVU302
 1001 004c 0020     		movs	r0, #0
 1002              	.LVL62:
 1003              		.loc 1 896 1 view .LVU303
 1004 004e 10BC     		pop	{r4}
 1005              	.LCFI11:
 1006              		.cfi_remember_state
 1007              		.cfi_restore 4
 1008              		.cfi_def_cfa_offset 0
 1009 0050 7047     		bx	lr
 1010              	.LVL63:
 1011              	.L52:
 1012              	.LCFI12:
 1013              		.cfi_restore_state
 880:../../Drivers/STM32H7xx_HAL_Driver/Src/stm32h7xx_ll_fmc.c ****                FMC_SDTRx_TRC |
 1014              		.loc 1 880 5 is_stmt 1 view .LVU304
 1015 0052 8368     		ldr	r3, [r0, #8]
 1016 0054 134A     		ldr	r2, .L55
 1017              	.LVL64:
 880:../../Drivers/STM32H7xx_HAL_Driver/Src/stm32h7xx_ll_fmc.c ****                FMC_SDTRx_TRC |
 1018              		.loc 1 880 5 is_stmt 0 view .LVU305
 1019 0056 1A40     		ands	r2, r2, r3
 1020 0058 CB68     		ldr	r3, [r1, #12]
 1021 005a 03F1FF3C 		add	ip, r3, #-1
 1022 005e 4B69     		ldr	r3, [r1, #20]
 1023 0060 013B     		subs	r3, r3, #1
 1024 0062 1B05     		lsls	r3, r3, #20
 1025 0064 43EA0C33 		orr	r3, r3, ip, lsl #12
 1026 0068 1A43     		orrs	r2, r2, r3
 1027 006a 8260     		str	r2, [r0, #8]
 886:../../Drivers/STM32H7xx_HAL_Driver/Src/stm32h7xx_ll_fmc.c ****                SDTR_CLEAR_MASK,
 1028              		.loc 1 886 5 is_stmt 1 view .LVU306
 1029 006c C268     		ldr	r2, [r0, #12]
 1030 006e 02F07042 		and	r2, r2, #-268435456
 1031 0072 0B68     		ldr	r3, [r1]
 1032 0074 013B     		subs	r3, r3, #1
 1033 0076 4C68     		ldr	r4, [r1, #4]
 1034 0078 04F1FF3C 		add	ip, r4, #-1
 1035 007c 43EA0C13 		orr	r3, r3, ip, lsl #4
ARM GAS  C:\Users\28576\AppData\Local\Temp\ccYw9wfC.s 			page 35


 1036 0080 8C68     		ldr	r4, [r1, #8]
 1037 0082 04F1FF3C 		add	ip, r4, #-1
 1038 0086 43EA0C23 		orr	r3, r3, ip, lsl #8
 1039 008a 0C69     		ldr	r4, [r1, #16]
 1040 008c 04F1FF3C 		add	ip, r4, #-1
 1041 0090 43EA0C43 		orr	r3, r3, ip, lsl #16
 1042 0094 8969     		ldr	r1, [r1, #24]
 1043              	.LVL65:
 886:../../Drivers/STM32H7xx_HAL_Driver/Src/stm32h7xx_ll_fmc.c ****                SDTR_CLEAR_MASK,
 1044              		.loc 1 886 5 is_stmt 0 view .LVU307
 1045 0096 0139     		subs	r1, r1, #1
 1046 0098 43EA0163 		orr	r3, r3, r1, lsl #24
 1047 009c 1343     		orrs	r3, r3, r2
 1048 009e C360     		str	r3, [r0, #12]
 1049 00a0 D4E7     		b	.L53
 1050              	.L56:
 1051 00a2 00BF     		.align	2
 1052              	.L55:
 1053 00a4 FF0F0FFF 		.word	-15790081
 1054              		.cfi_endproc
 1055              	.LFE158:
 1057              		.section	.text.FMC_SDRAM_DeInit,"ax",%progbits
 1058              		.align	1
 1059              		.global	FMC_SDRAM_DeInit
 1060              		.syntax unified
 1061              		.thumb
 1062              		.thumb_func
 1064              	FMC_SDRAM_DeInit:
 1065              	.LVL66:
 1066              	.LFB159:
 897:../../Drivers/STM32H7xx_HAL_Driver/Src/stm32h7xx_ll_fmc.c **** 
 898:../../Drivers/STM32H7xx_HAL_Driver/Src/stm32h7xx_ll_fmc.c **** /**
 899:../../Drivers/STM32H7xx_HAL_Driver/Src/stm32h7xx_ll_fmc.c ****   * @brief  DeInitializes the FMC_SDRAM peripheral
 900:../../Drivers/STM32H7xx_HAL_Driver/Src/stm32h7xx_ll_fmc.c ****   * @param  Device Pointer to SDRAM device instance
 901:../../Drivers/STM32H7xx_HAL_Driver/Src/stm32h7xx_ll_fmc.c ****   * @retval HAL status
 902:../../Drivers/STM32H7xx_HAL_Driver/Src/stm32h7xx_ll_fmc.c ****   */
 903:../../Drivers/STM32H7xx_HAL_Driver/Src/stm32h7xx_ll_fmc.c **** HAL_StatusTypeDef FMC_SDRAM_DeInit(FMC_SDRAM_TypeDef *Device, uint32_t Bank)
 904:../../Drivers/STM32H7xx_HAL_Driver/Src/stm32h7xx_ll_fmc.c **** {
 1067              		.loc 1 904 1 is_stmt 1 view -0
 1068              		.cfi_startproc
 1069              		@ args = 0, pretend = 0, frame = 0
 1070              		@ frame_needed = 0, uses_anonymous_args = 0
 1071              		@ link register save eliminated.
 1072              		.loc 1 904 1 is_stmt 0 view .LVU309
 1073 0000 0346     		mov	r3, r0
 905:../../Drivers/STM32H7xx_HAL_Driver/Src/stm32h7xx_ll_fmc.c ****   /* Check the parameters */
 906:../../Drivers/STM32H7xx_HAL_Driver/Src/stm32h7xx_ll_fmc.c ****   assert_param(IS_FMC_SDRAM_DEVICE(Device));
 1074              		.loc 1 906 3 is_stmt 1 view .LVU310
 907:../../Drivers/STM32H7xx_HAL_Driver/Src/stm32h7xx_ll_fmc.c ****   assert_param(IS_FMC_SDRAM_BANK(Bank));
 1075              		.loc 1 907 3 view .LVU311
 908:../../Drivers/STM32H7xx_HAL_Driver/Src/stm32h7xx_ll_fmc.c **** 
 909:../../Drivers/STM32H7xx_HAL_Driver/Src/stm32h7xx_ll_fmc.c ****   /* De-initialize the SDRAM device */
 910:../../Drivers/STM32H7xx_HAL_Driver/Src/stm32h7xx_ll_fmc.c ****   Device->SDCR[Bank] = 0x000002D0U;
 1076              		.loc 1 910 3 view .LVU312
 1077              		.loc 1 910 22 is_stmt 0 view .LVU313
 1078 0002 4FF43472 		mov	r2, #720
 1079 0006 40F82120 		str	r2, [r0, r1, lsl #2]
ARM GAS  C:\Users\28576\AppData\Local\Temp\ccYw9wfC.s 			page 36


 911:../../Drivers/STM32H7xx_HAL_Driver/Src/stm32h7xx_ll_fmc.c ****   Device->SDTR[Bank] = 0x0FFFFFFFU;
 1080              		.loc 1 911 3 is_stmt 1 view .LVU314
 1081              		.loc 1 911 22 is_stmt 0 view .LVU315
 1082 000a 0231     		adds	r1, r1, #2
 1083              	.LVL67:
 1084              		.loc 1 911 22 view .LVU316
 1085 000c 6FF07042 		mvn	r2, #-268435456
 1086 0010 40F82120 		str	r2, [r0, r1, lsl #2]
 912:../../Drivers/STM32H7xx_HAL_Driver/Src/stm32h7xx_ll_fmc.c ****   Device->SDCMR      = 0x00000000U;
 1087              		.loc 1 912 3 is_stmt 1 view .LVU317
 1088              		.loc 1 912 22 is_stmt 0 view .LVU318
 1089 0014 0020     		movs	r0, #0
 1090              	.LVL68:
 1091              		.loc 1 912 22 view .LVU319
 1092 0016 1861     		str	r0, [r3, #16]
 913:../../Drivers/STM32H7xx_HAL_Driver/Src/stm32h7xx_ll_fmc.c ****   Device->SDRTR      = 0x00000000U;
 1093              		.loc 1 913 3 is_stmt 1 view .LVU320
 1094              		.loc 1 913 22 is_stmt 0 view .LVU321
 1095 0018 5861     		str	r0, [r3, #20]
 914:../../Drivers/STM32H7xx_HAL_Driver/Src/stm32h7xx_ll_fmc.c ****   Device->SDSR       = 0x00000000U;
 1096              		.loc 1 914 3 is_stmt 1 view .LVU322
 1097              		.loc 1 914 22 is_stmt 0 view .LVU323
 1098 001a 9861     		str	r0, [r3, #24]
 915:../../Drivers/STM32H7xx_HAL_Driver/Src/stm32h7xx_ll_fmc.c **** 
 916:../../Drivers/STM32H7xx_HAL_Driver/Src/stm32h7xx_ll_fmc.c ****   return HAL_OK;
 1099              		.loc 1 916 3 is_stmt 1 view .LVU324
 917:../../Drivers/STM32H7xx_HAL_Driver/Src/stm32h7xx_ll_fmc.c **** }
 1100              		.loc 1 917 1 is_stmt 0 view .LVU325
 1101 001c 7047     		bx	lr
 1102              		.cfi_endproc
 1103              	.LFE159:
 1105              		.section	.text.FMC_SDRAM_WriteProtection_Enable,"ax",%progbits
 1106              		.align	1
 1107              		.global	FMC_SDRAM_WriteProtection_Enable
 1108              		.syntax unified
 1109              		.thumb
 1110              		.thumb_func
 1112              	FMC_SDRAM_WriteProtection_Enable:
 1113              	.LVL69:
 1114              	.LFB160:
 918:../../Drivers/STM32H7xx_HAL_Driver/Src/stm32h7xx_ll_fmc.c **** 
 919:../../Drivers/STM32H7xx_HAL_Driver/Src/stm32h7xx_ll_fmc.c **** /**
 920:../../Drivers/STM32H7xx_HAL_Driver/Src/stm32h7xx_ll_fmc.c ****   * @}
 921:../../Drivers/STM32H7xx_HAL_Driver/Src/stm32h7xx_ll_fmc.c ****   */
 922:../../Drivers/STM32H7xx_HAL_Driver/Src/stm32h7xx_ll_fmc.c **** 
 923:../../Drivers/STM32H7xx_HAL_Driver/Src/stm32h7xx_ll_fmc.c **** /** @addtogroup FMC_LL_SDRAMPrivate_Functions_Group2
 924:../../Drivers/STM32H7xx_HAL_Driver/Src/stm32h7xx_ll_fmc.c ****   *  @brief   management functions
 925:../../Drivers/STM32H7xx_HAL_Driver/Src/stm32h7xx_ll_fmc.c ****   *
 926:../../Drivers/STM32H7xx_HAL_Driver/Src/stm32h7xx_ll_fmc.c **** @verbatim
 927:../../Drivers/STM32H7xx_HAL_Driver/Src/stm32h7xx_ll_fmc.c ****   ==============================================================================
 928:../../Drivers/STM32H7xx_HAL_Driver/Src/stm32h7xx_ll_fmc.c ****                       ##### FMC_SDRAM Control functions #####
 929:../../Drivers/STM32H7xx_HAL_Driver/Src/stm32h7xx_ll_fmc.c ****   ==============================================================================
 930:../../Drivers/STM32H7xx_HAL_Driver/Src/stm32h7xx_ll_fmc.c ****   [..]
 931:../../Drivers/STM32H7xx_HAL_Driver/Src/stm32h7xx_ll_fmc.c ****     This subsection provides a set of functions allowing to control dynamically
 932:../../Drivers/STM32H7xx_HAL_Driver/Src/stm32h7xx_ll_fmc.c ****     the FMC SDRAM interface.
 933:../../Drivers/STM32H7xx_HAL_Driver/Src/stm32h7xx_ll_fmc.c **** 
 934:../../Drivers/STM32H7xx_HAL_Driver/Src/stm32h7xx_ll_fmc.c **** @endverbatim
ARM GAS  C:\Users\28576\AppData\Local\Temp\ccYw9wfC.s 			page 37


 935:../../Drivers/STM32H7xx_HAL_Driver/Src/stm32h7xx_ll_fmc.c ****   * @{
 936:../../Drivers/STM32H7xx_HAL_Driver/Src/stm32h7xx_ll_fmc.c ****   */
 937:../../Drivers/STM32H7xx_HAL_Driver/Src/stm32h7xx_ll_fmc.c **** 
 938:../../Drivers/STM32H7xx_HAL_Driver/Src/stm32h7xx_ll_fmc.c **** /**
 939:../../Drivers/STM32H7xx_HAL_Driver/Src/stm32h7xx_ll_fmc.c ****   * @brief  Enables dynamically FMC_SDRAM write protection.
 940:../../Drivers/STM32H7xx_HAL_Driver/Src/stm32h7xx_ll_fmc.c ****   * @param  Device Pointer to SDRAM device instance
 941:../../Drivers/STM32H7xx_HAL_Driver/Src/stm32h7xx_ll_fmc.c ****   * @param  Bank SDRAM bank number
 942:../../Drivers/STM32H7xx_HAL_Driver/Src/stm32h7xx_ll_fmc.c ****   * @retval HAL status
 943:../../Drivers/STM32H7xx_HAL_Driver/Src/stm32h7xx_ll_fmc.c ****   */
 944:../../Drivers/STM32H7xx_HAL_Driver/Src/stm32h7xx_ll_fmc.c **** HAL_StatusTypeDef FMC_SDRAM_WriteProtection_Enable(FMC_SDRAM_TypeDef *Device, uint32_t Bank)
 945:../../Drivers/STM32H7xx_HAL_Driver/Src/stm32h7xx_ll_fmc.c **** {
 1115              		.loc 1 945 1 is_stmt 1 view -0
 1116              		.cfi_startproc
 1117              		@ args = 0, pretend = 0, frame = 0
 1118              		@ frame_needed = 0, uses_anonymous_args = 0
 1119              		@ link register save eliminated.
 946:../../Drivers/STM32H7xx_HAL_Driver/Src/stm32h7xx_ll_fmc.c ****   /* Check the parameters */
 947:../../Drivers/STM32H7xx_HAL_Driver/Src/stm32h7xx_ll_fmc.c ****   assert_param(IS_FMC_SDRAM_DEVICE(Device));
 1120              		.loc 1 947 3 view .LVU327
 948:../../Drivers/STM32H7xx_HAL_Driver/Src/stm32h7xx_ll_fmc.c ****   assert_param(IS_FMC_SDRAM_BANK(Bank));
 1121              		.loc 1 948 3 view .LVU328
 949:../../Drivers/STM32H7xx_HAL_Driver/Src/stm32h7xx_ll_fmc.c **** 
 950:../../Drivers/STM32H7xx_HAL_Driver/Src/stm32h7xx_ll_fmc.c ****   /* Enable write protection */
 951:../../Drivers/STM32H7xx_HAL_Driver/Src/stm32h7xx_ll_fmc.c ****   SET_BIT(Device->SDCR[Bank], FMC_SDRAM_WRITE_PROTECTION_ENABLE);
 1122              		.loc 1 951 3 view .LVU329
 1123 0000 50F82130 		ldr	r3, [r0, r1, lsl #2]
 1124 0004 43F40073 		orr	r3, r3, #512
 1125 0008 40F82130 		str	r3, [r0, r1, lsl #2]
 952:../../Drivers/STM32H7xx_HAL_Driver/Src/stm32h7xx_ll_fmc.c **** 
 953:../../Drivers/STM32H7xx_HAL_Driver/Src/stm32h7xx_ll_fmc.c ****   return HAL_OK;
 1126              		.loc 1 953 3 view .LVU330
 954:../../Drivers/STM32H7xx_HAL_Driver/Src/stm32h7xx_ll_fmc.c **** }
 1127              		.loc 1 954 1 is_stmt 0 view .LVU331
 1128 000c 0020     		movs	r0, #0
 1129              	.LVL70:
 1130              		.loc 1 954 1 view .LVU332
 1131 000e 7047     		bx	lr
 1132              		.cfi_endproc
 1133              	.LFE160:
 1135              		.section	.text.FMC_SDRAM_WriteProtection_Disable,"ax",%progbits
 1136              		.align	1
 1137              		.global	FMC_SDRAM_WriteProtection_Disable
 1138              		.syntax unified
 1139              		.thumb
 1140              		.thumb_func
 1142              	FMC_SDRAM_WriteProtection_Disable:
 1143              	.LVL71:
 1144              	.LFB161:
 955:../../Drivers/STM32H7xx_HAL_Driver/Src/stm32h7xx_ll_fmc.c **** 
 956:../../Drivers/STM32H7xx_HAL_Driver/Src/stm32h7xx_ll_fmc.c **** /**
 957:../../Drivers/STM32H7xx_HAL_Driver/Src/stm32h7xx_ll_fmc.c ****   * @brief  Disables dynamically FMC_SDRAM write protection.
 958:../../Drivers/STM32H7xx_HAL_Driver/Src/stm32h7xx_ll_fmc.c ****   * @param  hsdram FMC_SDRAM handle
 959:../../Drivers/STM32H7xx_HAL_Driver/Src/stm32h7xx_ll_fmc.c ****   * @retval HAL status
 960:../../Drivers/STM32H7xx_HAL_Driver/Src/stm32h7xx_ll_fmc.c ****   */
 961:../../Drivers/STM32H7xx_HAL_Driver/Src/stm32h7xx_ll_fmc.c **** HAL_StatusTypeDef FMC_SDRAM_WriteProtection_Disable(FMC_SDRAM_TypeDef *Device, uint32_t Bank)
 962:../../Drivers/STM32H7xx_HAL_Driver/Src/stm32h7xx_ll_fmc.c **** {
 1145              		.loc 1 962 1 is_stmt 1 view -0
ARM GAS  C:\Users\28576\AppData\Local\Temp\ccYw9wfC.s 			page 38


 1146              		.cfi_startproc
 1147              		@ args = 0, pretend = 0, frame = 0
 1148              		@ frame_needed = 0, uses_anonymous_args = 0
 1149              		@ link register save eliminated.
 963:../../Drivers/STM32H7xx_HAL_Driver/Src/stm32h7xx_ll_fmc.c ****   /* Check the parameters */
 964:../../Drivers/STM32H7xx_HAL_Driver/Src/stm32h7xx_ll_fmc.c ****   assert_param(IS_FMC_SDRAM_DEVICE(Device));
 1150              		.loc 1 964 3 view .LVU334
 965:../../Drivers/STM32H7xx_HAL_Driver/Src/stm32h7xx_ll_fmc.c ****   assert_param(IS_FMC_SDRAM_BANK(Bank));
 1151              		.loc 1 965 3 view .LVU335
 966:../../Drivers/STM32H7xx_HAL_Driver/Src/stm32h7xx_ll_fmc.c **** 
 967:../../Drivers/STM32H7xx_HAL_Driver/Src/stm32h7xx_ll_fmc.c ****   /* Disable write protection */
 968:../../Drivers/STM32H7xx_HAL_Driver/Src/stm32h7xx_ll_fmc.c ****   CLEAR_BIT(Device->SDCR[Bank], FMC_SDRAM_WRITE_PROTECTION_ENABLE);
 1152              		.loc 1 968 3 view .LVU336
 1153 0000 50F82130 		ldr	r3, [r0, r1, lsl #2]
 1154 0004 23F40073 		bic	r3, r3, #512
 1155 0008 40F82130 		str	r3, [r0, r1, lsl #2]
 969:../../Drivers/STM32H7xx_HAL_Driver/Src/stm32h7xx_ll_fmc.c **** 
 970:../../Drivers/STM32H7xx_HAL_Driver/Src/stm32h7xx_ll_fmc.c ****   return HAL_OK;
 1156              		.loc 1 970 3 view .LVU337
 971:../../Drivers/STM32H7xx_HAL_Driver/Src/stm32h7xx_ll_fmc.c **** }
 1157              		.loc 1 971 1 is_stmt 0 view .LVU338
 1158 000c 0020     		movs	r0, #0
 1159              	.LVL72:
 1160              		.loc 1 971 1 view .LVU339
 1161 000e 7047     		bx	lr
 1162              		.cfi_endproc
 1163              	.LFE161:
 1165              		.section	.text.FMC_SDRAM_SendCommand,"ax",%progbits
 1166              		.align	1
 1167              		.global	FMC_SDRAM_SendCommand
 1168              		.syntax unified
 1169              		.thumb
 1170              		.thumb_func
 1172              	FMC_SDRAM_SendCommand:
 1173              	.LVL73:
 1174              	.LFB162:
 972:../../Drivers/STM32H7xx_HAL_Driver/Src/stm32h7xx_ll_fmc.c **** 
 973:../../Drivers/STM32H7xx_HAL_Driver/Src/stm32h7xx_ll_fmc.c **** /**
 974:../../Drivers/STM32H7xx_HAL_Driver/Src/stm32h7xx_ll_fmc.c ****   * @brief  Send Command to the FMC SDRAM bank
 975:../../Drivers/STM32H7xx_HAL_Driver/Src/stm32h7xx_ll_fmc.c ****   * @param  Device Pointer to SDRAM device instance
 976:../../Drivers/STM32H7xx_HAL_Driver/Src/stm32h7xx_ll_fmc.c ****   * @param  Command Pointer to SDRAM command structure
 977:../../Drivers/STM32H7xx_HAL_Driver/Src/stm32h7xx_ll_fmc.c ****   * @param  Timing Pointer to SDRAM Timing structure
 978:../../Drivers/STM32H7xx_HAL_Driver/Src/stm32h7xx_ll_fmc.c ****   * @param  Timeout Timeout wait value
 979:../../Drivers/STM32H7xx_HAL_Driver/Src/stm32h7xx_ll_fmc.c ****   * @retval HAL state
 980:../../Drivers/STM32H7xx_HAL_Driver/Src/stm32h7xx_ll_fmc.c ****   */
 981:../../Drivers/STM32H7xx_HAL_Driver/Src/stm32h7xx_ll_fmc.c **** HAL_StatusTypeDef FMC_SDRAM_SendCommand(FMC_SDRAM_TypeDef *Device,
 982:../../Drivers/STM32H7xx_HAL_Driver/Src/stm32h7xx_ll_fmc.c ****                                         FMC_SDRAM_CommandTypeDef *Command, uint32_t Timeout)
 983:../../Drivers/STM32H7xx_HAL_Driver/Src/stm32h7xx_ll_fmc.c **** {
 1175              		.loc 1 983 1 is_stmt 1 view -0
 1176              		.cfi_startproc
 1177              		@ args = 0, pretend = 0, frame = 0
 1178              		@ frame_needed = 0, uses_anonymous_args = 0
 1179              		@ link register save eliminated.
 1180              		.loc 1 983 1 is_stmt 0 view .LVU341
 1181 0000 10B4     		push	{r4}
 1182              	.LCFI13:
 1183              		.cfi_def_cfa_offset 4
ARM GAS  C:\Users\28576\AppData\Local\Temp\ccYw9wfC.s 			page 39


 1184              		.cfi_offset 4, -4
 984:../../Drivers/STM32H7xx_HAL_Driver/Src/stm32h7xx_ll_fmc.c ****   /* Check the parameters */
 985:../../Drivers/STM32H7xx_HAL_Driver/Src/stm32h7xx_ll_fmc.c ****   assert_param(IS_FMC_SDRAM_DEVICE(Device));
 1185              		.loc 1 985 3 is_stmt 1 view .LVU342
 986:../../Drivers/STM32H7xx_HAL_Driver/Src/stm32h7xx_ll_fmc.c ****   assert_param(IS_FMC_COMMAND_MODE(Command->CommandMode));
 1186              		.loc 1 986 3 view .LVU343
 987:../../Drivers/STM32H7xx_HAL_Driver/Src/stm32h7xx_ll_fmc.c ****   assert_param(IS_FMC_COMMAND_TARGET(Command->CommandTarget));
 1187              		.loc 1 987 3 view .LVU344
 988:../../Drivers/STM32H7xx_HAL_Driver/Src/stm32h7xx_ll_fmc.c ****   assert_param(IS_FMC_AUTOREFRESH_NUMBER(Command->AutoRefreshNumber));
 1188              		.loc 1 988 3 view .LVU345
 989:../../Drivers/STM32H7xx_HAL_Driver/Src/stm32h7xx_ll_fmc.c ****   assert_param(IS_FMC_MODE_REGISTER(Command->ModeRegisterDefinition));
 1189              		.loc 1 989 3 view .LVU346
 990:../../Drivers/STM32H7xx_HAL_Driver/Src/stm32h7xx_ll_fmc.c **** 
 991:../../Drivers/STM32H7xx_HAL_Driver/Src/stm32h7xx_ll_fmc.c ****   /* Set command register */
 992:../../Drivers/STM32H7xx_HAL_Driver/Src/stm32h7xx_ll_fmc.c ****   MODIFY_REG(Device->SDCMR, (FMC_SDCMR_MODE | FMC_SDCMR_CTB2 | FMC_SDCMR_CTB1 | FMC_SDCMR_NRFS | FM
 1190              		.loc 1 992 3 view .LVU347
 1191 0002 0269     		ldr	r2, [r0, #16]
 1192              	.LVL74:
 1193              		.loc 1 992 3 is_stmt 0 view .LVU348
 1194 0004 6FF31502 		bfc	r2, #0, #22
 1195 0008 0B68     		ldr	r3, [r1]
 1196 000a 4C68     		ldr	r4, [r1, #4]
 1197 000c 2343     		orrs	r3, r3, r4
 1198 000e 8C68     		ldr	r4, [r1, #8]
 1199 0010 04F1FF3C 		add	ip, r4, #-1
 1200 0014 43EA4C13 		orr	r3, r3, ip, lsl #5
 1201 0018 C968     		ldr	r1, [r1, #12]
 1202              	.LVL75:
 1203              		.loc 1 992 3 view .LVU349
 1204 001a 43EA4123 		orr	r3, r3, r1, lsl #9
 1205 001e 1343     		orrs	r3, r3, r2
 1206 0020 0361     		str	r3, [r0, #16]
 993:../../Drivers/STM32H7xx_HAL_Driver/Src/stm32h7xx_ll_fmc.c ****              ((Command->CommandMode) | (Command->CommandTarget) |
 994:../../Drivers/STM32H7xx_HAL_Driver/Src/stm32h7xx_ll_fmc.c ****               (((Command->AutoRefreshNumber) - 1U) << FMC_SDCMR_NRFS_Pos) |
 995:../../Drivers/STM32H7xx_HAL_Driver/Src/stm32h7xx_ll_fmc.c ****               ((Command->ModeRegisterDefinition) << FMC_SDCMR_MRD_Pos)));
 996:../../Drivers/STM32H7xx_HAL_Driver/Src/stm32h7xx_ll_fmc.c ****   /* Prevent unused argument(s) compilation warning */
 997:../../Drivers/STM32H7xx_HAL_Driver/Src/stm32h7xx_ll_fmc.c ****   UNUSED(Timeout);
 1207              		.loc 1 997 3 is_stmt 1 view .LVU350
 998:../../Drivers/STM32H7xx_HAL_Driver/Src/stm32h7xx_ll_fmc.c ****   return HAL_OK;
 1208              		.loc 1 998 3 view .LVU351
 999:../../Drivers/STM32H7xx_HAL_Driver/Src/stm32h7xx_ll_fmc.c **** }
 1209              		.loc 1 999 1 is_stmt 0 view .LVU352
 1210 0022 0020     		movs	r0, #0
 1211              	.LVL76:
 1212              		.loc 1 999 1 view .LVU353
 1213 0024 10BC     		pop	{r4}
 1214              	.LCFI14:
 1215              		.cfi_restore 4
 1216              		.cfi_def_cfa_offset 0
 1217 0026 7047     		bx	lr
 1218              		.cfi_endproc
 1219              	.LFE162:
 1221              		.section	.text.FMC_SDRAM_ProgramRefreshRate,"ax",%progbits
 1222              		.align	1
 1223              		.global	FMC_SDRAM_ProgramRefreshRate
 1224              		.syntax unified
 1225              		.thumb
ARM GAS  C:\Users\28576\AppData\Local\Temp\ccYw9wfC.s 			page 40


 1226              		.thumb_func
 1228              	FMC_SDRAM_ProgramRefreshRate:
 1229              	.LVL77:
 1230              	.LFB163:
1000:../../Drivers/STM32H7xx_HAL_Driver/Src/stm32h7xx_ll_fmc.c **** 
1001:../../Drivers/STM32H7xx_HAL_Driver/Src/stm32h7xx_ll_fmc.c **** /**
1002:../../Drivers/STM32H7xx_HAL_Driver/Src/stm32h7xx_ll_fmc.c ****   * @brief  Program the SDRAM Memory Refresh rate.
1003:../../Drivers/STM32H7xx_HAL_Driver/Src/stm32h7xx_ll_fmc.c ****   * @param  Device Pointer to SDRAM device instance
1004:../../Drivers/STM32H7xx_HAL_Driver/Src/stm32h7xx_ll_fmc.c ****   * @param  RefreshRate The SDRAM refresh rate value.
1005:../../Drivers/STM32H7xx_HAL_Driver/Src/stm32h7xx_ll_fmc.c ****   * @retval HAL state
1006:../../Drivers/STM32H7xx_HAL_Driver/Src/stm32h7xx_ll_fmc.c ****   */
1007:../../Drivers/STM32H7xx_HAL_Driver/Src/stm32h7xx_ll_fmc.c **** HAL_StatusTypeDef FMC_SDRAM_ProgramRefreshRate(FMC_SDRAM_TypeDef *Device, uint32_t RefreshRate)
1008:../../Drivers/STM32H7xx_HAL_Driver/Src/stm32h7xx_ll_fmc.c **** {
 1231              		.loc 1 1008 1 is_stmt 1 view -0
 1232              		.cfi_startproc
 1233              		@ args = 0, pretend = 0, frame = 0
 1234              		@ frame_needed = 0, uses_anonymous_args = 0
 1235              		@ link register save eliminated.
1009:../../Drivers/STM32H7xx_HAL_Driver/Src/stm32h7xx_ll_fmc.c ****   /* Check the parameters */
1010:../../Drivers/STM32H7xx_HAL_Driver/Src/stm32h7xx_ll_fmc.c ****   assert_param(IS_FMC_SDRAM_DEVICE(Device));
 1236              		.loc 1 1010 3 view .LVU355
1011:../../Drivers/STM32H7xx_HAL_Driver/Src/stm32h7xx_ll_fmc.c ****   assert_param(IS_FMC_REFRESH_RATE(RefreshRate));
 1237              		.loc 1 1011 3 view .LVU356
1012:../../Drivers/STM32H7xx_HAL_Driver/Src/stm32h7xx_ll_fmc.c **** 
1013:../../Drivers/STM32H7xx_HAL_Driver/Src/stm32h7xx_ll_fmc.c ****   /* Set the refresh rate in command register */
1014:../../Drivers/STM32H7xx_HAL_Driver/Src/stm32h7xx_ll_fmc.c ****   MODIFY_REG(Device->SDRTR, FMC_SDRTR_COUNT, (RefreshRate << FMC_SDRTR_COUNT_Pos));
 1238              		.loc 1 1014 3 view .LVU357
 1239 0000 4369     		ldr	r3, [r0, #20]
 1240 0002 6FF34D03 		bfc	r3, #1, #13
 1241 0006 43EA4103 		orr	r3, r3, r1, lsl #1
 1242 000a 4361     		str	r3, [r0, #20]
1015:../../Drivers/STM32H7xx_HAL_Driver/Src/stm32h7xx_ll_fmc.c **** 
1016:../../Drivers/STM32H7xx_HAL_Driver/Src/stm32h7xx_ll_fmc.c ****   return HAL_OK;
 1243              		.loc 1 1016 3 view .LVU358
1017:../../Drivers/STM32H7xx_HAL_Driver/Src/stm32h7xx_ll_fmc.c **** }
 1244              		.loc 1 1017 1 is_stmt 0 view .LVU359
 1245 000c 0020     		movs	r0, #0
 1246              	.LVL78:
 1247              		.loc 1 1017 1 view .LVU360
 1248 000e 7047     		bx	lr
 1249              		.cfi_endproc
 1250              	.LFE163:
 1252              		.section	.text.FMC_SDRAM_SetAutoRefreshNumber,"ax",%progbits
 1253              		.align	1
 1254              		.global	FMC_SDRAM_SetAutoRefreshNumber
 1255              		.syntax unified
 1256              		.thumb
 1257              		.thumb_func
 1259              	FMC_SDRAM_SetAutoRefreshNumber:
 1260              	.LVL79:
 1261              	.LFB164:
1018:../../Drivers/STM32H7xx_HAL_Driver/Src/stm32h7xx_ll_fmc.c **** 
1019:../../Drivers/STM32H7xx_HAL_Driver/Src/stm32h7xx_ll_fmc.c **** /**
1020:../../Drivers/STM32H7xx_HAL_Driver/Src/stm32h7xx_ll_fmc.c ****   * @brief  Set the Number of consecutive SDRAM Memory auto Refresh commands.
1021:../../Drivers/STM32H7xx_HAL_Driver/Src/stm32h7xx_ll_fmc.c ****   * @param  Device Pointer to SDRAM device instance
1022:../../Drivers/STM32H7xx_HAL_Driver/Src/stm32h7xx_ll_fmc.c ****   * @param  AutoRefreshNumber Specifies the auto Refresh number.
1023:../../Drivers/STM32H7xx_HAL_Driver/Src/stm32h7xx_ll_fmc.c ****   * @retval None
ARM GAS  C:\Users\28576\AppData\Local\Temp\ccYw9wfC.s 			page 41


1024:../../Drivers/STM32H7xx_HAL_Driver/Src/stm32h7xx_ll_fmc.c ****   */
1025:../../Drivers/STM32H7xx_HAL_Driver/Src/stm32h7xx_ll_fmc.c **** HAL_StatusTypeDef FMC_SDRAM_SetAutoRefreshNumber(FMC_SDRAM_TypeDef *Device,
1026:../../Drivers/STM32H7xx_HAL_Driver/Src/stm32h7xx_ll_fmc.c ****                                                  uint32_t AutoRefreshNumber)
1027:../../Drivers/STM32H7xx_HAL_Driver/Src/stm32h7xx_ll_fmc.c **** {
 1262              		.loc 1 1027 1 is_stmt 1 view -0
 1263              		.cfi_startproc
 1264              		@ args = 0, pretend = 0, frame = 0
 1265              		@ frame_needed = 0, uses_anonymous_args = 0
 1266              		@ link register save eliminated.
1028:../../Drivers/STM32H7xx_HAL_Driver/Src/stm32h7xx_ll_fmc.c ****   /* Check the parameters */
1029:../../Drivers/STM32H7xx_HAL_Driver/Src/stm32h7xx_ll_fmc.c ****   assert_param(IS_FMC_SDRAM_DEVICE(Device));
 1267              		.loc 1 1029 3 view .LVU362
1030:../../Drivers/STM32H7xx_HAL_Driver/Src/stm32h7xx_ll_fmc.c ****   assert_param(IS_FMC_AUTOREFRESH_NUMBER(AutoRefreshNumber));
 1268              		.loc 1 1030 3 view .LVU363
1031:../../Drivers/STM32H7xx_HAL_Driver/Src/stm32h7xx_ll_fmc.c **** 
1032:../../Drivers/STM32H7xx_HAL_Driver/Src/stm32h7xx_ll_fmc.c ****   /* Set the Auto-refresh number in command register */
1033:../../Drivers/STM32H7xx_HAL_Driver/Src/stm32h7xx_ll_fmc.c ****   MODIFY_REG(Device->SDCMR, FMC_SDCMR_NRFS, ((AutoRefreshNumber - 1U) << FMC_SDCMR_NRFS_Pos));
 1269              		.loc 1 1033 3 view .LVU364
 1270 0000 0369     		ldr	r3, [r0, #16]
 1271 0002 23F4F073 		bic	r3, r3, #480
 1272 0006 0139     		subs	r1, r1, #1
 1273              	.LVL80:
 1274              		.loc 1 1033 3 is_stmt 0 view .LVU365
 1275 0008 43EA4113 		orr	r3, r3, r1, lsl #5
 1276 000c 0361     		str	r3, [r0, #16]
1034:../../Drivers/STM32H7xx_HAL_Driver/Src/stm32h7xx_ll_fmc.c **** 
1035:../../Drivers/STM32H7xx_HAL_Driver/Src/stm32h7xx_ll_fmc.c ****   return HAL_OK;
 1277              		.loc 1 1035 3 is_stmt 1 view .LVU366
1036:../../Drivers/STM32H7xx_HAL_Driver/Src/stm32h7xx_ll_fmc.c **** }
 1278              		.loc 1 1036 1 is_stmt 0 view .LVU367
 1279 000e 0020     		movs	r0, #0
 1280              	.LVL81:
 1281              		.loc 1 1036 1 view .LVU368
 1282 0010 7047     		bx	lr
 1283              		.cfi_endproc
 1284              	.LFE164:
 1286              		.section	.text.FMC_SDRAM_GetModeStatus,"ax",%progbits
 1287              		.align	1
 1288              		.global	FMC_SDRAM_GetModeStatus
 1289              		.syntax unified
 1290              		.thumb
 1291              		.thumb_func
 1293              	FMC_SDRAM_GetModeStatus:
 1294              	.LVL82:
 1295              	.LFB165:
1037:../../Drivers/STM32H7xx_HAL_Driver/Src/stm32h7xx_ll_fmc.c **** 
1038:../../Drivers/STM32H7xx_HAL_Driver/Src/stm32h7xx_ll_fmc.c **** /**
1039:../../Drivers/STM32H7xx_HAL_Driver/Src/stm32h7xx_ll_fmc.c ****   * @brief  Returns the indicated FMC SDRAM bank mode status.
1040:../../Drivers/STM32H7xx_HAL_Driver/Src/stm32h7xx_ll_fmc.c ****   * @param  Device Pointer to SDRAM device instance
1041:../../Drivers/STM32H7xx_HAL_Driver/Src/stm32h7xx_ll_fmc.c ****   * @param  Bank Defines the FMC SDRAM bank. This parameter can be
1042:../../Drivers/STM32H7xx_HAL_Driver/Src/stm32h7xx_ll_fmc.c ****   *                     FMC_Bank1_SDRAM or FMC_Bank2_SDRAM.
1043:../../Drivers/STM32H7xx_HAL_Driver/Src/stm32h7xx_ll_fmc.c ****   * @retval The FMC SDRAM bank mode status, could be on of the following values:
1044:../../Drivers/STM32H7xx_HAL_Driver/Src/stm32h7xx_ll_fmc.c ****   *         FMC_SDRAM_NORMAL_MODE, FMC_SDRAM_SELF_REFRESH_MODE or
1045:../../Drivers/STM32H7xx_HAL_Driver/Src/stm32h7xx_ll_fmc.c ****   *         FMC_SDRAM_POWER_DOWN_MODE.
1046:../../Drivers/STM32H7xx_HAL_Driver/Src/stm32h7xx_ll_fmc.c ****   */
1047:../../Drivers/STM32H7xx_HAL_Driver/Src/stm32h7xx_ll_fmc.c **** uint32_t FMC_SDRAM_GetModeStatus(const FMC_SDRAM_TypeDef *Device, uint32_t Bank)
1048:../../Drivers/STM32H7xx_HAL_Driver/Src/stm32h7xx_ll_fmc.c **** {
ARM GAS  C:\Users\28576\AppData\Local\Temp\ccYw9wfC.s 			page 42


 1296              		.loc 1 1048 1 is_stmt 1 view -0
 1297              		.cfi_startproc
 1298              		@ args = 0, pretend = 0, frame = 0
 1299              		@ frame_needed = 0, uses_anonymous_args = 0
 1300              		@ link register save eliminated.
1049:../../Drivers/STM32H7xx_HAL_Driver/Src/stm32h7xx_ll_fmc.c ****   uint32_t tmpreg;
 1301              		.loc 1 1049 3 view .LVU370
1050:../../Drivers/STM32H7xx_HAL_Driver/Src/stm32h7xx_ll_fmc.c **** 
1051:../../Drivers/STM32H7xx_HAL_Driver/Src/stm32h7xx_ll_fmc.c ****   /* Check the parameters */
1052:../../Drivers/STM32H7xx_HAL_Driver/Src/stm32h7xx_ll_fmc.c ****   assert_param(IS_FMC_SDRAM_DEVICE(Device));
 1302              		.loc 1 1052 3 view .LVU371
1053:../../Drivers/STM32H7xx_HAL_Driver/Src/stm32h7xx_ll_fmc.c ****   assert_param(IS_FMC_SDRAM_BANK(Bank));
 1303              		.loc 1 1053 3 view .LVU372
1054:../../Drivers/STM32H7xx_HAL_Driver/Src/stm32h7xx_ll_fmc.c **** 
1055:../../Drivers/STM32H7xx_HAL_Driver/Src/stm32h7xx_ll_fmc.c ****   /* Get the corresponding bank mode */
1056:../../Drivers/STM32H7xx_HAL_Driver/Src/stm32h7xx_ll_fmc.c ****   if (Bank == FMC_SDRAM_BANK1)
 1304              		.loc 1 1056 3 view .LVU373
 1305              		.loc 1 1056 6 is_stmt 0 view .LVU374
 1306 0000 19B9     		cbnz	r1, .L65
1057:../../Drivers/STM32H7xx_HAL_Driver/Src/stm32h7xx_ll_fmc.c ****   {
1058:../../Drivers/STM32H7xx_HAL_Driver/Src/stm32h7xx_ll_fmc.c ****     tmpreg = (uint32_t)(Device->SDSR & FMC_SDSR_MODES1);
 1307              		.loc 1 1058 5 is_stmt 1 view .LVU375
 1308              		.loc 1 1058 31 is_stmt 0 view .LVU376
 1309 0002 8069     		ldr	r0, [r0, #24]
 1310              	.LVL83:
 1311              		.loc 1 1058 12 view .LVU377
 1312 0004 00F00600 		and	r0, r0, #6
 1313              	.LVL84:
 1314              		.loc 1 1058 12 view .LVU378
 1315 0008 7047     		bx	lr
 1316              	.LVL85:
 1317              	.L65:
1059:../../Drivers/STM32H7xx_HAL_Driver/Src/stm32h7xx_ll_fmc.c ****   }
1060:../../Drivers/STM32H7xx_HAL_Driver/Src/stm32h7xx_ll_fmc.c ****   else
1061:../../Drivers/STM32H7xx_HAL_Driver/Src/stm32h7xx_ll_fmc.c ****   {
1062:../../Drivers/STM32H7xx_HAL_Driver/Src/stm32h7xx_ll_fmc.c ****     tmpreg = ((uint32_t)(Device->SDSR & FMC_SDSR_MODES2) >> 2U);
 1318              		.loc 1 1062 5 is_stmt 1 view .LVU379
 1319              		.loc 1 1062 32 is_stmt 0 view .LVU380
 1320 000a 8069     		ldr	r0, [r0, #24]
 1321              	.LVL86:
 1322              		.loc 1 1062 58 view .LVU381
 1323 000c 8008     		lsrs	r0, r0, #2
 1324              		.loc 1 1062 12 view .LVU382
 1325 000e 00F00600 		and	r0, r0, #6
 1326              	.LVL87:
1063:../../Drivers/STM32H7xx_HAL_Driver/Src/stm32h7xx_ll_fmc.c ****   }
1064:../../Drivers/STM32H7xx_HAL_Driver/Src/stm32h7xx_ll_fmc.c **** 
1065:../../Drivers/STM32H7xx_HAL_Driver/Src/stm32h7xx_ll_fmc.c ****   /* Return the mode status */
1066:../../Drivers/STM32H7xx_HAL_Driver/Src/stm32h7xx_ll_fmc.c ****   return tmpreg;
 1327              		.loc 1 1066 3 is_stmt 1 view .LVU383
1067:../../Drivers/STM32H7xx_HAL_Driver/Src/stm32h7xx_ll_fmc.c **** }
 1328              		.loc 1 1067 1 is_stmt 0 view .LVU384
 1329 0012 7047     		bx	lr
 1330              		.cfi_endproc
 1331              	.LFE165:
 1333              		.text
 1334              	.Letext0:
ARM GAS  C:\Users\28576\AppData\Local\Temp\ccYw9wfC.s 			page 43


 1335              		.file 2 "C:/Users/28576/AppData/Roaming/xPacks/@xpack-dev-tools/arm-none-eabi-gcc/15.2.1-1.1.1/.co
 1336              		.file 3 "C:/Users/28576/AppData/Roaming/xPacks/@xpack-dev-tools/arm-none-eabi-gcc/15.2.1-1.1.1/.co
 1337              		.file 4 "../../Drivers/CMSIS/Device/ST/STM32H7xx/Include/stm32h747xx.h"
 1338              		.file 5 "../../Drivers/CMSIS/Device/ST/STM32H7xx/Include/stm32h7xx.h"
 1339              		.file 6 "../../Drivers/STM32H7xx_HAL_Driver/Inc/stm32h7xx_hal_def.h"
 1340              		.file 7 "../../Drivers/STM32H7xx_HAL_Driver/Inc/stm32h7xx_ll_fmc.h"
 1341              		.file 8 "../../Drivers/STM32H7xx_HAL_Driver/Inc/stm32h7xx_hal.h"
ARM GAS  C:\Users\28576\AppData\Local\Temp\ccYw9wfC.s 			page 44

