ARM GAS  C:\Users\28576\AppData\Local\Temp\cc51Faqy.s 			page 1


   1              		.cpu cortex-m7
   2              		.arch armv7e-m
   3              		.fpu fpv4-sp-d16
   4              		.eabi_attribute 27, 1
   5              		.eabi_attribute 28, 1
   6              		.eabi_attribute 20, 1
   7              		.eabi_attribute 21, 1
   8              		.eabi_attribute 23, 3
   9              		.eabi_attribute 24, 1
  10              		.eabi_attribute 25, 1
  11              		.eabi_attribute 26, 1
  12              		.eabi_attribute 30, 1
  13              		.eabi_attribute 34, 1
  14              		.eabi_attribute 18, 4
  15              		.file	"stm32h7xx_hal_dma_ex.c"
  16              		.text
  17              	.Ltext0:
  18              		.cfi_sections	.debug_frame
  19              		.file 1 "../../Drivers/STM32H7xx_HAL_Driver/Src/stm32h7xx_hal_dma_ex.c"
  20              		.section	.text.DMA_MultiBufferSetConfig,"ax",%progbits
  21              		.align	1
  22              		.syntax unified
  23              		.thumb
  24              		.thumb_func
  26              	DMA_MultiBufferSetConfig:
  27              	.LVL0:
  28              	.LFB140:
   1:../../Drivers/STM32H7xx_HAL_Driver/Src/stm32h7xx_hal_dma_ex.c **** /**
   2:../../Drivers/STM32H7xx_HAL_Driver/Src/stm32h7xx_hal_dma_ex.c ****   ******************************************************************************
   3:../../Drivers/STM32H7xx_HAL_Driver/Src/stm32h7xx_hal_dma_ex.c ****   * @file    stm32h7xx_hal_dma_ex.c
   4:../../Drivers/STM32H7xx_HAL_Driver/Src/stm32h7xx_hal_dma_ex.c ****   * @author  MCD Application Team
   5:../../Drivers/STM32H7xx_HAL_Driver/Src/stm32h7xx_hal_dma_ex.c ****   * @brief   DMA Extension HAL module driver
   6:../../Drivers/STM32H7xx_HAL_Driver/Src/stm32h7xx_hal_dma_ex.c ****   *          This file provides firmware functions to manage the following
   7:../../Drivers/STM32H7xx_HAL_Driver/Src/stm32h7xx_hal_dma_ex.c ****   *          functionalities of the DMA Extension peripheral:
   8:../../Drivers/STM32H7xx_HAL_Driver/Src/stm32h7xx_hal_dma_ex.c ****   *           + Extended features functions
   9:../../Drivers/STM32H7xx_HAL_Driver/Src/stm32h7xx_hal_dma_ex.c ****   *
  10:../../Drivers/STM32H7xx_HAL_Driver/Src/stm32h7xx_hal_dma_ex.c ****   @verbatim
  11:../../Drivers/STM32H7xx_HAL_Driver/Src/stm32h7xx_hal_dma_ex.c ****   ==============================================================================
  12:../../Drivers/STM32H7xx_HAL_Driver/Src/stm32h7xx_hal_dma_ex.c ****                         ##### How to use this driver #####
  13:../../Drivers/STM32H7xx_HAL_Driver/Src/stm32h7xx_hal_dma_ex.c ****   ==============================================================================
  14:../../Drivers/STM32H7xx_HAL_Driver/Src/stm32h7xx_hal_dma_ex.c ****   [..]
  15:../../Drivers/STM32H7xx_HAL_Driver/Src/stm32h7xx_hal_dma_ex.c ****   The DMA Extension HAL driver can be used as follows:
  16:../../Drivers/STM32H7xx_HAL_Driver/Src/stm32h7xx_hal_dma_ex.c ****    (+) Start a multi buffer transfer using the HAL_DMA_MultiBufferStart() function
  17:../../Drivers/STM32H7xx_HAL_Driver/Src/stm32h7xx_hal_dma_ex.c ****        for polling mode or HAL_DMA_MultiBufferStart_IT() for interrupt mode.
  18:../../Drivers/STM32H7xx_HAL_Driver/Src/stm32h7xx_hal_dma_ex.c **** 
  19:../../Drivers/STM32H7xx_HAL_Driver/Src/stm32h7xx_hal_dma_ex.c ****    (+) Configure the DMA_MUX Synchronization Block using HAL_DMAEx_ConfigMuxSync function.
  20:../../Drivers/STM32H7xx_HAL_Driver/Src/stm32h7xx_hal_dma_ex.c ****    (+) Configure the DMA_MUX Request Generator Block using HAL_DMAEx_ConfigMuxRequestGenerator func
  21:../../Drivers/STM32H7xx_HAL_Driver/Src/stm32h7xx_hal_dma_ex.c ****        Functions HAL_DMAEx_EnableMuxRequestGenerator and HAL_DMAEx_DisableMuxRequestGenerator can t
  22:../../Drivers/STM32H7xx_HAL_Driver/Src/stm32h7xx_hal_dma_ex.c ****        to respectively enable/disable the request generator.
  23:../../Drivers/STM32H7xx_HAL_Driver/Src/stm32h7xx_hal_dma_ex.c **** 
  24:../../Drivers/STM32H7xx_HAL_Driver/Src/stm32h7xx_hal_dma_ex.c ****    (+) To handle the DMAMUX Interrupts, the function  HAL_DMAEx_MUX_IRQHandler should be called fro
  25:../../Drivers/STM32H7xx_HAL_Driver/Src/stm32h7xx_hal_dma_ex.c ****        the DMAMUX IRQ handler i.e DMAMUX1_OVR_IRQHandler or DMAMUX2_OVR_IRQHandler .
  26:../../Drivers/STM32H7xx_HAL_Driver/Src/stm32h7xx_hal_dma_ex.c ****        As only one interrupt line is available for all DMAMUX channels and request generators , HAL
  27:../../Drivers/STM32H7xx_HAL_Driver/Src/stm32h7xx_hal_dma_ex.c ****        called with, as parameter, the appropriate DMA handle as many as used DMAs in the user proje
  28:../../Drivers/STM32H7xx_HAL_Driver/Src/stm32h7xx_hal_dma_ex.c ****       (exception done if a given DMA is not using the DMAMUX SYNC block neither a request generator
  29:../../Drivers/STM32H7xx_HAL_Driver/Src/stm32h7xx_hal_dma_ex.c **** 
  30:../../Drivers/STM32H7xx_HAL_Driver/Src/stm32h7xx_hal_dma_ex.c ****      -@-  In Memory-to-Memory transfer mode, Multi (Double) Buffer mode is not allowed.
ARM GAS  C:\Users\28576\AppData\Local\Temp\cc51Faqy.s 			page 2


  31:../../Drivers/STM32H7xx_HAL_Driver/Src/stm32h7xx_hal_dma_ex.c ****      -@-  When Multi (Double) Buffer mode is enabled, the transfer is circular by default.
  32:../../Drivers/STM32H7xx_HAL_Driver/Src/stm32h7xx_hal_dma_ex.c ****      -@-  In Multi (Double) buffer mode, it is possible to update the base address for
  33:../../Drivers/STM32H7xx_HAL_Driver/Src/stm32h7xx_hal_dma_ex.c ****           the AHB memory port on the fly (DMA_SxM0AR or DMA_SxM1AR) when the stream is enabled.
  34:../../Drivers/STM32H7xx_HAL_Driver/Src/stm32h7xx_hal_dma_ex.c ****      -@-  Multi (Double) buffer mode is possible with DMA and BDMA instances.
  35:../../Drivers/STM32H7xx_HAL_Driver/Src/stm32h7xx_hal_dma_ex.c **** 
  36:../../Drivers/STM32H7xx_HAL_Driver/Src/stm32h7xx_hal_dma_ex.c ****   @endverbatim
  37:../../Drivers/STM32H7xx_HAL_Driver/Src/stm32h7xx_hal_dma_ex.c ****   ******************************************************************************
  38:../../Drivers/STM32H7xx_HAL_Driver/Src/stm32h7xx_hal_dma_ex.c ****   * @attention
  39:../../Drivers/STM32H7xx_HAL_Driver/Src/stm32h7xx_hal_dma_ex.c ****   *
  40:../../Drivers/STM32H7xx_HAL_Driver/Src/stm32h7xx_hal_dma_ex.c ****   * Copyright (c) 2017 STMicroelectronics.
  41:../../Drivers/STM32H7xx_HAL_Driver/Src/stm32h7xx_hal_dma_ex.c ****   * All rights reserved.
  42:../../Drivers/STM32H7xx_HAL_Driver/Src/stm32h7xx_hal_dma_ex.c ****   *
  43:../../Drivers/STM32H7xx_HAL_Driver/Src/stm32h7xx_hal_dma_ex.c ****   * This software is licensed under terms that can be found in the LICENSE file
  44:../../Drivers/STM32H7xx_HAL_Driver/Src/stm32h7xx_hal_dma_ex.c ****   * in the root directory of this software component.
  45:../../Drivers/STM32H7xx_HAL_Driver/Src/stm32h7xx_hal_dma_ex.c ****   * If no LICENSE file comes with this software, it is provided AS-IS.
  46:../../Drivers/STM32H7xx_HAL_Driver/Src/stm32h7xx_hal_dma_ex.c ****   *
  47:../../Drivers/STM32H7xx_HAL_Driver/Src/stm32h7xx_hal_dma_ex.c ****   ******************************************************************************
  48:../../Drivers/STM32H7xx_HAL_Driver/Src/stm32h7xx_hal_dma_ex.c ****   */
  49:../../Drivers/STM32H7xx_HAL_Driver/Src/stm32h7xx_hal_dma_ex.c **** 
  50:../../Drivers/STM32H7xx_HAL_Driver/Src/stm32h7xx_hal_dma_ex.c **** /* Includes ------------------------------------------------------------------*/
  51:../../Drivers/STM32H7xx_HAL_Driver/Src/stm32h7xx_hal_dma_ex.c **** #include "stm32h7xx_hal.h"
  52:../../Drivers/STM32H7xx_HAL_Driver/Src/stm32h7xx_hal_dma_ex.c **** 
  53:../../Drivers/STM32H7xx_HAL_Driver/Src/stm32h7xx_hal_dma_ex.c **** /** @addtogroup STM32H7xx_HAL_Driver
  54:../../Drivers/STM32H7xx_HAL_Driver/Src/stm32h7xx_hal_dma_ex.c ****   * @{
  55:../../Drivers/STM32H7xx_HAL_Driver/Src/stm32h7xx_hal_dma_ex.c ****   */
  56:../../Drivers/STM32H7xx_HAL_Driver/Src/stm32h7xx_hal_dma_ex.c **** 
  57:../../Drivers/STM32H7xx_HAL_Driver/Src/stm32h7xx_hal_dma_ex.c **** /** @defgroup DMAEx DMAEx
  58:../../Drivers/STM32H7xx_HAL_Driver/Src/stm32h7xx_hal_dma_ex.c ****   * @brief DMA Extended HAL module driver
  59:../../Drivers/STM32H7xx_HAL_Driver/Src/stm32h7xx_hal_dma_ex.c ****   * @{
  60:../../Drivers/STM32H7xx_HAL_Driver/Src/stm32h7xx_hal_dma_ex.c ****   */
  61:../../Drivers/STM32H7xx_HAL_Driver/Src/stm32h7xx_hal_dma_ex.c **** 
  62:../../Drivers/STM32H7xx_HAL_Driver/Src/stm32h7xx_hal_dma_ex.c **** #ifdef HAL_DMA_MODULE_ENABLED
  63:../../Drivers/STM32H7xx_HAL_Driver/Src/stm32h7xx_hal_dma_ex.c **** 
  64:../../Drivers/STM32H7xx_HAL_Driver/Src/stm32h7xx_hal_dma_ex.c **** /* Private types -------------------------------------------------------------*/
  65:../../Drivers/STM32H7xx_HAL_Driver/Src/stm32h7xx_hal_dma_ex.c **** /* Private variables ---------------------------------------------------------*/
  66:../../Drivers/STM32H7xx_HAL_Driver/Src/stm32h7xx_hal_dma_ex.c **** /* Private Constants ---------------------------------------------------------*/
  67:../../Drivers/STM32H7xx_HAL_Driver/Src/stm32h7xx_hal_dma_ex.c **** /* Private macros ------------------------------------------------------------*/
  68:../../Drivers/STM32H7xx_HAL_Driver/Src/stm32h7xx_hal_dma_ex.c **** /* Private functions ---------------------------------------------------------*/
  69:../../Drivers/STM32H7xx_HAL_Driver/Src/stm32h7xx_hal_dma_ex.c **** /** @addtogroup DMAEx_Private_Functions
  70:../../Drivers/STM32H7xx_HAL_Driver/Src/stm32h7xx_hal_dma_ex.c ****   * @{
  71:../../Drivers/STM32H7xx_HAL_Driver/Src/stm32h7xx_hal_dma_ex.c ****   */
  72:../../Drivers/STM32H7xx_HAL_Driver/Src/stm32h7xx_hal_dma_ex.c **** 
  73:../../Drivers/STM32H7xx_HAL_Driver/Src/stm32h7xx_hal_dma_ex.c **** static void DMA_MultiBufferSetConfig(DMA_HandleTypeDef *hdma, uint32_t SrcAddress, uint32_t DstAddr
  74:../../Drivers/STM32H7xx_HAL_Driver/Src/stm32h7xx_hal_dma_ex.c **** 
  75:../../Drivers/STM32H7xx_HAL_Driver/Src/stm32h7xx_hal_dma_ex.c **** /**
  76:../../Drivers/STM32H7xx_HAL_Driver/Src/stm32h7xx_hal_dma_ex.c ****   * @}
  77:../../Drivers/STM32H7xx_HAL_Driver/Src/stm32h7xx_hal_dma_ex.c ****   */
  78:../../Drivers/STM32H7xx_HAL_Driver/Src/stm32h7xx_hal_dma_ex.c **** 
  79:../../Drivers/STM32H7xx_HAL_Driver/Src/stm32h7xx_hal_dma_ex.c **** /* Exported functions ---------------------------------------------------------*/
  80:../../Drivers/STM32H7xx_HAL_Driver/Src/stm32h7xx_hal_dma_ex.c **** 
  81:../../Drivers/STM32H7xx_HAL_Driver/Src/stm32h7xx_hal_dma_ex.c **** /** @addtogroup DMAEx_Exported_Functions
  82:../../Drivers/STM32H7xx_HAL_Driver/Src/stm32h7xx_hal_dma_ex.c ****   * @{
  83:../../Drivers/STM32H7xx_HAL_Driver/Src/stm32h7xx_hal_dma_ex.c ****   */
  84:../../Drivers/STM32H7xx_HAL_Driver/Src/stm32h7xx_hal_dma_ex.c **** 
  85:../../Drivers/STM32H7xx_HAL_Driver/Src/stm32h7xx_hal_dma_ex.c **** 
  86:../../Drivers/STM32H7xx_HAL_Driver/Src/stm32h7xx_hal_dma_ex.c **** /** @addtogroup DMAEx_Exported_Functions_Group1
  87:../../Drivers/STM32H7xx_HAL_Driver/Src/stm32h7xx_hal_dma_ex.c ****   *
ARM GAS  C:\Users\28576\AppData\Local\Temp\cc51Faqy.s 			page 3


  88:../../Drivers/STM32H7xx_HAL_Driver/Src/stm32h7xx_hal_dma_ex.c **** @verbatim
  89:../../Drivers/STM32H7xx_HAL_Driver/Src/stm32h7xx_hal_dma_ex.c ****  ===============================================================================
  90:../../Drivers/STM32H7xx_HAL_Driver/Src/stm32h7xx_hal_dma_ex.c ****                 #####  Extended features functions  #####
  91:../../Drivers/STM32H7xx_HAL_Driver/Src/stm32h7xx_hal_dma_ex.c ****  ===============================================================================
  92:../../Drivers/STM32H7xx_HAL_Driver/Src/stm32h7xx_hal_dma_ex.c ****     [..]  This section provides functions allowing to:
  93:../../Drivers/STM32H7xx_HAL_Driver/Src/stm32h7xx_hal_dma_ex.c ****       (+) Configure the source, destination address and data length and
  94:../../Drivers/STM32H7xx_HAL_Driver/Src/stm32h7xx_hal_dma_ex.c ****           Start MultiBuffer DMA transfer
  95:../../Drivers/STM32H7xx_HAL_Driver/Src/stm32h7xx_hal_dma_ex.c ****       (+) Configure the source, destination address and data length and
  96:../../Drivers/STM32H7xx_HAL_Driver/Src/stm32h7xx_hal_dma_ex.c ****           Start MultiBuffer DMA transfer with interrupt
  97:../../Drivers/STM32H7xx_HAL_Driver/Src/stm32h7xx_hal_dma_ex.c ****       (+) Change on the fly the memory0 or memory1 address.
  98:../../Drivers/STM32H7xx_HAL_Driver/Src/stm32h7xx_hal_dma_ex.c ****       (+) Configure the DMA_MUX Synchronization Block using HAL_DMAEx_ConfigMuxSync function.
  99:../../Drivers/STM32H7xx_HAL_Driver/Src/stm32h7xx_hal_dma_ex.c ****       (+) Configure the DMA_MUX Request Generator Block using HAL_DMAEx_ConfigMuxRequestGenerator f
 100:../../Drivers/STM32H7xx_HAL_Driver/Src/stm32h7xx_hal_dma_ex.c ****       (+) Functions HAL_DMAEx_EnableMuxRequestGenerator and HAL_DMAEx_DisableMuxRequestGenerator ca
 101:../../Drivers/STM32H7xx_HAL_Driver/Src/stm32h7xx_hal_dma_ex.c ****           to respectively enable/disable the request generator.
 102:../../Drivers/STM32H7xx_HAL_Driver/Src/stm32h7xx_hal_dma_ex.c ****       (+) Handle DMAMUX interrupts using HAL_DMAEx_MUX_IRQHandler : should be called from
 103:../../Drivers/STM32H7xx_HAL_Driver/Src/stm32h7xx_hal_dma_ex.c ****           the DMAMUX IRQ handler i.e DMAMUX1_OVR_IRQHandler or DMAMUX2_OVR_IRQHandler
 104:../../Drivers/STM32H7xx_HAL_Driver/Src/stm32h7xx_hal_dma_ex.c **** 
 105:../../Drivers/STM32H7xx_HAL_Driver/Src/stm32h7xx_hal_dma_ex.c **** @endverbatim
 106:../../Drivers/STM32H7xx_HAL_Driver/Src/stm32h7xx_hal_dma_ex.c ****   * @{
 107:../../Drivers/STM32H7xx_HAL_Driver/Src/stm32h7xx_hal_dma_ex.c ****   */
 108:../../Drivers/STM32H7xx_HAL_Driver/Src/stm32h7xx_hal_dma_ex.c **** 
 109:../../Drivers/STM32H7xx_HAL_Driver/Src/stm32h7xx_hal_dma_ex.c **** 
 110:../../Drivers/STM32H7xx_HAL_Driver/Src/stm32h7xx_hal_dma_ex.c **** /**
 111:../../Drivers/STM32H7xx_HAL_Driver/Src/stm32h7xx_hal_dma_ex.c ****   * @brief  Starts the multi_buffer DMA Transfer.
 112:../../Drivers/STM32H7xx_HAL_Driver/Src/stm32h7xx_hal_dma_ex.c ****   * @param  hdma      : pointer to a DMA_HandleTypeDef structure that contains
 113:../../Drivers/STM32H7xx_HAL_Driver/Src/stm32h7xx_hal_dma_ex.c ****   *                     the configuration information for the specified DMA Stream.
 114:../../Drivers/STM32H7xx_HAL_Driver/Src/stm32h7xx_hal_dma_ex.c ****   * @param  SrcAddress: The source memory Buffer address
 115:../../Drivers/STM32H7xx_HAL_Driver/Src/stm32h7xx_hal_dma_ex.c ****   * @param  DstAddress: The destination memory Buffer address
 116:../../Drivers/STM32H7xx_HAL_Driver/Src/stm32h7xx_hal_dma_ex.c ****   * @param  SecondMemAddress: The second memory Buffer address in case of multi buffer Transfer
 117:../../Drivers/STM32H7xx_HAL_Driver/Src/stm32h7xx_hal_dma_ex.c ****   * @param  DataLength: The length of data to be transferred from source to destination
 118:../../Drivers/STM32H7xx_HAL_Driver/Src/stm32h7xx_hal_dma_ex.c ****   * @retval HAL status
 119:../../Drivers/STM32H7xx_HAL_Driver/Src/stm32h7xx_hal_dma_ex.c ****   */
 120:../../Drivers/STM32H7xx_HAL_Driver/Src/stm32h7xx_hal_dma_ex.c **** HAL_StatusTypeDef HAL_DMAEx_MultiBufferStart(DMA_HandleTypeDef *hdma, uint32_t SrcAddress, uint32_t
 121:../../Drivers/STM32H7xx_HAL_Driver/Src/stm32h7xx_hal_dma_ex.c **** {
 122:../../Drivers/STM32H7xx_HAL_Driver/Src/stm32h7xx_hal_dma_ex.c ****   HAL_StatusTypeDef status = HAL_OK;
 123:../../Drivers/STM32H7xx_HAL_Driver/Src/stm32h7xx_hal_dma_ex.c ****   __IO uint32_t *ifcRegister_Base; /* DMA Stream Interrupt Clear register */
 124:../../Drivers/STM32H7xx_HAL_Driver/Src/stm32h7xx_hal_dma_ex.c **** 
 125:../../Drivers/STM32H7xx_HAL_Driver/Src/stm32h7xx_hal_dma_ex.c ****   /* Check the parameters */
 126:../../Drivers/STM32H7xx_HAL_Driver/Src/stm32h7xx_hal_dma_ex.c ****   assert_param(IS_DMA_BUFFER_SIZE(DataLength));
 127:../../Drivers/STM32H7xx_HAL_Driver/Src/stm32h7xx_hal_dma_ex.c ****   assert_param(IS_DMA_ALL_INSTANCE(hdma->Instance));
 128:../../Drivers/STM32H7xx_HAL_Driver/Src/stm32h7xx_hal_dma_ex.c **** 
 129:../../Drivers/STM32H7xx_HAL_Driver/Src/stm32h7xx_hal_dma_ex.c ****   /* Memory-to-memory transfer not supported in double buffering mode */
 130:../../Drivers/STM32H7xx_HAL_Driver/Src/stm32h7xx_hal_dma_ex.c ****   if (hdma->Init.Direction == DMA_MEMORY_TO_MEMORY)
 131:../../Drivers/STM32H7xx_HAL_Driver/Src/stm32h7xx_hal_dma_ex.c ****   {
 132:../../Drivers/STM32H7xx_HAL_Driver/Src/stm32h7xx_hal_dma_ex.c ****     hdma->ErrorCode = HAL_DMA_ERROR_NOT_SUPPORTED;
 133:../../Drivers/STM32H7xx_HAL_Driver/Src/stm32h7xx_hal_dma_ex.c ****     status = HAL_ERROR;
 134:../../Drivers/STM32H7xx_HAL_Driver/Src/stm32h7xx_hal_dma_ex.c ****   }
 135:../../Drivers/STM32H7xx_HAL_Driver/Src/stm32h7xx_hal_dma_ex.c ****   else
 136:../../Drivers/STM32H7xx_HAL_Driver/Src/stm32h7xx_hal_dma_ex.c ****   {
 137:../../Drivers/STM32H7xx_HAL_Driver/Src/stm32h7xx_hal_dma_ex.c ****     /* Process Locked */
 138:../../Drivers/STM32H7xx_HAL_Driver/Src/stm32h7xx_hal_dma_ex.c ****     __HAL_LOCK(hdma);
 139:../../Drivers/STM32H7xx_HAL_Driver/Src/stm32h7xx_hal_dma_ex.c **** 
 140:../../Drivers/STM32H7xx_HAL_Driver/Src/stm32h7xx_hal_dma_ex.c ****     if(HAL_DMA_STATE_READY == hdma->State)
 141:../../Drivers/STM32H7xx_HAL_Driver/Src/stm32h7xx_hal_dma_ex.c ****     {
 142:../../Drivers/STM32H7xx_HAL_Driver/Src/stm32h7xx_hal_dma_ex.c ****       /* Change DMA peripheral state */
 143:../../Drivers/STM32H7xx_HAL_Driver/Src/stm32h7xx_hal_dma_ex.c ****       hdma->State = HAL_DMA_STATE_BUSY;
 144:../../Drivers/STM32H7xx_HAL_Driver/Src/stm32h7xx_hal_dma_ex.c **** 
ARM GAS  C:\Users\28576\AppData\Local\Temp\cc51Faqy.s 			page 4


 145:../../Drivers/STM32H7xx_HAL_Driver/Src/stm32h7xx_hal_dma_ex.c ****       /* Initialize the error code */
 146:../../Drivers/STM32H7xx_HAL_Driver/Src/stm32h7xx_hal_dma_ex.c ****       hdma->ErrorCode = HAL_DMA_ERROR_NONE;
 147:../../Drivers/STM32H7xx_HAL_Driver/Src/stm32h7xx_hal_dma_ex.c **** 
 148:../../Drivers/STM32H7xx_HAL_Driver/Src/stm32h7xx_hal_dma_ex.c ****       if(IS_DMA_STREAM_INSTANCE(hdma->Instance) != 0U) /* DMA1 or DMA2 instance */
 149:../../Drivers/STM32H7xx_HAL_Driver/Src/stm32h7xx_hal_dma_ex.c ****       {
 150:../../Drivers/STM32H7xx_HAL_Driver/Src/stm32h7xx_hal_dma_ex.c ****         /* Enable the Double buffer mode */
 151:../../Drivers/STM32H7xx_HAL_Driver/Src/stm32h7xx_hal_dma_ex.c ****         ((DMA_Stream_TypeDef   *)hdma->Instance)->CR |= DMA_SxCR_DBM;
 152:../../Drivers/STM32H7xx_HAL_Driver/Src/stm32h7xx_hal_dma_ex.c **** 
 153:../../Drivers/STM32H7xx_HAL_Driver/Src/stm32h7xx_hal_dma_ex.c ****         /* Configure DMA Stream destination address */
 154:../../Drivers/STM32H7xx_HAL_Driver/Src/stm32h7xx_hal_dma_ex.c ****         ((DMA_Stream_TypeDef   *)hdma->Instance)->M1AR = SecondMemAddress;
 155:../../Drivers/STM32H7xx_HAL_Driver/Src/stm32h7xx_hal_dma_ex.c **** 
 156:../../Drivers/STM32H7xx_HAL_Driver/Src/stm32h7xx_hal_dma_ex.c ****         /* Calculate the interrupt clear flag register (IFCR) base address  */
 157:../../Drivers/STM32H7xx_HAL_Driver/Src/stm32h7xx_hal_dma_ex.c ****         ifcRegister_Base = (uint32_t *)((uint32_t)(hdma->StreamBaseAddress + 8U));
 158:../../Drivers/STM32H7xx_HAL_Driver/Src/stm32h7xx_hal_dma_ex.c **** 
 159:../../Drivers/STM32H7xx_HAL_Driver/Src/stm32h7xx_hal_dma_ex.c ****         /* Clear all flags */
 160:../../Drivers/STM32H7xx_HAL_Driver/Src/stm32h7xx_hal_dma_ex.c ****         *ifcRegister_Base = 0x3FUL << (hdma->StreamIndex & 0x1FU);
 161:../../Drivers/STM32H7xx_HAL_Driver/Src/stm32h7xx_hal_dma_ex.c ****       }
 162:../../Drivers/STM32H7xx_HAL_Driver/Src/stm32h7xx_hal_dma_ex.c ****       else /* BDMA instance(s) */
 163:../../Drivers/STM32H7xx_HAL_Driver/Src/stm32h7xx_hal_dma_ex.c ****       {
 164:../../Drivers/STM32H7xx_HAL_Driver/Src/stm32h7xx_hal_dma_ex.c ****         /* Enable the Double buffer mode */
 165:../../Drivers/STM32H7xx_HAL_Driver/Src/stm32h7xx_hal_dma_ex.c ****         ((BDMA_Channel_TypeDef   *)hdma->Instance)->CCR |= (BDMA_CCR_DBM | BDMA_CCR_CIRC);
 166:../../Drivers/STM32H7xx_HAL_Driver/Src/stm32h7xx_hal_dma_ex.c **** 
 167:../../Drivers/STM32H7xx_HAL_Driver/Src/stm32h7xx_hal_dma_ex.c ****         /* Configure DMA Stream destination address */
 168:../../Drivers/STM32H7xx_HAL_Driver/Src/stm32h7xx_hal_dma_ex.c ****         ((BDMA_Channel_TypeDef   *)hdma->Instance)->CM1AR = SecondMemAddress;
 169:../../Drivers/STM32H7xx_HAL_Driver/Src/stm32h7xx_hal_dma_ex.c **** 
 170:../../Drivers/STM32H7xx_HAL_Driver/Src/stm32h7xx_hal_dma_ex.c ****         /* Calculate the interrupt clear flag register (IFCR) base address  */
 171:../../Drivers/STM32H7xx_HAL_Driver/Src/stm32h7xx_hal_dma_ex.c ****         ifcRegister_Base = (uint32_t *)((uint32_t)(hdma->StreamBaseAddress + 4U));
 172:../../Drivers/STM32H7xx_HAL_Driver/Src/stm32h7xx_hal_dma_ex.c **** 
 173:../../Drivers/STM32H7xx_HAL_Driver/Src/stm32h7xx_hal_dma_ex.c ****         /* Clear all flags */
 174:../../Drivers/STM32H7xx_HAL_Driver/Src/stm32h7xx_hal_dma_ex.c ****         *ifcRegister_Base = (BDMA_ISR_GIF0) << (hdma->StreamIndex & 0x1FU);
 175:../../Drivers/STM32H7xx_HAL_Driver/Src/stm32h7xx_hal_dma_ex.c ****       }
 176:../../Drivers/STM32H7xx_HAL_Driver/Src/stm32h7xx_hal_dma_ex.c **** 
 177:../../Drivers/STM32H7xx_HAL_Driver/Src/stm32h7xx_hal_dma_ex.c ****       if(IS_DMA_DMAMUX_ALL_INSTANCE(hdma->Instance) != 0U) /* No DMAMUX available for BDMA1 */
 178:../../Drivers/STM32H7xx_HAL_Driver/Src/stm32h7xx_hal_dma_ex.c ****       {
 179:../../Drivers/STM32H7xx_HAL_Driver/Src/stm32h7xx_hal_dma_ex.c ****         /* Configure the source, destination address and the data length */
 180:../../Drivers/STM32H7xx_HAL_Driver/Src/stm32h7xx_hal_dma_ex.c ****         DMA_MultiBufferSetConfig(hdma, SrcAddress, DstAddress, DataLength);
 181:../../Drivers/STM32H7xx_HAL_Driver/Src/stm32h7xx_hal_dma_ex.c **** 
 182:../../Drivers/STM32H7xx_HAL_Driver/Src/stm32h7xx_hal_dma_ex.c ****         /* Clear the DMAMUX synchro overrun flag */
 183:../../Drivers/STM32H7xx_HAL_Driver/Src/stm32h7xx_hal_dma_ex.c ****         hdma->DMAmuxChannelStatus->CFR = hdma->DMAmuxChannelStatusMask;
 184:../../Drivers/STM32H7xx_HAL_Driver/Src/stm32h7xx_hal_dma_ex.c **** 
 185:../../Drivers/STM32H7xx_HAL_Driver/Src/stm32h7xx_hal_dma_ex.c ****         if(hdma->DMAmuxRequestGen != 0U)
 186:../../Drivers/STM32H7xx_HAL_Driver/Src/stm32h7xx_hal_dma_ex.c ****         {
 187:../../Drivers/STM32H7xx_HAL_Driver/Src/stm32h7xx_hal_dma_ex.c ****           /* Clear the DMAMUX request generator overrun flag */
 188:../../Drivers/STM32H7xx_HAL_Driver/Src/stm32h7xx_hal_dma_ex.c ****           hdma->DMAmuxRequestGenStatus->RGCFR = hdma->DMAmuxRequestGenStatusMask;
 189:../../Drivers/STM32H7xx_HAL_Driver/Src/stm32h7xx_hal_dma_ex.c ****         }
 190:../../Drivers/STM32H7xx_HAL_Driver/Src/stm32h7xx_hal_dma_ex.c ****       }
 191:../../Drivers/STM32H7xx_HAL_Driver/Src/stm32h7xx_hal_dma_ex.c **** 
 192:../../Drivers/STM32H7xx_HAL_Driver/Src/stm32h7xx_hal_dma_ex.c ****       /* Enable the peripheral */
 193:../../Drivers/STM32H7xx_HAL_Driver/Src/stm32h7xx_hal_dma_ex.c ****       __HAL_DMA_ENABLE(hdma);
 194:../../Drivers/STM32H7xx_HAL_Driver/Src/stm32h7xx_hal_dma_ex.c ****     }
 195:../../Drivers/STM32H7xx_HAL_Driver/Src/stm32h7xx_hal_dma_ex.c ****     else
 196:../../Drivers/STM32H7xx_HAL_Driver/Src/stm32h7xx_hal_dma_ex.c ****     {
 197:../../Drivers/STM32H7xx_HAL_Driver/Src/stm32h7xx_hal_dma_ex.c ****       /* Set the error code to busy */
 198:../../Drivers/STM32H7xx_HAL_Driver/Src/stm32h7xx_hal_dma_ex.c ****       hdma->ErrorCode = HAL_DMA_ERROR_BUSY;
 199:../../Drivers/STM32H7xx_HAL_Driver/Src/stm32h7xx_hal_dma_ex.c **** 
 200:../../Drivers/STM32H7xx_HAL_Driver/Src/stm32h7xx_hal_dma_ex.c ****       /* Return error status */
 201:../../Drivers/STM32H7xx_HAL_Driver/Src/stm32h7xx_hal_dma_ex.c ****       status = HAL_ERROR;
ARM GAS  C:\Users\28576\AppData\Local\Temp\cc51Faqy.s 			page 5


 202:../../Drivers/STM32H7xx_HAL_Driver/Src/stm32h7xx_hal_dma_ex.c ****     }
 203:../../Drivers/STM32H7xx_HAL_Driver/Src/stm32h7xx_hal_dma_ex.c ****   }
 204:../../Drivers/STM32H7xx_HAL_Driver/Src/stm32h7xx_hal_dma_ex.c ****   return status;
 205:../../Drivers/STM32H7xx_HAL_Driver/Src/stm32h7xx_hal_dma_ex.c **** }
 206:../../Drivers/STM32H7xx_HAL_Driver/Src/stm32h7xx_hal_dma_ex.c **** 
 207:../../Drivers/STM32H7xx_HAL_Driver/Src/stm32h7xx_hal_dma_ex.c **** /**
 208:../../Drivers/STM32H7xx_HAL_Driver/Src/stm32h7xx_hal_dma_ex.c ****   * @brief  Starts the multi_buffer DMA Transfer with interrupt enabled.
 209:../../Drivers/STM32H7xx_HAL_Driver/Src/stm32h7xx_hal_dma_ex.c ****   * @param  hdma:       pointer to a DMA_HandleTypeDef structure that contains
 210:../../Drivers/STM32H7xx_HAL_Driver/Src/stm32h7xx_hal_dma_ex.c ****   *                     the configuration information for the specified DMA Stream.
 211:../../Drivers/STM32H7xx_HAL_Driver/Src/stm32h7xx_hal_dma_ex.c ****   * @param  SrcAddress: The source memory Buffer address
 212:../../Drivers/STM32H7xx_HAL_Driver/Src/stm32h7xx_hal_dma_ex.c ****   * @param  DstAddress: The destination memory Buffer address
 213:../../Drivers/STM32H7xx_HAL_Driver/Src/stm32h7xx_hal_dma_ex.c ****   * @param  SecondMemAddress: The second memory Buffer address in case of multi buffer Transfer
 214:../../Drivers/STM32H7xx_HAL_Driver/Src/stm32h7xx_hal_dma_ex.c ****   * @param  DataLength: The length of data to be transferred from source to destination
 215:../../Drivers/STM32H7xx_HAL_Driver/Src/stm32h7xx_hal_dma_ex.c ****   * @retval HAL status
 216:../../Drivers/STM32H7xx_HAL_Driver/Src/stm32h7xx_hal_dma_ex.c ****   */
 217:../../Drivers/STM32H7xx_HAL_Driver/Src/stm32h7xx_hal_dma_ex.c **** HAL_StatusTypeDef HAL_DMAEx_MultiBufferStart_IT(DMA_HandleTypeDef *hdma, uint32_t SrcAddress, uint3
 218:../../Drivers/STM32H7xx_HAL_Driver/Src/stm32h7xx_hal_dma_ex.c **** {
 219:../../Drivers/STM32H7xx_HAL_Driver/Src/stm32h7xx_hal_dma_ex.c ****   HAL_StatusTypeDef status = HAL_OK;
 220:../../Drivers/STM32H7xx_HAL_Driver/Src/stm32h7xx_hal_dma_ex.c ****   __IO uint32_t *ifcRegister_Base; /* DMA Stream Interrupt Clear register */
 221:../../Drivers/STM32H7xx_HAL_Driver/Src/stm32h7xx_hal_dma_ex.c **** 
 222:../../Drivers/STM32H7xx_HAL_Driver/Src/stm32h7xx_hal_dma_ex.c ****   /* Check the parameters */
 223:../../Drivers/STM32H7xx_HAL_Driver/Src/stm32h7xx_hal_dma_ex.c ****   assert_param(IS_DMA_BUFFER_SIZE(DataLength));
 224:../../Drivers/STM32H7xx_HAL_Driver/Src/stm32h7xx_hal_dma_ex.c ****   assert_param(IS_DMA_ALL_INSTANCE(hdma->Instance));
 225:../../Drivers/STM32H7xx_HAL_Driver/Src/stm32h7xx_hal_dma_ex.c **** 
 226:../../Drivers/STM32H7xx_HAL_Driver/Src/stm32h7xx_hal_dma_ex.c ****   /* Memory-to-memory transfer not supported in double buffering mode */
 227:../../Drivers/STM32H7xx_HAL_Driver/Src/stm32h7xx_hal_dma_ex.c ****   if(hdma->Init.Direction == DMA_MEMORY_TO_MEMORY)
 228:../../Drivers/STM32H7xx_HAL_Driver/Src/stm32h7xx_hal_dma_ex.c ****   {
 229:../../Drivers/STM32H7xx_HAL_Driver/Src/stm32h7xx_hal_dma_ex.c ****     hdma->ErrorCode = HAL_DMA_ERROR_NOT_SUPPORTED;
 230:../../Drivers/STM32H7xx_HAL_Driver/Src/stm32h7xx_hal_dma_ex.c ****     return HAL_ERROR;
 231:../../Drivers/STM32H7xx_HAL_Driver/Src/stm32h7xx_hal_dma_ex.c ****   }
 232:../../Drivers/STM32H7xx_HAL_Driver/Src/stm32h7xx_hal_dma_ex.c **** 
 233:../../Drivers/STM32H7xx_HAL_Driver/Src/stm32h7xx_hal_dma_ex.c ****   /* Process locked */
 234:../../Drivers/STM32H7xx_HAL_Driver/Src/stm32h7xx_hal_dma_ex.c ****   __HAL_LOCK(hdma);
 235:../../Drivers/STM32H7xx_HAL_Driver/Src/stm32h7xx_hal_dma_ex.c **** 
 236:../../Drivers/STM32H7xx_HAL_Driver/Src/stm32h7xx_hal_dma_ex.c ****   if(HAL_DMA_STATE_READY == hdma->State)
 237:../../Drivers/STM32H7xx_HAL_Driver/Src/stm32h7xx_hal_dma_ex.c ****   {
 238:../../Drivers/STM32H7xx_HAL_Driver/Src/stm32h7xx_hal_dma_ex.c ****     /* Change DMA peripheral state */
 239:../../Drivers/STM32H7xx_HAL_Driver/Src/stm32h7xx_hal_dma_ex.c ****     hdma->State = HAL_DMA_STATE_BUSY;
 240:../../Drivers/STM32H7xx_HAL_Driver/Src/stm32h7xx_hal_dma_ex.c **** 
 241:../../Drivers/STM32H7xx_HAL_Driver/Src/stm32h7xx_hal_dma_ex.c ****     /* Initialize the error code */
 242:../../Drivers/STM32H7xx_HAL_Driver/Src/stm32h7xx_hal_dma_ex.c ****     hdma->ErrorCode = HAL_DMA_ERROR_NONE;
 243:../../Drivers/STM32H7xx_HAL_Driver/Src/stm32h7xx_hal_dma_ex.c **** 
 244:../../Drivers/STM32H7xx_HAL_Driver/Src/stm32h7xx_hal_dma_ex.c ****     if(IS_DMA_STREAM_INSTANCE(hdma->Instance) != 0U) /* DMA1 or DMA2 instance */
 245:../../Drivers/STM32H7xx_HAL_Driver/Src/stm32h7xx_hal_dma_ex.c ****     {
 246:../../Drivers/STM32H7xx_HAL_Driver/Src/stm32h7xx_hal_dma_ex.c ****       /* Enable the Double buffer mode */
 247:../../Drivers/STM32H7xx_HAL_Driver/Src/stm32h7xx_hal_dma_ex.c ****       ((DMA_Stream_TypeDef   *)hdma->Instance)->CR |= DMA_SxCR_DBM;
 248:../../Drivers/STM32H7xx_HAL_Driver/Src/stm32h7xx_hal_dma_ex.c **** 
 249:../../Drivers/STM32H7xx_HAL_Driver/Src/stm32h7xx_hal_dma_ex.c ****       /* Configure DMA Stream destination address */
 250:../../Drivers/STM32H7xx_HAL_Driver/Src/stm32h7xx_hal_dma_ex.c ****       ((DMA_Stream_TypeDef   *)hdma->Instance)->M1AR = SecondMemAddress;
 251:../../Drivers/STM32H7xx_HAL_Driver/Src/stm32h7xx_hal_dma_ex.c **** 
 252:../../Drivers/STM32H7xx_HAL_Driver/Src/stm32h7xx_hal_dma_ex.c ****       /* Calculate the interrupt clear flag register (IFCR) base address  */
 253:../../Drivers/STM32H7xx_HAL_Driver/Src/stm32h7xx_hal_dma_ex.c ****       ifcRegister_Base = (uint32_t *)((uint32_t)(hdma->StreamBaseAddress + 8U));
 254:../../Drivers/STM32H7xx_HAL_Driver/Src/stm32h7xx_hal_dma_ex.c **** 
 255:../../Drivers/STM32H7xx_HAL_Driver/Src/stm32h7xx_hal_dma_ex.c ****       /* Clear all flags */
 256:../../Drivers/STM32H7xx_HAL_Driver/Src/stm32h7xx_hal_dma_ex.c ****       *ifcRegister_Base = 0x3FUL << (hdma->StreamIndex & 0x1FU);
 257:../../Drivers/STM32H7xx_HAL_Driver/Src/stm32h7xx_hal_dma_ex.c ****     }
 258:../../Drivers/STM32H7xx_HAL_Driver/Src/stm32h7xx_hal_dma_ex.c ****     else /* BDMA instance(s) */
ARM GAS  C:\Users\28576\AppData\Local\Temp\cc51Faqy.s 			page 6


 259:../../Drivers/STM32H7xx_HAL_Driver/Src/stm32h7xx_hal_dma_ex.c ****     {
 260:../../Drivers/STM32H7xx_HAL_Driver/Src/stm32h7xx_hal_dma_ex.c ****       /* Enable the Double buffer mode */
 261:../../Drivers/STM32H7xx_HAL_Driver/Src/stm32h7xx_hal_dma_ex.c ****       ((BDMA_Channel_TypeDef   *)hdma->Instance)->CCR |= (BDMA_CCR_DBM | BDMA_CCR_CIRC);
 262:../../Drivers/STM32H7xx_HAL_Driver/Src/stm32h7xx_hal_dma_ex.c **** 
 263:../../Drivers/STM32H7xx_HAL_Driver/Src/stm32h7xx_hal_dma_ex.c ****       /* Configure DMA Stream destination address */
 264:../../Drivers/STM32H7xx_HAL_Driver/Src/stm32h7xx_hal_dma_ex.c ****       ((BDMA_Channel_TypeDef   *)hdma->Instance)->CM1AR = SecondMemAddress;
 265:../../Drivers/STM32H7xx_HAL_Driver/Src/stm32h7xx_hal_dma_ex.c **** 
 266:../../Drivers/STM32H7xx_HAL_Driver/Src/stm32h7xx_hal_dma_ex.c ****       /* Calculate the interrupt clear flag register (IFCR) base address  */
 267:../../Drivers/STM32H7xx_HAL_Driver/Src/stm32h7xx_hal_dma_ex.c ****       ifcRegister_Base = (uint32_t *)((uint32_t)(hdma->StreamBaseAddress + 4U));
 268:../../Drivers/STM32H7xx_HAL_Driver/Src/stm32h7xx_hal_dma_ex.c **** 
 269:../../Drivers/STM32H7xx_HAL_Driver/Src/stm32h7xx_hal_dma_ex.c ****       /* Clear all flags */
 270:../../Drivers/STM32H7xx_HAL_Driver/Src/stm32h7xx_hal_dma_ex.c ****       *ifcRegister_Base = (BDMA_ISR_GIF0) << (hdma->StreamIndex & 0x1FU);
 271:../../Drivers/STM32H7xx_HAL_Driver/Src/stm32h7xx_hal_dma_ex.c ****     }
 272:../../Drivers/STM32H7xx_HAL_Driver/Src/stm32h7xx_hal_dma_ex.c **** 
 273:../../Drivers/STM32H7xx_HAL_Driver/Src/stm32h7xx_hal_dma_ex.c ****     /* Configure the source, destination address and the data length */
 274:../../Drivers/STM32H7xx_HAL_Driver/Src/stm32h7xx_hal_dma_ex.c ****     DMA_MultiBufferSetConfig(hdma, SrcAddress, DstAddress, DataLength);
 275:../../Drivers/STM32H7xx_HAL_Driver/Src/stm32h7xx_hal_dma_ex.c **** 
 276:../../Drivers/STM32H7xx_HAL_Driver/Src/stm32h7xx_hal_dma_ex.c ****     if(IS_DMA_DMAMUX_ALL_INSTANCE(hdma->Instance) != 0U) /* No DMAMUX available for BDMA1 */
 277:../../Drivers/STM32H7xx_HAL_Driver/Src/stm32h7xx_hal_dma_ex.c ****     {
 278:../../Drivers/STM32H7xx_HAL_Driver/Src/stm32h7xx_hal_dma_ex.c ****       /* Clear the DMAMUX synchro overrun flag */
 279:../../Drivers/STM32H7xx_HAL_Driver/Src/stm32h7xx_hal_dma_ex.c ****       hdma->DMAmuxChannelStatus->CFR = hdma->DMAmuxChannelStatusMask;
 280:../../Drivers/STM32H7xx_HAL_Driver/Src/stm32h7xx_hal_dma_ex.c **** 
 281:../../Drivers/STM32H7xx_HAL_Driver/Src/stm32h7xx_hal_dma_ex.c ****       if(hdma->DMAmuxRequestGen != 0U)
 282:../../Drivers/STM32H7xx_HAL_Driver/Src/stm32h7xx_hal_dma_ex.c ****       {
 283:../../Drivers/STM32H7xx_HAL_Driver/Src/stm32h7xx_hal_dma_ex.c ****         /* Clear the DMAMUX request generator overrun flag */
 284:../../Drivers/STM32H7xx_HAL_Driver/Src/stm32h7xx_hal_dma_ex.c ****         hdma->DMAmuxRequestGenStatus->RGCFR = hdma->DMAmuxRequestGenStatusMask;
 285:../../Drivers/STM32H7xx_HAL_Driver/Src/stm32h7xx_hal_dma_ex.c ****       }
 286:../../Drivers/STM32H7xx_HAL_Driver/Src/stm32h7xx_hal_dma_ex.c ****     }
 287:../../Drivers/STM32H7xx_HAL_Driver/Src/stm32h7xx_hal_dma_ex.c **** 
 288:../../Drivers/STM32H7xx_HAL_Driver/Src/stm32h7xx_hal_dma_ex.c ****     if(IS_DMA_STREAM_INSTANCE(hdma->Instance) != 0U) /* DMA1 or DMA2 instance */
 289:../../Drivers/STM32H7xx_HAL_Driver/Src/stm32h7xx_hal_dma_ex.c ****     {
 290:../../Drivers/STM32H7xx_HAL_Driver/Src/stm32h7xx_hal_dma_ex.c ****       /* Enable Common interrupts*/
 291:../../Drivers/STM32H7xx_HAL_Driver/Src/stm32h7xx_hal_dma_ex.c ****       MODIFY_REG(((DMA_Stream_TypeDef   *)hdma->Instance)->CR, (DMA_IT_TC | DMA_IT_TE | DMA_IT_DME 
 292:../../Drivers/STM32H7xx_HAL_Driver/Src/stm32h7xx_hal_dma_ex.c ****       ((DMA_Stream_TypeDef   *)hdma->Instance)->FCR |= DMA_IT_FE;
 293:../../Drivers/STM32H7xx_HAL_Driver/Src/stm32h7xx_hal_dma_ex.c **** 
 294:../../Drivers/STM32H7xx_HAL_Driver/Src/stm32h7xx_hal_dma_ex.c ****       if((hdma->XferHalfCpltCallback != NULL) || (hdma->XferM1HalfCpltCallback != NULL))
 295:../../Drivers/STM32H7xx_HAL_Driver/Src/stm32h7xx_hal_dma_ex.c ****       {
 296:../../Drivers/STM32H7xx_HAL_Driver/Src/stm32h7xx_hal_dma_ex.c ****         /*Enable Half Transfer IT if corresponding Callback is set*/
 297:../../Drivers/STM32H7xx_HAL_Driver/Src/stm32h7xx_hal_dma_ex.c ****         ((DMA_Stream_TypeDef   *)hdma->Instance)->CR  |= DMA_IT_HT;
 298:../../Drivers/STM32H7xx_HAL_Driver/Src/stm32h7xx_hal_dma_ex.c ****       }
 299:../../Drivers/STM32H7xx_HAL_Driver/Src/stm32h7xx_hal_dma_ex.c ****     }
 300:../../Drivers/STM32H7xx_HAL_Driver/Src/stm32h7xx_hal_dma_ex.c ****     else /* BDMA instance(s) */
 301:../../Drivers/STM32H7xx_HAL_Driver/Src/stm32h7xx_hal_dma_ex.c ****     {
 302:../../Drivers/STM32H7xx_HAL_Driver/Src/stm32h7xx_hal_dma_ex.c ****       /* Enable Common interrupts*/
 303:../../Drivers/STM32H7xx_HAL_Driver/Src/stm32h7xx_hal_dma_ex.c ****       MODIFY_REG(((BDMA_Channel_TypeDef   *)hdma->Instance)->CCR, (BDMA_CCR_TCIE | BDMA_CCR_HTIE | 
 304:../../Drivers/STM32H7xx_HAL_Driver/Src/stm32h7xx_hal_dma_ex.c **** 
 305:../../Drivers/STM32H7xx_HAL_Driver/Src/stm32h7xx_hal_dma_ex.c ****       if((hdma->XferHalfCpltCallback != NULL) || (hdma->XferM1HalfCpltCallback != NULL))
 306:../../Drivers/STM32H7xx_HAL_Driver/Src/stm32h7xx_hal_dma_ex.c ****       {
 307:../../Drivers/STM32H7xx_HAL_Driver/Src/stm32h7xx_hal_dma_ex.c ****         /*Enable Half Transfer IT if corresponding Callback is set*/
 308:../../Drivers/STM32H7xx_HAL_Driver/Src/stm32h7xx_hal_dma_ex.c ****         ((BDMA_Channel_TypeDef   *)hdma->Instance)->CCR  |= BDMA_CCR_HTIE;
 309:../../Drivers/STM32H7xx_HAL_Driver/Src/stm32h7xx_hal_dma_ex.c ****       }
 310:../../Drivers/STM32H7xx_HAL_Driver/Src/stm32h7xx_hal_dma_ex.c ****     }
 311:../../Drivers/STM32H7xx_HAL_Driver/Src/stm32h7xx_hal_dma_ex.c **** 
 312:../../Drivers/STM32H7xx_HAL_Driver/Src/stm32h7xx_hal_dma_ex.c ****     if(IS_DMA_DMAMUX_ALL_INSTANCE(hdma->Instance) != 0U) /* No DMAMUX available for BDMA1 */
 313:../../Drivers/STM32H7xx_HAL_Driver/Src/stm32h7xx_hal_dma_ex.c ****     {
 314:../../Drivers/STM32H7xx_HAL_Driver/Src/stm32h7xx_hal_dma_ex.c ****       /* Check if DMAMUX Synchronization is enabled*/
 315:../../Drivers/STM32H7xx_HAL_Driver/Src/stm32h7xx_hal_dma_ex.c ****       if((hdma->DMAmuxChannel->CCR & DMAMUX_CxCR_SE) != 0U)
ARM GAS  C:\Users\28576\AppData\Local\Temp\cc51Faqy.s 			page 7


 316:../../Drivers/STM32H7xx_HAL_Driver/Src/stm32h7xx_hal_dma_ex.c ****       {
 317:../../Drivers/STM32H7xx_HAL_Driver/Src/stm32h7xx_hal_dma_ex.c ****         /* Enable DMAMUX sync overrun IT*/
 318:../../Drivers/STM32H7xx_HAL_Driver/Src/stm32h7xx_hal_dma_ex.c ****         hdma->DMAmuxChannel->CCR |= DMAMUX_CxCR_SOIE;
 319:../../Drivers/STM32H7xx_HAL_Driver/Src/stm32h7xx_hal_dma_ex.c ****       }
 320:../../Drivers/STM32H7xx_HAL_Driver/Src/stm32h7xx_hal_dma_ex.c **** 
 321:../../Drivers/STM32H7xx_HAL_Driver/Src/stm32h7xx_hal_dma_ex.c ****       if(hdma->DMAmuxRequestGen != 0U)
 322:../../Drivers/STM32H7xx_HAL_Driver/Src/stm32h7xx_hal_dma_ex.c ****       {
 323:../../Drivers/STM32H7xx_HAL_Driver/Src/stm32h7xx_hal_dma_ex.c ****         /* if using DMAMUX request generator, enable the DMAMUX request generator overrun IT*/
 324:../../Drivers/STM32H7xx_HAL_Driver/Src/stm32h7xx_hal_dma_ex.c ****         /* enable the request gen overrun IT*/
 325:../../Drivers/STM32H7xx_HAL_Driver/Src/stm32h7xx_hal_dma_ex.c ****         hdma->DMAmuxRequestGen->RGCR |= DMAMUX_RGxCR_OIE;
 326:../../Drivers/STM32H7xx_HAL_Driver/Src/stm32h7xx_hal_dma_ex.c ****       }
 327:../../Drivers/STM32H7xx_HAL_Driver/Src/stm32h7xx_hal_dma_ex.c ****     }
 328:../../Drivers/STM32H7xx_HAL_Driver/Src/stm32h7xx_hal_dma_ex.c **** 
 329:../../Drivers/STM32H7xx_HAL_Driver/Src/stm32h7xx_hal_dma_ex.c ****     /* Enable the peripheral */
 330:../../Drivers/STM32H7xx_HAL_Driver/Src/stm32h7xx_hal_dma_ex.c ****     __HAL_DMA_ENABLE(hdma);
 331:../../Drivers/STM32H7xx_HAL_Driver/Src/stm32h7xx_hal_dma_ex.c ****   }
 332:../../Drivers/STM32H7xx_HAL_Driver/Src/stm32h7xx_hal_dma_ex.c ****   else
 333:../../Drivers/STM32H7xx_HAL_Driver/Src/stm32h7xx_hal_dma_ex.c ****   {
 334:../../Drivers/STM32H7xx_HAL_Driver/Src/stm32h7xx_hal_dma_ex.c ****     /* Set the error code to busy */
 335:../../Drivers/STM32H7xx_HAL_Driver/Src/stm32h7xx_hal_dma_ex.c ****     hdma->ErrorCode = HAL_DMA_ERROR_BUSY;
 336:../../Drivers/STM32H7xx_HAL_Driver/Src/stm32h7xx_hal_dma_ex.c **** 
 337:../../Drivers/STM32H7xx_HAL_Driver/Src/stm32h7xx_hal_dma_ex.c ****     /* Return error status */
 338:../../Drivers/STM32H7xx_HAL_Driver/Src/stm32h7xx_hal_dma_ex.c ****     status = HAL_ERROR;
 339:../../Drivers/STM32H7xx_HAL_Driver/Src/stm32h7xx_hal_dma_ex.c ****   }
 340:../../Drivers/STM32H7xx_HAL_Driver/Src/stm32h7xx_hal_dma_ex.c ****   return status;
 341:../../Drivers/STM32H7xx_HAL_Driver/Src/stm32h7xx_hal_dma_ex.c **** }
 342:../../Drivers/STM32H7xx_HAL_Driver/Src/stm32h7xx_hal_dma_ex.c **** 
 343:../../Drivers/STM32H7xx_HAL_Driver/Src/stm32h7xx_hal_dma_ex.c **** /**
 344:../../Drivers/STM32H7xx_HAL_Driver/Src/stm32h7xx_hal_dma_ex.c ****   * @brief  Change the memory0 or memory1 address on the fly.
 345:../../Drivers/STM32H7xx_HAL_Driver/Src/stm32h7xx_hal_dma_ex.c ****   * @param  hdma:       pointer to a DMA_HandleTypeDef structure that contains
 346:../../Drivers/STM32H7xx_HAL_Driver/Src/stm32h7xx_hal_dma_ex.c ****   *                     the configuration information for the specified DMA Stream.
 347:../../Drivers/STM32H7xx_HAL_Driver/Src/stm32h7xx_hal_dma_ex.c ****   * @param  Address:    The new address
 348:../../Drivers/STM32H7xx_HAL_Driver/Src/stm32h7xx_hal_dma_ex.c ****   * @param  memory:     the memory to be changed, This parameter can be one of
 349:../../Drivers/STM32H7xx_HAL_Driver/Src/stm32h7xx_hal_dma_ex.c ****   *                     the following values:
 350:../../Drivers/STM32H7xx_HAL_Driver/Src/stm32h7xx_hal_dma_ex.c ****   *                      MEMORY0 /
 351:../../Drivers/STM32H7xx_HAL_Driver/Src/stm32h7xx_hal_dma_ex.c ****   *                      MEMORY1
 352:../../Drivers/STM32H7xx_HAL_Driver/Src/stm32h7xx_hal_dma_ex.c ****   * @note   The MEMORY0 address can be changed only when the current transfer use
 353:../../Drivers/STM32H7xx_HAL_Driver/Src/stm32h7xx_hal_dma_ex.c ****   *         MEMORY1 and the MEMORY1 address can be changed only when the current
 354:../../Drivers/STM32H7xx_HAL_Driver/Src/stm32h7xx_hal_dma_ex.c ****   *         transfer use MEMORY0.
 355:../../Drivers/STM32H7xx_HAL_Driver/Src/stm32h7xx_hal_dma_ex.c ****   * @retval HAL status
 356:../../Drivers/STM32H7xx_HAL_Driver/Src/stm32h7xx_hal_dma_ex.c ****   */
 357:../../Drivers/STM32H7xx_HAL_Driver/Src/stm32h7xx_hal_dma_ex.c **** HAL_StatusTypeDef HAL_DMAEx_ChangeMemory(DMA_HandleTypeDef *hdma, uint32_t Address, HAL_DMA_MemoryT
 358:../../Drivers/STM32H7xx_HAL_Driver/Src/stm32h7xx_hal_dma_ex.c **** {
 359:../../Drivers/STM32H7xx_HAL_Driver/Src/stm32h7xx_hal_dma_ex.c ****   if(IS_DMA_STREAM_INSTANCE(hdma->Instance) != 0U) /* DMA1 or DMA2 instance */
 360:../../Drivers/STM32H7xx_HAL_Driver/Src/stm32h7xx_hal_dma_ex.c ****   {
 361:../../Drivers/STM32H7xx_HAL_Driver/Src/stm32h7xx_hal_dma_ex.c ****     if(memory == MEMORY0)
 362:../../Drivers/STM32H7xx_HAL_Driver/Src/stm32h7xx_hal_dma_ex.c ****     {
 363:../../Drivers/STM32H7xx_HAL_Driver/Src/stm32h7xx_hal_dma_ex.c ****       /* change the memory0 address */
 364:../../Drivers/STM32H7xx_HAL_Driver/Src/stm32h7xx_hal_dma_ex.c ****       ((DMA_Stream_TypeDef   *)hdma->Instance)->M0AR = Address;
 365:../../Drivers/STM32H7xx_HAL_Driver/Src/stm32h7xx_hal_dma_ex.c ****     }
 366:../../Drivers/STM32H7xx_HAL_Driver/Src/stm32h7xx_hal_dma_ex.c ****     else
 367:../../Drivers/STM32H7xx_HAL_Driver/Src/stm32h7xx_hal_dma_ex.c ****     {
 368:../../Drivers/STM32H7xx_HAL_Driver/Src/stm32h7xx_hal_dma_ex.c ****       /* change the memory1 address */
 369:../../Drivers/STM32H7xx_HAL_Driver/Src/stm32h7xx_hal_dma_ex.c ****       ((DMA_Stream_TypeDef   *)hdma->Instance)->M1AR = Address;
 370:../../Drivers/STM32H7xx_HAL_Driver/Src/stm32h7xx_hal_dma_ex.c ****     }
 371:../../Drivers/STM32H7xx_HAL_Driver/Src/stm32h7xx_hal_dma_ex.c ****   }
 372:../../Drivers/STM32H7xx_HAL_Driver/Src/stm32h7xx_hal_dma_ex.c ****   else /* BDMA instance(s) */
ARM GAS  C:\Users\28576\AppData\Local\Temp\cc51Faqy.s 			page 8


 373:../../Drivers/STM32H7xx_HAL_Driver/Src/stm32h7xx_hal_dma_ex.c ****   {
 374:../../Drivers/STM32H7xx_HAL_Driver/Src/stm32h7xx_hal_dma_ex.c ****     if(memory == MEMORY0)
 375:../../Drivers/STM32H7xx_HAL_Driver/Src/stm32h7xx_hal_dma_ex.c ****     {
 376:../../Drivers/STM32H7xx_HAL_Driver/Src/stm32h7xx_hal_dma_ex.c ****       /* change the memory0 address */
 377:../../Drivers/STM32H7xx_HAL_Driver/Src/stm32h7xx_hal_dma_ex.c ****       ((BDMA_Channel_TypeDef   *)hdma->Instance)->CM0AR = Address;
 378:../../Drivers/STM32H7xx_HAL_Driver/Src/stm32h7xx_hal_dma_ex.c ****     }
 379:../../Drivers/STM32H7xx_HAL_Driver/Src/stm32h7xx_hal_dma_ex.c ****     else
 380:../../Drivers/STM32H7xx_HAL_Driver/Src/stm32h7xx_hal_dma_ex.c ****     {
 381:../../Drivers/STM32H7xx_HAL_Driver/Src/stm32h7xx_hal_dma_ex.c ****       /* change the memory1 address */
 382:../../Drivers/STM32H7xx_HAL_Driver/Src/stm32h7xx_hal_dma_ex.c ****       ((BDMA_Channel_TypeDef   *)hdma->Instance)->CM1AR = Address;
 383:../../Drivers/STM32H7xx_HAL_Driver/Src/stm32h7xx_hal_dma_ex.c ****     }
 384:../../Drivers/STM32H7xx_HAL_Driver/Src/stm32h7xx_hal_dma_ex.c ****   }
 385:../../Drivers/STM32H7xx_HAL_Driver/Src/stm32h7xx_hal_dma_ex.c **** 
 386:../../Drivers/STM32H7xx_HAL_Driver/Src/stm32h7xx_hal_dma_ex.c ****   return HAL_OK;
 387:../../Drivers/STM32H7xx_HAL_Driver/Src/stm32h7xx_hal_dma_ex.c **** }
 388:../../Drivers/STM32H7xx_HAL_Driver/Src/stm32h7xx_hal_dma_ex.c **** 
 389:../../Drivers/STM32H7xx_HAL_Driver/Src/stm32h7xx_hal_dma_ex.c **** /**
 390:../../Drivers/STM32H7xx_HAL_Driver/Src/stm32h7xx_hal_dma_ex.c ****   * @brief  Configure the DMAMUX synchronization parameters for a given DMA stream (instance).
 391:../../Drivers/STM32H7xx_HAL_Driver/Src/stm32h7xx_hal_dma_ex.c ****   * @param  hdma:       pointer to a DMA_HandleTypeDef structure that contains
 392:../../Drivers/STM32H7xx_HAL_Driver/Src/stm32h7xx_hal_dma_ex.c ****   *                     the configuration information for the specified DMA Stream.
 393:../../Drivers/STM32H7xx_HAL_Driver/Src/stm32h7xx_hal_dma_ex.c ****   * @param  pSyncConfig : pointer to HAL_DMA_MuxSyncConfigTypeDef : contains the DMAMUX synchroniza
 394:../../Drivers/STM32H7xx_HAL_Driver/Src/stm32h7xx_hal_dma_ex.c ****   * @retval HAL status
 395:../../Drivers/STM32H7xx_HAL_Driver/Src/stm32h7xx_hal_dma_ex.c ****   */
 396:../../Drivers/STM32H7xx_HAL_Driver/Src/stm32h7xx_hal_dma_ex.c **** HAL_StatusTypeDef HAL_DMAEx_ConfigMuxSync(DMA_HandleTypeDef *hdma, HAL_DMA_MuxSyncConfigTypeDef *pS
 397:../../Drivers/STM32H7xx_HAL_Driver/Src/stm32h7xx_hal_dma_ex.c **** {
 398:../../Drivers/STM32H7xx_HAL_Driver/Src/stm32h7xx_hal_dma_ex.c ****   uint32_t syncSignalID = 0;
 399:../../Drivers/STM32H7xx_HAL_Driver/Src/stm32h7xx_hal_dma_ex.c ****   uint32_t syncPolarity = 0;
 400:../../Drivers/STM32H7xx_HAL_Driver/Src/stm32h7xx_hal_dma_ex.c **** 
 401:../../Drivers/STM32H7xx_HAL_Driver/Src/stm32h7xx_hal_dma_ex.c ****   /* Check the parameters */
 402:../../Drivers/STM32H7xx_HAL_Driver/Src/stm32h7xx_hal_dma_ex.c ****   assert_param(IS_DMA_DMAMUX_ALL_INSTANCE(hdma->Instance));
 403:../../Drivers/STM32H7xx_HAL_Driver/Src/stm32h7xx_hal_dma_ex.c ****   assert_param(IS_DMAMUX_SYNC_STATE(pSyncConfig->SyncEnable));
 404:../../Drivers/STM32H7xx_HAL_Driver/Src/stm32h7xx_hal_dma_ex.c ****   assert_param(IS_DMAMUX_SYNC_EVENT(pSyncConfig->EventEnable));
 405:../../Drivers/STM32H7xx_HAL_Driver/Src/stm32h7xx_hal_dma_ex.c ****   assert_param(IS_DMAMUX_SYNC_REQUEST_NUMBER(pSyncConfig->RequestNumber));
 406:../../Drivers/STM32H7xx_HAL_Driver/Src/stm32h7xx_hal_dma_ex.c **** 
 407:../../Drivers/STM32H7xx_HAL_Driver/Src/stm32h7xx_hal_dma_ex.c ****   if(pSyncConfig->SyncEnable == ENABLE)
 408:../../Drivers/STM32H7xx_HAL_Driver/Src/stm32h7xx_hal_dma_ex.c ****   {
 409:../../Drivers/STM32H7xx_HAL_Driver/Src/stm32h7xx_hal_dma_ex.c ****     assert_param(IS_DMAMUX_SYNC_POLARITY(pSyncConfig->SyncPolarity));
 410:../../Drivers/STM32H7xx_HAL_Driver/Src/stm32h7xx_hal_dma_ex.c **** 
 411:../../Drivers/STM32H7xx_HAL_Driver/Src/stm32h7xx_hal_dma_ex.c ****     if(IS_DMA_STREAM_INSTANCE(hdma->Instance) != 0U) /* DMA1 or DMA2 instance */
 412:../../Drivers/STM32H7xx_HAL_Driver/Src/stm32h7xx_hal_dma_ex.c ****     {
 413:../../Drivers/STM32H7xx_HAL_Driver/Src/stm32h7xx_hal_dma_ex.c ****       assert_param(IS_DMA_DMAMUX_SYNC_SIGNAL_ID(pSyncConfig->SyncSignalID));
 414:../../Drivers/STM32H7xx_HAL_Driver/Src/stm32h7xx_hal_dma_ex.c ****     }
 415:../../Drivers/STM32H7xx_HAL_Driver/Src/stm32h7xx_hal_dma_ex.c ****     else
 416:../../Drivers/STM32H7xx_HAL_Driver/Src/stm32h7xx_hal_dma_ex.c ****     {
 417:../../Drivers/STM32H7xx_HAL_Driver/Src/stm32h7xx_hal_dma_ex.c ****       assert_param(IS_BDMA_DMAMUX_SYNC_SIGNAL_ID(pSyncConfig->SyncSignalID));
 418:../../Drivers/STM32H7xx_HAL_Driver/Src/stm32h7xx_hal_dma_ex.c ****     }
 419:../../Drivers/STM32H7xx_HAL_Driver/Src/stm32h7xx_hal_dma_ex.c ****     syncSignalID = pSyncConfig->SyncSignalID;
 420:../../Drivers/STM32H7xx_HAL_Driver/Src/stm32h7xx_hal_dma_ex.c ****     syncPolarity = pSyncConfig->SyncPolarity;
 421:../../Drivers/STM32H7xx_HAL_Driver/Src/stm32h7xx_hal_dma_ex.c ****   }
 422:../../Drivers/STM32H7xx_HAL_Driver/Src/stm32h7xx_hal_dma_ex.c **** 
 423:../../Drivers/STM32H7xx_HAL_Driver/Src/stm32h7xx_hal_dma_ex.c ****   /*Check if the DMA state is ready */
 424:../../Drivers/STM32H7xx_HAL_Driver/Src/stm32h7xx_hal_dma_ex.c ****   if(hdma->State == HAL_DMA_STATE_READY)
 425:../../Drivers/STM32H7xx_HAL_Driver/Src/stm32h7xx_hal_dma_ex.c ****   {
 426:../../Drivers/STM32H7xx_HAL_Driver/Src/stm32h7xx_hal_dma_ex.c ****     /* Process Locked */
 427:../../Drivers/STM32H7xx_HAL_Driver/Src/stm32h7xx_hal_dma_ex.c ****     __HAL_LOCK(hdma);
 428:../../Drivers/STM32H7xx_HAL_Driver/Src/stm32h7xx_hal_dma_ex.c **** 
 429:../../Drivers/STM32H7xx_HAL_Driver/Src/stm32h7xx_hal_dma_ex.c ****     /* Disable the synchronization and event generation before applying a new config */
ARM GAS  C:\Users\28576\AppData\Local\Temp\cc51Faqy.s 			page 9


 430:../../Drivers/STM32H7xx_HAL_Driver/Src/stm32h7xx_hal_dma_ex.c ****     CLEAR_BIT(hdma->DMAmuxChannel->CCR,(DMAMUX_CxCR_SE | DMAMUX_CxCR_EGE));
 431:../../Drivers/STM32H7xx_HAL_Driver/Src/stm32h7xx_hal_dma_ex.c **** 
 432:../../Drivers/STM32H7xx_HAL_Driver/Src/stm32h7xx_hal_dma_ex.c ****     /* Set the new synchronization parameters (and keep the request ID filled during the Init)*/
 433:../../Drivers/STM32H7xx_HAL_Driver/Src/stm32h7xx_hal_dma_ex.c ****     MODIFY_REG( hdma->DMAmuxChannel->CCR, \
 434:../../Drivers/STM32H7xx_HAL_Driver/Src/stm32h7xx_hal_dma_ex.c ****                (~DMAMUX_CxCR_DMAREQ_ID) , \
 435:../../Drivers/STM32H7xx_HAL_Driver/Src/stm32h7xx_hal_dma_ex.c ****                (syncSignalID << DMAMUX_CxCR_SYNC_ID_Pos)       | \
 436:../../Drivers/STM32H7xx_HAL_Driver/Src/stm32h7xx_hal_dma_ex.c ****                ((pSyncConfig->RequestNumber - 1U) << DMAMUX_CxCR_NBREQ_Pos) | \
 437:../../Drivers/STM32H7xx_HAL_Driver/Src/stm32h7xx_hal_dma_ex.c ****                syncPolarity | ((uint32_t)pSyncConfig->SyncEnable << DMAMUX_CxCR_SE_Pos)    | \
 438:../../Drivers/STM32H7xx_HAL_Driver/Src/stm32h7xx_hal_dma_ex.c ****                ((uint32_t)pSyncConfig->EventEnable << DMAMUX_CxCR_EGE_Pos));
 439:../../Drivers/STM32H7xx_HAL_Driver/Src/stm32h7xx_hal_dma_ex.c **** 
 440:../../Drivers/STM32H7xx_HAL_Driver/Src/stm32h7xx_hal_dma_ex.c ****       /* Process Locked */
 441:../../Drivers/STM32H7xx_HAL_Driver/Src/stm32h7xx_hal_dma_ex.c ****     __HAL_UNLOCK(hdma);
 442:../../Drivers/STM32H7xx_HAL_Driver/Src/stm32h7xx_hal_dma_ex.c **** 
 443:../../Drivers/STM32H7xx_HAL_Driver/Src/stm32h7xx_hal_dma_ex.c ****     return HAL_OK;
 444:../../Drivers/STM32H7xx_HAL_Driver/Src/stm32h7xx_hal_dma_ex.c ****   }
 445:../../Drivers/STM32H7xx_HAL_Driver/Src/stm32h7xx_hal_dma_ex.c ****   else
 446:../../Drivers/STM32H7xx_HAL_Driver/Src/stm32h7xx_hal_dma_ex.c ****   {
 447:../../Drivers/STM32H7xx_HAL_Driver/Src/stm32h7xx_hal_dma_ex.c ****     /* Set the error code to busy */
 448:../../Drivers/STM32H7xx_HAL_Driver/Src/stm32h7xx_hal_dma_ex.c ****     hdma->ErrorCode = HAL_DMA_ERROR_BUSY;
 449:../../Drivers/STM32H7xx_HAL_Driver/Src/stm32h7xx_hal_dma_ex.c **** 
 450:../../Drivers/STM32H7xx_HAL_Driver/Src/stm32h7xx_hal_dma_ex.c ****     /* Return error status */
 451:../../Drivers/STM32H7xx_HAL_Driver/Src/stm32h7xx_hal_dma_ex.c ****     return HAL_ERROR;
 452:../../Drivers/STM32H7xx_HAL_Driver/Src/stm32h7xx_hal_dma_ex.c ****   }
 453:../../Drivers/STM32H7xx_HAL_Driver/Src/stm32h7xx_hal_dma_ex.c **** }
 454:../../Drivers/STM32H7xx_HAL_Driver/Src/stm32h7xx_hal_dma_ex.c **** 
 455:../../Drivers/STM32H7xx_HAL_Driver/Src/stm32h7xx_hal_dma_ex.c **** /**
 456:../../Drivers/STM32H7xx_HAL_Driver/Src/stm32h7xx_hal_dma_ex.c ****   * @brief  Configure the DMAMUX request generator block used by the given DMA stream (instance).
 457:../../Drivers/STM32H7xx_HAL_Driver/Src/stm32h7xx_hal_dma_ex.c ****   * @param  hdma:       pointer to a DMA_HandleTypeDef structure that contains
 458:../../Drivers/STM32H7xx_HAL_Driver/Src/stm32h7xx_hal_dma_ex.c ****   *                     the configuration information for the specified DMA Stream.
 459:../../Drivers/STM32H7xx_HAL_Driver/Src/stm32h7xx_hal_dma_ex.c ****   * @param  pRequestGeneratorConfig : pointer to HAL_DMA_MuxRequestGeneratorConfigTypeDef :
 460:../../Drivers/STM32H7xx_HAL_Driver/Src/stm32h7xx_hal_dma_ex.c ****   *         contains the request generator parameters.
 461:../../Drivers/STM32H7xx_HAL_Driver/Src/stm32h7xx_hal_dma_ex.c ****   *
 462:../../Drivers/STM32H7xx_HAL_Driver/Src/stm32h7xx_hal_dma_ex.c ****   * @retval HAL status
 463:../../Drivers/STM32H7xx_HAL_Driver/Src/stm32h7xx_hal_dma_ex.c ****   */
 464:../../Drivers/STM32H7xx_HAL_Driver/Src/stm32h7xx_hal_dma_ex.c **** HAL_StatusTypeDef HAL_DMAEx_ConfigMuxRequestGenerator (DMA_HandleTypeDef *hdma, HAL_DMA_MuxRequestG
 465:../../Drivers/STM32H7xx_HAL_Driver/Src/stm32h7xx_hal_dma_ex.c **** {
 466:../../Drivers/STM32H7xx_HAL_Driver/Src/stm32h7xx_hal_dma_ex.c ****   HAL_StatusTypeDef status;
 467:../../Drivers/STM32H7xx_HAL_Driver/Src/stm32h7xx_hal_dma_ex.c ****   HAL_DMA_StateTypeDef temp_state = hdma->State;
 468:../../Drivers/STM32H7xx_HAL_Driver/Src/stm32h7xx_hal_dma_ex.c **** 
 469:../../Drivers/STM32H7xx_HAL_Driver/Src/stm32h7xx_hal_dma_ex.c ****   /* Check the parameters */
 470:../../Drivers/STM32H7xx_HAL_Driver/Src/stm32h7xx_hal_dma_ex.c ****   assert_param(IS_DMA_DMAMUX_ALL_INSTANCE(hdma->Instance));
 471:../../Drivers/STM32H7xx_HAL_Driver/Src/stm32h7xx_hal_dma_ex.c **** 
 472:../../Drivers/STM32H7xx_HAL_Driver/Src/stm32h7xx_hal_dma_ex.c ****   if(IS_DMA_STREAM_INSTANCE(hdma->Instance) != 0U) /* DMA1 or DMA2 instance */
 473:../../Drivers/STM32H7xx_HAL_Driver/Src/stm32h7xx_hal_dma_ex.c ****   {
 474:../../Drivers/STM32H7xx_HAL_Driver/Src/stm32h7xx_hal_dma_ex.c ****     assert_param(IS_DMA_DMAMUX_REQUEST_GEN_SIGNAL_ID(pRequestGeneratorConfig->SignalID));
 475:../../Drivers/STM32H7xx_HAL_Driver/Src/stm32h7xx_hal_dma_ex.c ****   }
 476:../../Drivers/STM32H7xx_HAL_Driver/Src/stm32h7xx_hal_dma_ex.c ****   else
 477:../../Drivers/STM32H7xx_HAL_Driver/Src/stm32h7xx_hal_dma_ex.c ****   {
 478:../../Drivers/STM32H7xx_HAL_Driver/Src/stm32h7xx_hal_dma_ex.c ****     assert_param(IS_BDMA_DMAMUX_REQUEST_GEN_SIGNAL_ID(pRequestGeneratorConfig->SignalID));
 479:../../Drivers/STM32H7xx_HAL_Driver/Src/stm32h7xx_hal_dma_ex.c ****   }
 480:../../Drivers/STM32H7xx_HAL_Driver/Src/stm32h7xx_hal_dma_ex.c **** 
 481:../../Drivers/STM32H7xx_HAL_Driver/Src/stm32h7xx_hal_dma_ex.c **** 
 482:../../Drivers/STM32H7xx_HAL_Driver/Src/stm32h7xx_hal_dma_ex.c ****   assert_param(IS_DMAMUX_REQUEST_GEN_POLARITY(pRequestGeneratorConfig->Polarity));
 483:../../Drivers/STM32H7xx_HAL_Driver/Src/stm32h7xx_hal_dma_ex.c ****   assert_param(IS_DMAMUX_REQUEST_GEN_REQUEST_NUMBER(pRequestGeneratorConfig->RequestNumber));
 484:../../Drivers/STM32H7xx_HAL_Driver/Src/stm32h7xx_hal_dma_ex.c **** 
 485:../../Drivers/STM32H7xx_HAL_Driver/Src/stm32h7xx_hal_dma_ex.c ****   /* check if the DMA state is ready
 486:../../Drivers/STM32H7xx_HAL_Driver/Src/stm32h7xx_hal_dma_ex.c ****      and DMA is using a DMAMUX request generator block
ARM GAS  C:\Users\28576\AppData\Local\Temp\cc51Faqy.s 			page 10


 487:../../Drivers/STM32H7xx_HAL_Driver/Src/stm32h7xx_hal_dma_ex.c ****   */
 488:../../Drivers/STM32H7xx_HAL_Driver/Src/stm32h7xx_hal_dma_ex.c ****   if(hdma->DMAmuxRequestGen == 0U)
 489:../../Drivers/STM32H7xx_HAL_Driver/Src/stm32h7xx_hal_dma_ex.c ****   {
 490:../../Drivers/STM32H7xx_HAL_Driver/Src/stm32h7xx_hal_dma_ex.c ****     /* Set the error code to busy */
 491:../../Drivers/STM32H7xx_HAL_Driver/Src/stm32h7xx_hal_dma_ex.c ****     hdma->ErrorCode = HAL_DMA_ERROR_PARAM;
 492:../../Drivers/STM32H7xx_HAL_Driver/Src/stm32h7xx_hal_dma_ex.c **** 
 493:../../Drivers/STM32H7xx_HAL_Driver/Src/stm32h7xx_hal_dma_ex.c ****     /* error status */
 494:../../Drivers/STM32H7xx_HAL_Driver/Src/stm32h7xx_hal_dma_ex.c ****     status = HAL_ERROR;
 495:../../Drivers/STM32H7xx_HAL_Driver/Src/stm32h7xx_hal_dma_ex.c ****   }
 496:../../Drivers/STM32H7xx_HAL_Driver/Src/stm32h7xx_hal_dma_ex.c ****   else if(((hdma->DMAmuxRequestGen->RGCR & DMAMUX_RGxCR_GE) == 0U) && (temp_state == HAL_DMA_STATE_
 497:../../Drivers/STM32H7xx_HAL_Driver/Src/stm32h7xx_hal_dma_ex.c ****   {
 498:../../Drivers/STM32H7xx_HAL_Driver/Src/stm32h7xx_hal_dma_ex.c ****     /* RequestGenerator must be disable prior to the configuration i.e GE bit is 0 */
 499:../../Drivers/STM32H7xx_HAL_Driver/Src/stm32h7xx_hal_dma_ex.c **** 
 500:../../Drivers/STM32H7xx_HAL_Driver/Src/stm32h7xx_hal_dma_ex.c ****     /* Process Locked */
 501:../../Drivers/STM32H7xx_HAL_Driver/Src/stm32h7xx_hal_dma_ex.c ****     __HAL_LOCK(hdma);
 502:../../Drivers/STM32H7xx_HAL_Driver/Src/stm32h7xx_hal_dma_ex.c **** 
 503:../../Drivers/STM32H7xx_HAL_Driver/Src/stm32h7xx_hal_dma_ex.c ****     /* Set the request generator new parameters */
 504:../../Drivers/STM32H7xx_HAL_Driver/Src/stm32h7xx_hal_dma_ex.c ****     hdma->DMAmuxRequestGen->RGCR = pRequestGeneratorConfig->SignalID | \
 505:../../Drivers/STM32H7xx_HAL_Driver/Src/stm32h7xx_hal_dma_ex.c ****                                   ((pRequestGeneratorConfig->RequestNumber - 1U) << DMAMUX_RGxCR_GN
 506:../../Drivers/STM32H7xx_HAL_Driver/Src/stm32h7xx_hal_dma_ex.c ****                                   pRequestGeneratorConfig->Polarity;
 507:../../Drivers/STM32H7xx_HAL_Driver/Src/stm32h7xx_hal_dma_ex.c ****     /* Process Locked */
 508:../../Drivers/STM32H7xx_HAL_Driver/Src/stm32h7xx_hal_dma_ex.c ****     __HAL_UNLOCK(hdma);
 509:../../Drivers/STM32H7xx_HAL_Driver/Src/stm32h7xx_hal_dma_ex.c **** 
 510:../../Drivers/STM32H7xx_HAL_Driver/Src/stm32h7xx_hal_dma_ex.c ****     return HAL_OK;
 511:../../Drivers/STM32H7xx_HAL_Driver/Src/stm32h7xx_hal_dma_ex.c ****   }
 512:../../Drivers/STM32H7xx_HAL_Driver/Src/stm32h7xx_hal_dma_ex.c ****   else
 513:../../Drivers/STM32H7xx_HAL_Driver/Src/stm32h7xx_hal_dma_ex.c ****   {
 514:../../Drivers/STM32H7xx_HAL_Driver/Src/stm32h7xx_hal_dma_ex.c ****     /* Set the error code to busy */
 515:../../Drivers/STM32H7xx_HAL_Driver/Src/stm32h7xx_hal_dma_ex.c ****     hdma->ErrorCode = HAL_DMA_ERROR_BUSY;
 516:../../Drivers/STM32H7xx_HAL_Driver/Src/stm32h7xx_hal_dma_ex.c **** 
 517:../../Drivers/STM32H7xx_HAL_Driver/Src/stm32h7xx_hal_dma_ex.c ****     /* error status */
 518:../../Drivers/STM32H7xx_HAL_Driver/Src/stm32h7xx_hal_dma_ex.c ****     status = HAL_ERROR;
 519:../../Drivers/STM32H7xx_HAL_Driver/Src/stm32h7xx_hal_dma_ex.c ****   }
 520:../../Drivers/STM32H7xx_HAL_Driver/Src/stm32h7xx_hal_dma_ex.c **** 
 521:../../Drivers/STM32H7xx_HAL_Driver/Src/stm32h7xx_hal_dma_ex.c ****   return status;
 522:../../Drivers/STM32H7xx_HAL_Driver/Src/stm32h7xx_hal_dma_ex.c **** }
 523:../../Drivers/STM32H7xx_HAL_Driver/Src/stm32h7xx_hal_dma_ex.c **** 
 524:../../Drivers/STM32H7xx_HAL_Driver/Src/stm32h7xx_hal_dma_ex.c **** /**
 525:../../Drivers/STM32H7xx_HAL_Driver/Src/stm32h7xx_hal_dma_ex.c ****   * @brief  Enable the DMAMUX request generator block used by the given DMA stream (instance).
 526:../../Drivers/STM32H7xx_HAL_Driver/Src/stm32h7xx_hal_dma_ex.c ****   * @param  hdma:       pointer to a DMA_HandleTypeDef structure that contains
 527:../../Drivers/STM32H7xx_HAL_Driver/Src/stm32h7xx_hal_dma_ex.c ****   *                     the configuration information for the specified DMA Stream.
 528:../../Drivers/STM32H7xx_HAL_Driver/Src/stm32h7xx_hal_dma_ex.c ****   * @retval HAL status
 529:../../Drivers/STM32H7xx_HAL_Driver/Src/stm32h7xx_hal_dma_ex.c ****   */
 530:../../Drivers/STM32H7xx_HAL_Driver/Src/stm32h7xx_hal_dma_ex.c **** HAL_StatusTypeDef HAL_DMAEx_EnableMuxRequestGenerator (DMA_HandleTypeDef *hdma)
 531:../../Drivers/STM32H7xx_HAL_Driver/Src/stm32h7xx_hal_dma_ex.c **** {
 532:../../Drivers/STM32H7xx_HAL_Driver/Src/stm32h7xx_hal_dma_ex.c ****   /* Check the parameters */
 533:../../Drivers/STM32H7xx_HAL_Driver/Src/stm32h7xx_hal_dma_ex.c ****   assert_param(IS_DMA_DMAMUX_ALL_INSTANCE(hdma->Instance));
 534:../../Drivers/STM32H7xx_HAL_Driver/Src/stm32h7xx_hal_dma_ex.c **** 
 535:../../Drivers/STM32H7xx_HAL_Driver/Src/stm32h7xx_hal_dma_ex.c ****   /* check if the DMA state is ready
 536:../../Drivers/STM32H7xx_HAL_Driver/Src/stm32h7xx_hal_dma_ex.c ****      and DMA is using a DMAMUX request generator block */
 537:../../Drivers/STM32H7xx_HAL_Driver/Src/stm32h7xx_hal_dma_ex.c ****   if((hdma->State != HAL_DMA_STATE_RESET) && (hdma->DMAmuxRequestGen != 0U))
 538:../../Drivers/STM32H7xx_HAL_Driver/Src/stm32h7xx_hal_dma_ex.c ****   {
 539:../../Drivers/STM32H7xx_HAL_Driver/Src/stm32h7xx_hal_dma_ex.c ****     /* Enable the request generator*/
 540:../../Drivers/STM32H7xx_HAL_Driver/Src/stm32h7xx_hal_dma_ex.c ****     hdma->DMAmuxRequestGen->RGCR |= DMAMUX_RGxCR_GE;
 541:../../Drivers/STM32H7xx_HAL_Driver/Src/stm32h7xx_hal_dma_ex.c **** 
 542:../../Drivers/STM32H7xx_HAL_Driver/Src/stm32h7xx_hal_dma_ex.c ****    return HAL_OK;
 543:../../Drivers/STM32H7xx_HAL_Driver/Src/stm32h7xx_hal_dma_ex.c ****  }
ARM GAS  C:\Users\28576\AppData\Local\Temp\cc51Faqy.s 			page 11


 544:../../Drivers/STM32H7xx_HAL_Driver/Src/stm32h7xx_hal_dma_ex.c ****  else
 545:../../Drivers/STM32H7xx_HAL_Driver/Src/stm32h7xx_hal_dma_ex.c ****  {
 546:../../Drivers/STM32H7xx_HAL_Driver/Src/stm32h7xx_hal_dma_ex.c ****    return HAL_ERROR;
 547:../../Drivers/STM32H7xx_HAL_Driver/Src/stm32h7xx_hal_dma_ex.c ****  }
 548:../../Drivers/STM32H7xx_HAL_Driver/Src/stm32h7xx_hal_dma_ex.c **** }
 549:../../Drivers/STM32H7xx_HAL_Driver/Src/stm32h7xx_hal_dma_ex.c **** 
 550:../../Drivers/STM32H7xx_HAL_Driver/Src/stm32h7xx_hal_dma_ex.c **** /**
 551:../../Drivers/STM32H7xx_HAL_Driver/Src/stm32h7xx_hal_dma_ex.c ****   * @brief  Disable the DMAMUX request generator block used by the given DMA stream (instance).
 552:../../Drivers/STM32H7xx_HAL_Driver/Src/stm32h7xx_hal_dma_ex.c ****   * @param  hdma:       pointer to a DMA_HandleTypeDef structure that contains
 553:../../Drivers/STM32H7xx_HAL_Driver/Src/stm32h7xx_hal_dma_ex.c ****   *                     the configuration information for the specified DMA Stream.
 554:../../Drivers/STM32H7xx_HAL_Driver/Src/stm32h7xx_hal_dma_ex.c ****   * @retval HAL status
 555:../../Drivers/STM32H7xx_HAL_Driver/Src/stm32h7xx_hal_dma_ex.c ****   */
 556:../../Drivers/STM32H7xx_HAL_Driver/Src/stm32h7xx_hal_dma_ex.c **** HAL_StatusTypeDef HAL_DMAEx_DisableMuxRequestGenerator (DMA_HandleTypeDef *hdma)
 557:../../Drivers/STM32H7xx_HAL_Driver/Src/stm32h7xx_hal_dma_ex.c **** {
 558:../../Drivers/STM32H7xx_HAL_Driver/Src/stm32h7xx_hal_dma_ex.c ****   /* Check the parameters */
 559:../../Drivers/STM32H7xx_HAL_Driver/Src/stm32h7xx_hal_dma_ex.c ****   assert_param(IS_DMA_DMAMUX_ALL_INSTANCE(hdma->Instance));
 560:../../Drivers/STM32H7xx_HAL_Driver/Src/stm32h7xx_hal_dma_ex.c **** 
 561:../../Drivers/STM32H7xx_HAL_Driver/Src/stm32h7xx_hal_dma_ex.c ****   /* check if the DMA state is ready
 562:../../Drivers/STM32H7xx_HAL_Driver/Src/stm32h7xx_hal_dma_ex.c ****      and DMA is using a DMAMUX request generator block */
 563:../../Drivers/STM32H7xx_HAL_Driver/Src/stm32h7xx_hal_dma_ex.c ****   if((hdma->State != HAL_DMA_STATE_RESET) && (hdma->DMAmuxRequestGen != 0U))
 564:../../Drivers/STM32H7xx_HAL_Driver/Src/stm32h7xx_hal_dma_ex.c ****   {
 565:../../Drivers/STM32H7xx_HAL_Driver/Src/stm32h7xx_hal_dma_ex.c ****     /* Disable the request generator*/
 566:../../Drivers/STM32H7xx_HAL_Driver/Src/stm32h7xx_hal_dma_ex.c ****     hdma->DMAmuxRequestGen->RGCR &= ~DMAMUX_RGxCR_GE;
 567:../../Drivers/STM32H7xx_HAL_Driver/Src/stm32h7xx_hal_dma_ex.c **** 
 568:../../Drivers/STM32H7xx_HAL_Driver/Src/stm32h7xx_hal_dma_ex.c ****    return HAL_OK;
 569:../../Drivers/STM32H7xx_HAL_Driver/Src/stm32h7xx_hal_dma_ex.c ****  }
 570:../../Drivers/STM32H7xx_HAL_Driver/Src/stm32h7xx_hal_dma_ex.c ****  else
 571:../../Drivers/STM32H7xx_HAL_Driver/Src/stm32h7xx_hal_dma_ex.c ****  {
 572:../../Drivers/STM32H7xx_HAL_Driver/Src/stm32h7xx_hal_dma_ex.c ****    return HAL_ERROR;
 573:../../Drivers/STM32H7xx_HAL_Driver/Src/stm32h7xx_hal_dma_ex.c ****  }
 574:../../Drivers/STM32H7xx_HAL_Driver/Src/stm32h7xx_hal_dma_ex.c **** }
 575:../../Drivers/STM32H7xx_HAL_Driver/Src/stm32h7xx_hal_dma_ex.c **** 
 576:../../Drivers/STM32H7xx_HAL_Driver/Src/stm32h7xx_hal_dma_ex.c **** /**
 577:../../Drivers/STM32H7xx_HAL_Driver/Src/stm32h7xx_hal_dma_ex.c ****   * @brief  Handles DMAMUX interrupt request.
 578:../../Drivers/STM32H7xx_HAL_Driver/Src/stm32h7xx_hal_dma_ex.c ****   * @param  hdma: pointer to a DMA_HandleTypeDef structure that contains
 579:../../Drivers/STM32H7xx_HAL_Driver/Src/stm32h7xx_hal_dma_ex.c ****   *               the configuration information for the specified DMA Stream.
 580:../../Drivers/STM32H7xx_HAL_Driver/Src/stm32h7xx_hal_dma_ex.c ****   * @retval None
 581:../../Drivers/STM32H7xx_HAL_Driver/Src/stm32h7xx_hal_dma_ex.c ****   */
 582:../../Drivers/STM32H7xx_HAL_Driver/Src/stm32h7xx_hal_dma_ex.c **** void HAL_DMAEx_MUX_IRQHandler(DMA_HandleTypeDef *hdma)
 583:../../Drivers/STM32H7xx_HAL_Driver/Src/stm32h7xx_hal_dma_ex.c **** {
 584:../../Drivers/STM32H7xx_HAL_Driver/Src/stm32h7xx_hal_dma_ex.c ****   /* Check for DMAMUX Synchronization overrun */
 585:../../Drivers/STM32H7xx_HAL_Driver/Src/stm32h7xx_hal_dma_ex.c ****   if((hdma->DMAmuxChannelStatus->CSR & hdma->DMAmuxChannelStatusMask) != 0U)
 586:../../Drivers/STM32H7xx_HAL_Driver/Src/stm32h7xx_hal_dma_ex.c ****   {
 587:../../Drivers/STM32H7xx_HAL_Driver/Src/stm32h7xx_hal_dma_ex.c ****     /* Disable the synchro overrun interrupt */
 588:../../Drivers/STM32H7xx_HAL_Driver/Src/stm32h7xx_hal_dma_ex.c ****     hdma->DMAmuxChannel->CCR &= ~DMAMUX_CxCR_SOIE;
 589:../../Drivers/STM32H7xx_HAL_Driver/Src/stm32h7xx_hal_dma_ex.c **** 
 590:../../Drivers/STM32H7xx_HAL_Driver/Src/stm32h7xx_hal_dma_ex.c ****     /* Clear the DMAMUX synchro overrun flag */
 591:../../Drivers/STM32H7xx_HAL_Driver/Src/stm32h7xx_hal_dma_ex.c ****     hdma->DMAmuxChannelStatus->CFR = hdma->DMAmuxChannelStatusMask;
 592:../../Drivers/STM32H7xx_HAL_Driver/Src/stm32h7xx_hal_dma_ex.c **** 
 593:../../Drivers/STM32H7xx_HAL_Driver/Src/stm32h7xx_hal_dma_ex.c ****     /* Update error code */
 594:../../Drivers/STM32H7xx_HAL_Driver/Src/stm32h7xx_hal_dma_ex.c ****     hdma->ErrorCode |= HAL_DMA_ERROR_SYNC;
 595:../../Drivers/STM32H7xx_HAL_Driver/Src/stm32h7xx_hal_dma_ex.c **** 
 596:../../Drivers/STM32H7xx_HAL_Driver/Src/stm32h7xx_hal_dma_ex.c ****     if(hdma->XferErrorCallback != NULL)
 597:../../Drivers/STM32H7xx_HAL_Driver/Src/stm32h7xx_hal_dma_ex.c ****     {
 598:../../Drivers/STM32H7xx_HAL_Driver/Src/stm32h7xx_hal_dma_ex.c ****       /* Transfer error callback */
 599:../../Drivers/STM32H7xx_HAL_Driver/Src/stm32h7xx_hal_dma_ex.c ****       hdma->XferErrorCallback(hdma);
 600:../../Drivers/STM32H7xx_HAL_Driver/Src/stm32h7xx_hal_dma_ex.c ****     }
ARM GAS  C:\Users\28576\AppData\Local\Temp\cc51Faqy.s 			page 12


 601:../../Drivers/STM32H7xx_HAL_Driver/Src/stm32h7xx_hal_dma_ex.c ****   }
 602:../../Drivers/STM32H7xx_HAL_Driver/Src/stm32h7xx_hal_dma_ex.c **** 
 603:../../Drivers/STM32H7xx_HAL_Driver/Src/stm32h7xx_hal_dma_ex.c ****   if(hdma->DMAmuxRequestGen != 0)
 604:../../Drivers/STM32H7xx_HAL_Driver/Src/stm32h7xx_hal_dma_ex.c ****   {
 605:../../Drivers/STM32H7xx_HAL_Driver/Src/stm32h7xx_hal_dma_ex.c ****    /* if using a DMAMUX request generator block Check for DMAMUX request generator overrun */
 606:../../Drivers/STM32H7xx_HAL_Driver/Src/stm32h7xx_hal_dma_ex.c ****     if((hdma->DMAmuxRequestGenStatus->RGSR & hdma->DMAmuxRequestGenStatusMask) != 0U)
 607:../../Drivers/STM32H7xx_HAL_Driver/Src/stm32h7xx_hal_dma_ex.c ****     {
 608:../../Drivers/STM32H7xx_HAL_Driver/Src/stm32h7xx_hal_dma_ex.c ****       /* Disable the request gen overrun interrupt */
 609:../../Drivers/STM32H7xx_HAL_Driver/Src/stm32h7xx_hal_dma_ex.c ****       hdma->DMAmuxRequestGen->RGCR &= ~DMAMUX_RGxCR_OIE;
 610:../../Drivers/STM32H7xx_HAL_Driver/Src/stm32h7xx_hal_dma_ex.c **** 
 611:../../Drivers/STM32H7xx_HAL_Driver/Src/stm32h7xx_hal_dma_ex.c ****       /* Clear the DMAMUX request generator overrun flag */
 612:../../Drivers/STM32H7xx_HAL_Driver/Src/stm32h7xx_hal_dma_ex.c ****       hdma->DMAmuxRequestGenStatus->RGCFR = hdma->DMAmuxRequestGenStatusMask;
 613:../../Drivers/STM32H7xx_HAL_Driver/Src/stm32h7xx_hal_dma_ex.c **** 
 614:../../Drivers/STM32H7xx_HAL_Driver/Src/stm32h7xx_hal_dma_ex.c ****       /* Update error code */
 615:../../Drivers/STM32H7xx_HAL_Driver/Src/stm32h7xx_hal_dma_ex.c ****       hdma->ErrorCode |= HAL_DMA_ERROR_REQGEN;
 616:../../Drivers/STM32H7xx_HAL_Driver/Src/stm32h7xx_hal_dma_ex.c **** 
 617:../../Drivers/STM32H7xx_HAL_Driver/Src/stm32h7xx_hal_dma_ex.c ****       if(hdma->XferErrorCallback != NULL)
 618:../../Drivers/STM32H7xx_HAL_Driver/Src/stm32h7xx_hal_dma_ex.c ****       {
 619:../../Drivers/STM32H7xx_HAL_Driver/Src/stm32h7xx_hal_dma_ex.c ****         /* Transfer error callback */
 620:../../Drivers/STM32H7xx_HAL_Driver/Src/stm32h7xx_hal_dma_ex.c ****         hdma->XferErrorCallback(hdma);
 621:../../Drivers/STM32H7xx_HAL_Driver/Src/stm32h7xx_hal_dma_ex.c ****       }
 622:../../Drivers/STM32H7xx_HAL_Driver/Src/stm32h7xx_hal_dma_ex.c ****     }
 623:../../Drivers/STM32H7xx_HAL_Driver/Src/stm32h7xx_hal_dma_ex.c ****   }
 624:../../Drivers/STM32H7xx_HAL_Driver/Src/stm32h7xx_hal_dma_ex.c **** }
 625:../../Drivers/STM32H7xx_HAL_Driver/Src/stm32h7xx_hal_dma_ex.c **** 
 626:../../Drivers/STM32H7xx_HAL_Driver/Src/stm32h7xx_hal_dma_ex.c **** 
 627:../../Drivers/STM32H7xx_HAL_Driver/Src/stm32h7xx_hal_dma_ex.c **** /**
 628:../../Drivers/STM32H7xx_HAL_Driver/Src/stm32h7xx_hal_dma_ex.c ****   * @}
 629:../../Drivers/STM32H7xx_HAL_Driver/Src/stm32h7xx_hal_dma_ex.c ****   */
 630:../../Drivers/STM32H7xx_HAL_Driver/Src/stm32h7xx_hal_dma_ex.c **** 
 631:../../Drivers/STM32H7xx_HAL_Driver/Src/stm32h7xx_hal_dma_ex.c **** /**
 632:../../Drivers/STM32H7xx_HAL_Driver/Src/stm32h7xx_hal_dma_ex.c ****   * @}
 633:../../Drivers/STM32H7xx_HAL_Driver/Src/stm32h7xx_hal_dma_ex.c ****   */
 634:../../Drivers/STM32H7xx_HAL_Driver/Src/stm32h7xx_hal_dma_ex.c **** 
 635:../../Drivers/STM32H7xx_HAL_Driver/Src/stm32h7xx_hal_dma_ex.c **** /** @addtogroup DMAEx_Private_Functions
 636:../../Drivers/STM32H7xx_HAL_Driver/Src/stm32h7xx_hal_dma_ex.c ****   * @{
 637:../../Drivers/STM32H7xx_HAL_Driver/Src/stm32h7xx_hal_dma_ex.c ****   */
 638:../../Drivers/STM32H7xx_HAL_Driver/Src/stm32h7xx_hal_dma_ex.c **** 
 639:../../Drivers/STM32H7xx_HAL_Driver/Src/stm32h7xx_hal_dma_ex.c **** /**
 640:../../Drivers/STM32H7xx_HAL_Driver/Src/stm32h7xx_hal_dma_ex.c ****   * @brief  Set the DMA Transfer parameter.
 641:../../Drivers/STM32H7xx_HAL_Driver/Src/stm32h7xx_hal_dma_ex.c ****   * @param  hdma:       pointer to a DMA_HandleTypeDef structure that contains
 642:../../Drivers/STM32H7xx_HAL_Driver/Src/stm32h7xx_hal_dma_ex.c ****   *                     the configuration information for the specified DMA Stream.
 643:../../Drivers/STM32H7xx_HAL_Driver/Src/stm32h7xx_hal_dma_ex.c ****   * @param  SrcAddress: The source memory Buffer address
 644:../../Drivers/STM32H7xx_HAL_Driver/Src/stm32h7xx_hal_dma_ex.c ****   * @param  DstAddress: The destination memory Buffer address
 645:../../Drivers/STM32H7xx_HAL_Driver/Src/stm32h7xx_hal_dma_ex.c ****   * @param  DataLength: The length of data to be transferred from source to destination
 646:../../Drivers/STM32H7xx_HAL_Driver/Src/stm32h7xx_hal_dma_ex.c ****   * @retval HAL status
 647:../../Drivers/STM32H7xx_HAL_Driver/Src/stm32h7xx_hal_dma_ex.c ****   */
 648:../../Drivers/STM32H7xx_HAL_Driver/Src/stm32h7xx_hal_dma_ex.c **** static void DMA_MultiBufferSetConfig(DMA_HandleTypeDef *hdma, uint32_t SrcAddress, uint32_t DstAddr
 649:../../Drivers/STM32H7xx_HAL_Driver/Src/stm32h7xx_hal_dma_ex.c **** {
  29              		.loc 1 649 1 view -0
  30              		.cfi_startproc
  31              		@ args = 0, pretend = 0, frame = 0
  32              		@ frame_needed = 0, uses_anonymous_args = 0
  33              		.loc 1 649 1 is_stmt 0 view .LVU1
  34 0000 10B5     		push	{r4, lr}
  35              	.LCFI0:
  36              		.cfi_def_cfa_offset 8
ARM GAS  C:\Users\28576\AppData\Local\Temp\cc51Faqy.s 			page 13


  37              		.cfi_offset 4, -8
  38              		.cfi_offset 14, -4
  39 0002 0C46     		mov	r4, r1
  40 0004 9646     		mov	lr, r2
  41 0006 9C46     		mov	ip, r3
 650:../../Drivers/STM32H7xx_HAL_Driver/Src/stm32h7xx_hal_dma_ex.c ****   if(IS_DMA_STREAM_INSTANCE(hdma->Instance) != 0U) /* DMA1 or DMA2 instance */
  42              		.loc 1 650 3 is_stmt 1 view .LVU2
  43              		.loc 1 650 6 is_stmt 0 view .LVU3
  44 0008 0368     		ldr	r3, [r0]
  45              	.LVL1:
  46              		.loc 1 650 6 view .LVU4
  47 000a 2949     		ldr	r1, .L11
  48              	.LVL2:
  49              		.loc 1 650 6 view .LVU5
  50 000c 294A     		ldr	r2, .L11+4
  51              	.LVL3:
  52              		.loc 1 650 6 view .LVU6
  53 000e 9342     		cmp	r3, r2
  54 0010 18BF     		it	ne
  55 0012 8B42     		cmpne	r3, r1
  56 0014 35D0     		beq	.L2
  57              		.loc 1 650 6 discriminator 2 view .LVU7
  58 0016 1832     		adds	r2, r2, #24
  59 0018 9342     		cmp	r3, r2
  60 001a 32D0     		beq	.L2
  61              		.loc 1 650 6 discriminator 4 view .LVU8
  62 001c 1832     		adds	r2, r2, #24
  63 001e 9342     		cmp	r3, r2
  64 0020 2FD0     		beq	.L2
  65              		.loc 1 650 6 discriminator 6 view .LVU9
  66 0022 1832     		adds	r2, r2, #24
  67 0024 9342     		cmp	r3, r2
  68 0026 2CD0     		beq	.L2
  69              		.loc 1 650 6 discriminator 8 view .LVU10
  70 0028 1832     		adds	r2, r2, #24
  71 002a 9342     		cmp	r3, r2
  72 002c 29D0     		beq	.L2
  73              		.loc 1 650 6 discriminator 10 view .LVU11
  74 002e 1832     		adds	r2, r2, #24
  75 0030 9342     		cmp	r3, r2
  76 0032 26D0     		beq	.L2
  77              		.loc 1 650 6 discriminator 12 view .LVU12
  78 0034 1832     		adds	r2, r2, #24
  79 0036 9342     		cmp	r3, r2
  80 0038 23D0     		beq	.L2
  81              		.loc 1 650 6 discriminator 14 view .LVU13
  82 003a 02F55672 		add	r2, r2, #856
  83 003e 9342     		cmp	r3, r2
  84 0040 1FD0     		beq	.L2
  85              		.loc 1 650 6 discriminator 16 view .LVU14
  86 0042 1832     		adds	r2, r2, #24
  87 0044 9342     		cmp	r3, r2
  88 0046 1CD0     		beq	.L2
  89              		.loc 1 650 6 discriminator 18 view .LVU15
  90 0048 1832     		adds	r2, r2, #24
  91 004a 9342     		cmp	r3, r2
  92 004c 19D0     		beq	.L2
ARM GAS  C:\Users\28576\AppData\Local\Temp\cc51Faqy.s 			page 14


  93              		.loc 1 650 6 discriminator 20 view .LVU16
  94 004e 1832     		adds	r2, r2, #24
  95 0050 9342     		cmp	r3, r2
  96 0052 16D0     		beq	.L2
  97              		.loc 1 650 6 discriminator 22 view .LVU17
  98 0054 1832     		adds	r2, r2, #24
  99 0056 9342     		cmp	r3, r2
 100 0058 13D0     		beq	.L2
 101              		.loc 1 650 6 discriminator 24 view .LVU18
 102 005a 1832     		adds	r2, r2, #24
 103 005c 9342     		cmp	r3, r2
 104 005e 10D0     		beq	.L2
 105              		.loc 1 650 6 discriminator 26 view .LVU19
 106 0060 1832     		adds	r2, r2, #24
 107 0062 9342     		cmp	r3, r2
 108 0064 0DD0     		beq	.L2
 109              		.loc 1 650 6 discriminator 28 view .LVU20
 110 0066 1832     		adds	r2, r2, #24
 111 0068 9342     		cmp	r3, r2
 112 006a 0AD0     		beq	.L2
 651:../../Drivers/STM32H7xx_HAL_Driver/Src/stm32h7xx_hal_dma_ex.c ****   {
 652:../../Drivers/STM32H7xx_HAL_Driver/Src/stm32h7xx_hal_dma_ex.c ****     /* Configure DMA Stream data length */
 653:../../Drivers/STM32H7xx_HAL_Driver/Src/stm32h7xx_hal_dma_ex.c ****     ((DMA_Stream_TypeDef   *)hdma->Instance)->NDTR = DataLength;
 654:../../Drivers/STM32H7xx_HAL_Driver/Src/stm32h7xx_hal_dma_ex.c **** 
 655:../../Drivers/STM32H7xx_HAL_Driver/Src/stm32h7xx_hal_dma_ex.c ****     /* Peripheral to Memory */
 656:../../Drivers/STM32H7xx_HAL_Driver/Src/stm32h7xx_hal_dma_ex.c ****     if((hdma->Init.Direction) == DMA_MEMORY_TO_PERIPH)
 657:../../Drivers/STM32H7xx_HAL_Driver/Src/stm32h7xx_hal_dma_ex.c ****     {
 658:../../Drivers/STM32H7xx_HAL_Driver/Src/stm32h7xx_hal_dma_ex.c ****       /* Configure DMA Stream destination address */
 659:../../Drivers/STM32H7xx_HAL_Driver/Src/stm32h7xx_hal_dma_ex.c ****       ((DMA_Stream_TypeDef   *)hdma->Instance)->PAR = DstAddress;
 660:../../Drivers/STM32H7xx_HAL_Driver/Src/stm32h7xx_hal_dma_ex.c **** 
 661:../../Drivers/STM32H7xx_HAL_Driver/Src/stm32h7xx_hal_dma_ex.c ****       /* Configure DMA Stream source address */
 662:../../Drivers/STM32H7xx_HAL_Driver/Src/stm32h7xx_hal_dma_ex.c ****       ((DMA_Stream_TypeDef   *)hdma->Instance)->M0AR = SrcAddress;
 663:../../Drivers/STM32H7xx_HAL_Driver/Src/stm32h7xx_hal_dma_ex.c ****     }
 664:../../Drivers/STM32H7xx_HAL_Driver/Src/stm32h7xx_hal_dma_ex.c ****     /* Memory to Peripheral */
 665:../../Drivers/STM32H7xx_HAL_Driver/Src/stm32h7xx_hal_dma_ex.c ****     else
 666:../../Drivers/STM32H7xx_HAL_Driver/Src/stm32h7xx_hal_dma_ex.c ****     {
 667:../../Drivers/STM32H7xx_HAL_Driver/Src/stm32h7xx_hal_dma_ex.c ****       /* Configure DMA Stream source address */
 668:../../Drivers/STM32H7xx_HAL_Driver/Src/stm32h7xx_hal_dma_ex.c ****       ((DMA_Stream_TypeDef   *)hdma->Instance)->PAR = SrcAddress;
 669:../../Drivers/STM32H7xx_HAL_Driver/Src/stm32h7xx_hal_dma_ex.c **** 
 670:../../Drivers/STM32H7xx_HAL_Driver/Src/stm32h7xx_hal_dma_ex.c ****       /* Configure DMA Stream destination address */
 671:../../Drivers/STM32H7xx_HAL_Driver/Src/stm32h7xx_hal_dma_ex.c ****       ((DMA_Stream_TypeDef   *)hdma->Instance)->M0AR = DstAddress;
 672:../../Drivers/STM32H7xx_HAL_Driver/Src/stm32h7xx_hal_dma_ex.c ****     }
 673:../../Drivers/STM32H7xx_HAL_Driver/Src/stm32h7xx_hal_dma_ex.c ****   }
 674:../../Drivers/STM32H7xx_HAL_Driver/Src/stm32h7xx_hal_dma_ex.c ****   else /* BDMA instance(s) */
 675:../../Drivers/STM32H7xx_HAL_Driver/Src/stm32h7xx_hal_dma_ex.c ****   {
 676:../../Drivers/STM32H7xx_HAL_Driver/Src/stm32h7xx_hal_dma_ex.c ****     /* Configure DMA Stream data length */
 677:../../Drivers/STM32H7xx_HAL_Driver/Src/stm32h7xx_hal_dma_ex.c ****     ((BDMA_Channel_TypeDef   *)hdma->Instance)->CNDTR = DataLength;
 113              		.loc 1 677 5 is_stmt 1 view .LVU21
 114              		.loc 1 677 55 is_stmt 0 view .LVU22
 115 006c C3F804C0 		str	ip, [r3, #4]
 678:../../Drivers/STM32H7xx_HAL_Driver/Src/stm32h7xx_hal_dma_ex.c **** 
 679:../../Drivers/STM32H7xx_HAL_Driver/Src/stm32h7xx_hal_dma_ex.c ****     /* Peripheral to Memory */
 680:../../Drivers/STM32H7xx_HAL_Driver/Src/stm32h7xx_hal_dma_ex.c ****     if((hdma->Init.Direction) == DMA_MEMORY_TO_PERIPH)
 116              		.loc 1 680 5 is_stmt 1 view .LVU23
 117              		.loc 1 680 19 is_stmt 0 view .LVU24
 118 0070 8368     		ldr	r3, [r0, #8]
 119              		.loc 1 680 7 view .LVU25
ARM GAS  C:\Users\28576\AppData\Local\Temp\cc51Faqy.s 			page 15


 120 0072 402B     		cmp	r3, #64
 121 0074 16D0     		beq	.L9
 681:../../Drivers/STM32H7xx_HAL_Driver/Src/stm32h7xx_hal_dma_ex.c ****     {
 682:../../Drivers/STM32H7xx_HAL_Driver/Src/stm32h7xx_hal_dma_ex.c ****       /* Configure DMA Stream destination address */
 683:../../Drivers/STM32H7xx_HAL_Driver/Src/stm32h7xx_hal_dma_ex.c ****       ((BDMA_Channel_TypeDef   *)hdma->Instance)->CPAR = DstAddress;
 684:../../Drivers/STM32H7xx_HAL_Driver/Src/stm32h7xx_hal_dma_ex.c **** 
 685:../../Drivers/STM32H7xx_HAL_Driver/Src/stm32h7xx_hal_dma_ex.c ****       /* Configure DMA Stream source address */
 686:../../Drivers/STM32H7xx_HAL_Driver/Src/stm32h7xx_hal_dma_ex.c ****       ((BDMA_Channel_TypeDef   *)hdma->Instance)->CM0AR = SrcAddress;
 687:../../Drivers/STM32H7xx_HAL_Driver/Src/stm32h7xx_hal_dma_ex.c ****     }
 688:../../Drivers/STM32H7xx_HAL_Driver/Src/stm32h7xx_hal_dma_ex.c ****     /* Memory to Peripheral */
 689:../../Drivers/STM32H7xx_HAL_Driver/Src/stm32h7xx_hal_dma_ex.c ****     else
 690:../../Drivers/STM32H7xx_HAL_Driver/Src/stm32h7xx_hal_dma_ex.c ****     {
 691:../../Drivers/STM32H7xx_HAL_Driver/Src/stm32h7xx_hal_dma_ex.c ****       /* Configure DMA Stream source address */
 692:../../Drivers/STM32H7xx_HAL_Driver/Src/stm32h7xx_hal_dma_ex.c ****       ((BDMA_Channel_TypeDef   *)hdma->Instance)->CPAR = SrcAddress;
 122              		.loc 1 692 7 is_stmt 1 view .LVU26
 123              		.loc 1 692 38 is_stmt 0 view .LVU27
 124 0076 0368     		ldr	r3, [r0]
 125              		.loc 1 692 56 view .LVU28
 126 0078 9C60     		str	r4, [r3, #8]
 693:../../Drivers/STM32H7xx_HAL_Driver/Src/stm32h7xx_hal_dma_ex.c **** 
 694:../../Drivers/STM32H7xx_HAL_Driver/Src/stm32h7xx_hal_dma_ex.c ****       /* Configure DMA Stream destination address */
 695:../../Drivers/STM32H7xx_HAL_Driver/Src/stm32h7xx_hal_dma_ex.c ****       ((BDMA_Channel_TypeDef   *)hdma->Instance)->CM0AR = DstAddress;
 127              		.loc 1 695 7 is_stmt 1 view .LVU29
 128              		.loc 1 695 38 is_stmt 0 view .LVU30
 129 007a 0368     		ldr	r3, [r0]
 130              		.loc 1 695 57 view .LVU31
 131 007c C3F80CE0 		str	lr, [r3, #12]
 696:../../Drivers/STM32H7xx_HAL_Driver/Src/stm32h7xx_hal_dma_ex.c ****     }
 697:../../Drivers/STM32H7xx_HAL_Driver/Src/stm32h7xx_hal_dma_ex.c ****   }
 698:../../Drivers/STM32H7xx_HAL_Driver/Src/stm32h7xx_hal_dma_ex.c **** }
 132              		.loc 1 698 1 view .LVU32
 133 0080 09E0     		b	.L1
 134              	.L2:
 653:../../Drivers/STM32H7xx_HAL_Driver/Src/stm32h7xx_hal_dma_ex.c **** 
 135              		.loc 1 653 5 is_stmt 1 view .LVU33
 653:../../Drivers/STM32H7xx_HAL_Driver/Src/stm32h7xx_hal_dma_ex.c **** 
 136              		.loc 1 653 52 is_stmt 0 view .LVU34
 137 0082 C3F804C0 		str	ip, [r3, #4]
 656:../../Drivers/STM32H7xx_HAL_Driver/Src/stm32h7xx_hal_dma_ex.c ****     {
 138              		.loc 1 656 5 is_stmt 1 view .LVU35
 656:../../Drivers/STM32H7xx_HAL_Driver/Src/stm32h7xx_hal_dma_ex.c ****     {
 139              		.loc 1 656 19 is_stmt 0 view .LVU36
 140 0086 8368     		ldr	r3, [r0, #8]
 656:../../Drivers/STM32H7xx_HAL_Driver/Src/stm32h7xx_hal_dma_ex.c ****     {
 141              		.loc 1 656 7 view .LVU37
 142 0088 402B     		cmp	r3, #64
 143 008a 05D0     		beq	.L10
 668:../../Drivers/STM32H7xx_HAL_Driver/Src/stm32h7xx_hal_dma_ex.c **** 
 144              		.loc 1 668 7 is_stmt 1 view .LVU38
 668:../../Drivers/STM32H7xx_HAL_Driver/Src/stm32h7xx_hal_dma_ex.c **** 
 145              		.loc 1 668 36 is_stmt 0 view .LVU39
 146 008c 0368     		ldr	r3, [r0]
 668:../../Drivers/STM32H7xx_HAL_Driver/Src/stm32h7xx_hal_dma_ex.c **** 
 147              		.loc 1 668 53 view .LVU40
 148 008e 9C60     		str	r4, [r3, #8]
 671:../../Drivers/STM32H7xx_HAL_Driver/Src/stm32h7xx_hal_dma_ex.c ****     }
 149              		.loc 1 671 7 is_stmt 1 view .LVU41
ARM GAS  C:\Users\28576\AppData\Local\Temp\cc51Faqy.s 			page 16


 671:../../Drivers/STM32H7xx_HAL_Driver/Src/stm32h7xx_hal_dma_ex.c ****     }
 150              		.loc 1 671 36 is_stmt 0 view .LVU42
 151 0090 0368     		ldr	r3, [r0]
 671:../../Drivers/STM32H7xx_HAL_Driver/Src/stm32h7xx_hal_dma_ex.c ****     }
 152              		.loc 1 671 54 view .LVU43
 153 0092 C3F80CE0 		str	lr, [r3, #12]
 154              	.L1:
 155              		.loc 1 698 1 view .LVU44
 156 0096 10BD     		pop	{r4, pc}
 157              	.LVL4:
 158              	.L10:
 659:../../Drivers/STM32H7xx_HAL_Driver/Src/stm32h7xx_hal_dma_ex.c **** 
 159              		.loc 1 659 7 is_stmt 1 view .LVU45
 659:../../Drivers/STM32H7xx_HAL_Driver/Src/stm32h7xx_hal_dma_ex.c **** 
 160              		.loc 1 659 36 is_stmt 0 view .LVU46
 161 0098 0368     		ldr	r3, [r0]
 659:../../Drivers/STM32H7xx_HAL_Driver/Src/stm32h7xx_hal_dma_ex.c **** 
 162              		.loc 1 659 53 view .LVU47
 163 009a C3F808E0 		str	lr, [r3, #8]
 662:../../Drivers/STM32H7xx_HAL_Driver/Src/stm32h7xx_hal_dma_ex.c ****     }
 164              		.loc 1 662 7 is_stmt 1 view .LVU48
 662:../../Drivers/STM32H7xx_HAL_Driver/Src/stm32h7xx_hal_dma_ex.c ****     }
 165              		.loc 1 662 36 is_stmt 0 view .LVU49
 166 009e 0368     		ldr	r3, [r0]
 662:../../Drivers/STM32H7xx_HAL_Driver/Src/stm32h7xx_hal_dma_ex.c ****     }
 167              		.loc 1 662 54 view .LVU50
 168 00a0 DC60     		str	r4, [r3, #12]
 169 00a2 F8E7     		b	.L1
 170              	.L9:
 683:../../Drivers/STM32H7xx_HAL_Driver/Src/stm32h7xx_hal_dma_ex.c **** 
 171              		.loc 1 683 7 is_stmt 1 view .LVU51
 683:../../Drivers/STM32H7xx_HAL_Driver/Src/stm32h7xx_hal_dma_ex.c **** 
 172              		.loc 1 683 38 is_stmt 0 view .LVU52
 173 00a4 0368     		ldr	r3, [r0]
 683:../../Drivers/STM32H7xx_HAL_Driver/Src/stm32h7xx_hal_dma_ex.c **** 
 174              		.loc 1 683 56 view .LVU53
 175 00a6 C3F808E0 		str	lr, [r3, #8]
 686:../../Drivers/STM32H7xx_HAL_Driver/Src/stm32h7xx_hal_dma_ex.c ****     }
 176              		.loc 1 686 7 is_stmt 1 view .LVU54
 686:../../Drivers/STM32H7xx_HAL_Driver/Src/stm32h7xx_hal_dma_ex.c ****     }
 177              		.loc 1 686 38 is_stmt 0 view .LVU55
 178 00aa 0368     		ldr	r3, [r0]
 686:../../Drivers/STM32H7xx_HAL_Driver/Src/stm32h7xx_hal_dma_ex.c ****     }
 179              		.loc 1 686 57 view .LVU56
 180 00ac DC60     		str	r4, [r3, #12]
 181 00ae F2E7     		b	.L1
 182              	.L12:
 183              		.align	2
 184              	.L11:
 185 00b0 10000240 		.word	1073872912
 186 00b4 28000240 		.word	1073872936
 187              		.cfi_endproc
 188              	.LFE140:
 190              		.section	.text.HAL_DMAEx_MultiBufferStart,"ax",%progbits
 191              		.align	1
 192              		.global	HAL_DMAEx_MultiBufferStart
 193              		.syntax unified
ARM GAS  C:\Users\28576\AppData\Local\Temp\cc51Faqy.s 			page 17


 194              		.thumb
 195              		.thumb_func
 197              	HAL_DMAEx_MultiBufferStart:
 198              	.LVL5:
 199              	.LFB132:
 121:../../Drivers/STM32H7xx_HAL_Driver/Src/stm32h7xx_hal_dma_ex.c ****   HAL_StatusTypeDef status = HAL_OK;
 200              		.loc 1 121 1 is_stmt 1 view -0
 201              		.cfi_startproc
 202              		@ args = 4, pretend = 0, frame = 0
 203              		@ frame_needed = 0, uses_anonymous_args = 0
 121:../../Drivers/STM32H7xx_HAL_Driver/Src/stm32h7xx_hal_dma_ex.c ****   HAL_StatusTypeDef status = HAL_OK;
 204              		.loc 1 121 1 is_stmt 0 view .LVU58
 205 0000 10B5     		push	{r4, lr}
 206              	.LCFI1:
 207              		.cfi_def_cfa_offset 8
 208              		.cfi_offset 4, -8
 209              		.cfi_offset 14, -4
 210 0002 0446     		mov	r4, r0
 122:../../Drivers/STM32H7xx_HAL_Driver/Src/stm32h7xx_hal_dma_ex.c ****   __IO uint32_t *ifcRegister_Base; /* DMA Stream Interrupt Clear register */
 211              		.loc 1 122 3 is_stmt 1 view .LVU59
 212              	.LVL6:
 123:../../Drivers/STM32H7xx_HAL_Driver/Src/stm32h7xx_hal_dma_ex.c **** 
 213              		.loc 1 123 3 view .LVU60
 126:../../Drivers/STM32H7xx_HAL_Driver/Src/stm32h7xx_hal_dma_ex.c ****   assert_param(IS_DMA_ALL_INSTANCE(hdma->Instance));
 214              		.loc 1 126 3 view .LVU61
 127:../../Drivers/STM32H7xx_HAL_Driver/Src/stm32h7xx_hal_dma_ex.c **** 
 215              		.loc 1 127 3 view .LVU62
 130:../../Drivers/STM32H7xx_HAL_Driver/Src/stm32h7xx_hal_dma_ex.c ****   {
 216              		.loc 1 130 3 view .LVU63
 130:../../Drivers/STM32H7xx_HAL_Driver/Src/stm32h7xx_hal_dma_ex.c ****   {
 217              		.loc 1 130 17 is_stmt 0 view .LVU64
 218 0004 8068     		ldr	r0, [r0, #8]
 219              	.LVL7:
 130:../../Drivers/STM32H7xx_HAL_Driver/Src/stm32h7xx_hal_dma_ex.c ****   {
 220              		.loc 1 130 6 view .LVU65
 221 0006 8028     		cmp	r0, #128
 222 0008 10D0     		beq	.L25
 138:../../Drivers/STM32H7xx_HAL_Driver/Src/stm32h7xx_hal_dma_ex.c **** 
 223              		.loc 1 138 5 is_stmt 1 view .LVU66
 138:../../Drivers/STM32H7xx_HAL_Driver/Src/stm32h7xx_hal_dma_ex.c **** 
 224              		.loc 1 138 5 view .LVU67
 225 000a 94F83400 		ldrb	r0, [r4, #52]	@ zero_extendqisi2
 226 000e 0128     		cmp	r0, #1
 227 0010 00F00D81 		beq	.L23
 138:../../Drivers/STM32H7xx_HAL_Driver/Src/stm32h7xx_hal_dma_ex.c **** 
 228              		.loc 1 138 5 discriminator 2 view .LVU68
 229 0014 0120     		movs	r0, #1
 230 0016 84F83400 		strb	r0, [r4, #52]
 138:../../Drivers/STM32H7xx_HAL_Driver/Src/stm32h7xx_hal_dma_ex.c **** 
 231              		.loc 1 138 5 view .LVU69
 140:../../Drivers/STM32H7xx_HAL_Driver/Src/stm32h7xx_hal_dma_ex.c ****     {
 232              		.loc 1 140 5 view .LVU70
 140:../../Drivers/STM32H7xx_HAL_Driver/Src/stm32h7xx_hal_dma_ex.c ****     {
 233              		.loc 1 140 35 is_stmt 0 view .LVU71
 234 001a 94F83500 		ldrb	r0, [r4, #53]	@ zero_extendqisi2
 140:../../Drivers/STM32H7xx_HAL_Driver/Src/stm32h7xx_hal_dma_ex.c ****     {
 235              		.loc 1 140 7 view .LVU72
ARM GAS  C:\Users\28576\AppData\Local\Temp\cc51Faqy.s 			page 18


 236 001e 0128     		cmp	r0, #1
 237 0020 09D0     		beq	.L26
 198:../../Drivers/STM32H7xx_HAL_Driver/Src/stm32h7xx_hal_dma_ex.c **** 
 238              		.loc 1 198 7 is_stmt 1 view .LVU73
 198:../../Drivers/STM32H7xx_HAL_Driver/Src/stm32h7xx_hal_dma_ex.c **** 
 239              		.loc 1 198 23 is_stmt 0 view .LVU74
 240 0022 4FF40063 		mov	r3, #2048
 241              	.LVL8:
 198:../../Drivers/STM32H7xx_HAL_Driver/Src/stm32h7xx_hal_dma_ex.c **** 
 242              		.loc 1 198 23 view .LVU75
 243 0026 6365     		str	r3, [r4, #84]
 201:../../Drivers/STM32H7xx_HAL_Driver/Src/stm32h7xx_hal_dma_ex.c ****     }
 244              		.loc 1 201 7 is_stmt 1 view .LVU76
 245              	.LVL9:
 201:../../Drivers/STM32H7xx_HAL_Driver/Src/stm32h7xx_hal_dma_ex.c ****     }
 246              		.loc 1 201 14 is_stmt 0 view .LVU77
 247 0028 0120     		movs	r0, #1
 248              	.LVL10:
 249              	.L15:
 205:../../Drivers/STM32H7xx_HAL_Driver/Src/stm32h7xx_hal_dma_ex.c **** 
 250              		.loc 1 205 1 view .LVU78
 251 002a 10BD     		pop	{r4, pc}
 252              	.LVL11:
 253              	.L25:
 132:../../Drivers/STM32H7xx_HAL_Driver/Src/stm32h7xx_hal_dma_ex.c ****     status = HAL_ERROR;
 254              		.loc 1 132 5 is_stmt 1 view .LVU79
 132:../../Drivers/STM32H7xx_HAL_Driver/Src/stm32h7xx_hal_dma_ex.c ****     status = HAL_ERROR;
 255              		.loc 1 132 21 is_stmt 0 view .LVU80
 256 002c 4FF48073 		mov	r3, #256
 257              	.LVL12:
 132:../../Drivers/STM32H7xx_HAL_Driver/Src/stm32h7xx_hal_dma_ex.c ****     status = HAL_ERROR;
 258              		.loc 1 132 21 view .LVU81
 259 0030 6365     		str	r3, [r4, #84]
 133:../../Drivers/STM32H7xx_HAL_Driver/Src/stm32h7xx_hal_dma_ex.c ****   }
 260              		.loc 1 133 5 is_stmt 1 view .LVU82
 261              	.LVL13:
 133:../../Drivers/STM32H7xx_HAL_Driver/Src/stm32h7xx_hal_dma_ex.c ****   }
 262              		.loc 1 133 12 is_stmt 0 view .LVU83
 263 0032 0120     		movs	r0, #1
 264 0034 F9E7     		b	.L15
 265              	.LVL14:
 266              	.L26:
 143:../../Drivers/STM32H7xx_HAL_Driver/Src/stm32h7xx_hal_dma_ex.c **** 
 267              		.loc 1 143 7 is_stmt 1 view .LVU84
 143:../../Drivers/STM32H7xx_HAL_Driver/Src/stm32h7xx_hal_dma_ex.c **** 
 268              		.loc 1 143 19 is_stmt 0 view .LVU85
 269 0036 0220     		movs	r0, #2
 270 0038 84F83500 		strb	r0, [r4, #53]
 146:../../Drivers/STM32H7xx_HAL_Driver/Src/stm32h7xx_hal_dma_ex.c **** 
 271              		.loc 1 146 7 is_stmt 1 view .LVU86
 146:../../Drivers/STM32H7xx_HAL_Driver/Src/stm32h7xx_hal_dma_ex.c **** 
 272              		.loc 1 146 23 is_stmt 0 view .LVU87
 273 003c 0020     		movs	r0, #0
 274 003e 6065     		str	r0, [r4, #84]
 148:../../Drivers/STM32H7xx_HAL_Driver/Src/stm32h7xx_hal_dma_ex.c ****       {
 275              		.loc 1 148 7 is_stmt 1 view .LVU88
 148:../../Drivers/STM32H7xx_HAL_Driver/Src/stm32h7xx_hal_dma_ex.c ****       {
ARM GAS  C:\Users\28576\AppData\Local\Temp\cc51Faqy.s 			page 19


 276              		.loc 1 148 10 is_stmt 0 view .LVU89
 277 0040 2068     		ldr	r0, [r4]
 278 0042 DFF8F8E1 		ldr	lr, .L27+8
 279 0046 DFF8ECC1 		ldr	ip, .L27
 280 004a 6045     		cmp	r0, ip
 281 004c 18BF     		it	ne
 282 004e 7045     		cmpne	r0, lr
 283 0050 49D0     		beq	.L17
 148:../../Drivers/STM32H7xx_HAL_Driver/Src/stm32h7xx_hal_dma_ex.c ****       {
 284              		.loc 1 148 10 discriminator 2 view .LVU90
 285 0052 0CF1180C 		add	ip, ip, #24
 286 0056 6045     		cmp	r0, ip
 287 0058 45D0     		beq	.L17
 148:../../Drivers/STM32H7xx_HAL_Driver/Src/stm32h7xx_hal_dma_ex.c ****       {
 288              		.loc 1 148 10 discriminator 4 view .LVU91
 289 005a 0CF1180C 		add	ip, ip, #24
 290 005e 6045     		cmp	r0, ip
 291 0060 41D0     		beq	.L17
 148:../../Drivers/STM32H7xx_HAL_Driver/Src/stm32h7xx_hal_dma_ex.c ****       {
 292              		.loc 1 148 10 discriminator 6 view .LVU92
 293 0062 0CF1180C 		add	ip, ip, #24
 294 0066 6045     		cmp	r0, ip
 295 0068 3DD0     		beq	.L17
 148:../../Drivers/STM32H7xx_HAL_Driver/Src/stm32h7xx_hal_dma_ex.c ****       {
 296              		.loc 1 148 10 discriminator 8 view .LVU93
 297 006a 0CF1180C 		add	ip, ip, #24
 298 006e 6045     		cmp	r0, ip
 299 0070 39D0     		beq	.L17
 148:../../Drivers/STM32H7xx_HAL_Driver/Src/stm32h7xx_hal_dma_ex.c ****       {
 300              		.loc 1 148 10 discriminator 10 view .LVU94
 301 0072 0CF1180C 		add	ip, ip, #24
 302 0076 6045     		cmp	r0, ip
 303 0078 35D0     		beq	.L17
 148:../../Drivers/STM32H7xx_HAL_Driver/Src/stm32h7xx_hal_dma_ex.c ****       {
 304              		.loc 1 148 10 discriminator 12 view .LVU95
 305 007a 0CF1180C 		add	ip, ip, #24
 306 007e 6045     		cmp	r0, ip
 307 0080 31D0     		beq	.L17
 148:../../Drivers/STM32H7xx_HAL_Driver/Src/stm32h7xx_hal_dma_ex.c ****       {
 308              		.loc 1 148 10 discriminator 14 view .LVU96
 309 0082 0CF5567C 		add	ip, ip, #856
 310 0086 6045     		cmp	r0, ip
 311 0088 2DD0     		beq	.L17
 148:../../Drivers/STM32H7xx_HAL_Driver/Src/stm32h7xx_hal_dma_ex.c ****       {
 312              		.loc 1 148 10 discriminator 16 view .LVU97
 313 008a 0CF1180C 		add	ip, ip, #24
 314 008e 6045     		cmp	r0, ip
 315 0090 29D0     		beq	.L17
 148:../../Drivers/STM32H7xx_HAL_Driver/Src/stm32h7xx_hal_dma_ex.c ****       {
 316              		.loc 1 148 10 discriminator 18 view .LVU98
 317 0092 0CF1180C 		add	ip, ip, #24
 318 0096 6045     		cmp	r0, ip
 319 0098 25D0     		beq	.L17
 148:../../Drivers/STM32H7xx_HAL_Driver/Src/stm32h7xx_hal_dma_ex.c ****       {
 320              		.loc 1 148 10 discriminator 20 view .LVU99
 321 009a 0CF1180C 		add	ip, ip, #24
 322 009e 6045     		cmp	r0, ip
ARM GAS  C:\Users\28576\AppData\Local\Temp\cc51Faqy.s 			page 20


 323 00a0 21D0     		beq	.L17
 148:../../Drivers/STM32H7xx_HAL_Driver/Src/stm32h7xx_hal_dma_ex.c ****       {
 324              		.loc 1 148 10 discriminator 22 view .LVU100
 325 00a2 0CF1180C 		add	ip, ip, #24
 326 00a6 6045     		cmp	r0, ip
 327 00a8 1DD0     		beq	.L17
 148:../../Drivers/STM32H7xx_HAL_Driver/Src/stm32h7xx_hal_dma_ex.c ****       {
 328              		.loc 1 148 10 discriminator 24 view .LVU101
 329 00aa 0CF1180C 		add	ip, ip, #24
 330 00ae 6045     		cmp	r0, ip
 331 00b0 19D0     		beq	.L17
 148:../../Drivers/STM32H7xx_HAL_Driver/Src/stm32h7xx_hal_dma_ex.c ****       {
 332              		.loc 1 148 10 discriminator 26 view .LVU102
 333 00b2 0CF1180C 		add	ip, ip, #24
 334 00b6 6045     		cmp	r0, ip
 335 00b8 15D0     		beq	.L17
 148:../../Drivers/STM32H7xx_HAL_Driver/Src/stm32h7xx_hal_dma_ex.c ****       {
 336              		.loc 1 148 10 discriminator 28 view .LVU103
 337 00ba 0CF1180C 		add	ip, ip, #24
 338 00be 6045     		cmp	r0, ip
 339 00c0 11D0     		beq	.L17
 165:../../Drivers/STM32H7xx_HAL_Driver/Src/stm32h7xx_hal_dma_ex.c **** 
 340              		.loc 1 165 9 is_stmt 1 view .LVU104
 165:../../Drivers/STM32H7xx_HAL_Driver/Src/stm32h7xx_hal_dma_ex.c **** 
 341              		.loc 1 165 51 is_stmt 0 view .LVU105
 342 00c2 D0F800E0 		ldr	lr, [r0]
 165:../../Drivers/STM32H7xx_HAL_Driver/Src/stm32h7xx_hal_dma_ex.c **** 
 343              		.loc 1 165 57 view .LVU106
 344 00c6 48F2200C 		movw	ip, #32800
 345 00ca 4EEA0C0C 		orr	ip, lr, ip
 346 00ce C0F800C0 		str	ip, [r0]
 168:../../Drivers/STM32H7xx_HAL_Driver/Src/stm32h7xx_hal_dma_ex.c **** 
 347              		.loc 1 168 9 is_stmt 1 view .LVU107
 168:../../Drivers/STM32H7xx_HAL_Driver/Src/stm32h7xx_hal_dma_ex.c **** 
 348              		.loc 1 168 40 is_stmt 0 view .LVU108
 349 00d2 2068     		ldr	r0, [r4]
 168:../../Drivers/STM32H7xx_HAL_Driver/Src/stm32h7xx_hal_dma_ex.c **** 
 350              		.loc 1 168 59 view .LVU109
 351 00d4 0361     		str	r3, [r0, #16]
 171:../../Drivers/STM32H7xx_HAL_Driver/Src/stm32h7xx_hal_dma_ex.c **** 
 352              		.loc 1 171 9 is_stmt 1 view .LVU110
 353              	.LVL15:
 174:../../Drivers/STM32H7xx_HAL_Driver/Src/stm32h7xx_hal_dma_ex.c ****       }
 354              		.loc 1 174 9 view .LVU111
 174:../../Drivers/STM32H7xx_HAL_Driver/Src/stm32h7xx_hal_dma_ex.c ****       }
 355              		.loc 1 174 53 is_stmt 0 view .LVU112
 356 00d6 E36D     		ldr	r3, [r4, #92]
 357              	.LVL16:
 174:../../Drivers/STM32H7xx_HAL_Driver/Src/stm32h7xx_hal_dma_ex.c ****       }
 358              		.loc 1 174 67 view .LVU113
 359 00d8 03F01F00 		and	r0, r3, #31
 360              	.LVL17:
 174:../../Drivers/STM32H7xx_HAL_Driver/Src/stm32h7xx_hal_dma_ex.c ****       }
 361              		.loc 1 174 45 view .LVU114
 362 00dc 0123     		movs	r3, #1
 363 00de 8340     		lsls	r3, r3, r0
 174:../../Drivers/STM32H7xx_HAL_Driver/Src/stm32h7xx_hal_dma_ex.c ****       }
ARM GAS  C:\Users\28576\AppData\Local\Temp\cc51Faqy.s 			page 21


 364              		.loc 1 174 27 view .LVU115
 365 00e0 A06D     		ldr	r0, [r4, #88]
 366 00e2 4360     		str	r3, [r0, #4]
 367              	.LVL18:
 174:../../Drivers/STM32H7xx_HAL_Driver/Src/stm32h7xx_hal_dma_ex.c ****       }
 368              		.loc 1 174 27 view .LVU116
 369 00e4 0EE0     		b	.L18
 370              	.LVL19:
 371              	.L17:
 151:../../Drivers/STM32H7xx_HAL_Driver/Src/stm32h7xx_hal_dma_ex.c **** 
 372              		.loc 1 151 9 is_stmt 1 view .LVU117
 151:../../Drivers/STM32H7xx_HAL_Driver/Src/stm32h7xx_hal_dma_ex.c **** 
 373              		.loc 1 151 49 is_stmt 0 view .LVU118
 374 00e6 D0F800C0 		ldr	ip, [r0]
 151:../../Drivers/STM32H7xx_HAL_Driver/Src/stm32h7xx_hal_dma_ex.c **** 
 375              		.loc 1 151 54 view .LVU119
 376 00ea 4CF4802C 		orr	ip, ip, #262144
 377 00ee C0F800C0 		str	ip, [r0]
 154:../../Drivers/STM32H7xx_HAL_Driver/Src/stm32h7xx_hal_dma_ex.c **** 
 378              		.loc 1 154 9 is_stmt 1 view .LVU120
 154:../../Drivers/STM32H7xx_HAL_Driver/Src/stm32h7xx_hal_dma_ex.c **** 
 379              		.loc 1 154 38 is_stmt 0 view .LVU121
 380 00f2 2068     		ldr	r0, [r4]
 154:../../Drivers/STM32H7xx_HAL_Driver/Src/stm32h7xx_hal_dma_ex.c **** 
 381              		.loc 1 154 56 view .LVU122
 382 00f4 0361     		str	r3, [r0, #16]
 157:../../Drivers/STM32H7xx_HAL_Driver/Src/stm32h7xx_hal_dma_ex.c **** 
 383              		.loc 1 157 9 is_stmt 1 view .LVU123
 384              	.LVL20:
 160:../../Drivers/STM32H7xx_HAL_Driver/Src/stm32h7xx_hal_dma_ex.c ****       }
 385              		.loc 1 160 9 view .LVU124
 160:../../Drivers/STM32H7xx_HAL_Driver/Src/stm32h7xx_hal_dma_ex.c ****       }
 386              		.loc 1 160 44 is_stmt 0 view .LVU125
 387 00f6 E36D     		ldr	r3, [r4, #92]
 388              	.LVL21:
 160:../../Drivers/STM32H7xx_HAL_Driver/Src/stm32h7xx_hal_dma_ex.c ****       }
 389              		.loc 1 160 58 view .LVU126
 390 00f8 03F01F00 		and	r0, r3, #31
 391              	.LVL22:
 160:../../Drivers/STM32H7xx_HAL_Driver/Src/stm32h7xx_hal_dma_ex.c ****       }
 392              		.loc 1 160 36 view .LVU127
 393 00fc 3F23     		movs	r3, #63
 394 00fe 8340     		lsls	r3, r3, r0
 160:../../Drivers/STM32H7xx_HAL_Driver/Src/stm32h7xx_hal_dma_ex.c ****       }
 395              		.loc 1 160 27 view .LVU128
 396 0100 A06D     		ldr	r0, [r4, #88]
 397 0102 8360     		str	r3, [r0, #8]
 398              	.LVL23:
 399              	.L18:
 177:../../Drivers/STM32H7xx_HAL_Driver/Src/stm32h7xx_hal_dma_ex.c ****       {
 400              		.loc 1 177 7 is_stmt 1 view .LVU129
 177:../../Drivers/STM32H7xx_HAL_Driver/Src/stm32h7xx_hal_dma_ex.c ****       {
 401              		.loc 1 177 10 is_stmt 0 view .LVU130
 402 0104 2368     		ldr	r3, [r4]
 403 0106 DFF834C1 		ldr	ip, .L27+8
 404 010a 4A48     		ldr	r0, .L27
 405 010c 8342     		cmp	r3, r0
ARM GAS  C:\Users\28576\AppData\Local\Temp\cc51Faqy.s 			page 22


 406 010e 18BF     		it	ne
 407 0110 6345     		cmpne	r3, ip
 408 0112 42D0     		beq	.L19
 177:../../Drivers/STM32H7xx_HAL_Driver/Src/stm32h7xx_hal_dma_ex.c ****       {
 409              		.loc 1 177 10 discriminator 2 view .LVU131
 410 0114 1830     		adds	r0, r0, #24
 411 0116 8342     		cmp	r3, r0
 412 0118 3FD0     		beq	.L19
 177:../../Drivers/STM32H7xx_HAL_Driver/Src/stm32h7xx_hal_dma_ex.c ****       {
 413              		.loc 1 177 10 discriminator 4 view .LVU132
 414 011a 1830     		adds	r0, r0, #24
 415 011c 8342     		cmp	r3, r0
 416 011e 3CD0     		beq	.L19
 177:../../Drivers/STM32H7xx_HAL_Driver/Src/stm32h7xx_hal_dma_ex.c ****       {
 417              		.loc 1 177 10 discriminator 6 view .LVU133
 418 0120 1830     		adds	r0, r0, #24
 419 0122 8342     		cmp	r3, r0
 420 0124 39D0     		beq	.L19
 177:../../Drivers/STM32H7xx_HAL_Driver/Src/stm32h7xx_hal_dma_ex.c ****       {
 421              		.loc 1 177 10 discriminator 8 view .LVU134
 422 0126 1830     		adds	r0, r0, #24
 423 0128 8342     		cmp	r3, r0
 424 012a 36D0     		beq	.L19
 177:../../Drivers/STM32H7xx_HAL_Driver/Src/stm32h7xx_hal_dma_ex.c ****       {
 425              		.loc 1 177 10 discriminator 10 view .LVU135
 426 012c 1830     		adds	r0, r0, #24
 427 012e 8342     		cmp	r3, r0
 428 0130 33D0     		beq	.L19
 177:../../Drivers/STM32H7xx_HAL_Driver/Src/stm32h7xx_hal_dma_ex.c ****       {
 429              		.loc 1 177 10 discriminator 12 view .LVU136
 430 0132 1830     		adds	r0, r0, #24
 431 0134 8342     		cmp	r3, r0
 432 0136 30D0     		beq	.L19
 177:../../Drivers/STM32H7xx_HAL_Driver/Src/stm32h7xx_hal_dma_ex.c ****       {
 433              		.loc 1 177 10 discriminator 14 view .LVU137
 434 0138 00F55670 		add	r0, r0, #856
 435 013c 8342     		cmp	r3, r0
 436 013e 2CD0     		beq	.L19
 177:../../Drivers/STM32H7xx_HAL_Driver/Src/stm32h7xx_hal_dma_ex.c ****       {
 437              		.loc 1 177 10 discriminator 16 view .LVU138
 438 0140 1830     		adds	r0, r0, #24
 439 0142 8342     		cmp	r3, r0
 440 0144 29D0     		beq	.L19
 177:../../Drivers/STM32H7xx_HAL_Driver/Src/stm32h7xx_hal_dma_ex.c ****       {
 441              		.loc 1 177 10 discriminator 18 view .LVU139
 442 0146 1830     		adds	r0, r0, #24
 443 0148 8342     		cmp	r3, r0
 444 014a 26D0     		beq	.L19
 177:../../Drivers/STM32H7xx_HAL_Driver/Src/stm32h7xx_hal_dma_ex.c ****       {
 445              		.loc 1 177 10 discriminator 20 view .LVU140
 446 014c 1830     		adds	r0, r0, #24
 447 014e 8342     		cmp	r3, r0
 448 0150 23D0     		beq	.L19
 177:../../Drivers/STM32H7xx_HAL_Driver/Src/stm32h7xx_hal_dma_ex.c ****       {
 449              		.loc 1 177 10 discriminator 22 view .LVU141
 450 0152 1830     		adds	r0, r0, #24
 451 0154 8342     		cmp	r3, r0
ARM GAS  C:\Users\28576\AppData\Local\Temp\cc51Faqy.s 			page 23


 452 0156 20D0     		beq	.L19
 177:../../Drivers/STM32H7xx_HAL_Driver/Src/stm32h7xx_hal_dma_ex.c ****       {
 453              		.loc 1 177 10 discriminator 24 view .LVU142
 454 0158 1830     		adds	r0, r0, #24
 455 015a 8342     		cmp	r3, r0
 456 015c 1DD0     		beq	.L19
 177:../../Drivers/STM32H7xx_HAL_Driver/Src/stm32h7xx_hal_dma_ex.c ****       {
 457              		.loc 1 177 10 discriminator 26 view .LVU143
 458 015e 1830     		adds	r0, r0, #24
 459 0160 8342     		cmp	r3, r0
 460 0162 1AD0     		beq	.L19
 177:../../Drivers/STM32H7xx_HAL_Driver/Src/stm32h7xx_hal_dma_ex.c ****       {
 461              		.loc 1 177 10 discriminator 28 view .LVU144
 462 0164 1830     		adds	r0, r0, #24
 463 0166 8342     		cmp	r3, r0
 464 0168 17D0     		beq	.L19
 177:../../Drivers/STM32H7xx_HAL_Driver/Src/stm32h7xx_hal_dma_ex.c ****       {
 465              		.loc 1 177 10 discriminator 30 view .LVU145
 466 016a 3348     		ldr	r0, .L27+4
 467 016c 8342     		cmp	r3, r0
 468 016e 14D0     		beq	.L19
 177:../../Drivers/STM32H7xx_HAL_Driver/Src/stm32h7xx_hal_dma_ex.c ****       {
 469              		.loc 1 177 10 discriminator 32 view .LVU146
 470 0170 1430     		adds	r0, r0, #20
 471 0172 8342     		cmp	r3, r0
 472 0174 11D0     		beq	.L19
 177:../../Drivers/STM32H7xx_HAL_Driver/Src/stm32h7xx_hal_dma_ex.c ****       {
 473              		.loc 1 177 10 discriminator 34 view .LVU147
 474 0176 1430     		adds	r0, r0, #20
 475 0178 8342     		cmp	r3, r0
 476 017a 0ED0     		beq	.L19
 177:../../Drivers/STM32H7xx_HAL_Driver/Src/stm32h7xx_hal_dma_ex.c ****       {
 477              		.loc 1 177 10 discriminator 36 view .LVU148
 478 017c 1430     		adds	r0, r0, #20
 479 017e 8342     		cmp	r3, r0
 480 0180 0BD0     		beq	.L19
 177:../../Drivers/STM32H7xx_HAL_Driver/Src/stm32h7xx_hal_dma_ex.c ****       {
 481              		.loc 1 177 10 discriminator 38 view .LVU149
 482 0182 1430     		adds	r0, r0, #20
 483 0184 8342     		cmp	r3, r0
 484 0186 08D0     		beq	.L19
 177:../../Drivers/STM32H7xx_HAL_Driver/Src/stm32h7xx_hal_dma_ex.c ****       {
 485              		.loc 1 177 10 discriminator 40 view .LVU150
 486 0188 1430     		adds	r0, r0, #20
 487 018a 8342     		cmp	r3, r0
 488 018c 05D0     		beq	.L19
 177:../../Drivers/STM32H7xx_HAL_Driver/Src/stm32h7xx_hal_dma_ex.c ****       {
 489              		.loc 1 177 10 discriminator 42 view .LVU151
 490 018e 1430     		adds	r0, r0, #20
 491 0190 8342     		cmp	r3, r0
 492 0192 02D0     		beq	.L19
 177:../../Drivers/STM32H7xx_HAL_Driver/Src/stm32h7xx_hal_dma_ex.c ****       {
 493              		.loc 1 177 10 discriminator 44 view .LVU152
 494 0194 1430     		adds	r0, r0, #20
 495 0196 8342     		cmp	r3, r0
 496 0198 0BD1     		bne	.L20
 497              	.L19:
ARM GAS  C:\Users\28576\AppData\Local\Temp\cc51Faqy.s 			page 24


 180:../../Drivers/STM32H7xx_HAL_Driver/Src/stm32h7xx_hal_dma_ex.c **** 
 498              		.loc 1 180 9 is_stmt 1 view .LVU153
 499 019a 029B     		ldr	r3, [sp, #8]
 500 019c 2046     		mov	r0, r4
 501 019e FFF7FEFF 		bl	DMA_MultiBufferSetConfig
 502              	.LVL24:
 183:../../Drivers/STM32H7xx_HAL_Driver/Src/stm32h7xx_hal_dma_ex.c **** 
 503              		.loc 1 183 9 view .LVU154
 183:../../Drivers/STM32H7xx_HAL_Driver/Src/stm32h7xx_hal_dma_ex.c **** 
 504              		.loc 1 183 13 is_stmt 0 view .LVU155
 505 01a2 636E     		ldr	r3, [r4, #100]
 183:../../Drivers/STM32H7xx_HAL_Driver/Src/stm32h7xx_hal_dma_ex.c **** 
 506              		.loc 1 183 46 view .LVU156
 507 01a4 A26E     		ldr	r2, [r4, #104]
 183:../../Drivers/STM32H7xx_HAL_Driver/Src/stm32h7xx_hal_dma_ex.c **** 
 508              		.loc 1 183 40 view .LVU157
 509 01a6 5A60     		str	r2, [r3, #4]
 185:../../Drivers/STM32H7xx_HAL_Driver/Src/stm32h7xx_hal_dma_ex.c ****         {
 510              		.loc 1 185 9 is_stmt 1 view .LVU158
 185:../../Drivers/STM32H7xx_HAL_Driver/Src/stm32h7xx_hal_dma_ex.c ****         {
 511              		.loc 1 185 16 is_stmt 0 view .LVU159
 512 01a8 E36E     		ldr	r3, [r4, #108]
 185:../../Drivers/STM32H7xx_HAL_Driver/Src/stm32h7xx_hal_dma_ex.c ****         {
 513              		.loc 1 185 11 view .LVU160
 514 01aa 13B1     		cbz	r3, .L20
 188:../../Drivers/STM32H7xx_HAL_Driver/Src/stm32h7xx_hal_dma_ex.c ****         }
 515              		.loc 1 188 11 is_stmt 1 view .LVU161
 188:../../Drivers/STM32H7xx_HAL_Driver/Src/stm32h7xx_hal_dma_ex.c ****         }
 516              		.loc 1 188 15 is_stmt 0 view .LVU162
 517 01ac 236F     		ldr	r3, [r4, #112]
 188:../../Drivers/STM32H7xx_HAL_Driver/Src/stm32h7xx_hal_dma_ex.c ****         }
 518              		.loc 1 188 53 view .LVU163
 519 01ae 626F     		ldr	r2, [r4, #116]
 188:../../Drivers/STM32H7xx_HAL_Driver/Src/stm32h7xx_hal_dma_ex.c ****         }
 520              		.loc 1 188 47 view .LVU164
 521 01b0 5A60     		str	r2, [r3, #4]
 522              	.L20:
 193:../../Drivers/STM32H7xx_HAL_Driver/Src/stm32h7xx_hal_dma_ex.c ****     }
 523              		.loc 1 193 7 is_stmt 1 view .LVU165
 524 01b2 2368     		ldr	r3, [r4]
 525 01b4 2149     		ldr	r1, .L27+8
 526 01b6 1F4A     		ldr	r2, .L27
 527 01b8 9342     		cmp	r3, r2
 528 01ba 18BF     		it	ne
 529 01bc 8B42     		cmpne	r3, r1
 530 01be 30D0     		beq	.L21
 193:../../Drivers/STM32H7xx_HAL_Driver/Src/stm32h7xx_hal_dma_ex.c ****     }
 531              		.loc 1 193 7 is_stmt 0 discriminator 2 view .LVU166
 532 01c0 1832     		adds	r2, r2, #24
 533 01c2 9342     		cmp	r3, r2
 534 01c4 2DD0     		beq	.L21
 193:../../Drivers/STM32H7xx_HAL_Driver/Src/stm32h7xx_hal_dma_ex.c ****     }
 535              		.loc 1 193 7 discriminator 4 view .LVU167
 536 01c6 1832     		adds	r2, r2, #24
 537 01c8 9342     		cmp	r3, r2
 538 01ca 2AD0     		beq	.L21
 193:../../Drivers/STM32H7xx_HAL_Driver/Src/stm32h7xx_hal_dma_ex.c ****     }
ARM GAS  C:\Users\28576\AppData\Local\Temp\cc51Faqy.s 			page 25


 539              		.loc 1 193 7 discriminator 6 view .LVU168
 540 01cc 1832     		adds	r2, r2, #24
 541 01ce 9342     		cmp	r3, r2
 542 01d0 27D0     		beq	.L21
 193:../../Drivers/STM32H7xx_HAL_Driver/Src/stm32h7xx_hal_dma_ex.c ****     }
 543              		.loc 1 193 7 discriminator 8 view .LVU169
 544 01d2 1832     		adds	r2, r2, #24
 545 01d4 9342     		cmp	r3, r2
 546 01d6 24D0     		beq	.L21
 193:../../Drivers/STM32H7xx_HAL_Driver/Src/stm32h7xx_hal_dma_ex.c ****     }
 547              		.loc 1 193 7 discriminator 10 view .LVU170
 548 01d8 1832     		adds	r2, r2, #24
 549 01da 9342     		cmp	r3, r2
 550 01dc 21D0     		beq	.L21
 193:../../Drivers/STM32H7xx_HAL_Driver/Src/stm32h7xx_hal_dma_ex.c ****     }
 551              		.loc 1 193 7 discriminator 12 view .LVU171
 552 01de 1832     		adds	r2, r2, #24
 553 01e0 9342     		cmp	r3, r2
 554 01e2 1ED0     		beq	.L21
 193:../../Drivers/STM32H7xx_HAL_Driver/Src/stm32h7xx_hal_dma_ex.c ****     }
 555              		.loc 1 193 7 discriminator 14 view .LVU172
 556 01e4 02F55672 		add	r2, r2, #856
 557 01e8 9342     		cmp	r3, r2
 558 01ea 1AD0     		beq	.L21
 193:../../Drivers/STM32H7xx_HAL_Driver/Src/stm32h7xx_hal_dma_ex.c ****     }
 559              		.loc 1 193 7 discriminator 16 view .LVU173
 560 01ec 1832     		adds	r2, r2, #24
 561 01ee 9342     		cmp	r3, r2
 562 01f0 17D0     		beq	.L21
 193:../../Drivers/STM32H7xx_HAL_Driver/Src/stm32h7xx_hal_dma_ex.c ****     }
 563              		.loc 1 193 7 discriminator 18 view .LVU174
 564 01f2 1832     		adds	r2, r2, #24
 565 01f4 9342     		cmp	r3, r2
 566 01f6 14D0     		beq	.L21
 193:../../Drivers/STM32H7xx_HAL_Driver/Src/stm32h7xx_hal_dma_ex.c ****     }
 567              		.loc 1 193 7 discriminator 20 view .LVU175
 568 01f8 1832     		adds	r2, r2, #24
 569 01fa 9342     		cmp	r3, r2
 570 01fc 11D0     		beq	.L21
 193:../../Drivers/STM32H7xx_HAL_Driver/Src/stm32h7xx_hal_dma_ex.c ****     }
 571              		.loc 1 193 7 discriminator 22 view .LVU176
 572 01fe 1832     		adds	r2, r2, #24
 573 0200 9342     		cmp	r3, r2
 574 0202 0ED0     		beq	.L21
 193:../../Drivers/STM32H7xx_HAL_Driver/Src/stm32h7xx_hal_dma_ex.c ****     }
 575              		.loc 1 193 7 discriminator 24 view .LVU177
 576 0204 1832     		adds	r2, r2, #24
 577 0206 9342     		cmp	r3, r2
 578 0208 0BD0     		beq	.L21
 193:../../Drivers/STM32H7xx_HAL_Driver/Src/stm32h7xx_hal_dma_ex.c ****     }
 579              		.loc 1 193 7 discriminator 26 view .LVU178
 580 020a 1832     		adds	r2, r2, #24
 581 020c 9342     		cmp	r3, r2
 582 020e 08D0     		beq	.L21
 193:../../Drivers/STM32H7xx_HAL_Driver/Src/stm32h7xx_hal_dma_ex.c ****     }
 583              		.loc 1 193 7 discriminator 28 view .LVU179
 584 0210 1832     		adds	r2, r2, #24
ARM GAS  C:\Users\28576\AppData\Local\Temp\cc51Faqy.s 			page 26


 585 0212 9342     		cmp	r3, r2
 586 0214 05D0     		beq	.L21
 193:../../Drivers/STM32H7xx_HAL_Driver/Src/stm32h7xx_hal_dma_ex.c ****     }
 587              		.loc 1 193 7 discriminator 30 view .LVU180
 588 0216 1A68     		ldr	r2, [r3]
 589 0218 42F00102 		orr	r2, r2, #1
 590 021c 1A60     		str	r2, [r3]
 122:../../Drivers/STM32H7xx_HAL_Driver/Src/stm32h7xx_hal_dma_ex.c ****   __IO uint32_t *ifcRegister_Base; /* DMA Stream Interrupt Clear register */
 591              		.loc 1 122 21 view .LVU181
 592 021e 0020     		movs	r0, #0
 593 0220 03E7     		b	.L15
 594              	.L21:
 193:../../Drivers/STM32H7xx_HAL_Driver/Src/stm32h7xx_hal_dma_ex.c ****     }
 595              		.loc 1 193 7 discriminator 29 view .LVU182
 596 0222 1A68     		ldr	r2, [r3]
 597 0224 42F00102 		orr	r2, r2, #1
 598 0228 1A60     		str	r2, [r3]
 122:../../Drivers/STM32H7xx_HAL_Driver/Src/stm32h7xx_hal_dma_ex.c ****   __IO uint32_t *ifcRegister_Base; /* DMA Stream Interrupt Clear register */
 599              		.loc 1 122 21 view .LVU183
 600 022a 0020     		movs	r0, #0
 193:../../Drivers/STM32H7xx_HAL_Driver/Src/stm32h7xx_hal_dma_ex.c ****     }
 601              		.loc 1 193 7 view .LVU184
 602 022c FDE6     		b	.L15
 603              	.LVL25:
 604              	.L23:
 138:../../Drivers/STM32H7xx_HAL_Driver/Src/stm32h7xx_hal_dma_ex.c **** 
 605              		.loc 1 138 5 discriminator 1 view .LVU185
 606 022e 0220     		movs	r0, #2
 607 0230 FBE6     		b	.L15
 608              	.L28:
 609 0232 00BF     		.align	2
 610              	.L27:
 611 0234 28000240 		.word	1073872936
 612 0238 08540258 		.word	1476547592
 613 023c 10000240 		.word	1073872912
 614              		.cfi_endproc
 615              	.LFE132:
 617              		.section	.text.HAL_DMAEx_MultiBufferStart_IT,"ax",%progbits
 618              		.align	1
 619              		.global	HAL_DMAEx_MultiBufferStart_IT
 620              		.syntax unified
 621              		.thumb
 622              		.thumb_func
 624              	HAL_DMAEx_MultiBufferStart_IT:
 625              	.LVL26:
 626              	.LFB133:
 218:../../Drivers/STM32H7xx_HAL_Driver/Src/stm32h7xx_hal_dma_ex.c ****   HAL_StatusTypeDef status = HAL_OK;
 627              		.loc 1 218 1 is_stmt 1 view -0
 628              		.cfi_startproc
 629              		@ args = 4, pretend = 0, frame = 0
 630              		@ frame_needed = 0, uses_anonymous_args = 0
 218:../../Drivers/STM32H7xx_HAL_Driver/Src/stm32h7xx_hal_dma_ex.c ****   HAL_StatusTypeDef status = HAL_OK;
 631              		.loc 1 218 1 is_stmt 0 view .LVU187
 632 0000 10B5     		push	{r4, lr}
 633              	.LCFI2:
 634              		.cfi_def_cfa_offset 8
 635              		.cfi_offset 4, -8
ARM GAS  C:\Users\28576\AppData\Local\Temp\cc51Faqy.s 			page 27


 636              		.cfi_offset 14, -4
 637 0002 0446     		mov	r4, r0
 219:../../Drivers/STM32H7xx_HAL_Driver/Src/stm32h7xx_hal_dma_ex.c ****   __IO uint32_t *ifcRegister_Base; /* DMA Stream Interrupt Clear register */
 638              		.loc 1 219 3 is_stmt 1 view .LVU188
 639              	.LVL27:
 220:../../Drivers/STM32H7xx_HAL_Driver/Src/stm32h7xx_hal_dma_ex.c **** 
 640              		.loc 1 220 3 view .LVU189
 223:../../Drivers/STM32H7xx_HAL_Driver/Src/stm32h7xx_hal_dma_ex.c ****   assert_param(IS_DMA_ALL_INSTANCE(hdma->Instance));
 641              		.loc 1 223 3 view .LVU190
 224:../../Drivers/STM32H7xx_HAL_Driver/Src/stm32h7xx_hal_dma_ex.c **** 
 642              		.loc 1 224 3 view .LVU191
 227:../../Drivers/STM32H7xx_HAL_Driver/Src/stm32h7xx_hal_dma_ex.c ****   {
 643              		.loc 1 227 3 view .LVU192
 227:../../Drivers/STM32H7xx_HAL_Driver/Src/stm32h7xx_hal_dma_ex.c ****   {
 644              		.loc 1 227 16 is_stmt 0 view .LVU193
 645 0004 8068     		ldr	r0, [r0, #8]
 646              	.LVL28:
 227:../../Drivers/STM32H7xx_HAL_Driver/Src/stm32h7xx_hal_dma_ex.c ****   {
 647              		.loc 1 227 5 view .LVU194
 648 0006 8028     		cmp	r0, #128
 649 0008 10D0     		beq	.L50
 234:../../Drivers/STM32H7xx_HAL_Driver/Src/stm32h7xx_hal_dma_ex.c **** 
 650              		.loc 1 234 3 is_stmt 1 view .LVU195
 234:../../Drivers/STM32H7xx_HAL_Driver/Src/stm32h7xx_hal_dma_ex.c **** 
 651              		.loc 1 234 3 view .LVU196
 652 000a 94F83400 		ldrb	r0, [r4, #52]	@ zero_extendqisi2
 653 000e 0128     		cmp	r0, #1
 654 0010 00F0CB81 		beq	.L47
 234:../../Drivers/STM32H7xx_HAL_Driver/Src/stm32h7xx_hal_dma_ex.c **** 
 655              		.loc 1 234 3 discriminator 2 view .LVU197
 656 0014 0120     		movs	r0, #1
 657 0016 84F83400 		strb	r0, [r4, #52]
 234:../../Drivers/STM32H7xx_HAL_Driver/Src/stm32h7xx_hal_dma_ex.c **** 
 658              		.loc 1 234 3 view .LVU198
 236:../../Drivers/STM32H7xx_HAL_Driver/Src/stm32h7xx_hal_dma_ex.c ****   {
 659              		.loc 1 236 3 view .LVU199
 236:../../Drivers/STM32H7xx_HAL_Driver/Src/stm32h7xx_hal_dma_ex.c ****   {
 660              		.loc 1 236 33 is_stmt 0 view .LVU200
 661 001a 94F83500 		ldrb	r0, [r4, #53]	@ zero_extendqisi2
 236:../../Drivers/STM32H7xx_HAL_Driver/Src/stm32h7xx_hal_dma_ex.c ****   {
 662              		.loc 1 236 5 view .LVU201
 663 001e 0128     		cmp	r0, #1
 664 0020 09D0     		beq	.L51
 335:../../Drivers/STM32H7xx_HAL_Driver/Src/stm32h7xx_hal_dma_ex.c **** 
 665              		.loc 1 335 5 is_stmt 1 view .LVU202
 335:../../Drivers/STM32H7xx_HAL_Driver/Src/stm32h7xx_hal_dma_ex.c **** 
 666              		.loc 1 335 21 is_stmt 0 view .LVU203
 667 0022 4FF40063 		mov	r3, #2048
 668              	.LVL29:
 335:../../Drivers/STM32H7xx_HAL_Driver/Src/stm32h7xx_hal_dma_ex.c **** 
 669              		.loc 1 335 21 view .LVU204
 670 0026 6365     		str	r3, [r4, #84]
 338:../../Drivers/STM32H7xx_HAL_Driver/Src/stm32h7xx_hal_dma_ex.c ****   }
 671              		.loc 1 338 5 is_stmt 1 view .LVU205
 672              	.LVL30:
 338:../../Drivers/STM32H7xx_HAL_Driver/Src/stm32h7xx_hal_dma_ex.c ****   }
 673              		.loc 1 338 12 is_stmt 0 view .LVU206
ARM GAS  C:\Users\28576\AppData\Local\Temp\cc51Faqy.s 			page 28


 674 0028 0120     		movs	r0, #1
 675              	.LVL31:
 676              	.L31:
 341:../../Drivers/STM32H7xx_HAL_Driver/Src/stm32h7xx_hal_dma_ex.c **** 
 677              		.loc 1 341 1 view .LVU207
 678 002a 10BD     		pop	{r4, pc}
 679              	.LVL32:
 680              	.L50:
 229:../../Drivers/STM32H7xx_HAL_Driver/Src/stm32h7xx_hal_dma_ex.c ****     return HAL_ERROR;
 681              		.loc 1 229 5 is_stmt 1 view .LVU208
 229:../../Drivers/STM32H7xx_HAL_Driver/Src/stm32h7xx_hal_dma_ex.c ****     return HAL_ERROR;
 682              		.loc 1 229 21 is_stmt 0 view .LVU209
 683 002c 4FF48073 		mov	r3, #256
 684              	.LVL33:
 229:../../Drivers/STM32H7xx_HAL_Driver/Src/stm32h7xx_hal_dma_ex.c ****     return HAL_ERROR;
 685              		.loc 1 229 21 view .LVU210
 686 0030 6365     		str	r3, [r4, #84]
 230:../../Drivers/STM32H7xx_HAL_Driver/Src/stm32h7xx_hal_dma_ex.c ****   }
 687              		.loc 1 230 5 is_stmt 1 view .LVU211
 230:../../Drivers/STM32H7xx_HAL_Driver/Src/stm32h7xx_hal_dma_ex.c ****   }
 688              		.loc 1 230 12 is_stmt 0 view .LVU212
 689 0032 0120     		movs	r0, #1
 690 0034 F9E7     		b	.L31
 691              	.LVL34:
 692              	.L51:
 239:../../Drivers/STM32H7xx_HAL_Driver/Src/stm32h7xx_hal_dma_ex.c **** 
 693              		.loc 1 239 5 is_stmt 1 view .LVU213
 239:../../Drivers/STM32H7xx_HAL_Driver/Src/stm32h7xx_hal_dma_ex.c **** 
 694              		.loc 1 239 17 is_stmt 0 view .LVU214
 695 0036 0220     		movs	r0, #2
 696 0038 84F83500 		strb	r0, [r4, #53]
 242:../../Drivers/STM32H7xx_HAL_Driver/Src/stm32h7xx_hal_dma_ex.c **** 
 697              		.loc 1 242 5 is_stmt 1 view .LVU215
 242:../../Drivers/STM32H7xx_HAL_Driver/Src/stm32h7xx_hal_dma_ex.c **** 
 698              		.loc 1 242 21 is_stmt 0 view .LVU216
 699 003c 0020     		movs	r0, #0
 700 003e 6065     		str	r0, [r4, #84]
 244:../../Drivers/STM32H7xx_HAL_Driver/Src/stm32h7xx_hal_dma_ex.c ****     {
 701              		.loc 1 244 5 is_stmt 1 view .LVU217
 244:../../Drivers/STM32H7xx_HAL_Driver/Src/stm32h7xx_hal_dma_ex.c ****     {
 702              		.loc 1 244 8 is_stmt 0 view .LVU218
 703 0040 2068     		ldr	r0, [r4]
 704 0042 DFF8F0E1 		ldr	lr, .L54
 705 0046 DFF8F0C1 		ldr	ip, .L54+4
 706 004a 6045     		cmp	r0, ip
 707 004c 18BF     		it	ne
 708 004e 7045     		cmpne	r0, lr
 709 0050 49D0     		beq	.L33
 244:../../Drivers/STM32H7xx_HAL_Driver/Src/stm32h7xx_hal_dma_ex.c ****     {
 710              		.loc 1 244 8 discriminator 2 view .LVU219
 711 0052 0CF1180C 		add	ip, ip, #24
 712 0056 6045     		cmp	r0, ip
 713 0058 45D0     		beq	.L33
 244:../../Drivers/STM32H7xx_HAL_Driver/Src/stm32h7xx_hal_dma_ex.c ****     {
 714              		.loc 1 244 8 discriminator 4 view .LVU220
 715 005a 0CF1180C 		add	ip, ip, #24
 716 005e 6045     		cmp	r0, ip
ARM GAS  C:\Users\28576\AppData\Local\Temp\cc51Faqy.s 			page 29


 717 0060 41D0     		beq	.L33
 244:../../Drivers/STM32H7xx_HAL_Driver/Src/stm32h7xx_hal_dma_ex.c ****     {
 718              		.loc 1 244 8 discriminator 6 view .LVU221
 719 0062 0CF1180C 		add	ip, ip, #24
 720 0066 6045     		cmp	r0, ip
 721 0068 3DD0     		beq	.L33
 244:../../Drivers/STM32H7xx_HAL_Driver/Src/stm32h7xx_hal_dma_ex.c ****     {
 722              		.loc 1 244 8 discriminator 8 view .LVU222
 723 006a 0CF1180C 		add	ip, ip, #24
 724 006e 6045     		cmp	r0, ip
 725 0070 39D0     		beq	.L33
 244:../../Drivers/STM32H7xx_HAL_Driver/Src/stm32h7xx_hal_dma_ex.c ****     {
 726              		.loc 1 244 8 discriminator 10 view .LVU223
 727 0072 0CF1180C 		add	ip, ip, #24
 728 0076 6045     		cmp	r0, ip
 729 0078 35D0     		beq	.L33
 244:../../Drivers/STM32H7xx_HAL_Driver/Src/stm32h7xx_hal_dma_ex.c ****     {
 730              		.loc 1 244 8 discriminator 12 view .LVU224
 731 007a 0CF1180C 		add	ip, ip, #24
 732 007e 6045     		cmp	r0, ip
 733 0080 31D0     		beq	.L33
 244:../../Drivers/STM32H7xx_HAL_Driver/Src/stm32h7xx_hal_dma_ex.c ****     {
 734              		.loc 1 244 8 discriminator 14 view .LVU225
 735 0082 0CF5567C 		add	ip, ip, #856
 736 0086 6045     		cmp	r0, ip
 737 0088 2DD0     		beq	.L33
 244:../../Drivers/STM32H7xx_HAL_Driver/Src/stm32h7xx_hal_dma_ex.c ****     {
 738              		.loc 1 244 8 discriminator 16 view .LVU226
 739 008a 0CF1180C 		add	ip, ip, #24
 740 008e 6045     		cmp	r0, ip
 741 0090 29D0     		beq	.L33
 244:../../Drivers/STM32H7xx_HAL_Driver/Src/stm32h7xx_hal_dma_ex.c ****     {
 742              		.loc 1 244 8 discriminator 18 view .LVU227
 743 0092 0CF1180C 		add	ip, ip, #24
 744 0096 6045     		cmp	r0, ip
 745 0098 25D0     		beq	.L33
 244:../../Drivers/STM32H7xx_HAL_Driver/Src/stm32h7xx_hal_dma_ex.c ****     {
 746              		.loc 1 244 8 discriminator 20 view .LVU228
 747 009a 0CF1180C 		add	ip, ip, #24
 748 009e 6045     		cmp	r0, ip
 749 00a0 21D0     		beq	.L33
 244:../../Drivers/STM32H7xx_HAL_Driver/Src/stm32h7xx_hal_dma_ex.c ****     {
 750              		.loc 1 244 8 discriminator 22 view .LVU229
 751 00a2 0CF1180C 		add	ip, ip, #24
 752 00a6 6045     		cmp	r0, ip
 753 00a8 1DD0     		beq	.L33
 244:../../Drivers/STM32H7xx_HAL_Driver/Src/stm32h7xx_hal_dma_ex.c ****     {
 754              		.loc 1 244 8 discriminator 24 view .LVU230
 755 00aa 0CF1180C 		add	ip, ip, #24
 756 00ae 6045     		cmp	r0, ip
 757 00b0 19D0     		beq	.L33
 244:../../Drivers/STM32H7xx_HAL_Driver/Src/stm32h7xx_hal_dma_ex.c ****     {
 758              		.loc 1 244 8 discriminator 26 view .LVU231
 759 00b2 0CF1180C 		add	ip, ip, #24
 760 00b6 6045     		cmp	r0, ip
 761 00b8 15D0     		beq	.L33
 244:../../Drivers/STM32H7xx_HAL_Driver/Src/stm32h7xx_hal_dma_ex.c ****     {
ARM GAS  C:\Users\28576\AppData\Local\Temp\cc51Faqy.s 			page 30


 762              		.loc 1 244 8 discriminator 28 view .LVU232
 763 00ba 0CF1180C 		add	ip, ip, #24
 764 00be 6045     		cmp	r0, ip
 765 00c0 11D0     		beq	.L33
 261:../../Drivers/STM32H7xx_HAL_Driver/Src/stm32h7xx_hal_dma_ex.c **** 
 766              		.loc 1 261 7 is_stmt 1 view .LVU233
 261:../../Drivers/STM32H7xx_HAL_Driver/Src/stm32h7xx_hal_dma_ex.c **** 
 767              		.loc 1 261 49 is_stmt 0 view .LVU234
 768 00c2 D0F800E0 		ldr	lr, [r0]
 261:../../Drivers/STM32H7xx_HAL_Driver/Src/stm32h7xx_hal_dma_ex.c **** 
 769              		.loc 1 261 55 view .LVU235
 770 00c6 48F2200C 		movw	ip, #32800
 771 00ca 4EEA0C0C 		orr	ip, lr, ip
 772 00ce C0F800C0 		str	ip, [r0]
 264:../../Drivers/STM32H7xx_HAL_Driver/Src/stm32h7xx_hal_dma_ex.c **** 
 773              		.loc 1 264 7 is_stmt 1 view .LVU236
 264:../../Drivers/STM32H7xx_HAL_Driver/Src/stm32h7xx_hal_dma_ex.c **** 
 774              		.loc 1 264 38 is_stmt 0 view .LVU237
 775 00d2 2068     		ldr	r0, [r4]
 264:../../Drivers/STM32H7xx_HAL_Driver/Src/stm32h7xx_hal_dma_ex.c **** 
 776              		.loc 1 264 57 view .LVU238
 777 00d4 0361     		str	r3, [r0, #16]
 267:../../Drivers/STM32H7xx_HAL_Driver/Src/stm32h7xx_hal_dma_ex.c **** 
 778              		.loc 1 267 7 is_stmt 1 view .LVU239
 779              	.LVL35:
 270:../../Drivers/STM32H7xx_HAL_Driver/Src/stm32h7xx_hal_dma_ex.c ****     }
 780              		.loc 1 270 7 view .LVU240
 270:../../Drivers/STM32H7xx_HAL_Driver/Src/stm32h7xx_hal_dma_ex.c ****     }
 781              		.loc 1 270 51 is_stmt 0 view .LVU241
 782 00d6 E36D     		ldr	r3, [r4, #92]
 783              	.LVL36:
 270:../../Drivers/STM32H7xx_HAL_Driver/Src/stm32h7xx_hal_dma_ex.c ****     }
 784              		.loc 1 270 65 view .LVU242
 785 00d8 03F01F00 		and	r0, r3, #31
 786              	.LVL37:
 270:../../Drivers/STM32H7xx_HAL_Driver/Src/stm32h7xx_hal_dma_ex.c ****     }
 787              		.loc 1 270 43 view .LVU243
 788 00dc 0123     		movs	r3, #1
 789 00de 8340     		lsls	r3, r3, r0
 270:../../Drivers/STM32H7xx_HAL_Driver/Src/stm32h7xx_hal_dma_ex.c ****     }
 790              		.loc 1 270 25 view .LVU244
 791 00e0 A06D     		ldr	r0, [r4, #88]
 792 00e2 4360     		str	r3, [r0, #4]
 793              	.LVL38:
 270:../../Drivers/STM32H7xx_HAL_Driver/Src/stm32h7xx_hal_dma_ex.c ****     }
 794              		.loc 1 270 25 view .LVU245
 795 00e4 0EE0     		b	.L34
 796              	.LVL39:
 797              	.L33:
 247:../../Drivers/STM32H7xx_HAL_Driver/Src/stm32h7xx_hal_dma_ex.c **** 
 798              		.loc 1 247 7 is_stmt 1 view .LVU246
 247:../../Drivers/STM32H7xx_HAL_Driver/Src/stm32h7xx_hal_dma_ex.c **** 
 799              		.loc 1 247 47 is_stmt 0 view .LVU247
 800 00e6 D0F800C0 		ldr	ip, [r0]
 247:../../Drivers/STM32H7xx_HAL_Driver/Src/stm32h7xx_hal_dma_ex.c **** 
 801              		.loc 1 247 52 view .LVU248
 802 00ea 4CF4802C 		orr	ip, ip, #262144
ARM GAS  C:\Users\28576\AppData\Local\Temp\cc51Faqy.s 			page 31


 803 00ee C0F800C0 		str	ip, [r0]
 250:../../Drivers/STM32H7xx_HAL_Driver/Src/stm32h7xx_hal_dma_ex.c **** 
 804              		.loc 1 250 7 is_stmt 1 view .LVU249
 250:../../Drivers/STM32H7xx_HAL_Driver/Src/stm32h7xx_hal_dma_ex.c **** 
 805              		.loc 1 250 36 is_stmt 0 view .LVU250
 806 00f2 2068     		ldr	r0, [r4]
 250:../../Drivers/STM32H7xx_HAL_Driver/Src/stm32h7xx_hal_dma_ex.c **** 
 807              		.loc 1 250 54 view .LVU251
 808 00f4 0361     		str	r3, [r0, #16]
 253:../../Drivers/STM32H7xx_HAL_Driver/Src/stm32h7xx_hal_dma_ex.c **** 
 809              		.loc 1 253 7 is_stmt 1 view .LVU252
 810              	.LVL40:
 256:../../Drivers/STM32H7xx_HAL_Driver/Src/stm32h7xx_hal_dma_ex.c ****     }
 811              		.loc 1 256 7 view .LVU253
 256:../../Drivers/STM32H7xx_HAL_Driver/Src/stm32h7xx_hal_dma_ex.c ****     }
 812              		.loc 1 256 42 is_stmt 0 view .LVU254
 813 00f6 E36D     		ldr	r3, [r4, #92]
 814              	.LVL41:
 256:../../Drivers/STM32H7xx_HAL_Driver/Src/stm32h7xx_hal_dma_ex.c ****     }
 815              		.loc 1 256 56 view .LVU255
 816 00f8 03F01F00 		and	r0, r3, #31
 817              	.LVL42:
 256:../../Drivers/STM32H7xx_HAL_Driver/Src/stm32h7xx_hal_dma_ex.c ****     }
 818              		.loc 1 256 34 view .LVU256
 819 00fc 3F23     		movs	r3, #63
 820 00fe 8340     		lsls	r3, r3, r0
 256:../../Drivers/STM32H7xx_HAL_Driver/Src/stm32h7xx_hal_dma_ex.c ****     }
 821              		.loc 1 256 25 view .LVU257
 822 0100 A06D     		ldr	r0, [r4, #88]
 823 0102 8360     		str	r3, [r0, #8]
 824              	.LVL43:
 825              	.L34:
 274:../../Drivers/STM32H7xx_HAL_Driver/Src/stm32h7xx_hal_dma_ex.c **** 
 826              		.loc 1 274 5 is_stmt 1 view .LVU258
 827 0104 029B     		ldr	r3, [sp, #8]
 828 0106 2046     		mov	r0, r4
 829 0108 FFF7FEFF 		bl	DMA_MultiBufferSetConfig
 830              	.LVL44:
 276:../../Drivers/STM32H7xx_HAL_Driver/Src/stm32h7xx_hal_dma_ex.c ****     {
 831              		.loc 1 276 5 view .LVU259
 276:../../Drivers/STM32H7xx_HAL_Driver/Src/stm32h7xx_hal_dma_ex.c ****     {
 832              		.loc 1 276 8 is_stmt 0 view .LVU260
 833 010c 2368     		ldr	r3, [r4]
 834 010e 4949     		ldr	r1, .L54
 835 0110 494A     		ldr	r2, .L54+4
 836 0112 9342     		cmp	r3, r2
 837 0114 18BF     		it	ne
 838 0116 8B42     		cmpne	r3, r1
 839 0118 42D0     		beq	.L35
 276:../../Drivers/STM32H7xx_HAL_Driver/Src/stm32h7xx_hal_dma_ex.c ****     {
 840              		.loc 1 276 8 discriminator 2 view .LVU261
 841 011a 1832     		adds	r2, r2, #24
 842 011c 9342     		cmp	r3, r2
 843 011e 3FD0     		beq	.L35
 276:../../Drivers/STM32H7xx_HAL_Driver/Src/stm32h7xx_hal_dma_ex.c ****     {
 844              		.loc 1 276 8 discriminator 4 view .LVU262
 845 0120 1832     		adds	r2, r2, #24
ARM GAS  C:\Users\28576\AppData\Local\Temp\cc51Faqy.s 			page 32


 846 0122 9342     		cmp	r3, r2
 847 0124 3CD0     		beq	.L35
 276:../../Drivers/STM32H7xx_HAL_Driver/Src/stm32h7xx_hal_dma_ex.c ****     {
 848              		.loc 1 276 8 discriminator 6 view .LVU263
 849 0126 1832     		adds	r2, r2, #24
 850 0128 9342     		cmp	r3, r2
 851 012a 39D0     		beq	.L35
 276:../../Drivers/STM32H7xx_HAL_Driver/Src/stm32h7xx_hal_dma_ex.c ****     {
 852              		.loc 1 276 8 discriminator 8 view .LVU264
 853 012c 1832     		adds	r2, r2, #24
 854 012e 9342     		cmp	r3, r2
 855 0130 36D0     		beq	.L35
 276:../../Drivers/STM32H7xx_HAL_Driver/Src/stm32h7xx_hal_dma_ex.c ****     {
 856              		.loc 1 276 8 discriminator 10 view .LVU265
 857 0132 1832     		adds	r2, r2, #24
 858 0134 9342     		cmp	r3, r2
 859 0136 33D0     		beq	.L35
 276:../../Drivers/STM32H7xx_HAL_Driver/Src/stm32h7xx_hal_dma_ex.c ****     {
 860              		.loc 1 276 8 discriminator 12 view .LVU266
 861 0138 1832     		adds	r2, r2, #24
 862 013a 9342     		cmp	r3, r2
 863 013c 30D0     		beq	.L35
 276:../../Drivers/STM32H7xx_HAL_Driver/Src/stm32h7xx_hal_dma_ex.c ****     {
 864              		.loc 1 276 8 discriminator 14 view .LVU267
 865 013e 02F55672 		add	r2, r2, #856
 866 0142 9342     		cmp	r3, r2
 867 0144 2CD0     		beq	.L35
 276:../../Drivers/STM32H7xx_HAL_Driver/Src/stm32h7xx_hal_dma_ex.c ****     {
 868              		.loc 1 276 8 discriminator 16 view .LVU268
 869 0146 1832     		adds	r2, r2, #24
 870 0148 9342     		cmp	r3, r2
 871 014a 29D0     		beq	.L35
 276:../../Drivers/STM32H7xx_HAL_Driver/Src/stm32h7xx_hal_dma_ex.c ****     {
 872              		.loc 1 276 8 discriminator 18 view .LVU269
 873 014c 1832     		adds	r2, r2, #24
 874 014e 9342     		cmp	r3, r2
 875 0150 26D0     		beq	.L35
 276:../../Drivers/STM32H7xx_HAL_Driver/Src/stm32h7xx_hal_dma_ex.c ****     {
 876              		.loc 1 276 8 discriminator 20 view .LVU270
 877 0152 1832     		adds	r2, r2, #24
 878 0154 9342     		cmp	r3, r2
 879 0156 23D0     		beq	.L35
 276:../../Drivers/STM32H7xx_HAL_Driver/Src/stm32h7xx_hal_dma_ex.c ****     {
 880              		.loc 1 276 8 discriminator 22 view .LVU271
 881 0158 1832     		adds	r2, r2, #24
 882 015a 9342     		cmp	r3, r2
 883 015c 20D0     		beq	.L35
 276:../../Drivers/STM32H7xx_HAL_Driver/Src/stm32h7xx_hal_dma_ex.c ****     {
 884              		.loc 1 276 8 discriminator 24 view .LVU272
 885 015e 1832     		adds	r2, r2, #24
 886 0160 9342     		cmp	r3, r2
 887 0162 1DD0     		beq	.L35
 276:../../Drivers/STM32H7xx_HAL_Driver/Src/stm32h7xx_hal_dma_ex.c ****     {
 888              		.loc 1 276 8 discriminator 26 view .LVU273
 889 0164 1832     		adds	r2, r2, #24
 890 0166 9342     		cmp	r3, r2
 891 0168 1AD0     		beq	.L35
ARM GAS  C:\Users\28576\AppData\Local\Temp\cc51Faqy.s 			page 33


 276:../../Drivers/STM32H7xx_HAL_Driver/Src/stm32h7xx_hal_dma_ex.c ****     {
 892              		.loc 1 276 8 discriminator 28 view .LVU274
 893 016a 1832     		adds	r2, r2, #24
 894 016c 9342     		cmp	r3, r2
 895 016e 17D0     		beq	.L35
 276:../../Drivers/STM32H7xx_HAL_Driver/Src/stm32h7xx_hal_dma_ex.c ****     {
 896              		.loc 1 276 8 discriminator 30 view .LVU275
 897 0170 324A     		ldr	r2, .L54+8
 898 0172 9342     		cmp	r3, r2
 899 0174 14D0     		beq	.L35
 276:../../Drivers/STM32H7xx_HAL_Driver/Src/stm32h7xx_hal_dma_ex.c ****     {
 900              		.loc 1 276 8 discriminator 32 view .LVU276
 901 0176 1432     		adds	r2, r2, #20
 902 0178 9342     		cmp	r3, r2
 903 017a 11D0     		beq	.L35
 276:../../Drivers/STM32H7xx_HAL_Driver/Src/stm32h7xx_hal_dma_ex.c ****     {
 904              		.loc 1 276 8 discriminator 34 view .LVU277
 905 017c 1432     		adds	r2, r2, #20
 906 017e 9342     		cmp	r3, r2
 907 0180 0ED0     		beq	.L35
 276:../../Drivers/STM32H7xx_HAL_Driver/Src/stm32h7xx_hal_dma_ex.c ****     {
 908              		.loc 1 276 8 discriminator 36 view .LVU278
 909 0182 1432     		adds	r2, r2, #20
 910 0184 9342     		cmp	r3, r2
 911 0186 0BD0     		beq	.L35
 276:../../Drivers/STM32H7xx_HAL_Driver/Src/stm32h7xx_hal_dma_ex.c ****     {
 912              		.loc 1 276 8 discriminator 38 view .LVU279
 913 0188 1432     		adds	r2, r2, #20
 914 018a 9342     		cmp	r3, r2
 915 018c 08D0     		beq	.L35
 276:../../Drivers/STM32H7xx_HAL_Driver/Src/stm32h7xx_hal_dma_ex.c ****     {
 916              		.loc 1 276 8 discriminator 40 view .LVU280
 917 018e 1432     		adds	r2, r2, #20
 918 0190 9342     		cmp	r3, r2
 919 0192 05D0     		beq	.L35
 276:../../Drivers/STM32H7xx_HAL_Driver/Src/stm32h7xx_hal_dma_ex.c ****     {
 920              		.loc 1 276 8 discriminator 42 view .LVU281
 921 0194 1432     		adds	r2, r2, #20
 922 0196 9342     		cmp	r3, r2
 923 0198 02D0     		beq	.L35
 276:../../Drivers/STM32H7xx_HAL_Driver/Src/stm32h7xx_hal_dma_ex.c ****     {
 924              		.loc 1 276 8 discriminator 44 view .LVU282
 925 019a 1432     		adds	r2, r2, #20
 926 019c 9342     		cmp	r3, r2
 927 019e 07D1     		bne	.L36
 928              	.L35:
 279:../../Drivers/STM32H7xx_HAL_Driver/Src/stm32h7xx_hal_dma_ex.c **** 
 929              		.loc 1 279 7 is_stmt 1 view .LVU283
 279:../../Drivers/STM32H7xx_HAL_Driver/Src/stm32h7xx_hal_dma_ex.c **** 
 930              		.loc 1 279 11 is_stmt 0 view .LVU284
 931 01a0 636E     		ldr	r3, [r4, #100]
 279:../../Drivers/STM32H7xx_HAL_Driver/Src/stm32h7xx_hal_dma_ex.c **** 
 932              		.loc 1 279 44 view .LVU285
 933 01a2 A26E     		ldr	r2, [r4, #104]
 279:../../Drivers/STM32H7xx_HAL_Driver/Src/stm32h7xx_hal_dma_ex.c **** 
 934              		.loc 1 279 38 view .LVU286
 935 01a4 5A60     		str	r2, [r3, #4]
ARM GAS  C:\Users\28576\AppData\Local\Temp\cc51Faqy.s 			page 34


 281:../../Drivers/STM32H7xx_HAL_Driver/Src/stm32h7xx_hal_dma_ex.c ****       {
 936              		.loc 1 281 7 is_stmt 1 view .LVU287
 281:../../Drivers/STM32H7xx_HAL_Driver/Src/stm32h7xx_hal_dma_ex.c ****       {
 937              		.loc 1 281 14 is_stmt 0 view .LVU288
 938 01a6 E36E     		ldr	r3, [r4, #108]
 281:../../Drivers/STM32H7xx_HAL_Driver/Src/stm32h7xx_hal_dma_ex.c ****       {
 939              		.loc 1 281 9 view .LVU289
 940 01a8 13B1     		cbz	r3, .L36
 284:../../Drivers/STM32H7xx_HAL_Driver/Src/stm32h7xx_hal_dma_ex.c ****       }
 941              		.loc 1 284 9 is_stmt 1 view .LVU290
 284:../../Drivers/STM32H7xx_HAL_Driver/Src/stm32h7xx_hal_dma_ex.c ****       }
 942              		.loc 1 284 13 is_stmt 0 view .LVU291
 943 01aa 236F     		ldr	r3, [r4, #112]
 284:../../Drivers/STM32H7xx_HAL_Driver/Src/stm32h7xx_hal_dma_ex.c ****       }
 944              		.loc 1 284 51 view .LVU292
 945 01ac 626F     		ldr	r2, [r4, #116]
 284:../../Drivers/STM32H7xx_HAL_Driver/Src/stm32h7xx_hal_dma_ex.c ****       }
 946              		.loc 1 284 45 view .LVU293
 947 01ae 5A60     		str	r2, [r3, #4]
 948              	.L36:
 288:../../Drivers/STM32H7xx_HAL_Driver/Src/stm32h7xx_hal_dma_ex.c ****     {
 949              		.loc 1 288 5 is_stmt 1 view .LVU294
 288:../../Drivers/STM32H7xx_HAL_Driver/Src/stm32h7xx_hal_dma_ex.c ****     {
 950              		.loc 1 288 8 is_stmt 0 view .LVU295
 951 01b0 2368     		ldr	r3, [r4]
 952 01b2 2049     		ldr	r1, .L54
 953 01b4 204A     		ldr	r2, .L54+4
 954 01b6 9342     		cmp	r3, r2
 955 01b8 18BF     		it	ne
 956 01ba 8B42     		cmpne	r3, r1
 957 01bc 40D0     		beq	.L37
 288:../../Drivers/STM32H7xx_HAL_Driver/Src/stm32h7xx_hal_dma_ex.c ****     {
 958              		.loc 1 288 8 discriminator 2 view .LVU296
 959 01be 1832     		adds	r2, r2, #24
 960 01c0 9342     		cmp	r3, r2
 961 01c2 3DD0     		beq	.L37
 288:../../Drivers/STM32H7xx_HAL_Driver/Src/stm32h7xx_hal_dma_ex.c ****     {
 962              		.loc 1 288 8 discriminator 4 view .LVU297
 963 01c4 1832     		adds	r2, r2, #24
 964 01c6 9342     		cmp	r3, r2
 965 01c8 3AD0     		beq	.L37
 288:../../Drivers/STM32H7xx_HAL_Driver/Src/stm32h7xx_hal_dma_ex.c ****     {
 966              		.loc 1 288 8 discriminator 6 view .LVU298
 967 01ca 1832     		adds	r2, r2, #24
 968 01cc 9342     		cmp	r3, r2
 969 01ce 37D0     		beq	.L37
 288:../../Drivers/STM32H7xx_HAL_Driver/Src/stm32h7xx_hal_dma_ex.c ****     {
 970              		.loc 1 288 8 discriminator 8 view .LVU299
 971 01d0 1832     		adds	r2, r2, #24
 972 01d2 9342     		cmp	r3, r2
 973 01d4 34D0     		beq	.L37
 288:../../Drivers/STM32H7xx_HAL_Driver/Src/stm32h7xx_hal_dma_ex.c ****     {
 974              		.loc 1 288 8 discriminator 10 view .LVU300
 975 01d6 1832     		adds	r2, r2, #24
 976 01d8 9342     		cmp	r3, r2
 977 01da 31D0     		beq	.L37
 288:../../Drivers/STM32H7xx_HAL_Driver/Src/stm32h7xx_hal_dma_ex.c ****     {
ARM GAS  C:\Users\28576\AppData\Local\Temp\cc51Faqy.s 			page 35


 978              		.loc 1 288 8 discriminator 12 view .LVU301
 979 01dc 1832     		adds	r2, r2, #24
 980 01de 9342     		cmp	r3, r2
 981 01e0 2ED0     		beq	.L37
 288:../../Drivers/STM32H7xx_HAL_Driver/Src/stm32h7xx_hal_dma_ex.c ****     {
 982              		.loc 1 288 8 discriminator 14 view .LVU302
 983 01e2 02F55672 		add	r2, r2, #856
 984 01e6 9342     		cmp	r3, r2
 985 01e8 2AD0     		beq	.L37
 288:../../Drivers/STM32H7xx_HAL_Driver/Src/stm32h7xx_hal_dma_ex.c ****     {
 986              		.loc 1 288 8 discriminator 16 view .LVU303
 987 01ea 1832     		adds	r2, r2, #24
 988 01ec 9342     		cmp	r3, r2
 989 01ee 27D0     		beq	.L37
 288:../../Drivers/STM32H7xx_HAL_Driver/Src/stm32h7xx_hal_dma_ex.c ****     {
 990              		.loc 1 288 8 discriminator 18 view .LVU304
 991 01f0 1832     		adds	r2, r2, #24
 992 01f2 9342     		cmp	r3, r2
 993 01f4 24D0     		beq	.L37
 288:../../Drivers/STM32H7xx_HAL_Driver/Src/stm32h7xx_hal_dma_ex.c ****     {
 994              		.loc 1 288 8 discriminator 20 view .LVU305
 995 01f6 1832     		adds	r2, r2, #24
 996 01f8 9342     		cmp	r3, r2
 997 01fa 21D0     		beq	.L37
 288:../../Drivers/STM32H7xx_HAL_Driver/Src/stm32h7xx_hal_dma_ex.c ****     {
 998              		.loc 1 288 8 discriminator 22 view .LVU306
 999 01fc 1832     		adds	r2, r2, #24
 1000 01fe 9342     		cmp	r3, r2
 1001 0200 1ED0     		beq	.L37
 288:../../Drivers/STM32H7xx_HAL_Driver/Src/stm32h7xx_hal_dma_ex.c ****     {
 1002              		.loc 1 288 8 discriminator 24 view .LVU307
 1003 0202 1832     		adds	r2, r2, #24
 1004 0204 9342     		cmp	r3, r2
 1005 0206 1BD0     		beq	.L37
 288:../../Drivers/STM32H7xx_HAL_Driver/Src/stm32h7xx_hal_dma_ex.c ****     {
 1006              		.loc 1 288 8 discriminator 26 view .LVU308
 1007 0208 1832     		adds	r2, r2, #24
 1008 020a 9342     		cmp	r3, r2
 1009 020c 18D0     		beq	.L37
 288:../../Drivers/STM32H7xx_HAL_Driver/Src/stm32h7xx_hal_dma_ex.c ****     {
 1010              		.loc 1 288 8 discriminator 28 view .LVU309
 1011 020e 1832     		adds	r2, r2, #24
 1012 0210 9342     		cmp	r3, r2
 1013 0212 15D0     		beq	.L37
 303:../../Drivers/STM32H7xx_HAL_Driver/Src/stm32h7xx_hal_dma_ex.c **** 
 1014              		.loc 1 303 7 is_stmt 1 view .LVU310
 1015 0214 1A68     		ldr	r2, [r3]
 1016 0216 22F00E02 		bic	r2, r2, #14
 1017 021a 42F00A02 		orr	r2, r2, #10
 1018 021e 1A60     		str	r2, [r3]
 305:../../Drivers/STM32H7xx_HAL_Driver/Src/stm32h7xx_hal_dma_ex.c ****       {
 1019              		.loc 1 305 7 view .LVU311
 305:../../Drivers/STM32H7xx_HAL_Driver/Src/stm32h7xx_hal_dma_ex.c ****       {
 1020              		.loc 1 305 15 is_stmt 0 view .LVU312
 1021 0220 236C     		ldr	r3, [r4, #64]
 305:../../Drivers/STM32H7xx_HAL_Driver/Src/stm32h7xx_hal_dma_ex.c ****       {
 1022              		.loc 1 305 9 view .LVU313
ARM GAS  C:\Users\28576\AppData\Local\Temp\cc51Faqy.s 			page 36


 1023 0222 002B     		cmp	r3, #0
 1024 0224 00F0B680 		beq	.L52
 1025              	.L38:
 308:../../Drivers/STM32H7xx_HAL_Driver/Src/stm32h7xx_hal_dma_ex.c ****       }
 1026              		.loc 1 308 9 is_stmt 1 view .LVU314
 308:../../Drivers/STM32H7xx_HAL_Driver/Src/stm32h7xx_hal_dma_ex.c ****       }
 1027              		.loc 1 308 40 is_stmt 0 view .LVU315
 1028 0228 2268     		ldr	r2, [r4]
 308:../../Drivers/STM32H7xx_HAL_Driver/Src/stm32h7xx_hal_dma_ex.c ****       }
 1029              		.loc 1 308 51 view .LVU316
 1030 022a 1368     		ldr	r3, [r2]
 308:../../Drivers/STM32H7xx_HAL_Driver/Src/stm32h7xx_hal_dma_ex.c ****       }
 1031              		.loc 1 308 58 view .LVU317
 1032 022c 43F00403 		orr	r3, r3, #4
 1033 0230 1360     		str	r3, [r2]
 1034 0232 19E0     		b	.L41
 1035              	.L55:
 1036              		.align	2
 1037              	.L54:
 1038 0234 10000240 		.word	1073872912
 1039 0238 28000240 		.word	1073872936
 1040 023c 08540258 		.word	1476547592
 1041              	.L37:
 291:../../Drivers/STM32H7xx_HAL_Driver/Src/stm32h7xx_hal_dma_ex.c ****       ((DMA_Stream_TypeDef   *)hdma->Instance)->FCR |= DMA_IT_FE;
 1042              		.loc 1 291 7 is_stmt 1 view .LVU318
 1043 0240 1A68     		ldr	r2, [r3]
 1044 0242 22F01E02 		bic	r2, r2, #30
 1045 0246 42F01602 		orr	r2, r2, #22
 1046 024a 1A60     		str	r2, [r3]
 292:../../Drivers/STM32H7xx_HAL_Driver/Src/stm32h7xx_hal_dma_ex.c **** 
 1047              		.loc 1 292 7 view .LVU319
 292:../../Drivers/STM32H7xx_HAL_Driver/Src/stm32h7xx_hal_dma_ex.c **** 
 1048              		.loc 1 292 36 is_stmt 0 view .LVU320
 1049 024c 2268     		ldr	r2, [r4]
 292:../../Drivers/STM32H7xx_HAL_Driver/Src/stm32h7xx_hal_dma_ex.c **** 
 1050              		.loc 1 292 47 view .LVU321
 1051 024e 5369     		ldr	r3, [r2, #20]
 292:../../Drivers/STM32H7xx_HAL_Driver/Src/stm32h7xx_hal_dma_ex.c **** 
 1052              		.loc 1 292 53 view .LVU322
 1053 0250 43F08003 		orr	r3, r3, #128
 1054 0254 5361     		str	r3, [r2, #20]
 294:../../Drivers/STM32H7xx_HAL_Driver/Src/stm32h7xx_hal_dma_ex.c ****       {
 1055              		.loc 1 294 7 is_stmt 1 view .LVU323
 294:../../Drivers/STM32H7xx_HAL_Driver/Src/stm32h7xx_hal_dma_ex.c ****       {
 1056              		.loc 1 294 15 is_stmt 0 view .LVU324
 1057 0256 236C     		ldr	r3, [r4, #64]
 294:../../Drivers/STM32H7xx_HAL_Driver/Src/stm32h7xx_hal_dma_ex.c ****       {
 1058              		.loc 1 294 9 view .LVU325
 1059 0258 002B     		cmp	r3, #0
 1060 025a 00F09680 		beq	.L53
 1061              	.L40:
 297:../../Drivers/STM32H7xx_HAL_Driver/Src/stm32h7xx_hal_dma_ex.c ****       }
 1062              		.loc 1 297 9 is_stmt 1 view .LVU326
 297:../../Drivers/STM32H7xx_HAL_Driver/Src/stm32h7xx_hal_dma_ex.c ****       }
 1063              		.loc 1 297 38 is_stmt 0 view .LVU327
 1064 025e 2268     		ldr	r2, [r4]
 297:../../Drivers/STM32H7xx_HAL_Driver/Src/stm32h7xx_hal_dma_ex.c ****       }
ARM GAS  C:\Users\28576\AppData\Local\Temp\cc51Faqy.s 			page 37


 1065              		.loc 1 297 49 view .LVU328
 1066 0260 1368     		ldr	r3, [r2]
 297:../../Drivers/STM32H7xx_HAL_Driver/Src/stm32h7xx_hal_dma_ex.c ****       }
 1067              		.loc 1 297 55 view .LVU329
 1068 0262 43F00803 		orr	r3, r3, #8
 1069 0266 1360     		str	r3, [r2]
 1070              	.L41:
 312:../../Drivers/STM32H7xx_HAL_Driver/Src/stm32h7xx_hal_dma_ex.c ****     {
 1071              		.loc 1 312 5 is_stmt 1 view .LVU330
 312:../../Drivers/STM32H7xx_HAL_Driver/Src/stm32h7xx_hal_dma_ex.c ****     {
 1072              		.loc 1 312 8 is_stmt 0 view .LVU331
 1073 0268 2368     		ldr	r3, [r4]
 1074 026a 5149     		ldr	r1, .L56
 1075 026c 514A     		ldr	r2, .L56+4
 1076 026e 9342     		cmp	r3, r2
 1077 0270 18BF     		it	ne
 1078 0272 8B42     		cmpne	r3, r1
 1079 0274 42D0     		beq	.L42
 312:../../Drivers/STM32H7xx_HAL_Driver/Src/stm32h7xx_hal_dma_ex.c ****     {
 1080              		.loc 1 312 8 discriminator 2 view .LVU332
 1081 0276 1832     		adds	r2, r2, #24
 1082 0278 9342     		cmp	r3, r2
 1083 027a 3FD0     		beq	.L42
 312:../../Drivers/STM32H7xx_HAL_Driver/Src/stm32h7xx_hal_dma_ex.c ****     {
 1084              		.loc 1 312 8 discriminator 4 view .LVU333
 1085 027c 1832     		adds	r2, r2, #24
 1086 027e 9342     		cmp	r3, r2
 1087 0280 3CD0     		beq	.L42
 312:../../Drivers/STM32H7xx_HAL_Driver/Src/stm32h7xx_hal_dma_ex.c ****     {
 1088              		.loc 1 312 8 discriminator 6 view .LVU334
 1089 0282 1832     		adds	r2, r2, #24
 1090 0284 9342     		cmp	r3, r2
 1091 0286 39D0     		beq	.L42
 312:../../Drivers/STM32H7xx_HAL_Driver/Src/stm32h7xx_hal_dma_ex.c ****     {
 1092              		.loc 1 312 8 discriminator 8 view .LVU335
 1093 0288 1832     		adds	r2, r2, #24
 1094 028a 9342     		cmp	r3, r2
 1095 028c 36D0     		beq	.L42
 312:../../Drivers/STM32H7xx_HAL_Driver/Src/stm32h7xx_hal_dma_ex.c ****     {
 1096              		.loc 1 312 8 discriminator 10 view .LVU336
 1097 028e 1832     		adds	r2, r2, #24
 1098 0290 9342     		cmp	r3, r2
 1099 0292 33D0     		beq	.L42
 312:../../Drivers/STM32H7xx_HAL_Driver/Src/stm32h7xx_hal_dma_ex.c ****     {
 1100              		.loc 1 312 8 discriminator 12 view .LVU337
 1101 0294 1832     		adds	r2, r2, #24
 1102 0296 9342     		cmp	r3, r2
 1103 0298 30D0     		beq	.L42
 312:../../Drivers/STM32H7xx_HAL_Driver/Src/stm32h7xx_hal_dma_ex.c ****     {
 1104              		.loc 1 312 8 discriminator 14 view .LVU338
 1105 029a 02F55672 		add	r2, r2, #856
 1106 029e 9342     		cmp	r3, r2
 1107 02a0 2CD0     		beq	.L42
 312:../../Drivers/STM32H7xx_HAL_Driver/Src/stm32h7xx_hal_dma_ex.c ****     {
 1108              		.loc 1 312 8 discriminator 16 view .LVU339
 1109 02a2 1832     		adds	r2, r2, #24
 1110 02a4 9342     		cmp	r3, r2
ARM GAS  C:\Users\28576\AppData\Local\Temp\cc51Faqy.s 			page 38


 1111 02a6 29D0     		beq	.L42
 312:../../Drivers/STM32H7xx_HAL_Driver/Src/stm32h7xx_hal_dma_ex.c ****     {
 1112              		.loc 1 312 8 discriminator 18 view .LVU340
 1113 02a8 1832     		adds	r2, r2, #24
 1114 02aa 9342     		cmp	r3, r2
 1115 02ac 26D0     		beq	.L42
 312:../../Drivers/STM32H7xx_HAL_Driver/Src/stm32h7xx_hal_dma_ex.c ****     {
 1116              		.loc 1 312 8 discriminator 20 view .LVU341
 1117 02ae 1832     		adds	r2, r2, #24
 1118 02b0 9342     		cmp	r3, r2
 1119 02b2 23D0     		beq	.L42
 312:../../Drivers/STM32H7xx_HAL_Driver/Src/stm32h7xx_hal_dma_ex.c ****     {
 1120              		.loc 1 312 8 discriminator 22 view .LVU342
 1121 02b4 1832     		adds	r2, r2, #24
 1122 02b6 9342     		cmp	r3, r2
 1123 02b8 20D0     		beq	.L42
 312:../../Drivers/STM32H7xx_HAL_Driver/Src/stm32h7xx_hal_dma_ex.c ****     {
 1124              		.loc 1 312 8 discriminator 24 view .LVU343
 1125 02ba 1832     		adds	r2, r2, #24
 1126 02bc 9342     		cmp	r3, r2
 1127 02be 1DD0     		beq	.L42
 312:../../Drivers/STM32H7xx_HAL_Driver/Src/stm32h7xx_hal_dma_ex.c ****     {
 1128              		.loc 1 312 8 discriminator 26 view .LVU344
 1129 02c0 1832     		adds	r2, r2, #24
 1130 02c2 9342     		cmp	r3, r2
 1131 02c4 1AD0     		beq	.L42
 312:../../Drivers/STM32H7xx_HAL_Driver/Src/stm32h7xx_hal_dma_ex.c ****     {
 1132              		.loc 1 312 8 discriminator 28 view .LVU345
 1133 02c6 1832     		adds	r2, r2, #24
 1134 02c8 9342     		cmp	r3, r2
 1135 02ca 17D0     		beq	.L42
 312:../../Drivers/STM32H7xx_HAL_Driver/Src/stm32h7xx_hal_dma_ex.c ****     {
 1136              		.loc 1 312 8 discriminator 30 view .LVU346
 1137 02cc 3A4A     		ldr	r2, .L56+8
 1138 02ce 9342     		cmp	r3, r2
 1139 02d0 14D0     		beq	.L42
 312:../../Drivers/STM32H7xx_HAL_Driver/Src/stm32h7xx_hal_dma_ex.c ****     {
 1140              		.loc 1 312 8 discriminator 32 view .LVU347
 1141 02d2 1432     		adds	r2, r2, #20
 1142 02d4 9342     		cmp	r3, r2
 1143 02d6 11D0     		beq	.L42
 312:../../Drivers/STM32H7xx_HAL_Driver/Src/stm32h7xx_hal_dma_ex.c ****     {
 1144              		.loc 1 312 8 discriminator 34 view .LVU348
 1145 02d8 1432     		adds	r2, r2, #20
 1146 02da 9342     		cmp	r3, r2
 1147 02dc 0ED0     		beq	.L42
 312:../../Drivers/STM32H7xx_HAL_Driver/Src/stm32h7xx_hal_dma_ex.c ****     {
 1148              		.loc 1 312 8 discriminator 36 view .LVU349
 1149 02de 1432     		adds	r2, r2, #20
 1150 02e0 9342     		cmp	r3, r2
 1151 02e2 0BD0     		beq	.L42
 312:../../Drivers/STM32H7xx_HAL_Driver/Src/stm32h7xx_hal_dma_ex.c ****     {
 1152              		.loc 1 312 8 discriminator 38 view .LVU350
 1153 02e4 1432     		adds	r2, r2, #20
 1154 02e6 9342     		cmp	r3, r2
 1155 02e8 08D0     		beq	.L42
 312:../../Drivers/STM32H7xx_HAL_Driver/Src/stm32h7xx_hal_dma_ex.c ****     {
ARM GAS  C:\Users\28576\AppData\Local\Temp\cc51Faqy.s 			page 39


 1156              		.loc 1 312 8 discriminator 40 view .LVU351
 1157 02ea 1432     		adds	r2, r2, #20
 1158 02ec 9342     		cmp	r3, r2
 1159 02ee 05D0     		beq	.L42
 312:../../Drivers/STM32H7xx_HAL_Driver/Src/stm32h7xx_hal_dma_ex.c ****     {
 1160              		.loc 1 312 8 discriminator 42 view .LVU352
 1161 02f0 1432     		adds	r2, r2, #20
 1162 02f2 9342     		cmp	r3, r2
 1163 02f4 02D0     		beq	.L42
 312:../../Drivers/STM32H7xx_HAL_Driver/Src/stm32h7xx_hal_dma_ex.c ****     {
 1164              		.loc 1 312 8 discriminator 44 view .LVU353
 1165 02f6 1432     		adds	r2, r2, #20
 1166 02f8 9342     		cmp	r3, r2
 1167 02fa 0ED1     		bne	.L43
 1168              	.L42:
 315:../../Drivers/STM32H7xx_HAL_Driver/Src/stm32h7xx_hal_dma_ex.c ****       {
 1169              		.loc 1 315 7 is_stmt 1 view .LVU354
 315:../../Drivers/STM32H7xx_HAL_Driver/Src/stm32h7xx_hal_dma_ex.c ****       {
 1170              		.loc 1 315 15 is_stmt 0 view .LVU355
 1171 02fc 236E     		ldr	r3, [r4, #96]
 315:../../Drivers/STM32H7xx_HAL_Driver/Src/stm32h7xx_hal_dma_ex.c ****       {
 1172              		.loc 1 315 30 view .LVU356
 1173 02fe 1A68     		ldr	r2, [r3]
 315:../../Drivers/STM32H7xx_HAL_Driver/Src/stm32h7xx_hal_dma_ex.c ****       {
 1174              		.loc 1 315 9 view .LVU357
 1175 0300 12F4803F 		tst	r2, #65536
 1176 0304 03D0     		beq	.L44
 318:../../Drivers/STM32H7xx_HAL_Driver/Src/stm32h7xx_hal_dma_ex.c ****       }
 1177              		.loc 1 318 9 is_stmt 1 view .LVU358
 318:../../Drivers/STM32H7xx_HAL_Driver/Src/stm32h7xx_hal_dma_ex.c ****       }
 1178              		.loc 1 318 28 is_stmt 0 view .LVU359
 1179 0306 1A68     		ldr	r2, [r3]
 318:../../Drivers/STM32H7xx_HAL_Driver/Src/stm32h7xx_hal_dma_ex.c ****       }
 1180              		.loc 1 318 34 view .LVU360
 1181 0308 42F48072 		orr	r2, r2, #256
 1182 030c 1A60     		str	r2, [r3]
 1183              	.L44:
 321:../../Drivers/STM32H7xx_HAL_Driver/Src/stm32h7xx_hal_dma_ex.c ****       {
 1184              		.loc 1 321 7 is_stmt 1 view .LVU361
 321:../../Drivers/STM32H7xx_HAL_Driver/Src/stm32h7xx_hal_dma_ex.c ****       {
 1185              		.loc 1 321 14 is_stmt 0 view .LVU362
 1186 030e E36E     		ldr	r3, [r4, #108]
 321:../../Drivers/STM32H7xx_HAL_Driver/Src/stm32h7xx_hal_dma_ex.c ****       {
 1187              		.loc 1 321 9 view .LVU363
 1188 0310 1BB1     		cbz	r3, .L43
 325:../../Drivers/STM32H7xx_HAL_Driver/Src/stm32h7xx_hal_dma_ex.c ****       }
 1189              		.loc 1 325 9 is_stmt 1 view .LVU364
 325:../../Drivers/STM32H7xx_HAL_Driver/Src/stm32h7xx_hal_dma_ex.c ****       }
 1190              		.loc 1 325 31 is_stmt 0 view .LVU365
 1191 0312 1A68     		ldr	r2, [r3]
 325:../../Drivers/STM32H7xx_HAL_Driver/Src/stm32h7xx_hal_dma_ex.c ****       }
 1192              		.loc 1 325 38 view .LVU366
 1193 0314 42F48072 		orr	r2, r2, #256
 1194 0318 1A60     		str	r2, [r3]
 1195              	.L43:
 330:../../Drivers/STM32H7xx_HAL_Driver/Src/stm32h7xx_hal_dma_ex.c ****   }
 1196              		.loc 1 330 5 is_stmt 1 view .LVU367
ARM GAS  C:\Users\28576\AppData\Local\Temp\cc51Faqy.s 			page 40


 1197 031a 2368     		ldr	r3, [r4]
 1198 031c 2449     		ldr	r1, .L56
 1199 031e 254A     		ldr	r2, .L56+4
 1200 0320 9342     		cmp	r3, r2
 1201 0322 18BF     		it	ne
 1202 0324 8B42     		cmpne	r3, r1
 1203 0326 3AD0     		beq	.L45
 330:../../Drivers/STM32H7xx_HAL_Driver/Src/stm32h7xx_hal_dma_ex.c ****   }
 1204              		.loc 1 330 5 is_stmt 0 discriminator 2 view .LVU368
 1205 0328 1832     		adds	r2, r2, #24
 1206 032a 9342     		cmp	r3, r2
 1207 032c 37D0     		beq	.L45
 330:../../Drivers/STM32H7xx_HAL_Driver/Src/stm32h7xx_hal_dma_ex.c ****   }
 1208              		.loc 1 330 5 discriminator 4 view .LVU369
 1209 032e 1832     		adds	r2, r2, #24
 1210 0330 9342     		cmp	r3, r2
 1211 0332 34D0     		beq	.L45
 330:../../Drivers/STM32H7xx_HAL_Driver/Src/stm32h7xx_hal_dma_ex.c ****   }
 1212              		.loc 1 330 5 discriminator 6 view .LVU370
 1213 0334 1832     		adds	r2, r2, #24
 1214 0336 9342     		cmp	r3, r2
 1215 0338 31D0     		beq	.L45
 330:../../Drivers/STM32H7xx_HAL_Driver/Src/stm32h7xx_hal_dma_ex.c ****   }
 1216              		.loc 1 330 5 discriminator 8 view .LVU371
 1217 033a 1832     		adds	r2, r2, #24
 1218 033c 9342     		cmp	r3, r2
 1219 033e 2ED0     		beq	.L45
 330:../../Drivers/STM32H7xx_HAL_Driver/Src/stm32h7xx_hal_dma_ex.c ****   }
 1220              		.loc 1 330 5 discriminator 10 view .LVU372
 1221 0340 1832     		adds	r2, r2, #24
 1222 0342 9342     		cmp	r3, r2
 1223 0344 2BD0     		beq	.L45
 330:../../Drivers/STM32H7xx_HAL_Driver/Src/stm32h7xx_hal_dma_ex.c ****   }
 1224              		.loc 1 330 5 discriminator 12 view .LVU373
 1225 0346 1832     		adds	r2, r2, #24
 1226 0348 9342     		cmp	r3, r2
 1227 034a 28D0     		beq	.L45
 330:../../Drivers/STM32H7xx_HAL_Driver/Src/stm32h7xx_hal_dma_ex.c ****   }
 1228              		.loc 1 330 5 discriminator 14 view .LVU374
 1229 034c 02F55672 		add	r2, r2, #856
 1230 0350 9342     		cmp	r3, r2
 1231 0352 24D0     		beq	.L45
 330:../../Drivers/STM32H7xx_HAL_Driver/Src/stm32h7xx_hal_dma_ex.c ****   }
 1232              		.loc 1 330 5 discriminator 16 view .LVU375
 1233 0354 1832     		adds	r2, r2, #24
 1234 0356 9342     		cmp	r3, r2
 1235 0358 21D0     		beq	.L45
 330:../../Drivers/STM32H7xx_HAL_Driver/Src/stm32h7xx_hal_dma_ex.c ****   }
 1236              		.loc 1 330 5 discriminator 18 view .LVU376
 1237 035a 1832     		adds	r2, r2, #24
 1238 035c 9342     		cmp	r3, r2
 1239 035e 1ED0     		beq	.L45
 330:../../Drivers/STM32H7xx_HAL_Driver/Src/stm32h7xx_hal_dma_ex.c ****   }
 1240              		.loc 1 330 5 discriminator 20 view .LVU377
 1241 0360 1832     		adds	r2, r2, #24
 1242 0362 9342     		cmp	r3, r2
 1243 0364 1BD0     		beq	.L45
ARM GAS  C:\Users\28576\AppData\Local\Temp\cc51Faqy.s 			page 41


 330:../../Drivers/STM32H7xx_HAL_Driver/Src/stm32h7xx_hal_dma_ex.c ****   }
 1244              		.loc 1 330 5 discriminator 22 view .LVU378
 1245 0366 1832     		adds	r2, r2, #24
 1246 0368 9342     		cmp	r3, r2
 1247 036a 18D0     		beq	.L45
 330:../../Drivers/STM32H7xx_HAL_Driver/Src/stm32h7xx_hal_dma_ex.c ****   }
 1248              		.loc 1 330 5 discriminator 24 view .LVU379
 1249 036c 1832     		adds	r2, r2, #24
 1250 036e 9342     		cmp	r3, r2
 1251 0370 15D0     		beq	.L45
 330:../../Drivers/STM32H7xx_HAL_Driver/Src/stm32h7xx_hal_dma_ex.c ****   }
 1252              		.loc 1 330 5 discriminator 26 view .LVU380
 1253 0372 1832     		adds	r2, r2, #24
 1254 0374 9342     		cmp	r3, r2
 1255 0376 12D0     		beq	.L45
 330:../../Drivers/STM32H7xx_HAL_Driver/Src/stm32h7xx_hal_dma_ex.c ****   }
 1256              		.loc 1 330 5 discriminator 28 view .LVU381
 1257 0378 1832     		adds	r2, r2, #24
 1258 037a 9342     		cmp	r3, r2
 1259 037c 0FD0     		beq	.L45
 330:../../Drivers/STM32H7xx_HAL_Driver/Src/stm32h7xx_hal_dma_ex.c ****   }
 1260              		.loc 1 330 5 discriminator 30 view .LVU382
 1261 037e 1A68     		ldr	r2, [r3]
 1262 0380 42F00102 		orr	r2, r2, #1
 1263 0384 1A60     		str	r2, [r3]
 219:../../Drivers/STM32H7xx_HAL_Driver/Src/stm32h7xx_hal_dma_ex.c ****   __IO uint32_t *ifcRegister_Base; /* DMA Stream Interrupt Clear register */
 1264              		.loc 1 219 21 view .LVU383
 1265 0386 0020     		movs	r0, #0
 1266 0388 4FE6     		b	.L31
 1267              	.L53:
 294:../../Drivers/STM32H7xx_HAL_Driver/Src/stm32h7xx_hal_dma_ex.c ****       {
 1268              		.loc 1 294 55 discriminator 1 view .LVU384
 1269 038a A36C     		ldr	r3, [r4, #72]
 294:../../Drivers/STM32H7xx_HAL_Driver/Src/stm32h7xx_hal_dma_ex.c ****       {
 1270              		.loc 1 294 47 discriminator 1 view .LVU385
 1271 038c 002B     		cmp	r3, #0
 1272 038e 7FF466AF 		bne	.L40
 1273 0392 69E7     		b	.L41
 1274              	.L52:
 305:../../Drivers/STM32H7xx_HAL_Driver/Src/stm32h7xx_hal_dma_ex.c ****       {
 1275              		.loc 1 305 55 discriminator 1 view .LVU386
 1276 0394 A36C     		ldr	r3, [r4, #72]
 305:../../Drivers/STM32H7xx_HAL_Driver/Src/stm32h7xx_hal_dma_ex.c ****       {
 1277              		.loc 1 305 47 discriminator 1 view .LVU387
 1278 0396 002B     		cmp	r3, #0
 1279 0398 7FF446AF 		bne	.L38
 1280 039c 64E7     		b	.L41
 1281              	.L45:
 330:../../Drivers/STM32H7xx_HAL_Driver/Src/stm32h7xx_hal_dma_ex.c ****   }
 1282              		.loc 1 330 5 discriminator 29 view .LVU388
 1283 039e 1A68     		ldr	r2, [r3]
 1284 03a0 42F00102 		orr	r2, r2, #1
 1285 03a4 1A60     		str	r2, [r3]
 219:../../Drivers/STM32H7xx_HAL_Driver/Src/stm32h7xx_hal_dma_ex.c ****   __IO uint32_t *ifcRegister_Base; /* DMA Stream Interrupt Clear register */
 1286              		.loc 1 219 21 view .LVU389
 1287 03a6 0020     		movs	r0, #0
 330:../../Drivers/STM32H7xx_HAL_Driver/Src/stm32h7xx_hal_dma_ex.c ****   }
ARM GAS  C:\Users\28576\AppData\Local\Temp\cc51Faqy.s 			page 42


 1288              		.loc 1 330 5 view .LVU390
 1289 03a8 3FE6     		b	.L31
 1290              	.LVL45:
 1291              	.L47:
 234:../../Drivers/STM32H7xx_HAL_Driver/Src/stm32h7xx_hal_dma_ex.c **** 
 1292              		.loc 1 234 3 discriminator 1 view .LVU391
 1293 03aa 0220     		movs	r0, #2
 1294 03ac 3DE6     		b	.L31
 1295              	.L57:
 1296 03ae 00BF     		.align	2
 1297              	.L56:
 1298 03b0 10000240 		.word	1073872912
 1299 03b4 28000240 		.word	1073872936
 1300 03b8 08540258 		.word	1476547592
 1301              		.cfi_endproc
 1302              	.LFE133:
 1304              		.section	.text.HAL_DMAEx_ChangeMemory,"ax",%progbits
 1305              		.align	1
 1306              		.global	HAL_DMAEx_ChangeMemory
 1307              		.syntax unified
 1308              		.thumb
 1309              		.thumb_func
 1311              	HAL_DMAEx_ChangeMemory:
 1312              	.LVL46:
 1313              	.LFB134:
 358:../../Drivers/STM32H7xx_HAL_Driver/Src/stm32h7xx_hal_dma_ex.c ****   if(IS_DMA_STREAM_INSTANCE(hdma->Instance) != 0U) /* DMA1 or DMA2 instance */
 1314              		.loc 1 358 1 is_stmt 1 view -0
 1315              		.cfi_startproc
 1316              		@ args = 0, pretend = 0, frame = 0
 1317              		@ frame_needed = 0, uses_anonymous_args = 0
 1318              		@ link register save eliminated.
 358:../../Drivers/STM32H7xx_HAL_Driver/Src/stm32h7xx_hal_dma_ex.c ****   if(IS_DMA_STREAM_INSTANCE(hdma->Instance) != 0U) /* DMA1 or DMA2 instance */
 1319              		.loc 1 358 1 is_stmt 0 view .LVU393
 1320 0000 8C46     		mov	ip, r1
 1321 0002 1146     		mov	r1, r2
 1322              	.LVL47:
 359:../../Drivers/STM32H7xx_HAL_Driver/Src/stm32h7xx_hal_dma_ex.c ****   {
 1323              		.loc 1 359 3 is_stmt 1 view .LVU394
 359:../../Drivers/STM32H7xx_HAL_Driver/Src/stm32h7xx_hal_dma_ex.c ****   {
 1324              		.loc 1 359 6 is_stmt 0 view .LVU395
 1325 0004 0368     		ldr	r3, [r0]
 1326 0006 204A     		ldr	r2, .L65
 1327              	.LVL48:
 359:../../Drivers/STM32H7xx_HAL_Driver/Src/stm32h7xx_hal_dma_ex.c ****   {
 1328              		.loc 1 359 6 view .LVU396
 1329 0008 2048     		ldr	r0, .L65+4
 1330              	.LVL49:
 359:../../Drivers/STM32H7xx_HAL_Driver/Src/stm32h7xx_hal_dma_ex.c ****   {
 1331              		.loc 1 359 6 view .LVU397
 1332 000a 8342     		cmp	r3, r0
 1333 000c 18BF     		it	ne
 1334 000e 9342     		cmpne	r3, r2
 1335 0010 2ED0     		beq	.L59
 359:../../Drivers/STM32H7xx_HAL_Driver/Src/stm32h7xx_hal_dma_ex.c ****   {
 1336              		.loc 1 359 6 discriminator 2 view .LVU398
 1337 0012 3032     		adds	r2, r2, #48
 1338 0014 9342     		cmp	r3, r2
ARM GAS  C:\Users\28576\AppData\Local\Temp\cc51Faqy.s 			page 43


 1339 0016 2BD0     		beq	.L59
 359:../../Drivers/STM32H7xx_HAL_Driver/Src/stm32h7xx_hal_dma_ex.c ****   {
 1340              		.loc 1 359 6 discriminator 4 view .LVU399
 1341 0018 1832     		adds	r2, r2, #24
 1342 001a 9342     		cmp	r3, r2
 1343 001c 28D0     		beq	.L59
 359:../../Drivers/STM32H7xx_HAL_Driver/Src/stm32h7xx_hal_dma_ex.c ****   {
 1344              		.loc 1 359 6 discriminator 6 view .LVU400
 1345 001e 1832     		adds	r2, r2, #24
 1346 0020 9342     		cmp	r3, r2
 1347 0022 25D0     		beq	.L59
 359:../../Drivers/STM32H7xx_HAL_Driver/Src/stm32h7xx_hal_dma_ex.c ****   {
 1348              		.loc 1 359 6 discriminator 8 view .LVU401
 1349 0024 1832     		adds	r2, r2, #24
 1350 0026 9342     		cmp	r3, r2
 1351 0028 22D0     		beq	.L59
 359:../../Drivers/STM32H7xx_HAL_Driver/Src/stm32h7xx_hal_dma_ex.c ****   {
 1352              		.loc 1 359 6 discriminator 10 view .LVU402
 1353 002a 1832     		adds	r2, r2, #24
 1354 002c 9342     		cmp	r3, r2
 1355 002e 1FD0     		beq	.L59
 359:../../Drivers/STM32H7xx_HAL_Driver/Src/stm32h7xx_hal_dma_ex.c ****   {
 1356              		.loc 1 359 6 discriminator 12 view .LVU403
 1357 0030 1832     		adds	r2, r2, #24
 1358 0032 9342     		cmp	r3, r2
 1359 0034 1CD0     		beq	.L59
 359:../../Drivers/STM32H7xx_HAL_Driver/Src/stm32h7xx_hal_dma_ex.c ****   {
 1360              		.loc 1 359 6 discriminator 14 view .LVU404
 1361 0036 02F55672 		add	r2, r2, #856
 1362 003a 9342     		cmp	r3, r2
 1363 003c 18D0     		beq	.L59
 359:../../Drivers/STM32H7xx_HAL_Driver/Src/stm32h7xx_hal_dma_ex.c ****   {
 1364              		.loc 1 359 6 discriminator 16 view .LVU405
 1365 003e 1832     		adds	r2, r2, #24
 1366 0040 9342     		cmp	r3, r2
 1367 0042 15D0     		beq	.L59
 359:../../Drivers/STM32H7xx_HAL_Driver/Src/stm32h7xx_hal_dma_ex.c ****   {
 1368              		.loc 1 359 6 discriminator 18 view .LVU406
 1369 0044 1832     		adds	r2, r2, #24
 1370 0046 9342     		cmp	r3, r2
 1371 0048 12D0     		beq	.L59
 359:../../Drivers/STM32H7xx_HAL_Driver/Src/stm32h7xx_hal_dma_ex.c ****   {
 1372              		.loc 1 359 6 discriminator 20 view .LVU407
 1373 004a 1832     		adds	r2, r2, #24
 1374 004c 9342     		cmp	r3, r2
 1375 004e 0FD0     		beq	.L59
 359:../../Drivers/STM32H7xx_HAL_Driver/Src/stm32h7xx_hal_dma_ex.c ****   {
 1376              		.loc 1 359 6 discriminator 22 view .LVU408
 1377 0050 1832     		adds	r2, r2, #24
 1378 0052 9342     		cmp	r3, r2
 1379 0054 0CD0     		beq	.L59
 359:../../Drivers/STM32H7xx_HAL_Driver/Src/stm32h7xx_hal_dma_ex.c ****   {
 1380              		.loc 1 359 6 discriminator 24 view .LVU409
 1381 0056 1832     		adds	r2, r2, #24
 1382 0058 9342     		cmp	r3, r2
 1383 005a 09D0     		beq	.L59
 359:../../Drivers/STM32H7xx_HAL_Driver/Src/stm32h7xx_hal_dma_ex.c ****   {
ARM GAS  C:\Users\28576\AppData\Local\Temp\cc51Faqy.s 			page 44


 1384              		.loc 1 359 6 discriminator 26 view .LVU410
 1385 005c 1832     		adds	r2, r2, #24
 1386 005e 9342     		cmp	r3, r2
 1387 0060 06D0     		beq	.L59
 359:../../Drivers/STM32H7xx_HAL_Driver/Src/stm32h7xx_hal_dma_ex.c ****   {
 1388              		.loc 1 359 6 discriminator 28 view .LVU411
 1389 0062 1832     		adds	r2, r2, #24
 1390 0064 9342     		cmp	r3, r2
 1391 0066 03D0     		beq	.L59
 374:../../Drivers/STM32H7xx_HAL_Driver/Src/stm32h7xx_hal_dma_ex.c ****     {
 1392              		.loc 1 374 5 is_stmt 1 view .LVU412
 374:../../Drivers/STM32H7xx_HAL_Driver/Src/stm32h7xx_hal_dma_ex.c ****     {
 1393              		.loc 1 374 7 is_stmt 0 view .LVU413
 1394 0068 51B1     		cbz	r1, .L60
 382:../../Drivers/STM32H7xx_HAL_Driver/Src/stm32h7xx_hal_dma_ex.c ****     }
 1395              		.loc 1 382 7 is_stmt 1 view .LVU414
 382:../../Drivers/STM32H7xx_HAL_Driver/Src/stm32h7xx_hal_dma_ex.c ****     }
 1396              		.loc 1 382 57 is_stmt 0 view .LVU415
 1397 006a C3F810C0 		str	ip, [r3, #16]
 1398 006e 02E0     		b	.L63
 1399              	.L59:
 361:../../Drivers/STM32H7xx_HAL_Driver/Src/stm32h7xx_hal_dma_ex.c ****     {
 1400              		.loc 1 361 5 is_stmt 1 view .LVU416
 361:../../Drivers/STM32H7xx_HAL_Driver/Src/stm32h7xx_hal_dma_ex.c ****     {
 1401              		.loc 1 361 7 is_stmt 0 view .LVU417
 1402 0070 19B9     		cbnz	r1, .L62
 364:../../Drivers/STM32H7xx_HAL_Driver/Src/stm32h7xx_hal_dma_ex.c ****     }
 1403              		.loc 1 364 7 is_stmt 1 view .LVU418
 364:../../Drivers/STM32H7xx_HAL_Driver/Src/stm32h7xx_hal_dma_ex.c ****     }
 1404              		.loc 1 364 54 is_stmt 0 view .LVU419
 1405 0072 C3F80CC0 		str	ip, [r3, #12]
 1406              	.L63:
 386:../../Drivers/STM32H7xx_HAL_Driver/Src/stm32h7xx_hal_dma_ex.c **** }
 1407              		.loc 1 386 3 is_stmt 1 view .LVU420
 387:../../Drivers/STM32H7xx_HAL_Driver/Src/stm32h7xx_hal_dma_ex.c **** 
 1408              		.loc 1 387 1 is_stmt 0 view .LVU421
 1409 0076 0020     		movs	r0, #0
 1410 0078 7047     		bx	lr
 1411              	.L62:
 369:../../Drivers/STM32H7xx_HAL_Driver/Src/stm32h7xx_hal_dma_ex.c ****     }
 1412              		.loc 1 369 7 is_stmt 1 view .LVU422
 369:../../Drivers/STM32H7xx_HAL_Driver/Src/stm32h7xx_hal_dma_ex.c ****     }
 1413              		.loc 1 369 54 is_stmt 0 view .LVU423
 1414 007a C3F810C0 		str	ip, [r3, #16]
 1415 007e FAE7     		b	.L63
 1416              	.L60:
 377:../../Drivers/STM32H7xx_HAL_Driver/Src/stm32h7xx_hal_dma_ex.c ****     }
 1417              		.loc 1 377 7 is_stmt 1 view .LVU424
 377:../../Drivers/STM32H7xx_HAL_Driver/Src/stm32h7xx_hal_dma_ex.c ****     }
 1418              		.loc 1 377 57 is_stmt 0 view .LVU425
 1419 0080 C3F80CC0 		str	ip, [r3, #12]
 1420 0084 F7E7     		b	.L63
 1421              	.L66:
 1422 0086 00BF     		.align	2
 1423              	.L65:
 1424 0088 10000240 		.word	1073872912
 1425 008c 28000240 		.word	1073872936
ARM GAS  C:\Users\28576\AppData\Local\Temp\cc51Faqy.s 			page 45


 1426              		.cfi_endproc
 1427              	.LFE134:
 1429              		.section	.text.HAL_DMAEx_ConfigMuxSync,"ax",%progbits
 1430              		.align	1
 1431              		.global	HAL_DMAEx_ConfigMuxSync
 1432              		.syntax unified
 1433              		.thumb
 1434              		.thumb_func
 1436              	HAL_DMAEx_ConfigMuxSync:
 1437              	.LVL50:
 1438              	.LFB135:
 397:../../Drivers/STM32H7xx_HAL_Driver/Src/stm32h7xx_hal_dma_ex.c ****   uint32_t syncSignalID = 0;
 1439              		.loc 1 397 1 is_stmt 1 view -0
 1440              		.cfi_startproc
 1441              		@ args = 0, pretend = 0, frame = 0
 1442              		@ frame_needed = 0, uses_anonymous_args = 0
 397:../../Drivers/STM32H7xx_HAL_Driver/Src/stm32h7xx_hal_dma_ex.c ****   uint32_t syncSignalID = 0;
 1443              		.loc 1 397 1 is_stmt 0 view .LVU427
 1444 0000 00B5     		push	{lr}
 1445              	.LCFI3:
 1446              		.cfi_def_cfa_offset 4
 1447              		.cfi_offset 14, -4
 398:../../Drivers/STM32H7xx_HAL_Driver/Src/stm32h7xx_hal_dma_ex.c ****   uint32_t syncPolarity = 0;
 1448              		.loc 1 398 3 is_stmt 1 view .LVU428
 1449              	.LVL51:
 399:../../Drivers/STM32H7xx_HAL_Driver/Src/stm32h7xx_hal_dma_ex.c **** 
 1450              		.loc 1 399 3 view .LVU429
 402:../../Drivers/STM32H7xx_HAL_Driver/Src/stm32h7xx_hal_dma_ex.c ****   assert_param(IS_DMAMUX_SYNC_STATE(pSyncConfig->SyncEnable));
 1451              		.loc 1 402 3 view .LVU430
 403:../../Drivers/STM32H7xx_HAL_Driver/Src/stm32h7xx_hal_dma_ex.c ****   assert_param(IS_DMAMUX_SYNC_EVENT(pSyncConfig->EventEnable));
 1452              		.loc 1 403 3 view .LVU431
 404:../../Drivers/STM32H7xx_HAL_Driver/Src/stm32h7xx_hal_dma_ex.c ****   assert_param(IS_DMAMUX_SYNC_REQUEST_NUMBER(pSyncConfig->RequestNumber));
 1453              		.loc 1 404 3 view .LVU432
 405:../../Drivers/STM32H7xx_HAL_Driver/Src/stm32h7xx_hal_dma_ex.c **** 
 1454              		.loc 1 405 3 view .LVU433
 407:../../Drivers/STM32H7xx_HAL_Driver/Src/stm32h7xx_hal_dma_ex.c ****   {
 1455              		.loc 1 407 3 view .LVU434
 407:../../Drivers/STM32H7xx_HAL_Driver/Src/stm32h7xx_hal_dma_ex.c ****   {
 1456              		.loc 1 407 17 is_stmt 0 view .LVU435
 1457 0002 0B7A     		ldrb	r3, [r1, #8]	@ zero_extendqisi2
 407:../../Drivers/STM32H7xx_HAL_Driver/Src/stm32h7xx_hal_dma_ex.c ****   {
 1458              		.loc 1 407 5 view .LVU436
 1459 0004 012B     		cmp	r3, #1
 1460 0006 2BD0     		beq	.L74
 399:../../Drivers/STM32H7xx_HAL_Driver/Src/stm32h7xx_hal_dma_ex.c **** 
 1461              		.loc 1 399 12 view .LVU437
 1462 0008 4FF0000C 		mov	ip, #0
 398:../../Drivers/STM32H7xx_HAL_Driver/Src/stm32h7xx_hal_dma_ex.c ****   uint32_t syncPolarity = 0;
 1463              		.loc 1 398 12 view .LVU438
 1464 000c E646     		mov	lr, ip
 1465              	.LVL52:
 1466              	.L68:
 424:../../Drivers/STM32H7xx_HAL_Driver/Src/stm32h7xx_hal_dma_ex.c ****   {
 1467              		.loc 1 424 3 is_stmt 1 view .LVU439
 424:../../Drivers/STM32H7xx_HAL_Driver/Src/stm32h7xx_hal_dma_ex.c ****   {
 1468              		.loc 1 424 10 is_stmt 0 view .LVU440
 1469 000e 90F83530 		ldrb	r3, [r0, #53]	@ zero_extendqisi2
ARM GAS  C:\Users\28576\AppData\Local\Temp\cc51Faqy.s 			page 46


 424:../../Drivers/STM32H7xx_HAL_Driver/Src/stm32h7xx_hal_dma_ex.c ****   {
 1470              		.loc 1 424 5 view .LVU441
 1471 0012 012B     		cmp	r3, #1
 1472 0014 29D1     		bne	.L69
 427:../../Drivers/STM32H7xx_HAL_Driver/Src/stm32h7xx_hal_dma_ex.c **** 
 1473              		.loc 1 427 5 is_stmt 1 view .LVU442
 427:../../Drivers/STM32H7xx_HAL_Driver/Src/stm32h7xx_hal_dma_ex.c **** 
 1474              		.loc 1 427 5 view .LVU443
 1475 0016 90F83430 		ldrb	r3, [r0, #52]	@ zero_extendqisi2
 1476 001a 012B     		cmp	r3, #1
 1477 001c 2AD0     		beq	.L72
 427:../../Drivers/STM32H7xx_HAL_Driver/Src/stm32h7xx_hal_dma_ex.c **** 
 1478              		.loc 1 427 5 discriminator 2 view .LVU444
 1479 001e 0123     		movs	r3, #1
 1480 0020 80F83430 		strb	r3, [r0, #52]
 427:../../Drivers/STM32H7xx_HAL_Driver/Src/stm32h7xx_hal_dma_ex.c **** 
 1481              		.loc 1 427 5 view .LVU445
 430:../../Drivers/STM32H7xx_HAL_Driver/Src/stm32h7xx_hal_dma_ex.c **** 
 1482              		.loc 1 430 5 view .LVU446
 1483 0024 026E     		ldr	r2, [r0, #96]
 1484 0026 1368     		ldr	r3, [r2]
 1485 0028 23F48133 		bic	r3, r3, #66048
 1486 002c 1360     		str	r3, [r2]
 433:../../Drivers/STM32H7xx_HAL_Driver/Src/stm32h7xx_hal_dma_ex.c ****                (~DMAMUX_CxCR_DMAREQ_ID) , \
 1487              		.loc 1 433 5 view .LVU447
 1488 002e 036E     		ldr	r3, [r0, #96]
 1489 0030 1A68     		ldr	r2, [r3]
 1490 0032 D2B2     		uxtb	r2, r2
 1491 0034 CB68     		ldr	r3, [r1, #12]
 1492 0036 013B     		subs	r3, r3, #1
 1493 0038 DB04     		lsls	r3, r3, #19
 1494 003a 43EA0E63 		orr	r3, r3, lr, lsl #24
 1495 003e 43EA0C03 		orr	r3, r3, ip
 1496 0042 91F808C0 		ldrb	ip, [r1, #8]	@ zero_extendqisi2
 1497              	.LVL53:
 433:../../Drivers/STM32H7xx_HAL_Driver/Src/stm32h7xx_hal_dma_ex.c ****                (~DMAMUX_CxCR_DMAREQ_ID) , \
 1498              		.loc 1 433 5 is_stmt 0 view .LVU448
 1499 0046 43EA0C43 		orr	r3, r3, ip, lsl #16
 1500 004a 497A     		ldrb	r1, [r1, #9]	@ zero_extendqisi2
 1501              	.LVL54:
 433:../../Drivers/STM32H7xx_HAL_Driver/Src/stm32h7xx_hal_dma_ex.c ****                (~DMAMUX_CxCR_DMAREQ_ID) , \
 1502              		.loc 1 433 5 view .LVU449
 1503 004c 43EA4123 		orr	r3, r3, r1, lsl #9
 1504 0050 1343     		orrs	r3, r3, r2
 1505 0052 026E     		ldr	r2, [r0, #96]
 1506 0054 1360     		str	r3, [r2]
 441:../../Drivers/STM32H7xx_HAL_Driver/Src/stm32h7xx_hal_dma_ex.c **** 
 1507              		.loc 1 441 5 is_stmt 1 view .LVU450
 441:../../Drivers/STM32H7xx_HAL_Driver/Src/stm32h7xx_hal_dma_ex.c **** 
 1508              		.loc 1 441 5 view .LVU451
 1509 0056 0023     		movs	r3, #0
 1510 0058 80F83430 		strb	r3, [r0, #52]
 441:../../Drivers/STM32H7xx_HAL_Driver/Src/stm32h7xx_hal_dma_ex.c **** 
 1511              		.loc 1 441 5 view .LVU452
 443:../../Drivers/STM32H7xx_HAL_Driver/Src/stm32h7xx_hal_dma_ex.c ****   }
 1512              		.loc 1 443 5 view .LVU453
 443:../../Drivers/STM32H7xx_HAL_Driver/Src/stm32h7xx_hal_dma_ex.c ****   }
ARM GAS  C:\Users\28576\AppData\Local\Temp\cc51Faqy.s 			page 47


 1513              		.loc 1 443 12 is_stmt 0 view .LVU454
 1514 005c 1846     		mov	r0, r3
 1515              	.LVL55:
 443:../../Drivers/STM32H7xx_HAL_Driver/Src/stm32h7xx_hal_dma_ex.c ****   }
 1516              		.loc 1 443 12 view .LVU455
 1517 005e 08E0     		b	.L70
 1518              	.LVL56:
 1519              	.L74:
 409:../../Drivers/STM32H7xx_HAL_Driver/Src/stm32h7xx_hal_dma_ex.c **** 
 1520              		.loc 1 409 5 is_stmt 1 view .LVU456
 411:../../Drivers/STM32H7xx_HAL_Driver/Src/stm32h7xx_hal_dma_ex.c ****     {
 1521              		.loc 1 411 5 view .LVU457
 413:../../Drivers/STM32H7xx_HAL_Driver/Src/stm32h7xx_hal_dma_ex.c ****     }
 1522              		.loc 1 413 7 view .LVU458
 417:../../Drivers/STM32H7xx_HAL_Driver/Src/stm32h7xx_hal_dma_ex.c ****     }
 1523              		.loc 1 417 7 view .LVU459
 419:../../Drivers/STM32H7xx_HAL_Driver/Src/stm32h7xx_hal_dma_ex.c ****     syncPolarity = pSyncConfig->SyncPolarity;
 1524              		.loc 1 419 5 view .LVU460
 419:../../Drivers/STM32H7xx_HAL_Driver/Src/stm32h7xx_hal_dma_ex.c ****     syncPolarity = pSyncConfig->SyncPolarity;
 1525              		.loc 1 419 18 is_stmt 0 view .LVU461
 1526 0060 D1F800E0 		ldr	lr, [r1]
 1527              	.LVL57:
 420:../../Drivers/STM32H7xx_HAL_Driver/Src/stm32h7xx_hal_dma_ex.c ****   }
 1528              		.loc 1 420 5 is_stmt 1 view .LVU462
 420:../../Drivers/STM32H7xx_HAL_Driver/Src/stm32h7xx_hal_dma_ex.c ****   }
 1529              		.loc 1 420 18 is_stmt 0 view .LVU463
 1530 0064 D1F804C0 		ldr	ip, [r1, #4]
 1531              	.LVL58:
 420:../../Drivers/STM32H7xx_HAL_Driver/Src/stm32h7xx_hal_dma_ex.c ****   }
 1532              		.loc 1 420 18 view .LVU464
 1533 0068 D1E7     		b	.L68
 1534              	.L69:
 448:../../Drivers/STM32H7xx_HAL_Driver/Src/stm32h7xx_hal_dma_ex.c **** 
 1535              		.loc 1 448 5 is_stmt 1 view .LVU465
 448:../../Drivers/STM32H7xx_HAL_Driver/Src/stm32h7xx_hal_dma_ex.c **** 
 1536              		.loc 1 448 21 is_stmt 0 view .LVU466
 1537 006a 4FF40063 		mov	r3, #2048
 1538 006e 4365     		str	r3, [r0, #84]
 451:../../Drivers/STM32H7xx_HAL_Driver/Src/stm32h7xx_hal_dma_ex.c ****   }
 1539              		.loc 1 451 5 is_stmt 1 view .LVU467
 451:../../Drivers/STM32H7xx_HAL_Driver/Src/stm32h7xx_hal_dma_ex.c ****   }
 1540              		.loc 1 451 12 is_stmt 0 view .LVU468
 1541 0070 0120     		movs	r0, #1
 1542              	.LVL59:
 1543              	.L70:
 453:../../Drivers/STM32H7xx_HAL_Driver/Src/stm32h7xx_hal_dma_ex.c **** 
 1544              		.loc 1 453 1 view .LVU469
 1545 0072 00BD     		pop	{pc}
 1546              	.LVL60:
 1547              	.L72:
 427:../../Drivers/STM32H7xx_HAL_Driver/Src/stm32h7xx_hal_dma_ex.c **** 
 1548              		.loc 1 427 5 discriminator 1 view .LVU470
 1549 0074 0220     		movs	r0, #2
 1550              	.LVL61:
 427:../../Drivers/STM32H7xx_HAL_Driver/Src/stm32h7xx_hal_dma_ex.c **** 
 1551              		.loc 1 427 5 discriminator 1 view .LVU471
 1552 0076 FCE7     		b	.L70
ARM GAS  C:\Users\28576\AppData\Local\Temp\cc51Faqy.s 			page 48


 1553              		.cfi_endproc
 1554              	.LFE135:
 1556              		.section	.text.HAL_DMAEx_ConfigMuxRequestGenerator,"ax",%progbits
 1557              		.align	1
 1558              		.global	HAL_DMAEx_ConfigMuxRequestGenerator
 1559              		.syntax unified
 1560              		.thumb
 1561              		.thumb_func
 1563              	HAL_DMAEx_ConfigMuxRequestGenerator:
 1564              	.LVL62:
 1565              	.LFB136:
 465:../../Drivers/STM32H7xx_HAL_Driver/Src/stm32h7xx_hal_dma_ex.c ****   HAL_StatusTypeDef status;
 1566              		.loc 1 465 1 is_stmt 1 view -0
 1567              		.cfi_startproc
 1568              		@ args = 0, pretend = 0, frame = 0
 1569              		@ frame_needed = 0, uses_anonymous_args = 0
 1570              		@ link register save eliminated.
 466:../../Drivers/STM32H7xx_HAL_Driver/Src/stm32h7xx_hal_dma_ex.c ****   HAL_DMA_StateTypeDef temp_state = hdma->State;
 1571              		.loc 1 466 3 view .LVU473
 467:../../Drivers/STM32H7xx_HAL_Driver/Src/stm32h7xx_hal_dma_ex.c **** 
 1572              		.loc 1 467 3 view .LVU474
 467:../../Drivers/STM32H7xx_HAL_Driver/Src/stm32h7xx_hal_dma_ex.c **** 
 1573              		.loc 1 467 24 is_stmt 0 view .LVU475
 1574 0000 90F83530 		ldrb	r3, [r0, #53]	@ zero_extendqisi2
 1575              	.LVL63:
 470:../../Drivers/STM32H7xx_HAL_Driver/Src/stm32h7xx_hal_dma_ex.c **** 
 1576              		.loc 1 470 3 is_stmt 1 view .LVU476
 472:../../Drivers/STM32H7xx_HAL_Driver/Src/stm32h7xx_hal_dma_ex.c ****   {
 1577              		.loc 1 472 3 view .LVU477
 474:../../Drivers/STM32H7xx_HAL_Driver/Src/stm32h7xx_hal_dma_ex.c ****   }
 1578              		.loc 1 474 5 view .LVU478
 478:../../Drivers/STM32H7xx_HAL_Driver/Src/stm32h7xx_hal_dma_ex.c ****   }
 1579              		.loc 1 478 5 view .LVU479
 482:../../Drivers/STM32H7xx_HAL_Driver/Src/stm32h7xx_hal_dma_ex.c ****   assert_param(IS_DMAMUX_REQUEST_GEN_REQUEST_NUMBER(pRequestGeneratorConfig->RequestNumber));
 1580              		.loc 1 482 3 view .LVU480
 483:../../Drivers/STM32H7xx_HAL_Driver/Src/stm32h7xx_hal_dma_ex.c **** 
 1581              		.loc 1 483 3 view .LVU481
 488:../../Drivers/STM32H7xx_HAL_Driver/Src/stm32h7xx_hal_dma_ex.c ****   {
 1582              		.loc 1 488 3 view .LVU482
 488:../../Drivers/STM32H7xx_HAL_Driver/Src/stm32h7xx_hal_dma_ex.c ****   {
 1583              		.loc 1 488 10 is_stmt 0 view .LVU483
 1584 0004 C26E     		ldr	r2, [r0, #108]
 488:../../Drivers/STM32H7xx_HAL_Driver/Src/stm32h7xx_hal_dma_ex.c ****   {
 1585              		.loc 1 488 5 view .LVU484
 1586 0006 62B1     		cbz	r2, .L84
 1587 0008 DBB2     		uxtb	r3, r3
 496:../../Drivers/STM32H7xx_HAL_Driver/Src/stm32h7xx_hal_dma_ex.c ****   {
 1588              		.loc 1 496 8 is_stmt 1 view .LVU485
 496:../../Drivers/STM32H7xx_HAL_Driver/Src/stm32h7xx_hal_dma_ex.c ****   {
 1589              		.loc 1 496 35 is_stmt 0 view .LVU486
 1590 000a D2F800C0 		ldr	ip, [r2]
 496:../../Drivers/STM32H7xx_HAL_Driver/Src/stm32h7xx_hal_dma_ex.c ****   {
 1591              		.loc 1 496 10 view .LVU487
 1592 000e 1CF4803F 		tst	ip, #65536
 1593 0012 01D1     		bne	.L78
 496:../../Drivers/STM32H7xx_HAL_Driver/Src/stm32h7xx_hal_dma_ex.c ****   {
 1594              		.loc 1 496 68 discriminator 1 view .LVU488
ARM GAS  C:\Users\28576\AppData\Local\Temp\cc51Faqy.s 			page 49


 1595 0014 012B     		cmp	r3, #1
 1596 0016 08D0     		beq	.L85
 1597              	.L78:
 515:../../Drivers/STM32H7xx_HAL_Driver/Src/stm32h7xx_hal_dma_ex.c **** 
 1598              		.loc 1 515 5 is_stmt 1 view .LVU489
 515:../../Drivers/STM32H7xx_HAL_Driver/Src/stm32h7xx_hal_dma_ex.c **** 
 1599              		.loc 1 515 21 is_stmt 0 view .LVU490
 1600 0018 4FF40063 		mov	r3, #2048
 1601              	.LVL64:
 515:../../Drivers/STM32H7xx_HAL_Driver/Src/stm32h7xx_hal_dma_ex.c **** 
 1602              		.loc 1 515 21 view .LVU491
 1603 001c 4365     		str	r3, [r0, #84]
 518:../../Drivers/STM32H7xx_HAL_Driver/Src/stm32h7xx_hal_dma_ex.c ****   }
 1604              		.loc 1 518 5 is_stmt 1 view .LVU492
 1605              	.LVL65:
 521:../../Drivers/STM32H7xx_HAL_Driver/Src/stm32h7xx_hal_dma_ex.c **** }
 1606              		.loc 1 521 10 is_stmt 0 view .LVU493
 1607 001e 0120     		movs	r0, #1
 1608              	.LVL66:
 521:../../Drivers/STM32H7xx_HAL_Driver/Src/stm32h7xx_hal_dma_ex.c **** }
 1609              		.loc 1 521 10 view .LVU494
 1610 0020 7047     		bx	lr
 1611              	.LVL67:
 1612              	.L84:
 491:../../Drivers/STM32H7xx_HAL_Driver/Src/stm32h7xx_hal_dma_ex.c **** 
 1613              		.loc 1 491 5 is_stmt 1 view .LVU495
 491:../../Drivers/STM32H7xx_HAL_Driver/Src/stm32h7xx_hal_dma_ex.c **** 
 1614              		.loc 1 491 21 is_stmt 0 view .LVU496
 1615 0022 4023     		movs	r3, #64
 1616              	.LVL68:
 491:../../Drivers/STM32H7xx_HAL_Driver/Src/stm32h7xx_hal_dma_ex.c **** 
 1617              		.loc 1 491 21 view .LVU497
 1618 0024 4365     		str	r3, [r0, #84]
 494:../../Drivers/STM32H7xx_HAL_Driver/Src/stm32h7xx_hal_dma_ex.c ****   }
 1619              		.loc 1 494 5 is_stmt 1 view .LVU498
 1620              	.LVL69:
 521:../../Drivers/STM32H7xx_HAL_Driver/Src/stm32h7xx_hal_dma_ex.c **** }
 1621              		.loc 1 521 10 is_stmt 0 view .LVU499
 1622 0026 0120     		movs	r0, #1
 1623              	.LVL70:
 521:../../Drivers/STM32H7xx_HAL_Driver/Src/stm32h7xx_hal_dma_ex.c **** }
 1624              		.loc 1 521 10 view .LVU500
 1625 0028 7047     		bx	lr
 1626              	.LVL71:
 1627              	.L85:
 501:../../Drivers/STM32H7xx_HAL_Driver/Src/stm32h7xx_hal_dma_ex.c **** 
 1628              		.loc 1 501 5 is_stmt 1 view .LVU501
 501:../../Drivers/STM32H7xx_HAL_Driver/Src/stm32h7xx_hal_dma_ex.c **** 
 1629              		.loc 1 501 5 view .LVU502
 1630 002a 90F83430 		ldrb	r3, [r0, #52]	@ zero_extendqisi2
 1631              	.LVL72:
 501:../../Drivers/STM32H7xx_HAL_Driver/Src/stm32h7xx_hal_dma_ex.c **** 
 1632              		.loc 1 501 5 is_stmt 0 view .LVU503
 1633 002e 012B     		cmp	r3, #1
 1634 0030 12D0     		beq	.L79
 465:../../Drivers/STM32H7xx_HAL_Driver/Src/stm32h7xx_hal_dma_ex.c ****   HAL_StatusTypeDef status;
 1635              		.loc 1 465 1 view .LVU504
ARM GAS  C:\Users\28576\AppData\Local\Temp\cc51Faqy.s 			page 50


 1636 0032 10B4     		push	{r4}
 1637              	.LCFI4:
 1638              		.cfi_def_cfa_offset 4
 1639              		.cfi_offset 4, -4
 501:../../Drivers/STM32H7xx_HAL_Driver/Src/stm32h7xx_hal_dma_ex.c **** 
 1640              		.loc 1 501 5 is_stmt 1 discriminator 2 view .LVU505
 1641 0034 0123     		movs	r3, #1
 1642 0036 80F83430 		strb	r3, [r0, #52]
 501:../../Drivers/STM32H7xx_HAL_Driver/Src/stm32h7xx_hal_dma_ex.c **** 
 1643              		.loc 1 501 5 view .LVU506
 504:../../Drivers/STM32H7xx_HAL_Driver/Src/stm32h7xx_hal_dma_ex.c ****                                   ((pRequestGeneratorConfig->RequestNumber - 1U) << DMAMUX_RGxCR_GN
 1644              		.loc 1 504 5 view .LVU507
 504:../../Drivers/STM32H7xx_HAL_Driver/Src/stm32h7xx_hal_dma_ex.c ****                                   ((pRequestGeneratorConfig->RequestNumber - 1U) << DMAMUX_RGxCR_GN
 1645              		.loc 1 504 59 is_stmt 0 view .LVU508
 1646 003a 0B68     		ldr	r3, [r1]
 505:../../Drivers/STM32H7xx_HAL_Driver/Src/stm32h7xx_hal_dma_ex.c ****                                   pRequestGeneratorConfig->Polarity;
 1647              		.loc 1 505 76 view .LVU509
 1648 003c 8C68     		ldr	r4, [r1, #8]
 1649 003e 04F1FF3C 		add	ip, r4, #-1
 504:../../Drivers/STM32H7xx_HAL_Driver/Src/stm32h7xx_hal_dma_ex.c ****                                   ((pRequestGeneratorConfig->RequestNumber - 1U) << DMAMUX_RGxCR_GN
 1650              		.loc 1 504 70 view .LVU510
 1651 0042 43EACC43 		orr	r3, r3, ip, lsl #19
 506:../../Drivers/STM32H7xx_HAL_Driver/Src/stm32h7xx_hal_dma_ex.c ****     /* Process Locked */
 1652              		.loc 1 506 58 view .LVU511
 1653 0046 4968     		ldr	r1, [r1, #4]
 1654              	.LVL73:
 505:../../Drivers/STM32H7xx_HAL_Driver/Src/stm32h7xx_hal_dma_ex.c ****                                   pRequestGeneratorConfig->Polarity;
 1655              		.loc 1 505 109 view .LVU512
 1656 0048 0B43     		orrs	r3, r3, r1
 504:../../Drivers/STM32H7xx_HAL_Driver/Src/stm32h7xx_hal_dma_ex.c ****                                   ((pRequestGeneratorConfig->RequestNumber - 1U) << DMAMUX_RGxCR_GN
 1657              		.loc 1 504 34 view .LVU513
 1658 004a 1360     		str	r3, [r2]
 508:../../Drivers/STM32H7xx_HAL_Driver/Src/stm32h7xx_hal_dma_ex.c **** 
 1659              		.loc 1 508 5 is_stmt 1 view .LVU514
 508:../../Drivers/STM32H7xx_HAL_Driver/Src/stm32h7xx_hal_dma_ex.c **** 
 1660              		.loc 1 508 5 view .LVU515
 1661 004c 0023     		movs	r3, #0
 1662 004e 80F83430 		strb	r3, [r0, #52]
 508:../../Drivers/STM32H7xx_HAL_Driver/Src/stm32h7xx_hal_dma_ex.c **** 
 1663              		.loc 1 508 5 view .LVU516
 510:../../Drivers/STM32H7xx_HAL_Driver/Src/stm32h7xx_hal_dma_ex.c ****   }
 1664              		.loc 1 510 5 view .LVU517
 510:../../Drivers/STM32H7xx_HAL_Driver/Src/stm32h7xx_hal_dma_ex.c ****   }
 1665              		.loc 1 510 12 is_stmt 0 view .LVU518
 1666 0052 1846     		mov	r0, r3
 1667              	.LVL74:
 522:../../Drivers/STM32H7xx_HAL_Driver/Src/stm32h7xx_hal_dma_ex.c **** 
 1668              		.loc 1 522 1 view .LVU519
 1669 0054 10BC     		pop	{r4}
 1670              	.LCFI5:
 1671              		.cfi_restore 4
 1672              		.cfi_def_cfa_offset 0
 1673 0056 7047     		bx	lr
 1674              	.LVL75:
 1675              	.L79:
 501:../../Drivers/STM32H7xx_HAL_Driver/Src/stm32h7xx_hal_dma_ex.c **** 
 1676              		.loc 1 501 5 discriminator 1 view .LVU520
ARM GAS  C:\Users\28576\AppData\Local\Temp\cc51Faqy.s 			page 51


 1677 0058 0220     		movs	r0, #2
 1678              	.LVL76:
 522:../../Drivers/STM32H7xx_HAL_Driver/Src/stm32h7xx_hal_dma_ex.c **** 
 1679              		.loc 1 522 1 view .LVU521
 1680 005a 7047     		bx	lr
 1681              		.cfi_endproc
 1682              	.LFE136:
 1684              		.section	.text.HAL_DMAEx_EnableMuxRequestGenerator,"ax",%progbits
 1685              		.align	1
 1686              		.global	HAL_DMAEx_EnableMuxRequestGenerator
 1687              		.syntax unified
 1688              		.thumb
 1689              		.thumb_func
 1691              	HAL_DMAEx_EnableMuxRequestGenerator:
 1692              	.LVL77:
 1693              	.LFB137:
 531:../../Drivers/STM32H7xx_HAL_Driver/Src/stm32h7xx_hal_dma_ex.c ****   /* Check the parameters */
 1694              		.loc 1 531 1 is_stmt 1 view -0
 1695              		.cfi_startproc
 1696              		@ args = 0, pretend = 0, frame = 0
 1697              		@ frame_needed = 0, uses_anonymous_args = 0
 1698              		@ link register save eliminated.
 533:../../Drivers/STM32H7xx_HAL_Driver/Src/stm32h7xx_hal_dma_ex.c **** 
 1699              		.loc 1 533 3 view .LVU523
 537:../../Drivers/STM32H7xx_HAL_Driver/Src/stm32h7xx_hal_dma_ex.c ****   {
 1700              		.loc 1 537 3 view .LVU524
 537:../../Drivers/STM32H7xx_HAL_Driver/Src/stm32h7xx_hal_dma_ex.c ****   {
 1701              		.loc 1 537 11 is_stmt 0 view .LVU525
 1702 0000 90F83530 		ldrb	r3, [r0, #53]	@ zero_extendqisi2
 537:../../Drivers/STM32H7xx_HAL_Driver/Src/stm32h7xx_hal_dma_ex.c ****   {
 1703              		.loc 1 537 5 view .LVU526
 1704 0004 3BB1     		cbz	r3, .L88
 537:../../Drivers/STM32H7xx_HAL_Driver/Src/stm32h7xx_hal_dma_ex.c ****   {
 1705              		.loc 1 537 51 discriminator 1 view .LVU527
 1706 0006 C36E     		ldr	r3, [r0, #108]
 537:../../Drivers/STM32H7xx_HAL_Driver/Src/stm32h7xx_hal_dma_ex.c ****   {
 1707              		.loc 1 537 43 discriminator 1 view .LVU528
 1708 0008 3BB1     		cbz	r3, .L89
 540:../../Drivers/STM32H7xx_HAL_Driver/Src/stm32h7xx_hal_dma_ex.c **** 
 1709              		.loc 1 540 5 is_stmt 1 view .LVU529
 540:../../Drivers/STM32H7xx_HAL_Driver/Src/stm32h7xx_hal_dma_ex.c **** 
 1710              		.loc 1 540 27 is_stmt 0 view .LVU530
 1711 000a 1A68     		ldr	r2, [r3]
 540:../../Drivers/STM32H7xx_HAL_Driver/Src/stm32h7xx_hal_dma_ex.c **** 
 1712              		.loc 1 540 34 view .LVU531
 1713 000c 42F48032 		orr	r2, r2, #65536
 1714 0010 1A60     		str	r2, [r3]
 542:../../Drivers/STM32H7xx_HAL_Driver/Src/stm32h7xx_hal_dma_ex.c ****  }
 1715              		.loc 1 542 4 is_stmt 1 view .LVU532
 542:../../Drivers/STM32H7xx_HAL_Driver/Src/stm32h7xx_hal_dma_ex.c ****  }
 1716              		.loc 1 542 11 is_stmt 0 view .LVU533
 1717 0012 0020     		movs	r0, #0
 1718              	.LVL78:
 542:../../Drivers/STM32H7xx_HAL_Driver/Src/stm32h7xx_hal_dma_ex.c ****  }
 1719              		.loc 1 542 11 view .LVU534
 1720 0014 7047     		bx	lr
 1721              	.LVL79:
ARM GAS  C:\Users\28576\AppData\Local\Temp\cc51Faqy.s 			page 52


 1722              	.L88:
 546:../../Drivers/STM32H7xx_HAL_Driver/Src/stm32h7xx_hal_dma_ex.c ****  }
 1723              		.loc 1 546 11 view .LVU535
 1724 0016 0120     		movs	r0, #1
 1725              	.LVL80:
 546:../../Drivers/STM32H7xx_HAL_Driver/Src/stm32h7xx_hal_dma_ex.c ****  }
 1726              		.loc 1 546 11 view .LVU536
 1727 0018 7047     		bx	lr
 1728              	.LVL81:
 1729              	.L89:
 546:../../Drivers/STM32H7xx_HAL_Driver/Src/stm32h7xx_hal_dma_ex.c ****  }
 1730              		.loc 1 546 11 view .LVU537
 1731 001a 0120     		movs	r0, #1
 1732              	.LVL82:
 548:../../Drivers/STM32H7xx_HAL_Driver/Src/stm32h7xx_hal_dma_ex.c **** 
 1733              		.loc 1 548 1 view .LVU538
 1734 001c 7047     		bx	lr
 1735              		.cfi_endproc
 1736              	.LFE137:
 1738              		.section	.text.HAL_DMAEx_DisableMuxRequestGenerator,"ax",%progbits
 1739              		.align	1
 1740              		.global	HAL_DMAEx_DisableMuxRequestGenerator
 1741              		.syntax unified
 1742              		.thumb
 1743              		.thumb_func
 1745              	HAL_DMAEx_DisableMuxRequestGenerator:
 1746              	.LVL83:
 1747              	.LFB138:
 557:../../Drivers/STM32H7xx_HAL_Driver/Src/stm32h7xx_hal_dma_ex.c ****   /* Check the parameters */
 1748              		.loc 1 557 1 is_stmt 1 view -0
 1749              		.cfi_startproc
 1750              		@ args = 0, pretend = 0, frame = 0
 1751              		@ frame_needed = 0, uses_anonymous_args = 0
 1752              		@ link register save eliminated.
 559:../../Drivers/STM32H7xx_HAL_Driver/Src/stm32h7xx_hal_dma_ex.c **** 
 1753              		.loc 1 559 3 view .LVU540
 563:../../Drivers/STM32H7xx_HAL_Driver/Src/stm32h7xx_hal_dma_ex.c ****   {
 1754              		.loc 1 563 3 view .LVU541
 563:../../Drivers/STM32H7xx_HAL_Driver/Src/stm32h7xx_hal_dma_ex.c ****   {
 1755              		.loc 1 563 11 is_stmt 0 view .LVU542
 1756 0000 90F83530 		ldrb	r3, [r0, #53]	@ zero_extendqisi2
 563:../../Drivers/STM32H7xx_HAL_Driver/Src/stm32h7xx_hal_dma_ex.c ****   {
 1757              		.loc 1 563 5 view .LVU543
 1758 0004 3BB1     		cbz	r3, .L92
 563:../../Drivers/STM32H7xx_HAL_Driver/Src/stm32h7xx_hal_dma_ex.c ****   {
 1759              		.loc 1 563 51 discriminator 1 view .LVU544
 1760 0006 C36E     		ldr	r3, [r0, #108]
 563:../../Drivers/STM32H7xx_HAL_Driver/Src/stm32h7xx_hal_dma_ex.c ****   {
 1761              		.loc 1 563 43 discriminator 1 view .LVU545
 1762 0008 3BB1     		cbz	r3, .L93
 566:../../Drivers/STM32H7xx_HAL_Driver/Src/stm32h7xx_hal_dma_ex.c **** 
 1763              		.loc 1 566 5 is_stmt 1 view .LVU546
 566:../../Drivers/STM32H7xx_HAL_Driver/Src/stm32h7xx_hal_dma_ex.c **** 
 1764              		.loc 1 566 27 is_stmt 0 view .LVU547
 1765 000a 1A68     		ldr	r2, [r3]
 566:../../Drivers/STM32H7xx_HAL_Driver/Src/stm32h7xx_hal_dma_ex.c **** 
 1766              		.loc 1 566 34 view .LVU548
ARM GAS  C:\Users\28576\AppData\Local\Temp\cc51Faqy.s 			page 53


 1767 000c 22F48032 		bic	r2, r2, #65536
 1768 0010 1A60     		str	r2, [r3]
 568:../../Drivers/STM32H7xx_HAL_Driver/Src/stm32h7xx_hal_dma_ex.c ****  }
 1769              		.loc 1 568 4 is_stmt 1 view .LVU549
 568:../../Drivers/STM32H7xx_HAL_Driver/Src/stm32h7xx_hal_dma_ex.c ****  }
 1770              		.loc 1 568 11 is_stmt 0 view .LVU550
 1771 0012 0020     		movs	r0, #0
 1772              	.LVL84:
 568:../../Drivers/STM32H7xx_HAL_Driver/Src/stm32h7xx_hal_dma_ex.c ****  }
 1773              		.loc 1 568 11 view .LVU551
 1774 0014 7047     		bx	lr
 1775              	.LVL85:
 1776              	.L92:
 572:../../Drivers/STM32H7xx_HAL_Driver/Src/stm32h7xx_hal_dma_ex.c ****  }
 1777              		.loc 1 572 11 view .LVU552
 1778 0016 0120     		movs	r0, #1
 1779              	.LVL86:
 572:../../Drivers/STM32H7xx_HAL_Driver/Src/stm32h7xx_hal_dma_ex.c ****  }
 1780              		.loc 1 572 11 view .LVU553
 1781 0018 7047     		bx	lr
 1782              	.LVL87:
 1783              	.L93:
 572:../../Drivers/STM32H7xx_HAL_Driver/Src/stm32h7xx_hal_dma_ex.c ****  }
 1784              		.loc 1 572 11 view .LVU554
 1785 001a 0120     		movs	r0, #1
 1786              	.LVL88:
 574:../../Drivers/STM32H7xx_HAL_Driver/Src/stm32h7xx_hal_dma_ex.c **** 
 1787              		.loc 1 574 1 view .LVU555
 1788 001c 7047     		bx	lr
 1789              		.cfi_endproc
 1790              	.LFE138:
 1792              		.section	.text.HAL_DMAEx_MUX_IRQHandler,"ax",%progbits
 1793              		.align	1
 1794              		.global	HAL_DMAEx_MUX_IRQHandler
 1795              		.syntax unified
 1796              		.thumb
 1797              		.thumb_func
 1799              	HAL_DMAEx_MUX_IRQHandler:
 1800              	.LVL89:
 1801              	.LFB139:
 583:../../Drivers/STM32H7xx_HAL_Driver/Src/stm32h7xx_hal_dma_ex.c ****   /* Check for DMAMUX Synchronization overrun */
 1802              		.loc 1 583 1 is_stmt 1 view -0
 1803              		.cfi_startproc
 1804              		@ args = 0, pretend = 0, frame = 0
 1805              		@ frame_needed = 0, uses_anonymous_args = 0
 583:../../Drivers/STM32H7xx_HAL_Driver/Src/stm32h7xx_hal_dma_ex.c ****   /* Check for DMAMUX Synchronization overrun */
 1806              		.loc 1 583 1 is_stmt 0 view .LVU557
 1807 0000 10B5     		push	{r4, lr}
 1808              	.LCFI6:
 1809              		.cfi_def_cfa_offset 8
 1810              		.cfi_offset 4, -8
 1811              		.cfi_offset 14, -4
 1812 0002 0446     		mov	r4, r0
 585:../../Drivers/STM32H7xx_HAL_Driver/Src/stm32h7xx_hal_dma_ex.c ****   {
 1813              		.loc 1 585 3 is_stmt 1 view .LVU558
 585:../../Drivers/STM32H7xx_HAL_Driver/Src/stm32h7xx_hal_dma_ex.c ****   {
 1814              		.loc 1 585 11 is_stmt 0 view .LVU559
ARM GAS  C:\Users\28576\AppData\Local\Temp\cc51Faqy.s 			page 54


 1815 0004 436E     		ldr	r3, [r0, #100]
 585:../../Drivers/STM32H7xx_HAL_Driver/Src/stm32h7xx_hal_dma_ex.c ****   {
 1816              		.loc 1 585 32 view .LVU560
 1817 0006 1A68     		ldr	r2, [r3]
 585:../../Drivers/STM32H7xx_HAL_Driver/Src/stm32h7xx_hal_dma_ex.c ****   {
 1818              		.loc 1 585 44 view .LVU561
 1819 0008 836E     		ldr	r3, [r0, #104]
 585:../../Drivers/STM32H7xx_HAL_Driver/Src/stm32h7xx_hal_dma_ex.c ****   {
 1820              		.loc 1 585 5 view .LVU562
 1821 000a 1A42     		tst	r2, r3
 1822 000c 0ED0     		beq	.L95
 588:../../Drivers/STM32H7xx_HAL_Driver/Src/stm32h7xx_hal_dma_ex.c **** 
 1823              		.loc 1 588 5 is_stmt 1 view .LVU563
 588:../../Drivers/STM32H7xx_HAL_Driver/Src/stm32h7xx_hal_dma_ex.c **** 
 1824              		.loc 1 588 9 is_stmt 0 view .LVU564
 1825 000e 026E     		ldr	r2, [r0, #96]
 588:../../Drivers/STM32H7xx_HAL_Driver/Src/stm32h7xx_hal_dma_ex.c **** 
 1826              		.loc 1 588 24 view .LVU565
 1827 0010 1368     		ldr	r3, [r2]
 588:../../Drivers/STM32H7xx_HAL_Driver/Src/stm32h7xx_hal_dma_ex.c **** 
 1828              		.loc 1 588 30 view .LVU566
 1829 0012 23F48073 		bic	r3, r3, #256
 1830 0016 1360     		str	r3, [r2]
 591:../../Drivers/STM32H7xx_HAL_Driver/Src/stm32h7xx_hal_dma_ex.c **** 
 1831              		.loc 1 591 5 is_stmt 1 view .LVU567
 591:../../Drivers/STM32H7xx_HAL_Driver/Src/stm32h7xx_hal_dma_ex.c **** 
 1832              		.loc 1 591 9 is_stmt 0 view .LVU568
 1833 0018 436E     		ldr	r3, [r0, #100]
 591:../../Drivers/STM32H7xx_HAL_Driver/Src/stm32h7xx_hal_dma_ex.c **** 
 1834              		.loc 1 591 42 view .LVU569
 1835 001a 826E     		ldr	r2, [r0, #104]
 591:../../Drivers/STM32H7xx_HAL_Driver/Src/stm32h7xx_hal_dma_ex.c **** 
 1836              		.loc 1 591 36 view .LVU570
 1837 001c 5A60     		str	r2, [r3, #4]
 594:../../Drivers/STM32H7xx_HAL_Driver/Src/stm32h7xx_hal_dma_ex.c **** 
 1838              		.loc 1 594 5 is_stmt 1 view .LVU571
 594:../../Drivers/STM32H7xx_HAL_Driver/Src/stm32h7xx_hal_dma_ex.c **** 
 1839              		.loc 1 594 9 is_stmt 0 view .LVU572
 1840 001e 436D     		ldr	r3, [r0, #84]
 594:../../Drivers/STM32H7xx_HAL_Driver/Src/stm32h7xx_hal_dma_ex.c **** 
 1841              		.loc 1 594 21 view .LVU573
 1842 0020 43F40073 		orr	r3, r3, #512
 1843 0024 4365     		str	r3, [r0, #84]
 596:../../Drivers/STM32H7xx_HAL_Driver/Src/stm32h7xx_hal_dma_ex.c ****     {
 1844              		.loc 1 596 5 is_stmt 1 view .LVU574
 596:../../Drivers/STM32H7xx_HAL_Driver/Src/stm32h7xx_hal_dma_ex.c ****     {
 1845              		.loc 1 596 12 is_stmt 0 view .LVU575
 1846 0026 C36C     		ldr	r3, [r0, #76]
 596:../../Drivers/STM32H7xx_HAL_Driver/Src/stm32h7xx_hal_dma_ex.c ****     {
 1847              		.loc 1 596 7 view .LVU576
 1848 0028 03B1     		cbz	r3, .L95
 599:../../Drivers/STM32H7xx_HAL_Driver/Src/stm32h7xx_hal_dma_ex.c ****     }
 1849              		.loc 1 599 7 is_stmt 1 view .LVU577
 1850 002a 9847     		blx	r3
 1851              	.LVL90:
 1852              	.L95:
 603:../../Drivers/STM32H7xx_HAL_Driver/Src/stm32h7xx_hal_dma_ex.c ****   {
ARM GAS  C:\Users\28576\AppData\Local\Temp\cc51Faqy.s 			page 55


 1853              		.loc 1 603 3 view .LVU578
 603:../../Drivers/STM32H7xx_HAL_Driver/Src/stm32h7xx_hal_dma_ex.c ****   {
 1854              		.loc 1 603 10 is_stmt 0 view .LVU579
 1855 002c E36E     		ldr	r3, [r4, #108]
 603:../../Drivers/STM32H7xx_HAL_Driver/Src/stm32h7xx_hal_dma_ex.c ****   {
 1856              		.loc 1 603 5 view .LVU580
 1857 002e 9BB1     		cbz	r3, .L94
 606:../../Drivers/STM32H7xx_HAL_Driver/Src/stm32h7xx_hal_dma_ex.c ****     {
 1858              		.loc 1 606 5 is_stmt 1 view .LVU581
 606:../../Drivers/STM32H7xx_HAL_Driver/Src/stm32h7xx_hal_dma_ex.c ****     {
 1859              		.loc 1 606 13 is_stmt 0 view .LVU582
 1860 0030 226F     		ldr	r2, [r4, #112]
 606:../../Drivers/STM32H7xx_HAL_Driver/Src/stm32h7xx_hal_dma_ex.c ****     {
 1861              		.loc 1 606 37 view .LVU583
 1862 0032 1168     		ldr	r1, [r2]
 606:../../Drivers/STM32H7xx_HAL_Driver/Src/stm32h7xx_hal_dma_ex.c ****     {
 1863              		.loc 1 606 50 view .LVU584
 1864 0034 626F     		ldr	r2, [r4, #116]
 606:../../Drivers/STM32H7xx_HAL_Driver/Src/stm32h7xx_hal_dma_ex.c ****     {
 1865              		.loc 1 606 7 view .LVU585
 1866 0036 1142     		tst	r1, r2
 1867 0038 0ED0     		beq	.L94
 609:../../Drivers/STM32H7xx_HAL_Driver/Src/stm32h7xx_hal_dma_ex.c **** 
 1868              		.loc 1 609 7 is_stmt 1 view .LVU586
 609:../../Drivers/STM32H7xx_HAL_Driver/Src/stm32h7xx_hal_dma_ex.c **** 
 1869              		.loc 1 609 29 is_stmt 0 view .LVU587
 1870 003a 1A68     		ldr	r2, [r3]
 609:../../Drivers/STM32H7xx_HAL_Driver/Src/stm32h7xx_hal_dma_ex.c **** 
 1871              		.loc 1 609 36 view .LVU588
 1872 003c 22F48072 		bic	r2, r2, #256
 1873 0040 1A60     		str	r2, [r3]
 612:../../Drivers/STM32H7xx_HAL_Driver/Src/stm32h7xx_hal_dma_ex.c **** 
 1874              		.loc 1 612 7 is_stmt 1 view .LVU589
 612:../../Drivers/STM32H7xx_HAL_Driver/Src/stm32h7xx_hal_dma_ex.c **** 
 1875              		.loc 1 612 11 is_stmt 0 view .LVU590
 1876 0042 236F     		ldr	r3, [r4, #112]
 612:../../Drivers/STM32H7xx_HAL_Driver/Src/stm32h7xx_hal_dma_ex.c **** 
 1877              		.loc 1 612 49 view .LVU591
 1878 0044 626F     		ldr	r2, [r4, #116]
 612:../../Drivers/STM32H7xx_HAL_Driver/Src/stm32h7xx_hal_dma_ex.c **** 
 1879              		.loc 1 612 43 view .LVU592
 1880 0046 5A60     		str	r2, [r3, #4]
 615:../../Drivers/STM32H7xx_HAL_Driver/Src/stm32h7xx_hal_dma_ex.c **** 
 1881              		.loc 1 615 7 is_stmt 1 view .LVU593
 615:../../Drivers/STM32H7xx_HAL_Driver/Src/stm32h7xx_hal_dma_ex.c **** 
 1882              		.loc 1 615 11 is_stmt 0 view .LVU594
 1883 0048 636D     		ldr	r3, [r4, #84]
 615:../../Drivers/STM32H7xx_HAL_Driver/Src/stm32h7xx_hal_dma_ex.c **** 
 1884              		.loc 1 615 23 view .LVU595
 1885 004a 43F48063 		orr	r3, r3, #1024
 1886 004e 6365     		str	r3, [r4, #84]
 617:../../Drivers/STM32H7xx_HAL_Driver/Src/stm32h7xx_hal_dma_ex.c ****       {
 1887              		.loc 1 617 7 is_stmt 1 view .LVU596
 617:../../Drivers/STM32H7xx_HAL_Driver/Src/stm32h7xx_hal_dma_ex.c ****       {
 1888              		.loc 1 617 14 is_stmt 0 view .LVU597
 1889 0050 E36C     		ldr	r3, [r4, #76]
 617:../../Drivers/STM32H7xx_HAL_Driver/Src/stm32h7xx_hal_dma_ex.c ****       {
ARM GAS  C:\Users\28576\AppData\Local\Temp\cc51Faqy.s 			page 56


 1890              		.loc 1 617 9 view .LVU598
 1891 0052 0BB1     		cbz	r3, .L94
 620:../../Drivers/STM32H7xx_HAL_Driver/Src/stm32h7xx_hal_dma_ex.c ****       }
 1892              		.loc 1 620 9 is_stmt 1 view .LVU599
 1893 0054 2046     		mov	r0, r4
 1894 0056 9847     		blx	r3
 1895              	.LVL91:
 1896              	.L94:
 624:../../Drivers/STM32H7xx_HAL_Driver/Src/stm32h7xx_hal_dma_ex.c **** 
 1897              		.loc 1 624 1 is_stmt 0 view .LVU600
 1898 0058 10BD     		pop	{r4, pc}
 624:../../Drivers/STM32H7xx_HAL_Driver/Src/stm32h7xx_hal_dma_ex.c **** 
 1899              		.loc 1 624 1 view .LVU601
 1900              		.cfi_endproc
 1901              	.LFE139:
 1903              		.text
 1904              	.Letext0:
 1905              		.file 2 "C:/Users/28576/AppData/Roaming/xPacks/@xpack-dev-tools/arm-none-eabi-gcc/15.2.1-1.1.1/.co
 1906              		.file 3 "C:/Users/28576/AppData/Roaming/xPacks/@xpack-dev-tools/arm-none-eabi-gcc/15.2.1-1.1.1/.co
 1907              		.file 4 "../../Drivers/CMSIS/Device/ST/STM32H7xx/Include/stm32h747xx.h"
 1908              		.file 5 "../../Drivers/CMSIS/Device/ST/STM32H7xx/Include/stm32h7xx.h"
 1909              		.file 6 "../../Drivers/STM32H7xx_HAL_Driver/Inc/stm32h7xx_hal_def.h"
 1910              		.file 7 "../../Drivers/STM32H7xx_HAL_Driver/Inc/stm32h7xx_hal_dma.h"
 1911              		.file 8 "../../Drivers/STM32H7xx_HAL_Driver/Inc/stm32h7xx_hal_dma_ex.h"
ARM GAS  C:\Users\28576\AppData\Local\Temp\cc51Faqy.s 			page 57

